GAS LISTING C:\Users\jisu8\AppData\Local\Temp\ccri5Yyj.s 			page 1


   1              		.file	"BarcodeFormat.c"
   2              		.text
   3              	Ltext0:
   4              		.section .rdata,"dr"
   5              	LC0:
   6 0000 4E4F4E45 		.ascii "NONE\0"
   6      00
   7              	LC1:
   8 0005 417A7465 		.ascii "Aztec\0"
   8      6300
   9              	LC2:
  10 000b 436F6461 		.ascii "Codabar\0"
  10      62617200 
  11              	LC3:
  12 0013 436F6465 		.ascii "Code39\0"
  12      333900
  13              	LC4:
  14 001a 436F6465 		.ascii "Code93\0"
  14      393300
  15              	LC5:
  16 0021 436F6465 		.ascii "Code128\0"
  16      31323800 
  17              	LC6:
  18 0029 44617461 		.ascii "DataBar\0"
  18      42617200 
  19              	LC7:
  20 0031 44617461 		.ascii "DataBarExpanded\0"
  20      42617245 
  20      7870616E 
  20      64656400 
  21              	LC8:
  22 0041 44617461 		.ascii "DataMatrix\0"
  22      4D617472 
  22      697800
  23              	LC9:
  24 004c 45414E38 		.ascii "EAN8\0"
  24      00
  25              	LC10:
  26 0051 45414E31 		.ascii "EAN13\0"
  26      3300
  27              	LC11:
  28 0057 49544600 		.ascii "ITF\0"
  29              	LC12:
  30 005b 4D617869 		.ascii "MaxiCode\0"
  30      436F6465 
  30      00
  31              	LC13:
  32 0064 50444634 		.ascii "PDF417\0"
  32      313700
  33              	LC14:
  34 006b 5152436F 		.ascii "QRCode\0"
  34      646500
  35              	LC15:
  36 0072 55504341 		.ascii "UPCA\0"
  36      00
  37              	LC16:
  38 0077 55504345 		.ascii "UPCE\0"
GAS LISTING C:\Users\jisu8\AppData\Local\Temp\ccri5Yyj.s 			page 2


  38      00
  39              	LC17:
  40 007c 4E554C4C 		.ascii "NULL\0"
  40      00
  41              		.text
  42              		.globl	_ToString_Format
  44              	_ToString_Format:
  45              	LFB1:
  46              		.file 1 "src/BarcodeFormat.c"
   1:src/BarcodeFormat.c **** /*
   2:src/BarcodeFormat.c **** * Copyright 2016 Nu-book Inc.
   3:src/BarcodeFormat.c **** * Copyright 2016 ZXing authors
   4:src/BarcodeFormat.c **** *
   5:src/BarcodeFormat.c **** * Licensed under the Apache License, Version 2.0 (the "License");
   6:src/BarcodeFormat.c **** * you may not use this file except in compliance with the License.
   7:src/BarcodeFormat.c **** * You may obtain a copy of the License at
   8:src/BarcodeFormat.c **** *
   9:src/BarcodeFormat.c **** *      http://www.apache.org/licenses/LICENSE-2.0
  10:src/BarcodeFormat.c **** *
  11:src/BarcodeFormat.c **** * Unless required by applicable law or agreed to in writing, software
  12:src/BarcodeFormat.c **** * distributed under the License is distributed on an "AS IS" BASIS,
  13:src/BarcodeFormat.c **** * WITHOUT WARRANTIES OR CONDITIONS OF ANY KIND, either express or implied.
  14:src/BarcodeFormat.c **** * See the License for the specific language governing permissions and
  15:src/BarcodeFormat.c **** * limitations under the License.
  16:src/BarcodeFormat.c **** */
  17:src/BarcodeFormat.c **** 
  18:src/BarcodeFormat.c **** #include "BarcodeFormat.h"
  19:src/BarcodeFormat.c **** #include <stdint.h>
  20:src/BarcodeFormat.c **** 
  21:src/BarcodeFormat.c **** #if 0
  22:src/BarcodeFormat.c **** struct BarcodeFormatName
  23:src/BarcodeFormat.c **** {
  24:src/BarcodeFormat.c **** 	BarcodeFormat format;
  25:src/BarcodeFormat.c **** 	const char* name;
  26:src/BarcodeFormat.c **** };
  27:src/BarcodeFormat.c **** #endif
  28:src/BarcodeFormat.c **** #if 0
  29:src/BarcodeFormat.c **** static BarcodeFormatName NAMES[] = {
  30:src/BarcodeFormat.c **** 	//{BarcodeFormat::None, "None"},
  31:src/BarcodeFormat.c **** 	//{BarcodeFormat::Aztec, "Aztec"},
  32:src/BarcodeFormat.c **** 	//{BarcodeFormat::Codabar, "Codabar"},
  33:src/BarcodeFormat.c **** 	//{BarcodeFormat::Code39, "Code39"},
  34:src/BarcodeFormat.c **** 	//{BarcodeFormat::Code93, "Code93"},
  35:src/BarcodeFormat.c **** 	//{BarcodeFormat::Code128, "Code128"},
  36:src/BarcodeFormat.c **** 	//{BarcodeFormat::DataBar, "DataBar"},
  37:src/BarcodeFormat.c **** 	//{BarcodeFormat::DataBarExpanded, "DataBarExpanded"},
  38:src/BarcodeFormat.c **** 	//{BarcodeFormat::DataMatrix, "DataMatrix"},
  39:src/BarcodeFormat.c **** 	//{BarcodeFormat::EAN8, "EAN-8"},
  40:src/BarcodeFormat.c **** 	//{BarcodeFormat::EAN13, "EAN-13"},
  41:src/BarcodeFormat.c **** 	//{BarcodeFormat::ITF, "ITF"},
  42:src/BarcodeFormat.c **** 	//{BarcodeFormat::MaxiCode, "MaxiCode"},
  43:src/BarcodeFormat.c **** 	{BarcodeFormat::PDF417, "PDF417"},
  44:src/BarcodeFormat.c **** 	//{BarcodeFormat::QRCode, "QRCode"},
  45:src/BarcodeFormat.c **** 	//{BarcodeFormat::UPCA, "UPC-A"},
  46:src/BarcodeFormat.c **** 	//{BarcodeFormat::UPCE, "UPC-E"},
  47:src/BarcodeFormat.c **** 	//{BarcodeFormat::OneDCodes, "1D-Codes"},
  48:src/BarcodeFormat.c **** 	//{BarcodeFormat::TwoDCodes, "2D-Codes"},
GAS LISTING C:\Users\jisu8\AppData\Local\Temp\ccri5Yyj.s 			page 3


  49:src/BarcodeFormat.c **** };
  50:src/BarcodeFormat.c **** #endif
  51:src/BarcodeFormat.c **** 
  52:src/BarcodeFormat.c **** const char * ToString_Format(BarcodeFormats_t format,char * ret)
  53:src/BarcodeFormat.c **** {
  47              		.loc 1 53 1
  48              		.cfi_startproc
  49 0000 55       		pushl	%ebp
  50              	LCFI0:
  51              		.cfi_def_cfa_offset 8
  52              		.cfi_offset 5, -8
  53 0001 89E5     		movl	%esp, %ebp
  54              	LCFI1:
  55              		.cfi_def_cfa_register 5
  56 0003 83EC28   		subl	$40, %esp
  57              	LBB2:
  54:src/BarcodeFormat.c **** 	for(uint8_t i=0;i<20;i++)
  58              		.loc 1 54 14
  59 0006 C645F700 		movb	$0, -9(%ebp)
  60              		.loc 1 54 2
  61 000a EB16     		jmp	L2
  62              	L3:
  55:src/BarcodeFormat.c **** 	{
  56:src/BarcodeFormat.c **** 		ret[i] = 0;
  63              		.loc 1 56 6 discriminator 3
  64 000c 0FB655F7 		movzbl	-9(%ebp), %edx
  65 0010 8B450C   		movl	12(%ebp), %eax
  66 0013 01D0     		addl	%edx, %eax
  67              		.loc 1 56 10 discriminator 3
  68 0015 C60000   		movb	$0, (%eax)
  54:src/BarcodeFormat.c **** 	for(uint8_t i=0;i<20;i++)
  69              		.loc 1 54 24 discriminator 3
  70 0018 0FB645F7 		movzbl	-9(%ebp), %eax
  71 001c 83C001   		addl	$1, %eax
  72 001f 8845F7   		movb	%al, -9(%ebp)
  73              	L2:
  54:src/BarcodeFormat.c **** 	for(uint8_t i=0;i<20;i++)
  74              		.loc 1 54 2 discriminator 1
  75 0022 807DF713 		cmpb	$19, -9(%ebp)
  76 0026 76E4     		jbe	L3
  77 0028 817D0880 		cmpl	$128, 8(%ebp)
  77      000000
  78 002f 0F84BD01 		je	L4
  78      0000
  79 0035 817D0880 		cmpl	$128, 8(%ebp)
  79      000000
  80 003c 776B     		ja	L5
  81 003e 837D0804 		cmpl	$4, 8(%ebp)
  82 0042 0F843201 		je	L6
  82      0000
  83 0048 837D0804 		cmpl	$4, 8(%ebp)
  84 004c 7723     		ja	L7
  85 004e 837D0801 		cmpl	$1, 8(%ebp)
  86 0052 0F84F200 		je	L8
  86      0000
  87 0058 837D0800 		cmpl	$0, 8(%ebp)
  88 005c 0F84D000 		je	L9
GAS LISTING C:\Users\jisu8\AppData\Local\Temp\ccri5Yyj.s 			page 4


  88      0000
  89 0062 837D0802 		cmpl	$2, 8(%ebp)
  90 0066 0F84F600 		je	L10
  90      0000
  91 006c E9470200 		jmp	L11
  91      00
  92              	L7:
  93 0071 837D0810 		cmpl	$16, 8(%ebp)
  94 0075 0F842F01 		je	L12
  94      0000
  95 007b 837D0810 		cmpl	$16, 8(%ebp)
  96 007f 770F     		ja	L13
  97 0081 837D0808 		cmpl	$8, 8(%ebp)
  98 0085 0F840701 		je	L14
  98      0000
  99 008b E9280200 		jmp	L11
  99      00
 100              	L13:
 101 0090 837D0820 		cmpl	$32, 8(%ebp)
 102 0094 0F842801 		je	L15
 102      0000
 103 009a 837D0840 		cmpl	$64, 8(%ebp)
 104 009e 0F843601 		je	L16
 104      0000
 105 00a4 E90F0200 		jmp	L11
 105      00
 106              	L5:
 107 00a9 817D0800 		cmpl	$2048, 8(%ebp)
 107      080000
 108 00b0 0F849901 		je	L17
 108      0000
 109 00b6 817D0800 		cmpl	$2048, 8(%ebp)
 109      080000
 110 00bd 772C     		ja	L18
 111 00bf 817D0800 		cmpl	$512, 8(%ebp)
 111      020000
 112 00c6 0F845601 		je	L19
 112      0000
 113 00cc 817D0800 		cmpl	$1024, 8(%ebp)
 113      040000
 114 00d3 0F846101 		je	L20
 114      0000
 115 00d9 817D0800 		cmpl	$256, 8(%ebp)
 115      010000
 116 00e0 0F842401 		je	L21
 116      0000
 117 00e6 E9CD0100 		jmp	L11
 117      00
 118              	L18:
 119 00eb 817D0800 		cmpl	$8192, 8(%ebp)
 119      200000
 120 00f2 0F848101 		je	L22
 120      0000
 121 00f8 817D0800 		cmpl	$8192, 8(%ebp)
 121      200000
 122 00ff 7712     		ja	L23
 123 0101 817D0800 		cmpl	$4096, 8(%ebp)
GAS LISTING C:\Users\jisu8\AppData\Local\Temp\ccri5Yyj.s 			page 5


 123      100000
 124 0108 0F845601 		je	L24
 124      0000
 125 010e E9A50100 		jmp	L11
 125      00
 126              	L23:
 127 0113 817D0800 		cmpl	$16384, 8(%ebp)
 127      400000
 128 011a 0F846E01 		je	L25
 128      0000
 129 0120 817D0800 		cmpl	$32768, 8(%ebp)
 129      800000
 130 0127 0F847601 		je	L26
 130      0000
 131 012d E9860100 		jmp	L11
 131      00
 132              	L9:
 133              	LBE2:
 134              	LBB3:
  57:src/BarcodeFormat.c **** 	}
  58:src/BarcodeFormat.c **** 	switch(format)
  59:src/BarcodeFormat.c **** 	{
  60:src/BarcodeFormat.c **** 		case NONE :
  61:src/BarcodeFormat.c **** 			sprintf(ret,"NONE");
 135              		.loc 1 61 4
 136 0132 C7442404 		movl	$LC0, 4(%esp)
 136      00000000 
 137 013a 8B450C   		movl	12(%ebp), %eax
 138 013d 890424   		movl	%eax, (%esp)
 139 0140 E8000000 		call	_sprintf
 139      00
  62:src/BarcodeFormat.c **** 		break; 
 140              		.loc 1 62 3
 141 0145 E9820100 		jmp	L27
 141      00
 142              	L8:
  63:src/BarcodeFormat.c **** 		case Aztec :
  64:src/BarcodeFormat.c **** 			sprintf(ret,"Aztec");
 143              		.loc 1 64 4
 144 014a C7442404 		movl	$LC1, 4(%esp)
 144      05000000 
 145 0152 8B450C   		movl	12(%ebp), %eax
 146 0155 890424   		movl	%eax, (%esp)
 147 0158 E8000000 		call	_sprintf
 147      00
  65:src/BarcodeFormat.c **** 		break; 
 148              		.loc 1 65 3
 149 015d E96A0100 		jmp	L27
 149      00
 150              	L10:
  66:src/BarcodeFormat.c **** 		case Codabar :
  67:src/BarcodeFormat.c **** 			sprintf(ret,"Codabar");
 151              		.loc 1 67 4
 152 0162 C7442404 		movl	$LC2, 4(%esp)
 152      0B000000 
 153 016a 8B450C   		movl	12(%ebp), %eax
 154 016d 890424   		movl	%eax, (%esp)
GAS LISTING C:\Users\jisu8\AppData\Local\Temp\ccri5Yyj.s 			page 6


 155 0170 E8000000 		call	_sprintf
 155      00
  68:src/BarcodeFormat.c **** 		break; 
 156              		.loc 1 68 3
 157 0175 E9520100 		jmp	L27
 157      00
 158              	L6:
  69:src/BarcodeFormat.c **** 		case Code39 :
  70:src/BarcodeFormat.c **** 			sprintf(ret,"Code39");
 159              		.loc 1 70 4
 160 017a C7442404 		movl	$LC3, 4(%esp)
 160      13000000 
 161 0182 8B450C   		movl	12(%ebp), %eax
 162 0185 890424   		movl	%eax, (%esp)
 163 0188 E8000000 		call	_sprintf
 163      00
  71:src/BarcodeFormat.c **** 		break; 
 164              		.loc 1 71 3
 165 018d E93A0100 		jmp	L27
 165      00
 166              	L14:
  72:src/BarcodeFormat.c **** 		case Code93 :
  73:src/BarcodeFormat.c **** 			sprintf(ret,"Code93");
 167              		.loc 1 73 4
 168 0192 C7442404 		movl	$LC4, 4(%esp)
 168      1A000000 
 169 019a 8B450C   		movl	12(%ebp), %eax
 170 019d 890424   		movl	%eax, (%esp)
 171 01a0 E8000000 		call	_sprintf
 171      00
  74:src/BarcodeFormat.c **** 		break; 
 172              		.loc 1 74 3
 173 01a5 E9220100 		jmp	L27
 173      00
 174              	L12:
  75:src/BarcodeFormat.c **** 		case Code128 :
  76:src/BarcodeFormat.c **** 			sprintf(ret,"Code128");
 175              		.loc 1 76 4
 176 01aa C7442404 		movl	$LC5, 4(%esp)
 176      21000000 
 177 01b2 8B450C   		movl	12(%ebp), %eax
 178 01b5 890424   		movl	%eax, (%esp)
 179 01b8 E8000000 		call	_sprintf
 179      00
  77:src/BarcodeFormat.c **** 		break; 
 180              		.loc 1 77 3
 181 01bd E90A0100 		jmp	L27
 181      00
 182              	L15:
  78:src/BarcodeFormat.c **** 		case DataBar :
  79:src/BarcodeFormat.c **** 			sprintf(ret,"DataBar");
 183              		.loc 1 79 4
 184 01c2 C7442404 		movl	$LC6, 4(%esp)
 184      29000000 
 185 01ca 8B450C   		movl	12(%ebp), %eax
 186 01cd 890424   		movl	%eax, (%esp)
 187 01d0 E8000000 		call	_sprintf
GAS LISTING C:\Users\jisu8\AppData\Local\Temp\ccri5Yyj.s 			page 7


 187      00
  80:src/BarcodeFormat.c **** 		break; 
 188              		.loc 1 80 3
 189 01d5 E9F20000 		jmp	L27
 189      00
 190              	L16:
  81:src/BarcodeFormat.c **** 		case DataBarExpanded :
  82:src/BarcodeFormat.c **** 			sprintf(ret,"DataBarExpanded");
 191              		.loc 1 82 4
 192 01da C7442404 		movl	$LC7, 4(%esp)
 192      31000000 
 193 01e2 8B450C   		movl	12(%ebp), %eax
 194 01e5 890424   		movl	%eax, (%esp)
 195 01e8 E8000000 		call	_sprintf
 195      00
  83:src/BarcodeFormat.c **** 		break; 
 196              		.loc 1 83 3
 197 01ed E9DA0000 		jmp	L27
 197      00
 198              	L4:
  84:src/BarcodeFormat.c **** 		case DataMatrix :
  85:src/BarcodeFormat.c **** 			sprintf(ret,"DataMatrix");
 199              		.loc 1 85 4
 200 01f2 C7442404 		movl	$LC8, 4(%esp)
 200      41000000 
 201 01fa 8B450C   		movl	12(%ebp), %eax
 202 01fd 890424   		movl	%eax, (%esp)
 203 0200 E8000000 		call	_sprintf
 203      00
  86:src/BarcodeFormat.c **** 		break; 
 204              		.loc 1 86 3
 205 0205 E9C20000 		jmp	L27
 205      00
 206              	L21:
  87:src/BarcodeFormat.c **** 		case EAN8 :
  88:src/BarcodeFormat.c **** 			sprintf(ret,"EAN8");
 207              		.loc 1 88 4
 208 020a C7442404 		movl	$LC9, 4(%esp)
 208      4C000000 
 209 0212 8B450C   		movl	12(%ebp), %eax
 210 0215 890424   		movl	%eax, (%esp)
 211 0218 E8000000 		call	_sprintf
 211      00
  89:src/BarcodeFormat.c **** 		break; 
 212              		.loc 1 89 3
 213 021d E9AA0000 		jmp	L27
 213      00
 214              	L19:
  90:src/BarcodeFormat.c **** 		case EAN13 :
  91:src/BarcodeFormat.c **** 			sprintf(ret,"EAN13");
 215              		.loc 1 91 4
 216 0222 C7442404 		movl	$LC10, 4(%esp)
 216      51000000 
 217 022a 8B450C   		movl	12(%ebp), %eax
 218 022d 890424   		movl	%eax, (%esp)
 219 0230 E8000000 		call	_sprintf
 219      00
GAS LISTING C:\Users\jisu8\AppData\Local\Temp\ccri5Yyj.s 			page 8


  92:src/BarcodeFormat.c **** 		break; 
 220              		.loc 1 92 3
 221 0235 E9920000 		jmp	L27
 221      00
 222              	L20:
  93:src/BarcodeFormat.c **** 		case ITF :
  94:src/BarcodeFormat.c **** 			sprintf(ret,"ITF");
 223              		.loc 1 94 4
 224 023a C7442404 		movl	$LC11, 4(%esp)
 224      57000000 
 225 0242 8B450C   		movl	12(%ebp), %eax
 226 0245 890424   		movl	%eax, (%esp)
 227 0248 E8000000 		call	_sprintf
 227      00
  95:src/BarcodeFormat.c **** 		break; 
 228              		.loc 1 95 3
 229 024d EB7D     		jmp	L27
 230              	L17:
  96:src/BarcodeFormat.c **** 		case MaxiCode :
  97:src/BarcodeFormat.c **** 			sprintf(ret,"MaxiCode");
 231              		.loc 1 97 4
 232 024f C7442404 		movl	$LC12, 4(%esp)
 232      5B000000 
 233 0257 8B450C   		movl	12(%ebp), %eax
 234 025a 890424   		movl	%eax, (%esp)
 235 025d E8000000 		call	_sprintf
 235      00
  98:src/BarcodeFormat.c **** 		break; 
 236              		.loc 1 98 3
 237 0262 EB68     		jmp	L27
 238              	L24:
  99:src/BarcodeFormat.c **** 		case PDF417 :
 100:src/BarcodeFormat.c **** 			sprintf(ret,"PDF417");
 239              		.loc 1 100 4
 240 0264 C7442404 		movl	$LC13, 4(%esp)
 240      64000000 
 241 026c 8B450C   		movl	12(%ebp), %eax
 242 026f 890424   		movl	%eax, (%esp)
 243 0272 E8000000 		call	_sprintf
 243      00
 101:src/BarcodeFormat.c **** 		break; 
 244              		.loc 1 101 3
 245 0277 EB53     		jmp	L27
 246              	L22:
 102:src/BarcodeFormat.c **** 		case QRCode :
 103:src/BarcodeFormat.c **** 			sprintf(ret,"QRCode");
 247              		.loc 1 103 4
 248 0279 C7442404 		movl	$LC14, 4(%esp)
 248      6B000000 
 249 0281 8B450C   		movl	12(%ebp), %eax
 250 0284 890424   		movl	%eax, (%esp)
 251 0287 E8000000 		call	_sprintf
 251      00
 104:src/BarcodeFormat.c **** 		break; 
 252              		.loc 1 104 3
 253 028c EB3E     		jmp	L27
 254              	L25:
GAS LISTING C:\Users\jisu8\AppData\Local\Temp\ccri5Yyj.s 			page 9


 105:src/BarcodeFormat.c **** 		case UPCA :
 106:src/BarcodeFormat.c **** 			sprintf(ret,"UPCA");
 255              		.loc 1 106 4
 256 028e C7442404 		movl	$LC15, 4(%esp)
 256      72000000 
 257 0296 8B450C   		movl	12(%ebp), %eax
 258 0299 890424   		movl	%eax, (%esp)
 259 029c E8000000 		call	_sprintf
 259      00
 107:src/BarcodeFormat.c **** 		break; 
 260              		.loc 1 107 3
 261 02a1 EB29     		jmp	L27
 262              	L26:
 108:src/BarcodeFormat.c **** 		case UPCE :
 109:src/BarcodeFormat.c **** 			sprintf(ret,"UPCE");
 263              		.loc 1 109 4
 264 02a3 C7442404 		movl	$LC16, 4(%esp)
 264      77000000 
 265 02ab 8B450C   		movl	12(%ebp), %eax
 266 02ae 890424   		movl	%eax, (%esp)
 267 02b1 E8000000 		call	_sprintf
 267      00
 110:src/BarcodeFormat.c **** 		break; 
 268              		.loc 1 110 3
 269 02b6 EB14     		jmp	L27
 270              	L11:
 111:src/BarcodeFormat.c **** 		default :
 112:src/BarcodeFormat.c **** 			sprintf(ret,"NULL");
 271              		.loc 1 112 4
 272 02b8 C7442404 		movl	$LC17, 4(%esp)
 272      7C000000 
 273 02c0 8B450C   		movl	12(%ebp), %eax
 274 02c3 890424   		movl	%eax, (%esp)
 275 02c6 E8000000 		call	_sprintf
 275      00
 113:src/BarcodeFormat.c **** 		break;
 276              		.loc 1 113 3
 277 02cb 90       		nop
 278              	L27:
 279              	LBE3:
 114:src/BarcodeFormat.c **** 	}
 115:src/BarcodeFormat.c **** 	return ret;
 280              		.loc 1 115 9
 281 02cc 8B450C   		movl	12(%ebp), %eax
 116:src/BarcodeFormat.c **** }
 282              		.loc 1 116 1
 283 02cf C9       		leave
 284              	LCFI2:
 285              		.cfi_restore 5
 286              		.cfi_def_cfa 4, 4
 287 02d0 C3       		ret
 288              		.cfi_endproc
 289              	LFE1:
 290              		.section .rdata,"dr"
 291              	LC18:
 292 0081 4E6F4572 		.ascii "NoError\0"
 292      726F7200 
GAS LISTING C:\Users\jisu8\AppData\Local\Temp\ccri5Yyj.s 			page 10


 293              	LC19:
 294 0089 4E6F7446 		.ascii "NotFound\0"
 294      6F756E64 
 294      00
 295              	LC20:
 296 0092 466F726D 		.ascii "FormatError\0"
 296      61744572 
 296      726F7200 
 297              	LC21:
 298 009e 43686563 		.ascii "ChecksumError\0"
 298      6B73756D 
 298      4572726F 
 298      7200
 299              		.text
 300              		.globl	_ToString_Status
 302              	_ToString_Status:
 303              	LFB2:
 117:src/BarcodeFormat.c **** 
 118:src/BarcodeFormat.c **** const char * ToString_Status(DecodeStatus_t status,char * ret)
 119:src/BarcodeFormat.c **** {
 304              		.loc 1 119 1
 305              		.cfi_startproc
 306 02d1 55       		pushl	%ebp
 307              	LCFI3:
 308              		.cfi_def_cfa_offset 8
 309              		.cfi_offset 5, -8
 310 02d2 89E5     		movl	%esp, %ebp
 311              	LCFI4:
 312              		.cfi_def_cfa_register 5
 313 02d4 83EC28   		subl	$40, %esp
 314              	LBB4:
 120:src/BarcodeFormat.c **** 	for(uint8_t i=0;i<20;i++)
 315              		.loc 1 120 14
 316 02d7 C645F700 		movb	$0, -9(%ebp)
 317              		.loc 1 120 2
 318 02db EB16     		jmp	L30
 319              	L31:
 121:src/BarcodeFormat.c **** 	{
 122:src/BarcodeFormat.c **** 		ret[i] = 0;
 320              		.loc 1 122 6 discriminator 3
 321 02dd 0FB655F7 		movzbl	-9(%ebp), %edx
 322 02e1 8B450C   		movl	12(%ebp), %eax
 323 02e4 01D0     		addl	%edx, %eax
 324              		.loc 1 122 10 discriminator 3
 325 02e6 C60000   		movb	$0, (%eax)
 120:src/BarcodeFormat.c **** 	for(uint8_t i=0;i<20;i++)
 326              		.loc 1 120 24 discriminator 3
 327 02e9 0FB645F7 		movzbl	-9(%ebp), %eax
 328 02ed 83C001   		addl	$1, %eax
 329 02f0 8845F7   		movb	%al, -9(%ebp)
 330              	L30:
 120:src/BarcodeFormat.c **** 	for(uint8_t i=0;i<20;i++)
 331              		.loc 1 120 2 discriminator 1
 332 02f3 807DF713 		cmpb	$19, -9(%ebp)
 333 02f7 76E4     		jbe	L31
 334 02f9 837D0801 		cmpl	$1, 8(%ebp)
 335 02fd 7429     		je	L32
GAS LISTING C:\Users\jisu8\AppData\Local\Temp\ccri5Yyj.s 			page 11


 336 02ff 837D0800 		cmpl	$0, 8(%ebp)
 337 0303 740E     		je	L33
 338 0305 837D0802 		cmpl	$2, 8(%ebp)
 339 0309 7432     		je	L34
 340 030b 837D0803 		cmpl	$3, 8(%ebp)
 341 030f 7441     		je	L35
 342 0311 EB53     		jmp	L36
 343              	L33:
 344              	LBE4:
 345              	LBB5:
 123:src/BarcodeFormat.c **** 	}
 124:src/BarcodeFormat.c **** 
 125:src/BarcodeFormat.c **** 	switch(status)
 126:src/BarcodeFormat.c **** 	{
 127:src/BarcodeFormat.c **** 		case NoError :
 128:src/BarcodeFormat.c **** 			sprintf(ret,"NoError");
 346              		.loc 1 128 4
 347 0313 C7442404 		movl	$LC18, 4(%esp)
 347      81000000 
 348 031b 8B450C   		movl	12(%ebp), %eax
 349 031e 890424   		movl	%eax, (%esp)
 350 0321 E8000000 		call	_sprintf
 350      00
 129:src/BarcodeFormat.c **** 		break;
 351              		.loc 1 129 3
 352 0326 EB3E     		jmp	L36
 353              	L32:
 130:src/BarcodeFormat.c **** 		case NotFound :
 131:src/BarcodeFormat.c **** 			sprintf(ret,"NotFound");
 354              		.loc 1 131 4
 355 0328 C7442404 		movl	$LC19, 4(%esp)
 355      89000000 
 356 0330 8B450C   		movl	12(%ebp), %eax
 357 0333 890424   		movl	%eax, (%esp)
 358 0336 E8000000 		call	_sprintf
 358      00
 132:src/BarcodeFormat.c **** 		break;
 359              		.loc 1 132 3
 360 033b EB29     		jmp	L36
 361              	L34:
 133:src/BarcodeFormat.c **** 		case FormatError :
 134:src/BarcodeFormat.c **** 			sprintf(ret,"FormatError");
 362              		.loc 1 134 4
 363 033d C7442404 		movl	$LC20, 4(%esp)
 363      92000000 
 364 0345 8B450C   		movl	12(%ebp), %eax
 365 0348 890424   		movl	%eax, (%esp)
 366 034b E8000000 		call	_sprintf
 366      00
 135:src/BarcodeFormat.c **** 		break;
 367              		.loc 1 135 3
 368 0350 EB14     		jmp	L36
 369              	L35:
 136:src/BarcodeFormat.c **** 		case ChecksumError :
 137:src/BarcodeFormat.c **** 			sprintf(ret,"ChecksumError");
 370              		.loc 1 137 4
 371 0352 C7442404 		movl	$LC21, 4(%esp)
GAS LISTING C:\Users\jisu8\AppData\Local\Temp\ccri5Yyj.s 			page 12


 371      9E000000 
 372 035a 8B450C   		movl	12(%ebp), %eax
 373 035d 890424   		movl	%eax, (%esp)
 374 0360 E8000000 		call	_sprintf
 374      00
 138:src/BarcodeFormat.c **** 		break;
 375              		.loc 1 138 3
 376 0365 90       		nop
 377              	L36:
 378              	LBE5:
 139:src/BarcodeFormat.c **** 	}
 140:src/BarcodeFormat.c **** 	return ret;
 379              		.loc 1 140 9
 380 0366 8B450C   		movl	12(%ebp), %eax
 141:src/BarcodeFormat.c **** }
 381              		.loc 1 141 1
 382 0369 C9       		leave
 383              	LCFI5:
 384              		.cfi_restore 5
 385              		.cfi_def_cfa 4, 4
 386 036a C3       		ret
 387              		.cfi_endproc
 388              	LFE2:
 389              	Letext0:
 390              		.file 2 "src/DecodeStatus.h"
 391              		.file 3 "src/BarcodeFormat.h"
 392              		.file 4 "D:/3.tools/mingw/mingw32/i686-w64-mingw32/include/stdint.h"
 393              		.file 5 "<built-in>"
 394 036b 90       		.section	.debug_info,"dr"
 395              	Ldebug_info0:
 396 0000 D6030000 		.long	0x3d6
 397 0004 0200     		.word	0x2
 398 0006 00000000 		.secrel32	Ldebug_abbrev0
 399 000a 04       		.byte	0x4
 400 000b 01       		.uleb128 0x1
 401 000c 474E5520 		.ascii "GNU C17 8.1.0 -mtune=generic -march=i686 -g -gdwarf-2 -O0\0"
 401      43313720 
 401      382E312E 
 401      30202D6D 
 401      74756E65 
 402 0046 0C       		.byte	0xc
 403 0047 7372632F 		.ascii "src/BarcodeFormat.c\0"
 403      42617263 
 403      6F646546 
 403      6F726D61 
 403      742E6300 
 404 005b 443A5C31 		.ascii "D:\\1.Project_workspace\\PDF_BARCODE\0"
 404      2E50726F 
 404      6A656374 
 404      5F776F72 
 404      6B737061 
 405 007e 00000000 		.long	Ltext0
 406 0082 6B030000 		.long	Letext0
 407 0086 00000000 		.secrel32	Ldebug_line0
 408 008a 02       		.uleb128 0x2
 409 008b 07       		.byte	0x7
 410 008c 04       		.byte	0x4
GAS LISTING C:\Users\jisu8\AppData\Local\Temp\ccri5Yyj.s 			page 13


 411 008d CC000000 		.long	0xcc
 412 0091 02       		.byte	0x2
 413 0092 04       		.byte	0x4
 414 0093 01       		.byte	0x1
 415 0094 CC000000 		.long	0xcc
 416 0098 03       		.uleb128 0x3
 417 0099 4E6F4572 		.ascii "NoError\0"
 417      726F7200 
 418 00a1 00       		.byte	0
 419 00a2 03       		.uleb128 0x3
 420 00a3 4E6F7446 		.ascii "NotFound\0"
 420      6F756E64 
 420      00
 421 00ac 01       		.byte	0x1
 422 00ad 03       		.uleb128 0x3
 423 00ae 466F726D 		.ascii "FormatError\0"
 423      61744572 
 423      726F7200 
 424 00ba 02       		.byte	0x2
 425 00bb 03       		.uleb128 0x3
 426 00bc 43686563 		.ascii "ChecksumError\0"
 426      6B73756D 
 426      4572726F 
 426      7200
 427 00ca 03       		.byte	0x3
 428 00cb 00       		.byte	0
 429 00cc 04       		.uleb128 0x4
 430 00cd 04       		.byte	0x4
 431 00ce 07       		.byte	0x7
 432 00cf 756E7369 		.ascii "unsigned int\0"
 432      676E6564 
 432      20696E74 
 432      00
 433 00dc 05       		.uleb128 0x5
 434 00dd 4465636F 		.ascii "DecodeStatus_t\0"
 434      64655374 
 434      61747573 
 434      5F7400
 435 00ec 02       		.byte	0x2
 436 00ed 09       		.byte	0x9
 437 00ee 02       		.byte	0x2
 438 00ef 8A000000 		.long	0x8a
 439 00f3 02       		.uleb128 0x2
 440 00f4 07       		.byte	0x7
 441 00f5 04       		.byte	0x4
 442 00f6 CC000000 		.long	0xcc
 443 00fa 03       		.byte	0x3
 444 00fb 07       		.byte	0x7
 445 00fc 01       		.byte	0x1
 446 00fd C9010000 		.long	0x1c9
 447 0101 03       		.uleb128 0x3
 448 0102 4E4F4E45 		.ascii "NONE\0"
 448      00
 449 0107 00       		.byte	0
 450 0108 03       		.uleb128 0x3
 451 0109 417A7465 		.ascii "Aztec\0"
 451      6300
GAS LISTING C:\Users\jisu8\AppData\Local\Temp\ccri5Yyj.s 			page 14


 452 010f 01       		.byte	0x1
 453 0110 03       		.uleb128 0x3
 454 0111 436F6461 		.ascii "Codabar\0"
 454      62617200 
 455 0119 02       		.byte	0x2
 456 011a 03       		.uleb128 0x3
 457 011b 436F6465 		.ascii "Code39\0"
 457      333900
 458 0122 04       		.byte	0x4
 459 0123 03       		.uleb128 0x3
 460 0124 436F6465 		.ascii "Code93\0"
 460      393300
 461 012b 08       		.byte	0x8
 462 012c 03       		.uleb128 0x3
 463 012d 436F6465 		.ascii "Code128\0"
 463      31323800 
 464 0135 10       		.byte	0x10
 465 0136 03       		.uleb128 0x3
 466 0137 44617461 		.ascii "DataBar\0"
 466      42617200 
 467 013f 20       		.byte	0x20
 468 0140 03       		.uleb128 0x3
 469 0141 44617461 		.ascii "DataBarExpanded\0"
 469      42617245 
 469      7870616E 
 469      64656400 
 470 0151 40       		.byte	0x40
 471 0152 03       		.uleb128 0x3
 472 0153 44617461 		.ascii "DataMatrix\0"
 472      4D617472 
 472      697800
 473 015e 80       		.byte	0x80
 474 015f 06       		.uleb128 0x6
 475 0160 45414E38 		.ascii "EAN8\0"
 475      00
 476 0165 0001     		.word	0x100
 477 0167 06       		.uleb128 0x6
 478 0168 45414E31 		.ascii "EAN13\0"
 478      3300
 479 016e 0002     		.word	0x200
 480 0170 06       		.uleb128 0x6
 481 0171 49544600 		.ascii "ITF\0"
 482 0175 0004     		.word	0x400
 483 0177 06       		.uleb128 0x6
 484 0178 4D617869 		.ascii "MaxiCode\0"
 484      436F6465 
 484      00
 485 0181 0008     		.word	0x800
 486 0183 06       		.uleb128 0x6
 487 0184 50444634 		.ascii "PDF417\0"
 487      313700
 488 018b 0010     		.word	0x1000
 489 018d 06       		.uleb128 0x6
 490 018e 5152436F 		.ascii "QRCode\0"
 490      646500
 491 0195 0020     		.word	0x2000
 492 0197 06       		.uleb128 0x6
GAS LISTING C:\Users\jisu8\AppData\Local\Temp\ccri5Yyj.s 			page 15


 493 0198 55504341 		.ascii "UPCA\0"
 493      00
 494 019d 0040     		.word	0x4000
 495 019f 06       		.uleb128 0x6
 496 01a0 55504345 		.ascii "UPCE\0"
 496      00
 497 01a5 0080     		.word	0x8000
 498 01a7 06       		.uleb128 0x6
 499 01a8 4F6E6544 		.ascii "OneDCodes\0"
 499      436F6465 
 499      7300
 500 01b2 7EC7     		.word	0xc77e
 501 01b4 06       		.uleb128 0x6
 502 01b5 54776F44 		.ascii "TwoDCodes\0"
 502      436F6465 
 502      7300
 503 01bf 8138     		.word	0x3881
 504 01c1 06       		.uleb128 0x6
 505 01c2 416E7900 		.ascii "Any\0"
 506 01c6 FFFF     		.word	0xffff
 507 01c8 00       		.byte	0
 508 01c9 05       		.uleb128 0x5
 509 01ca 42617263 		.ascii "BarcodeFormats_t\0"
 509      6F646546 
 509      6F726D61 
 509      74735F74 
 509      00
 510 01db 03       		.byte	0x3
 511 01dc 20       		.byte	0x20
 512 01dd 02       		.byte	0x2
 513 01de F3000000 		.long	0xf3
 514 01e2 04       		.uleb128 0x4
 515 01e3 01       		.byte	0x1
 516 01e4 06       		.byte	0x6
 517 01e5 63686172 		.ascii "char\0"
 517      00
 518 01ea 07       		.uleb128 0x7
 519 01eb E2010000 		.long	0x1e2
 520 01ef 04       		.uleb128 0x4
 521 01f0 04       		.byte	0x4
 522 01f1 05       		.byte	0x5
 523 01f2 696E7400 		.ascii "int\0"
 524 01f6 04       		.uleb128 0x4
 525 01f7 02       		.byte	0x2
 526 01f8 07       		.byte	0x7
 527 01f9 73686F72 		.ascii "short unsigned int\0"
 527      7420756E 
 527      7369676E 
 527      65642069 
 527      6E7400
 528 020c 04       		.uleb128 0x4
 529 020d 04       		.byte	0x4
 530 020e 05       		.byte	0x5
 531 020f 6C6F6E67 		.ascii "long int\0"
 531      20696E74 
 531      00
 532 0218 04       		.uleb128 0x4
GAS LISTING C:\Users\jisu8\AppData\Local\Temp\ccri5Yyj.s 			page 16


 533 0219 08       		.byte	0x8
 534 021a 05       		.byte	0x5
 535 021b 6C6F6E67 		.ascii "long long int\0"
 535      206C6F6E 
 535      6720696E 
 535      7400
 536 0229 08       		.uleb128 0x8
 537 022a 04       		.byte	0x4
 538 022b E2010000 		.long	0x1e2
 539 022f 04       		.uleb128 0x4
 540 0230 04       		.byte	0x4
 541 0231 07       		.byte	0x7
 542 0232 6C6F6E67 		.ascii "long unsigned int\0"
 542      20756E73 
 542      69676E65 
 542      6420696E 
 542      7400
 543 0244 04       		.uleb128 0x4
 544 0245 01       		.byte	0x1
 545 0246 08       		.byte	0x8
 546 0247 756E7369 		.ascii "unsigned char\0"
 546      676E6564 
 546      20636861 
 546      7200
 547 0255 04       		.uleb128 0x4
 548 0256 0C       		.byte	0xc
 549 0257 04       		.byte	0x4
 550 0258 6C6F6E67 		.ascii "long double\0"
 550      20646F75 
 550      626C6500 
 551 0264 04       		.uleb128 0x4
 552 0265 10       		.byte	0x10
 553 0266 04       		.byte	0x4
 554 0267 5F466C6F 		.ascii "_Float128\0"
 554      61743132 
 554      3800
 555 0271 04       		.uleb128 0x4
 556 0272 01       		.byte	0x1
 557 0273 06       		.byte	0x6
 558 0274 7369676E 		.ascii "signed char\0"
 558      65642063 
 558      68617200 
 559 0280 05       		.uleb128 0x5
 560 0281 75696E74 		.ascii "uint8_t\0"
 560      385F7400 
 561 0289 04       		.byte	0x4
 562 028a 24       		.byte	0x24
 563 028b 19       		.byte	0x19
 564 028c 44020000 		.long	0x244
 565 0290 04       		.uleb128 0x4
 566 0291 02       		.byte	0x2
 567 0292 05       		.byte	0x5
 568 0293 73686F72 		.ascii "short int\0"
 568      7420696E 
 568      7400
 569 029d 04       		.uleb128 0x4
 570 029e 08       		.byte	0x8
GAS LISTING C:\Users\jisu8\AppData\Local\Temp\ccri5Yyj.s 			page 17


 571 029f 07       		.byte	0x7
 572 02a0 6C6F6E67 		.ascii "long long unsigned int\0"
 572      206C6F6E 
 572      6720756E 
 572      7369676E 
 572      65642069 
 573 02b7 09       		.uleb128 0x9
 574 02b8 01       		.byte	0x1
 575 02b9 546F5374 		.ascii "ToString_Status\0"
 575      72696E67 
 575      5F537461 
 575      74757300 
 576 02c9 01       		.byte	0x1
 577 02ca 76       		.byte	0x76
 578 02cb 0E       		.byte	0xe
 579 02cc 01       		.byte	0x1
 580 02cd 47030000 		.long	0x347
 581 02d1 D1020000 		.long	LFB2
 582 02d5 6B030000 		.long	LFE2
 583 02d9 00000000 		.secrel32	LLST1
 584 02dd 01       		.byte	0x1
 585 02de 47030000 		.long	0x347
 586 02e2 0A       		.uleb128 0xa
 587 02e3 73746174 		.ascii "status\0"
 587      757300
 588 02ea 01       		.byte	0x1
 589 02eb 76       		.byte	0x76
 590 02ec 2D       		.byte	0x2d
 591 02ed DC000000 		.long	0xdc
 592 02f1 02       		.byte	0x2
 593 02f2 91       		.byte	0x91
 594 02f3 00       		.sleb128 0
 595 02f4 0A       		.uleb128 0xa
 596 02f5 72657400 		.ascii "ret\0"
 597 02f9 01       		.byte	0x1
 598 02fa 76       		.byte	0x76
 599 02fb 3B       		.byte	0x3b
 600 02fc 29020000 		.long	0x229
 601 0300 02       		.byte	0x2
 602 0301 91       		.byte	0x91
 603 0302 04       		.sleb128 4
 604 0303 0B       		.uleb128 0xb
 605 0304 D7020000 		.long	LBB4
 606 0308 13030000 		.long	LBE4
 607 030c 1E030000 		.long	0x31e
 608 0310 0C       		.uleb128 0xc
 609 0311 6900     		.ascii "i\0"
 610 0313 01       		.byte	0x1
 611 0314 78       		.byte	0x78
 612 0315 0E       		.byte	0xe
 613 0316 80020000 		.long	0x280
 614 031a 02       		.byte	0x2
 615 031b 91       		.byte	0x91
 616 031c 6F       		.sleb128 -17
 617 031d 00       		.byte	0
 618 031e 0D       		.uleb128 0xd
 619 031f 13030000 		.long	LBB5
GAS LISTING C:\Users\jisu8\AppData\Local\Temp\ccri5Yyj.s 			page 18


 620 0323 66030000 		.long	LBE5
 621 0327 0E       		.uleb128 0xe
 622 0328 01       		.byte	0x1
 623 0329 73707269 		.ascii "sprintf\0"
 623      6E746600 
 624 0331 05       		.byte	0x5
 625 0332 00       		.byte	0
 626 0333 01       		.byte	0x1
 627 0334 EF010000 		.long	0x1ef
 628 0338 01       		.byte	0x1
 629 0339 0F       		.uleb128 0xf
 630 033a 29020000 		.long	0x229
 631 033e 0F       		.uleb128 0xf
 632 033f 47030000 		.long	0x347
 633 0343 10       		.uleb128 0x10
 634 0344 00       		.byte	0
 635 0345 00       		.byte	0
 636 0346 00       		.byte	0
 637 0347 08       		.uleb128 0x8
 638 0348 04       		.byte	0x4
 639 0349 EA010000 		.long	0x1ea
 640 034d 11       		.uleb128 0x11
 641 034e 01       		.byte	0x1
 642 034f 546F5374 		.ascii "ToString_Format\0"
 642      72696E67 
 642      5F466F72 
 642      6D617400 
 643 035f 01       		.byte	0x1
 644 0360 34       		.byte	0x34
 645 0361 0E       		.byte	0xe
 646 0362 01       		.byte	0x1
 647 0363 47030000 		.long	0x347
 648 0367 00000000 		.long	LFB1
 649 036b D1020000 		.long	LFE1
 650 036f 38000000 		.secrel32	LLST0
 651 0373 01       		.byte	0x1
 652 0374 0A       		.uleb128 0xa
 653 0375 666F726D 		.ascii "format\0"
 653      617400
 654 037c 01       		.byte	0x1
 655 037d 34       		.byte	0x34
 656 037e 2F       		.byte	0x2f
 657 037f C9010000 		.long	0x1c9
 658 0383 02       		.byte	0x2
 659 0384 91       		.byte	0x91
 660 0385 00       		.sleb128 0
 661 0386 0A       		.uleb128 0xa
 662 0387 72657400 		.ascii "ret\0"
 663 038b 01       		.byte	0x1
 664 038c 34       		.byte	0x34
 665 038d 3D       		.byte	0x3d
 666 038e 29020000 		.long	0x229
 667 0392 02       		.byte	0x2
 668 0393 91       		.byte	0x91
 669 0394 04       		.sleb128 4
 670 0395 0B       		.uleb128 0xb
 671 0396 06000000 		.long	LBB2
GAS LISTING C:\Users\jisu8\AppData\Local\Temp\ccri5Yyj.s 			page 19


 672 039a 32010000 		.long	LBE2
 673 039e B0030000 		.long	0x3b0
 674 03a2 0C       		.uleb128 0xc
 675 03a3 6900     		.ascii "i\0"
 676 03a5 01       		.byte	0x1
 677 03a6 36       		.byte	0x36
 678 03a7 0E       		.byte	0xe
 679 03a8 80020000 		.long	0x280
 680 03ac 02       		.byte	0x2
 681 03ad 91       		.byte	0x91
 682 03ae 6F       		.sleb128 -17
 683 03af 00       		.byte	0
 684 03b0 0D       		.uleb128 0xd
 685 03b1 32010000 		.long	LBB3
 686 03b5 CC020000 		.long	LBE3
 687 03b9 0E       		.uleb128 0xe
 688 03ba 01       		.byte	0x1
 689 03bb 73707269 		.ascii "sprintf\0"
 689      6E746600 
 690 03c3 05       		.byte	0x5
 691 03c4 00       		.byte	0
 692 03c5 01       		.byte	0x1
 693 03c6 EF010000 		.long	0x1ef
 694 03ca 01       		.byte	0x1
 695 03cb 0F       		.uleb128 0xf
 696 03cc 29020000 		.long	0x229
 697 03d0 0F       		.uleb128 0xf
 698 03d1 47030000 		.long	0x347
 699 03d5 10       		.uleb128 0x10
 700 03d6 00       		.byte	0
 701 03d7 00       		.byte	0
 702 03d8 00       		.byte	0
 703 03d9 00       		.byte	0
 704              		.section	.debug_abbrev,"dr"
 705              	Ldebug_abbrev0:
 706 0000 01       		.uleb128 0x1
 707 0001 11       		.uleb128 0x11
 708 0002 01       		.byte	0x1
 709 0003 25       		.uleb128 0x25
 710 0004 08       		.uleb128 0x8
 711 0005 13       		.uleb128 0x13
 712 0006 0B       		.uleb128 0xb
 713 0007 03       		.uleb128 0x3
 714 0008 08       		.uleb128 0x8
 715 0009 1B       		.uleb128 0x1b
 716 000a 08       		.uleb128 0x8
 717 000b 11       		.uleb128 0x11
 718 000c 01       		.uleb128 0x1
 719 000d 12       		.uleb128 0x12
 720 000e 01       		.uleb128 0x1
 721 000f 10       		.uleb128 0x10
 722 0010 06       		.uleb128 0x6
 723 0011 00       		.byte	0
 724 0012 00       		.byte	0
 725 0013 02       		.uleb128 0x2
 726 0014 04       		.uleb128 0x4
 727 0015 01       		.byte	0x1
GAS LISTING C:\Users\jisu8\AppData\Local\Temp\ccri5Yyj.s 			page 20


 728 0016 3E       		.uleb128 0x3e
 729 0017 0B       		.uleb128 0xb
 730 0018 0B       		.uleb128 0xb
 731 0019 0B       		.uleb128 0xb
 732 001a 49       		.uleb128 0x49
 733 001b 13       		.uleb128 0x13
 734 001c 3A       		.uleb128 0x3a
 735 001d 0B       		.uleb128 0xb
 736 001e 3B       		.uleb128 0x3b
 737 001f 0B       		.uleb128 0xb
 738 0020 39       		.uleb128 0x39
 739 0021 0B       		.uleb128 0xb
 740 0022 01       		.uleb128 0x1
 741 0023 13       		.uleb128 0x13
 742 0024 00       		.byte	0
 743 0025 00       		.byte	0
 744 0026 03       		.uleb128 0x3
 745 0027 28       		.uleb128 0x28
 746 0028 00       		.byte	0
 747 0029 03       		.uleb128 0x3
 748 002a 08       		.uleb128 0x8
 749 002b 1C       		.uleb128 0x1c
 750 002c 0B       		.uleb128 0xb
 751 002d 00       		.byte	0
 752 002e 00       		.byte	0
 753 002f 04       		.uleb128 0x4
 754 0030 24       		.uleb128 0x24
 755 0031 00       		.byte	0
 756 0032 0B       		.uleb128 0xb
 757 0033 0B       		.uleb128 0xb
 758 0034 3E       		.uleb128 0x3e
 759 0035 0B       		.uleb128 0xb
 760 0036 03       		.uleb128 0x3
 761 0037 08       		.uleb128 0x8
 762 0038 00       		.byte	0
 763 0039 00       		.byte	0
 764 003a 05       		.uleb128 0x5
 765 003b 16       		.uleb128 0x16
 766 003c 00       		.byte	0
 767 003d 03       		.uleb128 0x3
 768 003e 08       		.uleb128 0x8
 769 003f 3A       		.uleb128 0x3a
 770 0040 0B       		.uleb128 0xb
 771 0041 3B       		.uleb128 0x3b
 772 0042 0B       		.uleb128 0xb
 773 0043 39       		.uleb128 0x39
 774 0044 0B       		.uleb128 0xb
 775 0045 49       		.uleb128 0x49
 776 0046 13       		.uleb128 0x13
 777 0047 00       		.byte	0
 778 0048 00       		.byte	0
 779 0049 06       		.uleb128 0x6
 780 004a 28       		.uleb128 0x28
 781 004b 00       		.byte	0
 782 004c 03       		.uleb128 0x3
 783 004d 08       		.uleb128 0x8
 784 004e 1C       		.uleb128 0x1c
GAS LISTING C:\Users\jisu8\AppData\Local\Temp\ccri5Yyj.s 			page 21


 785 004f 05       		.uleb128 0x5
 786 0050 00       		.byte	0
 787 0051 00       		.byte	0
 788 0052 07       		.uleb128 0x7
 789 0053 26       		.uleb128 0x26
 790 0054 00       		.byte	0
 791 0055 49       		.uleb128 0x49
 792 0056 13       		.uleb128 0x13
 793 0057 00       		.byte	0
 794 0058 00       		.byte	0
 795 0059 08       		.uleb128 0x8
 796 005a 0F       		.uleb128 0xf
 797 005b 00       		.byte	0
 798 005c 0B       		.uleb128 0xb
 799 005d 0B       		.uleb128 0xb
 800 005e 49       		.uleb128 0x49
 801 005f 13       		.uleb128 0x13
 802 0060 00       		.byte	0
 803 0061 00       		.byte	0
 804 0062 09       		.uleb128 0x9
 805 0063 2E       		.uleb128 0x2e
 806 0064 01       		.byte	0x1
 807 0065 3F       		.uleb128 0x3f
 808 0066 0C       		.uleb128 0xc
 809 0067 03       		.uleb128 0x3
 810 0068 08       		.uleb128 0x8
 811 0069 3A       		.uleb128 0x3a
 812 006a 0B       		.uleb128 0xb
 813 006b 3B       		.uleb128 0x3b
 814 006c 0B       		.uleb128 0xb
 815 006d 39       		.uleb128 0x39
 816 006e 0B       		.uleb128 0xb
 817 006f 27       		.uleb128 0x27
 818 0070 0C       		.uleb128 0xc
 819 0071 49       		.uleb128 0x49
 820 0072 13       		.uleb128 0x13
 821 0073 11       		.uleb128 0x11
 822 0074 01       		.uleb128 0x1
 823 0075 12       		.uleb128 0x12
 824 0076 01       		.uleb128 0x1
 825 0077 40       		.uleb128 0x40
 826 0078 06       		.uleb128 0x6
 827 0079 9642     		.uleb128 0x2116
 828 007b 0C       		.uleb128 0xc
 829 007c 01       		.uleb128 0x1
 830 007d 13       		.uleb128 0x13
 831 007e 00       		.byte	0
 832 007f 00       		.byte	0
 833 0080 0A       		.uleb128 0xa
 834 0081 05       		.uleb128 0x5
 835 0082 00       		.byte	0
 836 0083 03       		.uleb128 0x3
 837 0084 08       		.uleb128 0x8
 838 0085 3A       		.uleb128 0x3a
 839 0086 0B       		.uleb128 0xb
 840 0087 3B       		.uleb128 0x3b
 841 0088 0B       		.uleb128 0xb
GAS LISTING C:\Users\jisu8\AppData\Local\Temp\ccri5Yyj.s 			page 22


 842 0089 39       		.uleb128 0x39
 843 008a 0B       		.uleb128 0xb
 844 008b 49       		.uleb128 0x49
 845 008c 13       		.uleb128 0x13
 846 008d 02       		.uleb128 0x2
 847 008e 0A       		.uleb128 0xa
 848 008f 00       		.byte	0
 849 0090 00       		.byte	0
 850 0091 0B       		.uleb128 0xb
 851 0092 0B       		.uleb128 0xb
 852 0093 01       		.byte	0x1
 853 0094 11       		.uleb128 0x11
 854 0095 01       		.uleb128 0x1
 855 0096 12       		.uleb128 0x12
 856 0097 01       		.uleb128 0x1
 857 0098 01       		.uleb128 0x1
 858 0099 13       		.uleb128 0x13
 859 009a 00       		.byte	0
 860 009b 00       		.byte	0
 861 009c 0C       		.uleb128 0xc
 862 009d 34       		.uleb128 0x34
 863 009e 00       		.byte	0
 864 009f 03       		.uleb128 0x3
 865 00a0 08       		.uleb128 0x8
 866 00a1 3A       		.uleb128 0x3a
 867 00a2 0B       		.uleb128 0xb
 868 00a3 3B       		.uleb128 0x3b
 869 00a4 0B       		.uleb128 0xb
 870 00a5 39       		.uleb128 0x39
 871 00a6 0B       		.uleb128 0xb
 872 00a7 49       		.uleb128 0x49
 873 00a8 13       		.uleb128 0x13
 874 00a9 02       		.uleb128 0x2
 875 00aa 0A       		.uleb128 0xa
 876 00ab 00       		.byte	0
 877 00ac 00       		.byte	0
 878 00ad 0D       		.uleb128 0xd
 879 00ae 0B       		.uleb128 0xb
 880 00af 01       		.byte	0x1
 881 00b0 11       		.uleb128 0x11
 882 00b1 01       		.uleb128 0x1
 883 00b2 12       		.uleb128 0x12
 884 00b3 01       		.uleb128 0x1
 885 00b4 00       		.byte	0
 886 00b5 00       		.byte	0
 887 00b6 0E       		.uleb128 0xe
 888 00b7 2E       		.uleb128 0x2e
 889 00b8 01       		.byte	0x1
 890 00b9 3F       		.uleb128 0x3f
 891 00ba 0C       		.uleb128 0xc
 892 00bb 03       		.uleb128 0x3
 893 00bc 08       		.uleb128 0x8
 894 00bd 3A       		.uleb128 0x3a
 895 00be 0B       		.uleb128 0xb
 896 00bf 3B       		.uleb128 0x3b
 897 00c0 0B       		.uleb128 0xb
 898 00c1 27       		.uleb128 0x27
GAS LISTING C:\Users\jisu8\AppData\Local\Temp\ccri5Yyj.s 			page 23


 899 00c2 0C       		.uleb128 0xc
 900 00c3 49       		.uleb128 0x49
 901 00c4 13       		.uleb128 0x13
 902 00c5 3C       		.uleb128 0x3c
 903 00c6 0C       		.uleb128 0xc
 904 00c7 00       		.byte	0
 905 00c8 00       		.byte	0
 906 00c9 0F       		.uleb128 0xf
 907 00ca 05       		.uleb128 0x5
 908 00cb 00       		.byte	0
 909 00cc 49       		.uleb128 0x49
 910 00cd 13       		.uleb128 0x13
 911 00ce 00       		.byte	0
 912 00cf 00       		.byte	0
 913 00d0 10       		.uleb128 0x10
 914 00d1 18       		.uleb128 0x18
 915 00d2 00       		.byte	0
 916 00d3 00       		.byte	0
 917 00d4 00       		.byte	0
 918 00d5 11       		.uleb128 0x11
 919 00d6 2E       		.uleb128 0x2e
 920 00d7 01       		.byte	0x1
 921 00d8 3F       		.uleb128 0x3f
 922 00d9 0C       		.uleb128 0xc
 923 00da 03       		.uleb128 0x3
 924 00db 08       		.uleb128 0x8
 925 00dc 3A       		.uleb128 0x3a
 926 00dd 0B       		.uleb128 0xb
 927 00de 3B       		.uleb128 0x3b
 928 00df 0B       		.uleb128 0xb
 929 00e0 39       		.uleb128 0x39
 930 00e1 0B       		.uleb128 0xb
 931 00e2 27       		.uleb128 0x27
 932 00e3 0C       		.uleb128 0xc
 933 00e4 49       		.uleb128 0x49
 934 00e5 13       		.uleb128 0x13
 935 00e6 11       		.uleb128 0x11
 936 00e7 01       		.uleb128 0x1
 937 00e8 12       		.uleb128 0x12
 938 00e9 01       		.uleb128 0x1
 939 00ea 40       		.uleb128 0x40
 940 00eb 06       		.uleb128 0x6
 941 00ec 9642     		.uleb128 0x2116
 942 00ee 0C       		.uleb128 0xc
 943 00ef 00       		.byte	0
 944 00f0 00       		.byte	0
 945 00f1 00       		.byte	0
 946              		.section	.debug_loc,"dr"
 947              	Ldebug_loc0:
 948              	LLST1:
 949 0000 D1020000 		.long	LFB2-Ltext0
 950 0004 D2020000 		.long	LCFI3-Ltext0
 951 0008 0200     		.word	0x2
 952 000a 74       		.byte	0x74
 953 000b 04       		.sleb128 4
 954 000c D2020000 		.long	LCFI3-Ltext0
 955 0010 D4020000 		.long	LCFI4-Ltext0
GAS LISTING C:\Users\jisu8\AppData\Local\Temp\ccri5Yyj.s 			page 24


 956 0014 0200     		.word	0x2
 957 0016 74       		.byte	0x74
 958 0017 08       		.sleb128 8
 959 0018 D4020000 		.long	LCFI4-Ltext0
 960 001c 6A030000 		.long	LCFI5-Ltext0
 961 0020 0200     		.word	0x2
 962 0022 75       		.byte	0x75
 963 0023 08       		.sleb128 8
 964 0024 6A030000 		.long	LCFI5-Ltext0
 965 0028 6B030000 		.long	LFE2-Ltext0
 966 002c 0200     		.word	0x2
 967 002e 74       		.byte	0x74
 968 002f 04       		.sleb128 4
 969 0030 00000000 		.long	0
 970 0034 00000000 		.long	0
 971              	LLST0:
 972 0038 00000000 		.long	LFB1-Ltext0
 973 003c 01000000 		.long	LCFI0-Ltext0
 974 0040 0200     		.word	0x2
 975 0042 74       		.byte	0x74
 976 0043 04       		.sleb128 4
 977 0044 01000000 		.long	LCFI0-Ltext0
 978 0048 03000000 		.long	LCFI1-Ltext0
 979 004c 0200     		.word	0x2
 980 004e 74       		.byte	0x74
 981 004f 08       		.sleb128 8
 982 0050 03000000 		.long	LCFI1-Ltext0
 983 0054 D0020000 		.long	LCFI2-Ltext0
 984 0058 0200     		.word	0x2
 985 005a 75       		.byte	0x75
 986 005b 08       		.sleb128 8
 987 005c D0020000 		.long	LCFI2-Ltext0
 988 0060 D1020000 		.long	LFE1-Ltext0
 989 0064 0200     		.word	0x2
 990 0066 74       		.byte	0x74
 991 0067 04       		.sleb128 4
 992 0068 00000000 		.long	0
 993 006c 00000000 		.long	0
 994              		.section	.debug_aranges,"dr"
 995 0000 1C000000 		.long	0x1c
 996 0004 0200     		.word	0x2
 997 0006 00000000 		.secrel32	Ldebug_info0
 998 000a 04       		.byte	0x4
 999 000b 00       		.byte	0
 1000 000c 0000     		.word	0
 1001 000e 0000     		.word	0
 1002 0010 00000000 		.long	Ltext0
 1003 0014 6B030000 		.long	Letext0-Ltext0
 1004 0018 00000000 		.long	0
 1005 001c 00000000 		.long	0
 1006              		.section	.debug_line,"dr"
 1007              	Ldebug_line0:
 1008 0000 A1010000 		.section	.debug_str,"dr"
 1008      02009B00 
 1008      00000101 
 1008      FB0E0D00 
 1008      01010101 
GAS LISTING C:\Users\jisu8\AppData\Local\Temp\ccri5Yyj.s 			page 25


 1009              		.ident	"GCC: (i686-posix-dwarf-rev0, Built by MinGW-W64 project) 8.1.0"
GAS LISTING C:\Users\jisu8\AppData\Local\Temp\ccri5Yyj.s 			page 26


DEFINED SYMBOLS
                            *ABS*:00000000 BarcodeFormat.c
C:\Users\jisu8\AppData\Local\Temp\ccri5Yyj.s:44     .text:00000000 _ToString_Format
C:\Users\jisu8\AppData\Local\Temp\ccri5Yyj.s:302    .text:000002d1 _ToString_Status

UNDEFINED SYMBOLS
_sprintf
