GAS LISTING C:\Users\jisu8\AppData\Local\Temp\ccHvA68p.s 			page 1


   1              		.file	"BitMatrix.c"
   2              		.text
   3              	Ltext0:
   4              		.comm	_Row_array, 2000, 5
   6              	_isSet:
   7              	LFB1:
   8              		.file 1 "src/BitMatrix.c"
   1:src/BitMatrix.c **** 
   2:src/BitMatrix.c **** #include "BitMatrix.h"
   3:src/BitMatrix.c **** 
   4:src/BitMatrix.c **** uint16_t Row_array[1000];
   5:src/BitMatrix.c **** 
   6:src/BitMatrix.c **** static uint8_t isSet(uint8_t v) 
   7:src/BitMatrix.c **** { 
   9              		.loc 1 7 1
  10              		.cfi_startproc
  11 0000 55       		pushl	%ebp
  12              	LCFI0:
  13              		.cfi_def_cfa_offset 8
  14              		.cfi_offset 5, -8
  15 0001 89E5     		movl	%esp, %ebp
  16              	LCFI1:
  17              		.cfi_def_cfa_register 5
  18 0003 83EC04   		subl	$4, %esp
  19 0006 8B4508   		movl	8(%ebp), %eax
  20 0009 8845FC   		movb	%al, -4(%ebp)
   8:src/BitMatrix.c **** 	return v != 0; // see SET_V above
  21              		.loc 1 8 11
  22 000c 807DFC00 		cmpb	$0, -4(%ebp)
  23 0010 0F95C0   		setne	%al
   9:src/BitMatrix.c **** } 
  24              		.loc 1 9 1
  25 0013 C9       		leave
  26              	LCFI2:
  27              		.cfi_restore 5
  28              		.cfi_def_cfa 4, 4
  29 0014 C3       		ret
  30              		.cfi_endproc
  31              	LFE1:
  32              		.globl	_getPatternRow
  34              	_getPatternRow:
  35              	LFB2:
  10:src/BitMatrix.c **** 
  11:src/BitMatrix.c **** void getPatternRow(BitMatrix_t * m, int r, uint16_t * p_row)
  12:src/BitMatrix.c **** {
  36              		.loc 1 12 1
  37              		.cfi_startproc
  38 0015 55       		pushl	%ebp
  39              	LCFI3:
  40              		.cfi_def_cfa_offset 8
  41              		.cfi_offset 5, -8
  42 0016 89E5     		movl	%esp, %ebp
  43              	LCFI4:
  44              		.cfi_def_cfa_register 5
  45 0018 83EC14   		subl	$20, %esp
  13:src/BitMatrix.c **** 
  14:src/BitMatrix.c **** 	uint8_t * b_row = m->bits + r * m->_width;
GAS LISTING C:\Users\jisu8\AppData\Local\Temp\ccHvA68p.s 			page 2


  46              		.loc 1 14 21
  47 001b 8B4508   		movl	8(%ebp), %eax
  48 001e 8B500C   		movl	12(%eax), %edx
  49              		.loc 1 14 35
  50 0021 8B4508   		movl	8(%ebp), %eax
  51 0024 8B00     		movl	(%eax), %eax
  52              		.loc 1 14 32
  53 0026 0FAF450C 		imull	12(%ebp), %eax
  54              		.loc 1 14 12
  55 002a 01D0     		addl	%edx, %eax
  56 002c 8945F0   		movl	%eax, -16(%ebp)
  15:src/BitMatrix.c **** 	uint8_t * bitPos = NULL;
  57              		.loc 1 15 12
  58 002f C745FC00 		movl	$0, -4(%ebp)
  58      000000
  16:src/BitMatrix.c **** 	uint16_t * intPos = NULL;
  59              		.loc 1 16 13
  60 0036 C745F800 		movl	$0, -8(%ebp)
  60      000000
  61              	LBB2:
  17:src/BitMatrix.c **** 
  18:src/BitMatrix.c **** 	for(int i = 0;i<m->_width + 2;i++)
  62              		.loc 1 18 10
  63 003d C745F400 		movl	$0, -12(%ebp)
  63      000000
  64              		.loc 1 18 2
  65 0044 EB11     		jmp	L4
  66              	L5:
  19:src/BitMatrix.c **** 	{
  20:src/BitMatrix.c **** 		Row_array[i] = 0;
  67              		.loc 1 20 16 discriminator 3
  68 0046 8B45F4   		movl	-12(%ebp), %eax
  69 0049 66C78400 		movw	$0, _Row_array(%eax,%eax)
  69      00000000 
  69      0000
  18:src/BitMatrix.c **** 	{
  70              		.loc 1 18 33 discriminator 3
  71 0053 8345F401 		addl	$1, -12(%ebp)
  72              	L4:
  18:src/BitMatrix.c **** 	{
  73              		.loc 1 18 19 discriminator 1
  74 0057 8B4508   		movl	8(%ebp), %eax
  75 005a 8B00     		movl	(%eax), %eax
  18:src/BitMatrix.c **** 	{
  76              		.loc 1 18 17 discriminator 1
  77 005c 83C001   		addl	$1, %eax
  18:src/BitMatrix.c **** 	{
  78              		.loc 1 18 2 discriminator 1
  79 005f 3945F4   		cmpl	%eax, -12(%ebp)
  80 0062 7EE2     		jle	L5
  81              	LBE2:
  21:src/BitMatrix.c **** 	}
  22:src/BitMatrix.c **** 
  23:src/BitMatrix.c **** 	bitPos = b_row;
  82              		.loc 1 23 9
  83 0064 8B45F0   		movl	-16(%ebp), %eax
  84 0067 8945FC   		movl	%eax, -4(%ebp)
GAS LISTING C:\Users\jisu8\AppData\Local\Temp\ccHvA68p.s 			page 3


  24:src/BitMatrix.c **** 	intPos = Row_array;
  85              		.loc 1 24 9
  86 006a C745F800 		movl	$_Row_array, -8(%ebp)
  86      000000
  25:src/BitMatrix.c **** 
  26:src/BitMatrix.c **** 	intPos += isSet(*bitPos); // first value is number of white pixels, here 0
  87              		.loc 1 26 18
  88 0071 8B45FC   		movl	-4(%ebp), %eax
  89 0074 0FB600   		movzbl	(%eax), %eax
  90              		.loc 1 26 12
  91 0077 0FB6C0   		movzbl	%al, %eax
  92 007a 890424   		movl	%eax, (%esp)
  93 007d E87EFFFF 		call	_isSet
  93      FF
  94 0082 0FB6C0   		movzbl	%al, %eax
  95              		.loc 1 26 9
  96 0085 01C0     		addl	%eax, %eax
  97 0087 0145F8   		addl	%eax, -8(%ebp)
  27:src/BitMatrix.c **** 
  28:src/BitMatrix.c **** 	while (++bitPos < (m->bits + (r + 1) * m->_width)) 
  98              		.loc 1 28 8
  99 008a EB31     		jmp	L6
 100              	L9:
  29:src/BitMatrix.c **** 	{
  30:src/BitMatrix.c **** 		++(*intPos);
 101              		.loc 1 30 6
 102 008c 8B45F8   		movl	-8(%ebp), %eax
 103 008f 0FB700   		movzwl	(%eax), %eax
 104              		.loc 1 30 3
 105 0092 8D5001   		leal	1(%eax), %edx
 106 0095 8B45F8   		movl	-8(%ebp), %eax
 107 0098 668910   		movw	%dx, (%eax)
  31:src/BitMatrix.c **** 		intPos += bitPos[0] != bitPos[-1];
 108              		.loc 1 31 19
 109 009b 8B45FC   		movl	-4(%ebp), %eax
 110 009e 0FB610   		movzbl	(%eax), %edx
 111              		.loc 1 31 32
 112 00a1 8B45FC   		movl	-4(%ebp), %eax
 113 00a4 83E801   		subl	$1, %eax
 114 00a7 0FB600   		movzbl	(%eax), %eax
 115              		.loc 1 31 10
 116 00aa 38C2     		cmpb	%al, %dl
 117 00ac 7407     		je	L7
 118              		.loc 1 31 10 is_stmt 0 discriminator 1
 119 00ae B8020000 		movl	$2, %eax
 119      00
 120 00b3 EB05     		jmp	L8
 121              	L7:
 122              		.loc 1 31 10 discriminator 2
 123 00b5 B8000000 		movl	$0, %eax
 123      00
 124              	L8:
 125              		.loc 1 31 10 discriminator 4
 126 00ba 0145F8   		addl	%eax, -8(%ebp)
 127              	L6:
  28:src/BitMatrix.c **** 	{
 128              		.loc 1 28 8 is_stmt 1
GAS LISTING C:\Users\jisu8\AppData\Local\Temp\ccHvA68p.s 			page 4


 129 00bd 8345FC01 		addl	$1, -4(%ebp)
  28:src/BitMatrix.c **** 	{
 130              		.loc 1 28 22
 131 00c1 8B4508   		movl	8(%ebp), %eax
 132 00c4 8B500C   		movl	12(%eax), %edx
  28:src/BitMatrix.c **** 	{
 133              		.loc 1 28 34
 134 00c7 8B450C   		movl	12(%ebp), %eax
 135 00ca 8D4801   		leal	1(%eax), %ecx
  28:src/BitMatrix.c **** 	{
 136              		.loc 1 28 42
 137 00cd 8B4508   		movl	8(%ebp), %eax
 138 00d0 8B00     		movl	(%eax), %eax
  28:src/BitMatrix.c **** 	{
 139              		.loc 1 28 39
 140 00d2 0FAFC1   		imull	%ecx, %eax
  28:src/BitMatrix.c **** 	{
 141              		.loc 1 28 29
 142 00d5 01D0     		addl	%edx, %eax
  28:src/BitMatrix.c **** 	{
 143              		.loc 1 28 8
 144 00d7 3945FC   		cmpl	%eax, -4(%ebp)
 145 00da 72B0     		jb	L9
  32:src/BitMatrix.c **** 	}
  33:src/BitMatrix.c **** 	++(*intPos);
 146              		.loc 1 33 5
 147 00dc 8B45F8   		movl	-8(%ebp), %eax
 148 00df 0FB700   		movzwl	(%eax), %eax
 149              		.loc 1 33 2
 150 00e2 8D5001   		leal	1(%eax), %edx
 151 00e5 8B45F8   		movl	-8(%ebp), %eax
 152 00e8 668910   		movw	%dx, (%eax)
  34:src/BitMatrix.c **** 
  35:src/BitMatrix.c **** 	if (isSet(bitPos[-1]))
 153              		.loc 1 35 18
 154 00eb 8B45FC   		movl	-4(%ebp), %eax
 155 00ee 83E801   		subl	$1, %eax
 156 00f1 0FB600   		movzbl	(%eax), %eax
 157              		.loc 1 35 6
 158 00f4 0FB6C0   		movzbl	%al, %eax
 159 00f7 890424   		movl	%eax, (%esp)
 160 00fa E801FFFF 		call	_isSet
 160      FF
 161              		.loc 1 35 5
 162 00ff 84C0     		testb	%al, %al
 163 0101 7404     		je	L10
  36:src/BitMatrix.c **** 	{
  37:src/BitMatrix.c **** 		intPos++;
 164              		.loc 1 37 9
 165 0103 8345F802 		addl	$2, -8(%ebp)
 166              	L10:
  38:src/BitMatrix.c **** 	}
  39:src/BitMatrix.c **** 
  40:src/BitMatrix.c **** 	p_row = Row_array;
 167              		.loc 1 40 8
 168 0107 C7451000 		movl	$_Row_array, 16(%ebp)
 168      000000
GAS LISTING C:\Users\jisu8\AppData\Local\Temp\ccHvA68p.s 			page 5


  41:src/BitMatrix.c **** 	//p_row.resize(intPos - p_row.data() + 1);
  42:src/BitMatrix.c **** 
  43:src/BitMatrix.c **** 	//return 0;
  44:src/BitMatrix.c **** }
 169              		.loc 1 44 1
 170 010e 90       		nop
 171 010f C9       		leave
 172              	LCFI5:
 173              		.cfi_restore 5
 174              		.cfi_def_cfa 4, 4
 175 0110 C3       		ret
 176              		.cfi_endproc
 177              	LFE2:
 178              	Letext0:
 179              		.file 2 "D:/3.tools/mingw/mingw32/i686-w64-mingw32/include/stdint.h"
 180              		.file 3 "src/BitMatrix.h"