GAS LISTING C:\Users\jisu8\AppData\Local\Temp\ccAW7caP.s 			page 1


   1              		.file	"GenericLuminanceSource.c"
   2              		.text
   3              	Ltext0:
   4              		.comm	_pixels, 115200, 5
   6              	_RGBToGray:
   7              	LFB13:
   8              		.file 1 "src/GenericLuminanceSource.c"
   1:src/GenericLuminanceSource.c **** /*
   2:src/GenericLuminanceSource.c **** * Copyright 2016 Nu-book Inc.
   3:src/GenericLuminanceSource.c **** * Copyright 2016 ZXing authors
   4:src/GenericLuminanceSource.c **** *
   5:src/GenericLuminanceSource.c **** * Licensed under the Apache License, Version 2.0 (the "License");
   6:src/GenericLuminanceSource.c **** * you may not use this file except in compliance with the License.
   7:src/GenericLuminanceSource.c **** * You may obtain a copy of the License at
   8:src/GenericLuminanceSource.c **** *
   9:src/GenericLuminanceSource.c **** *      http://www.apache.org/licenses/LICENSE-2.0
  10:src/GenericLuminanceSource.c **** *
  11:src/GenericLuminanceSource.c **** * Unless required by applicable law or agreed to in writing, software
  12:src/GenericLuminanceSource.c **** * distributed under the License is distributed on an "AS IS" BASIS,
  13:src/GenericLuminanceSource.c **** * WITHOUT WARRANTIES OR CONDITIONS OF ANY KIND, either express or implied.
  14:src/GenericLuminanceSource.c **** * See the License for the specific language governing permissions and
  15:src/GenericLuminanceSource.c **** * limitations under the License.
  16:src/GenericLuminanceSource.c **** */
  17:src/GenericLuminanceSource.c **** #include "GenericLuminanceSource.h"
  18:src/GenericLuminanceSource.c **** 
  19:src/GenericLuminanceSource.c **** uint8_t pixels[115200];
  20:src/GenericLuminanceSource.c **** 
  21:src/GenericLuminanceSource.c **** static inline copy_n(uint8_t * _First, unsigned int _Count_raw, uint8_t* _Dest) ;
  22:src/GenericLuminanceSource.c **** 
  23:src/GenericLuminanceSource.c **** static uint8_t RGBToGray(unsigned int r, unsigned int g, unsigned int b)
  24:src/GenericLuminanceSource.c **** {
   9              		.loc 1 24 1
  10              		.cfi_startproc
  11 0000 55       		pushl	%ebp
  12              	LCFI0:
  13              		.cfi_def_cfa_offset 8
  14              		.cfi_offset 5, -8
  15 0001 89E5     		movl	%esp, %ebp
  16              	LCFI1:
  17              		.cfi_def_cfa_register 5
  25:src/GenericLuminanceSource.c **** 	// This optimization is not necessary as the computation below is cheap enough.
  26:src/GenericLuminanceSource.c **** 	//if (r == g && g == b) {
  27:src/GenericLuminanceSource.c **** 	//	// Image is already greyscale, so pick any channel.
  28:src/GenericLuminanceSource.c **** 	//	return static_cast<uint8_t>(r);
  29:src/GenericLuminanceSource.c **** 	//}
  30:src/GenericLuminanceSource.c **** 
  31:src/GenericLuminanceSource.c **** 	// .299R + 0.587G + 0.114B (YUV/YIQ for PAL and NTSC),
  32:src/GenericLuminanceSource.c **** 	// (306*R) >> 10 is approximately equal to R*0.299, and so on.
  33:src/GenericLuminanceSource.c **** 	// 0x200 >> 10 is 0.5, it implements rounding.
  34:src/GenericLuminanceSource.c **** 	return (uint8_t)((306 * r + 601 * g + 117 * b + 0x200) >> 10);
  18              		.loc 1 34 24
  19 0003 8B4508   		movl	8(%ebp), %eax
  20 0006 69D03201 		imull	$306, %eax, %edx
  20      0000
  21              		.loc 1 34 34
  22 000c 8B450C   		movl	12(%ebp), %eax
  23 000f 69C05902 		imull	$601, %eax, %eax
GAS LISTING C:\Users\jisu8\AppData\Local\Temp\ccAW7caP.s 			page 2


  23      0000
  24              		.loc 1 34 28
  25 0015 01C2     		addl	%eax, %edx
  26              		.loc 1 34 44
  27 0017 8B4510   		movl	16(%ebp), %eax
  28 001a 6BC075   		imull	$117, %eax, %eax
  29              		.loc 1 34 38
  30 001d 01D0     		addl	%edx, %eax
  31              		.loc 1 34 48
  32 001f 05000200 		addl	$512, %eax
  32      00
  33              		.loc 1 34 57
  34 0024 C1E80A   		shrl	$10, %eax
  35:src/GenericLuminanceSource.c **** }
  35              		.loc 1 35 1
  36 0027 5D       		popl	%ebp
  37              	LCFI2:
  38              		.cfi_restore 5
  39              		.cfi_def_cfa 4, 4
  40 0028 C3       		ret
  41              		.cfi_endproc
  42              	LFE13:
  44              	_MakeCopy:
  45              	LFB14:
  36:src/GenericLuminanceSource.c **** 
  37:src/GenericLuminanceSource.c **** 
  38:src/GenericLuminanceSource.c **** static unsigned char * MakeCopy(unsigned char * pixels, int rowBytes, int left, int top, int width,
  39:src/GenericLuminanceSource.c **** {
  46              		.loc 1 39 1
  47              		.cfi_startproc
  48 0029 55       		pushl	%ebp
  49              	LCFI3:
  50              		.cfi_def_cfa_offset 8
  51              		.cfi_offset 5, -8
  52 002a 89E5     		movl	%esp, %ebp
  53              	LCFI4:
  54              		.cfi_def_cfa_register 5
  55 002c 83EC28   		subl	$40, %esp
  40:src/GenericLuminanceSource.c **** 	unsigned char * result;
  41:src/GenericLuminanceSource.c **** 	if ((top == 0) && (left == 0) && (width * height == sizeof(pixels))) 
  56              		.loc 1 41 5
  57 002f 837D1400 		cmpl	$0, 20(%ebp)
  58 0033 7517     		jne	L4
  59              		.loc 1 41 17 discriminator 1
  60 0035 837D1000 		cmpl	$0, 16(%ebp)
  61 0039 7511     		jne	L4
  62              		.loc 1 41 42 discriminator 2
  63 003b 8B4518   		movl	24(%ebp), %eax
  64 003e 0FAF451C 		imull	28(%ebp), %eax
  65              		.loc 1 41 32 discriminator 2
  66 0042 83F804   		cmpl	$4, %eax
  67 0045 7505     		jne	L4
  42:src/GenericLuminanceSource.c **** 	{
  43:src/GenericLuminanceSource.c **** 		return pixels;
  68              		.loc 1 43 10
  69 0047 8B4508   		movl	8(%ebp), %eax
  70 004a EB60     		jmp	L5
GAS LISTING C:\Users\jisu8\AppData\Local\Temp\ccAW7caP.s 			page 3


  71              	L4:
  72              	LBB2:
  44:src/GenericLuminanceSource.c **** 	}
  45:src/GenericLuminanceSource.c **** 	else
  46:src/GenericLuminanceSource.c **** 	{
  47:src/GenericLuminanceSource.c **** 		result = pixels;
  73              		.loc 1 47 10
  74 004c 8B4508   		movl	8(%ebp), %eax
  75 004f 8945E8   		movl	%eax, -24(%ebp)
  48:src/GenericLuminanceSource.c **** 		const uint8_t* srcRow = (uint8_t)(pixels) + top * rowBytes + left;
  76              		.loc 1 48 27
  77 0052 8B4508   		movl	8(%ebp), %eax
  78 0055 0FB6D0   		movzbl	%al, %edx
  79              		.loc 1 48 51
  80 0058 8B4514   		movl	20(%ebp), %eax
  81 005b 0FAF450C 		imull	12(%ebp), %eax
  82              		.loc 1 48 45
  83 005f 01C2     		addl	%eax, %edx
  84              		.loc 1 48 62
  85 0061 8B4510   		movl	16(%ebp), %eax
  86 0064 01D0     		addl	%edx, %eax
  87              		.loc 1 48 18
  88 0066 8945F4   		movl	%eax, -12(%ebp)
  49:src/GenericLuminanceSource.c **** 		uint8_t* destRow = result;
  89              		.loc 1 49 12
  90 0069 8B45E8   		movl	-24(%ebp), %eax
  91 006c 8945F0   		movl	%eax, -16(%ebp)
  92              	LBB3:
  50:src/GenericLuminanceSource.c **** 		for (int y = 0; y < height; ++y, srcRow += rowBytes, destRow += width) 
  93              		.loc 1 50 12
  94 006f C745EC00 		movl	$0, -20(%ebp)
  94      000000
  95              		.loc 1 50 3
  96 0076 EB29     		jmp	L6
  97              	L7:
  51:src/GenericLuminanceSource.c **** 		{
  52:src/GenericLuminanceSource.c **** 			copy_n(srcRow, width, destRow);
  98              		.loc 1 52 4 discriminator 3
  99 0078 8B4518   		movl	24(%ebp), %eax
 100 007b 8B55F0   		movl	-16(%ebp), %edx
 101 007e 89542408 		movl	%edx, 8(%esp)
 102 0082 89442404 		movl	%eax, 4(%esp)
 103 0086 8B45F4   		movl	-12(%ebp), %eax
 104 0089 890424   		movl	%eax, (%esp)
 105 008c E83B0200 		call	_copy_n
 105      00
  50:src/GenericLuminanceSource.c **** 		for (int y = 0; y < height; ++y, srcRow += rowBytes, destRow += width) 
 106              		.loc 1 50 31 discriminator 3
 107 0091 8345EC01 		addl	$1, -20(%ebp)
  50:src/GenericLuminanceSource.c **** 		for (int y = 0; y < height; ++y, srcRow += rowBytes, destRow += width) 
 108              		.loc 1 50 43 discriminator 3
 109 0095 8B450C   		movl	12(%ebp), %eax
 110 0098 0145F4   		addl	%eax, -12(%ebp)
  50:src/GenericLuminanceSource.c **** 		for (int y = 0; y < height; ++y, srcRow += rowBytes, destRow += width) 
 111              		.loc 1 50 64 discriminator 3
 112 009b 8B4518   		movl	24(%ebp), %eax
 113 009e 0145F0   		addl	%eax, -16(%ebp)
GAS LISTING C:\Users\jisu8\AppData\Local\Temp\ccAW7caP.s 			page 4


 114              	L6:
  50:src/GenericLuminanceSource.c **** 		for (int y = 0; y < height; ++y, srcRow += rowBytes, destRow += width) 
 115              		.loc 1 50 3 discriminator 1
 116 00a1 8B45EC   		movl	-20(%ebp), %eax
 117 00a4 3B451C   		cmpl	28(%ebp), %eax
 118 00a7 7CCF     		jl	L7
 119              	LBE3:
  53:src/GenericLuminanceSource.c **** 		}
  54:src/GenericLuminanceSource.c **** 		return result;
 120              		.loc 1 54 10
 121 00a9 8B45E8   		movl	-24(%ebp), %eax
 122              	L5:
 123              	LBE2:
  55:src/GenericLuminanceSource.c **** 	}
  56:src/GenericLuminanceSource.c **** }
 124              		.loc 1 56 1
 125 00ac C9       		leave
 126              	LCFI5:
 127              		.cfi_restore 5
 128              		.cfi_def_cfa 4, 4
 129 00ad C3       		ret
 130              		.cfi_endproc
 131              	LFE14:
 132              		.section .rdata,"dr"
 133              		.align 4
 134              	LC0:
 135 0000 52657175 		.ascii "Requested offset is outside the image\0"
 135      65737465 
 135      64206F66 
 135      66736574 
 135      20697320 
 136 0026 0000     		.text
 137              		.globl	_GenericLuminanceSource
 139              	_GenericLuminanceSource:
 140              	LFB15:
  57:src/GenericLuminanceSource.c **** 
  58:src/GenericLuminanceSource.c **** unsigned char * GenericLuminanceSource(int left, int top, int width, int height, unsigned char * by
  59:src/GenericLuminanceSource.c **** {
 141              		.loc 1 59 1
 142              		.cfi_startproc
 143 00ae 55       		pushl	%ebp
 144              	LCFI6:
 145              		.cfi_def_cfa_offset 8
 146              		.cfi_offset 5, -8
 147 00af 89E5     		movl	%esp, %ebp
 148              	LCFI7:
 149              		.cfi_def_cfa_register 5
 150 00b1 56       		pushl	%esi
 151 00b2 53       		pushl	%ebx
 152 00b3 83EC40   		subl	$64, %esp
 153              		.cfi_offset 6, -12
 154              		.cfi_offset 3, -16
  60:src/GenericLuminanceSource.c **** 	unsigned char *ret = NULL;
 155              		.loc 1 60 17
 156 00b6 C745F400 		movl	$0, -12(%ebp)
 156      000000
  61:src/GenericLuminanceSource.c **** 	if ((left < 0) || (top < 0) || (width < 0) || (height < 0)) 
GAS LISTING C:\Users\jisu8\AppData\Local\Temp\ccAW7caP.s 			page 5


 157              		.loc 1 61 5
 158 00bd 837D0800 		cmpl	$0, 8(%ebp)
 159 00c1 7812     		js	L9
 160              		.loc 1 61 17 discriminator 1
 161 00c3 837D0C00 		cmpl	$0, 12(%ebp)
 162 00c7 780C     		js	L9
 163              		.loc 1 61 30 discriminator 2
 164 00c9 837D1000 		cmpl	$0, 16(%ebp)
 165 00cd 7806     		js	L9
 166              		.loc 1 61 45 discriminator 3
 167 00cf 837D1400 		cmpl	$0, 20(%ebp)
 168 00d3 790C     		jns	L10
 169              	L9:
  62:src/GenericLuminanceSource.c **** 	{
  63:src/GenericLuminanceSource.c **** 		printf("Requested offset is outside the image");
 170              		.loc 1 63 3
 171 00d5 C7042400 		movl	$LC0, (%esp)
 171      000000
 172 00dc E8000000 		call	_printf
 172      00
 173              	L10:
  64:src/GenericLuminanceSource.c **** 	}
  65:src/GenericLuminanceSource.c **** 
  66:src/GenericLuminanceSource.c **** 	if (pixelBytes == 1)
 174              		.loc 1 66 5
 175 00e1 837D2001 		cmpl	$1, 32(%ebp)
 176 00e5 7536     		jne	L11
  67:src/GenericLuminanceSource.c **** 	{
  68:src/GenericLuminanceSource.c **** 		ret = MakeCopy(bytes, rowBytes, left, top, width, height);
 177              		.loc 1 68 9
 178 00e7 8B4514   		movl	20(%ebp), %eax
 179 00ea 89442414 		movl	%eax, 20(%esp)
 180 00ee 8B4510   		movl	16(%ebp), %eax
 181 00f1 89442410 		movl	%eax, 16(%esp)
 182 00f5 8B450C   		movl	12(%ebp), %eax
 183 00f8 8944240C 		movl	%eax, 12(%esp)
 184 00fc 8B4508   		movl	8(%ebp), %eax
 185 00ff 89442408 		movl	%eax, 8(%esp)
 186 0103 8B451C   		movl	28(%ebp), %eax
 187 0106 89442404 		movl	%eax, 4(%esp)
 188 010a 8B4518   		movl	24(%ebp), %eax
 189 010d 890424   		movl	%eax, (%esp)
 190 0110 E814FFFF 		call	_MakeCopy
 190      FF
 191 0115 8945F4   		movl	%eax, -12(%ebp)
 192 0118 E9B70000 		jmp	L12
 192      00
 193              	L11:
 194              	LBB4:
  69:src/GenericLuminanceSource.c **** 	}
  70:src/GenericLuminanceSource.c **** 	else 
  71:src/GenericLuminanceSource.c **** 	{
  72:src/GenericLuminanceSource.c **** 		const uint8_t *rgbSource = (bytes) + top * rowBytes;
 195              		.loc 1 72 44
 196 011d 8B450C   		movl	12(%ebp), %eax
 197 0120 0FAF451C 		imull	28(%ebp), %eax
 198 0124 89C2     		movl	%eax, %edx
GAS LISTING C:\Users\jisu8\AppData\Local\Temp\ccAW7caP.s 			page 6


 199              		.loc 1 72 18
 200 0126 8B4518   		movl	24(%ebp), %eax
 201 0129 01D0     		addl	%edx, %eax
 202 012b 8945F0   		movl	%eax, -16(%ebp)
  73:src/GenericLuminanceSource.c **** 		uint8_t *destRow = pixels;//pixels->data; // pixel의 data 값을 가져와야함 포인터로.
 203              		.loc 1 73 12
 204 012e C745EC00 		movl	$_pixels, -20(%ebp)
 204      000000
 205              	LBB5:
  74:src/GenericLuminanceSource.c **** 		for (int y = 0; y < height; ++y, rgbSource += rowBytes, destRow += width) 
 206              		.loc 1 74 12
 207 0135 C745E800 		movl	$0, -24(%ebp)
 207      000000
 208              		.loc 1 74 3
 209 013c E9800000 		jmp	L13
 209      00
 210              	L16:
 211              	LBB6:
  75:src/GenericLuminanceSource.c **** 		{
  76:src/GenericLuminanceSource.c **** 
  77:src/GenericLuminanceSource.c **** 			const uint8_t *src = rgbSource + (left * pixelBytes);
 212              		.loc 1 77 43
 213 0141 8B4508   		movl	8(%ebp), %eax
 214 0144 0FAF4520 		imull	32(%ebp), %eax
 215 0148 89C2     		movl	%eax, %edx
 216              		.loc 1 77 19
 217 014a 8B45F0   		movl	-16(%ebp), %eax
 218 014d 01D0     		addl	%edx, %eax
 219 014f 8945E4   		movl	%eax, -28(%ebp)
 220              	LBB7:
  78:src/GenericLuminanceSource.c **** 			for (int x = 0; x < width; ++x, src += pixelBytes)
 221              		.loc 1 78 13
 222 0152 C745E000 		movl	$0, -32(%ebp)
 222      000000
 223              		.loc 1 78 4
 224 0159 EB4E     		jmp	L14
 225              	L15:
  79:src/GenericLuminanceSource.c **** 			{
  80:src/GenericLuminanceSource.c **** 				destRow[x] = RGBToGray(src[redIndex], src[greenIndex], src[blueIndex]);
 226              		.loc 1 80 63 discriminator 3
 227 015b 8B552C   		movl	44(%ebp), %edx
 228 015e 8B45E4   		movl	-28(%ebp), %eax
 229 0161 01D0     		addl	%edx, %eax
 230 0163 0FB600   		movzbl	(%eax), %eax
 231              		.loc 1 80 18 discriminator 3
 232 0166 0FB6C8   		movzbl	%al, %ecx
 233              		.loc 1 80 46 discriminator 3
 234 0169 8B5528   		movl	40(%ebp), %edx
 235 016c 8B45E4   		movl	-28(%ebp), %eax
 236 016f 01D0     		addl	%edx, %eax
 237 0171 0FB600   		movzbl	(%eax), %eax
 238              		.loc 1 80 18 discriminator 3
 239 0174 0FB6D0   		movzbl	%al, %edx
 240              		.loc 1 80 31 discriminator 3
 241 0177 8B5D24   		movl	36(%ebp), %ebx
 242 017a 8B45E4   		movl	-28(%ebp), %eax
 243 017d 01D8     		addl	%ebx, %eax
GAS LISTING C:\Users\jisu8\AppData\Local\Temp\ccAW7caP.s 			page 7


 244 017f 0FB600   		movzbl	(%eax), %eax
 245              		.loc 1 80 18 discriminator 3
 246 0182 0FB6C0   		movzbl	%al, %eax
 247              		.loc 1 80 12 discriminator 3
 248 0185 8B75E0   		movl	-32(%ebp), %esi
 249 0188 8B5DEC   		movl	-20(%ebp), %ebx
 250 018b 01F3     		addl	%esi, %ebx
 251              		.loc 1 80 18 discriminator 3
 252 018d 894C2408 		movl	%ecx, 8(%esp)
 253 0191 89542404 		movl	%edx, 4(%esp)
 254 0195 890424   		movl	%eax, (%esp)
 255 0198 E863FEFF 		call	_RGBToGray
 255      FF
 256              		.loc 1 80 16 discriminator 3
 257 019d 8803     		movb	%al, (%ebx)
  78:src/GenericLuminanceSource.c **** 			for (int x = 0; x < width; ++x, src += pixelBytes)
 258              		.loc 1 78 31 discriminator 3
 259 019f 8345E001 		addl	$1, -32(%ebp)
  78:src/GenericLuminanceSource.c **** 			for (int x = 0; x < width; ++x, src += pixelBytes)
 260              		.loc 1 78 40 discriminator 3
 261 01a3 8B4520   		movl	32(%ebp), %eax
 262 01a6 0145E4   		addl	%eax, -28(%ebp)
 263              	L14:
  78:src/GenericLuminanceSource.c **** 			for (int x = 0; x < width; ++x, src += pixelBytes)
 264              		.loc 1 78 4 discriminator 1
 265 01a9 8B45E0   		movl	-32(%ebp), %eax
 266 01ac 3B4510   		cmpl	16(%ebp), %eax
 267 01af 7CAA     		jl	L15
 268              	LBE7:
 269              	LBE6:
  74:src/GenericLuminanceSource.c **** 		{
 270              		.loc 1 74 31 discriminator 2
 271 01b1 8345E801 		addl	$1, -24(%ebp)
  74:src/GenericLuminanceSource.c **** 		{
 272              		.loc 1 74 46 discriminator 2
 273 01b5 8B451C   		movl	28(%ebp), %eax
 274 01b8 0145F0   		addl	%eax, -16(%ebp)
  74:src/GenericLuminanceSource.c **** 		{
 275              		.loc 1 74 67 discriminator 2
 276 01bb 8B4510   		movl	16(%ebp), %eax
 277 01be 0145EC   		addl	%eax, -20(%ebp)
 278              	L13:
  74:src/GenericLuminanceSource.c **** 		{
 279              		.loc 1 74 3 discriminator 1
 280 01c1 8B45E8   		movl	-24(%ebp), %eax
 281 01c4 3B4514   		cmpl	20(%ebp), %eax
 282 01c7 0F8C74FF 		jl	L16
 282      FFFF
 283              	LBE5:
  81:src/GenericLuminanceSource.c **** 			}
  82:src/GenericLuminanceSource.c **** 		}
  83:src/GenericLuminanceSource.c **** 		ret = pixels;
 284              		.loc 1 83 7
 285 01cd C745F400 		movl	$_pixels, -12(%ebp)
 285      000000
 286              	L12:
 287              	LBE4:
GAS LISTING C:\Users\jisu8\AppData\Local\Temp\ccAW7caP.s 			page 8


  84:src/GenericLuminanceSource.c **** 	}
  85:src/GenericLuminanceSource.c **** 	return ret;
 288              		.loc 1 85 9
 289 01d4 8B45F4   		movl	-12(%ebp), %eax
  86:src/GenericLuminanceSource.c **** }
 290              		.loc 1 86 1
 291 01d7 83C440   		addl	$64, %esp
 292 01da 5B       		popl	%ebx
 293              		.cfi_restore 3
 294 01db 5E       		popl	%esi
 295              		.cfi_restore 6
 296 01dc 5D       		popl	%ebp
 297              	LCFI8:
 298              		.cfi_restore 5
 299              		.cfi_def_cfa 4, 4
 300 01dd C3       		ret
 301              		.cfi_endproc
 302              	LFE15:
 303              		.globl	_getMatrix
 305              	_getMatrix:
 306              	LFB16:
  87:src/GenericLuminanceSource.c **** 
  88:src/GenericLuminanceSource.c **** const uint8_t * getMatrix(GenericLuminanceSource_t * source, uint8_t * buffer, int * outRowBytes, u
  89:src/GenericLuminanceSource.c **** {
 307              		.loc 1 89 1
 308              		.cfi_startproc
 309 01de 55       		pushl	%ebp
 310              	LCFI9:
 311              		.cfi_def_cfa_offset 8
 312              		.cfi_offset 5, -8
 313 01df 89E5     		movl	%esp, %ebp
 314              	LCFI10:
 315              		.cfi_def_cfa_register 5
 316 01e1 53       		pushl	%ebx
 317 01e2 83EC44   		subl	$68, %esp
 318              		.cfi_offset 3, -12
 319 01e5 8B4514   		movl	20(%ebp), %eax
 320 01e8 8845D4   		movb	%al, -44(%ebp)
 321              		.loc 1 89 1
 322 01eb 89E0     		movl	%esp, %eax
 323 01ed 89C3     		movl	%eax, %ebx
  90:src/GenericLuminanceSource.c **** 
  91:src/GenericLuminanceSource.c **** 	uint8_t newBuf[source->width * source->height];
 324              		.loc 1 91 23
 325 01ef 8B4508   		movl	8(%ebp), %eax
 326 01f2 8B500C   		movl	12(%eax), %edx
 327              		.loc 1 91 39
 328 01f5 8B4508   		movl	8(%ebp), %eax
 329 01f8 8B4010   		movl	16(%eax), %eax
 330              		.loc 1 91 31
 331 01fb 0FAFC2   		imull	%edx, %eax
 332              		.loc 1 91 10
 333 01fe 8D50FF   		leal	-1(%eax), %edx
 334 0201 8955E8   		movl	%edx, -24(%ebp)
 335 0204 89C2     		movl	%eax, %edx
 336 0206 B8100000 		movl	$16, %eax
 336      00
GAS LISTING C:\Users\jisu8\AppData\Local\Temp\ccAW7caP.s 			page 9


 337 020b 83E801   		subl	$1, %eax
 338 020e 01D0     		addl	%edx, %eax
 339 0210 B9100000 		movl	$16, %ecx
 339      00
 340 0215 BA000000 		movl	$0, %edx
 340      00
 341 021a F7F1     		divl	%ecx
 342 021c 6BC010   		imull	$16, %eax, %eax
 343 021f E8000000 		call	___chkstk_ms
 343      00
 344 0224 29C4     		subl	%eax, %esp
 345 0226 8D44240C 		leal	12(%esp), %eax
 346 022a 83C000   		addl	$0, %eax
 347 022d 8945E4   		movl	%eax, -28(%ebp)
  92:src/GenericLuminanceSource.c **** 	const uint8_t* row = source->pixels + source->top*source->rowBytes + source->left;
 348              		.loc 1 92 29
 349 0230 8B4508   		movl	8(%ebp), %eax
 350 0233 8B10     		movl	(%eax), %edx
 351              		.loc 1 92 46
 352 0235 8B4508   		movl	8(%ebp), %eax
 353 0238 8B4808   		movl	8(%eax), %ecx
 354              		.loc 1 92 58
 355 023b 8B4508   		movl	8(%ebp), %eax
 356 023e 8B4014   		movl	20(%eax), %eax
 357              		.loc 1 92 51
 358 0241 0FAFC1   		imull	%ecx, %eax
 359 0244 89C1     		movl	%eax, %ecx
 360              		.loc 1 92 77
 361 0246 8B4508   		movl	8(%ebp), %eax
 362 0249 8B4004   		movl	4(%eax), %eax
 363              		.loc 1 92 69
 364 024c 01C8     		addl	%ecx, %eax
 365              		.loc 1 92 17
 366 024e 01D0     		addl	%edx, %eax
 367 0250 8945EC   		movl	%eax, -20(%ebp)
  93:src/GenericLuminanceSource.c **** 	if (!forceCopy) 
 368              		.loc 1 93 5
 369 0253 807DD400 		cmpb	$0, -44(%ebp)
 370 0257 7510     		jne	L19
  94:src/GenericLuminanceSource.c **** 	{
  95:src/GenericLuminanceSource.c **** 		*outRowBytes = source->rowBytes;
 371              		.loc 1 95 24
 372 0259 8B4508   		movl	8(%ebp), %eax
 373 025c 8B5014   		movl	20(%eax), %edx
 374              		.loc 1 95 16
 375 025f 8B4510   		movl	16(%ebp), %eax
 376 0262 8910     		movl	%edx, (%eax)
  96:src/GenericLuminanceSource.c **** 		return row;
 377              		.loc 1 96 10
 378 0264 8B45EC   		movl	-20(%ebp), %eax
 379 0267 EB5C     		jmp	L20
 380              	L19:
  97:src/GenericLuminanceSource.c **** 	}
  98:src/GenericLuminanceSource.c **** 
  99:src/GenericLuminanceSource.c **** 	*outRowBytes = source->width;
 381              		.loc 1 99 23
 382 0269 8B4508   		movl	8(%ebp), %eax
GAS LISTING C:\Users\jisu8\AppData\Local\Temp\ccAW7caP.s 			page 10


 383 026c 8B500C   		movl	12(%eax), %edx
 384              		.loc 1 99 15
 385 026f 8B4510   		movl	16(%ebp), %eax
 386 0272 8910     		movl	%edx, (%eax)
 100:src/GenericLuminanceSource.c **** 	uint8_t* dest = buffer;
 387              		.loc 1 100 11
 388 0274 8B450C   		movl	12(%ebp), %eax
 389 0277 8945F0   		movl	%eax, -16(%ebp)
 390              	LBB8:
 101:src/GenericLuminanceSource.c **** 	for (int y = 0; y < source->height; ++y, row += source->rowBytes, dest += source->width) 
 391              		.loc 1 101 11
 392 027a C745F400 		movl	$0, -12(%ebp)
 392      000000
 393              		.loc 1 101 2
 394 0281 EB34     		jmp	L21
 395              	L22:
 102:src/GenericLuminanceSource.c **** 	{
 103:src/GenericLuminanceSource.c **** 		copy_n(row, source->width, dest);
 396              		.loc 1 103 21 discriminator 3
 397 0283 8B4508   		movl	8(%ebp), %eax
 398 0286 8B400C   		movl	12(%eax), %eax
 399              		.loc 1 103 3 discriminator 3
 400 0289 89C2     		movl	%eax, %edx
 401 028b 8B45F0   		movl	-16(%ebp), %eax
 402 028e 89442408 		movl	%eax, 8(%esp)
 403 0292 89542404 		movl	%edx, 4(%esp)
 404 0296 8B45EC   		movl	-20(%ebp), %eax
 405 0299 890424   		movl	%eax, (%esp)
 406 029c E82B0000 		call	_copy_n
 406      00
 101:src/GenericLuminanceSource.c **** 	for (int y = 0; y < source->height; ++y, row += source->rowBytes, dest += source->width) 
 407              		.loc 1 101 38 discriminator 3
 408 02a1 8345F401 		addl	$1, -12(%ebp)
 101:src/GenericLuminanceSource.c **** 	for (int y = 0; y < source->height; ++y, row += source->rowBytes, dest += source->width) 
 409              		.loc 1 101 56 discriminator 3
 410 02a5 8B4508   		movl	8(%ebp), %eax
 411 02a8 8B4014   		movl	20(%eax), %eax
 101:src/GenericLuminanceSource.c **** 	for (int y = 0; y < source->height; ++y, row += source->rowBytes, dest += source->width) 
 412              		.loc 1 101 47 discriminator 3
 413 02ab 0145EC   		addl	%eax, -20(%ebp)
 101:src/GenericLuminanceSource.c **** 	for (int y = 0; y < source->height; ++y, row += source->rowBytes, dest += source->width) 
 414              		.loc 1 101 82 discriminator 3
 415 02ae 8B4508   		movl	8(%ebp), %eax
 416 02b1 8B400C   		movl	12(%eax), %eax
 101:src/GenericLuminanceSource.c **** 	for (int y = 0; y < source->height; ++y, row += source->rowBytes, dest += source->width) 
 417              		.loc 1 101 73 discriminator 3
 418 02b4 0145F0   		addl	%eax, -16(%ebp)
 419              	L21:
 101:src/GenericLuminanceSource.c **** 	for (int y = 0; y < source->height; ++y, row += source->rowBytes, dest += source->width) 
 420              		.loc 1 101 28 discriminator 1
 421 02b7 8B4508   		movl	8(%ebp), %eax
 422 02ba 8B4010   		movl	16(%eax), %eax
 101:src/GenericLuminanceSource.c **** 	for (int y = 0; y < source->height; ++y, row += source->rowBytes, dest += source->width) 
 423              		.loc 1 101 2 discriminator 1
 424 02bd 3945F4   		cmpl	%eax, -12(%ebp)
 425 02c0 7CC1     		jl	L22
 426              	LBE8:
GAS LISTING C:\Users\jisu8\AppData\Local\Temp\ccAW7caP.s 			page 11


 104:src/GenericLuminanceSource.c **** 	}
 105:src/GenericLuminanceSource.c **** 	return dest;
 427              		.loc 1 105 9
 428 02c2 8B45F0   		movl	-16(%ebp), %eax
 429              	L20:
 430 02c5 89DC     		movl	%ebx, %esp
 106:src/GenericLuminanceSource.c **** }
 431              		.loc 1 106 1
 432 02c7 8B5DFC   		movl	-4(%ebp), %ebx
 433 02ca C9       		leave
 434              	LCFI11:
 435              		.cfi_restore 5
 436              		.cfi_restore 3
 437              		.cfi_def_cfa 4, 4
 438 02cb C3       		ret
 439              		.cfi_endproc
 440              	LFE16:
 442              	_copy_n:
 443              	LFB17:
 107:src/GenericLuminanceSource.c **** 
 108:src/GenericLuminanceSource.c **** static inline copy_n(uint8_t * _First, unsigned int _Count_raw, uint8_t* _Dest) 
 109:src/GenericLuminanceSource.c **** {
 444              		.loc 1 109 1
 445              		.cfi_startproc
 446 02cc 55       		pushl	%ebp
 447              	LCFI12:
 448              		.cfi_def_cfa_offset 8
 449              		.cfi_offset 5, -8
 450 02cd 89E5     		movl	%esp, %ebp
 451              	LCFI13:
 452              		.cfi_def_cfa_register 5
 110:src/GenericLuminanceSource.c ****     if (0 < _Count_raw) 
 453              		.loc 1 110 8
 454 02cf 837D0C00 		cmpl	$0, 12(%ebp)
 455 02d3 7420     		je	L25
 456              	L27:
 111:src/GenericLuminanceSource.c **** 	{
 112:src/GenericLuminanceSource.c ****         for (;;) 
 113:src/GenericLuminanceSource.c **** 		{
 114:src/GenericLuminanceSource.c ****             *_Dest = *_First;
 457              		.loc 1 114 22
 458 02d5 8B4508   		movl	8(%ebp), %eax
 459 02d8 0FB610   		movzbl	(%eax), %edx
 460              		.loc 1 114 20
 461 02db 8B4510   		movl	16(%ebp), %eax
 462 02de 8810     		movb	%dl, (%eax)
 115:src/GenericLuminanceSource.c ****             ++_Dest;
 463              		.loc 1 115 13
 464 02e0 83451001 		addl	$1, 16(%ebp)
 116:src/GenericLuminanceSource.c ****             --_Count_raw;
 465              		.loc 1 116 13
 466 02e4 836D0C01 		subl	$1, 12(%ebp)
 117:src/GenericLuminanceSource.c ****             if (_Count_raw == 0) 
 467              		.loc 1 117 16
 468 02e8 837D0C00 		cmpl	$0, 12(%ebp)
 469 02ec 7406     		je	L29
 118:src/GenericLuminanceSource.c **** 			{ // note that we avoid an extra ++_First here to allow istream_iterator to work,
GAS LISTING C:\Users\jisu8\AppData\Local\Temp\ccAW7caP.s 			page 12


 119:src/GenericLuminanceSource.c ****                                // see LWG-2471
 120:src/GenericLuminanceSource.c ****                 break;
 121:src/GenericLuminanceSource.c ****             }
 122:src/GenericLuminanceSource.c **** 
 123:src/GenericLuminanceSource.c ****             ++_First;
 470              		.loc 1 123 13
 471 02ee 83450801 		addl	$1, 8(%ebp)
 114:src/GenericLuminanceSource.c ****             ++_Dest;
 472              		.loc 1 114 20
 473 02f2 EBE1     		jmp	L27
 474              	L29:
 120:src/GenericLuminanceSource.c ****             }
 475              		.loc 1 120 17
 476 02f4 90       		nop
 477              	L25:
 124:src/GenericLuminanceSource.c ****         }
 125:src/GenericLuminanceSource.c ****     }
 126:src/GenericLuminanceSource.c **** 
 127:src/GenericLuminanceSource.c ****     return _Dest;
 478              		.loc 1 127 12
 479 02f5 8B4510   		movl	16(%ebp), %eax
 128:src/GenericLuminanceSource.c **** }...
 480              		.loc 1 128 1
 481 02f8 5D       		popl	%ebp
 482              	LCFI14:
 483              		.cfi_restore 5
 484              		.cfi_def_cfa 4, 4
 485 02f9 C3       		ret
 486              		.cfi_endproc
 487              	LFE17:
 488              	Letext0:
 489              		.file 2 "D:/3.tools/mingw/mingw32/i686-w64-mingw32/include/stdio.h"
 490              		.file 3 "D:/3.tools/mingw/mingw32/i686-w64-mingw32/include/stdint.h"
 491              		.file 4 "src/GenericLuminanceSource.h"