GAS LISTING C:\Users\jisu8\AppData\Local\Temp\ccAW7caP.s 			page 1


   1              		.file	"GenericLuminanceSource.c"
   2              		.text
   3              	Ltext0:
   4              		.comm	_pixels, 115200, 5
   6              	_RGBToGray:
   7              	LFB13:
   8              		.file 1 "src/GenericLuminanceSource.c"
   1:src/GenericLuminanceSource.c **** /*
   2:src/GenericLuminanceSource.c **** * Copyright 2016 Nu-book Inc.
   3:src/GenericLuminanceSource.c **** * Copyright 2016 ZXing authors
   4:src/GenericLuminanceSource.c **** *
   5:src/GenericLuminanceSource.c **** * Licensed under the Apache License, Version 2.0 (the "License");
   6:src/GenericLuminanceSource.c **** * you may not use this file except in compliance with the License.
   7:src/GenericLuminanceSource.c **** * You may obtain a copy of the License at
   8:src/GenericLuminanceSource.c **** *
   9:src/GenericLuminanceSource.c **** *      http://www.apache.org/licenses/LICENSE-2.0
  10:src/GenericLuminanceSource.c **** *
  11:src/GenericLuminanceSource.c **** * Unless required by applicable law or agreed to in writing, software
  12:src/GenericLuminanceSource.c **** * distributed under the License is distributed on an "AS IS" BASIS,
  13:src/GenericLuminanceSource.c **** * WITHOUT WARRANTIES OR CONDITIONS OF ANY KIND, either express or implied.
  14:src/GenericLuminanceSource.c **** * See the License for the specific language governing permissions and
  15:src/GenericLuminanceSource.c **** * limitations under the License.
  16:src/GenericLuminanceSource.c **** */
  17:src/GenericLuminanceSource.c **** #include "GenericLuminanceSource.h"
  18:src/GenericLuminanceSource.c **** 
  19:src/GenericLuminanceSource.c **** uint8_t pixels[115200];
  20:src/GenericLuminanceSource.c **** 
  21:src/GenericLuminanceSource.c **** static inline copy_n(uint8_t * _First, unsigned int _Count_raw, uint8_t* _Dest) ;
  22:src/GenericLuminanceSource.c **** 
  23:src/GenericLuminanceSource.c **** static uint8_t RGBToGray(unsigned int r, unsigned int g, unsigned int b)
  24:src/GenericLuminanceSource.c **** {
   9              		.loc 1 24 1
  10              		.cfi_startproc
  11 0000 55       		pushl	%ebp
  12              	LCFI0:
  13              		.cfi_def_cfa_offset 8
  14              		.cfi_offset 5, -8
  15 0001 89E5     		movl	%esp, %ebp
  16              	LCFI1:
  17              		.cfi_def_cfa_register 5
  25:src/GenericLuminanceSource.c **** 	// This optimization is not necessary as the computation below is cheap enough.
  26:src/GenericLuminanceSource.c **** 	//if (r == g && g == b) {
  27:src/GenericLuminanceSource.c **** 	//	// Image is already greyscale, so pick any channel.
  28:src/GenericLuminanceSource.c **** 	//	return static_cast<uint8_t>(r);
  29:src/GenericLuminanceSource.c **** 	//}
  30:src/GenericLuminanceSource.c **** 
  31:src/GenericLuminanceSource.c **** 	// .299R + 0.587G + 0.114B (YUV/YIQ for PAL and NTSC),
  32:src/GenericLuminanceSource.c **** 	// (306*R) >> 10 is approximately equal to R*0.299, and so on.
  33:src/GenericLuminanceSource.c **** 	// 0x200 >> 10 is 0.5, it implements rounding.
  34:src/GenericLuminanceSource.c **** 	return (uint8_t)((306 * r + 601 * g + 117 * b + 0x200) >> 10);
  18              		.loc 1 34 24
  19 0003 8B4508   		movl	8(%ebp), %eax
  20 0006 69D03201 		imull	$306, %eax, %edx
  20      0000
  21              		.loc 1 34 34
  22 000c 8B450C   		movl	12(%ebp), %eax
  23 000f 69C05902 		imull	$601, %eax, %eax
GAS LISTING C:\Users\jisu8\AppData\Local\Temp\ccAW7caP.s 			page 2


  23      0000
  24              		.loc 1 34 28
  25 0015 01C2     		addl	%eax, %edx
  26              		.loc 1 34 44
  27 0017 8B4510   		movl	16(%ebp), %eax
  28 001a 6BC075   		imull	$117, %eax, %eax
  29              		.loc 1 34 38
  30 001d 01D0     		addl	%edx, %eax
  31              		.loc 1 34 48
  32 001f 05000200 		addl	$512, %eax
  32      00
  33              		.loc 1 34 57
  34 0024 C1E80A   		shrl	$10, %eax
  35:src/GenericLuminanceSource.c **** }
  35              		.loc 1 35 1
  36 0027 5D       		popl	%ebp
  37              	LCFI2:
  38              		.cfi_restore 5
  39              		.cfi_def_cfa 4, 4
  40 0028 C3       		ret
  41              		.cfi_endproc
  42              	LFE13:
  44              	_MakeCopy:
  45              	LFB14:
  36:src/GenericLuminanceSource.c **** 
  37:src/GenericLuminanceSource.c **** 
  38:src/GenericLuminanceSource.c **** static unsigned char * MakeCopy(unsigned char * pixels, int rowBytes, int left, int top, int width,
  39:src/GenericLuminanceSource.c **** {
  46              		.loc 1 39 1
  47              		.cfi_startproc
  48 0029 55       		pushl	%ebp
  49              	LCFI3:
  50              		.cfi_def_cfa_offset 8
  51              		.cfi_offset 5, -8
  52 002a 89E5     		movl	%esp, %ebp
  53              	LCFI4:
  54              		.cfi_def_cfa_register 5
  55 002c 83EC28   		subl	$40, %esp
  40:src/GenericLuminanceSource.c **** 	unsigned char * result;
  41:src/GenericLuminanceSource.c **** 	if ((top == 0) && (left == 0) && (width * height == sizeof(pixels))) 
  56              		.loc 1 41 5
  57 002f 837D1400 		cmpl	$0, 20(%ebp)
  58 0033 7517     		jne	L4
  59              		.loc 1 41 17 discriminator 1
  60 0035 837D1000 		cmpl	$0, 16(%ebp)
  61 0039 7511     		jne	L4
  62              		.loc 1 41 42 discriminator 2
  63 003b 8B4518   		movl	24(%ebp), %eax
  64 003e 0FAF451C 		imull	28(%ebp), %eax
  65              		.loc 1 41 32 discriminator 2
  66 0042 83F804   		cmpl	$4, %eax
  67 0045 7505     		jne	L4
  42:src/GenericLuminanceSource.c **** 	{
  43:src/GenericLuminanceSource.c **** 		return pixels;
  68              		.loc 1 43 10
  69 0047 8B4508   		movl	8(%ebp), %eax
  70 004a EB60     		jmp	L5
GAS LISTING C:\Users\jisu8\AppData\Local\Temp\ccAW7caP.s 			page 3


  71              	L4:
  72              	LBB2:
  44:src/GenericLuminanceSource.c **** 	}
  45:src/GenericLuminanceSource.c **** 	else
  46:src/GenericLuminanceSource.c **** 	{
  47:src/GenericLuminanceSource.c **** 		result = pixels;
  73              		.loc 1 47 10
  74 004c 8B4508   		movl	8(%ebp), %eax
  75 004f 8945E8   		movl	%eax, -24(%ebp)
  48:src/GenericLuminanceSource.c **** 		const uint8_t* srcRow = (uint8_t)(pixels) + top * rowBytes + left;
  76              		.loc 1 48 27
  77 0052 8B4508   		movl	8(%ebp), %eax
  78 0055 0FB6D0   		movzbl	%al, %edx
  79              		.loc 1 48 51
  80 0058 8B4514   		movl	20(%ebp), %eax
  81 005b 0FAF450C 		imull	12(%ebp), %eax
  82              		.loc 1 48 45
  83 005f 01C2     		addl	%eax, %edx
  84              		.loc 1 48 62
  85 0061 8B4510   		movl	16(%ebp), %eax
  86 0064 01D0     		addl	%edx, %eax
  87              		.loc 1 48 18
  88 0066 8945F4   		movl	%eax, -12(%ebp)
  49:src/GenericLuminanceSource.c **** 		uint8_t* destRow = result;
  89              		.loc 1 49 12
  90 0069 8B45E8   		movl	-24(%ebp), %eax
  91 006c 8945F0   		movl	%eax, -16(%ebp)
  92              	LBB3:
  50:src/GenericLuminanceSource.c **** 		for (int y = 0; y < height; ++y, srcRow += rowBytes, destRow += width) 
  93              		.loc 1 50 12
  94 006f C745EC00 		movl	$0, -20(%ebp)
  94      000000
  95              		.loc 1 50 3
  96 0076 EB29     		jmp	L6
  97              	L7:
  51:src/GenericLuminanceSource.c **** 		{
  52:src/GenericLuminanceSource.c **** 			copy_n(srcRow, width, destRow);
  98              		.loc 1 52 4 discriminator 3
  99 0078 8B4518   		movl	24(%ebp), %eax
 100 007b 8B55F0   		movl	-16(%ebp), %edx
 101 007e 89542408 		movl	%edx, 8(%esp)
 102 0082 89442404 		movl	%eax, 4(%esp)
 103 0086 8B45F4   		movl	-12(%ebp), %eax
 104 0089 890424   		movl	%eax, (%esp)
 105 008c E83B0200 		call	_copy_n
 105      00
  50:src/GenericLuminanceSource.c **** 		for (int y = 0; y < height; ++y, srcRow += rowBytes, destRow += width) 
 106              		.loc 1 50 31 discriminator 3
 107 0091 8345EC01 		addl	$1, -20(%ebp)
  50:src/GenericLuminanceSource.c **** 		for (int y = 0; y < height; ++y, srcRow += rowBytes, destRow += width) 
 108              		.loc 1 50 43 discriminator 3
 109 0095 8B450C   		movl	12(%ebp), %eax
 110 0098 0145F4   		addl	%eax, -12(%ebp)
  50:src/GenericLuminanceSource.c **** 		for (int y = 0; y < height; ++y, srcRow += rowBytes, destRow += width) 
 111              		.loc 1 50 64 discriminator 3
 112 009b 8B4518   		movl	24(%ebp), %eax
 113 009e 0145F0   		addl	%eax, -16(%ebp)
GAS LISTING C:\Users\jisu8\AppData\Local\Temp\ccAW7caP.s 			page 4


 114              	L6:
  50:src/GenericLuminanceSource.c **** 		for (int y = 0; y < height; ++y, srcRow += rowBytes, destRow += width) 
 115              		.loc 1 50 3 discriminator 1
 116 00a1 8B45EC   		movl	-20(%ebp), %eax
 117 00a4 3B451C   		cmpl	28(%ebp), %eax
 118 00a7 7CCF     		jl	L7
 119              	LBE3:
  53:src/GenericLuminanceSource.c **** 		}
  54:src/GenericLuminanceSource.c **** 		return result;
 120              		.loc 1 54 10
 121 00a9 8B45E8   		movl	-24(%ebp), %eax
 122              	L5:
 123              	LBE2:
  55:src/GenericLuminanceSource.c **** 	}
  56:src/GenericLuminanceSource.c **** }
 124              		.loc 1 56 1
 125 00ac C9       		leave
 126              	LCFI5:
 127              		.cfi_restore 5
 128              		.cfi_def_cfa 4, 4
 129 00ad C3       		ret
 130              		.cfi_endproc
 131              	LFE14:
 132              		.section .rdata,"dr"
 133              		.align 4
 134              	LC0:
 135 0000 52657175 		.ascii "Requested offset is outside the image\0"
 135      65737465 
 135      64206F66 
 135      66736574 
 135      20697320 
 136 0026 0000     		.text
 137              		.globl	_GenericLuminanceSource
 139              	_GenericLuminanceSource:
 140              	LFB15:
  57:src/GenericLuminanceSource.c **** 
  58:src/GenericLuminanceSource.c **** unsigned char * GenericLuminanceSource(int left, int top, int width, int height, unsigned char * by
  59:src/GenericLuminanceSource.c **** {
 141              		.loc 1 59 1
 142              		.cfi_startproc
 143 00ae 55       		pushl	%ebp
 144              	LCFI6:
 145              		.cfi_def_cfa_offset 8
 146              		.cfi_offset 5, -8
 147 00af 89E5     		movl	%esp, %ebp
 148              	LCFI7:
 149              		.cfi_def_cfa_register 5
 150 00b1 56       		pushl	%esi
 151 00b2 53       		pushl	%ebx
 152 00b3 83EC40   		subl	$64, %esp
 153              		.cfi_offset 6, -12
 154              		.cfi_offset 3, -16
  60:src/GenericLuminanceSource.c **** 	unsigned char *ret = NULL;
 155              		.loc 1 60 17
 156 00b6 C745F400 		movl	$0, -12(%ebp)
 156      000000
  61:src/GenericLuminanceSource.c **** 	if ((left < 0) || (top < 0) || (width < 0) || (height < 0)) 
GAS LISTING C:\Users\jisu8\AppData\Local\Temp\ccAW7caP.s 			page 5


 157              		.loc 1 61 5
 158 00bd 837D0800 		cmpl	$0, 8(%ebp)
 159 00c1 7812     		js	L9
 160              		.loc 1 61 17 discriminator 1
 161 00c3 837D0C00 		cmpl	$0, 12(%ebp)
 162 00c7 780C     		js	L9
 163              		.loc 1 61 30 discriminator 2
 164 00c9 837D1000 		cmpl	$0, 16(%ebp)
 165 00cd 7806     		js	L9
 166              		.loc 1 61 45 discriminator 3
 167 00cf 837D1400 		cmpl	$0, 20(%ebp)
 168 00d3 790C     		jns	L10
 169              	L9:
  62:src/GenericLuminanceSource.c **** 	{
  63:src/GenericLuminanceSource.c **** 		printf("Requested offset is outside the image");
 170              		.loc 1 63 3
 171 00d5 C7042400 		movl	$LC0, (%esp)
 171      000000
 172 00dc E8000000 		call	_printf
 172      00
 173              	L10:
  64:src/GenericLuminanceSource.c **** 	}
  65:src/GenericLuminanceSource.c **** 
  66:src/GenericLuminanceSource.c **** 	if (pixelBytes == 1)
 174              		.loc 1 66 5
 175 00e1 837D2001 		cmpl	$1, 32(%ebp)
 176 00e5 7536     		jne	L11
  67:src/GenericLuminanceSource.c **** 	{
  68:src/GenericLuminanceSource.c **** 		ret = MakeCopy(bytes, rowBytes, left, top, width, height);
 177              		.loc 1 68 9
 178 00e7 8B4514   		movl	20(%ebp), %eax
 179 00ea 89442414 		movl	%eax, 20(%esp)
 180 00ee 8B4510   		movl	16(%ebp), %eax
 181 00f1 89442410 		movl	%eax, 16(%esp)
 182 00f5 8B450C   		movl	12(%ebp), %eax
 183 00f8 8944240C 		movl	%eax, 12(%esp)
 184 00fc 8B4508   		movl	8(%ebp), %eax
 185 00ff 89442408 		movl	%eax, 8(%esp)
 186 0103 8B451C   		movl	28(%ebp), %eax
 187 0106 89442404 		movl	%eax, 4(%esp)
 188 010a 8B4518   		movl	24(%ebp), %eax
 189 010d 890424   		movl	%eax, (%esp)
 190 0110 E814FFFF 		call	_MakeCopy
 190      FF
 191 0115 8945F4   		movl	%eax, -12(%ebp)
 192 0118 E9B70000 		jmp	L12
 192      00
 193              	L11:
 194              	LBB4:
  69:src/GenericLuminanceSource.c **** 	}
  70:src/GenericLuminanceSource.c **** 	else 
  71:src/GenericLuminanceSource.c **** 	{
  72:src/GenericLuminanceSource.c **** 		const uint8_t *rgbSource = (bytes) + top * rowBytes;
 195              		.loc 1 72 44
 196 011d 8B450C   		movl	12(%ebp), %eax
 197 0120 0FAF451C 		imull	28(%ebp), %eax
 198 0124 89C2     		movl	%eax, %edx
GAS LISTING C:\Users\jisu8\AppData\Local\Temp\ccAW7caP.s 			page 6


 199              		.loc 1 72 18
 200 0126 8B4518   		movl	24(%ebp), %eax
 201 0129 01D0     		addl	%edx, %eax
 202 012b 8945F0   		movl	%eax, -16(%ebp)
  73:src/GenericLuminanceSource.c **** 		uint8_t *destRow = pixels;//pixels->data; // pixel의 data 값을 가져와야함 포인터로.
 203              		.loc 1 73 12
 204 012e C745EC00 		movl	$_pixels, -20(%ebp)
 204      000000
 205              	LBB5:
  74:src/GenericLuminanceSource.c **** 		for (int y = 0; y < height; ++y, rgbSource += rowBytes, destRow += width) 
 206              		.loc 1 74 12
 207 0135 C745E800 		movl	$0, -24(%ebp)
 207      000000
 208              		.loc 1 74 3
 209 013c E9800000 		jmp	L13
 209      00
 210              	L16:
 211              	LBB6:
  75:src/GenericLuminanceSource.c **** 		{
  76:src/GenericLuminanceSource.c **** 
  77:src/GenericLuminanceSource.c **** 			const uint8_t *src = rgbSource + (left * pixelBytes);
 212              		.loc 1 77 43
 213 0141 8B4508   		movl	8(%ebp), %eax
 214 0144 0FAF4520 		imull	32(%ebp), %eax
 215 0148 89C2     		movl	%eax, %edx
 216              		.loc 1 77 19
 217 014a 8B45F0   		movl	-16(%ebp), %eax
 218 014d 01D0     		addl	%edx, %eax
 219 014f 8945E4   		movl	%eax, -28(%ebp)
 220              	LBB7:
  78:src/GenericLuminanceSource.c **** 			for (int x = 0; x < width; ++x, src += pixelBytes)
 221              		.loc 1 78 13
 222 0152 C745E000 		movl	$0, -32(%ebp)
 222      000000
 223              		.loc 1 78 4
 224 0159 EB4E     		jmp	L14
 225              	L15:
  79:src/GenericLuminanceSource.c **** 			{
  80:src/GenericLuminanceSource.c **** 				destRow[x] = RGBToGray(src[redIndex], src[greenIndex], src[blueIndex]);
 226              		.loc 1 80 63 discriminator 3
 227 015b 8B552C   		movl	44(%ebp), %edx
 228 015e 8B45E4   		movl	-28(%ebp), %eax
 229 0161 01D0     		addl	%edx, %eax
 230 0163 0FB600   		movzbl	(%eax), %eax
 231              		.loc 1 80 18 discriminator 3
 232 0166 0FB6C8   		movzbl	%al, %ecx
 233              		.loc 1 80 46 discriminator 3
 234 0169 8B5528   		movl	40(%ebp), %edx
 235 016c 8B45E4   		movl	-28(%ebp), %eax
 236 016f 01D0     		addl	%edx, %eax
 237 0171 0FB600   		movzbl	(%eax), %eax
 238              		.loc 1 80 18 discriminator 3
 239 0174 0FB6D0   		movzbl	%al, %edx
 240              		.loc 1 80 31 discriminator 3
 241 0177 8B5D24   		movl	36(%ebp), %ebx
 242 017a 8B45E4   		movl	-28(%ebp), %eax
 243 017d 01D8     		addl	%ebx, %eax
GAS LISTING C:\Users\jisu8\AppData\Local\Temp\ccAW7caP.s 			page 7


 244 017f 0FB600   		movzbl	(%eax), %eax
 245              		.loc 1 80 18 discriminator 3
 246 0182 0FB6C0   		movzbl	%al, %eax
 247              		.loc 1 80 12 discriminator 3
 248 0185 8B75E0   		movl	-32(%ebp), %esi
 249 0188 8B5DEC   		movl	-20(%ebp), %ebx
 250 018b 01F3     		addl	%esi, %ebx
 251              		.loc 1 80 18 discriminator 3
 252 018d 894C2408 		movl	%ecx, 8(%esp)
 253 0191 89542404 		movl	%edx, 4(%esp)
 254 0195 890424   		movl	%eax, (%esp)
 255 0198 E863FEFF 		call	_RGBToGray
 255      FF
 256              		.loc 1 80 16 discriminator 3
 257 019d 8803     		movb	%al, (%ebx)
  78:src/GenericLuminanceSource.c **** 			for (int x = 0; x < width; ++x, src += pixelBytes)
 258              		.loc 1 78 31 discriminator 3
 259 019f 8345E001 		addl	$1, -32(%ebp)
  78:src/GenericLuminanceSource.c **** 			for (int x = 0; x < width; ++x, src += pixelBytes)
 260              		.loc 1 78 40 discriminator 3
 261 01a3 8B4520   		movl	32(%ebp), %eax
 262 01a6 0145E4   		addl	%eax, -28(%ebp)
 263              	L14:
  78:src/GenericLuminanceSource.c **** 			for (int x = 0; x < width; ++x, src += pixelBytes)
 264              		.loc 1 78 4 discriminator 1
 265 01a9 8B45E0   		movl	-32(%ebp), %eax
 266 01ac 3B4510   		cmpl	16(%ebp), %eax
 267 01af 7CAA     		jl	L15
 268              	LBE7:
 269              	LBE6:
  74:src/GenericLuminanceSource.c **** 		{
 270              		.loc 1 74 31 discriminator 2
 271 01b1 8345E801 		addl	$1, -24(%ebp)
  74:src/GenericLuminanceSource.c **** 		{
 272              		.loc 1 74 46 discriminator 2
 273 01b5 8B451C   		movl	28(%ebp), %eax
 274 01b8 0145F0   		addl	%eax, -16(%ebp)
  74:src/GenericLuminanceSource.c **** 		{
 275              		.loc 1 74 67 discriminator 2
 276 01bb 8B4510   		movl	16(%ebp), %eax
 277 01be 0145EC   		addl	%eax, -20(%ebp)
 278              	L13:
  74:src/GenericLuminanceSource.c **** 		{
 279              		.loc 1 74 3 discriminator 1
 280 01c1 8B45E8   		movl	-24(%ebp), %eax
 281 01c4 3B4514   		cmpl	20(%ebp), %eax
 282 01c7 0F8C74FF 		jl	L16
 282      FFFF
 283              	LBE5:
  81:src/GenericLuminanceSource.c **** 			}
  82:src/GenericLuminanceSource.c **** 		}
  83:src/GenericLuminanceSource.c **** 		ret = pixels;
 284              		.loc 1 83 7
 285 01cd C745F400 		movl	$_pixels, -12(%ebp)
 285      000000
 286              	L12:
 287              	LBE4:
GAS LISTING C:\Users\jisu8\AppData\Local\Temp\ccAW7caP.s 			page 8


  84:src/GenericLuminanceSource.c **** 	}
  85:src/GenericLuminanceSource.c **** 	return ret;
 288              		.loc 1 85 9
 289 01d4 8B45F4   		movl	-12(%ebp), %eax
  86:src/GenericLuminanceSource.c **** }
 290              		.loc 1 86 1
 291 01d7 83C440   		addl	$64, %esp
 292 01da 5B       		popl	%ebx
 293              		.cfi_restore 3
 294 01db 5E       		popl	%esi
 295              		.cfi_restore 6
 296 01dc 5D       		popl	%ebp
 297              	LCFI8:
 298              		.cfi_restore 5
 299              		.cfi_def_cfa 4, 4
 300 01dd C3       		ret
 301              		.cfi_endproc
 302              	LFE15:
 303              		.globl	_getMatrix
 305              	_getMatrix:
 306              	LFB16:
  87:src/GenericLuminanceSource.c **** 
  88:src/GenericLuminanceSource.c **** const uint8_t * getMatrix(GenericLuminanceSource_t * source, uint8_t * buffer, int * outRowBytes, u
  89:src/GenericLuminanceSource.c **** {
 307              		.loc 1 89 1
 308              		.cfi_startproc
 309 01de 55       		pushl	%ebp
 310              	LCFI9:
 311              		.cfi_def_cfa_offset 8
 312              		.cfi_offset 5, -8
 313 01df 89E5     		movl	%esp, %ebp
 314              	LCFI10:
 315              		.cfi_def_cfa_register 5
 316 01e1 53       		pushl	%ebx
 317 01e2 83EC44   		subl	$68, %esp
 318              		.cfi_offset 3, -12
 319 01e5 8B4514   		movl	20(%ebp), %eax
 320 01e8 8845D4   		movb	%al, -44(%ebp)
 321              		.loc 1 89 1
 322 01eb 89E0     		movl	%esp, %eax
 323 01ed 89C3     		movl	%eax, %ebx
  90:src/GenericLuminanceSource.c **** 
  91:src/GenericLuminanceSource.c **** 	uint8_t newBuf[source->width * source->height];
 324              		.loc 1 91 23
 325 01ef 8B4508   		movl	8(%ebp), %eax
 326 01f2 8B500C   		movl	12(%eax), %edx
 327              		.loc 1 91 39
 328 01f5 8B4508   		movl	8(%ebp), %eax
 329 01f8 8B4010   		movl	16(%eax), %eax
 330              		.loc 1 91 31
 331 01fb 0FAFC2   		imull	%edx, %eax
 332              		.loc 1 91 10
 333 01fe 8D50FF   		leal	-1(%eax), %edx
 334 0201 8955E8   		movl	%edx, -24(%ebp)
 335 0204 89C2     		movl	%eax, %edx
 336 0206 B8100000 		movl	$16, %eax
 336      00
GAS LISTING C:\Users\jisu8\AppData\Local\Temp\ccAW7caP.s 			page 9


 337 020b 83E801   		subl	$1, %eax
 338 020e 01D0     		addl	%edx, %eax
 339 0210 B9100000 		movl	$16, %ecx
 339      00
 340 0215 BA000000 		movl	$0, %edx
 340      00
 341 021a F7F1     		divl	%ecx
 342 021c 6BC010   		imull	$16, %eax, %eax
 343 021f E8000000 		call	___chkstk_ms
 343      00
 344 0224 29C4     		subl	%eax, %esp
 345 0226 8D44240C 		leal	12(%esp), %eax
 346 022a 83C000   		addl	$0, %eax
 347 022d 8945E4   		movl	%eax, -28(%ebp)
  92:src/GenericLuminanceSource.c **** 	const uint8_t* row = source->pixels + source->top*source->rowBytes + source->left;
 348              		.loc 1 92 29
 349 0230 8B4508   		movl	8(%ebp), %eax
 350 0233 8B10     		movl	(%eax), %edx
 351              		.loc 1 92 46
 352 0235 8B4508   		movl	8(%ebp), %eax
 353 0238 8B4808   		movl	8(%eax), %ecx
 354              		.loc 1 92 58
 355 023b 8B4508   		movl	8(%ebp), %eax
 356 023e 8B4014   		movl	20(%eax), %eax
 357              		.loc 1 92 51
 358 0241 0FAFC1   		imull	%ecx, %eax
 359 0244 89C1     		movl	%eax, %ecx
 360              		.loc 1 92 77
 361 0246 8B4508   		movl	8(%ebp), %eax
 362 0249 8B4004   		movl	4(%eax), %eax
 363              		.loc 1 92 69
 364 024c 01C8     		addl	%ecx, %eax
 365              		.loc 1 92 17
 366 024e 01D0     		addl	%edx, %eax
 367 0250 8945EC   		movl	%eax, -20(%ebp)
  93:src/GenericLuminanceSource.c **** 	if (!forceCopy) 
 368              		.loc 1 93 5
 369 0253 807DD400 		cmpb	$0, -44(%ebp)
 370 0257 7510     		jne	L19
  94:src/GenericLuminanceSource.c **** 	{
  95:src/GenericLuminanceSource.c **** 		*outRowBytes = source->rowBytes;
 371              		.loc 1 95 24
 372 0259 8B4508   		movl	8(%ebp), %eax
 373 025c 8B5014   		movl	20(%eax), %edx
 374              		.loc 1 95 16
 375 025f 8B4510   		movl	16(%ebp), %eax
 376 0262 8910     		movl	%edx, (%eax)
  96:src/GenericLuminanceSource.c **** 		return row;
 377              		.loc 1 96 10
 378 0264 8B45EC   		movl	-20(%ebp), %eax
 379 0267 EB5C     		jmp	L20
 380              	L19:
  97:src/GenericLuminanceSource.c **** 	}
  98:src/GenericLuminanceSource.c **** 
  99:src/GenericLuminanceSource.c **** 	*outRowBytes = source->width;
 381              		.loc 1 99 23
 382 0269 8B4508   		movl	8(%ebp), %eax
GAS LISTING C:\Users\jisu8\AppData\Local\Temp\ccAW7caP.s 			page 10


 383 026c 8B500C   		movl	12(%eax), %edx
 384              		.loc 1 99 15
 385 026f 8B4510   		movl	16(%ebp), %eax
 386 0272 8910     		movl	%edx, (%eax)
 100:src/GenericLuminanceSource.c **** 	uint8_t* dest = buffer;
 387              		.loc 1 100 11
 388 0274 8B450C   		movl	12(%ebp), %eax
 389 0277 8945F0   		movl	%eax, -16(%ebp)
 390              	LBB8:
 101:src/GenericLuminanceSource.c **** 	for (int y = 0; y < source->height; ++y, row += source->rowBytes, dest += source->width) 
 391              		.loc 1 101 11
 392 027a C745F400 		movl	$0, -12(%ebp)
 392      000000
 393              		.loc 1 101 2
 394 0281 EB34     		jmp	L21
 395              	L22:
 102:src/GenericLuminanceSource.c **** 	{
 103:src/GenericLuminanceSource.c **** 		copy_n(row, source->width, dest);
 396              		.loc 1 103 21 discriminator 3
 397 0283 8B4508   		movl	8(%ebp), %eax
 398 0286 8B400C   		movl	12(%eax), %eax
 399              		.loc 1 103 3 discriminator 3
 400 0289 89C2     		movl	%eax, %edx
 401 028b 8B45F0   		movl	-16(%ebp), %eax
 402 028e 89442408 		movl	%eax, 8(%esp)
 403 0292 89542404 		movl	%edx, 4(%esp)
 404 0296 8B45EC   		movl	-20(%ebp), %eax
 405 0299 890424   		movl	%eax, (%esp)
 406 029c E82B0000 		call	_copy_n
 406      00
 101:src/GenericLuminanceSource.c **** 	for (int y = 0; y < source->height; ++y, row += source->rowBytes, dest += source->width) 
 407              		.loc 1 101 38 discriminator 3
 408 02a1 8345F401 		addl	$1, -12(%ebp)
 101:src/GenericLuminanceSource.c **** 	for (int y = 0; y < source->height; ++y, row += source->rowBytes, dest += source->width) 
 409              		.loc 1 101 56 discriminator 3
 410 02a5 8B4508   		movl	8(%ebp), %eax
 411 02a8 8B4014   		movl	20(%eax), %eax
 101:src/GenericLuminanceSource.c **** 	for (int y = 0; y < source->height; ++y, row += source->rowBytes, dest += source->width) 
 412              		.loc 1 101 47 discriminator 3
 413 02ab 0145EC   		addl	%eax, -20(%ebp)
 101:src/GenericLuminanceSource.c **** 	for (int y = 0; y < source->height; ++y, row += source->rowBytes, dest += source->width) 
 414              		.loc 1 101 82 discriminator 3
 415 02ae 8B4508   		movl	8(%ebp), %eax
 416 02b1 8B400C   		movl	12(%eax), %eax
 101:src/GenericLuminanceSource.c **** 	for (int y = 0; y < source->height; ++y, row += source->rowBytes, dest += source->width) 
 417              		.loc 1 101 73 discriminator 3
 418 02b4 0145F0   		addl	%eax, -16(%ebp)
 419              	L21:
 101:src/GenericLuminanceSource.c **** 	for (int y = 0; y < source->height; ++y, row += source->rowBytes, dest += source->width) 
 420              		.loc 1 101 28 discriminator 1
 421 02b7 8B4508   		movl	8(%ebp), %eax
 422 02ba 8B4010   		movl	16(%eax), %eax
 101:src/GenericLuminanceSource.c **** 	for (int y = 0; y < source->height; ++y, row += source->rowBytes, dest += source->width) 
 423              		.loc 1 101 2 discriminator 1
 424 02bd 3945F4   		cmpl	%eax, -12(%ebp)
 425 02c0 7CC1     		jl	L22
 426              	LBE8:
GAS LISTING C:\Users\jisu8\AppData\Local\Temp\ccAW7caP.s 			page 11


 104:src/GenericLuminanceSource.c **** 	}
 105:src/GenericLuminanceSource.c **** 	return dest;
 427              		.loc 1 105 9
 428 02c2 8B45F0   		movl	-16(%ebp), %eax
 429              	L20:
 430 02c5 89DC     		movl	%ebx, %esp
 106:src/GenericLuminanceSource.c **** }
 431              		.loc 1 106 1
 432 02c7 8B5DFC   		movl	-4(%ebp), %ebx
 433 02ca C9       		leave
 434              	LCFI11:
 435              		.cfi_restore 5
 436              		.cfi_restore 3
 437              		.cfi_def_cfa 4, 4
 438 02cb C3       		ret
 439              		.cfi_endproc
 440              	LFE16:
 442              	_copy_n:
 443              	LFB17:
 107:src/GenericLuminanceSource.c **** 
 108:src/GenericLuminanceSource.c **** static inline copy_n(uint8_t * _First, unsigned int _Count_raw, uint8_t* _Dest) 
 109:src/GenericLuminanceSource.c **** {
 444              		.loc 1 109 1
 445              		.cfi_startproc
 446 02cc 55       		pushl	%ebp
 447              	LCFI12:
 448              		.cfi_def_cfa_offset 8
 449              		.cfi_offset 5, -8
 450 02cd 89E5     		movl	%esp, %ebp
 451              	LCFI13:
 452              		.cfi_def_cfa_register 5
 110:src/GenericLuminanceSource.c ****     if (0 < _Count_raw) 
 453              		.loc 1 110 8
 454 02cf 837D0C00 		cmpl	$0, 12(%ebp)
 455 02d3 7420     		je	L25
 456              	L27:
 111:src/GenericLuminanceSource.c **** 	{
 112:src/GenericLuminanceSource.c ****         for (;;) 
 113:src/GenericLuminanceSource.c **** 		{
 114:src/GenericLuminanceSource.c ****             *_Dest = *_First;
 457              		.loc 1 114 22
 458 02d5 8B4508   		movl	8(%ebp), %eax
 459 02d8 0FB610   		movzbl	(%eax), %edx
 460              		.loc 1 114 20
 461 02db 8B4510   		movl	16(%ebp), %eax
 462 02de 8810     		movb	%dl, (%eax)
 115:src/GenericLuminanceSource.c ****             ++_Dest;
 463              		.loc 1 115 13
 464 02e0 83451001 		addl	$1, 16(%ebp)
 116:src/GenericLuminanceSource.c ****             --_Count_raw;
 465              		.loc 1 116 13
 466 02e4 836D0C01 		subl	$1, 12(%ebp)
 117:src/GenericLuminanceSource.c ****             if (_Count_raw == 0) 
 467              		.loc 1 117 16
 468 02e8 837D0C00 		cmpl	$0, 12(%ebp)
 469 02ec 7406     		je	L29
 118:src/GenericLuminanceSource.c **** 			{ // note that we avoid an extra ++_First here to allow istream_iterator to work,
GAS LISTING C:\Users\jisu8\AppData\Local\Temp\ccAW7caP.s 			page 12


 119:src/GenericLuminanceSource.c ****                                // see LWG-2471
 120:src/GenericLuminanceSource.c ****                 break;
 121:src/GenericLuminanceSource.c ****             }
 122:src/GenericLuminanceSource.c **** 
 123:src/GenericLuminanceSource.c ****             ++_First;
 470              		.loc 1 123 13
 471 02ee 83450801 		addl	$1, 8(%ebp)
 114:src/GenericLuminanceSource.c ****             ++_Dest;
 472              		.loc 1 114 20
 473 02f2 EBE1     		jmp	L27
 474              	L29:
 120:src/GenericLuminanceSource.c ****             }
 475              		.loc 1 120 17
 476 02f4 90       		nop
 477              	L25:
 124:src/GenericLuminanceSource.c ****         }
 125:src/GenericLuminanceSource.c ****     }
 126:src/GenericLuminanceSource.c **** 
 127:src/GenericLuminanceSource.c ****     return _Dest;
 478              		.loc 1 127 12
 479 02f5 8B4510   		movl	16(%ebp), %eax
 128:src/GenericLuminanceSource.c **** }...
 480              		.loc 1 128 1
 481 02f8 5D       		popl	%ebp
 482              	LCFI14:
 483              		.cfi_restore 5
 484              		.cfi_def_cfa 4, 4
 485 02f9 C3       		ret
 486              		.cfi_endproc
 487              	LFE17:
 488              	Letext0:
 489              		.file 2 "D:/3.tools/mingw/mingw32/i686-w64-mingw32/include/stdio.h"
 490              		.file 3 "D:/3.tools/mingw/mingw32/i686-w64-mingw32/include/stdint.h"
 491              		.file 4 "src/GenericLuminanceSource.h"
 492 02fa 9090     		.section	.debug_info,"dr"
 493              	Ldebug_info0:
 494 0000 D1060000 		.long	0x6d1
 495 0004 0200     		.word	0x2
 496 0006 00000000 		.secrel32	Ldebug_abbrev0
 497 000a 04       		.byte	0x4
 498 000b 01       		.uleb128 0x1
 499 000c 474E5520 		.ascii "GNU C17 8.1.0 -mtune=generic -march=i686 -g -gdwarf-2 -O0\0"
 499      43313720 
 499      382E312E 
 499      30202D6D 
 499      74756E65 
 500 0046 0C       		.byte	0xc
 501 0047 7372632F 		.ascii "src/GenericLuminanceSource.c\0"
 501      47656E65 
 501      7269634C 
 501      756D696E 
 501      616E6365 
 502 0064 443A5C31 		.ascii "D:\\1.Project_workspace\\PDF_BARCODE\0"
 502      2E50726F 
 502      6A656374 
 502      5F776F72 
 502      6B737061 
GAS LISTING C:\Users\jisu8\AppData\Local\Temp\ccAW7caP.s 			page 13


 503 0087 00000000 		.long	Ltext0
 504 008b FA020000 		.long	Letext0
 505 008f 00000000 		.secrel32	Ldebug_line0
 506 0093 02       		.uleb128 0x2
 507 0094 01       		.byte	0x1
 508 0095 06       		.byte	0x6
 509 0096 63686172 		.ascii "char\0"
 509      00
 510 009b 02       		.uleb128 0x2
 511 009c 04       		.byte	0x4
 512 009d 07       		.byte	0x7
 513 009e 756E7369 		.ascii "unsigned int\0"
 513      676E6564 
 513      20696E74 
 513      00
 514 00ab 02       		.uleb128 0x2
 515 00ac 04       		.byte	0x4
 516 00ad 05       		.byte	0x5
 517 00ae 696E7400 		.ascii "int\0"
 518 00b2 02       		.uleb128 0x2
 519 00b3 02       		.byte	0x2
 520 00b4 07       		.byte	0x7
 521 00b5 73686F72 		.ascii "short unsigned int\0"
 521      7420756E 
 521      7369676E 
 521      65642069 
 521      6E7400
 522 00c8 02       		.uleb128 0x2
 523 00c9 04       		.byte	0x4
 524 00ca 05       		.byte	0x5
 525 00cb 6C6F6E67 		.ascii "long int\0"
 525      20696E74 
 525      00
 526 00d4 02       		.uleb128 0x2
 527 00d5 08       		.byte	0x8
 528 00d6 05       		.byte	0x5
 529 00d7 6C6F6E67 		.ascii "long long int\0"
 529      206C6F6E 
 529      6720696E 
 529      7400
 530 00e5 03       		.uleb128 0x3
 531 00e6 04       		.byte	0x4
 532 00e7 93000000 		.long	0x93
 533 00eb 03       		.uleb128 0x3
 534 00ec 04       		.byte	0x4
 535 00ed AB000000 		.long	0xab
 536 00f1 02       		.uleb128 0x2
 537 00f2 04       		.byte	0x4
 538 00f3 07       		.byte	0x7
 539 00f4 6C6F6E67 		.ascii "long unsigned int\0"
 539      20756E73 
 539      69676E65 
 539      6420696E 
 539      7400
 540 0106 02       		.uleb128 0x2
 541 0107 01       		.byte	0x1
 542 0108 08       		.byte	0x8
GAS LISTING C:\Users\jisu8\AppData\Local\Temp\ccAW7caP.s 			page 14


 543 0109 756E7369 		.ascii "unsigned char\0"
 543      676E6564 
 543      20636861 
 543      7200
 544 0117 02       		.uleb128 0x2
 545 0118 0C       		.byte	0xc
 546 0119 04       		.byte	0x4
 547 011a 6C6F6E67 		.ascii "long double\0"
 547      20646F75 
 547      626C6500 
 548 0126 02       		.uleb128 0x2
 549 0127 10       		.byte	0x10
 550 0128 04       		.byte	0x4
 551 0129 5F466C6F 		.ascii "_Float128\0"
 551      61743132 
 551      3800
 552 0133 02       		.uleb128 0x2
 553 0134 01       		.byte	0x1
 554 0135 06       		.byte	0x6
 555 0136 7369676E 		.ascii "signed char\0"
 555      65642063 
 555      68617200 
 556 0142 04       		.uleb128 0x4
 557 0143 75696E74 		.ascii "uint8_t\0"
 557      385F7400 
 558 014b 03       		.byte	0x3
 559 014c 24       		.byte	0x24
 560 014d 19       		.byte	0x19
 561 014e 06010000 		.long	0x106
 562 0152 05       		.uleb128 0x5
 563 0153 42010000 		.long	0x142
 564 0157 02       		.uleb128 0x2
 565 0158 02       		.byte	0x2
 566 0159 05       		.byte	0x5
 567 015a 73686F72 		.ascii "short int\0"
 567      7420696E 
 567      7400
 568 0164 02       		.uleb128 0x2
 569 0165 08       		.byte	0x8
 570 0166 07       		.byte	0x7
 571 0167 6C6F6E67 		.ascii "long long unsigned int\0"
 571      206C6F6E 
 571      6720756E 
 571      7369676E 
 571      65642069 
 572 017e 06       		.uleb128 0x6
 573 017f 5F696F62 		.ascii "_iobuf\0"
 573      756600
 574 0186 20       		.byte	0x20
 575 0187 02       		.byte	0x2
 576 0188 1A       		.byte	0x1a
 577 0189 0A       		.byte	0xa
 578 018a 1E020000 		.long	0x21e
 579 018e 07       		.uleb128 0x7
 580 018f 5F707472 		.ascii "_ptr\0"
 580      00
 581 0194 02       		.byte	0x2
GAS LISTING C:\Users\jisu8\AppData\Local\Temp\ccAW7caP.s 			page 15


 582 0195 1B       		.byte	0x1b
 583 0196 0B       		.byte	0xb
 584 0197 E5000000 		.long	0xe5
 585 019b 02       		.byte	0x2
 586 019c 23       		.byte	0x23
 587 019d 00       		.uleb128 0
 588 019e 07       		.uleb128 0x7
 589 019f 5F636E74 		.ascii "_cnt\0"
 589      00
 590 01a4 02       		.byte	0x2
 591 01a5 1C       		.byte	0x1c
 592 01a6 09       		.byte	0x9
 593 01a7 AB000000 		.long	0xab
 594 01ab 02       		.byte	0x2
 595 01ac 23       		.byte	0x23
 596 01ad 04       		.uleb128 0x4
 597 01ae 07       		.uleb128 0x7
 598 01af 5F626173 		.ascii "_base\0"
 598      6500
 599 01b5 02       		.byte	0x2
 600 01b6 1D       		.byte	0x1d
 601 01b7 0B       		.byte	0xb
 602 01b8 E5000000 		.long	0xe5
 603 01bc 02       		.byte	0x2
 604 01bd 23       		.byte	0x23
 605 01be 08       		.uleb128 0x8
 606 01bf 07       		.uleb128 0x7
 607 01c0 5F666C61 		.ascii "_flag\0"
 607      6700
 608 01c6 02       		.byte	0x2
 609 01c7 1E       		.byte	0x1e
 610 01c8 09       		.byte	0x9
 611 01c9 AB000000 		.long	0xab
 612 01cd 02       		.byte	0x2
 613 01ce 23       		.byte	0x23
 614 01cf 0C       		.uleb128 0xc
 615 01d0 07       		.uleb128 0x7
 616 01d1 5F66696C 		.ascii "_file\0"
 616      6500
 617 01d7 02       		.byte	0x2
 618 01d8 1F       		.byte	0x1f
 619 01d9 09       		.byte	0x9
 620 01da AB000000 		.long	0xab
 621 01de 02       		.byte	0x2
 622 01df 23       		.byte	0x23
 623 01e0 10       		.uleb128 0x10
 624 01e1 07       		.uleb128 0x7
 625 01e2 5F636861 		.ascii "_charbuf\0"
 625      72627566 
 625      00
 626 01eb 02       		.byte	0x2
 627 01ec 20       		.byte	0x20
 628 01ed 09       		.byte	0x9
 629 01ee AB000000 		.long	0xab
 630 01f2 02       		.byte	0x2
 631 01f3 23       		.byte	0x23
 632 01f4 14       		.uleb128 0x14
GAS LISTING C:\Users\jisu8\AppData\Local\Temp\ccAW7caP.s 			page 16


 633 01f5 07       		.uleb128 0x7
 634 01f6 5F627566 		.ascii "_bufsiz\0"
 634      73697A00 
 635 01fe 02       		.byte	0x2
 636 01ff 21       		.byte	0x21
 637 0200 09       		.byte	0x9
 638 0201 AB000000 		.long	0xab
 639 0205 02       		.byte	0x2
 640 0206 23       		.byte	0x23
 641 0207 18       		.uleb128 0x18
 642 0208 07       		.uleb128 0x7
 643 0209 5F746D70 		.ascii "_tmpfname\0"
 643      666E616D 
 643      6500
 644 0213 02       		.byte	0x2
 645 0214 22       		.byte	0x22
 646 0215 0B       		.byte	0xb
 647 0216 E5000000 		.long	0xe5
 648 021a 02       		.byte	0x2
 649 021b 23       		.byte	0x23
 650 021c 1C       		.uleb128 0x1c
 651 021d 00       		.byte	0
 652 021e 04       		.uleb128 0x4
 653 021f 46494C45 		.ascii "FILE\0"
 653      00
 654 0224 02       		.byte	0x2
 655 0225 24       		.byte	0x24
 656 0226 19       		.byte	0x19
 657 0227 7E010000 		.long	0x17e
 658 022b 08       		.uleb128 0x8
 659 022c 1E020000 		.long	0x21e
 660 0230 36020000 		.long	0x236
 661 0234 09       		.uleb128 0x9
 662 0235 00       		.byte	0
 663 0236 0A       		.uleb128 0xa
 664 0237 5F696D70 		.ascii "_imp___iob\0"
 664      5F5F5F69 
 664      6F6200
 665 0242 02       		.byte	0x2
 666 0243 5C       		.byte	0x5c
 667 0244 10       		.byte	0x10
 668 0245 4B020000 		.long	0x24b
 669 0249 01       		.byte	0x1
 670 024a 01       		.byte	0x1
 671 024b 03       		.uleb128 0x3
 672 024c 04       		.byte	0x4
 673 024d 2B020000 		.long	0x22b
 674 0251 0B       		.uleb128 0xb
 675 0252 18       		.byte	0x18
 676 0253 04       		.byte	0x4
 677 0254 06       		.byte	0x6
 678 0255 09       		.byte	0x9
 679 0256 B8020000 		.long	0x2b8
 680 025a 0C       		.uleb128 0xc
 681 025b 10000000 		.secrel32	LASF0
 682 025f 04       		.byte	0x4
 683 0260 08       		.byte	0x8
GAS LISTING C:\Users\jisu8\AppData\Local\Temp\ccAW7caP.s 			page 17


 684 0261 15       		.byte	0x15
 685 0262 B8020000 		.long	0x2b8
 686 0266 02       		.byte	0x2
 687 0267 23       		.byte	0x23
 688 0268 00       		.uleb128 0
 689 0269 07       		.uleb128 0x7
 690 026a 6C656674 		.ascii "left\0"
 690      00
 691 026f 04       		.byte	0x4
 692 0270 09       		.byte	0x9
 693 0271 09       		.byte	0x9
 694 0272 AB000000 		.long	0xab
 695 0276 02       		.byte	0x2
 696 0277 23       		.byte	0x23
 697 0278 04       		.uleb128 0x4
 698 0279 07       		.uleb128 0x7
 699 027a 746F7000 		.ascii "top\0"
 700 027e 04       		.byte	0x4
 701 027f 0A       		.byte	0xa
 702 0280 09       		.byte	0x9
 703 0281 AB000000 		.long	0xab
 704 0285 02       		.byte	0x2
 705 0286 23       		.byte	0x23
 706 0287 08       		.uleb128 0x8
 707 0288 07       		.uleb128 0x7
 708 0289 77696474 		.ascii "width\0"
 708      6800
 709 028f 04       		.byte	0x4
 710 0290 0B       		.byte	0xb
 711 0291 09       		.byte	0x9
 712 0292 AB000000 		.long	0xab
 713 0296 02       		.byte	0x2
 714 0297 23       		.byte	0x23
 715 0298 0C       		.uleb128 0xc
 716 0299 0C       		.uleb128 0xc
 717 029a 09000000 		.secrel32	LASF1
 718 029e 04       		.byte	0x4
 719 029f 0C       		.byte	0xc
 720 02a0 09       		.byte	0x9
 721 02a1 AB000000 		.long	0xab
 722 02a5 02       		.byte	0x2
 723 02a6 23       		.byte	0x23
 724 02a7 10       		.uleb128 0x10
 725 02a8 0C       		.uleb128 0xc
 726 02a9 00000000 		.secrel32	LASF2
 727 02ad 04       		.byte	0x4
 728 02ae 0D       		.byte	0xd
 729 02af 09       		.byte	0x9
 730 02b0 AB000000 		.long	0xab
 731 02b4 02       		.byte	0x2
 732 02b5 23       		.byte	0x23
 733 02b6 14       		.uleb128 0x14
 734 02b7 00       		.byte	0
 735 02b8 03       		.uleb128 0x3
 736 02b9 04       		.byte	0x4
 737 02ba 06010000 		.long	0x106
 738 02be 04       		.uleb128 0x4
GAS LISTING C:\Users\jisu8\AppData\Local\Temp\ccAW7caP.s 			page 18


 739 02bf 47656E65 		.ascii "GenericLuminanceSource_t\0"
 739      7269634C 
 739      756D696E 
 739      616E6365 
 739      536F7572 
 740 02d8 04       		.byte	0x4
 741 02d9 0E       		.byte	0xe
 742 02da 02       		.byte	0x2
 743 02db 51020000 		.long	0x251
 744 02df 08       		.uleb128 0x8
 745 02e0 42010000 		.long	0x142
 746 02e4 F2020000 		.long	0x2f2
 747 02e8 0D       		.uleb128 0xd
 748 02e9 9B000000 		.long	0x9b
 749 02ed FFC10100 		.long	0x1c1ff
 750 02f1 00       		.byte	0
 751 02f2 0E       		.uleb128 0xe
 752 02f3 10000000 		.secrel32	LASF0
 753 02f7 01       		.byte	0x1
 754 02f8 13       		.byte	0x13
 755 02f9 09       		.byte	0x9
 756 02fa DF020000 		.long	0x2df
 757 02fe 01       		.byte	0x1
 758 02ff 05       		.byte	0x5
 759 0300 03       		.byte	0x3
 760 0301 00000000 		.long	_pixels
 761 0305 0F       		.uleb128 0xf
 762 0306 636F7079 		.ascii "copy_n\0"
 762      5F6E00
 763 030d 01       		.byte	0x1
 764 030e 6C       		.byte	0x6c
 765 030f 0F       		.byte	0xf
 766 0310 01       		.byte	0x1
 767 0311 AB000000 		.long	0xab
 768 0315 CC020000 		.long	LFB17
 769 0319 FA020000 		.long	LFE17
 770 031d 00000000 		.secrel32	LLST4
 771 0321 01       		.byte	0x1
 772 0322 60030000 		.long	0x360
 773 0326 10       		.uleb128 0x10
 774 0327 5F466972 		.ascii "_First\0"
 774      737400
 775 032e 01       		.byte	0x1
 776 032f 6C       		.byte	0x6c
 777 0330 20       		.byte	0x20
 778 0331 60030000 		.long	0x360
 779 0335 02       		.byte	0x2
 780 0336 91       		.byte	0x91
 781 0337 00       		.sleb128 0
 782 0338 10       		.uleb128 0x10
 783 0339 5F436F75 		.ascii "_Count_raw\0"
 783      6E745F72 
 783      617700
 784 0344 01       		.byte	0x1
 785 0345 6C       		.byte	0x6c
 786 0346 35       		.byte	0x35
 787 0347 9B000000 		.long	0x9b
GAS LISTING C:\Users\jisu8\AppData\Local\Temp\ccAW7caP.s 			page 19


 788 034b 02       		.byte	0x2
 789 034c 91       		.byte	0x91
 790 034d 04       		.sleb128 4
 791 034e 10       		.uleb128 0x10
 792 034f 5F446573 		.ascii "_Dest\0"
 792      7400
 793 0355 01       		.byte	0x1
 794 0356 6C       		.byte	0x6c
 795 0357 4A       		.byte	0x4a
 796 0358 60030000 		.long	0x360
 797 035c 02       		.byte	0x2
 798 035d 91       		.byte	0x91
 799 035e 08       		.sleb128 8
 800 035f 00       		.byte	0
 801 0360 03       		.uleb128 0x3
 802 0361 04       		.byte	0x4
 803 0362 42010000 		.long	0x142
 804 0366 11       		.uleb128 0x11
 805 0367 01       		.byte	0x1
 806 0368 6765744D 		.ascii "getMatrix\0"
 806      61747269 
 806      7800
 807 0372 01       		.byte	0x1
 808 0373 58       		.byte	0x58
 809 0374 11       		.byte	0x11
 810 0375 01       		.byte	0x1
 811 0376 25040000 		.long	0x425
 812 037a DE010000 		.long	LFB16
 813 037e CC020000 		.long	LFE16
 814 0382 38000000 		.secrel32	LLST3
 815 0386 01       		.byte	0x1
 816 0387 25040000 		.long	0x425
 817 038b 10       		.uleb128 0x10
 818 038c 736F7572 		.ascii "source\0"
 818      636500
 819 0393 01       		.byte	0x1
 820 0394 58       		.byte	0x58
 821 0395 36       		.byte	0x36
 822 0396 2B040000 		.long	0x42b
 823 039a 02       		.byte	0x2
 824 039b 91       		.byte	0x91
 825 039c 00       		.sleb128 0
 826 039d 10       		.uleb128 0x10
 827 039e 62756666 		.ascii "buffer\0"
 827      657200
 828 03a5 01       		.byte	0x1
 829 03a6 58       		.byte	0x58
 830 03a7 48       		.byte	0x48
 831 03a8 60030000 		.long	0x360
 832 03ac 02       		.byte	0x2
 833 03ad 91       		.byte	0x91
 834 03ae 04       		.sleb128 4
 835 03af 10       		.uleb128 0x10
 836 03b0 6F757452 		.ascii "outRowBytes\0"
 836      6F774279 
 836      74657300 
 837 03bc 01       		.byte	0x1
GAS LISTING C:\Users\jisu8\AppData\Local\Temp\ccAW7caP.s 			page 20


 838 03bd 58       		.byte	0x58
 839 03be 56       		.byte	0x56
 840 03bf EB000000 		.long	0xeb
 841 03c3 02       		.byte	0x2
 842 03c4 91       		.byte	0x91
 843 03c5 08       		.sleb128 8
 844 03c6 10       		.uleb128 0x10
 845 03c7 666F7263 		.ascii "forceCopy\0"
 845      65436F70 
 845      7900
 846 03d1 01       		.byte	0x1
 847 03d2 58       		.byte	0x58
 848 03d3 6B       		.byte	0x6b
 849 03d4 42010000 		.long	0x142
 850 03d8 02       		.byte	0x2
 851 03d9 91       		.byte	0x91
 852 03da 4C       		.sleb128 -52
 853 03db 12       		.uleb128 0x12
 854 03dc 6E657742 		.ascii "newBuf\0"
 854      756600
 855 03e3 01       		.byte	0x1
 856 03e4 5B       		.byte	0x5b
 857 03e5 0A       		.byte	0xa
 858 03e6 31040000 		.long	0x431
 859 03ea 03       		.byte	0x3
 860 03eb 91       		.byte	0x91
 861 03ec 5C       		.sleb128 -36
 862 03ed 06       		.byte	0x6
 863 03ee 12       		.uleb128 0x12
 864 03ef 726F7700 		.ascii "row\0"
 865 03f3 01       		.byte	0x1
 866 03f4 5C       		.byte	0x5c
 867 03f5 11       		.byte	0x11
 868 03f6 25040000 		.long	0x425
 869 03fa 02       		.byte	0x2
 870 03fb 91       		.byte	0x91
 871 03fc 64       		.sleb128 -28
 872 03fd 12       		.uleb128 0x12
 873 03fe 64657374 		.ascii "dest\0"
 873      00
 874 0403 01       		.byte	0x1
 875 0404 64       		.byte	0x64
 876 0405 0B       		.byte	0xb
 877 0406 60030000 		.long	0x360
 878 040a 02       		.byte	0x2
 879 040b 91       		.byte	0x91
 880 040c 68       		.sleb128 -24
 881 040d 13       		.uleb128 0x13
 882 040e 7A020000 		.long	LBB8
 883 0412 C2020000 		.long	LBE8
 884 0416 12       		.uleb128 0x12
 885 0417 7900     		.ascii "y\0"
 886 0419 01       		.byte	0x1
 887 041a 65       		.byte	0x65
 888 041b 0B       		.byte	0xb
 889 041c AB000000 		.long	0xab
 890 0420 02       		.byte	0x2
GAS LISTING C:\Users\jisu8\AppData\Local\Temp\ccAW7caP.s 			page 21


 891 0421 91       		.byte	0x91
 892 0422 6C       		.sleb128 -20
 893 0423 00       		.byte	0
 894 0424 00       		.byte	0
 895 0425 03       		.uleb128 0x3
 896 0426 04       		.byte	0x4
 897 0427 52010000 		.long	0x152
 898 042b 03       		.uleb128 0x3
 899 042c 04       		.byte	0x4
 900 042d BE020000 		.long	0x2be
 901 0431 08       		.uleb128 0x8
 902 0432 42010000 		.long	0x142
 903 0436 44040000 		.long	0x444
 904 043a 14       		.uleb128 0x14
 905 043b 9B000000 		.long	0x9b
 906 043f 03       		.byte	0x3
 907 0440 91       		.byte	0x91
 908 0441 60       		.sleb128 -32
 909 0442 06       		.byte	0x6
 910 0443 00       		.byte	0
 911 0444 11       		.uleb128 0x11
 912 0445 01       		.byte	0x1
 913 0446 47656E65 		.ascii "GenericLuminanceSource\0"
 913      7269634C 
 913      756D696E 
 913      616E6365 
 913      536F7572 
 914 045d 01       		.byte	0x1
 915 045e 3A       		.byte	0x3a
 916 045f 11       		.byte	0x11
 917 0460 01       		.byte	0x1
 918 0461 B8020000 		.long	0x2b8
 919 0465 AE000000 		.long	LFB15
 920 0469 DE010000 		.long	LFE15
 921 046d 70000000 		.secrel32	LLST2
 922 0471 01       		.byte	0x1
 923 0472 B3050000 		.long	0x5b3
 924 0476 10       		.uleb128 0x10
 925 0477 6C656674 		.ascii "left\0"
 925      00
 926 047c 01       		.byte	0x1
 927 047d 3A       		.byte	0x3a
 928 047e 2C       		.byte	0x2c
 929 047f AB000000 		.long	0xab
 930 0483 02       		.byte	0x2
 931 0484 91       		.byte	0x91
 932 0485 00       		.sleb128 0
 933 0486 10       		.uleb128 0x10
 934 0487 746F7000 		.ascii "top\0"
 935 048b 01       		.byte	0x1
 936 048c 3A       		.byte	0x3a
 937 048d 36       		.byte	0x36
 938 048e AB000000 		.long	0xab
 939 0492 02       		.byte	0x2
 940 0493 91       		.byte	0x91
 941 0494 04       		.sleb128 4
 942 0495 10       		.uleb128 0x10
GAS LISTING C:\Users\jisu8\AppData\Local\Temp\ccAW7caP.s 			page 22


 943 0496 77696474 		.ascii "width\0"
 943      6800
 944 049c 01       		.byte	0x1
 945 049d 3A       		.byte	0x3a
 946 049e 3F       		.byte	0x3f
 947 049f AB000000 		.long	0xab
 948 04a3 02       		.byte	0x2
 949 04a4 91       		.byte	0x91
 950 04a5 08       		.sleb128 8
 951 04a6 15       		.uleb128 0x15
 952 04a7 09000000 		.secrel32	LASF1
 953 04ab 01       		.byte	0x1
 954 04ac 3A       		.byte	0x3a
 955 04ad 4A       		.byte	0x4a
 956 04ae AB000000 		.long	0xab
 957 04b2 02       		.byte	0x2
 958 04b3 91       		.byte	0x91
 959 04b4 0C       		.sleb128 12
 960 04b5 10       		.uleb128 0x10
 961 04b6 62797465 		.ascii "bytes\0"
 961      7300
 962 04bc 01       		.byte	0x1
 963 04bd 3A       		.byte	0x3a
 964 04be 62       		.byte	0x62
 965 04bf B8020000 		.long	0x2b8
 966 04c3 02       		.byte	0x2
 967 04c4 91       		.byte	0x91
 968 04c5 10       		.sleb128 16
 969 04c6 15       		.uleb128 0x15
 970 04c7 00000000 		.secrel32	LASF2
 971 04cb 01       		.byte	0x1
 972 04cc 3A       		.byte	0x3a
 973 04cd 6D       		.byte	0x6d
 974 04ce AB000000 		.long	0xab
 975 04d2 02       		.byte	0x2
 976 04d3 91       		.byte	0x91
 977 04d4 14       		.sleb128 20
 978 04d5 10       		.uleb128 0x10
 979 04d6 70697865 		.ascii "pixelBytes\0"
 979      6C427974 
 979      657300
 980 04e1 01       		.byte	0x1
 981 04e2 3A       		.byte	0x3a
 982 04e3 7B       		.byte	0x7b
 983 04e4 AB000000 		.long	0xab
 984 04e8 02       		.byte	0x2
 985 04e9 91       		.byte	0x91
 986 04ea 18       		.sleb128 24
 987 04eb 10       		.uleb128 0x10
 988 04ec 72656449 		.ascii "redIndex\0"
 988      6E646578 
 988      00
 989 04f5 01       		.byte	0x1
 990 04f6 3A       		.byte	0x3a
 991 04f7 8B       		.byte	0x8b
 992 04f8 AB000000 		.long	0xab
 993 04fc 02       		.byte	0x2
GAS LISTING C:\Users\jisu8\AppData\Local\Temp\ccAW7caP.s 			page 23


 994 04fd 91       		.byte	0x91
 995 04fe 1C       		.sleb128 28
 996 04ff 10       		.uleb128 0x10
 997 0500 67726565 		.ascii "greenIndex\0"
 997      6E496E64 
 997      657800
 998 050b 01       		.byte	0x1
 999 050c 3A       		.byte	0x3a
 1000 050d 99       		.byte	0x99
 1001 050e AB000000 		.long	0xab
 1002 0512 02       		.byte	0x2
 1003 0513 91       		.byte	0x91
 1004 0514 20       		.sleb128 32
 1005 0515 10       		.uleb128 0x10
 1006 0516 626C7565 		.ascii "blueIndex\0"
 1006      496E6465 
 1006      7800
 1007 0520 01       		.byte	0x1
 1008 0521 3A       		.byte	0x3a
 1009 0522 A9       		.byte	0xa9
 1010 0523 AB000000 		.long	0xab
 1011 0527 02       		.byte	0x2
 1012 0528 91       		.byte	0x91
 1013 0529 24       		.sleb128 36
 1014 052a 12       		.uleb128 0x12
 1015 052b 72657400 		.ascii "ret\0"
 1016 052f 01       		.byte	0x1
 1017 0530 3C       		.byte	0x3c
 1018 0531 11       		.byte	0x11
 1019 0532 B8020000 		.long	0x2b8
 1020 0536 02       		.byte	0x2
 1021 0537 91       		.byte	0x91
 1022 0538 6C       		.sleb128 -20
 1023 0539 13       		.uleb128 0x13
 1024 053a 1D010000 		.long	LBB4
 1025 053e D4010000 		.long	LBE4
 1026 0542 12       		.uleb128 0x12
 1027 0543 72676253 		.ascii "rgbSource\0"
 1027      6F757263 
 1027      6500
 1028 054d 01       		.byte	0x1
 1029 054e 48       		.byte	0x48
 1030 054f 12       		.byte	0x12
 1031 0550 25040000 		.long	0x425
 1032 0554 02       		.byte	0x2
 1033 0555 91       		.byte	0x91
 1034 0556 68       		.sleb128 -24
 1035 0557 12       		.uleb128 0x12
 1036 0558 64657374 		.ascii "destRow\0"
 1036      526F7700 
 1037 0560 01       		.byte	0x1
 1038 0561 49       		.byte	0x49
 1039 0562 0C       		.byte	0xc
 1040 0563 60030000 		.long	0x360
 1041 0567 02       		.byte	0x2
 1042 0568 91       		.byte	0x91
 1043 0569 64       		.sleb128 -28
GAS LISTING C:\Users\jisu8\AppData\Local\Temp\ccAW7caP.s 			page 24


 1044 056a 13       		.uleb128 0x13
 1045 056b 35010000 		.long	LBB5
 1046 056f CD010000 		.long	LBE5
 1047 0573 12       		.uleb128 0x12
 1048 0574 7900     		.ascii "y\0"
 1049 0576 01       		.byte	0x1
 1050 0577 4A       		.byte	0x4a
 1051 0578 0C       		.byte	0xc
 1052 0579 AB000000 		.long	0xab
 1053 057d 02       		.byte	0x2
 1054 057e 91       		.byte	0x91
 1055 057f 60       		.sleb128 -32
 1056 0580 13       		.uleb128 0x13
 1057 0581 41010000 		.long	LBB6
 1058 0585 B1010000 		.long	LBE6
 1059 0589 12       		.uleb128 0x12
 1060 058a 73726300 		.ascii "src\0"
 1061 058e 01       		.byte	0x1
 1062 058f 4D       		.byte	0x4d
 1063 0590 13       		.byte	0x13
 1064 0591 25040000 		.long	0x425
 1065 0595 02       		.byte	0x2
 1066 0596 91       		.byte	0x91
 1067 0597 5C       		.sleb128 -36
 1068 0598 13       		.uleb128 0x13
 1069 0599 52010000 		.long	LBB7
 1070 059d B1010000 		.long	LBE7
 1071 05a1 12       		.uleb128 0x12
 1072 05a2 7800     		.ascii "x\0"
 1073 05a4 01       		.byte	0x1
 1074 05a5 4E       		.byte	0x4e
 1075 05a6 0D       		.byte	0xd
 1076 05a7 AB000000 		.long	0xab
 1077 05ab 02       		.byte	0x2
 1078 05ac 91       		.byte	0x91
 1079 05ad 58       		.sleb128 -40
 1080 05ae 00       		.byte	0
 1081 05af 00       		.byte	0
 1082 05b0 00       		.byte	0
 1083 05b1 00       		.byte	0
 1084 05b2 00       		.byte	0
 1085 05b3 16       		.uleb128 0x16
 1086 05b4 4D616B65 		.ascii "MakeCopy\0"
 1086      436F7079 
 1086      00
 1087 05bd 01       		.byte	0x1
 1088 05be 26       		.byte	0x26
 1089 05bf 18       		.byte	0x18
 1090 05c0 01       		.byte	0x1
 1091 05c1 B8020000 		.long	0x2b8
 1092 05c5 29000000 		.long	LFB14
 1093 05c9 AE000000 		.long	LFE14
 1094 05cd A8000000 		.secrel32	LLST1
 1095 05d1 01       		.byte	0x1
 1096 05d2 8C060000 		.long	0x68c
 1097 05d6 15       		.uleb128 0x15
 1098 05d7 10000000 		.secrel32	LASF0
GAS LISTING C:\Users\jisu8\AppData\Local\Temp\ccAW7caP.s 			page 25


 1099 05db 01       		.byte	0x1
 1100 05dc 26       		.byte	0x26
 1101 05dd 31       		.byte	0x31
 1102 05de B8020000 		.long	0x2b8
 1103 05e2 02       		.byte	0x2
 1104 05e3 91       		.byte	0x91
 1105 05e4 00       		.sleb128 0
 1106 05e5 15       		.uleb128 0x15
 1107 05e6 00000000 		.secrel32	LASF2
 1108 05ea 01       		.byte	0x1
 1109 05eb 26       		.byte	0x26
 1110 05ec 3D       		.byte	0x3d
 1111 05ed AB000000 		.long	0xab
 1112 05f1 02       		.byte	0x2
 1113 05f2 91       		.byte	0x91
 1114 05f3 04       		.sleb128 4
 1115 05f4 10       		.uleb128 0x10
 1116 05f5 6C656674 		.ascii "left\0"
 1116      00
 1117 05fa 01       		.byte	0x1
 1118 05fb 26       		.byte	0x26
 1119 05fc 4B       		.byte	0x4b
 1120 05fd AB000000 		.long	0xab
 1121 0601 02       		.byte	0x2
 1122 0602 91       		.byte	0x91
 1123 0603 08       		.sleb128 8
 1124 0604 10       		.uleb128 0x10
 1125 0605 746F7000 		.ascii "top\0"
 1126 0609 01       		.byte	0x1
 1127 060a 26       		.byte	0x26
 1128 060b 55       		.byte	0x55
 1129 060c AB000000 		.long	0xab
 1130 0610 02       		.byte	0x2
 1131 0611 91       		.byte	0x91
 1132 0612 0C       		.sleb128 12
 1133 0613 10       		.uleb128 0x10
 1134 0614 77696474 		.ascii "width\0"
 1134      6800
 1135 061a 01       		.byte	0x1
 1136 061b 26       		.byte	0x26
 1137 061c 5E       		.byte	0x5e
 1138 061d AB000000 		.long	0xab
 1139 0621 02       		.byte	0x2
 1140 0622 91       		.byte	0x91
 1141 0623 10       		.sleb128 16
 1142 0624 15       		.uleb128 0x15
 1143 0625 09000000 		.secrel32	LASF1
 1144 0629 01       		.byte	0x1
 1145 062a 26       		.byte	0x26
 1146 062b 69       		.byte	0x69
 1147 062c AB000000 		.long	0xab
 1148 0630 02       		.byte	0x2
 1149 0631 91       		.byte	0x91
 1150 0632 14       		.sleb128 20
 1151 0633 12       		.uleb128 0x12
 1152 0634 72657375 		.ascii "result\0"
 1152      6C7400
GAS LISTING C:\Users\jisu8\AppData\Local\Temp\ccAW7caP.s 			page 26


 1153 063b 01       		.byte	0x1
 1154 063c 28       		.byte	0x28
 1155 063d 12       		.byte	0x12
 1156 063e B8020000 		.long	0x2b8
 1157 0642 02       		.byte	0x2
 1158 0643 91       		.byte	0x91
 1159 0644 60       		.sleb128 -32
 1160 0645 13       		.uleb128 0x13
 1161 0646 4C000000 		.long	LBB2
 1162 064a AC000000 		.long	LBE2
 1163 064e 12       		.uleb128 0x12
 1164 064f 73726352 		.ascii "srcRow\0"
 1164      6F7700
 1165 0656 01       		.byte	0x1
 1166 0657 30       		.byte	0x30
 1167 0658 12       		.byte	0x12
 1168 0659 25040000 		.long	0x425
 1169 065d 02       		.byte	0x2
 1170 065e 91       		.byte	0x91
 1171 065f 6C       		.sleb128 -20
 1172 0660 12       		.uleb128 0x12
 1173 0661 64657374 		.ascii "destRow\0"
 1173      526F7700 
 1174 0669 01       		.byte	0x1
 1175 066a 31       		.byte	0x31
 1176 066b 0C       		.byte	0xc
 1177 066c 60030000 		.long	0x360
 1178 0670 02       		.byte	0x2
 1179 0671 91       		.byte	0x91
 1180 0672 68       		.sleb128 -24
 1181 0673 13       		.uleb128 0x13
 1182 0674 6F000000 		.long	LBB3
 1183 0678 A9000000 		.long	LBE3
 1184 067c 12       		.uleb128 0x12
 1185 067d 7900     		.ascii "y\0"
 1186 067f 01       		.byte	0x1
 1187 0680 32       		.byte	0x32
 1188 0681 0C       		.byte	0xc
 1189 0682 AB000000 		.long	0xab
 1190 0686 02       		.byte	0x2
 1191 0687 91       		.byte	0x91
 1192 0688 64       		.sleb128 -28
 1193 0689 00       		.byte	0
 1194 068a 00       		.byte	0
 1195 068b 00       		.byte	0
 1196 068c 17       		.uleb128 0x17
 1197 068d 52474254 		.ascii "RGBToGray\0"
 1197      6F477261 
 1197      7900
 1198 0697 01       		.byte	0x1
 1199 0698 17       		.byte	0x17
 1200 0699 10       		.byte	0x10
 1201 069a 01       		.byte	0x1
 1202 069b 42010000 		.long	0x142
 1203 069f 00000000 		.long	LFB13
 1204 06a3 29000000 		.long	LFE13
 1205 06a7 E0000000 		.secrel32	LLST0
GAS LISTING C:\Users\jisu8\AppData\Local\Temp\ccAW7caP.s 			page 27


 1206 06ab 01       		.byte	0x1
 1207 06ac 10       		.uleb128 0x10
 1208 06ad 7200     		.ascii "r\0"
 1209 06af 01       		.byte	0x1
 1210 06b0 17       		.byte	0x17
 1211 06b1 27       		.byte	0x27
 1212 06b2 9B000000 		.long	0x9b
 1213 06b6 02       		.byte	0x2
 1214 06b7 91       		.byte	0x91
 1215 06b8 00       		.sleb128 0
 1216 06b9 10       		.uleb128 0x10
 1217 06ba 6700     		.ascii "g\0"
 1218 06bc 01       		.byte	0x1
 1219 06bd 17       		.byte	0x17
 1220 06be 37       		.byte	0x37
 1221 06bf 9B000000 		.long	0x9b
 1222 06c3 02       		.byte	0x2
 1223 06c4 91       		.byte	0x91
 1224 06c5 04       		.sleb128 4
 1225 06c6 10       		.uleb128 0x10
 1226 06c7 6200     		.ascii "b\0"
 1227 06c9 01       		.byte	0x1
 1228 06ca 17       		.byte	0x17
 1229 06cb 47       		.byte	0x47
 1230 06cc 9B000000 		.long	0x9b
 1231 06d0 02       		.byte	0x2
 1232 06d1 91       		.byte	0x91
 1233 06d2 08       		.sleb128 8
 1234 06d3 00       		.byte	0
 1235 06d4 00       		.byte	0
 1236              		.section	.debug_abbrev,"dr"
 1237              	Ldebug_abbrev0:
 1238 0000 01       		.uleb128 0x1
 1239 0001 11       		.uleb128 0x11
 1240 0002 01       		.byte	0x1
 1241 0003 25       		.uleb128 0x25
 1242 0004 08       		.uleb128 0x8
 1243 0005 13       		.uleb128 0x13
 1244 0006 0B       		.uleb128 0xb
 1245 0007 03       		.uleb128 0x3
 1246 0008 08       		.uleb128 0x8
 1247 0009 1B       		.uleb128 0x1b
 1248 000a 08       		.uleb128 0x8
 1249 000b 11       		.uleb128 0x11
 1250 000c 01       		.uleb128 0x1
 1251 000d 12       		.uleb128 0x12
 1252 000e 01       		.uleb128 0x1
 1253 000f 10       		.uleb128 0x10
 1254 0010 06       		.uleb128 0x6
 1255 0011 00       		.byte	0
 1256 0012 00       		.byte	0
 1257 0013 02       		.uleb128 0x2
 1258 0014 24       		.uleb128 0x24
 1259 0015 00       		.byte	0
 1260 0016 0B       		.uleb128 0xb
 1261 0017 0B       		.uleb128 0xb
 1262 0018 3E       		.uleb128 0x3e
GAS LISTING C:\Users\jisu8\AppData\Local\Temp\ccAW7caP.s 			page 28


 1263 0019 0B       		.uleb128 0xb
 1264 001a 03       		.uleb128 0x3
 1265 001b 08       		.uleb128 0x8
 1266 001c 00       		.byte	0
 1267 001d 00       		.byte	0
 1268 001e 03       		.uleb128 0x3
 1269 001f 0F       		.uleb128 0xf
 1270 0020 00       		.byte	0
 1271 0021 0B       		.uleb128 0xb
 1272 0022 0B       		.uleb128 0xb
 1273 0023 49       		.uleb128 0x49
 1274 0024 13       		.uleb128 0x13
 1275 0025 00       		.byte	0
 1276 0026 00       		.byte	0
 1277 0027 04       		.uleb128 0x4
 1278 0028 16       		.uleb128 0x16
 1279 0029 00       		.byte	0
 1280 002a 03       		.uleb128 0x3
 1281 002b 08       		.uleb128 0x8
 1282 002c 3A       		.uleb128 0x3a
 1283 002d 0B       		.uleb128 0xb
 1284 002e 3B       		.uleb128 0x3b
 1285 002f 0B       		.uleb128 0xb
 1286 0030 39       		.uleb128 0x39
 1287 0031 0B       		.uleb128 0xb
 1288 0032 49       		.uleb128 0x49
 1289 0033 13       		.uleb128 0x13
 1290 0034 00       		.byte	0
 1291 0035 00       		.byte	0
 1292 0036 05       		.uleb128 0x5
 1293 0037 26       		.uleb128 0x26
 1294 0038 00       		.byte	0
 1295 0039 49       		.uleb128 0x49
 1296 003a 13       		.uleb128 0x13
 1297 003b 00       		.byte	0
 1298 003c 00       		.byte	0
 1299 003d 06       		.uleb128 0x6
 1300 003e 13       		.uleb128 0x13
 1301 003f 01       		.byte	0x1
 1302 0040 03       		.uleb128 0x3
 1303 0041 08       		.uleb128 0x8
 1304 0042 0B       		.uleb128 0xb
 1305 0043 0B       		.uleb128 0xb
 1306 0044 3A       		.uleb128 0x3a
 1307 0045 0B       		.uleb128 0xb
 1308 0046 3B       		.uleb128 0x3b
 1309 0047 0B       		.uleb128 0xb
 1310 0048 39       		.uleb128 0x39
 1311 0049 0B       		.uleb128 0xb
 1312 004a 01       		.uleb128 0x1
 1313 004b 13       		.uleb128 0x13
 1314 004c 00       		.byte	0
 1315 004d 00       		.byte	0
 1316 004e 07       		.uleb128 0x7
 1317 004f 0D       		.uleb128 0xd
 1318 0050 00       		.byte	0
 1319 0051 03       		.uleb128 0x3
GAS LISTING C:\Users\jisu8\AppData\Local\Temp\ccAW7caP.s 			page 29


 1320 0052 08       		.uleb128 0x8
 1321 0053 3A       		.uleb128 0x3a
 1322 0054 0B       		.uleb128 0xb
 1323 0055 3B       		.uleb128 0x3b
 1324 0056 0B       		.uleb128 0xb
 1325 0057 39       		.uleb128 0x39
 1326 0058 0B       		.uleb128 0xb
 1327 0059 49       		.uleb128 0x49
 1328 005a 13       		.uleb128 0x13
 1329 005b 38       		.uleb128 0x38
 1330 005c 0A       		.uleb128 0xa
 1331 005d 00       		.byte	0
 1332 005e 00       		.byte	0
 1333 005f 08       		.uleb128 0x8
 1334 0060 01       		.uleb128 0x1
 1335 0061 01       		.byte	0x1
 1336 0062 49       		.uleb128 0x49
 1337 0063 13       		.uleb128 0x13
 1338 0064 01       		.uleb128 0x1
 1339 0065 13       		.uleb128 0x13
 1340 0066 00       		.byte	0
 1341 0067 00       		.byte	0
 1342 0068 09       		.uleb128 0x9
 1343 0069 21       		.uleb128 0x21
 1344 006a 00       		.byte	0
 1345 006b 00       		.byte	0
 1346 006c 00       		.byte	0
 1347 006d 0A       		.uleb128 0xa
 1348 006e 34       		.uleb128 0x34
 1349 006f 00       		.byte	0
 1350 0070 03       		.uleb128 0x3
 1351 0071 08       		.uleb128 0x8
 1352 0072 3A       		.uleb128 0x3a
 1353 0073 0B       		.uleb128 0xb
 1354 0074 3B       		.uleb128 0x3b
 1355 0075 0B       		.uleb128 0xb
 1356 0076 39       		.uleb128 0x39
 1357 0077 0B       		.uleb128 0xb
 1358 0078 49       		.uleb128 0x49
 1359 0079 13       		.uleb128 0x13
 1360 007a 3F       		.uleb128 0x3f
 1361 007b 0C       		.uleb128 0xc
 1362 007c 3C       		.uleb128 0x3c
 1363 007d 0C       		.uleb128 0xc
 1364 007e 00       		.byte	0
 1365 007f 00       		.byte	0
 1366 0080 0B       		.uleb128 0xb
 1367 0081 13       		.uleb128 0x13
 1368 0082 01       		.byte	0x1
 1369 0083 0B       		.uleb128 0xb
 1370 0084 0B       		.uleb128 0xb
 1371 0085 3A       		.uleb128 0x3a
 1372 0086 0B       		.uleb128 0xb
 1373 0087 3B       		.uleb128 0x3b
 1374 0088 0B       		.uleb128 0xb
 1375 0089 39       		.uleb128 0x39
 1376 008a 0B       		.uleb128 0xb
GAS LISTING C:\Users\jisu8\AppData\Local\Temp\ccAW7caP.s 			page 30


 1377 008b 01       		.uleb128 0x1
 1378 008c 13       		.uleb128 0x13
 1379 008d 00       		.byte	0
 1380 008e 00       		.byte	0
 1381 008f 0C       		.uleb128 0xc
 1382 0090 0D       		.uleb128 0xd
 1383 0091 00       		.byte	0
 1384 0092 03       		.uleb128 0x3
 1385 0093 0E       		.uleb128 0xe
 1386 0094 3A       		.uleb128 0x3a
 1387 0095 0B       		.uleb128 0xb
 1388 0096 3B       		.uleb128 0x3b
 1389 0097 0B       		.uleb128 0xb
 1390 0098 39       		.uleb128 0x39
 1391 0099 0B       		.uleb128 0xb
 1392 009a 49       		.uleb128 0x49
 1393 009b 13       		.uleb128 0x13
 1394 009c 38       		.uleb128 0x38
 1395 009d 0A       		.uleb128 0xa
 1396 009e 00       		.byte	0
 1397 009f 00       		.byte	0
 1398 00a0 0D       		.uleb128 0xd
 1399 00a1 21       		.uleb128 0x21
 1400 00a2 00       		.byte	0
 1401 00a3 49       		.uleb128 0x49
 1402 00a4 13       		.uleb128 0x13
 1403 00a5 2F       		.uleb128 0x2f
 1404 00a6 06       		.uleb128 0x6
 1405 00a7 00       		.byte	0
 1406 00a8 00       		.byte	0
 1407 00a9 0E       		.uleb128 0xe
 1408 00aa 34       		.uleb128 0x34
 1409 00ab 00       		.byte	0
 1410 00ac 03       		.uleb128 0x3
 1411 00ad 0E       		.uleb128 0xe
 1412 00ae 3A       		.uleb128 0x3a
 1413 00af 0B       		.uleb128 0xb
 1414 00b0 3B       		.uleb128 0x3b
 1415 00b1 0B       		.uleb128 0xb
 1416 00b2 39       		.uleb128 0x39
 1417 00b3 0B       		.uleb128 0xb
 1418 00b4 49       		.uleb128 0x49
 1419 00b5 13       		.uleb128 0x13
 1420 00b6 3F       		.uleb128 0x3f
 1421 00b7 0C       		.uleb128 0xc
 1422 00b8 02       		.uleb128 0x2
 1423 00b9 0A       		.uleb128 0xa
 1424 00ba 00       		.byte	0
 1425 00bb 00       		.byte	0
 1426 00bc 0F       		.uleb128 0xf
 1427 00bd 2E       		.uleb128 0x2e
 1428 00be 01       		.byte	0x1
 1429 00bf 03       		.uleb128 0x3
 1430 00c0 08       		.uleb128 0x8
 1431 00c1 3A       		.uleb128 0x3a
 1432 00c2 0B       		.uleb128 0xb
 1433 00c3 3B       		.uleb128 0x3b
GAS LISTING C:\Users\jisu8\AppData\Local\Temp\ccAW7caP.s 			page 31


 1434 00c4 0B       		.uleb128 0xb
 1435 00c5 39       		.uleb128 0x39
 1436 00c6 0B       		.uleb128 0xb
 1437 00c7 27       		.uleb128 0x27
 1438 00c8 0C       		.uleb128 0xc
 1439 00c9 49       		.uleb128 0x49
 1440 00ca 13       		.uleb128 0x13
 1441 00cb 11       		.uleb128 0x11
 1442 00cc 01       		.uleb128 0x1
 1443 00cd 12       		.uleb128 0x12
 1444 00ce 01       		.uleb128 0x1
 1445 00cf 40       		.uleb128 0x40
 1446 00d0 06       		.uleb128 0x6
 1447 00d1 9742     		.uleb128 0x2117
 1448 00d3 0C       		.uleb128 0xc
 1449 00d4 01       		.uleb128 0x1
 1450 00d5 13       		.uleb128 0x13
 1451 00d6 00       		.byte	0
 1452 00d7 00       		.byte	0
 1453 00d8 10       		.uleb128 0x10
 1454 00d9 05       		.uleb128 0x5
 1455 00da 00       		.byte	0
 1456 00db 03       		.uleb128 0x3
 1457 00dc 08       		.uleb128 0x8
 1458 00dd 3A       		.uleb128 0x3a
 1459 00de 0B       		.uleb128 0xb
 1460 00df 3B       		.uleb128 0x3b
 1461 00e0 0B       		.uleb128 0xb
 1462 00e1 39       		.uleb128 0x39
 1463 00e2 0B       		.uleb128 0xb
 1464 00e3 49       		.uleb128 0x49
 1465 00e4 13       		.uleb128 0x13
 1466 00e5 02       		.uleb128 0x2
 1467 00e6 0A       		.uleb128 0xa
 1468 00e7 00       		.byte	0
 1469 00e8 00       		.byte	0
 1470 00e9 11       		.uleb128 0x11
 1471 00ea 2E       		.uleb128 0x2e
 1472 00eb 01       		.byte	0x1
 1473 00ec 3F       		.uleb128 0x3f
 1474 00ed 0C       		.uleb128 0xc
 1475 00ee 03       		.uleb128 0x3
 1476 00ef 08       		.uleb128 0x8
 1477 00f0 3A       		.uleb128 0x3a
 1478 00f1 0B       		.uleb128 0xb
 1479 00f2 3B       		.uleb128 0x3b
 1480 00f3 0B       		.uleb128 0xb
 1481 00f4 39       		.uleb128 0x39
 1482 00f5 0B       		.uleb128 0xb
 1483 00f6 27       		.uleb128 0x27
 1484 00f7 0C       		.uleb128 0xc
 1485 00f8 49       		.uleb128 0x49
 1486 00f9 13       		.uleb128 0x13
 1487 00fa 11       		.uleb128 0x11
 1488 00fb 01       		.uleb128 0x1
 1489 00fc 12       		.uleb128 0x12
 1490 00fd 01       		.uleb128 0x1
GAS LISTING C:\Users\jisu8\AppData\Local\Temp\ccAW7caP.s 			page 32


 1491 00fe 40       		.uleb128 0x40
 1492 00ff 06       		.uleb128 0x6
 1493 0100 9642     		.uleb128 0x2116
 1494 0102 0C       		.uleb128 0xc
 1495 0103 01       		.uleb128 0x1
 1496 0104 13       		.uleb128 0x13
 1497 0105 00       		.byte	0
 1498 0106 00       		.byte	0
 1499 0107 12       		.uleb128 0x12
 1500 0108 34       		.uleb128 0x34
 1501 0109 00       		.byte	0
 1502 010a 03       		.uleb128 0x3
 1503 010b 08       		.uleb128 0x8
 1504 010c 3A       		.uleb128 0x3a
 1505 010d 0B       		.uleb128 0xb
 1506 010e 3B       		.uleb128 0x3b
 1507 010f 0B       		.uleb128 0xb
 1508 0110 39       		.uleb128 0x39
 1509 0111 0B       		.uleb128 0xb
 1510 0112 49       		.uleb128 0x49
 1511 0113 13       		.uleb128 0x13
 1512 0114 02       		.uleb128 0x2
 1513 0115 0A       		.uleb128 0xa
 1514 0116 00       		.byte	0
 1515 0117 00       		.byte	0
 1516 0118 13       		.uleb128 0x13
 1517 0119 0B       		.uleb128 0xb
 1518 011a 01       		.byte	0x1
 1519 011b 11       		.uleb128 0x11
 1520 011c 01       		.uleb128 0x1
 1521 011d 12       		.uleb128 0x12
 1522 011e 01       		.uleb128 0x1
 1523 011f 00       		.byte	0
 1524 0120 00       		.byte	0
 1525 0121 14       		.uleb128 0x14
 1526 0122 21       		.uleb128 0x21
 1527 0123 00       		.byte	0
 1528 0124 49       		.uleb128 0x49
 1529 0125 13       		.uleb128 0x13
 1530 0126 2F       		.uleb128 0x2f
 1531 0127 0A       		.uleb128 0xa
 1532 0128 00       		.byte	0
 1533 0129 00       		.byte	0
 1534 012a 15       		.uleb128 0x15
 1535 012b 05       		.uleb128 0x5
 1536 012c 00       		.byte	0
 1537 012d 03       		.uleb128 0x3
 1538 012e 0E       		.uleb128 0xe
 1539 012f 3A       		.uleb128 0x3a
 1540 0130 0B       		.uleb128 0xb
 1541 0131 3B       		.uleb128 0x3b
 1542 0132 0B       		.uleb128 0xb
 1543 0133 39       		.uleb128 0x39
 1544 0134 0B       		.uleb128 0xb
 1545 0135 49       		.uleb128 0x49
 1546 0136 13       		.uleb128 0x13
 1547 0137 02       		.uleb128 0x2
GAS LISTING C:\Users\jisu8\AppData\Local\Temp\ccAW7caP.s 			page 33


 1548 0138 0A       		.uleb128 0xa
 1549 0139 00       		.byte	0
 1550 013a 00       		.byte	0
 1551 013b 16       		.uleb128 0x16
 1552 013c 2E       		.uleb128 0x2e
 1553 013d 01       		.byte	0x1
 1554 013e 03       		.uleb128 0x3
 1555 013f 08       		.uleb128 0x8
 1556 0140 3A       		.uleb128 0x3a
 1557 0141 0B       		.uleb128 0xb
 1558 0142 3B       		.uleb128 0x3b
 1559 0143 0B       		.uleb128 0xb
 1560 0144 39       		.uleb128 0x39
 1561 0145 0B       		.uleb128 0xb
 1562 0146 27       		.uleb128 0x27
 1563 0147 0C       		.uleb128 0xc
 1564 0148 49       		.uleb128 0x49
 1565 0149 13       		.uleb128 0x13
 1566 014a 11       		.uleb128 0x11
 1567 014b 01       		.uleb128 0x1
 1568 014c 12       		.uleb128 0x12
 1569 014d 01       		.uleb128 0x1
 1570 014e 40       		.uleb128 0x40
 1571 014f 06       		.uleb128 0x6
 1572 0150 9642     		.uleb128 0x2116
 1573 0152 0C       		.uleb128 0xc
 1574 0153 01       		.uleb128 0x1
 1575 0154 13       		.uleb128 0x13
 1576 0155 00       		.byte	0
 1577 0156 00       		.byte	0
 1578 0157 17       		.uleb128 0x17
 1579 0158 2E       		.uleb128 0x2e
 1580 0159 01       		.byte	0x1
 1581 015a 03       		.uleb128 0x3
 1582 015b 08       		.uleb128 0x8
 1583 015c 3A       		.uleb128 0x3a
 1584 015d 0B       		.uleb128 0xb
 1585 015e 3B       		.uleb128 0x3b
 1586 015f 0B       		.uleb128 0xb
 1587 0160 39       		.uleb128 0x39
 1588 0161 0B       		.uleb128 0xb
 1589 0162 27       		.uleb128 0x27
 1590 0163 0C       		.uleb128 0xc
 1591 0164 49       		.uleb128 0x49
 1592 0165 13       		.uleb128 0x13
 1593 0166 11       		.uleb128 0x11
 1594 0167 01       		.uleb128 0x1
 1595 0168 12       		.uleb128 0x12
 1596 0169 01       		.uleb128 0x1
 1597 016a 40       		.uleb128 0x40
 1598 016b 06       		.uleb128 0x6
 1599 016c 9742     		.uleb128 0x2117
 1600 016e 0C       		.uleb128 0xc
 1601 016f 00       		.byte	0
 1602 0170 00       		.byte	0
 1603 0171 00       		.byte	0
 1604              		.section	.debug_loc,"dr"
GAS LISTING C:\Users\jisu8\AppData\Local\Temp\ccAW7caP.s 			page 34


 1605              	Ldebug_loc0:
 1606              	LLST4:
 1607 0000 CC020000 		.long	LFB17-Ltext0
 1608 0004 CD020000 		.long	LCFI12-Ltext0
 1609 0008 0200     		.word	0x2
 1610 000a 74       		.byte	0x74
 1611 000b 04       		.sleb128 4
 1612 000c CD020000 		.long	LCFI12-Ltext0
 1613 0010 CF020000 		.long	LCFI13-Ltext0
 1614 0014 0200     		.word	0x2
 1615 0016 74       		.byte	0x74
 1616 0017 08       		.sleb128 8
 1617 0018 CF020000 		.long	LCFI13-Ltext0
 1618 001c F9020000 		.long	LCFI14-Ltext0
 1619 0020 0200     		.word	0x2
 1620 0022 75       		.byte	0x75
 1621 0023 08       		.sleb128 8
 1622 0024 F9020000 		.long	LCFI14-Ltext0
 1623 0028 FA020000 		.long	LFE17-Ltext0
 1624 002c 0200     		.word	0x2
 1625 002e 74       		.byte	0x74
 1626 002f 04       		.sleb128 4
 1627 0030 00000000 		.long	0
 1628 0034 00000000 		.long	0
 1629              	LLST3:
 1630 0038 DE010000 		.long	LFB16-Ltext0
 1631 003c DF010000 		.long	LCFI9-Ltext0
 1632 0040 0200     		.word	0x2
 1633 0042 74       		.byte	0x74
 1634 0043 04       		.sleb128 4
 1635 0044 DF010000 		.long	LCFI9-Ltext0
 1636 0048 E1010000 		.long	LCFI10-Ltext0
 1637 004c 0200     		.word	0x2
 1638 004e 74       		.byte	0x74
 1639 004f 08       		.sleb128 8
 1640 0050 E1010000 		.long	LCFI10-Ltext0
 1641 0054 CB020000 		.long	LCFI11-Ltext0
 1642 0058 0200     		.word	0x2
 1643 005a 75       		.byte	0x75
 1644 005b 08       		.sleb128 8
 1645 005c CB020000 		.long	LCFI11-Ltext0
 1646 0060 CC020000 		.long	LFE16-Ltext0
 1647 0064 0200     		.word	0x2
 1648 0066 74       		.byte	0x74
 1649 0067 04       		.sleb128 4
 1650 0068 00000000 		.long	0
 1651 006c 00000000 		.long	0
 1652              	LLST2:
 1653 0070 AE000000 		.long	LFB15-Ltext0
 1654 0074 AF000000 		.long	LCFI6-Ltext0
 1655 0078 0200     		.word	0x2
 1656 007a 74       		.byte	0x74
 1657 007b 04       		.sleb128 4
 1658 007c AF000000 		.long	LCFI6-Ltext0
 1659 0080 B1000000 		.long	LCFI7-Ltext0
 1660 0084 0200     		.word	0x2
 1661 0086 74       		.byte	0x74
GAS LISTING C:\Users\jisu8\AppData\Local\Temp\ccAW7caP.s 			page 35


 1662 0087 08       		.sleb128 8
 1663 0088 B1000000 		.long	LCFI7-Ltext0
 1664 008c DD010000 		.long	LCFI8-Ltext0
 1665 0090 0200     		.word	0x2
 1666 0092 75       		.byte	0x75
 1667 0093 08       		.sleb128 8
 1668 0094 DD010000 		.long	LCFI8-Ltext0
 1669 0098 DE010000 		.long	LFE15-Ltext0
 1670 009c 0200     		.word	0x2
 1671 009e 74       		.byte	0x74
 1672 009f 04       		.sleb128 4
 1673 00a0 00000000 		.long	0
 1674 00a4 00000000 		.long	0
 1675              	LLST1:
 1676 00a8 29000000 		.long	LFB14-Ltext0
 1677 00ac 2A000000 		.long	LCFI3-Ltext0
 1678 00b0 0200     		.word	0x2
 1679 00b2 74       		.byte	0x74
 1680 00b3 04       		.sleb128 4
 1681 00b4 2A000000 		.long	LCFI3-Ltext0
 1682 00b8 2C000000 		.long	LCFI4-Ltext0
 1683 00bc 0200     		.word	0x2
 1684 00be 74       		.byte	0x74
 1685 00bf 08       		.sleb128 8
 1686 00c0 2C000000 		.long	LCFI4-Ltext0
 1687 00c4 AD000000 		.long	LCFI5-Ltext0
 1688 00c8 0200     		.word	0x2
 1689 00ca 75       		.byte	0x75
 1690 00cb 08       		.sleb128 8
 1691 00cc AD000000 		.long	LCFI5-Ltext0
 1692 00d0 AE000000 		.long	LFE14-Ltext0
 1693 00d4 0200     		.word	0x2
 1694 00d6 74       		.byte	0x74
 1695 00d7 04       		.sleb128 4
 1696 00d8 00000000 		.long	0
 1697 00dc 00000000 		.long	0
 1698              	LLST0:
 1699 00e0 00000000 		.long	LFB13-Ltext0
 1700 00e4 01000000 		.long	LCFI0-Ltext0
 1701 00e8 0200     		.word	0x2
 1702 00ea 74       		.byte	0x74
 1703 00eb 04       		.sleb128 4
 1704 00ec 01000000 		.long	LCFI0-Ltext0
 1705 00f0 03000000 		.long	LCFI1-Ltext0
 1706 00f4 0200     		.word	0x2
 1707 00f6 74       		.byte	0x74
 1708 00f7 08       		.sleb128 8
 1709 00f8 03000000 		.long	LCFI1-Ltext0
 1710 00fc 28000000 		.long	LCFI2-Ltext0
 1711 0100 0200     		.word	0x2
 1712 0102 75       		.byte	0x75
 1713 0103 08       		.sleb128 8
 1714 0104 28000000 		.long	LCFI2-Ltext0
 1715 0108 29000000 		.long	LFE13-Ltext0
 1716 010c 0200     		.word	0x2
 1717 010e 74       		.byte	0x74
 1718 010f 04       		.sleb128 4
GAS LISTING C:\Users\jisu8\AppData\Local\Temp\ccAW7caP.s 			page 36


 1719 0110 00000000 		.long	0
 1720 0114 00000000 		.long	0
 1721              		.section	.debug_aranges,"dr"
 1722 0000 1C000000 		.long	0x1c
 1723 0004 0200     		.word	0x2
 1724 0006 00000000 		.secrel32	Ldebug_info0
 1725 000a 04       		.byte	0x4
 1726 000b 00       		.byte	0
 1727 000c 0000     		.word	0
 1728 000e 0000     		.word	0
 1729 0010 00000000 		.long	Ltext0
 1730 0014 FA020000 		.long	Letext0-Ltext0
 1731 0018 00000000 		.long	0
 1732 001c 00000000 		.long	0
 1733              		.section	.debug_line,"dr"
 1734              	Ldebug_line0:
 1735 0000 87020000 		.section	.debug_str,"dr"
 1735      02009800 
 1735      00000101 
 1735      FB0E0D00 
 1735      01010101 
 1736              	LASF2:
 1737 0000 726F7742 		.ascii "rowBytes\0"
 1737      79746573 
 1737      00
 1738              	LASF1:
 1739 0009 68656967 		.ascii "height\0"
 1739      687400
 1740              	LASF0:
 1741 0010 70697865 		.ascii "pixels\0"
 1741      6C7300
 1742              		.ident	"GCC: (i686-posix-dwarf-rev0, Built by MinGW-W64 project) 8.1.0"
GAS LISTING C:\Users\jisu8\AppData\Local\Temp\ccAW7caP.s 			page 37


DEFINED SYMBOLS
                            *ABS*:00000000 GenericLuminanceSource.c
                            *COM*:0001c200 _pixels
C:\Users\jisu8\AppData\Local\Temp\ccAW7caP.s:6      .text:00000000 _RGBToGray
C:\Users\jisu8\AppData\Local\Temp\ccAW7caP.s:44     .text:00000029 _MakeCopy
C:\Users\jisu8\AppData\Local\Temp\ccAW7caP.s:139    .text:000000ae _GenericLuminanceSource
C:\Users\jisu8\AppData\Local\Temp\ccAW7caP.s:305    .text:000001de _getMatrix
C:\Users\jisu8\AppData\Local\Temp\ccAW7caP.s:442    .text:000002cc _copy_n

UNDEFINED SYMBOLS
___chkstk_ms
_printf
