GAS LISTING C:\Users\jisu8\AppData\Local\Temp\ccLWfpjm.s 			page 1


   1              		.file	"HybridBinarizer.c"
   2              		.text
   3              	Ltext0:
   4              		.section .rdata,"dr"
   5              		.align 4
   6              	LC0:
   7 0000 43616C63 		.ascii "CalculateBlackPoints : subWidth=%d subHeight=%d width=%d height=%d strides=%d \12\0"
   7      756C6174 
   7      65426C61 
   7      636B506F 
   7      696E7473 
   8              	LC1:
   9 0050 583D2564 		.ascii "X=%d, Y=%d, AVG=%d\12\0"
   9      2C20593D 
   9      25642C20 
   9      4156473D 
   9      25640A00 
  10              		.text
  12              	_CalculateBlackPoints:
  13              	LVL0:
  14              	LFB24:
  15              		.file 1 "src/HybridBinarizer.c"
   1:src/HybridBinarizer.c **** 
   2:src/HybridBinarizer.c **** #include "HybridBinarizer.h"
   3:src/HybridBinarizer.c **** #include "BitMatrix.h"
   4:src/HybridBinarizer.c **** #include "Matrix.h"
   5:src/HybridBinarizer.c **** #include <stdlib.h>
   6:src/HybridBinarizer.c **** 
   7:src/HybridBinarizer.c **** Matrix_t blackPoints;
   8:src/HybridBinarizer.c **** BitMatrix_t matrix;
   9:src/HybridBinarizer.c **** 
  10:src/HybridBinarizer.c **** static const int BLOCK_SIZE = 8;
  11:src/HybridBinarizer.c **** static const int MINIMUM_DIMENSION = BLOCK_SIZE * 5;
  12:src/HybridBinarizer.c **** static const int MIN_DYNAMIC_RANGE = 24;
  13:src/HybridBinarizer.c **** 
  14:src/HybridBinarizer.c **** unsigned int blackpoints_data[1000][1000]; //사이즈 조정 필요
  15:src/HybridBinarizer.c **** uint8_t matrix_bits[115200];
  16:src/HybridBinarizer.c **** /**
  17:src/HybridBinarizer.c **** * Calculates the final BitMatrix once for all requests. This could be called once from the
  18:src/HybridBinarizer.c **** * constructor instead, but there are some advantages to doing it lazily, such as making
  19:src/HybridBinarizer.c **** * profiling easier, and not doing heavy lifting when callers don't expect it.
  20:src/HybridBinarizer.c **** */
  21:src/HybridBinarizer.c **** static int * CalculateBlackPoints(const uint8_t* luminances, int subWidth, int subHeight, int width
  22:src/HybridBinarizer.c **** {
  16              		.loc 1 22 1 view -0
  17              		.cfi_startproc
  18              		.loc 1 22 1 is_stmt 0 view LVU1
  19 0000 55       		pushl	%ebp
  20              	LCFI0:
  21              		.cfi_def_cfa_offset 8
  22              		.cfi_offset 5, -8
  23 0001 57       		pushl	%edi
  24              	LCFI1:
  25              		.cfi_def_cfa_offset 12
  26              		.cfi_offset 7, -12
  27 0002 56       		pushl	%esi
  28              	LCFI2:
GAS LISTING C:\Users\jisu8\AppData\Local\Temp\ccLWfpjm.s 			page 2


  29              		.cfi_def_cfa_offset 16
  30              		.cfi_offset 6, -16
  31 0003 53       		pushl	%ebx
  32              	LCFI3:
  33              		.cfi_def_cfa_offset 20
  34              		.cfi_offset 3, -20
  35 0004 83EC4C   		subl	$76, %esp
  36              	LCFI4:
  37              		.cfi_def_cfa_offset 96
  38 0007 89C5     		movl	%eax, %ebp
  39 0009 89D6     		movl	%edx, %esi
  40 000b 89542434 		movl	%edx, 52(%esp)
  41 000f 89CF     		movl	%ecx, %edi
  42 0011 894C243C 		movl	%ecx, 60(%esp)
  23:src/HybridBinarizer.c **** 	//#ifdef HK_DEBUG
  24:src/HybridBinarizer.c **** 	printf("CalculateBlackPoints : subWidth=%d subHeight=%d width=%d height=%d strides=%d \n",subHeigh
  43              		.loc 1 24 2 is_stmt 1 view LVU2
  44 0015 8B442468 		movl	104(%esp), %eax
  45              	LVL1:
  46              		.loc 1 24 2 is_stmt 0 view LVU3
  47 0019 89442414 		movl	%eax, 20(%esp)
  48 001d 8B442464 		movl	100(%esp), %eax
  49 0021 89442410 		movl	%eax, 16(%esp)
  50 0025 8B442460 		movl	96(%esp), %eax
  51 0029 8944240C 		movl	%eax, 12(%esp)
  52 002d 894C2408 		movl	%ecx, 8(%esp)
  53 0031 894C2404 		movl	%ecx, 4(%esp)
  54 0035 C7042400 		movl	$LC0, (%esp)
  54      000000
  55 003c E8000000 		call	_printf
  55      00
  56              	LVL2:
  25:src/HybridBinarizer.c **** 	//#endif
  26:src/HybridBinarizer.c **** 	
  27:src/HybridBinarizer.c **** 	blackPoints.width = subWidth;
  57              		.loc 1 27 2 is_stmt 1 view LVU4
  58              		.loc 1 27 20 is_stmt 0 view LVU5
  59 0041 89350000 		movl	%esi, _blackPoints
  59      0000
  28:src/HybridBinarizer.c **** 	blackPoints.height = subHeight;
  60              		.loc 1 28 2 is_stmt 1 view LVU6
  61              		.loc 1 28 21 is_stmt 0 view LVU7
  62 0047 893D0400 		movl	%edi, _blackPoints+4
  62      0000
  29:src/HybridBinarizer.c **** 
  30:src/HybridBinarizer.c **** 	for (int y = 0; y < subHeight; y++) 
  63              		.loc 1 30 2 is_stmt 1 view LVU8
  64              	LBB12:
  65              		.loc 1 30 7 view LVU9
  66              	LVL3:
  67              		.loc 1 30 11 is_stmt 0 view LVU10
  68 004d C7442430 		movl	$0, 48(%esp)
  68      00000000 
  69              		.loc 1 30 2 view LVU11
  70 0055 E9B00100 		jmp	L2
  70      00
  71              	LVL4:
GAS LISTING C:\Users\jisu8\AppData\Local\Temp\ccLWfpjm.s 			page 3


  72              	L5:
  73              	LBB13:
  74              	LBB14:
  75              	LBB15:
  76              	LBB16:
  77              	LBB17:
  78              	LBB18:
  31:src/HybridBinarizer.c **** 	{
  32:src/HybridBinarizer.c **** 		int yoffset = __min(y * BLOCK_SIZE, height - BLOCK_SIZE);
  33:src/HybridBinarizer.c **** 		for (int x = 0; x < subWidth; x++) 
  34:src/HybridBinarizer.c **** 		{
  35:src/HybridBinarizer.c **** 			int xoffset = __min(x * BLOCK_SIZE, width - BLOCK_SIZE);
  36:src/HybridBinarizer.c **** 			int sum = 0;
  37:src/HybridBinarizer.c **** 			uint8_t min = 0xFF;
  38:src/HybridBinarizer.c **** 			uint8_t max = 0;
  39:src/HybridBinarizer.c **** 			for (int yy = 0, offset = yoffset * stride + xoffset; yy < BLOCK_SIZE; yy++, offset += stride) 
  40:src/HybridBinarizer.c **** 			{
  41:src/HybridBinarizer.c **** 				for (int xx = 0; xx < BLOCK_SIZE; xx++) 
  42:src/HybridBinarizer.c **** 				{
  43:src/HybridBinarizer.c **** 					uint8_t pixel = luminances[offset + xx];
  79              		.loc 1 43 6 is_stmt 1 discriminator 3 view LVU12
  80              		.loc 1 43 40 is_stmt 0 discriminator 3 view LVU13
  81 005a 8B442424 		movl	36(%esp), %eax
  82 005e 01C8     		addl	%ecx, %eax
  83              		.loc 1 43 14 discriminator 3 view LVU14
  84 0060 0FB64405 		movzbl	0(%ebp,%eax), %eax
  84      00
  85              	LVL5:
  44:src/HybridBinarizer.c **** 					sum += pixel;
  86              		.loc 1 44 6 is_stmt 1 discriminator 3 view LVU15
  87              		.loc 1 44 10 is_stmt 0 discriminator 3 view LVU16
  88 0065 0FB6F0   		movzbl	%al, %esi
  89 0068 01F7     		addl	%esi, %edi
  90              	LVL6:
  45:src/HybridBinarizer.c **** 					min = min < pixel ? min : pixel;
  91              		.loc 1 45 6 is_stmt 1 discriminator 3 view LVU17
  92              		.loc 1 45 10 is_stmt 0 discriminator 3 view LVU18
  93 006a 38C2     		cmpb	%al, %dl
  94 006c 0F47D0   		cmova	%eax, %edx
  95              	LVL7:
  46:src/HybridBinarizer.c **** 					max = max > pixel ? max : pixel;
  96              		.loc 1 46 6 is_stmt 1 discriminator 3 view LVU19
  97              		.loc 1 46 10 is_stmt 0 discriminator 3 view LVU20
  98 006f 38C3     		cmpb	%al, %bl
  99 0071 0F42D8   		cmovb	%eax, %ebx
 100              	LVL8:
 101              		.loc 1 46 10 discriminator 3 view LVU21
 102              	LBE18:
  41:src/HybridBinarizer.c **** 				{
 103              		.loc 1 41 41 discriminator 3 view LVU22
 104 0074 83C101   		addl	$1, %ecx
 105              	LVL9:
 106              	L10:
  41:src/HybridBinarizer.c **** 				{
 107              		.loc 1 41 5 discriminator 1 view LVU23
 108 0077 83F907   		cmpl	$7, %ecx
 109 007a 7EDE     		jle	L5
GAS LISTING C:\Users\jisu8\AppData\Local\Temp\ccLWfpjm.s 			page 4


  41:src/HybridBinarizer.c **** 				{
 110              		.loc 1 41 5 discriminator 1 view LVU24
 111 007c 89F8     		movl	%edi, %eax
 112 007e 89D7     		movl	%edx, %edi
 113              	LVL10:
  41:src/HybridBinarizer.c **** 				{
 114              		.loc 1 41 5 discriminator 1 view LVU25
 115 0080 89DE     		movl	%ebx, %esi
 116 0082 8B5C2424 		movl	36(%esp), %ebx
 117              	LVL11:
  41:src/HybridBinarizer.c **** 				{
 118              		.loc 1 41 5 discriminator 1 view LVU26
 119              	LBE17:
  47:src/HybridBinarizer.c **** 				}
  48:src/HybridBinarizer.c **** 				// short-circuit min/max tests once dynamic range is met
  49:src/HybridBinarizer.c **** 				if (max - min > MIN_DYNAMIC_RANGE) 
 120              		.loc 1 49 5 is_stmt 1 view LVU27
 121              		.loc 1 49 13 is_stmt 0 view LVU28
 122 0086 89F2     		movl	%esi, %edx
 123              	LVL12:
 124              		.loc 1 49 13 view LVU29
 125 0088 0FB6D2   		movzbl	%dl, %edx
 126 008b 89F9     		movl	%edi, %ecx
 127              	LVL13:
 128              		.loc 1 49 13 view LVU30
 129 008d 0FB6C9   		movzbl	%cl, %ecx
 130 0090 29CA     		subl	%ecx, %edx
 131              		.loc 1 49 8 view LVU31
 132 0092 83FA18   		cmpl	$24, %edx
 133 0095 7F21     		jg	L18
 134              	LVL14:
 135              	L6:
  39:src/HybridBinarizer.c **** 			{
 136              		.loc 1 39 77 discriminator 2 view LVU32
 137 0097 83442428 		addl	$1, 40(%esp)
 137      01
 138              	LVL15:
  39:src/HybridBinarizer.c **** 			{
 139              		.loc 1 39 88 discriminator 2 view LVU33
 140 009c 035C2468 		addl	104(%esp), %ebx
 141              	LVL16:
 142              	L4:
  39:src/HybridBinarizer.c **** 			{
 143              		.loc 1 39 4 discriminator 1 view LVU34
 144 00a0 837C2428 		cmpl	$7, 40(%esp)
 144      07
 145 00a5 7F65     		jg	L19
 146              	LBB19:
  41:src/HybridBinarizer.c **** 				{
 147              		.loc 1 41 14 view LVU35
 148 00a7 B9000000 		movl	$0, %ecx
 148      00
 149 00ac 89FA     		movl	%edi, %edx
 150 00ae 89C7     		movl	%eax, %edi
 151              	LVL17:
  41:src/HybridBinarizer.c **** 				{
 152              		.loc 1 41 14 view LVU36
GAS LISTING C:\Users\jisu8\AppData\Local\Temp\ccLWfpjm.s 			page 5


 153 00b0 895C2424 		movl	%ebx, 36(%esp)
 154 00b4 89F3     		movl	%esi, %ebx
 155              	LVL18:
  41:src/HybridBinarizer.c **** 				{
 156              		.loc 1 41 14 view LVU37
 157 00b6 EBBF     		jmp	L10
 158              	LVL19:
 159              	L18:
  41:src/HybridBinarizer.c **** 				{
 160              		.loc 1 41 14 view LVU38
 161              	LBE19:
  50:src/HybridBinarizer.c **** 				{
  51:src/HybridBinarizer.c **** 					// finish the rest of the rows quickly
  52:src/HybridBinarizer.c **** 					for (yy++, offset += stride; yy < BLOCK_SIZE; yy++, offset += stride) 
 162              		.loc 1 52 6 is_stmt 1 view LVU39
 163              		.loc 1 52 13 is_stmt 0 view LVU40
 164 00b8 83442428 		addl	$1, 40(%esp)
 164      01
 165              	LVL20:
 166              		.loc 1 52 13 view LVU41
 167 00bd 8B4C2428 		movl	40(%esp), %ecx
 168              	LVL21:
 169              		.loc 1 52 24 view LVU42
 170 00c1 035C2468 		addl	104(%esp), %ebx
 171              	LVL22:
 172              		.loc 1 52 24 view LVU43
 173 00c5 89FA     		movl	%edi, %edx
 174 00c7 88542424 		movb	%dl, 36(%esp)
 175 00cb 89F2     		movl	%esi, %edx
 176 00cd 88542428 		movb	%dl, 40(%esp)
 177 00d1 89CF     		movl	%ecx, %edi
 178              	LVL23:
 179              		.loc 1 52 24 view LVU44
 180 00d3 8B742468 		movl	104(%esp), %esi
 181              	LVL24:
 182              		.loc 1 52 6 view LVU45
 183 00d7 EB17     		jmp	L7
 184              	LVL25:
 185              	L8:
 186              	LBB20:
  53:src/HybridBinarizer.c **** 					{
  54:src/HybridBinarizer.c **** 						for (int xx = 0; xx < BLOCK_SIZE; xx++) 
  55:src/HybridBinarizer.c **** 						{
  56:src/HybridBinarizer.c **** 							sum += luminances[offset + xx];
 187              		.loc 1 56 8 is_stmt 1 discriminator 3 view LVU46
 188              		.loc 1 56 33 is_stmt 0 discriminator 3 view LVU47
 189 00d9 8D0C13   		leal	(%ebx,%edx), %ecx
 190              		.loc 1 56 25 discriminator 3 view LVU48
 191 00dc 0FB64C0D 		movzbl	0(%ebp,%ecx), %ecx
 191      00
 192              		.loc 1 56 12 discriminator 3 view LVU49
 193 00e1 01C8     		addl	%ecx, %eax
 194              	LVL26:
  54:src/HybridBinarizer.c **** 						{
 195              		.loc 1 54 43 discriminator 3 view LVU50
 196 00e3 83C201   		addl	$1, %edx
 197              	LVL27:
GAS LISTING C:\Users\jisu8\AppData\Local\Temp\ccLWfpjm.s 			page 6


 198              	L9:
  54:src/HybridBinarizer.c **** 						{
 199              		.loc 1 54 7 discriminator 1 view LVU51
 200 00e6 83FA07   		cmpl	$7, %edx
 201 00e9 7EEE     		jle	L8
  54:src/HybridBinarizer.c **** 						{
 202              		.loc 1 54 7 discriminator 1 view LVU52
 203              	LBE20:
  52:src/HybridBinarizer.c **** 					{
 204              		.loc 1 52 54 discriminator 2 view LVU53
 205 00eb 83C701   		addl	$1, %edi
 206              	LVL28:
  52:src/HybridBinarizer.c **** 					{
 207              		.loc 1 52 65 discriminator 2 view LVU54
 208 00ee 01F3     		addl	%esi, %ebx
 209              	LVL29:
 210              	L7:
  52:src/HybridBinarizer.c **** 					{
 211              		.loc 1 52 6 discriminator 1 view LVU55
 212 00f0 83FF07   		cmpl	$7, %edi
 213 00f3 7F07     		jg	L20
 214              	LBB21:
  54:src/HybridBinarizer.c **** 						{
 215              		.loc 1 54 16 view LVU56
 216 00f5 BA000000 		movl	$0, %edx
 216      00
 217 00fa EBEA     		jmp	L9
 218              	L20:
 219 00fc 0FB67424 		movzbl	40(%esp), %esi
 219      28
 220 0101 897C2428 		movl	%edi, 40(%esp)
 221              	LVL30:
  54:src/HybridBinarizer.c **** 						{
 222              		.loc 1 54 16 view LVU57
 223 0105 0FB67C24 		movzbl	36(%esp), %edi
 223      24
 224              	LVL31:
  54:src/HybridBinarizer.c **** 						{
 225              		.loc 1 54 16 view LVU58
 226 010a EB8B     		jmp	L6
 227              	LVL32:
 228              	L19:
  54:src/HybridBinarizer.c **** 						{
 229              		.loc 1 54 16 view LVU59
 230              	LBE21:
 231              	LBE16:
  57:src/HybridBinarizer.c **** 						}
  58:src/HybridBinarizer.c **** 					}
  59:src/HybridBinarizer.c **** 				}
  60:src/HybridBinarizer.c **** 			}
  61:src/HybridBinarizer.c **** 
  62:src/HybridBinarizer.c **** 			// The default estimate is the average of the values in the block.
  63:src/HybridBinarizer.c **** 			int average = sum / (BLOCK_SIZE * BLOCK_SIZE);
 232              		.loc 1 63 4 is_stmt 1 view LVU60
 233              		.loc 1 63 8 is_stmt 0 view LVU61
 234 010c 8D503F   		leal	63(%eax), %edx
 235 010f 85C0     		testl	%eax, %eax
GAS LISTING C:\Users\jisu8\AppData\Local\Temp\ccLWfpjm.s 			page 7


 236 0111 0F49D0   		cmovns	%eax, %edx
 237 0114 89D0     		movl	%edx, %eax
 238              	LVL33:
 239              		.loc 1 63 8 view LVU62
 240 0116 C1F806   		sarl	$6, %eax
 241              	LVL34:
  64:src/HybridBinarizer.c **** 			if (max - min <= MIN_DYNAMIC_RANGE) 
 242              		.loc 1 64 4 is_stmt 1 view LVU63
 243              		.loc 1 64 12 is_stmt 0 view LVU64
 244 0119 89FB     		movl	%edi, %ebx
 245              	LVL35:
 246              		.loc 1 64 12 view LVU65
 247 011b 0FB6D3   		movzbl	%bl, %edx
 248 011e 89F3     		movl	%esi, %ebx
 249 0120 0FB6F3   		movzbl	%bl, %esi
 250              	LVL36:
 251              		.loc 1 64 12 view LVU66
 252 0123 29D6     		subl	%edx, %esi
 253              		.loc 1 64 7 view LVU67
 254 0125 83FE18   		cmpl	$24, %esi
 255 0128 7F5D     		jg	L11
  65:src/HybridBinarizer.c **** 			{
  66:src/HybridBinarizer.c **** 				// If variation within the block is low, assume this is a block with only light or only
  67:src/HybridBinarizer.c **** 				// dark pixels. In that case we do not want to use the average, as it would divide this
  68:src/HybridBinarizer.c **** 				// low contrast area into black and white pixels, essentially creating data out of noise.
  69:src/HybridBinarizer.c **** 				//
  70:src/HybridBinarizer.c **** 				// The default assumption is that the block is light/background. Since no estimate for
  71:src/HybridBinarizer.c **** 				// the level of dark pixels exists locally, use half the min for the block.
  72:src/HybridBinarizer.c **** 				average = min / 2;
 256              		.loc 1 72 5 is_stmt 1 view LVU68
 257              		.loc 1 72 19 is_stmt 0 view LVU69
 258 012a 89F8     		movl	%edi, %eax
 259              	LVL37:
 260              		.loc 1 72 19 view LVU70
 261 012c D0E8     		shrb	%al
 262              		.loc 1 72 13 view LVU71
 263 012e 0FB6C0   		movzbl	%al, %eax
 264              	LVL38:
  73:src/HybridBinarizer.c **** 
  74:src/HybridBinarizer.c **** 				if (y > 0 && x > 0) 
 265              		.loc 1 74 5 is_stmt 1 view LVU72
 266              		.loc 1 74 11 is_stmt 0 view LVU73
 267 0131 8B7C2430 		movl	48(%esp), %edi
 268              	LVL39:
 269              		.loc 1 74 11 view LVU74
 270 0135 85FF     		testl	%edi, %edi
 271 0137 0F9FC3   		setg	%bl
 272              	LVL40:
 273              		.loc 1 74 20 view LVU75
 274 013a 837C242C 		cmpl	$0, 44(%esp)
 274      00
 275 013f 0F9FC1   		setg	%cl
 276              		.loc 1 74 8 view LVU76
 277 0142 84CB     		testb	%cl, %bl
 278 0144 7441     		je	L11
 279              	LBB22:
  75:src/HybridBinarizer.c **** 				{
GAS LISTING C:\Users\jisu8\AppData\Local\Temp\ccLWfpjm.s 			page 8


  76:src/HybridBinarizer.c **** 					// Correct the "white background" assumption for blocks that have neighbors by comparing
  77:src/HybridBinarizer.c **** 					// the pixels in this block to the previously calculated black points. This is based on
  78:src/HybridBinarizer.c **** 					// the fact that dark barcode symbology is always surrounded by some amount of light
  79:src/HybridBinarizer.c **** 					// background for which reasonable black point estimates were made. The bp estimated at
  80:src/HybridBinarizer.c **** 					// the boundaries is used for the interior.
  81:src/HybridBinarizer.c **** 
  82:src/HybridBinarizer.c **** 					// The (min < bp) is arbitrary but works better than other heuristics that were tried.
  83:src/HybridBinarizer.c **** 					int averageNeighborBlackPoint =
 280              		.loc 1 83 6 is_stmt 1 view LVU77
  84:src/HybridBinarizer.c **** 						(blackpoints_data[x][y - 1] + (2 * blackpoints_data[x - 1][y]) + blackpoints_data[x - 1][y - 
 281              		.loc 1 84 30 is_stmt 0 view LVU78
 282 0146 8D77FF   		leal	-1(%edi), %esi
 283              		.loc 1 84 27 view LVU79
 284 0149 8B5C242C 		movl	44(%esp), %ebx
 285 014d 69CBE803 		imull	$1000, %ebx, %ecx
 285      0000
 286 0153 8D3C31   		leal	(%ecx,%esi), %edi
 287              		.loc 1 84 61 view LVU80
 288 0156 83EB01   		subl	$1, %ebx
 289              		.loc 1 84 65 view LVU81
 290 0159 69DBE803 		imull	$1000, %ebx, %ebx
 290      0000
 291 015f 8B4C2430 		movl	48(%esp), %ecx
 292 0163 01D9     		addl	%ebx, %ecx
 293 0165 8B0C8D00 		movl	_blackpoints_data(,%ecx,4), %ecx
 293      000000
 294              		.loc 1 84 40 view LVU82
 295 016c 01C9     		addl	%ecx, %ecx
 296              		.loc 1 84 35 view LVU83
 297 016e 030CBD00 		addl	_blackpoints_data(,%edi,4), %ecx
 297      000000
 298              		.loc 1 84 95 view LVU84
 299 0175 01F3     		addl	%esi, %ebx
 300              		.loc 1 84 70 view LVU85
 301 0177 030C9D00 		addl	_blackpoints_data(,%ebx,4), %ecx
 301      000000
 302              		.loc 1 84 104 view LVU86
 303 017e C1E902   		shrl	$2, %ecx
 304              	LVL41:
  85:src/HybridBinarizer.c **** 
  86:src/HybridBinarizer.c **** 					if (min < averageNeighborBlackPoint) 
 305              		.loc 1 86 6 is_stmt 1 view LVU87
 306              		.loc 1 86 9 is_stmt 0 view LVU88
 307 0181 39CA     		cmpl	%ecx, %edx
 308 0183 7D02     		jge	L11
  87:src/HybridBinarizer.c **** 					{
  88:src/HybridBinarizer.c **** 						average = averageNeighborBlackPoint;
 309              		.loc 1 88 15 view LVU89
 310 0185 89C8     		movl	%ecx, %eax
 311              	LVL42:
 312              	L11:
 313              		.loc 1 88 15 view LVU90
 314              	LBE22:
  89:src/HybridBinarizer.c **** 					}
  90:src/HybridBinarizer.c **** 				}
  91:src/HybridBinarizer.c **** 			}
  92:src/HybridBinarizer.c **** 
GAS LISTING C:\Users\jisu8\AppData\Local\Temp\ccLWfpjm.s 			page 9


  93:src/HybridBinarizer.c **** 			blackpoints_data[x][y] = average;
 315              		.loc 1 93 4 is_stmt 1 discriminator 2 view LVU91
 316              		.loc 1 93 27 is_stmt 0 discriminator 2 view LVU92
 317 0187 8B7C242C 		movl	44(%esp), %edi
 318 018b 69D7E803 		imull	$1000, %edi, %edx
 318      0000
 319              	LVL43:
 320              		.loc 1 93 27 discriminator 2 view LVU93
 321 0191 8B742430 		movl	48(%esp), %esi
 322 0195 01F2     		addl	%esi, %edx
 323 0197 89049500 		movl	%eax, _blackpoints_data(,%edx,4)
 323      000000
  94:src/HybridBinarizer.c **** 
  95:src/HybridBinarizer.c **** 
  96:src/HybridBinarizer.c **** 			printf("X=%d, Y=%d, AVG=%d\n", x, y, average);
 324              		.loc 1 96 4 is_stmt 1 discriminator 2 view LVU94
 325 019e 8944240C 		movl	%eax, 12(%esp)
 326 01a2 89742408 		movl	%esi, 8(%esp)
 327 01a6 897C2404 		movl	%edi, 4(%esp)
 328 01aa C7042450 		movl	$LC1, (%esp)
 328      000000
 329 01b1 E8000000 		call	_printf
 329      00
 330              	LVL44:
 331              		.loc 1 96 4 is_stmt 0 discriminator 2 view LVU95
 332              	LBE15:
  33:src/HybridBinarizer.c **** 		{
 333              		.loc 1 33 34 discriminator 2 view LVU96
 334 01b6 83C701   		addl	$1, %edi
 335 01b9 897C242C 		movl	%edi, 44(%esp)
 336              	LVL45:
 337              	L3:
  33:src/HybridBinarizer.c **** 		{
 338              		.loc 1 33 3 discriminator 1 view LVU97
 339 01bd 8B7C2434 		movl	52(%esp), %edi
 340 01c1 397C242C 		cmpl	%edi, 44(%esp)
 341 01c5 7D3E     		jge	L21
 342              	LBB25:
  35:src/HybridBinarizer.c **** 			int sum = 0;
 343              		.loc 1 35 4 is_stmt 1 view LVU98
  35:src/HybridBinarizer.c **** 			int sum = 0;
 344              		.loc 1 35 18 is_stmt 0 view LVU99
 345 01c7 8B442460 		movl	96(%esp), %eax
 346 01cb 83E808   		subl	$8, %eax
 347 01ce 8B7C242C 		movl	44(%esp), %edi
 348 01d2 8D1CFD00 		leal	0(,%edi,8), %ebx
 348      000000
  35:src/HybridBinarizer.c **** 			int sum = 0;
 349              		.loc 1 35 8 view LVU100
 350 01d9 39D8     		cmpl	%ebx, %eax
 351 01db 0F4FC3   		cmovg	%ebx, %eax
 352              	LVL46:
  36:src/HybridBinarizer.c **** 			uint8_t min = 0xFF;
 353              		.loc 1 36 4 is_stmt 1 view LVU101
  37:src/HybridBinarizer.c **** 			uint8_t max = 0;
 354              		.loc 1 37 4 view LVU102
  38:src/HybridBinarizer.c **** 			for (int yy = 0, offset = yoffset * stride + xoffset; yy < BLOCK_SIZE; yy++, offset += stride) 
GAS LISTING C:\Users\jisu8\AppData\Local\Temp\ccLWfpjm.s 			page 10


 355              		.loc 1 38 4 view LVU103
  39:src/HybridBinarizer.c **** 			{
 356              		.loc 1 39 4 view LVU104
 357              	LBB23:
  39:src/HybridBinarizer.c **** 			{
 358              		.loc 1 39 9 view LVU105
  39:src/HybridBinarizer.c **** 			{
 359              		.loc 1 39 38 is_stmt 0 view LVU106
 360 01de 8B5C2438 		movl	56(%esp), %ebx
 361 01e2 0FAF5C24 		imull	104(%esp), %ebx
 361      68
  39:src/HybridBinarizer.c **** 			{
 362              		.loc 1 39 21 view LVU107
 363 01e7 01C3     		addl	%eax, %ebx
 364              	LVL47:
  39:src/HybridBinarizer.c **** 			{
 365              		.loc 1 39 13 view LVU108
 366 01e9 C7442428 		movl	$0, 40(%esp)
 366      00000000 
 367              	LBE23:
  38:src/HybridBinarizer.c **** 			for (int yy = 0, offset = yoffset * stride + xoffset; yy < BLOCK_SIZE; yy++, offset += stride) 
 368              		.loc 1 38 12 view LVU109
 369 01f1 BE000000 		movl	$0, %esi
 369      00
  37:src/HybridBinarizer.c **** 			uint8_t max = 0;
 370              		.loc 1 37 12 view LVU110
 371 01f6 BFFFFFFF 		movl	$-1, %edi
 371      FF
  36:src/HybridBinarizer.c **** 			uint8_t min = 0xFF;
 372              		.loc 1 36 8 view LVU111
 373 01fb B8000000 		movl	$0, %eax
 373      00
 374              	LVL48:
 375              	LBB24:
  39:src/HybridBinarizer.c **** 			{
 376              		.loc 1 39 4 view LVU112
 377 0200 E99BFEFF 		jmp	L4
 377      FF
 378              	LVL49:
 379              	L21:
  39:src/HybridBinarizer.c **** 			{
 380              		.loc 1 39 4 view LVU113
 381              	LBE24:
 382              	LBE25:
 383              	LBE14:
 384              	LBE13:
  30:src/HybridBinarizer.c **** 	{
 385              		.loc 1 30 34 discriminator 2 view LVU114
 386 0205 83442430 		addl	$1, 48(%esp)
 386      01
 387              	LVL50:
 388              	L2:
  30:src/HybridBinarizer.c **** 	{
 389              		.loc 1 30 2 discriminator 1 view LVU115
 390 020a 8B7C243C 		movl	60(%esp), %edi
 391 020e 397C2430 		cmpl	%edi, 48(%esp)
 392 0212 7D21     		jge	L22
GAS LISTING C:\Users\jisu8\AppData\Local\Temp\ccLWfpjm.s 			page 11


 393              	LBB27:
  32:src/HybridBinarizer.c **** 		for (int x = 0; x < subWidth; x++) 
 394              		.loc 1 32 3 is_stmt 1 view LVU116
  32:src/HybridBinarizer.c **** 		for (int x = 0; x < subWidth; x++) 
 395              		.loc 1 32 17 is_stmt 0 view LVU117
 396 0214 8B442464 		movl	100(%esp), %eax
 397 0218 8D50F8   		leal	-8(%eax), %edx
 398 021b 8B442430 		movl	48(%esp), %eax
 399 021f C1E003   		sall	$3, %eax
  32:src/HybridBinarizer.c **** 		for (int x = 0; x < subWidth; x++) 
 400              		.loc 1 32 7 view LVU118
 401 0222 39C2     		cmpl	%eax, %edx
 402 0224 0F4EC2   		cmovle	%edx, %eax
 403 0227 89442438 		movl	%eax, 56(%esp)
 404              	LVL51:
  33:src/HybridBinarizer.c **** 		{
 405              		.loc 1 33 3 is_stmt 1 view LVU119
 406              	LBB26:
  33:src/HybridBinarizer.c **** 		{
 407              		.loc 1 33 8 view LVU120
  33:src/HybridBinarizer.c **** 		{
 408              		.loc 1 33 12 is_stmt 0 view LVU121
 409 022b C744242C 		movl	$0, 44(%esp)
 409      00000000 
  33:src/HybridBinarizer.c **** 		{
 410              		.loc 1 33 3 view LVU122
 411 0233 EB88     		jmp	L3
 412              	LVL52:
 413              	L22:
  33:src/HybridBinarizer.c **** 		{
 414              		.loc 1 33 3 view LVU123
 415              	LBE26:
 416              	LBE27:
 417              	LBE12:
  97:src/HybridBinarizer.c **** 
  98:src/HybridBinarizer.c **** 		}
  99:src/HybridBinarizer.c **** 	}
 100:src/HybridBinarizer.c **** 
 101:src/HybridBinarizer.c **** 	return blackpoints_data;
 418              		.loc 1 101 2 is_stmt 1 view LVU124
 102:src/HybridBinarizer.c **** }
 419              		.loc 1 102 1 is_stmt 0 view LVU125
 420 0235 B8000000 		movl	$_blackpoints_data, %eax
 420      00
 421 023a 83C44C   		addl	$76, %esp
 422              	LCFI5:
 423              		.cfi_def_cfa_offset 20
 424 023d 5B       		popl	%ebx
 425              	LCFI6:
 426              		.cfi_restore 3
 427              		.cfi_def_cfa_offset 16
 428 023e 5E       		popl	%esi
 429              	LCFI7:
 430              		.cfi_restore 6
 431              		.cfi_def_cfa_offset 12
 432 023f 5F       		popl	%edi
 433              	LCFI8:
GAS LISTING C:\Users\jisu8\AppData\Local\Temp\ccLWfpjm.s 			page 12


 434              		.cfi_restore 7
 435              		.cfi_def_cfa_offset 8
 436 0240 5D       		popl	%ebp
 437              	LCFI9:
 438              		.cfi_restore 5
 439              		.cfi_def_cfa_offset 4
 440              	LVL53:
 441              		.loc 1 102 1 view LVU126
 442 0241 C3       		ret
 443              		.cfi_endproc
 444              	LFE24:
 445              		.section .rdata,"dr"
 446              	LC2:
 447 0064 73746174 		.ascii "static void ThresholdBlock : \0"
 447      69632076 
 447      6F696420 
 447      54687265 
 447      73686F6C 
 448              	LC3:
 449 0082 74687265 		.ascii "threshold : %d \12\0"
 449      73686F6C 
 449      64203A20 
 449      2564200A 
 449      00
 450              		.text
 452              	_ThresholdBlock:
 453              	LVL54:
 454              	LFB26:
 103:src/HybridBinarizer.c **** 
 104:src/HybridBinarizer.c **** static inline clamp(const int __val, const int __lo, const int __hi)
 105:src/HybridBinarizer.c **** {
 106:src/HybridBinarizer.c ****      // __glibcxx_assert(!(__hi < __lo));
 107:src/HybridBinarizer.c ****       return (__val < __lo) ? __lo : (__hi < __val) ? __hi : __val;
 108:src/HybridBinarizer.c **** }
 109:src/HybridBinarizer.c **** 
 110:src/HybridBinarizer.c **** /**
 111:src/HybridBinarizer.c **** * Applies a single threshold to a block of pixels.
 112:src/HybridBinarizer.c **** */
 113:src/HybridBinarizer.c **** static void ThresholdBlock(const uint8_t * luminances, int xoffset, int yoffset, int threshold, int
 114:src/HybridBinarizer.c **** {
 455              		.loc 1 114 1 is_stmt 1 view -0
 456              		.cfi_startproc
 457              		.loc 1 114 1 is_stmt 0 view LVU128
 458 0242 55       		pushl	%ebp
 459              	LCFI10:
 460              		.cfi_def_cfa_offset 8
 461              		.cfi_offset 5, -8
 462 0243 57       		pushl	%edi
 463              	LCFI11:
 464              		.cfi_def_cfa_offset 12
 465              		.cfi_offset 7, -12
 466 0244 56       		pushl	%esi
 467              	LCFI12:
 468              		.cfi_def_cfa_offset 16
 469              		.cfi_offset 6, -16
 470 0245 53       		pushl	%ebx
 471              	LCFI13:
GAS LISTING C:\Users\jisu8\AppData\Local\Temp\ccLWfpjm.s 			page 13


 472              		.cfi_def_cfa_offset 20
 473              		.cfi_offset 3, -20
 474 0246 83EC2C   		subl	$44, %esp
 475              	LCFI14:
 476              		.cfi_def_cfa_offset 64
 477 0249 89442418 		movl	%eax, 24(%esp)
 478 024d 8954241C 		movl	%edx, 28(%esp)
 479 0251 89CD     		movl	%ecx, %ebp
 480 0253 894C2414 		movl	%ecx, 20(%esp)
 481 0257 8B5C2440 		movl	64(%esp), %ebx
 482 025b 8B742448 		movl	72(%esp), %esi
 115:src/HybridBinarizer.c **** 
 116:src/HybridBinarizer.c **** 	printf("static void ThresholdBlock : ");
 483              		.loc 1 116 2 is_stmt 1 view LVU129
 484 025f C7042464 		movl	$LC2, (%esp)
 484      000000
 485 0266 E8000000 		call	_printf
 485      00
 486              	LVL55:
 117:src/HybridBinarizer.c **** 
 118:src/HybridBinarizer.c **** 	for (int y = yoffset; y < yoffset + BLOCK_SIZE; ++y) 
 487              		.loc 1 118 2 view LVU130
 488              	LBB28:
 489              		.loc 1 118 7 view LVU131
 490              		.loc 1 118 2 is_stmt 0 view LVU132
 491 026b EB18     		jmp	L24
 492              	LVL56:
 493              	L26:
 494              	LBB29:
 495              	LBB30:
 119:src/HybridBinarizer.c **** 	{
 120:src/HybridBinarizer.c **** 		uint8_t * src = luminances + y * stride + xoffset;
 121:src/HybridBinarizer.c **** 		uint8_t * const dstBegin = matrix->bits + y * matrix->_width + xoffset;
 122:src/HybridBinarizer.c **** 		for (uint8_t * dst = dstBegin; dst < dstBegin + BLOCK_SIZE; ++dst, ++src)
 123:src/HybridBinarizer.c **** 			*dst = *src <= threshold;
 496              		.loc 1 123 4 is_stmt 1 discriminator 3 view LVU133
 497              		.loc 1 123 11 is_stmt 0 discriminator 3 view LVU134
 498 026d 0FB60A   		movzbl	(%edx), %ecx
 499              		.loc 1 123 16 discriminator 3 view LVU135
 500 0270 39D9     		cmpl	%ebx, %ecx
 501              		.loc 1 123 9 discriminator 3 view LVU136
 502 0272 0F9E00   		setle	(%eax)
 122:src/HybridBinarizer.c **** 			*dst = *src <= threshold;
 503              		.loc 1 122 63 discriminator 3 view LVU137
 504 0275 83C001   		addl	$1, %eax
 505              	LVL57:
 122:src/HybridBinarizer.c **** 			*dst = *src <= threshold;
 506              		.loc 1 122 70 discriminator 3 view LVU138
 507 0278 83C201   		addl	$1, %edx
 508              	LVL58:
 509              	L25:
 122:src/HybridBinarizer.c **** 			*dst = *src <= threshold;
 510              		.loc 1 122 49 discriminator 1 view LVU139
 511 027b 8D4F08   		leal	8(%edi), %ecx
 122:src/HybridBinarizer.c **** 			*dst = *src <= threshold;
 512              		.loc 1 122 3 discriminator 1 view LVU140
 513 027e 39C1     		cmpl	%eax, %ecx
GAS LISTING C:\Users\jisu8\AppData\Local\Temp\ccLWfpjm.s 			page 14


 514 0280 77EB     		ja	L26
 122:src/HybridBinarizer.c **** 			*dst = *src <= threshold;
 515              		.loc 1 122 3 discriminator 1 view LVU141
 516              	LBE30:
 517              	LBE29:
 118:src/HybridBinarizer.c **** 	{
 518              		.loc 1 118 50 discriminator 2 view LVU142
 519 0282 83C501   		addl	$1, %ebp
 520              	LVL59:
 521              	L24:
 118:src/HybridBinarizer.c **** 	{
 522              		.loc 1 118 26 discriminator 1 view LVU143
 523 0285 8B442414 		movl	20(%esp), %eax
 524 0289 83C007   		addl	$7, %eax
 118:src/HybridBinarizer.c **** 	{
 525              		.loc 1 118 2 discriminator 1 view LVU144
 526 028c 39E8     		cmpl	%ebp, %eax
 527 028e 7C1F     		jl	L29
 528              	LBB32:
 120:src/HybridBinarizer.c **** 		uint8_t * const dstBegin = matrix->bits + y * matrix->_width + xoffset;
 529              		.loc 1 120 3 is_stmt 1 view LVU145
 120:src/HybridBinarizer.c **** 		uint8_t * const dstBegin = matrix->bits + y * matrix->_width + xoffset;
 530              		.loc 1 120 34 is_stmt 0 view LVU146
 531 0290 89EA     		movl	%ebp, %edx
 532 0292 0FAF5424 		imull	68(%esp), %edx
 532      44
 120:src/HybridBinarizer.c **** 		uint8_t * const dstBegin = matrix->bits + y * matrix->_width + xoffset;
 533              		.loc 1 120 43 view LVU147
 534 0297 8B44241C 		movl	28(%esp), %eax
 535 029b 01C2     		addl	%eax, %edx
 120:src/HybridBinarizer.c **** 		uint8_t * const dstBegin = matrix->bits + y * matrix->_width + xoffset;
 536              		.loc 1 120 13 view LVU148
 537 029d 03542418 		addl	24(%esp), %edx
 538              	LVL60:
 121:src/HybridBinarizer.c **** 		for (uint8_t * dst = dstBegin; dst < dstBegin + BLOCK_SIZE; ++dst, ++src)
 539              		.loc 1 121 3 is_stmt 1 view LVU149
 121:src/HybridBinarizer.c **** 		for (uint8_t * dst = dstBegin; dst < dstBegin + BLOCK_SIZE; ++dst, ++src)
 540              		.loc 1 121 47 is_stmt 0 view LVU150
 541 02a1 89EF     		movl	%ebp, %edi
 542 02a3 0FAF3E   		imull	(%esi), %edi
 121:src/HybridBinarizer.c **** 		for (uint8_t * dst = dstBegin; dst < dstBegin + BLOCK_SIZE; ++dst, ++src)
 543              		.loc 1 121 64 view LVU151
 544 02a6 01C7     		addl	%eax, %edi
 121:src/HybridBinarizer.c **** 		for (uint8_t * dst = dstBegin; dst < dstBegin + BLOCK_SIZE; ++dst, ++src)
 545              		.loc 1 121 19 view LVU152
 546 02a8 037E0C   		addl	12(%esi), %edi
 547              	LVL61:
 122:src/HybridBinarizer.c **** 			*dst = *src <= threshold;
 548              		.loc 1 122 3 is_stmt 1 view LVU153
 549              	LBB31:
 122:src/HybridBinarizer.c **** 			*dst = *src <= threshold;
 550              		.loc 1 122 8 view LVU154
 122:src/HybridBinarizer.c **** 			*dst = *src <= threshold;
 551              		.loc 1 122 18 is_stmt 0 view LVU155
 552 02ab 89F8     		movl	%edi, %eax
 122:src/HybridBinarizer.c **** 			*dst = *src <= threshold;
 553              		.loc 1 122 3 view LVU156
GAS LISTING C:\Users\jisu8\AppData\Local\Temp\ccLWfpjm.s 			page 15


 554 02ad EBCC     		jmp	L25
 555              	LVL62:
 556              	L29:
 122:src/HybridBinarizer.c **** 			*dst = *src <= threshold;
 557              		.loc 1 122 3 view LVU157
 558              	LBE31:
 559              	LBE32:
 560              	LBE28:
 124:src/HybridBinarizer.c **** 	}
 125:src/HybridBinarizer.c **** 
 126:src/HybridBinarizer.c **** 	printf("threshold : %d \n",threshold);
 561              		.loc 1 126 2 is_stmt 1 view LVU158
 562 02af 895C2404 		movl	%ebx, 4(%esp)
 563 02b3 C7042482 		movl	$LC3, (%esp)
 563      000000
 564 02ba E8000000 		call	_printf
 564      00
 565              	LVL63:
 127:src/HybridBinarizer.c **** }
 566              		.loc 1 127 1 is_stmt 0 view LVU159
 567 02bf 83C42C   		addl	$44, %esp
 568              	LCFI15:
 569              		.cfi_def_cfa_offset 20
 570 02c2 5B       		popl	%ebx
 571              	LCFI16:
 572              		.cfi_restore 3
 573              		.cfi_def_cfa_offset 16
 574 02c3 5E       		popl	%esi
 575              	LCFI17:
 576              		.cfi_restore 6
 577              		.cfi_def_cfa_offset 12
 578 02c4 5F       		popl	%edi
 579              	LCFI18:
 580              		.cfi_restore 7
 581              		.cfi_def_cfa_offset 8
 582 02c5 5D       		popl	%ebp
 583              	LCFI19:
 584              		.cfi_restore 5
 585              		.cfi_def_cfa_offset 4
 586              	LVL64:
 587              		.loc 1 127 1 view LVU160
 588 02c6 C3       		ret
 589              		.cfi_endproc
 590              	LFE26:
 591              		.section .rdata,"dr"
 592 0093 00       		.align 4
 593              	LC4:
 594 0094 73746174 		.ascii "static void CalculateThresholdForBlock : Calls ThresholdBlock \0"
 594      69632076 
 594      6F696420 
 594      43616C63 
 594      756C6174 
 595 00d3 00       		.text
 597              	_CalculateThresholdForBlock:
 598              	LVL65:
 599              	LFB27:
 128:src/HybridBinarizer.c **** 
GAS LISTING C:\Users\jisu8\AppData\Local\Temp\ccLWfpjm.s 			page 16


 129:src/HybridBinarizer.c **** /**
 130:src/HybridBinarizer.c **** * For each block in the image, calculate the average black point using a 5x5 grid
 131:src/HybridBinarizer.c **** * of the blocks around it. Also handles the corner cases (fractional blocks are computed based
 132:src/HybridBinarizer.c **** * on the last pixels in the row/column which are also used in the previous block).
 133:src/HybridBinarizer.c **** */
 134:src/HybridBinarizer.c **** static void CalculateThresholdForBlock(const uint8_t* luminances, int subWidth, int subHeight, int 
 135:src/HybridBinarizer.c ****                                        int stride, BitMatrix_t * matrix)
 136:src/HybridBinarizer.c **** {
 600              		.loc 1 136 1 is_stmt 1 view -0
 601              		.cfi_startproc
 602              		.loc 1 136 1 is_stmt 0 view LVU162
 603 02c7 55       		pushl	%ebp
 604              	LCFI20:
 605              		.cfi_def_cfa_offset 8
 606              		.cfi_offset 5, -8
 607 02c8 57       		pushl	%edi
 608              	LCFI21:
 609              		.cfi_def_cfa_offset 12
 610              		.cfi_offset 7, -12
 611 02c9 56       		pushl	%esi
 612              	LCFI22:
 613              		.cfi_def_cfa_offset 16
 614              		.cfi_offset 6, -16
 615 02ca 53       		pushl	%ebx
 616              	LCFI23:
 617              		.cfi_def_cfa_offset 20
 618              		.cfi_offset 3, -20
 619 02cb 83EC3C   		subl	$60, %esp
 620              	LCFI24:
 621              		.cfi_def_cfa_offset 80
 622 02ce 8944242C 		movl	%eax, 44(%esp)
 623 02d2 89542418 		movl	%edx, 24(%esp)
 624 02d6 894C2424 		movl	%ecx, 36(%esp)
 137:src/HybridBinarizer.c **** 	printf("static void CalculateThresholdForBlock : Calls ThresholdBlock \n");
 625              		.loc 1 137 2 is_stmt 1 view LVU163
 626 02da C7042494 		movl	$LC4, (%esp)
 626      000000
 627 02e1 E8000000 		call	_puts
 627      00
 628              	LVL66:
 138:src/HybridBinarizer.c **** 
 139:src/HybridBinarizer.c **** 	for (int y = 0; y < subHeight; y++) 
 629              		.loc 1 139 2 view LVU164
 630              	LBB33:
 631              		.loc 1 139 7 view LVU165
 632              		.loc 1 139 11 is_stmt 0 view LVU166
 633 02e6 C7442420 		movl	$0, 32(%esp)
 633      00000000 
 634              		.loc 1 139 2 view LVU167
 635 02ee E9E10000 		jmp	L31
 635      00
 636              	LVL67:
 637              	L40:
 638              	LBB34:
 639              	LBB35:
 640              	LBB36:
 641              	LBB37:
GAS LISTING C:\Users\jisu8\AppData\Local\Temp\ccLWfpjm.s 			page 17


 642              	LBB38:
 107:src/HybridBinarizer.c **** }
 643              		.loc 1 107 36 view LVU168
 644 02f3 BD020000 		movl	$2, %ebp
 644      00
 645              	LVL68:
 107:src/HybridBinarizer.c **** }
 646              		.loc 1 107 36 view LVU169
 647 02f8 E9AA0000 		jmp	L33
 647      00
 648              	LVL69:
 649              	L41:
 107:src/HybridBinarizer.c **** }
 650              		.loc 1 107 36 view LVU170
 651              	LBE38:
 652              	LBE37:
 653              	LBB40:
 654              	LBB41:
 655 02fd BF020000 		movl	$2, %edi
 655      00
 656              	LVL70:
 107:src/HybridBinarizer.c **** }
 657              		.loc 1 107 36 view LVU171
 658 0302 E9B90000 		jmp	L34
 658      00
 659              	LVL71:
 660              	L45:
 107:src/HybridBinarizer.c **** }
 661              		.loc 1 107 36 view LVU172
 662              	LBE41:
 663              	LBE40:
 664              	LBB43:
 140:src/HybridBinarizer.c **** 	{
 141:src/HybridBinarizer.c **** 		int yoffset = __min(y * BLOCK_SIZE, height - BLOCK_SIZE);
 142:src/HybridBinarizer.c **** 		for (int x = 0; x < subWidth; x++) 
 143:src/HybridBinarizer.c **** 		{
 144:src/HybridBinarizer.c **** 			int xoffset = __min(x * BLOCK_SIZE, width - BLOCK_SIZE);
 145:src/HybridBinarizer.c **** 			int left = clamp(x, 2, subWidth - 3);
 146:src/HybridBinarizer.c **** 			int top  = clamp(y, 2, subHeight - 3);
 147:src/HybridBinarizer.c **** 			int sum = 0;
 148:src/HybridBinarizer.c **** 			for (int dy = -2; dy <= 2; ++dy) 
 665              		.loc 1 148 31 discriminator 2 view LVU173
 666 0307 83C601   		addl	$1, %esi
 667              	LVL72:
 668              	L35:
 669              		.loc 1 148 4 discriminator 1 view LVU174
 670 030a 83FE02   		cmpl	$2, %esi
 671 030d 7F24     		jg	L44
 672              	LBB44:
 149:src/HybridBinarizer.c **** 			{
 150:src/HybridBinarizer.c **** 				for (int dx = -2; dx <= 2; ++dx) 
 673              		.loc 1 150 14 view LVU175
 674 030f BAFEFFFF 		movl	$-2, %edx
 674      FF
 675              	LVL73:
 676              	L37:
 677              		.loc 1 150 5 discriminator 1 view LVU176
GAS LISTING C:\Users\jisu8\AppData\Local\Temp\ccLWfpjm.s 			page 18


 678 0314 83FA02   		cmpl	$2, %edx
 679 0317 7FEE     		jg	L45
 151:src/HybridBinarizer.c **** 				{
 152:src/HybridBinarizer.c **** 					sum += blackpoints_data[left + dx][top + dy];
 680              		.loc 1 152 6 is_stmt 1 discriminator 3 view LVU177
 681              		.loc 1 152 35 is_stmt 0 discriminator 3 view LVU178
 682 0319 8D042A   		leal	(%edx,%ebp), %eax
 683              		.loc 1 152 45 discriminator 3 view LVU179
 684 031c 8D1C3E   		leal	(%esi,%edi), %ebx
 685              		.loc 1 152 40 discriminator 3 view LVU180
 686 031f 69C0E803 		imull	$1000, %eax, %eax
 686      0000
 687 0325 01D8     		addl	%ebx, %eax
 688              		.loc 1 152 10 discriminator 3 view LVU181
 689 0327 030C8500 		addl	_blackpoints_data(,%eax,4), %ecx
 689      000000
 690              	LVL74:
 150:src/HybridBinarizer.c **** 				{
 691              		.loc 1 150 32 discriminator 3 view LVU182
 692 032e 83C201   		addl	$1, %edx
 693              	LVL75:
 150:src/HybridBinarizer.c **** 				{
 694              		.loc 1 150 32 discriminator 3 view LVU183
 695 0331 EBE1     		jmp	L37
 696              	LVL76:
 697              	L44:
 150:src/HybridBinarizer.c **** 				{
 698              		.loc 1 150 32 discriminator 3 view LVU184
 699              	LBE44:
 700              	LBE43:
 153:src/HybridBinarizer.c **** 				}
 154:src/HybridBinarizer.c **** 			}
 155:src/HybridBinarizer.c **** 
 156:src/HybridBinarizer.c **** 			int average = sum / 25;
 701              		.loc 1 156 4 is_stmt 1 discriminator 2 view LVU185
 702              		.loc 1 156 8 is_stmt 0 discriminator 2 view LVU186
 703 0333 BA1F85EB 		movl	$1374389535, %edx
 703      51
 704 0338 89C8     		movl	%ecx, %eax
 705 033a F7EA     		imull	%edx
 706 033c C1FA03   		sarl	$3, %edx
 707 033f C1F91F   		sarl	$31, %ecx
 708              	LVL77:
 709              		.loc 1 156 8 discriminator 2 view LVU187
 710 0342 29CA     		subl	%ecx, %edx
 711              	LVL78:
 157:src/HybridBinarizer.c **** 			ThresholdBlock(luminances, xoffset, yoffset, average, stride, matrix);
 712              		.loc 1 157 4 is_stmt 1 discriminator 2 view LVU188
 713 0344 8B44245C 		movl	92(%esp), %eax
 714 0348 89442408 		movl	%eax, 8(%esp)
 715 034c 8B442458 		movl	88(%esp), %eax
 716 0350 89442404 		movl	%eax, 4(%esp)
 717 0354 891424   		movl	%edx, (%esp)
 718 0357 8B4C2428 		movl	40(%esp), %ecx
 719 035b 8B54241C 		movl	28(%esp), %edx
 720              	LVL79:
 721              		.loc 1 157 4 is_stmt 0 discriminator 2 view LVU189
GAS LISTING C:\Users\jisu8\AppData\Local\Temp\ccLWfpjm.s 			page 19


 722 035f 8B44242C 		movl	44(%esp), %eax
 723 0363 E8DAFEFF 		call	_ThresholdBlock
 723      FF
 724              	LVL80:
 725              		.loc 1 157 4 discriminator 2 view LVU190
 726              	LBE36:
 142:src/HybridBinarizer.c **** 		{
 727              		.loc 1 142 34 discriminator 2 view LVU191
 728 0368 83442414 		addl	$1, 20(%esp)
 728      01
 729              	LVL81:
 730              	L32:
 142:src/HybridBinarizer.c **** 		{
 731              		.loc 1 142 3 discriminator 1 view LVU192
 732 036d 8B5C2418 		movl	24(%esp), %ebx
 733 0371 395C2414 		cmpl	%ebx, 20(%esp)
 734 0375 7D58     		jge	L46
 735              	LBB49:
 144:src/HybridBinarizer.c **** 			int left = clamp(x, 2, subWidth - 3);
 736              		.loc 1 144 4 is_stmt 1 view LVU193
 144:src/HybridBinarizer.c **** 			int left = clamp(x, 2, subWidth - 3);
 737              		.loc 1 144 18 is_stmt 0 view LVU194
 738 0377 8B442450 		movl	80(%esp), %eax
 739 037b 8D50F8   		leal	-8(%eax), %edx
 740 037e 8B7C2414 		movl	20(%esp), %edi
 741 0382 8D04FD00 		leal	0(,%edi,8), %eax
 741      000000
 144:src/HybridBinarizer.c **** 			int left = clamp(x, 2, subWidth - 3);
 742              		.loc 1 144 8 view LVU195
 743 0389 39C2     		cmpl	%eax, %edx
 744 038b 0F4EC2   		cmovle	%edx, %eax
 745 038e 8944241C 		movl	%eax, 28(%esp)
 746              	LVL82:
 145:src/HybridBinarizer.c **** 			int top  = clamp(y, 2, subHeight - 3);
 747              		.loc 1 145 4 is_stmt 1 view LVU196
 145:src/HybridBinarizer.c **** 			int top  = clamp(y, 2, subHeight - 3);
 748              		.loc 1 145 15 is_stmt 0 view LVU197
 749 0392 8B442418 		movl	24(%esp), %eax
 750              	LVL83:
 145:src/HybridBinarizer.c **** 			int top  = clamp(y, 2, subHeight - 3);
 751              		.loc 1 145 15 view LVU198
 752 0396 8D68FD   		leal	-3(%eax), %ebp
 753              	LVL84:
 754              	LBB45:
 755              	LBI37:
 104:src/HybridBinarizer.c **** {
 756              		.loc 1 104 15 is_stmt 1 view LVU199
 757              	LBB39:
 107:src/HybridBinarizer.c **** }
 758              		.loc 1 107 7 view LVU200
 107:src/HybridBinarizer.c **** }
 759              		.loc 1 107 36 is_stmt 0 view LVU201
 760 0399 83FF01   		cmpl	$1, %edi
 761 039c 0F8E51FF 		jle	L40
 761      FFFF
 762 03a2 39FD     		cmpl	%edi, %ebp
 763 03a4 0F4FEF   		cmovg	%edi, %ebp
GAS LISTING C:\Users\jisu8\AppData\Local\Temp\ccLWfpjm.s 			page 20


 764              	LVL85:
 765              	L33:
 107:src/HybridBinarizer.c **** }
 766              		.loc 1 107 36 view LVU202
 767              	LBE39:
 768              	LBE45:
 146:src/HybridBinarizer.c **** 			int sum = 0;
 769              		.loc 1 146 4 is_stmt 1 view LVU203
 146:src/HybridBinarizer.c **** 			int sum = 0;
 770              		.loc 1 146 15 is_stmt 0 view LVU204
 771 03a7 8B442424 		movl	36(%esp), %eax
 772 03ab 8D78FD   		leal	-3(%eax), %edi
 773              	LVL86:
 774              	LBB46:
 775              	LBI40:
 104:src/HybridBinarizer.c **** {
 776              		.loc 1 104 15 is_stmt 1 view LVU205
 777              	LBB42:
 107:src/HybridBinarizer.c **** }
 778              		.loc 1 107 7 view LVU206
 107:src/HybridBinarizer.c **** }
 779              		.loc 1 107 36 is_stmt 0 view LVU207
 780 03ae 8B442420 		movl	32(%esp), %eax
 781 03b2 83F801   		cmpl	$1, %eax
 782 03b5 0F8E42FF 		jle	L41
 782      FFFF
 783 03bb 39C7     		cmpl	%eax, %edi
 784 03bd 0F4FF8   		cmovg	%eax, %edi
 785              	LVL87:
 786              	L34:
 107:src/HybridBinarizer.c **** }
 787              		.loc 1 107 36 view LVU208
 788              	LBE42:
 789              	LBE46:
 147:src/HybridBinarizer.c **** 			for (int dy = -2; dy <= 2; ++dy) 
 790              		.loc 1 147 4 is_stmt 1 view LVU209
 148:src/HybridBinarizer.c **** 			{
 791              		.loc 1 148 4 view LVU210
 792              	LBB47:
 148:src/HybridBinarizer.c **** 			{
 793              		.loc 1 148 9 view LVU211
 148:src/HybridBinarizer.c **** 			{
 794              		.loc 1 148 13 is_stmt 0 view LVU212
 795 03c0 BEFEFFFF 		movl	$-2, %esi
 795      FF
 796              	LBE47:
 147:src/HybridBinarizer.c **** 			for (int dy = -2; dy <= 2; ++dy) 
 797              		.loc 1 147 8 view LVU213
 798 03c5 B9000000 		movl	$0, %ecx
 798      00
 799              	LBB48:
 148:src/HybridBinarizer.c **** 			{
 800              		.loc 1 148 4 view LVU214
 801 03ca E93BFFFF 		jmp	L35
 801      FF
 802              	LVL88:
 803              	L46:
GAS LISTING C:\Users\jisu8\AppData\Local\Temp\ccLWfpjm.s 			page 21


 148:src/HybridBinarizer.c **** 			{
 804              		.loc 1 148 4 view LVU215
 805              	LBE48:
 806              	LBE49:
 807              	LBE35:
 808              	LBE34:
 139:src/HybridBinarizer.c **** 	{
 809              		.loc 1 139 34 discriminator 2 view LVU216
 810 03cf 83442420 		addl	$1, 32(%esp)
 810      01
 811              	LVL89:
 812              	L31:
 139:src/HybridBinarizer.c **** 	{
 813              		.loc 1 139 2 discriminator 1 view LVU217
 814 03d4 8B5C2424 		movl	36(%esp), %ebx
 815 03d8 395C2420 		cmpl	%ebx, 32(%esp)
 816 03dc 7D24     		jge	L47
 817              	LBB51:
 141:src/HybridBinarizer.c **** 		for (int x = 0; x < subWidth; x++) 
 818              		.loc 1 141 3 is_stmt 1 view LVU218
 141:src/HybridBinarizer.c **** 		for (int x = 0; x < subWidth; x++) 
 819              		.loc 1 141 17 is_stmt 0 view LVU219
 820 03de 8B442454 		movl	84(%esp), %eax
 821 03e2 8D50F8   		leal	-8(%eax), %edx
 822 03e5 8B442420 		movl	32(%esp), %eax
 823 03e9 C1E003   		sall	$3, %eax
 141:src/HybridBinarizer.c **** 		for (int x = 0; x < subWidth; x++) 
 824              		.loc 1 141 7 view LVU220
 825 03ec 39C2     		cmpl	%eax, %edx
 826 03ee 0F4EC2   		cmovle	%edx, %eax
 827 03f1 89442428 		movl	%eax, 40(%esp)
 828              	LVL90:
 142:src/HybridBinarizer.c **** 		{
 829              		.loc 1 142 3 is_stmt 1 view LVU221
 830              	LBB50:
 142:src/HybridBinarizer.c **** 		{
 831              		.loc 1 142 8 view LVU222
 142:src/HybridBinarizer.c **** 		{
 832              		.loc 1 142 12 is_stmt 0 view LVU223
 833 03f5 C7442414 		movl	$0, 20(%esp)
 833      00000000 
 142:src/HybridBinarizer.c **** 		{
 834              		.loc 1 142 3 view LVU224
 835 03fd E96BFFFF 		jmp	L32
 835      FF
 836              	LVL91:
 837              	L47:
 142:src/HybridBinarizer.c **** 		{
 838              		.loc 1 142 3 view LVU225
 839              	LBE50:
 840              	LBE51:
 841              	LBE33:
 158:src/HybridBinarizer.c **** 		}
 159:src/HybridBinarizer.c **** 	}
 160:src/HybridBinarizer.c **** 
 161:src/HybridBinarizer.c **** #ifdef HK_DEBUG
 162:src/HybridBinarizer.c **** 	//std::cout << "width : " << width << "height : " << height << "\n";
GAS LISTING C:\Users\jisu8\AppData\Local\Temp\ccLWfpjm.s 			page 22


 163:src/HybridBinarizer.c **** #endif
 164:src/HybridBinarizer.c **** 
 165:src/HybridBinarizer.c **** }
 842              		.loc 1 165 1 view LVU226
 843 0402 83C43C   		addl	$60, %esp
 844              	LCFI25:
 845              		.cfi_def_cfa_offset 20
 846 0405 5B       		popl	%ebx
 847              	LCFI26:
 848              		.cfi_restore 3
 849              		.cfi_def_cfa_offset 16
 850 0406 5E       		popl	%esi
 851              	LCFI27:
 852              		.cfi_restore 6
 853              		.cfi_def_cfa_offset 12
 854 0407 5F       		popl	%edi
 855              	LCFI28:
 856              		.cfi_restore 7
 857              		.cfi_def_cfa_offset 8
 858 0408 5D       		popl	%ebp
 859              	LCFI29:
 860              		.cfi_restore 5
 861              		.cfi_def_cfa_offset 4
 862 0409 C3       		ret
 863              		.cfi_endproc
 864              	LFE27:
 866              	_InitBlackMatrix:
 867              	LVL92:
 868              	LFB28:
 166:src/HybridBinarizer.c **** 
 167:src/HybridBinarizer.c **** static void InitBlackMatrix(GenericLuminanceSource_t * source, BitMatrix_t * outMatrix)
 168:src/HybridBinarizer.c **** {
 869              		.loc 1 168 1 is_stmt 1 view -0
 870              		.cfi_startproc
 871              		.loc 1 168 1 is_stmt 0 view LVU228
 872 040a 55       		pushl	%ebp
 873              	LCFI30:
 874              		.cfi_def_cfa_offset 8
 875              		.cfi_offset 5, -8
 876 040b 57       		pushl	%edi
 877              	LCFI31:
 878              		.cfi_def_cfa_offset 12
 879              		.cfi_offset 7, -12
 880 040c 56       		pushl	%esi
 881              	LCFI32:
 882              		.cfi_def_cfa_offset 16
 883              		.cfi_offset 6, -16
 884 040d 53       		pushl	%ebx
 885              	LCFI33:
 886              		.cfi_def_cfa_offset 20
 887              		.cfi_offset 3, -20
 888 040e 83EC3C   		subl	$60, %esp
 889              	LCFI34:
 890              		.cfi_def_cfa_offset 80
 891 0411 8954241C 		movl	%edx, 28(%esp)
 169:src/HybridBinarizer.c **** 	BitMatrix_t * matrix = outMatrix;
 892              		.loc 1 169 2 is_stmt 1 view LVU229
GAS LISTING C:\Users\jisu8\AppData\Local\Temp\ccLWfpjm.s 			page 23


 893              	LVL93:
 170:src/HybridBinarizer.c **** 	int width = source->width;
 894              		.loc 1 170 2 view LVU230
 895              		.loc 1 170 6 is_stmt 0 view LVU231
 896 0415 8B780C   		movl	12(%eax), %edi
 897              	LVL94:
 171:src/HybridBinarizer.c **** 	int height = source->height;
 898              		.loc 1 171 2 is_stmt 1 view LVU232
 899              		.loc 1 171 6 is_stmt 0 view LVU233
 900 0418 8B6810   		movl	16(%eax), %ebp
 901              	LVL95:
 172:src/HybridBinarizer.c **** 	uint8_t * buffer = NULL;
 902              		.loc 1 172 2 is_stmt 1 view LVU234
 173:src/HybridBinarizer.c **** 	int stride = 0;
 903              		.loc 1 173 2 view LVU235
 904              		.loc 1 173 6 is_stmt 0 view LVU236
 905 041b C744242C 		movl	$0, 44(%esp)
 905      00000000 
 174:src/HybridBinarizer.c **** 
 175:src/HybridBinarizer.c **** 	uint8_t* luminances = getMatrix(source, buffer, &stride,0);
 906              		.loc 1 175 2 is_stmt 1 view LVU237
 907              		.loc 1 175 24 is_stmt 0 view LVU238
 908 0423 C744240C 		movl	$0, 12(%esp)
 908      00000000 
 909 042b 8D54242C 		leal	44(%esp), %edx
 910              	LVL96:
 911              		.loc 1 175 24 view LVU239
 912 042f 89542408 		movl	%edx, 8(%esp)
 913 0433 C7442404 		movl	$0, 4(%esp)
 913      00000000 
 914 043b 890424   		movl	%eax, (%esp)
 915 043e E8000000 		call	_getMatrix
 915      00
 916              	LVL97:
 917              		.loc 1 175 24 view LVU240
 918 0443 89442418 		movl	%eax, 24(%esp)
 919              	LVL98:
 176:src/HybridBinarizer.c **** 	int subWidth = (width + BLOCK_SIZE - 1) / BLOCK_SIZE; // ceil(width/BS)
 920              		.loc 1 176 2 is_stmt 1 view LVU241
 921              		.loc 1 176 37 is_stmt 0 view LVU242
 922 0447 8D4707   		leal	7(%edi), %eax
 923              	LVL99:
 924              		.loc 1 176 6 view LVU243
 925 044a 8D5F0E   		leal	14(%edi), %ebx
 926 044d 85C0     		testl	%eax, %eax
 927 044f 0F49D8   		cmovns	%eax, %ebx
 928 0452 C1FB03   		sarl	$3, %ebx
 929              	LVL100:
 177:src/HybridBinarizer.c **** 	int subHeight = (height + BLOCK_SIZE - 1) / BLOCK_SIZE; // ceil(height/BS)
 930              		.loc 1 177 2 is_stmt 1 view LVU244
 931              		.loc 1 177 39 is_stmt 0 view LVU245
 932 0455 8D4507   		leal	7(%ebp), %eax
 933              		.loc 1 177 6 view LVU246
 934 0458 8D750E   		leal	14(%ebp), %esi
 935 045b 85C0     		testl	%eax, %eax
 936 045d 0F49F0   		cmovns	%eax, %esi
 937 0460 C1FE03   		sarl	$3, %esi
GAS LISTING C:\Users\jisu8\AppData\Local\Temp\ccLWfpjm.s 			page 24


 938              	LVL101:
 178:src/HybridBinarizer.c **** 	blackPoints.data = CalculateBlackPoints(luminances, subWidth, subHeight, width, height, stride);
 939              		.loc 1 178 2 is_stmt 1 view LVU247
 940              		.loc 1 178 21 is_stmt 0 view LVU248
 941 0463 8B44242C 		movl	44(%esp), %eax
 942 0467 89442408 		movl	%eax, 8(%esp)
 943 046b 896C2404 		movl	%ebp, 4(%esp)
 944 046f 893C24   		movl	%edi, (%esp)
 945 0472 89F1     		movl	%esi, %ecx
 946 0474 89DA     		movl	%ebx, %edx
 947 0476 8B442418 		movl	24(%esp), %eax
 948 047a E881FBFF 		call	_CalculateBlackPoints
 948      FF
 949              	LVL102:
 950              		.loc 1 178 19 view LVU249
 951 047f A3080000 		movl	%eax, _blackPoints+8
 951      00
 179:src/HybridBinarizer.c **** 
 180:src/HybridBinarizer.c **** 	//matrix = std::make_shared<BitMatrix>(width, height);
 181:src/HybridBinarizer.c **** 	CalculateThresholdForBlock(luminances, subWidth, subHeight, width, height, stride, matrix);
 952              		.loc 1 181 2 is_stmt 1 view LVU250
 953 0484 8B4C241C 		movl	28(%esp), %ecx
 954 0488 894C240C 		movl	%ecx, 12(%esp)
 955 048c 8B44242C 		movl	44(%esp), %eax
 956 0490 89442408 		movl	%eax, 8(%esp)
 957 0494 896C2404 		movl	%ebp, 4(%esp)
 958 0498 893C24   		movl	%edi, (%esp)
 959 049b 89F1     		movl	%esi, %ecx
 960 049d 89DA     		movl	%ebx, %edx
 961 049f 8B442418 		movl	24(%esp), %eax
 962 04a3 E81FFEFF 		call	_CalculateThresholdForBlock
 962      FF
 963              	LVL103:
 182:src/HybridBinarizer.c **** }
 964              		.loc 1 182 1 is_stmt 0 view LVU251
 965 04a8 83C43C   		addl	$60, %esp
 966              	LCFI35:
 967              		.cfi_def_cfa_offset 20
 968 04ab 5B       		popl	%ebx
 969              	LCFI36:
 970              		.cfi_restore 3
 971              		.cfi_def_cfa_offset 16
 972              	LVL104:
 973              		.loc 1 182 1 view LVU252
 974 04ac 5E       		popl	%esi
 975              	LCFI37:
 976              		.cfi_restore 6
 977              		.cfi_def_cfa_offset 12
 978              	LVL105:
 979              		.loc 1 182 1 view LVU253
 980 04ad 5F       		popl	%edi
 981              	LCFI38:
 982              		.cfi_restore 7
 983              		.cfi_def_cfa_offset 8
 984              	LVL106:
 985              		.loc 1 182 1 view LVU254
 986 04ae 5D       		popl	%ebp
GAS LISTING C:\Users\jisu8\AppData\Local\Temp\ccLWfpjm.s 			page 25


 987              	LCFI39:
 988              		.cfi_restore 5
 989              		.cfi_def_cfa_offset 4
 990              	LVL107:
 991              		.loc 1 182 1 view LVU255
 992 04af C3       		ret
 993              		.cfi_endproc
 994              	LFE28:
 995              		.globl	_getBlackMatrix
 997              	_getBlackMatrix:
 998              	LVL108:
 999              	LFB29:
 183:src/HybridBinarizer.c **** 
 184:src/HybridBinarizer.c **** unsigned char * getBlackMatrix(GenericLuminanceSource_t * image)
 185:src/HybridBinarizer.c **** {
 1000              		.loc 1 185 1 is_stmt 1 view -0
 1001              		.cfi_startproc
 1002              		.loc 1 185 1 is_stmt 0 view LVU257
 1003 04b0 53       		pushl	%ebx
 1004              	LCFI40:
 1005              		.cfi_def_cfa_offset 8
 1006              		.cfi_offset 3, -8
 1007 04b1 83EC18   		subl	$24, %esp
 1008              	LCFI41:
 1009              		.cfi_def_cfa_offset 32
 1010 04b4 8B442420 		movl	32(%esp), %eax
 186:src/HybridBinarizer.c **** 	
 187:src/HybridBinarizer.c **** 	int width = image->width;
 1011              		.loc 1 187 2 is_stmt 1 view LVU258
 1012              		.loc 1 187 6 is_stmt 0 view LVU259
 1013 04b8 8B500C   		movl	12(%eax), %edx
 1014              	LVL109:
 188:src/HybridBinarizer.c **** 	int height = image->height;
 1015              		.loc 1 188 2 is_stmt 1 view LVU260
 1016              		.loc 1 188 6 is_stmt 0 view LVU261
 1017 04bb 8B4810   		movl	16(%eax), %ecx
 1018              	LVL110:
 189:src/HybridBinarizer.c **** 	matrix._width = width;
 1019              		.loc 1 189 2 is_stmt 1 view LVU262
 1020              		.loc 1 189 16 is_stmt 0 view LVU263
 1021 04be 89150000 		movl	%edx, _matrix
 1021      0000
 190:src/HybridBinarizer.c **** 	matrix._height = height;
 1022              		.loc 1 190 2 is_stmt 1 view LVU264
 1023              		.loc 1 190 17 is_stmt 0 view LVU265
 1024 04c4 890D0400 		movl	%ecx, _matrix+4
 1024      0000
 191:src/HybridBinarizer.c **** 	matrix._rowSize = width;
 1025              		.loc 1 191 2 is_stmt 1 view LVU266
 1026              		.loc 1 191 18 is_stmt 0 view LVU267
 1027 04ca 89150800 		movl	%edx, _matrix+8
 1027      0000
 192:src/HybridBinarizer.c **** 	matrix.bits = matrix_bits;
 1028              		.loc 1 192 2 is_stmt 1 view LVU268
 1029              		.loc 1 192 14 is_stmt 0 view LVU269
 1030 04d0 C7050C00 		movl	$_matrix_bits, _matrix+12
 1030      00000000 
GAS LISTING C:\Users\jisu8\AppData\Local\Temp\ccLWfpjm.s 			page 26


 1030      0000
 193:src/HybridBinarizer.c **** 	if (width >= MINIMUM_DIMENSION && height >= MINIMUM_DIMENSION) 
 1031              		.loc 1 193 2 is_stmt 1 view LVU270
 1032              		.loc 1 193 12 is_stmt 0 view LVU271
 1033 04da 83FA27   		cmpl	$39, %edx
 1034 04dd 0F9FC3   		setg	%bl
 1035              		.loc 1 193 43 view LVU272
 1036 04e0 83F927   		cmpl	$39, %ecx
 1037 04e3 0F9FC2   		setg	%dl
 1038              	LVL111:
 1039              		.loc 1 193 5 view LVU273
 1040 04e6 84D3     		testb	%dl, %bl
 1041 04e8 7414     		je	L51
 194:src/HybridBinarizer.c **** 	{
 195:src/HybridBinarizer.c **** 		InitBlackMatrix(image,&matrix);
 1042              		.loc 1 195 3 is_stmt 1 view LVU274
 1043 04ea BA000000 		movl	$_matrix, %edx
 1043      00
 1044              		.loc 1 195 3 is_stmt 0 view LVU275
 1045 04ef E816FFFF 		call	_InitBlackMatrix
 1045      FF
 1046              	LVL112:
 196:src/HybridBinarizer.c **** 		return &matrix;
 1047              		.loc 1 196 3 is_stmt 1 view LVU276
 1048              		.loc 1 196 10 is_stmt 0 view LVU277
 1049 04f4 B8000000 		movl	$_matrix, %eax
 1049      00
 1050              	L50:
 197:src/HybridBinarizer.c **** 	}
 198:src/HybridBinarizer.c **** 	else 
 199:src/HybridBinarizer.c **** 	{
 200:src/HybridBinarizer.c **** 		// If the image is too small, fall back to the global histogram approach.
 201:src/HybridBinarizer.c **** 		return getBlackMatrix(image);
 202:src/HybridBinarizer.c **** 	}
 203:src/HybridBinarizer.c **** 
 204:src/HybridBinarizer.c **** }
 1051              		.loc 1 204 1 view LVU278
 1052 04f9 83C418   		addl	$24, %esp
 1053              	LCFI42:
 1054              		.cfi_remember_state
 1055              		.cfi_def_cfa_offset 8
 1056 04fc 5B       		popl	%ebx
 1057              	LCFI43:
 1058              		.cfi_restore 3
 1059              		.cfi_def_cfa_offset 4
 1060 04fd C3       		ret
 1061              	LVL113:
 1062              	L51:
 1063              	LCFI44:
 1064              		.cfi_restore_state
 201:src/HybridBinarizer.c **** 	}
 1065              		.loc 1 201 3 is_stmt 1 view LVU279
 201:src/HybridBinarizer.c **** 	}
 1066              		.loc 1 201 10 is_stmt 0 view LVU280
 1067 04fe 890424   		movl	%eax, (%esp)
 1068 0501 E8AAFFFF 		call	_getBlackMatrix
 1068      FF
GAS LISTING C:\Users\jisu8\AppData\Local\Temp\ccLWfpjm.s 			page 27


 1069              	LVL114:
 201:src/HybridBinarizer.c **** 	}
 1070              		.loc 1 201 10 view LVU281
 1071 0506 EBF1     		jmp	L50
 1072              		.cfi_endproc
 1073              	LFE29:
 1074              		.comm	_matrix_bits, 115200, 5
 1075              		.comm	_blackpoints_data, 4000000, 5
 1076              		.comm	_matrix, 16, 2
 1077              		.comm	_blackPoints, 12, 2
 1078              	Letext0:
 1079              		.file 2 "D:/3.tools/mingw/mingw32/i686-w64-mingw32/include/crtdefs.h"
 1080              		.file 3 "D:/3.tools/mingw/mingw32/i686-w64-mingw32/include/stdint.h"
 1081              		.file 4 "D:/3.tools/mingw/mingw32/i686-w64-mingw32/include/stdio.h"
 1082              		.file 5 "src/GenericLuminanceSource.h"
 1083              		.file 6 "src/BitMatrix.h"
 1084              		.file 7 "src/Matrix.h"
 1085              		.file 8 "D:/3.tools/mingw/mingw32/i686-w64-mingw32/include/stdlib.h"
 1086              		.file 9 "D:/3.tools/mingw/mingw32/i686-w64-mingw32/include/malloc.h"
 1087              		.file 10 "<built-in>"
 1088              		.section	.debug_info,"dr"
 1089              	Ldebug_info0:
 1090 0000 080F0000 		.long	0xf08
 1091 0004 0200     		.word	0x2
 1092 0006 00000000 		.secrel32	Ldebug_abbrev0
 1093 000a 04       		.byte	0x4
 1094 000b 01       		.uleb128 0x1
 1095 000c 474E5520 		.ascii "GNU C17 8.1.0 -mtune=generic -march=i686 -g -gdwarf-2 -Og\0"
 1095      43313720 
 1095      382E312E 
 1095      30202D6D 
 1095      74756E65 
 1096 0046 0C       		.byte	0xc
 1097 0047 7372632F 		.ascii "src/HybridBinarizer.c\0"
 1097      48796272 
 1097      69644269 
 1097      6E617269 
 1097      7A65722E 
 1098 005d 443A5C31 		.ascii "D:\\1.Project_workspace\\PDF_BARCODE\0"
 1098      2E50726F 
 1098      6A656374 
 1098      5F776F72 
 1098      6B737061 
 1099 0080 00000000 		.long	Ltext0
 1100 0084 08050000 		.long	Letext0
 1101 0088 00000000 		.secrel32	Ldebug_line0
 1102 008c 02       		.uleb128 0x2
 1103 008d 01       		.byte	0x1
 1104 008e 06       		.byte	0x6
 1105 008f 63686172 		.ascii "char\0"
 1105      00
 1106 0094 02       		.uleb128 0x2
 1107 0095 04       		.byte	0x4
 1108 0096 07       		.byte	0x7
 1109 0097 756E7369 		.ascii "unsigned int\0"
 1109      676E6564 
 1109      20696E74 
GAS LISTING C:\Users\jisu8\AppData\Local\Temp\ccLWfpjm.s 			page 28


 1109      00
 1110 00a4 02       		.uleb128 0x2
 1111 00a5 04       		.byte	0x4
 1112 00a6 05       		.byte	0x5
 1113 00a7 696E7400 		.ascii "int\0"
 1114 00ab 03       		.uleb128 0x3
 1115 00ac A4000000 		.long	0xa4
 1116 00b0 04       		.uleb128 0x4
 1117 00b1 77636861 		.ascii "wchar_t\0"
 1117      725F7400 
 1118 00b9 02       		.byte	0x2
 1119 00ba 62       		.byte	0x62
 1120 00bb 18       		.byte	0x18
 1121 00bc C0000000 		.long	0xc0
 1122 00c0 02       		.uleb128 0x2
 1123 00c1 02       		.byte	0x2
 1124 00c2 07       		.byte	0x7
 1125 00c3 73686F72 		.ascii "short unsigned int\0"
 1125      7420756E 
 1125      7369676E 
 1125      65642069 
 1125      6E7400
 1126 00d6 02       		.uleb128 0x2
 1127 00d7 04       		.byte	0x4
 1128 00d8 05       		.byte	0x5
 1129 00d9 6C6F6E67 		.ascii "long int\0"
 1129      20696E74 
 1129      00
 1130 00e2 02       		.uleb128 0x2
 1131 00e3 08       		.byte	0x8
 1132 00e4 05       		.byte	0x5
 1133 00e5 6C6F6E67 		.ascii "long long int\0"
 1133      206C6F6E 
 1133      6720696E 
 1133      7400
 1134 00f3 05       		.uleb128 0x5
 1135 00f4 04       		.byte	0x4
 1136 00f5 8C000000 		.long	0x8c
 1137 00f9 05       		.uleb128 0x5
 1138 00fa 04       		.byte	0x4
 1139 00fb B0000000 		.long	0xb0
 1140 00ff 05       		.uleb128 0x5
 1141 0100 04       		.byte	0x4
 1142 0101 A4000000 		.long	0xa4
 1143 0105 02       		.uleb128 0x2
 1144 0106 04       		.byte	0x4
 1145 0107 07       		.byte	0x7
 1146 0108 6C6F6E67 		.ascii "long unsigned int\0"
 1146      20756E73 
 1146      69676E65 
 1146      6420696E 
 1146      7400
 1147 011a 02       		.uleb128 0x2
 1148 011b 01       		.byte	0x1
 1149 011c 08       		.byte	0x8
 1150 011d 756E7369 		.ascii "unsigned char\0"
 1150      676E6564 
GAS LISTING C:\Users\jisu8\AppData\Local\Temp\ccLWfpjm.s 			page 29


 1150      20636861 
 1150      7200
 1151 012b 02       		.uleb128 0x2
 1152 012c 0C       		.byte	0xc
 1153 012d 04       		.byte	0x4
 1154 012e 6C6F6E67 		.ascii "long double\0"
 1154      20646F75 
 1154      626C6500 
 1155 013a 02       		.uleb128 0x2
 1156 013b 10       		.byte	0x10
 1157 013c 04       		.byte	0x4
 1158 013d 5F466C6F 		.ascii "_Float128\0"
 1158      61743132 
 1158      3800
 1159 0147 02       		.uleb128 0x2
 1160 0148 01       		.byte	0x1
 1161 0149 06       		.byte	0x6
 1162 014a 7369676E 		.ascii "signed char\0"
 1162      65642063 
 1162      68617200 
 1163 0156 04       		.uleb128 0x4
 1164 0157 75696E74 		.ascii "uint8_t\0"
 1164      385F7400 
 1165 015f 03       		.byte	0x3
 1166 0160 24       		.byte	0x24
 1167 0161 19       		.byte	0x19
 1168 0162 1A010000 		.long	0x11a
 1169 0166 03       		.uleb128 0x3
 1170 0167 56010000 		.long	0x156
 1171 016b 02       		.uleb128 0x2
 1172 016c 02       		.byte	0x2
 1173 016d 05       		.byte	0x5
 1174 016e 73686F72 		.ascii "short int\0"
 1174      7420696E 
 1174      7400
 1175 0178 02       		.uleb128 0x2
 1176 0179 08       		.byte	0x8
 1177 017a 07       		.byte	0x7
 1178 017b 6C6F6E67 		.ascii "long long unsigned int\0"
 1178      206C6F6E 
 1178      6720756E 
 1178      7369676E 
 1178      65642069 
 1179 0192 06       		.uleb128 0x6
 1180 0193 5F696F62 		.ascii "_iobuf\0"
 1180      756600
 1181 019a 20       		.byte	0x20
 1182 019b 04       		.byte	0x4
 1183 019c 1A       		.byte	0x1a
 1184 019d 0A       		.byte	0xa
 1185 019e 32020000 		.long	0x232
 1186 01a2 07       		.uleb128 0x7
 1187 01a3 5F707472 		.ascii "_ptr\0"
 1187      00
 1188 01a8 04       		.byte	0x4
 1189 01a9 1B       		.byte	0x1b
 1190 01aa 0B       		.byte	0xb
GAS LISTING C:\Users\jisu8\AppData\Local\Temp\ccLWfpjm.s 			page 30


 1191 01ab F3000000 		.long	0xf3
 1192 01af 02       		.byte	0x2
 1193 01b0 23       		.byte	0x23
 1194 01b1 00       		.uleb128 0
 1195 01b2 07       		.uleb128 0x7
 1196 01b3 5F636E74 		.ascii "_cnt\0"
 1196      00
 1197 01b8 04       		.byte	0x4
 1198 01b9 1C       		.byte	0x1c
 1199 01ba 09       		.byte	0x9
 1200 01bb A4000000 		.long	0xa4
 1201 01bf 02       		.byte	0x2
 1202 01c0 23       		.byte	0x23
 1203 01c1 04       		.uleb128 0x4
 1204 01c2 07       		.uleb128 0x7
 1205 01c3 5F626173 		.ascii "_base\0"
 1205      6500
 1206 01c9 04       		.byte	0x4
 1207 01ca 1D       		.byte	0x1d
 1208 01cb 0B       		.byte	0xb
 1209 01cc F3000000 		.long	0xf3
 1210 01d0 02       		.byte	0x2
 1211 01d1 23       		.byte	0x23
 1212 01d2 08       		.uleb128 0x8
 1213 01d3 07       		.uleb128 0x7
 1214 01d4 5F666C61 		.ascii "_flag\0"
 1214      6700
 1215 01da 04       		.byte	0x4
 1216 01db 1E       		.byte	0x1e
 1217 01dc 09       		.byte	0x9
 1218 01dd A4000000 		.long	0xa4
 1219 01e1 02       		.byte	0x2
 1220 01e2 23       		.byte	0x23
 1221 01e3 0C       		.uleb128 0xc
 1222 01e4 07       		.uleb128 0x7
 1223 01e5 5F66696C 		.ascii "_file\0"
 1223      6500
 1224 01eb 04       		.byte	0x4
 1225 01ec 1F       		.byte	0x1f
 1226 01ed 09       		.byte	0x9
 1227 01ee A4000000 		.long	0xa4
 1228 01f2 02       		.byte	0x2
 1229 01f3 23       		.byte	0x23
 1230 01f4 10       		.uleb128 0x10
 1231 01f5 07       		.uleb128 0x7
 1232 01f6 5F636861 		.ascii "_charbuf\0"
 1232      72627566 
 1232      00
 1233 01ff 04       		.byte	0x4
 1234 0200 20       		.byte	0x20
 1235 0201 09       		.byte	0x9
 1236 0202 A4000000 		.long	0xa4
 1237 0206 02       		.byte	0x2
 1238 0207 23       		.byte	0x23
 1239 0208 14       		.uleb128 0x14
 1240 0209 07       		.uleb128 0x7
 1241 020a 5F627566 		.ascii "_bufsiz\0"
GAS LISTING C:\Users\jisu8\AppData\Local\Temp\ccLWfpjm.s 			page 31


 1241      73697A00 
 1242 0212 04       		.byte	0x4
 1243 0213 21       		.byte	0x21
 1244 0214 09       		.byte	0x9
 1245 0215 A4000000 		.long	0xa4
 1246 0219 02       		.byte	0x2
 1247 021a 23       		.byte	0x23
 1248 021b 18       		.uleb128 0x18
 1249 021c 07       		.uleb128 0x7
 1250 021d 5F746D70 		.ascii "_tmpfname\0"
 1250      666E616D 
 1250      6500
 1251 0227 04       		.byte	0x4
 1252 0228 22       		.byte	0x22
 1253 0229 0B       		.byte	0xb
 1254 022a F3000000 		.long	0xf3
 1255 022e 02       		.byte	0x2
 1256 022f 23       		.byte	0x23
 1257 0230 1C       		.uleb128 0x1c
 1258 0231 00       		.byte	0
 1259 0232 04       		.uleb128 0x4
 1260 0233 46494C45 		.ascii "FILE\0"
 1260      00
 1261 0238 04       		.byte	0x4
 1262 0239 24       		.byte	0x24
 1263 023a 19       		.byte	0x19
 1264 023b 92010000 		.long	0x192
 1265 023f 08       		.uleb128 0x8
 1266 0240 32020000 		.long	0x232
 1267 0244 4A020000 		.long	0x24a
 1268 0248 09       		.uleb128 0x9
 1269 0249 00       		.byte	0
 1270 024a 0A       		.uleb128 0xa
 1271 024b 5F696D70 		.ascii "_imp___iob\0"
 1271      5F5F5F69 
 1271      6F6200
 1272 0256 04       		.byte	0x4
 1273 0257 5C       		.byte	0x5c
 1274 0258 10       		.byte	0x10
 1275 0259 5F020000 		.long	0x25f
 1276 025d 01       		.byte	0x1
 1277 025e 01       		.byte	0x1
 1278 025f 05       		.uleb128 0x5
 1279 0260 04       		.byte	0x4
 1280 0261 3F020000 		.long	0x23f
 1281 0265 0B       		.uleb128 0xb
 1282 0266 18       		.byte	0x18
 1283 0267 05       		.byte	0x5
 1284 0268 06       		.byte	0x6
 1285 0269 09       		.byte	0x9
 1286 026a D2020000 		.long	0x2d2
 1287 026e 07       		.uleb128 0x7
 1288 026f 70697865 		.ascii "pixels\0"
 1288      6C7300
 1289 0276 05       		.byte	0x5
 1290 0277 08       		.byte	0x8
 1291 0278 15       		.byte	0x15
GAS LISTING C:\Users\jisu8\AppData\Local\Temp\ccLWfpjm.s 			page 32


 1292 0279 D2020000 		.long	0x2d2
 1293 027d 02       		.byte	0x2
 1294 027e 23       		.byte	0x23
 1295 027f 00       		.uleb128 0
 1296 0280 07       		.uleb128 0x7
 1297 0281 6C656674 		.ascii "left\0"
 1297      00
 1298 0286 05       		.byte	0x5
 1299 0287 09       		.byte	0x9
 1300 0288 09       		.byte	0x9
 1301 0289 A4000000 		.long	0xa4
 1302 028d 02       		.byte	0x2
 1303 028e 23       		.byte	0x23
 1304 028f 04       		.uleb128 0x4
 1305 0290 07       		.uleb128 0x7
 1306 0291 746F7000 		.ascii "top\0"
 1307 0295 05       		.byte	0x5
 1308 0296 0A       		.byte	0xa
 1309 0297 09       		.byte	0x9
 1310 0298 A4000000 		.long	0xa4
 1311 029c 02       		.byte	0x2
 1312 029d 23       		.byte	0x23
 1313 029e 08       		.uleb128 0x8
 1314 029f 0C       		.uleb128 0xc
 1315 02a0 3A000000 		.secrel32	LASF0
 1316 02a4 05       		.byte	0x5
 1317 02a5 0B       		.byte	0xb
 1318 02a6 09       		.byte	0x9
 1319 02a7 A4000000 		.long	0xa4
 1320 02ab 02       		.byte	0x2
 1321 02ac 23       		.byte	0x23
 1322 02ad 0C       		.uleb128 0xc
 1323 02ae 0C       		.uleb128 0xc
 1324 02af 11000000 		.secrel32	LASF1
 1325 02b3 05       		.byte	0x5
 1326 02b4 0C       		.byte	0xc
 1327 02b5 09       		.byte	0x9
 1328 02b6 A4000000 		.long	0xa4
 1329 02ba 02       		.byte	0x2
 1330 02bb 23       		.byte	0x23
 1331 02bc 10       		.uleb128 0x10
 1332 02bd 07       		.uleb128 0x7
 1333 02be 726F7742 		.ascii "rowBytes\0"
 1333      79746573 
 1333      00
 1334 02c7 05       		.byte	0x5
 1335 02c8 0D       		.byte	0xd
 1336 02c9 09       		.byte	0x9
 1337 02ca A4000000 		.long	0xa4
 1338 02ce 02       		.byte	0x2
 1339 02cf 23       		.byte	0x23
 1340 02d0 14       		.uleb128 0x14
 1341 02d1 00       		.byte	0
 1342 02d2 05       		.uleb128 0x5
 1343 02d3 04       		.byte	0x4
 1344 02d4 1A010000 		.long	0x11a
 1345 02d8 04       		.uleb128 0x4
GAS LISTING C:\Users\jisu8\AppData\Local\Temp\ccLWfpjm.s 			page 33


 1346 02d9 47656E65 		.ascii "GenericLuminanceSource_t\0"
 1346      7269634C 
 1346      756D696E 
 1346      616E6365 
 1346      536F7572 
 1347 02f2 05       		.byte	0x5
 1348 02f3 0E       		.byte	0xe
 1349 02f4 02       		.byte	0x2
 1350 02f5 65020000 		.long	0x265
 1351 02f9 0B       		.uleb128 0xb
 1352 02fa 10       		.byte	0x10
 1353 02fb 06       		.byte	0x6
 1354 02fc 06       		.byte	0x6
 1355 02fd 09       		.byte	0x9
 1356 02fe 4C030000 		.long	0x34c
 1357 0302 07       		.uleb128 0x7
 1358 0303 5F776964 		.ascii "_width\0"
 1358      746800
 1359 030a 06       		.byte	0x6
 1360 030b 08       		.byte	0x8
 1361 030c 06       		.byte	0x6
 1362 030d A4000000 		.long	0xa4
 1363 0311 02       		.byte	0x2
 1364 0312 23       		.byte	0x23
 1365 0313 00       		.uleb128 0
 1366 0314 07       		.uleb128 0x7
 1367 0315 5F686569 		.ascii "_height\0"
 1367      67687400 
 1368 031d 06       		.byte	0x6
 1369 031e 09       		.byte	0x9
 1370 031f 06       		.byte	0x6
 1371 0320 A4000000 		.long	0xa4
 1372 0324 02       		.byte	0x2
 1373 0325 23       		.byte	0x23
 1374 0326 04       		.uleb128 0x4
 1375 0327 07       		.uleb128 0x7
 1376 0328 5F726F77 		.ascii "_rowSize\0"
 1376      53697A65 
 1376      00
 1377 0331 06       		.byte	0x6
 1378 0332 0A       		.byte	0xa
 1379 0333 06       		.byte	0x6
 1380 0334 A4000000 		.long	0xa4
 1381 0338 02       		.byte	0x2
 1382 0339 23       		.byte	0x23
 1383 033a 08       		.uleb128 0x8
 1384 033b 07       		.uleb128 0x7
 1385 033c 62697473 		.ascii "bits\0"
 1385      00
 1386 0341 06       		.byte	0x6
 1387 0342 0B       		.byte	0xb
 1388 0343 0C       		.byte	0xc
 1389 0344 4C030000 		.long	0x34c
 1390 0348 02       		.byte	0x2
 1391 0349 23       		.byte	0x23
 1392 034a 0C       		.uleb128 0xc
 1393 034b 00       		.byte	0
GAS LISTING C:\Users\jisu8\AppData\Local\Temp\ccLWfpjm.s 			page 34


 1394 034c 05       		.uleb128 0x5
 1395 034d 04       		.byte	0x4
 1396 034e 56010000 		.long	0x156
 1397 0352 03       		.uleb128 0x3
 1398 0353 4C030000 		.long	0x34c
 1399 0357 04       		.uleb128 0x4
 1400 0358 4269744D 		.ascii "BitMatrix_t\0"
 1400      61747269 
 1400      785F7400 
 1401 0364 06       		.byte	0x6
 1402 0365 0E       		.byte	0xe
 1403 0366 02       		.byte	0x2
 1404 0367 F9020000 		.long	0x2f9
 1405 036b 0B       		.uleb128 0xb
 1406 036c 0C       		.byte	0xc
 1407 036d 07       		.byte	0x7
 1408 036e 04       		.byte	0x4
 1409 036f 09       		.byte	0x9
 1410 0370 A3030000 		.long	0x3a3
 1411 0374 0C       		.uleb128 0xc
 1412 0375 3A000000 		.secrel32	LASF0
 1413 0379 07       		.byte	0x7
 1414 037a 06       		.byte	0x6
 1415 037b 06       		.byte	0x6
 1416 037c A4000000 		.long	0xa4
 1417 0380 02       		.byte	0x2
 1418 0381 23       		.byte	0x23
 1419 0382 00       		.uleb128 0
 1420 0383 0C       		.uleb128 0xc
 1421 0384 11000000 		.secrel32	LASF1
 1422 0388 07       		.byte	0x7
 1423 0389 07       		.byte	0x7
 1424 038a 06       		.byte	0x6
 1425 038b A4000000 		.long	0xa4
 1426 038f 02       		.byte	0x2
 1427 0390 23       		.byte	0x23
 1428 0391 04       		.uleb128 0x4
 1429 0392 07       		.uleb128 0x7
 1430 0393 64617461 		.ascii "data\0"
 1430      00
 1431 0398 07       		.byte	0x7
 1432 0399 08       		.byte	0x8
 1433 039a 11       		.byte	0x11
 1434 039b A3030000 		.long	0x3a3
 1435 039f 02       		.byte	0x2
 1436 03a0 23       		.byte	0x23
 1437 03a1 08       		.uleb128 0x8
 1438 03a2 00       		.byte	0
 1439 03a3 05       		.uleb128 0x5
 1440 03a4 04       		.byte	0x4
 1441 03a5 94000000 		.long	0x94
 1442 03a9 04       		.uleb128 0x4
 1443 03aa 4D617472 		.ascii "Matrix_t\0"
 1443      69785F74 
 1443      00
 1444 03b3 07       		.byte	0x7
 1445 03b4 09       		.byte	0x9
GAS LISTING C:\Users\jisu8\AppData\Local\Temp\ccLWfpjm.s 			page 35


 1446 03b5 02       		.byte	0x2
 1447 03b6 6B030000 		.long	0x36b
 1448 03ba 02       		.uleb128 0x2
 1449 03bb 08       		.byte	0x8
 1450 03bc 04       		.byte	0x4
 1451 03bd 646F7562 		.ascii "double\0"
 1451      6C6500
 1452 03c4 02       		.uleb128 0x2
 1453 03c5 04       		.byte	0x4
 1454 03c6 04       		.byte	0x4
 1455 03c7 666C6F61 		.ascii "float\0"
 1455      7400
 1456 03cd 0A       		.uleb128 0xa
 1457 03ce 5F696D70 		.ascii "_imp____mb_cur_max\0"
 1457      5F5F5F5F 
 1457      6D625F63 
 1457      75725F6D 
 1457      617800
 1458 03e1 08       		.byte	0x8
 1459 03e2 73       		.byte	0x73
 1460 03e3 10       		.byte	0x10
 1461 03e4 FF000000 		.long	0xff
 1462 03e8 01       		.byte	0x1
 1463 03e9 01       		.byte	0x1
 1464 03ea 08       		.uleb128 0x8
 1465 03eb F3000000 		.long	0xf3
 1466 03ef FA030000 		.long	0x3fa
 1467 03f3 0D       		.uleb128 0xd
 1468 03f4 94000000 		.long	0x94
 1469 03f8 00       		.byte	0
 1470 03f9 00       		.byte	0
 1471 03fa 0A       		.uleb128 0xa
 1472 03fb 5F737973 		.ascii "_sys_errlist\0"
 1472      5F657272 
 1472      6C697374 
 1472      00
 1473 0408 08       		.byte	0x8
 1474 0409 AC       		.byte	0xac
 1475 040a 26       		.byte	0x26
 1476 040b EA030000 		.long	0x3ea
 1477 040f 01       		.byte	0x1
 1478 0410 01       		.byte	0x1
 1479 0411 0A       		.uleb128 0xa
 1480 0412 5F737973 		.ascii "_sys_nerr\0"
 1480      5F6E6572 
 1480      7200
 1481 041c 08       		.byte	0x8
 1482 041d AD       		.byte	0xad
 1483 041e 24       		.byte	0x24
 1484 041f A4000000 		.long	0xa4
 1485 0423 01       		.byte	0x1
 1486 0424 01       		.byte	0x1
 1487 0425 0E       		.uleb128 0xe
 1488 0426 5F696D70 		.ascii "_imp____argc\0"
 1488      5F5F5F5F 
 1488      61726763 
 1488      00
GAS LISTING C:\Users\jisu8\AppData\Local\Temp\ccLWfpjm.s 			page 36


 1489 0433 08       		.byte	0x8
 1490 0434 1901     		.word	0x119
 1491 0436 10       		.byte	0x10
 1492 0437 FF000000 		.long	0xff
 1493 043b 01       		.byte	0x1
 1494 043c 01       		.byte	0x1
 1495 043d 0E       		.uleb128 0xe
 1496 043e 5F696D70 		.ascii "_imp____argv\0"
 1496      5F5F5F5F 
 1496      61726776 
 1496      00
 1497 044b 08       		.byte	0x8
 1498 044c 1D01     		.word	0x11d
 1499 044e 13       		.byte	0x13
 1500 044f 55040000 		.long	0x455
 1501 0453 01       		.byte	0x1
 1502 0454 01       		.byte	0x1
 1503 0455 05       		.uleb128 0x5
 1504 0456 04       		.byte	0x4
 1505 0457 5B040000 		.long	0x45b
 1506 045b 05       		.uleb128 0x5
 1507 045c 04       		.byte	0x4
 1508 045d F3000000 		.long	0xf3
 1509 0461 0E       		.uleb128 0xe
 1510 0462 5F696D70 		.ascii "_imp____wargv\0"
 1510      5F5F5F5F 
 1510      77617267 
 1510      7600
 1511 0470 08       		.byte	0x8
 1512 0471 2101     		.word	0x121
 1513 0473 16       		.byte	0x16
 1514 0474 7A040000 		.long	0x47a
 1515 0478 01       		.byte	0x1
 1516 0479 01       		.byte	0x1
 1517 047a 05       		.uleb128 0x5
 1518 047b 04       		.byte	0x4
 1519 047c 80040000 		.long	0x480
 1520 0480 05       		.uleb128 0x5
 1521 0481 04       		.byte	0x4
 1522 0482 F9000000 		.long	0xf9
 1523 0486 0E       		.uleb128 0xe
 1524 0487 5F696D70 		.ascii "_imp___environ\0"
 1524      5F5F5F65 
 1524      6E766972 
 1524      6F6E00
 1525 0496 08       		.byte	0x8
 1526 0497 2701     		.word	0x127
 1527 0499 13       		.byte	0x13
 1528 049a 55040000 		.long	0x455
 1529 049e 01       		.byte	0x1
 1530 049f 01       		.byte	0x1
 1531 04a0 0E       		.uleb128 0xe
 1532 04a1 5F696D70 		.ascii "_imp___wenviron\0"
 1532      5F5F5F77 
 1532      656E7669 
 1532      726F6E00 
 1533 04b1 08       		.byte	0x8
GAS LISTING C:\Users\jisu8\AppData\Local\Temp\ccLWfpjm.s 			page 37


 1534 04b2 2C01     		.word	0x12c
 1535 04b4 16       		.byte	0x16
 1536 04b5 7A040000 		.long	0x47a
 1537 04b9 01       		.byte	0x1
 1538 04ba 01       		.byte	0x1
 1539 04bb 0E       		.uleb128 0xe
 1540 04bc 5F696D70 		.ascii "_imp___pgmptr\0"
 1540      5F5F5F70 
 1540      676D7074 
 1540      7200
 1541 04ca 08       		.byte	0x8
 1542 04cb 3201     		.word	0x132
 1543 04cd 12       		.byte	0x12
 1544 04ce 5B040000 		.long	0x45b
 1545 04d2 01       		.byte	0x1
 1546 04d3 01       		.byte	0x1
 1547 04d4 0E       		.uleb128 0xe
 1548 04d5 5F696D70 		.ascii "_imp___wpgmptr\0"
 1548      5F5F5F77 
 1548      70676D70 
 1548      747200
 1549 04e4 08       		.byte	0x8
 1550 04e5 3701     		.word	0x137
 1551 04e7 15       		.byte	0x15
 1552 04e8 80040000 		.long	0x480
 1553 04ec 01       		.byte	0x1
 1554 04ed 01       		.byte	0x1
 1555 04ee 0E       		.uleb128 0xe
 1556 04ef 5F696D70 		.ascii "_imp___osplatform\0"
 1556      5F5F5F6F 
 1556      73706C61 
 1556      74666F72 
 1556      6D00
 1557 0501 08       		.byte	0x8
 1558 0502 3C01     		.word	0x13c
 1559 0504 19       		.byte	0x19
 1560 0505 A3030000 		.long	0x3a3
 1561 0509 01       		.byte	0x1
 1562 050a 01       		.byte	0x1
 1563 050b 0E       		.uleb128 0xe
 1564 050c 5F696D70 		.ascii "_imp___osver\0"
 1564      5F5F5F6F 
 1564      73766572 
 1564      00
 1565 0519 08       		.byte	0x8
 1566 051a 4101     		.word	0x141
 1567 051c 19       		.byte	0x19
 1568 051d A3030000 		.long	0x3a3
 1569 0521 01       		.byte	0x1
 1570 0522 01       		.byte	0x1
 1571 0523 0E       		.uleb128 0xe
 1572 0524 5F696D70 		.ascii "_imp___winver\0"
 1572      5F5F5F77 
 1572      696E7665 
 1572      7200
 1573 0532 08       		.byte	0x8
 1574 0533 4601     		.word	0x146
GAS LISTING C:\Users\jisu8\AppData\Local\Temp\ccLWfpjm.s 			page 38


 1575 0535 19       		.byte	0x19
 1576 0536 A3030000 		.long	0x3a3
 1577 053a 01       		.byte	0x1
 1578 053b 01       		.byte	0x1
 1579 053c 0E       		.uleb128 0xe
 1580 053d 5F696D70 		.ascii "_imp___winmajor\0"
 1580      5F5F5F77 
 1580      696E6D61 
 1580      6A6F7200 
 1581 054d 08       		.byte	0x8
 1582 054e 4B01     		.word	0x14b
 1583 0550 19       		.byte	0x19
 1584 0551 A3030000 		.long	0x3a3
 1585 0555 01       		.byte	0x1
 1586 0556 01       		.byte	0x1
 1587 0557 0E       		.uleb128 0xe
 1588 0558 5F696D70 		.ascii "_imp___winminor\0"
 1588      5F5F5F77 
 1588      696E6D69 
 1588      6E6F7200 
 1589 0568 08       		.byte	0x8
 1590 0569 5001     		.word	0x150
 1591 056b 19       		.byte	0x19
 1592 056c A3030000 		.long	0x3a3
 1593 0570 01       		.byte	0x1
 1594 0571 01       		.byte	0x1
 1595 0572 0A       		.uleb128 0xa
 1596 0573 5F616D62 		.ascii "_amblksiz\0"
 1596      6C6B7369 
 1596      7A00
 1597 057d 09       		.byte	0x9
 1598 057e 35       		.byte	0x35
 1599 057f 17       		.byte	0x17
 1600 0580 94000000 		.long	0x94
 1601 0584 01       		.byte	0x1
 1602 0585 01       		.byte	0x1
 1603 0586 0F       		.uleb128 0xf
 1604 0587 626C6163 		.ascii "blackPoints\0"
 1604      6B506F69 
 1604      6E747300 
 1605 0593 01       		.byte	0x1
 1606 0594 07       		.byte	0x7
 1607 0595 0A       		.byte	0xa
 1608 0596 A9030000 		.long	0x3a9
 1609 059a 01       		.byte	0x1
 1610 059b 05       		.byte	0x5
 1611 059c 03       		.byte	0x3
 1612 059d 00000000 		.long	_blackPoints
 1613 05a1 10       		.uleb128 0x10
 1614 05a2 33000000 		.secrel32	LASF2
 1615 05a6 01       		.byte	0x1
 1616 05a7 08       		.byte	0x8
 1617 05a8 0D       		.byte	0xd
 1618 05a9 57030000 		.long	0x357
 1619 05ad 01       		.byte	0x1
 1620 05ae 05       		.byte	0x5
 1621 05af 03       		.byte	0x3
GAS LISTING C:\Users\jisu8\AppData\Local\Temp\ccLWfpjm.s 			page 39


 1622 05b0 00000000 		.long	_matrix
 1623 05b4 11       		.uleb128 0x11
 1624 05b5 424C4F43 		.ascii "BLOCK_SIZE\0"
 1624      4B5F5349 
 1624      5A4500
 1625 05c0 01       		.byte	0x1
 1626 05c1 0A       		.byte	0xa
 1627 05c2 12       		.byte	0x12
 1628 05c3 AB000000 		.long	0xab
 1629 05c7 08       		.byte	0x8
 1630 05c8 11       		.uleb128 0x11
 1631 05c9 4D494E49 		.ascii "MINIMUM_DIMENSION\0"
 1631      4D554D5F 
 1631      44494D45 
 1631      4E53494F 
 1631      4E00
 1632 05db 01       		.byte	0x1
 1633 05dc 0B       		.byte	0xb
 1634 05dd 12       		.byte	0x12
 1635 05de AB000000 		.long	0xab
 1636 05e2 28       		.byte	0x28
 1637 05e3 11       		.uleb128 0x11
 1638 05e4 4D494E5F 		.ascii "MIN_DYNAMIC_RANGE\0"
 1638      44594E41 
 1638      4D49435F 
 1638      52414E47 
 1638      4500
 1639 05f6 01       		.byte	0x1
 1640 05f7 0C       		.byte	0xc
 1641 05f8 12       		.byte	0x12
 1642 05f9 AB000000 		.long	0xab
 1643 05fd 18       		.byte	0x18
 1644 05fe 08       		.uleb128 0x8
 1645 05ff 94000000 		.long	0x94
 1646 0603 16060000 		.long	0x616
 1647 0607 12       		.uleb128 0x12
 1648 0608 94000000 		.long	0x94
 1649 060c E703     		.word	0x3e7
 1650 060e 12       		.uleb128 0x12
 1651 060f 94000000 		.long	0x94
 1652 0613 E703     		.word	0x3e7
 1653 0615 00       		.byte	0
 1654 0616 0F       		.uleb128 0xf
 1655 0617 626C6163 		.ascii "blackpoints_data\0"
 1655      6B706F69 
 1655      6E74735F 
 1655      64617461 
 1655      00
 1656 0628 01       		.byte	0x1
 1657 0629 0E       		.byte	0xe
 1658 062a 0E       		.byte	0xe
 1659 062b FE050000 		.long	0x5fe
 1660 062f 01       		.byte	0x1
 1661 0630 05       		.byte	0x5
 1662 0631 03       		.byte	0x3
 1663 0632 00000000 		.long	_blackpoints_data
 1664 0636 08       		.uleb128 0x8
GAS LISTING C:\Users\jisu8\AppData\Local\Temp\ccLWfpjm.s 			page 40


 1665 0637 56010000 		.long	0x156
 1666 063b 49060000 		.long	0x649
 1667 063f 13       		.uleb128 0x13
 1668 0640 94000000 		.long	0x94
 1669 0644 FFC10100 		.long	0x1c1ff
 1670 0648 00       		.byte	0
 1671 0649 0F       		.uleb128 0xf
 1672 064a 6D617472 		.ascii "matrix_bits\0"
 1672      69785F62 
 1672      69747300 
 1673 0656 01       		.byte	0x1
 1674 0657 0F       		.byte	0xf
 1675 0658 09       		.byte	0x9
 1676 0659 36060000 		.long	0x636
 1677 065d 01       		.byte	0x1
 1678 065e 05       		.byte	0x5
 1679 065f 03       		.byte	0x3
 1680 0660 00000000 		.long	_matrix_bits
 1681 0664 14       		.uleb128 0x14
 1682 0665 01       		.byte	0x1
 1683 0666 67657442 		.ascii "getBlackMatrix\0"
 1683      6C61636B 
 1683      4D617472 
 1683      697800
 1684 0675 01       		.byte	0x1
 1685 0676 B8       		.byte	0xb8
 1686 0677 11       		.byte	0x11
 1687 0678 01       		.byte	0x1
 1688 0679 D2020000 		.long	0x2d2
 1689 067d B0040000 		.long	LFB29
 1690 0681 08050000 		.long	LFE29
 1691 0685 00000000 		.secrel32	LLST55
 1692 0689 01       		.byte	0x1
 1693 068a F8060000 		.long	0x6f8
 1694 068e 15       		.uleb128 0x15
 1695 068f 696D6167 		.ascii "image\0"
 1695      6500
 1696 0695 01       		.byte	0x1
 1697 0696 B8       		.byte	0xb8
 1698 0697 3B       		.byte	0x3b
 1699 0698 F8060000 		.long	0x6f8
 1700 069c 02       		.byte	0x2
 1701 069d 91       		.byte	0x91
 1702 069e 00       		.sleb128 0
 1703 069f 16       		.uleb128 0x16
 1704 06a0 3A000000 		.secrel32	LASF0
 1705 06a4 01       		.byte	0x1
 1706 06a5 BB       		.byte	0xbb
 1707 06a6 06       		.byte	0x6
 1708 06a7 A4000000 		.long	0xa4
 1709 06ab 56000000 		.secrel32	LLST56
 1710 06af 50000000 		.secrel32	LVUS56
 1711 06b3 16       		.uleb128 0x16
 1712 06b4 11000000 		.secrel32	LASF1
 1713 06b8 01       		.byte	0x1
 1714 06b9 BC       		.byte	0xbc
 1715 06ba 06       		.byte	0x6
GAS LISTING C:\Users\jisu8\AppData\Local\Temp\ccLWfpjm.s 			page 41


 1716 06bb A4000000 		.long	0xa4
 1717 06bf 8B000000 		.secrel32	LLST57
 1718 06c3 87000000 		.secrel32	LVUS57
 1719 06c7 17       		.uleb128 0x17
 1720 06c8 F4040000 		.long	LVL112
 1721 06cc FE060000 		.long	0x6fe
 1722 06d0 E5060000 		.long	0x6e5
 1723 06d4 18       		.uleb128 0x18
 1724 06d5 01       		.byte	0x1
 1725 06d6 50       		.byte	0x50
 1726 06d7 03       		.byte	0x3
 1727 06d8 91       		.byte	0x91
 1728 06d9 00       		.sleb128 0
 1729 06da 06       		.byte	0x6
 1730 06db 18       		.uleb128 0x18
 1731 06dc 01       		.byte	0x1
 1732 06dd 52       		.byte	0x52
 1733 06de 05       		.byte	0x5
 1734 06df 03       		.byte	0x3
 1735 06e0 00000000 		.long	_matrix
 1736 06e4 00       		.byte	0
 1737 06e5 19       		.uleb128 0x19
 1738 06e6 06050000 		.long	LVL114
 1739 06ea 64060000 		.long	0x664
 1740 06ee 18       		.uleb128 0x18
 1741 06ef 02       		.byte	0x2
 1742 06f0 74       		.byte	0x74
 1743 06f1 00       		.sleb128 0
 1744 06f2 03       		.byte	0x3
 1745 06f3 91       		.byte	0x91
 1746 06f4 00       		.sleb128 0
 1747 06f5 06       		.byte	0x6
 1748 06f6 00       		.byte	0
 1749 06f7 00       		.byte	0
 1750 06f8 05       		.uleb128 0x5
 1751 06f9 04       		.byte	0x4
 1752 06fa D8020000 		.long	0x2d8
 1753 06fe 1A       		.uleb128 0x1a
 1754 06ff 496E6974 		.ascii "InitBlackMatrix\0"
 1754      426C6163 
 1754      6B4D6174 
 1754      72697800 
 1755 070f 01       		.byte	0x1
 1756 0710 A7       		.byte	0xa7
 1757 0711 0D       		.byte	0xd
 1758 0712 01       		.byte	0x1
 1759 0713 0A040000 		.long	LFB28
 1760 0717 B0040000 		.long	LFE28
 1761 071b A9000000 		.secrel32	LLST46
 1762 071f 01       		.byte	0x1
 1763 0720 78080000 		.long	0x878
 1764 0724 1B       		.uleb128 0x1b
 1765 0725 736F7572 		.ascii "source\0"
 1765      636500
 1766 072c 01       		.byte	0x1
 1767 072d A7       		.byte	0xa7
 1768 072e 38       		.byte	0x38
GAS LISTING C:\Users\jisu8\AppData\Local\Temp\ccLWfpjm.s 			page 42


 1769 072f F8060000 		.long	0x6f8
 1770 0733 3A010000 		.secrel32	LLST47
 1771 0737 36010000 		.secrel32	LVUS47
 1772 073b 1B       		.uleb128 0x1b
 1773 073c 6F75744D 		.ascii "outMatrix\0"
 1773      61747269 
 1773      7800
 1774 0746 01       		.byte	0x1
 1775 0747 A7       		.byte	0xa7
 1776 0748 4E       		.byte	0x4e
 1777 0749 78080000 		.long	0x878
 1778 074d 5F010000 		.secrel32	LLST48
 1779 0751 5B010000 		.secrel32	LVUS48
 1780 0755 16       		.uleb128 0x16
 1781 0756 33000000 		.secrel32	LASF2
 1782 075a 01       		.byte	0x1
 1783 075b A9       		.byte	0xa9
 1784 075c 10       		.byte	0x10
 1785 075d 78080000 		.long	0x878
 1786 0761 82010000 		.secrel32	LLST49
 1787 0765 7E010000 		.secrel32	LVUS49
 1788 0769 16       		.uleb128 0x16
 1789 076a 3A000000 		.secrel32	LASF0
 1790 076e 01       		.byte	0x1
 1791 076f AA       		.byte	0xaa
 1792 0770 06       		.byte	0x6
 1793 0771 A4000000 		.long	0xa4
 1794 0775 A3010000 		.secrel32	LLST50
 1795 0779 A1010000 		.secrel32	LVUS50
 1796 077d 16       		.uleb128 0x16
 1797 077e 11000000 		.secrel32	LASF1
 1798 0782 01       		.byte	0x1
 1799 0783 AB       		.byte	0xab
 1800 0784 06       		.byte	0x6
 1801 0785 A4000000 		.long	0xa4
 1802 0789 B8010000 		.secrel32	LLST51
 1803 078d B6010000 		.secrel32	LVUS51
 1804 0791 11       		.uleb128 0x11
 1805 0792 62756666 		.ascii "buffer\0"
 1805      657200
 1806 0799 01       		.byte	0x1
 1807 079a AC       		.byte	0xac
 1808 079b 0C       		.byte	0xc
 1809 079c 4C030000 		.long	0x34c
 1810 07a0 00       		.byte	0
 1811 07a1 1C       		.uleb128 0x1c
 1812 07a2 00000000 		.secrel32	LASF3
 1813 07a6 01       		.byte	0x1
 1814 07a7 AD       		.byte	0xad
 1815 07a8 06       		.byte	0x6
 1816 07a9 A4000000 		.long	0xa4
 1817 07ad 02       		.byte	0x2
 1818 07ae 91       		.byte	0x91
 1819 07af 5C       		.sleb128 -36
 1820 07b0 16       		.uleb128 0x16
 1821 07b1 40000000 		.secrel32	LASF4
 1822 07b5 01       		.byte	0x1
GAS LISTING C:\Users\jisu8\AppData\Local\Temp\ccLWfpjm.s 			page 43


 1823 07b6 AF       		.byte	0xaf
 1824 07b7 0B       		.byte	0xb
 1825 07b8 4C030000 		.long	0x34c
 1826 07bc CF010000 		.secrel32	LLST52
 1827 07c0 CB010000 		.secrel32	LVUS52
 1828 07c4 16       		.uleb128 0x16
 1829 07c5 2A000000 		.secrel32	LASF5
 1830 07c9 01       		.byte	0x1
 1831 07ca B0       		.byte	0xb0
 1832 07cb 06       		.byte	0x6
 1833 07cc A4000000 		.long	0xa4
 1834 07d0 F2010000 		.secrel32	LLST53
 1835 07d4 EE010000 		.secrel32	LVUS53
 1836 07d8 16       		.uleb128 0x16
 1837 07d9 20000000 		.secrel32	LASF6
 1838 07dd 01       		.byte	0x1
 1839 07de B1       		.byte	0xb1
 1840 07df 06       		.byte	0x6
 1841 07e0 A4000000 		.long	0xa4
 1842 07e4 23020000 		.secrel32	LLST54
 1843 07e8 1F020000 		.secrel32	LVUS54
 1844 07ec 17       		.uleb128 0x17
 1845 07ed 43040000 		.long	LVL97
 1846 07f1 CF0E0000 		.long	0xecf
 1847 07f5 15080000 		.long	0x815
 1848 07f9 18       		.uleb128 0x18
 1849 07fa 02       		.byte	0x2
 1850 07fb 74       		.byte	0x74
 1851 07fc 00       		.sleb128 0
 1852 07fd 03       		.byte	0x3
 1853 07fe F3       		.byte	0xf3
 1854 07ff 01       		.uleb128 0x1
 1855 0800 50       		.byte	0x50
 1856 0801 18       		.uleb128 0x18
 1857 0802 02       		.byte	0x2
 1858 0803 74       		.byte	0x74
 1859 0804 04       		.sleb128 4
 1860 0805 01       		.byte	0x1
 1861 0806 30       		.byte	0x30
 1862 0807 18       		.uleb128 0x18
 1863 0808 02       		.byte	0x2
 1864 0809 74       		.byte	0x74
 1865 080a 08       		.sleb128 8
 1866 080b 02       		.byte	0x2
 1867 080c 91       		.byte	0x91
 1868 080d 5C       		.sleb128 -36
 1869 080e 18       		.uleb128 0x18
 1870 080f 02       		.byte	0x2
 1871 0810 74       		.byte	0x74
 1872 0811 0C       		.sleb128 12
 1873 0812 01       		.byte	0x1
 1874 0813 30       		.byte	0x30
 1875 0814 00       		.byte	0
 1876 0815 17       		.uleb128 0x17
 1877 0816 7F040000 		.long	LVL102
 1878 081a 580C0000 		.long	0xc58
 1879 081e 44080000 		.long	0x844
GAS LISTING C:\Users\jisu8\AppData\Local\Temp\ccLWfpjm.s 			page 44


 1880 0822 18       		.uleb128 0x18
 1881 0823 01       		.byte	0x1
 1882 0824 50       		.byte	0x50
 1883 0825 03       		.byte	0x3
 1884 0826 91       		.byte	0x91
 1885 0827 48       		.sleb128 -56
 1886 0828 06       		.byte	0x6
 1887 0829 18       		.uleb128 0x18
 1888 082a 01       		.byte	0x1
 1889 082b 52       		.byte	0x52
 1890 082c 02       		.byte	0x2
 1891 082d 73       		.byte	0x73
 1892 082e 00       		.sleb128 0
 1893 082f 18       		.uleb128 0x18
 1894 0830 01       		.byte	0x1
 1895 0831 51       		.byte	0x51
 1896 0832 02       		.byte	0x2
 1897 0833 76       		.byte	0x76
 1898 0834 00       		.sleb128 0
 1899 0835 18       		.uleb128 0x18
 1900 0836 02       		.byte	0x2
 1901 0837 74       		.byte	0x74
 1902 0838 00       		.sleb128 0
 1903 0839 02       		.byte	0x2
 1904 083a 77       		.byte	0x77
 1905 083b 00       		.sleb128 0
 1906 083c 18       		.uleb128 0x18
 1907 083d 02       		.byte	0x2
 1908 083e 74       		.byte	0x74
 1909 083f 04       		.sleb128 4
 1910 0840 02       		.byte	0x2
 1911 0841 75       		.byte	0x75
 1912 0842 00       		.sleb128 0
 1913 0843 00       		.byte	0
 1914 0844 19       		.uleb128 0x19
 1915 0845 A8040000 		.long	LVL103
 1916 0849 7E080000 		.long	0x87e
 1917 084d 18       		.uleb128 0x18
 1918 084e 01       		.byte	0x1
 1919 084f 50       		.byte	0x50
 1920 0850 03       		.byte	0x3
 1921 0851 91       		.byte	0x91
 1922 0852 48       		.sleb128 -56
 1923 0853 06       		.byte	0x6
 1924 0854 18       		.uleb128 0x18
 1925 0855 01       		.byte	0x1
 1926 0856 52       		.byte	0x52
 1927 0857 02       		.byte	0x2
 1928 0858 73       		.byte	0x73
 1929 0859 00       		.sleb128 0
 1930 085a 18       		.uleb128 0x18
 1931 085b 01       		.byte	0x1
 1932 085c 51       		.byte	0x51
 1933 085d 02       		.byte	0x2
 1934 085e 76       		.byte	0x76
 1935 085f 00       		.sleb128 0
 1936 0860 18       		.uleb128 0x18
GAS LISTING C:\Users\jisu8\AppData\Local\Temp\ccLWfpjm.s 			page 45


 1937 0861 02       		.byte	0x2
 1938 0862 74       		.byte	0x74
 1939 0863 00       		.sleb128 0
 1940 0864 02       		.byte	0x2
 1941 0865 77       		.byte	0x77
 1942 0866 00       		.sleb128 0
 1943 0867 18       		.uleb128 0x18
 1944 0868 02       		.byte	0x2
 1945 0869 74       		.byte	0x74
 1946 086a 04       		.sleb128 4
 1947 086b 02       		.byte	0x2
 1948 086c 75       		.byte	0x75
 1949 086d 00       		.sleb128 0
 1950 086e 18       		.uleb128 0x18
 1951 086f 02       		.byte	0x2
 1952 0870 74       		.byte	0x74
 1953 0871 0C       		.sleb128 12
 1954 0872 03       		.byte	0x3
 1955 0873 91       		.byte	0x91
 1956 0874 4C       		.sleb128 -52
 1957 0875 06       		.byte	0x6
 1958 0876 00       		.byte	0
 1959 0877 00       		.byte	0
 1960 0878 05       		.uleb128 0x5
 1961 0879 04       		.byte	0x4
 1962 087a 57030000 		.long	0x357
 1963 087e 1A       		.uleb128 0x1a
 1964 087f 43616C63 		.ascii "CalculateThresholdForBlock\0"
 1964      756C6174 
 1964      65546872 
 1964      6573686F 
 1964      6C64466F 
 1965 089a 01       		.byte	0x1
 1966 089b 86       		.byte	0x86
 1967 089c 0D       		.byte	0xd
 1968 089d 01       		.byte	0x1
 1969 089e C7020000 		.long	LFB27
 1970 08a2 0A040000 		.long	LFE27
 1971 08a6 50020000 		.secrel32	LLST26
 1972 08aa 01       		.byte	0x1
 1973 08ab E00A0000 		.long	0xae0
 1974 08af 1D       		.uleb128 0x1d
 1975 08b0 40000000 		.secrel32	LASF4
 1976 08b4 01       		.byte	0x1
 1977 08b5 86       		.byte	0x86
 1978 08b6 37       		.byte	0x37
 1979 08b7 E00A0000 		.long	0xae0
 1980 08bb E1020000 		.secrel32	LLST27
 1981 08bf DD020000 		.secrel32	LVUS27
 1982 08c3 1D       		.uleb128 0x1d
 1983 08c4 2A000000 		.secrel32	LASF5
 1984 08c8 01       		.byte	0x1
 1985 08c9 86       		.byte	0x86
 1986 08ca 47       		.byte	0x47
 1987 08cb A4000000 		.long	0xa4
 1988 08cf 04030000 		.secrel32	LLST28
 1989 08d3 00030000 		.secrel32	LVUS28
GAS LISTING C:\Users\jisu8\AppData\Local\Temp\ccLWfpjm.s 			page 46


 1990 08d7 1D       		.uleb128 0x1d
 1991 08d8 20000000 		.secrel32	LASF6
 1992 08dc 01       		.byte	0x1
 1993 08dd 86       		.byte	0x86
 1994 08de 55       		.byte	0x55
 1995 08df A4000000 		.long	0xa4
 1996 08e3 27030000 		.secrel32	LLST29
 1997 08e7 23030000 		.secrel32	LVUS29
 1998 08eb 1E       		.uleb128 0x1e
 1999 08ec 3A000000 		.secrel32	LASF0
 2000 08f0 01       		.byte	0x1
 2001 08f1 86       		.byte	0x86
 2002 08f2 64       		.byte	0x64
 2003 08f3 A4000000 		.long	0xa4
 2004 08f7 02       		.byte	0x2
 2005 08f8 91       		.byte	0x91
 2006 08f9 00       		.sleb128 0
 2007 08fa 1E       		.uleb128 0x1e
 2008 08fb 11000000 		.secrel32	LASF1
 2009 08ff 01       		.byte	0x1
 2010 0900 86       		.byte	0x86
 2011 0901 6F       		.byte	0x6f
 2012 0902 A4000000 		.long	0xa4
 2013 0906 02       		.byte	0x2
 2014 0907 91       		.byte	0x91
 2015 0908 04       		.sleb128 4
 2016 0909 1E       		.uleb128 0x1e
 2017 090a 00000000 		.secrel32	LASF3
 2018 090e 01       		.byte	0x1
 2019 090f 87       		.byte	0x87
 2020 0910 2C       		.byte	0x2c
 2021 0911 A4000000 		.long	0xa4
 2022 0915 02       		.byte	0x2
 2023 0916 91       		.byte	0x91
 2024 0917 08       		.sleb128 8
 2025 0918 1E       		.uleb128 0x1e
 2026 0919 33000000 		.secrel32	LASF2
 2027 091d 01       		.byte	0x1
 2028 091e 87       		.byte	0x87
 2029 091f 42       		.byte	0x42
 2030 0920 78080000 		.long	0x878
 2031 0924 02       		.byte	0x2
 2032 0925 91       		.byte	0x91
 2033 0926 0C       		.sleb128 12
 2034 0927 1F       		.uleb128 0x1f
 2035 0928 E6020000 		.long	LBB33
 2036 092c 02040000 		.long	LBE33
 2037 0930 CB0A0000 		.long	0xacb
 2038 0934 20       		.uleb128 0x20
 2039 0935 7900     		.ascii "y\0"
 2040 0937 01       		.byte	0x1
 2041 0938 8B       		.byte	0x8b
 2042 0939 0B       		.byte	0xb
 2043 093a A4000000 		.long	0xa4
 2044 093e 4A030000 		.secrel32	LLST30
 2045 0942 46030000 		.secrel32	LVUS30
 2046 0946 21       		.uleb128 0x21
GAS LISTING C:\Users\jisu8\AppData\Local\Temp\ccLWfpjm.s 			page 47


 2047 0947 C8000000 		.secrel32	Ldebug_ranges0+0xc8
 2048 094b 16       		.uleb128 0x16
 2049 094c 18000000 		.secrel32	LASF7
 2050 0950 01       		.byte	0x1
 2051 0951 8D       		.byte	0x8d
 2052 0952 07       		.byte	0x7
 2053 0953 A4000000 		.long	0xa4
 2054 0957 6E030000 		.secrel32	LLST31
 2055 095b 6A030000 		.secrel32	LVUS31
 2056 095f 21       		.uleb128 0x21
 2057 0960 E0000000 		.secrel32	Ldebug_ranges0+0xe0
 2058 0964 20       		.uleb128 0x20
 2059 0965 7800     		.ascii "x\0"
 2060 0967 01       		.byte	0x1
 2061 0968 8E       		.byte	0x8e
 2062 0969 0C       		.byte	0xc
 2063 096a A4000000 		.long	0xa4
 2064 096e 93030000 		.secrel32	LLST32
 2065 0972 8D030000 		.secrel32	LVUS32
 2066 0976 21       		.uleb128 0x21
 2067 0977 F8000000 		.secrel32	Ldebug_ranges0+0xf8
 2068 097b 16       		.uleb128 0x16
 2069 097c 4B000000 		.secrel32	LASF8
 2070 0980 01       		.byte	0x1
 2071 0981 90       		.byte	0x90
 2072 0982 08       		.byte	0x8
 2073 0983 A4000000 		.long	0xa4
 2074 0987 C4030000 		.secrel32	LLST33
 2075 098b BE030000 		.secrel32	LVUS33
 2076 098f 20       		.uleb128 0x20
 2077 0990 6C656674 		.ascii "left\0"
 2077      00
 2078 0995 01       		.byte	0x1
 2079 0996 91       		.byte	0x91
 2080 0997 08       		.byte	0x8
 2081 0998 A4000000 		.long	0xa4
 2082 099c F3030000 		.secrel32	LLST34
 2083 09a0 EF030000 		.secrel32	LVUS34
 2084 09a4 20       		.uleb128 0x20
 2085 09a5 746F7000 		.ascii "top\0"
 2086 09a9 01       		.byte	0x1
 2087 09aa 92       		.byte	0x92
 2088 09ab 08       		.byte	0x8
 2089 09ac A4000000 		.long	0xa4
 2090 09b0 15040000 		.secrel32	LLST35
 2091 09b4 11040000 		.secrel32	LVUS35
 2092 09b8 20       		.uleb128 0x20
 2093 09b9 73756D00 		.ascii "sum\0"
 2094 09bd 01       		.byte	0x1
 2095 09be 93       		.byte	0x93
 2096 09bf 08       		.byte	0x8
 2097 09c0 A4000000 		.long	0xa4
 2098 09c4 37040000 		.secrel32	LLST36
 2099 09c8 33040000 		.secrel32	LVUS36
 2100 09cc 20       		.uleb128 0x20
 2101 09cd 61766572 		.ascii "average\0"
 2101      61676500 
GAS LISTING C:\Users\jisu8\AppData\Local\Temp\ccLWfpjm.s 			page 48


 2102 09d5 01       		.byte	0x1
 2103 09d6 9C       		.byte	0x9c
 2104 09d7 08       		.byte	0x8
 2105 09d8 A4000000 		.long	0xa4
 2106 09dc 5A040000 		.secrel32	LLST37
 2107 09e0 56040000 		.secrel32	LVUS37
 2108 09e4 22       		.uleb128 0x22
 2109 09e5 40010000 		.secrel32	Ldebug_ranges0+0x140
 2110 09e9 1E0A0000 		.long	0xa1e
 2111 09ed 20       		.uleb128 0x20
 2112 09ee 647900   		.ascii "dy\0"
 2113 09f1 01       		.byte	0x1
 2114 09f2 94       		.byte	0x94
 2115 09f3 0D       		.byte	0xd
 2116 09f4 A4000000 		.long	0xa4
 2117 09f8 7D040000 		.secrel32	LLST44
 2118 09fc 79040000 		.secrel32	LVUS44
 2119 0a00 23       		.uleb128 0x23
 2120 0a01 0F030000 		.long	LBB44
 2121 0a05 33030000 		.long	LBE44
 2122 0a09 20       		.uleb128 0x20
 2123 0a0a 647800   		.ascii "dx\0"
 2124 0a0d 01       		.byte	0x1
 2125 0a0e 96       		.byte	0x96
 2126 0a0f 0E       		.byte	0xe
 2127 0a10 A4000000 		.long	0xa4
 2128 0a14 A1040000 		.secrel32	LLST45
 2129 0a18 9D040000 		.secrel32	LVUS45
 2130 0a1c 00       		.byte	0
 2131 0a1d 00       		.byte	0
 2132 0a1e 24       		.uleb128 0x24
 2133 0a1f 1B0C0000 		.long	0xc1b
 2134 0a23 99030000 		.long	LBI37
 2135 0a27 00       		.byte	LVU199
 2136 0a28 10010000 		.secrel32	Ldebug_ranges0+0x110
 2137 0a2c 01       		.byte	0x1
 2138 0a2d 91       		.byte	0x91
 2139 0a2e 0F       		.byte	0xf
 2140 0a2f 5B0A0000 		.long	0xa5b
 2141 0a33 25       		.uleb128 0x25
 2142 0a34 4A0C0000 		.long	0xc4a
 2143 0a38 C5040000 		.secrel32	LLST38
 2144 0a3c BF040000 		.secrel32	LVUS38
 2145 0a40 25       		.uleb128 0x25
 2146 0a41 3D0C0000 		.long	0xc3d
 2147 0a45 F4040000 		.secrel32	LLST39
 2148 0a49 F0040000 		.secrel32	LVUS39
 2149 0a4d 25       		.uleb128 0x25
 2150 0a4e 2F0C0000 		.long	0xc2f
 2151 0a52 18050000 		.secrel32	LLST40
 2152 0a56 14050000 		.secrel32	LVUS40
 2153 0a5a 00       		.byte	0
 2154 0a5b 24       		.uleb128 0x24
 2155 0a5c 1B0C0000 		.long	0xc1b
 2156 0a60 AE030000 		.long	LBI40
 2157 0a64 00       		.byte	LVU205
 2158 0a65 28010000 		.secrel32	Ldebug_ranges0+0x128
GAS LISTING C:\Users\jisu8\AppData\Local\Temp\ccLWfpjm.s 			page 49


 2159 0a69 01       		.byte	0x1
 2160 0a6a 92       		.byte	0x92
 2161 0a6b 0F       		.byte	0xf
 2162 0a6c 980A0000 		.long	0xa98
 2163 0a70 25       		.uleb128 0x25
 2164 0a71 4A0C0000 		.long	0xc4a
 2165 0a75 3D050000 		.secrel32	LLST41
 2166 0a79 37050000 		.secrel32	LVUS41
 2167 0a7d 25       		.uleb128 0x25
 2168 0a7e 3D0C0000 		.long	0xc3d
 2169 0a82 6F050000 		.secrel32	LLST42
 2170 0a86 6B050000 		.secrel32	LVUS42
 2171 0a8a 25       		.uleb128 0x25
 2172 0a8b 2F0C0000 		.long	0xc2f
 2173 0a8f 93050000 		.secrel32	LLST43
 2174 0a93 8F050000 		.secrel32	LVUS43
 2175 0a97 00       		.byte	0
 2176 0a98 19       		.uleb128 0x19
 2177 0a99 68030000 		.long	LVL80
 2178 0a9d E60A0000 		.long	0xae6
 2179 0aa1 18       		.uleb128 0x18
 2180 0aa2 01       		.byte	0x1
 2181 0aa3 50       		.byte	0x50
 2182 0aa4 03       		.byte	0x3
 2183 0aa5 91       		.byte	0x91
 2184 0aa6 5C       		.sleb128 -36
 2185 0aa7 06       		.byte	0x6
 2186 0aa8 18       		.uleb128 0x18
 2187 0aa9 01       		.byte	0x1
 2188 0aaa 52       		.byte	0x52
 2189 0aab 03       		.byte	0x3
 2190 0aac 91       		.byte	0x91
 2191 0aad 4C       		.sleb128 -52
 2192 0aae 06       		.byte	0x6
 2193 0aaf 18       		.uleb128 0x18
 2194 0ab0 01       		.byte	0x1
 2195 0ab1 51       		.byte	0x51
 2196 0ab2 03       		.byte	0x3
 2197 0ab3 91       		.byte	0x91
 2198 0ab4 58       		.sleb128 -40
 2199 0ab5 06       		.byte	0x6
 2200 0ab6 18       		.uleb128 0x18
 2201 0ab7 02       		.byte	0x2
 2202 0ab8 74       		.byte	0x74
 2203 0ab9 04       		.sleb128 4
 2204 0aba 03       		.byte	0x3
 2205 0abb 91       		.byte	0x91
 2206 0abc 08       		.sleb128 8
 2207 0abd 06       		.byte	0x6
 2208 0abe 18       		.uleb128 0x18
 2209 0abf 02       		.byte	0x2
 2210 0ac0 74       		.byte	0x74
 2211 0ac1 08       		.sleb128 8
 2212 0ac2 03       		.byte	0x3
 2213 0ac3 91       		.byte	0x91
 2214 0ac4 0C       		.sleb128 12
 2215 0ac5 06       		.byte	0x6
GAS LISTING C:\Users\jisu8\AppData\Local\Temp\ccLWfpjm.s 			page 50


 2216 0ac6 00       		.byte	0
 2217 0ac7 00       		.byte	0
 2218 0ac8 00       		.byte	0
 2219 0ac9 00       		.byte	0
 2220 0aca 00       		.byte	0
 2221 0acb 19       		.uleb128 0x19
 2222 0acc E6020000 		.long	LVL66
 2223 0ad0 DD0E0000 		.long	0xedd
 2224 0ad4 18       		.uleb128 0x18
 2225 0ad5 02       		.byte	0x2
 2226 0ad6 74       		.byte	0x74
 2227 0ad7 00       		.sleb128 0
 2228 0ad8 05       		.byte	0x5
 2229 0ad9 03       		.byte	0x3
 2230 0ada 94000000 		.long	LC4
 2231 0ade 00       		.byte	0
 2232 0adf 00       		.byte	0
 2233 0ae0 05       		.uleb128 0x5
 2234 0ae1 04       		.byte	0x4
 2235 0ae2 66010000 		.long	0x166
 2236 0ae6 1A       		.uleb128 0x1a
 2237 0ae7 54687265 		.ascii "ThresholdBlock\0"
 2237      73686F6C 
 2237      64426C6F 
 2237      636B00
 2238 0af6 01       		.byte	0x1
 2239 0af7 71       		.byte	0x71
 2240 0af8 0D       		.byte	0xd
 2241 0af9 01       		.byte	0x1
 2242 0afa 42020000 		.long	LFB26
 2243 0afe C7020000 		.long	LFE26
 2244 0b02 B2050000 		.secrel32	LLST18
 2245 0b06 01       		.byte	0x1
 2246 0b07 1B0C0000 		.long	0xc1b
 2247 0b0b 1D       		.uleb128 0x1d
 2248 0b0c 40000000 		.secrel32	LASF4
 2249 0b10 01       		.byte	0x1
 2250 0b11 71       		.byte	0x71
 2251 0b12 2C       		.byte	0x2c
 2252 0b13 E00A0000 		.long	0xae0
 2253 0b17 43060000 		.secrel32	LLST19
 2254 0b1b 3F060000 		.secrel32	LVUS19
 2255 0b1f 1D       		.uleb128 0x1d
 2256 0b20 4B000000 		.secrel32	LASF8
 2257 0b24 01       		.byte	0x1
 2258 0b25 71       		.byte	0x71
 2259 0b26 3C       		.byte	0x3c
 2260 0b27 A4000000 		.long	0xa4
 2261 0b2b 66060000 		.secrel32	LLST20
 2262 0b2f 62060000 		.secrel32	LVUS20
 2263 0b33 1D       		.uleb128 0x1d
 2264 0b34 18000000 		.secrel32	LASF7
 2265 0b38 01       		.byte	0x1
 2266 0b39 71       		.byte	0x71
 2267 0b3a 49       		.byte	0x49
 2268 0b3b A4000000 		.long	0xa4
 2269 0b3f 8B060000 		.secrel32	LLST21
GAS LISTING C:\Users\jisu8\AppData\Local\Temp\ccLWfpjm.s 			page 51


 2270 0b43 85060000 		.secrel32	LVUS21
 2271 0b47 15       		.uleb128 0x15
 2272 0b48 74687265 		.ascii "threshold\0"
 2272      73686F6C 
 2272      6400
 2273 0b52 01       		.byte	0x1
 2274 0b53 71       		.byte	0x71
 2275 0b54 56       		.byte	0x56
 2276 0b55 A4000000 		.long	0xa4
 2277 0b59 02       		.byte	0x2
 2278 0b5a 91       		.byte	0x91
 2279 0b5b 00       		.sleb128 0
 2280 0b5c 1E       		.uleb128 0x1e
 2281 0b5d 00000000 		.secrel32	LASF3
 2282 0b61 01       		.byte	0x1
 2283 0b62 71       		.byte	0x71
 2284 0b63 65       		.byte	0x65
 2285 0b64 A4000000 		.long	0xa4
 2286 0b68 02       		.byte	0x2
 2287 0b69 91       		.byte	0x91
 2288 0b6a 04       		.sleb128 4
 2289 0b6b 1E       		.uleb128 0x1e
 2290 0b6c 33000000 		.secrel32	LASF2
 2291 0b70 01       		.byte	0x1
 2292 0b71 71       		.byte	0x71
 2293 0b72 7B       		.byte	0x7b
 2294 0b73 78080000 		.long	0x878
 2295 0b77 02       		.byte	0x2
 2296 0b78 91       		.byte	0x91
 2297 0b79 08       		.sleb128 8
 2298 0b7a 1F       		.uleb128 0x1f
 2299 0b7b 6B020000 		.long	LBB28
 2300 0b7f AF020000 		.long	LBE28
 2301 0b83 E70B0000 		.long	0xbe7
 2302 0b87 20       		.uleb128 0x20
 2303 0b88 7900     		.ascii "y\0"
 2304 0b8a 01       		.byte	0x1
 2305 0b8b 76       		.byte	0x76
 2306 0b8c 0B       		.byte	0xb
 2307 0b8d A4000000 		.long	0xa4
 2308 0b91 B7060000 		.secrel32	LLST22
 2309 0b95 B5060000 		.secrel32	LVUS22
 2310 0b99 21       		.uleb128 0x21
 2311 0b9a 98000000 		.secrel32	Ldebug_ranges0+0x98
 2312 0b9e 20       		.uleb128 0x20
 2313 0b9f 73726300 		.ascii "src\0"
 2314 0ba3 01       		.byte	0x1
 2315 0ba4 78       		.byte	0x78
 2316 0ba5 0D       		.byte	0xd
 2317 0ba6 4C030000 		.long	0x34c
 2318 0baa CE060000 		.secrel32	LLST23
 2319 0bae CA060000 		.secrel32	LVUS23
 2320 0bb2 20       		.uleb128 0x20
 2321 0bb3 64737442 		.ascii "dstBegin\0"
 2321      6567696E 
 2321      00
 2322 0bbc 01       		.byte	0x1
GAS LISTING C:\Users\jisu8\AppData\Local\Temp\ccLWfpjm.s 			page 52


 2323 0bbd 79       		.byte	0x79
 2324 0bbe 13       		.byte	0x13
 2325 0bbf 52030000 		.long	0x352
 2326 0bc3 F0060000 		.secrel32	LLST24
 2327 0bc7 EC060000 		.secrel32	LVUS24
 2328 0bcb 21       		.uleb128 0x21
 2329 0bcc B0000000 		.secrel32	Ldebug_ranges0+0xb0
 2330 0bd0 20       		.uleb128 0x20
 2331 0bd1 64737400 		.ascii "dst\0"
 2332 0bd5 01       		.byte	0x1
 2333 0bd6 7A       		.byte	0x7a
 2334 0bd7 12       		.byte	0x12
 2335 0bd8 4C030000 		.long	0x34c
 2336 0bdc 12070000 		.secrel32	LLST25
 2337 0be0 0E070000 		.secrel32	LVUS25
 2338 0be4 00       		.byte	0
 2339 0be5 00       		.byte	0
 2340 0be6 00       		.byte	0
 2341 0be7 17       		.uleb128 0x17
 2342 0be8 6B020000 		.long	LVL55
 2343 0bec F60E0000 		.long	0xef6
 2344 0bf0 FF0B0000 		.long	0xbff
 2345 0bf4 18       		.uleb128 0x18
 2346 0bf5 02       		.byte	0x2
 2347 0bf6 74       		.byte	0x74
 2348 0bf7 00       		.sleb128 0
 2349 0bf8 05       		.byte	0x5
 2350 0bf9 03       		.byte	0x3
 2351 0bfa 64000000 		.long	LC2
 2352 0bfe 00       		.byte	0
 2353 0bff 19       		.uleb128 0x19
 2354 0c00 BF020000 		.long	LVL63
 2355 0c04 F60E0000 		.long	0xef6
 2356 0c08 18       		.uleb128 0x18
 2357 0c09 02       		.byte	0x2
 2358 0c0a 74       		.byte	0x74
 2359 0c0b 00       		.sleb128 0
 2360 0c0c 05       		.byte	0x5
 2361 0c0d 03       		.byte	0x3
 2362 0c0e 82000000 		.long	LC3
 2363 0c12 18       		.uleb128 0x18
 2364 0c13 02       		.byte	0x2
 2365 0c14 74       		.byte	0x74
 2366 0c15 04       		.sleb128 4
 2367 0c16 02       		.byte	0x2
 2368 0c17 73       		.byte	0x73
 2369 0c18 00       		.sleb128 0
 2370 0c19 00       		.byte	0
 2371 0c1a 00       		.byte	0
 2372 0c1b 26       		.uleb128 0x26
 2373 0c1c 636C616D 		.ascii "clamp\0"
 2373      7000
 2374 0c22 01       		.byte	0x1
 2375 0c23 68       		.byte	0x68
 2376 0c24 0F       		.byte	0xf
 2377 0c25 01       		.byte	0x1
 2378 0c26 A4000000 		.long	0xa4
GAS LISTING C:\Users\jisu8\AppData\Local\Temp\ccLWfpjm.s 			page 53


 2379 0c2a 03       		.byte	0x3
 2380 0c2b 580C0000 		.long	0xc58
 2381 0c2f 27       		.uleb128 0x27
 2382 0c30 5F5F7661 		.ascii "__val\0"
 2382      6C00
 2383 0c36 01       		.byte	0x1
 2384 0c37 68       		.byte	0x68
 2385 0c38 1F       		.byte	0x1f
 2386 0c39 AB000000 		.long	0xab
 2387 0c3d 27       		.uleb128 0x27
 2388 0c3e 5F5F6C6F 		.ascii "__lo\0"
 2388      00
 2389 0c43 01       		.byte	0x1
 2390 0c44 68       		.byte	0x68
 2391 0c45 30       		.byte	0x30
 2392 0c46 AB000000 		.long	0xab
 2393 0c4a 27       		.uleb128 0x27
 2394 0c4b 5F5F6869 		.ascii "__hi\0"
 2394      00
 2395 0c50 01       		.byte	0x1
 2396 0c51 68       		.byte	0x68
 2397 0c52 40       		.byte	0x40
 2398 0c53 AB000000 		.long	0xab
 2399 0c57 00       		.byte	0
 2400 0c58 28       		.uleb128 0x28
 2401 0c59 43616C63 		.ascii "CalculateBlackPoints\0"
 2401      756C6174 
 2401      65426C61 
 2401      636B506F 
 2401      696E7473 
 2402 0c6e 01       		.byte	0x1
 2403 0c6f 15       		.byte	0x15
 2404 0c70 0E       		.byte	0xe
 2405 0c71 01       		.byte	0x1
 2406 0c72 FF000000 		.long	0xff
 2407 0c76 00000000 		.long	LFB24
 2408 0c7a 42020000 		.long	LFE24
 2409 0c7e 30070000 		.secrel32	LLST0
 2410 0c82 01       		.byte	0x1
 2411 0c83 CF0E0000 		.long	0xecf
 2412 0c87 1D       		.uleb128 0x1d
 2413 0c88 40000000 		.secrel32	LASF4
 2414 0c8c 01       		.byte	0x1
 2415 0c8d 15       		.byte	0x15
 2416 0c8e 32       		.byte	0x32
 2417 0c8f E00A0000 		.long	0xae0
 2418 0c93 C3070000 		.secrel32	LLST1
 2419 0c97 BD070000 		.secrel32	LVUS1
 2420 0c9b 1D       		.uleb128 0x1d
 2421 0c9c 2A000000 		.secrel32	LASF5
 2422 0ca0 01       		.byte	0x1
 2423 0ca1 15       		.byte	0x15
 2424 0ca2 42       		.byte	0x42
 2425 0ca3 A4000000 		.long	0xa4
 2426 0ca7 F5070000 		.secrel32	LLST2
 2427 0cab EF070000 		.secrel32	LVUS2
 2428 0caf 1D       		.uleb128 0x1d
GAS LISTING C:\Users\jisu8\AppData\Local\Temp\ccLWfpjm.s 			page 54


 2429 0cb0 20000000 		.secrel32	LASF6
 2430 0cb4 01       		.byte	0x1
 2431 0cb5 15       		.byte	0x15
 2432 0cb6 50       		.byte	0x50
 2433 0cb7 A4000000 		.long	0xa4
 2434 0cbb 25080000 		.secrel32	LLST3
 2435 0cbf 1F080000 		.secrel32	LVUS3
 2436 0cc3 1E       		.uleb128 0x1e
 2437 0cc4 3A000000 		.secrel32	LASF0
 2438 0cc8 01       		.byte	0x1
 2439 0cc9 15       		.byte	0x15
 2440 0cca 5F       		.byte	0x5f
 2441 0ccb A4000000 		.long	0xa4
 2442 0ccf 02       		.byte	0x2
 2443 0cd0 91       		.byte	0x91
 2444 0cd1 00       		.sleb128 0
 2445 0cd2 1E       		.uleb128 0x1e
 2446 0cd3 11000000 		.secrel32	LASF1
 2447 0cd7 01       		.byte	0x1
 2448 0cd8 15       		.byte	0x15
 2449 0cd9 6A       		.byte	0x6a
 2450 0cda A4000000 		.long	0xa4
 2451 0cde 02       		.byte	0x2
 2452 0cdf 91       		.byte	0x91
 2453 0ce0 04       		.sleb128 4
 2454 0ce1 1E       		.uleb128 0x1e
 2455 0ce2 00000000 		.secrel32	LASF3
 2456 0ce6 01       		.byte	0x1
 2457 0ce7 15       		.byte	0x15
 2458 0ce8 76       		.byte	0x76
 2459 0ce9 A4000000 		.long	0xa4
 2460 0ced 02       		.byte	0x2
 2461 0cee 91       		.byte	0x91
 2462 0cef 08       		.sleb128 8
 2463 0cf0 1F       		.uleb128 0x1f
 2464 0cf1 4D000000 		.long	LBB12
 2465 0cf5 35020000 		.long	LBE12
 2466 0cf9 940E0000 		.long	0xe94
 2467 0cfd 20       		.uleb128 0x20
 2468 0cfe 7900     		.ascii "y\0"
 2469 0d00 01       		.byte	0x1
 2470 0d01 1E       		.byte	0x1e
 2471 0d02 0B       		.byte	0xb
 2472 0d03 A4000000 		.long	0xa4
 2473 0d07 53080000 		.secrel32	LLST4
 2474 0d0b 4F080000 		.secrel32	LVUS4
 2475 0d0f 21       		.uleb128 0x21
 2476 0d10 00000000 		.secrel32	Ldebug_ranges0+0
 2477 0d14 16       		.uleb128 0x16
 2478 0d15 18000000 		.secrel32	LASF7
 2479 0d19 01       		.byte	0x1
 2480 0d1a 20       		.byte	0x20
 2481 0d1b 07       		.byte	0x7
 2482 0d1c A4000000 		.long	0xa4
 2483 0d20 77080000 		.secrel32	LLST5
 2484 0d24 73080000 		.secrel32	LVUS5
 2485 0d28 21       		.uleb128 0x21
GAS LISTING C:\Users\jisu8\AppData\Local\Temp\ccLWfpjm.s 			page 55


 2486 0d29 18000000 		.secrel32	Ldebug_ranges0+0x18
 2487 0d2d 20       		.uleb128 0x20
 2488 0d2e 7800     		.ascii "x\0"
 2489 0d30 01       		.byte	0x1
 2490 0d31 21       		.byte	0x21
 2491 0d32 0C       		.byte	0xc
 2492 0d33 A4000000 		.long	0xa4
 2493 0d37 9A080000 		.secrel32	LLST6
 2494 0d3b 96080000 		.secrel32	LVUS6
 2495 0d3f 21       		.uleb128 0x21
 2496 0d40 30000000 		.secrel32	Ldebug_ranges0+0x30
 2497 0d44 16       		.uleb128 0x16
 2498 0d45 4B000000 		.secrel32	LASF8
 2499 0d49 01       		.byte	0x1
 2500 0d4a 23       		.byte	0x23
 2501 0d4b 08       		.byte	0x8
 2502 0d4c A4000000 		.long	0xa4
 2503 0d50 C0080000 		.secrel32	LLST7
 2504 0d54 BA080000 		.secrel32	LVUS7
 2505 0d58 20       		.uleb128 0x20
 2506 0d59 73756D00 		.ascii "sum\0"
 2507 0d5d 01       		.byte	0x1
 2508 0d5e 24       		.byte	0x24
 2509 0d5f 08       		.byte	0x8
 2510 0d60 A4000000 		.long	0xa4
 2511 0d64 23090000 		.secrel32	LLST8
 2512 0d68 1D090000 		.secrel32	LVUS8
 2513 0d6c 20       		.uleb128 0x20
 2514 0d6d 6D696E00 		.ascii "min\0"
 2515 0d71 01       		.byte	0x1
 2516 0d72 25       		.byte	0x25
 2517 0d73 0C       		.byte	0xc
 2518 0d74 56010000 		.long	0x156
 2519 0d78 5F090000 		.secrel32	LLST9
 2520 0d7c 4D090000 		.secrel32	LVUS9
 2521 0d80 20       		.uleb128 0x20
 2522 0d81 6D617800 		.ascii "max\0"
 2523 0d85 01       		.byte	0x1
 2524 0d86 26       		.byte	0x26
 2525 0d87 0C       		.byte	0xc
 2526 0d88 56010000 		.long	0x156
 2527 0d8c DD090000 		.secrel32	LLST10
 2528 0d90 CD090000 		.secrel32	LVUS10
 2529 0d94 20       		.uleb128 0x20
 2530 0d95 61766572 		.ascii "average\0"
 2530      61676500 
 2531 0d9d 01       		.byte	0x1
 2532 0d9e 3F       		.byte	0x3f
 2533 0d9f 08       		.byte	0x8
 2534 0da0 A4000000 		.long	0xa4
 2535 0da4 430A0000 		.secrel32	LLST11
 2536 0da8 3F0A0000 		.secrel32	LVUS11
 2537 0dac 22       		.uleb128 0x22
 2538 0dad 48000000 		.secrel32	Ldebug_ranges0+0x48
 2539 0db1 360E0000 		.long	0xe36
 2540 0db5 20       		.uleb128 0x20
 2541 0db6 797900   		.ascii "yy\0"
GAS LISTING C:\Users\jisu8\AppData\Local\Temp\ccLWfpjm.s 			page 56


 2542 0db9 01       		.byte	0x1
 2543 0dba 27       		.byte	0x27
 2544 0dbb 0D       		.byte	0xd
 2545 0dbc A4000000 		.long	0xa4
 2546 0dc0 6B0A0000 		.secrel32	LLST12
 2547 0dc4 610A0000 		.secrel32	LVUS12
 2548 0dc8 20       		.uleb128 0x20
 2549 0dc9 6F666673 		.ascii "offset\0"
 2549      657400
 2550 0dd0 01       		.byte	0x1
 2551 0dd1 27       		.byte	0x27
 2552 0dd2 15       		.byte	0x15
 2553 0dd3 A4000000 		.long	0xa4
 2554 0dd7 B70A0000 		.secrel32	LLST13
 2555 0ddb AD0A0000 		.secrel32	LVUS13
 2556 0ddf 22       		.uleb128 0x22
 2557 0de0 68000000 		.secrel32	Ldebug_ranges0+0x68
 2558 0de4 1C0E0000 		.long	0xe1c
 2559 0de8 20       		.uleb128 0x20
 2560 0de9 787800   		.ascii "xx\0"
 2561 0dec 01       		.byte	0x1
 2562 0ded 29       		.byte	0x29
 2563 0dee 0E       		.byte	0xe
 2564 0def A4000000 		.long	0xa4
 2565 0df3 FA0A0000 		.secrel32	LLST14
 2566 0df7 F80A0000 		.secrel32	LVUS14
 2567 0dfb 23       		.uleb128 0x23
 2568 0dfc 5A000000 		.long	LBB18
 2569 0e00 74000000 		.long	LBE18
 2570 0e04 20       		.uleb128 0x20
 2571 0e05 70697865 		.ascii "pixel\0"
 2571      6C00
 2572 0e0b 01       		.byte	0x1
 2573 0e0c 2B       		.byte	0x2b
 2574 0e0d 0E       		.byte	0xe
 2575 0e0e 56010000 		.long	0x156
 2576 0e12 0F0B0000 		.secrel32	LLST15
 2577 0e16 0D0B0000 		.secrel32	LVUS15
 2578 0e1a 00       		.byte	0
 2579 0e1b 00       		.byte	0
 2580 0e1c 21       		.uleb128 0x21
 2581 0e1d 80000000 		.secrel32	Ldebug_ranges0+0x80
 2582 0e21 20       		.uleb128 0x20
 2583 0e22 787800   		.ascii "xx\0"
 2584 0e25 01       		.byte	0x1
 2585 0e26 36       		.byte	0x36
 2586 0e27 10       		.byte	0x10
 2587 0e28 A4000000 		.long	0xa4
 2588 0e2c 240B0000 		.secrel32	LLST16
 2589 0e30 220B0000 		.secrel32	LVUS16
 2590 0e34 00       		.byte	0
 2591 0e35 00       		.byte	0
 2592 0e36 1F       		.uleb128 0x1f
 2593 0e37 46010000 		.long	LBB22
 2594 0e3b 87010000 		.long	LBE22
 2595 0e3f 6E0E0000 		.long	0xe6e
 2596 0e43 20       		.uleb128 0x20
GAS LISTING C:\Users\jisu8\AppData\Local\Temp\ccLWfpjm.s 			page 57


 2597 0e44 61766572 		.ascii "averageNeighborBlackPoint\0"
 2597      6167654E 
 2597      65696768 
 2597      626F7242 
 2597      6C61636B 
 2598 0e5e 01       		.byte	0x1
 2599 0e5f 53       		.byte	0x53
 2600 0e60 0A       		.byte	0xa
 2601 0e61 A4000000 		.long	0xa4
 2602 0e65 390B0000 		.secrel32	LLST17
 2603 0e69 370B0000 		.secrel32	LVUS17
 2604 0e6d 00       		.byte	0
 2605 0e6e 19       		.uleb128 0x19
 2606 0e6f B6010000 		.long	LVL44
 2607 0e73 F60E0000 		.long	0xef6
 2608 0e77 18       		.uleb128 0x18
 2609 0e78 02       		.byte	0x2
 2610 0e79 74       		.byte	0x74
 2611 0e7a 00       		.sleb128 0
 2612 0e7b 05       		.byte	0x5
 2613 0e7c 03       		.byte	0x3
 2614 0e7d 50000000 		.long	LC1
 2615 0e81 18       		.uleb128 0x18
 2616 0e82 02       		.byte	0x2
 2617 0e83 74       		.byte	0x74
 2618 0e84 04       		.sleb128 4
 2619 0e85 02       		.byte	0x2
 2620 0e86 77       		.byte	0x77
 2621 0e87 00       		.sleb128 0
 2622 0e88 18       		.uleb128 0x18
 2623 0e89 02       		.byte	0x2
 2624 0e8a 74       		.byte	0x74
 2625 0e8b 08       		.sleb128 8
 2626 0e8c 02       		.byte	0x2
 2627 0e8d 76       		.byte	0x76
 2628 0e8e 00       		.sleb128 0
 2629 0e8f 00       		.byte	0
 2630 0e90 00       		.byte	0
 2631 0e91 00       		.byte	0
 2632 0e92 00       		.byte	0
 2633 0e93 00       		.byte	0
 2634 0e94 19       		.uleb128 0x19
 2635 0e95 41000000 		.long	LVL2
 2636 0e99 F60E0000 		.long	0xef6
 2637 0e9d 18       		.uleb128 0x18
 2638 0e9e 02       		.byte	0x2
 2639 0e9f 74       		.byte	0x74
 2640 0ea0 00       		.sleb128 0
 2641 0ea1 05       		.byte	0x5
 2642 0ea2 03       		.byte	0x3
 2643 0ea3 00000000 		.long	LC0
 2644 0ea7 18       		.uleb128 0x18
 2645 0ea8 02       		.byte	0x2
 2646 0ea9 74       		.byte	0x74
 2647 0eaa 04       		.sleb128 4
 2648 0eab 02       		.byte	0x2
 2649 0eac 77       		.byte	0x77
GAS LISTING C:\Users\jisu8\AppData\Local\Temp\ccLWfpjm.s 			page 58


 2650 0ead 00       		.sleb128 0
 2651 0eae 18       		.uleb128 0x18
 2652 0eaf 02       		.byte	0x2
 2653 0eb0 74       		.byte	0x74
 2654 0eb1 08       		.sleb128 8
 2655 0eb2 02       		.byte	0x2
 2656 0eb3 77       		.byte	0x77
 2657 0eb4 00       		.sleb128 0
 2658 0eb5 18       		.uleb128 0x18
 2659 0eb6 02       		.byte	0x2
 2660 0eb7 74       		.byte	0x74
 2661 0eb8 0C       		.sleb128 12
 2662 0eb9 03       		.byte	0x3
 2663 0eba 91       		.byte	0x91
 2664 0ebb 00       		.sleb128 0
 2665 0ebc 06       		.byte	0x6
 2666 0ebd 18       		.uleb128 0x18
 2667 0ebe 02       		.byte	0x2
 2668 0ebf 74       		.byte	0x74
 2669 0ec0 10       		.sleb128 16
 2670 0ec1 03       		.byte	0x3
 2671 0ec2 91       		.byte	0x91
 2672 0ec3 04       		.sleb128 4
 2673 0ec4 06       		.byte	0x6
 2674 0ec5 18       		.uleb128 0x18
 2675 0ec6 02       		.byte	0x2
 2676 0ec7 74       		.byte	0x74
 2677 0ec8 14       		.sleb128 20
 2678 0ec9 03       		.byte	0x3
 2679 0eca 91       		.byte	0x91
 2680 0ecb 08       		.sleb128 8
 2681 0ecc 06       		.byte	0x6
 2682 0ecd 00       		.byte	0
 2683 0ece 00       		.byte	0
 2684 0ecf 29       		.uleb128 0x29
 2685 0ed0 01       		.byte	0x1
 2686 0ed1 01       		.byte	0x1
 2687 0ed2 07000000 		.secrel32	LASF9
 2688 0ed6 07000000 		.secrel32	LASF9
 2689 0eda 05       		.byte	0x5
 2690 0edb 11       		.byte	0x11
 2691 0edc 18       		.byte	0x18
 2692 0edd 2A       		.uleb128 0x2a
 2693 0ede 01       		.byte	0x1
 2694 0edf 01       		.byte	0x1
 2695 0ee0 70757473 		.ascii "puts\0"
 2695      00
 2696 0ee5 5F5F6275 		.ascii "__builtin_puts\0"
 2696      696C7469 
 2696      6E5F7075 
 2696      747300
 2697 0ef4 0A       		.byte	0xa
 2698 0ef5 00       		.byte	0
 2699 0ef6 2B       		.uleb128 0x2b
 2700 0ef7 01       		.byte	0x1
 2701 0ef8 01       		.byte	0x1
 2702 0ef9 7072696E 		.ascii "printf\0"
GAS LISTING C:\Users\jisu8\AppData\Local\Temp\ccLWfpjm.s 			page 59


 2702      746600
 2703 0f00 7072696E 		.ascii "printf\0"
 2703      746600
 2704 0f07 04       		.byte	0x4
 2705 0f08 FD01     		.word	0x1fd
 2706 0f0a 0F       		.byte	0xf
 2707 0f0b 00       		.byte	0
 2708              		.section	.debug_abbrev,"dr"
 2709              	Ldebug_abbrev0:
 2710 0000 01       		.uleb128 0x1
 2711 0001 11       		.uleb128 0x11
 2712 0002 01       		.byte	0x1
 2713 0003 25       		.uleb128 0x25
 2714 0004 08       		.uleb128 0x8
 2715 0005 13       		.uleb128 0x13
 2716 0006 0B       		.uleb128 0xb
 2717 0007 03       		.uleb128 0x3
 2718 0008 08       		.uleb128 0x8
 2719 0009 1B       		.uleb128 0x1b
 2720 000a 08       		.uleb128 0x8
 2721 000b 11       		.uleb128 0x11
 2722 000c 01       		.uleb128 0x1
 2723 000d 12       		.uleb128 0x12
 2724 000e 01       		.uleb128 0x1
 2725 000f 10       		.uleb128 0x10
 2726 0010 06       		.uleb128 0x6
 2727 0011 00       		.byte	0
 2728 0012 00       		.byte	0
 2729 0013 02       		.uleb128 0x2
 2730 0014 24       		.uleb128 0x24
 2731 0015 00       		.byte	0
 2732 0016 0B       		.uleb128 0xb
 2733 0017 0B       		.uleb128 0xb
 2734 0018 3E       		.uleb128 0x3e
 2735 0019 0B       		.uleb128 0xb
 2736 001a 03       		.uleb128 0x3
 2737 001b 08       		.uleb128 0x8
 2738 001c 00       		.byte	0
 2739 001d 00       		.byte	0
 2740 001e 03       		.uleb128 0x3
 2741 001f 26       		.uleb128 0x26
 2742 0020 00       		.byte	0
 2743 0021 49       		.uleb128 0x49
 2744 0022 13       		.uleb128 0x13
 2745 0023 00       		.byte	0
 2746 0024 00       		.byte	0
 2747 0025 04       		.uleb128 0x4
 2748 0026 16       		.uleb128 0x16
 2749 0027 00       		.byte	0
 2750 0028 03       		.uleb128 0x3
 2751 0029 08       		.uleb128 0x8
 2752 002a 3A       		.uleb128 0x3a
 2753 002b 0B       		.uleb128 0xb
 2754 002c 3B       		.uleb128 0x3b
 2755 002d 0B       		.uleb128 0xb
 2756 002e 39       		.uleb128 0x39
 2757 002f 0B       		.uleb128 0xb
GAS LISTING C:\Users\jisu8\AppData\Local\Temp\ccLWfpjm.s 			page 60


 2758 0030 49       		.uleb128 0x49
 2759 0031 13       		.uleb128 0x13
 2760 0032 00       		.byte	0
 2761 0033 00       		.byte	0
 2762 0034 05       		.uleb128 0x5
 2763 0035 0F       		.uleb128 0xf
 2764 0036 00       		.byte	0
 2765 0037 0B       		.uleb128 0xb
 2766 0038 0B       		.uleb128 0xb
 2767 0039 49       		.uleb128 0x49
 2768 003a 13       		.uleb128 0x13
 2769 003b 00       		.byte	0
 2770 003c 00       		.byte	0
 2771 003d 06       		.uleb128 0x6
 2772 003e 13       		.uleb128 0x13
 2773 003f 01       		.byte	0x1
 2774 0040 03       		.uleb128 0x3
 2775 0041 08       		.uleb128 0x8
 2776 0042 0B       		.uleb128 0xb
 2777 0043 0B       		.uleb128 0xb
 2778 0044 3A       		.uleb128 0x3a
 2779 0045 0B       		.uleb128 0xb
 2780 0046 3B       		.uleb128 0x3b
 2781 0047 0B       		.uleb128 0xb
 2782 0048 39       		.uleb128 0x39
 2783 0049 0B       		.uleb128 0xb
 2784 004a 01       		.uleb128 0x1
 2785 004b 13       		.uleb128 0x13
 2786 004c 00       		.byte	0
 2787 004d 00       		.byte	0
 2788 004e 07       		.uleb128 0x7
 2789 004f 0D       		.uleb128 0xd
 2790 0050 00       		.byte	0
 2791 0051 03       		.uleb128 0x3
 2792 0052 08       		.uleb128 0x8
 2793 0053 3A       		.uleb128 0x3a
 2794 0054 0B       		.uleb128 0xb
 2795 0055 3B       		.uleb128 0x3b
 2796 0056 0B       		.uleb128 0xb
 2797 0057 39       		.uleb128 0x39
 2798 0058 0B       		.uleb128 0xb
 2799 0059 49       		.uleb128 0x49
 2800 005a 13       		.uleb128 0x13
 2801 005b 38       		.uleb128 0x38
 2802 005c 0A       		.uleb128 0xa
 2803 005d 00       		.byte	0
 2804 005e 00       		.byte	0
 2805 005f 08       		.uleb128 0x8
 2806 0060 01       		.uleb128 0x1
 2807 0061 01       		.byte	0x1
 2808 0062 49       		.uleb128 0x49
 2809 0063 13       		.uleb128 0x13
 2810 0064 01       		.uleb128 0x1
 2811 0065 13       		.uleb128 0x13
 2812 0066 00       		.byte	0
 2813 0067 00       		.byte	0
 2814 0068 09       		.uleb128 0x9
GAS LISTING C:\Users\jisu8\AppData\Local\Temp\ccLWfpjm.s 			page 61


 2815 0069 21       		.uleb128 0x21
 2816 006a 00       		.byte	0
 2817 006b 00       		.byte	0
 2818 006c 00       		.byte	0
 2819 006d 0A       		.uleb128 0xa
 2820 006e 34       		.uleb128 0x34
 2821 006f 00       		.byte	0
 2822 0070 03       		.uleb128 0x3
 2823 0071 08       		.uleb128 0x8
 2824 0072 3A       		.uleb128 0x3a
 2825 0073 0B       		.uleb128 0xb
 2826 0074 3B       		.uleb128 0x3b
 2827 0075 0B       		.uleb128 0xb
 2828 0076 39       		.uleb128 0x39
 2829 0077 0B       		.uleb128 0xb
 2830 0078 49       		.uleb128 0x49
 2831 0079 13       		.uleb128 0x13
 2832 007a 3F       		.uleb128 0x3f
 2833 007b 0C       		.uleb128 0xc
 2834 007c 3C       		.uleb128 0x3c
 2835 007d 0C       		.uleb128 0xc
 2836 007e 00       		.byte	0
 2837 007f 00       		.byte	0
 2838 0080 0B       		.uleb128 0xb
 2839 0081 13       		.uleb128 0x13
 2840 0082 01       		.byte	0x1
 2841 0083 0B       		.uleb128 0xb
 2842 0084 0B       		.uleb128 0xb
 2843 0085 3A       		.uleb128 0x3a
 2844 0086 0B       		.uleb128 0xb
 2845 0087 3B       		.uleb128 0x3b
 2846 0088 0B       		.uleb128 0xb
 2847 0089 39       		.uleb128 0x39
 2848 008a 0B       		.uleb128 0xb
 2849 008b 01       		.uleb128 0x1
 2850 008c 13       		.uleb128 0x13
 2851 008d 00       		.byte	0
 2852 008e 00       		.byte	0
 2853 008f 0C       		.uleb128 0xc
 2854 0090 0D       		.uleb128 0xd
 2855 0091 00       		.byte	0
 2856 0092 03       		.uleb128 0x3
 2857 0093 0E       		.uleb128 0xe
 2858 0094 3A       		.uleb128 0x3a
 2859 0095 0B       		.uleb128 0xb
 2860 0096 3B       		.uleb128 0x3b
 2861 0097 0B       		.uleb128 0xb
 2862 0098 39       		.uleb128 0x39
 2863 0099 0B       		.uleb128 0xb
 2864 009a 49       		.uleb128 0x49
 2865 009b 13       		.uleb128 0x13
 2866 009c 38       		.uleb128 0x38
 2867 009d 0A       		.uleb128 0xa
 2868 009e 00       		.byte	0
 2869 009f 00       		.byte	0
 2870 00a0 0D       		.uleb128 0xd
 2871 00a1 21       		.uleb128 0x21
GAS LISTING C:\Users\jisu8\AppData\Local\Temp\ccLWfpjm.s 			page 62


 2872 00a2 00       		.byte	0
 2873 00a3 49       		.uleb128 0x49
 2874 00a4 13       		.uleb128 0x13
 2875 00a5 2F       		.uleb128 0x2f
 2876 00a6 0B       		.uleb128 0xb
 2877 00a7 00       		.byte	0
 2878 00a8 00       		.byte	0
 2879 00a9 0E       		.uleb128 0xe
 2880 00aa 34       		.uleb128 0x34
 2881 00ab 00       		.byte	0
 2882 00ac 03       		.uleb128 0x3
 2883 00ad 08       		.uleb128 0x8
 2884 00ae 3A       		.uleb128 0x3a
 2885 00af 0B       		.uleb128 0xb
 2886 00b0 3B       		.uleb128 0x3b
 2887 00b1 05       		.uleb128 0x5
 2888 00b2 39       		.uleb128 0x39
 2889 00b3 0B       		.uleb128 0xb
 2890 00b4 49       		.uleb128 0x49
 2891 00b5 13       		.uleb128 0x13
 2892 00b6 3F       		.uleb128 0x3f
 2893 00b7 0C       		.uleb128 0xc
 2894 00b8 3C       		.uleb128 0x3c
 2895 00b9 0C       		.uleb128 0xc
 2896 00ba 00       		.byte	0
 2897 00bb 00       		.byte	0
 2898 00bc 0F       		.uleb128 0xf
 2899 00bd 34       		.uleb128 0x34
 2900 00be 00       		.byte	0
 2901 00bf 03       		.uleb128 0x3
 2902 00c0 08       		.uleb128 0x8
 2903 00c1 3A       		.uleb128 0x3a
 2904 00c2 0B       		.uleb128 0xb
 2905 00c3 3B       		.uleb128 0x3b
 2906 00c4 0B       		.uleb128 0xb
 2907 00c5 39       		.uleb128 0x39
 2908 00c6 0B       		.uleb128 0xb
 2909 00c7 49       		.uleb128 0x49
 2910 00c8 13       		.uleb128 0x13
 2911 00c9 3F       		.uleb128 0x3f
 2912 00ca 0C       		.uleb128 0xc
 2913 00cb 02       		.uleb128 0x2
 2914 00cc 0A       		.uleb128 0xa
 2915 00cd 00       		.byte	0
 2916 00ce 00       		.byte	0
 2917 00cf 10       		.uleb128 0x10
 2918 00d0 34       		.uleb128 0x34
 2919 00d1 00       		.byte	0
 2920 00d2 03       		.uleb128 0x3
 2921 00d3 0E       		.uleb128 0xe
 2922 00d4 3A       		.uleb128 0x3a
 2923 00d5 0B       		.uleb128 0xb
 2924 00d6 3B       		.uleb128 0x3b
 2925 00d7 0B       		.uleb128 0xb
 2926 00d8 39       		.uleb128 0x39
 2927 00d9 0B       		.uleb128 0xb
 2928 00da 49       		.uleb128 0x49
GAS LISTING C:\Users\jisu8\AppData\Local\Temp\ccLWfpjm.s 			page 63


 2929 00db 13       		.uleb128 0x13
 2930 00dc 3F       		.uleb128 0x3f
 2931 00dd 0C       		.uleb128 0xc
 2932 00de 02       		.uleb128 0x2
 2933 00df 0A       		.uleb128 0xa
 2934 00e0 00       		.byte	0
 2935 00e1 00       		.byte	0
 2936 00e2 11       		.uleb128 0x11
 2937 00e3 34       		.uleb128 0x34
 2938 00e4 00       		.byte	0
 2939 00e5 03       		.uleb128 0x3
 2940 00e6 08       		.uleb128 0x8
 2941 00e7 3A       		.uleb128 0x3a
 2942 00e8 0B       		.uleb128 0xb
 2943 00e9 3B       		.uleb128 0x3b
 2944 00ea 0B       		.uleb128 0xb
 2945 00eb 39       		.uleb128 0x39
 2946 00ec 0B       		.uleb128 0xb
 2947 00ed 49       		.uleb128 0x49
 2948 00ee 13       		.uleb128 0x13
 2949 00ef 1C       		.uleb128 0x1c
 2950 00f0 0B       		.uleb128 0xb
 2951 00f1 00       		.byte	0
 2952 00f2 00       		.byte	0
 2953 00f3 12       		.uleb128 0x12
 2954 00f4 21       		.uleb128 0x21
 2955 00f5 00       		.byte	0
 2956 00f6 49       		.uleb128 0x49
 2957 00f7 13       		.uleb128 0x13
 2958 00f8 2F       		.uleb128 0x2f
 2959 00f9 05       		.uleb128 0x5
 2960 00fa 00       		.byte	0
 2961 00fb 00       		.byte	0
 2962 00fc 13       		.uleb128 0x13
 2963 00fd 21       		.uleb128 0x21
 2964 00fe 00       		.byte	0
 2965 00ff 49       		.uleb128 0x49
 2966 0100 13       		.uleb128 0x13
 2967 0101 2F       		.uleb128 0x2f
 2968 0102 06       		.uleb128 0x6
 2969 0103 00       		.byte	0
 2970 0104 00       		.byte	0
 2971 0105 14       		.uleb128 0x14
 2972 0106 2E       		.uleb128 0x2e
 2973 0107 01       		.byte	0x1
 2974 0108 3F       		.uleb128 0x3f
 2975 0109 0C       		.uleb128 0xc
 2976 010a 03       		.uleb128 0x3
 2977 010b 08       		.uleb128 0x8
 2978 010c 3A       		.uleb128 0x3a
 2979 010d 0B       		.uleb128 0xb
 2980 010e 3B       		.uleb128 0x3b
 2981 010f 0B       		.uleb128 0xb
 2982 0110 39       		.uleb128 0x39
 2983 0111 0B       		.uleb128 0xb
 2984 0112 27       		.uleb128 0x27
 2985 0113 0C       		.uleb128 0xc
GAS LISTING C:\Users\jisu8\AppData\Local\Temp\ccLWfpjm.s 			page 64


 2986 0114 49       		.uleb128 0x49
 2987 0115 13       		.uleb128 0x13
 2988 0116 11       		.uleb128 0x11
 2989 0117 01       		.uleb128 0x1
 2990 0118 12       		.uleb128 0x12
 2991 0119 01       		.uleb128 0x1
 2992 011a 40       		.uleb128 0x40
 2993 011b 06       		.uleb128 0x6
 2994 011c 9742     		.uleb128 0x2117
 2995 011e 0C       		.uleb128 0xc
 2996 011f 01       		.uleb128 0x1
 2997 0120 13       		.uleb128 0x13
 2998 0121 00       		.byte	0
 2999 0122 00       		.byte	0
 3000 0123 15       		.uleb128 0x15
 3001 0124 05       		.uleb128 0x5
 3002 0125 00       		.byte	0
 3003 0126 03       		.uleb128 0x3
 3004 0127 08       		.uleb128 0x8
 3005 0128 3A       		.uleb128 0x3a
 3006 0129 0B       		.uleb128 0xb
 3007 012a 3B       		.uleb128 0x3b
 3008 012b 0B       		.uleb128 0xb
 3009 012c 39       		.uleb128 0x39
 3010 012d 0B       		.uleb128 0xb
 3011 012e 49       		.uleb128 0x49
 3012 012f 13       		.uleb128 0x13
 3013 0130 02       		.uleb128 0x2
 3014 0131 0A       		.uleb128 0xa
 3015 0132 00       		.byte	0
 3016 0133 00       		.byte	0
 3017 0134 16       		.uleb128 0x16
 3018 0135 34       		.uleb128 0x34
 3019 0136 00       		.byte	0
 3020 0137 03       		.uleb128 0x3
 3021 0138 0E       		.uleb128 0xe
 3022 0139 3A       		.uleb128 0x3a
 3023 013a 0B       		.uleb128 0xb
 3024 013b 3B       		.uleb128 0x3b
 3025 013c 0B       		.uleb128 0xb
 3026 013d 39       		.uleb128 0x39
 3027 013e 0B       		.uleb128 0xb
 3028 013f 49       		.uleb128 0x49
 3029 0140 13       		.uleb128 0x13
 3030 0141 02       		.uleb128 0x2
 3031 0142 06       		.uleb128 0x6
 3032 0143 B742     		.uleb128 0x2137
 3033 0145 06       		.uleb128 0x6
 3034 0146 00       		.byte	0
 3035 0147 00       		.byte	0
 3036 0148 17       		.uleb128 0x17
 3037 0149 898201   		.uleb128 0x4109
 3038 014c 01       		.byte	0x1
 3039 014d 11       		.uleb128 0x11
 3040 014e 01       		.uleb128 0x1
 3041 014f 31       		.uleb128 0x31
 3042 0150 13       		.uleb128 0x13
GAS LISTING C:\Users\jisu8\AppData\Local\Temp\ccLWfpjm.s 			page 65


 3043 0151 01       		.uleb128 0x1
 3044 0152 13       		.uleb128 0x13
 3045 0153 00       		.byte	0
 3046 0154 00       		.byte	0
 3047 0155 18       		.uleb128 0x18
 3048 0156 8A8201   		.uleb128 0x410a
 3049 0159 00       		.byte	0
 3050 015a 02       		.uleb128 0x2
 3051 015b 0A       		.uleb128 0xa
 3052 015c 9142     		.uleb128 0x2111
 3053 015e 0A       		.uleb128 0xa
 3054 015f 00       		.byte	0
 3055 0160 00       		.byte	0
 3056 0161 19       		.uleb128 0x19
 3057 0162 898201   		.uleb128 0x4109
 3058 0165 01       		.byte	0x1
 3059 0166 11       		.uleb128 0x11
 3060 0167 01       		.uleb128 0x1
 3061 0168 31       		.uleb128 0x31
 3062 0169 13       		.uleb128 0x13
 3063 016a 00       		.byte	0
 3064 016b 00       		.byte	0
 3065 016c 1A       		.uleb128 0x1a
 3066 016d 2E       		.uleb128 0x2e
 3067 016e 01       		.byte	0x1
 3068 016f 03       		.uleb128 0x3
 3069 0170 08       		.uleb128 0x8
 3070 0171 3A       		.uleb128 0x3a
 3071 0172 0B       		.uleb128 0xb
 3072 0173 3B       		.uleb128 0x3b
 3073 0174 0B       		.uleb128 0xb
 3074 0175 39       		.uleb128 0x39
 3075 0176 0B       		.uleb128 0xb
 3076 0177 27       		.uleb128 0x27
 3077 0178 0C       		.uleb128 0xc
 3078 0179 11       		.uleb128 0x11
 3079 017a 01       		.uleb128 0x1
 3080 017b 12       		.uleb128 0x12
 3081 017c 01       		.uleb128 0x1
 3082 017d 40       		.uleb128 0x40
 3083 017e 06       		.uleb128 0x6
 3084 017f 9742     		.uleb128 0x2117
 3085 0181 0C       		.uleb128 0xc
 3086 0182 01       		.uleb128 0x1
 3087 0183 13       		.uleb128 0x13
 3088 0184 00       		.byte	0
 3089 0185 00       		.byte	0
 3090 0186 1B       		.uleb128 0x1b
 3091 0187 05       		.uleb128 0x5
 3092 0188 00       		.byte	0
 3093 0189 03       		.uleb128 0x3
 3094 018a 08       		.uleb128 0x8
 3095 018b 3A       		.uleb128 0x3a
 3096 018c 0B       		.uleb128 0xb
 3097 018d 3B       		.uleb128 0x3b
 3098 018e 0B       		.uleb128 0xb
 3099 018f 39       		.uleb128 0x39
GAS LISTING C:\Users\jisu8\AppData\Local\Temp\ccLWfpjm.s 			page 66


 3100 0190 0B       		.uleb128 0xb
 3101 0191 49       		.uleb128 0x49
 3102 0192 13       		.uleb128 0x13
 3103 0193 02       		.uleb128 0x2
 3104 0194 06       		.uleb128 0x6
 3105 0195 B742     		.uleb128 0x2137
 3106 0197 06       		.uleb128 0x6
 3107 0198 00       		.byte	0
 3108 0199 00       		.byte	0
 3109 019a 1C       		.uleb128 0x1c
 3110 019b 34       		.uleb128 0x34
 3111 019c 00       		.byte	0
 3112 019d 03       		.uleb128 0x3
 3113 019e 0E       		.uleb128 0xe
 3114 019f 3A       		.uleb128 0x3a
 3115 01a0 0B       		.uleb128 0xb
 3116 01a1 3B       		.uleb128 0x3b
 3117 01a2 0B       		.uleb128 0xb
 3118 01a3 39       		.uleb128 0x39
 3119 01a4 0B       		.uleb128 0xb
 3120 01a5 49       		.uleb128 0x49
 3121 01a6 13       		.uleb128 0x13
 3122 01a7 02       		.uleb128 0x2
 3123 01a8 0A       		.uleb128 0xa
 3124 01a9 00       		.byte	0
 3125 01aa 00       		.byte	0
 3126 01ab 1D       		.uleb128 0x1d
 3127 01ac 05       		.uleb128 0x5
 3128 01ad 00       		.byte	0
 3129 01ae 03       		.uleb128 0x3
 3130 01af 0E       		.uleb128 0xe
 3131 01b0 3A       		.uleb128 0x3a
 3132 01b1 0B       		.uleb128 0xb
 3133 01b2 3B       		.uleb128 0x3b
 3134 01b3 0B       		.uleb128 0xb
 3135 01b4 39       		.uleb128 0x39
 3136 01b5 0B       		.uleb128 0xb
 3137 01b6 49       		.uleb128 0x49
 3138 01b7 13       		.uleb128 0x13
 3139 01b8 02       		.uleb128 0x2
 3140 01b9 06       		.uleb128 0x6
 3141 01ba B742     		.uleb128 0x2137
 3142 01bc 06       		.uleb128 0x6
 3143 01bd 00       		.byte	0
 3144 01be 00       		.byte	0
 3145 01bf 1E       		.uleb128 0x1e
 3146 01c0 05       		.uleb128 0x5
 3147 01c1 00       		.byte	0
 3148 01c2 03       		.uleb128 0x3
 3149 01c3 0E       		.uleb128 0xe
 3150 01c4 3A       		.uleb128 0x3a
 3151 01c5 0B       		.uleb128 0xb
 3152 01c6 3B       		.uleb128 0x3b
 3153 01c7 0B       		.uleb128 0xb
 3154 01c8 39       		.uleb128 0x39
 3155 01c9 0B       		.uleb128 0xb
 3156 01ca 49       		.uleb128 0x49
GAS LISTING C:\Users\jisu8\AppData\Local\Temp\ccLWfpjm.s 			page 67


 3157 01cb 13       		.uleb128 0x13
 3158 01cc 02       		.uleb128 0x2
 3159 01cd 0A       		.uleb128 0xa
 3160 01ce 00       		.byte	0
 3161 01cf 00       		.byte	0
 3162 01d0 1F       		.uleb128 0x1f
 3163 01d1 0B       		.uleb128 0xb
 3164 01d2 01       		.byte	0x1
 3165 01d3 11       		.uleb128 0x11
 3166 01d4 01       		.uleb128 0x1
 3167 01d5 12       		.uleb128 0x12
 3168 01d6 01       		.uleb128 0x1
 3169 01d7 01       		.uleb128 0x1
 3170 01d8 13       		.uleb128 0x13
 3171 01d9 00       		.byte	0
 3172 01da 00       		.byte	0
 3173 01db 20       		.uleb128 0x20
 3174 01dc 34       		.uleb128 0x34
 3175 01dd 00       		.byte	0
 3176 01de 03       		.uleb128 0x3
 3177 01df 08       		.uleb128 0x8
 3178 01e0 3A       		.uleb128 0x3a
 3179 01e1 0B       		.uleb128 0xb
 3180 01e2 3B       		.uleb128 0x3b
 3181 01e3 0B       		.uleb128 0xb
 3182 01e4 39       		.uleb128 0x39
 3183 01e5 0B       		.uleb128 0xb
 3184 01e6 49       		.uleb128 0x49
 3185 01e7 13       		.uleb128 0x13
 3186 01e8 02       		.uleb128 0x2
 3187 01e9 06       		.uleb128 0x6
 3188 01ea B742     		.uleb128 0x2137
 3189 01ec 06       		.uleb128 0x6
 3190 01ed 00       		.byte	0
 3191 01ee 00       		.byte	0
 3192 01ef 21       		.uleb128 0x21
 3193 01f0 0B       		.uleb128 0xb
 3194 01f1 01       		.byte	0x1
 3195 01f2 55       		.uleb128 0x55
 3196 01f3 06       		.uleb128 0x6
 3197 01f4 00       		.byte	0
 3198 01f5 00       		.byte	0
 3199 01f6 22       		.uleb128 0x22
 3200 01f7 0B       		.uleb128 0xb
 3201 01f8 01       		.byte	0x1
 3202 01f9 55       		.uleb128 0x55
 3203 01fa 06       		.uleb128 0x6
 3204 01fb 01       		.uleb128 0x1
 3205 01fc 13       		.uleb128 0x13
 3206 01fd 00       		.byte	0
 3207 01fe 00       		.byte	0
 3208 01ff 23       		.uleb128 0x23
 3209 0200 0B       		.uleb128 0xb
 3210 0201 01       		.byte	0x1
 3211 0202 11       		.uleb128 0x11
 3212 0203 01       		.uleb128 0x1
 3213 0204 12       		.uleb128 0x12
GAS LISTING C:\Users\jisu8\AppData\Local\Temp\ccLWfpjm.s 			page 68


 3214 0205 01       		.uleb128 0x1
 3215 0206 00       		.byte	0
 3216 0207 00       		.byte	0
 3217 0208 24       		.uleb128 0x24
 3218 0209 1D       		.uleb128 0x1d
 3219 020a 01       		.byte	0x1
 3220 020b 31       		.uleb128 0x31
 3221 020c 13       		.uleb128 0x13
 3222 020d 52       		.uleb128 0x52
 3223 020e 01       		.uleb128 0x1
 3224 020f B842     		.uleb128 0x2138
 3225 0211 0B       		.uleb128 0xb
 3226 0212 55       		.uleb128 0x55
 3227 0213 06       		.uleb128 0x6
 3228 0214 58       		.uleb128 0x58
 3229 0215 0B       		.uleb128 0xb
 3230 0216 59       		.uleb128 0x59
 3231 0217 0B       		.uleb128 0xb
 3232 0218 57       		.uleb128 0x57
 3233 0219 0B       		.uleb128 0xb
 3234 021a 01       		.uleb128 0x1
 3235 021b 13       		.uleb128 0x13
 3236 021c 00       		.byte	0
 3237 021d 00       		.byte	0
 3238 021e 25       		.uleb128 0x25
 3239 021f 05       		.uleb128 0x5
 3240 0220 00       		.byte	0
 3241 0221 31       		.uleb128 0x31
 3242 0222 13       		.uleb128 0x13
 3243 0223 02       		.uleb128 0x2
 3244 0224 06       		.uleb128 0x6
 3245 0225 B742     		.uleb128 0x2137
 3246 0227 06       		.uleb128 0x6
 3247 0228 00       		.byte	0
 3248 0229 00       		.byte	0
 3249 022a 26       		.uleb128 0x26
 3250 022b 2E       		.uleb128 0x2e
 3251 022c 01       		.byte	0x1
 3252 022d 03       		.uleb128 0x3
 3253 022e 08       		.uleb128 0x8
 3254 022f 3A       		.uleb128 0x3a
 3255 0230 0B       		.uleb128 0xb
 3256 0231 3B       		.uleb128 0x3b
 3257 0232 0B       		.uleb128 0xb
 3258 0233 39       		.uleb128 0x39
 3259 0234 0B       		.uleb128 0xb
 3260 0235 27       		.uleb128 0x27
 3261 0236 0C       		.uleb128 0xc
 3262 0237 49       		.uleb128 0x49
 3263 0238 13       		.uleb128 0x13
 3264 0239 20       		.uleb128 0x20
 3265 023a 0B       		.uleb128 0xb
 3266 023b 01       		.uleb128 0x1
 3267 023c 13       		.uleb128 0x13
 3268 023d 00       		.byte	0
 3269 023e 00       		.byte	0
 3270 023f 27       		.uleb128 0x27
GAS LISTING C:\Users\jisu8\AppData\Local\Temp\ccLWfpjm.s 			page 69


 3271 0240 05       		.uleb128 0x5
 3272 0241 00       		.byte	0
 3273 0242 03       		.uleb128 0x3
 3274 0243 08       		.uleb128 0x8
 3275 0244 3A       		.uleb128 0x3a
 3276 0245 0B       		.uleb128 0xb
 3277 0246 3B       		.uleb128 0x3b
 3278 0247 0B       		.uleb128 0xb
 3279 0248 39       		.uleb128 0x39
 3280 0249 0B       		.uleb128 0xb
 3281 024a 49       		.uleb128 0x49
 3282 024b 13       		.uleb128 0x13
 3283 024c 00       		.byte	0
 3284 024d 00       		.byte	0
 3285 024e 28       		.uleb128 0x28
 3286 024f 2E       		.uleb128 0x2e
 3287 0250 01       		.byte	0x1
 3288 0251 03       		.uleb128 0x3
 3289 0252 08       		.uleb128 0x8
 3290 0253 3A       		.uleb128 0x3a
 3291 0254 0B       		.uleb128 0xb
 3292 0255 3B       		.uleb128 0x3b
 3293 0256 0B       		.uleb128 0xb
 3294 0257 39       		.uleb128 0x39
 3295 0258 0B       		.uleb128 0xb
 3296 0259 27       		.uleb128 0x27
 3297 025a 0C       		.uleb128 0xc
 3298 025b 49       		.uleb128 0x49
 3299 025c 13       		.uleb128 0x13
 3300 025d 11       		.uleb128 0x11
 3301 025e 01       		.uleb128 0x1
 3302 025f 12       		.uleb128 0x12
 3303 0260 01       		.uleb128 0x1
 3304 0261 40       		.uleb128 0x40
 3305 0262 06       		.uleb128 0x6
 3306 0263 9742     		.uleb128 0x2117
 3307 0265 0C       		.uleb128 0xc
 3308 0266 01       		.uleb128 0x1
 3309 0267 13       		.uleb128 0x13
 3310 0268 00       		.byte	0
 3311 0269 00       		.byte	0
 3312 026a 29       		.uleb128 0x29
 3313 026b 2E       		.uleb128 0x2e
 3314 026c 00       		.byte	0
 3315 026d 3F       		.uleb128 0x3f
 3316 026e 0C       		.uleb128 0xc
 3317 026f 3C       		.uleb128 0x3c
 3318 0270 0C       		.uleb128 0xc
 3319 0271 8740     		.uleb128 0x2007
 3320 0273 0E       		.uleb128 0xe
 3321 0274 03       		.uleb128 0x3
 3322 0275 0E       		.uleb128 0xe
 3323 0276 3A       		.uleb128 0x3a
 3324 0277 0B       		.uleb128 0xb
 3325 0278 3B       		.uleb128 0x3b
 3326 0279 0B       		.uleb128 0xb
 3327 027a 39       		.uleb128 0x39
GAS LISTING C:\Users\jisu8\AppData\Local\Temp\ccLWfpjm.s 			page 70


 3328 027b 0B       		.uleb128 0xb
 3329 027c 00       		.byte	0
 3330 027d 00       		.byte	0
 3331 027e 2A       		.uleb128 0x2a
 3332 027f 2E       		.uleb128 0x2e
 3333 0280 00       		.byte	0
 3334 0281 3F       		.uleb128 0x3f
 3335 0282 0C       		.uleb128 0xc
 3336 0283 3C       		.uleb128 0x3c
 3337 0284 0C       		.uleb128 0xc
 3338 0285 8740     		.uleb128 0x2007
 3339 0287 08       		.uleb128 0x8
 3340 0288 03       		.uleb128 0x3
 3341 0289 08       		.uleb128 0x8
 3342 028a 3A       		.uleb128 0x3a
 3343 028b 0B       		.uleb128 0xb
 3344 028c 3B       		.uleb128 0x3b
 3345 028d 0B       		.uleb128 0xb
 3346 028e 00       		.byte	0
 3347 028f 00       		.byte	0
 3348 0290 2B       		.uleb128 0x2b
 3349 0291 2E       		.uleb128 0x2e
 3350 0292 00       		.byte	0
 3351 0293 3F       		.uleb128 0x3f
 3352 0294 0C       		.uleb128 0xc
 3353 0295 3C       		.uleb128 0x3c
 3354 0296 0C       		.uleb128 0xc
 3355 0297 8740     		.uleb128 0x2007
 3356 0299 08       		.uleb128 0x8
 3357 029a 03       		.uleb128 0x3
 3358 029b 08       		.uleb128 0x8
 3359 029c 3A       		.uleb128 0x3a
 3360 029d 0B       		.uleb128 0xb
 3361 029e 3B       		.uleb128 0x3b
 3362 029f 05       		.uleb128 0x5
 3363 02a0 39       		.uleb128 0x39
 3364 02a1 0B       		.uleb128 0xb
 3365 02a2 00       		.byte	0
 3366 02a3 00       		.byte	0
 3367 02a4 00       		.byte	0
 3368              		.section	.debug_loc,"dr"
 3369              	Ldebug_loc0:
 3370              	LLST55:
 3371 0000 B0040000 		.long	LFB29-Ltext0
 3372 0004 B1040000 		.long	LCFI40-Ltext0
 3373 0008 0200     		.word	0x2
 3374 000a 74       		.byte	0x74
 3375 000b 04       		.sleb128 4
 3376 000c B1040000 		.long	LCFI40-Ltext0
 3377 0010 B4040000 		.long	LCFI41-Ltext0
 3378 0014 0200     		.word	0x2
 3379 0016 74       		.byte	0x74
 3380 0017 08       		.sleb128 8
 3381 0018 B4040000 		.long	LCFI41-Ltext0
 3382 001c FC040000 		.long	LCFI42-Ltext0
 3383 0020 0200     		.word	0x2
 3384 0022 74       		.byte	0x74
GAS LISTING C:\Users\jisu8\AppData\Local\Temp\ccLWfpjm.s 			page 71


 3385 0023 20       		.sleb128 32
 3386 0024 FC040000 		.long	LCFI42-Ltext0
 3387 0028 FD040000 		.long	LCFI43-Ltext0
 3388 002c 0200     		.word	0x2
 3389 002e 74       		.byte	0x74
 3390 002f 08       		.sleb128 8
 3391 0030 FD040000 		.long	LCFI43-Ltext0
 3392 0034 FE040000 		.long	LCFI44-Ltext0
 3393 0038 0200     		.word	0x2
 3394 003a 74       		.byte	0x74
 3395 003b 04       		.sleb128 4
 3396 003c FE040000 		.long	LCFI44-Ltext0
 3397 0040 08050000 		.long	LFE29-Ltext0
 3398 0044 0200     		.word	0x2
 3399 0046 74       		.byte	0x74
 3400 0047 20       		.sleb128 32
 3401 0048 00000000 		.long	0
 3402 004c 00000000 		.long	0
 3403              	LVUS56:
 3404 0050 00       		.uleb128 LVU260
 3405 0051 00       		.uleb128 LVU273
 3406 0052 00       		.uleb128 LVU273
 3407 0053 00       		.uleb128 LVU276
 3408 0054 00       		.uleb128 LVU279
 3409 0055 00       		.uleb128 LVU281
 3410              	LLST56:
 3411 0056 BB040000 		.long	LVL109-Ltext0
 3412 005a E6040000 		.long	LVL111-Ltext0
 3413 005e 0100     		.word	0x1
 3414 0060 52       		.byte	0x52
 3415 0061 E6040000 		.long	LVL111-Ltext0
 3416 0065 F3040000 		.long	LVL112-1-Ltext0
 3417 0069 0500     		.word	0x5
 3418 006b 03       		.byte	0x3
 3419 006c 00000000 		.long	_matrix
 3420 0070 FE040000 		.long	LVL113-Ltext0
 3421 0074 05050000 		.long	LVL114-1-Ltext0
 3422 0078 0500     		.word	0x5
 3423 007a 03       		.byte	0x3
 3424 007b 00000000 		.long	_matrix
 3425 007f 00000000 		.long	0
 3426 0083 00000000 		.long	0
 3427              	LVUS57:
 3428 0087 00       		.uleb128 LVU262
 3429 0088 00       		.uleb128 LVU276
 3430 0089 00       		.uleb128 LVU279
 3431 008a 00       		.uleb128 LVU281
 3432              	LLST57:
 3433 008b BE040000 		.long	LVL110-Ltext0
 3434 008f F3040000 		.long	LVL112-1-Ltext0
 3435 0093 0100     		.word	0x1
 3436 0095 51       		.byte	0x51
 3437 0096 FE040000 		.long	LVL113-Ltext0
 3438 009a 05050000 		.long	LVL114-1-Ltext0
 3439 009e 0100     		.word	0x1
 3440 00a0 51       		.byte	0x51
 3441 00a1 00000000 		.long	0
GAS LISTING C:\Users\jisu8\AppData\Local\Temp\ccLWfpjm.s 			page 72


 3442 00a5 00000000 		.long	0
 3443              	LLST46:
 3444 00a9 0A040000 		.long	LFB28-Ltext0
 3445 00ad 0B040000 		.long	LCFI30-Ltext0
 3446 00b1 0200     		.word	0x2
 3447 00b3 74       		.byte	0x74
 3448 00b4 04       		.sleb128 4
 3449 00b5 0B040000 		.long	LCFI30-Ltext0
 3450 00b9 0C040000 		.long	LCFI31-Ltext0
 3451 00bd 0200     		.word	0x2
 3452 00bf 74       		.byte	0x74
 3453 00c0 08       		.sleb128 8
 3454 00c1 0C040000 		.long	LCFI31-Ltext0
 3455 00c5 0D040000 		.long	LCFI32-Ltext0
 3456 00c9 0200     		.word	0x2
 3457 00cb 74       		.byte	0x74
 3458 00cc 0C       		.sleb128 12
 3459 00cd 0D040000 		.long	LCFI32-Ltext0
 3460 00d1 0E040000 		.long	LCFI33-Ltext0
 3461 00d5 0200     		.word	0x2
 3462 00d7 74       		.byte	0x74
 3463 00d8 10       		.sleb128 16
 3464 00d9 0E040000 		.long	LCFI33-Ltext0
 3465 00dd 11040000 		.long	LCFI34-Ltext0
 3466 00e1 0200     		.word	0x2
 3467 00e3 74       		.byte	0x74
 3468 00e4 14       		.sleb128 20
 3469 00e5 11040000 		.long	LCFI34-Ltext0
 3470 00e9 AB040000 		.long	LCFI35-Ltext0
 3471 00ed 0300     		.word	0x3
 3472 00ef 74       		.byte	0x74
 3473 00f0 D000     		.sleb128 80
 3474 00f2 AB040000 		.long	LCFI35-Ltext0
 3475 00f6 AC040000 		.long	LCFI36-Ltext0
 3476 00fa 0200     		.word	0x2
 3477 00fc 74       		.byte	0x74
 3478 00fd 14       		.sleb128 20
 3479 00fe AC040000 		.long	LCFI36-Ltext0
 3480 0102 AD040000 		.long	LCFI37-Ltext0
 3481 0106 0200     		.word	0x2
 3482 0108 74       		.byte	0x74
 3483 0109 10       		.sleb128 16
 3484 010a AD040000 		.long	LCFI37-Ltext0
 3485 010e AE040000 		.long	LCFI38-Ltext0
 3486 0112 0200     		.word	0x2
 3487 0114 74       		.byte	0x74
 3488 0115 0C       		.sleb128 12
 3489 0116 AE040000 		.long	LCFI38-Ltext0
 3490 011a AF040000 		.long	LCFI39-Ltext0
 3491 011e 0200     		.word	0x2
 3492 0120 74       		.byte	0x74
 3493 0121 08       		.sleb128 8
 3494 0122 AF040000 		.long	LCFI39-Ltext0
 3495 0126 B0040000 		.long	LFE28-Ltext0
 3496 012a 0200     		.word	0x2
 3497 012c 74       		.byte	0x74
 3498 012d 04       		.sleb128 4
GAS LISTING C:\Users\jisu8\AppData\Local\Temp\ccLWfpjm.s 			page 73


 3499 012e 00000000 		.long	0
 3500 0132 00000000 		.long	0
 3501              	LVUS47:
 3502 0136 00       		.uleb128 0
 3503 0137 00       		.uleb128 LVU240
 3504 0138 00       		.uleb128 LVU240
 3505 0139 00       		.uleb128 0
 3506              	LLST47:
 3507 013a 0A040000 		.long	LVL92-Ltext0
 3508 013e 42040000 		.long	LVL97-1-Ltext0
 3509 0142 0100     		.word	0x1
 3510 0144 50       		.byte	0x50
 3511 0145 42040000 		.long	LVL97-1-Ltext0
 3512 0149 B0040000 		.long	LFE28-Ltext0
 3513 014d 0400     		.word	0x4
 3514 014f F3       		.byte	0xf3
 3515 0150 01       		.uleb128 0x1
 3516 0151 50       		.byte	0x50
 3517 0152 9F       		.byte	0x9f
 3518 0153 00000000 		.long	0
 3519 0157 00000000 		.long	0
 3520              	LVUS48:
 3521 015b 00       		.uleb128 0
 3522 015c 00       		.uleb128 LVU239
 3523 015d 00       		.uleb128 LVU239
 3524 015e 00       		.uleb128 0
 3525              	LLST48:
 3526 015f 0A040000 		.long	LVL92-Ltext0
 3527 0163 2F040000 		.long	LVL96-Ltext0
 3528 0167 0100     		.word	0x1
 3529 0169 52       		.byte	0x52
 3530 016a 2F040000 		.long	LVL96-Ltext0
 3531 016e B0040000 		.long	LFE28-Ltext0
 3532 0172 0200     		.word	0x2
 3533 0174 91       		.byte	0x91
 3534 0175 4C       		.sleb128 -52
 3535 0176 00000000 		.long	0
 3536 017a 00000000 		.long	0
 3537              	LVUS49:
 3538 017e 01       		.uleb128 LVU230
 3539 017f 00       		.uleb128 LVU239
 3540 0180 00       		.uleb128 LVU239
 3541 0181 00       		.uleb128 0
 3542              	LLST49:
 3543 0182 15040000 		.long	LVL93-Ltext0
 3544 0186 2F040000 		.long	LVL96-Ltext0
 3545 018a 0100     		.word	0x1
 3546 018c 52       		.byte	0x52
 3547 018d 2F040000 		.long	LVL96-Ltext0
 3548 0191 B0040000 		.long	LFE28-Ltext0
 3549 0195 0200     		.word	0x2
 3550 0197 91       		.byte	0x91
 3551 0198 4C       		.sleb128 -52
 3552 0199 00000000 		.long	0
 3553 019d 00000000 		.long	0
 3554              	LVUS50:
 3555 01a1 00       		.uleb128 LVU232
GAS LISTING C:\Users\jisu8\AppData\Local\Temp\ccLWfpjm.s 			page 74


 3556 01a2 00       		.uleb128 LVU254
 3557              	LLST50:
 3558 01a3 18040000 		.long	LVL94-Ltext0
 3559 01a7 AE040000 		.long	LVL106-Ltext0
 3560 01ab 0100     		.word	0x1
 3561 01ad 57       		.byte	0x57
 3562 01ae 00000000 		.long	0
 3563 01b2 00000000 		.long	0
 3564              	LVUS51:
 3565 01b6 00       		.uleb128 LVU234
 3566 01b7 00       		.uleb128 LVU255
 3567              	LLST51:
 3568 01b8 1B040000 		.long	LVL95-Ltext0
 3569 01bc AF040000 		.long	LVL107-Ltext0
 3570 01c0 0100     		.word	0x1
 3571 01c2 55       		.byte	0x55
 3572 01c3 00000000 		.long	0
 3573 01c7 00000000 		.long	0
 3574              	LVUS52:
 3575 01cb 00       		.uleb128 LVU241
 3576 01cc 00       		.uleb128 LVU243
 3577 01cd 00       		.uleb128 LVU243
 3578 01ce 00       		.uleb128 0
 3579              	LLST52:
 3580 01cf 47040000 		.long	LVL98-Ltext0
 3581 01d3 4A040000 		.long	LVL99-Ltext0
 3582 01d7 0100     		.word	0x1
 3583 01d9 50       		.byte	0x50
 3584 01da 4A040000 		.long	LVL99-Ltext0
 3585 01de B0040000 		.long	LFE28-Ltext0
 3586 01e2 0200     		.word	0x2
 3587 01e4 91       		.byte	0x91
 3588 01e5 48       		.sleb128 -56
 3589 01e6 00000000 		.long	0
 3590 01ea 00000000 		.long	0
 3591              	LVUS53:
 3592 01ee 00       		.uleb128 LVU244
 3593 01ef 00       		.uleb128 LVU252
 3594 01f0 00       		.uleb128 LVU252
 3595 01f1 00       		.uleb128 LVU254
 3596              	LLST53:
 3597 01f2 55040000 		.long	LVL100-Ltext0
 3598 01f6 AC040000 		.long	LVL104-Ltext0
 3599 01fa 0100     		.word	0x1
 3600 01fc 53       		.byte	0x53
 3601 01fd AC040000 		.long	LVL104-Ltext0
 3602 0201 AE040000 		.long	LVL106-Ltext0
 3603 0205 1000     		.word	0x10
 3604 0207 77       		.byte	0x77
 3605 0208 0E       		.sleb128 14
 3606 0209 77       		.byte	0x77
 3607 020a 07       		.sleb128 7
 3608 020b 77       		.byte	0x77
 3609 020c 07       		.sleb128 7
 3610 020d 30       		.byte	0x30
 3611 020e 2D       		.byte	0x2d
 3612 020f 28       		.byte	0x28
GAS LISTING C:\Users\jisu8\AppData\Local\Temp\ccLWfpjm.s 			page 75


 3613 0210 0100     		.word	0x1
 3614 0212 16       		.byte	0x16
 3615 0213 13       		.byte	0x13
 3616 0214 33       		.byte	0x33
 3617 0215 26       		.byte	0x26
 3618 0216 9F       		.byte	0x9f
 3619 0217 00000000 		.long	0
 3620 021b 00000000 		.long	0
 3621              	LVUS54:
 3622 021f 00       		.uleb128 LVU247
 3623 0220 00       		.uleb128 LVU253
 3624 0221 00       		.uleb128 LVU253
 3625 0222 00       		.uleb128 LVU255
 3626              	LLST54:
 3627 0223 63040000 		.long	LVL101-Ltext0
 3628 0227 AD040000 		.long	LVL105-Ltext0
 3629 022b 0100     		.word	0x1
 3630 022d 56       		.byte	0x56
 3631 022e AD040000 		.long	LVL105-Ltext0
 3632 0232 AF040000 		.long	LVL107-Ltext0
 3633 0236 1000     		.word	0x10
 3634 0238 75       		.byte	0x75
 3635 0239 0E       		.sleb128 14
 3636 023a 75       		.byte	0x75
 3637 023b 07       		.sleb128 7
 3638 023c 75       		.byte	0x75
 3639 023d 07       		.sleb128 7
 3640 023e 30       		.byte	0x30
 3641 023f 2D       		.byte	0x2d
 3642 0240 28       		.byte	0x28
 3643 0241 0100     		.word	0x1
 3644 0243 16       		.byte	0x16
 3645 0244 13       		.byte	0x13
 3646 0245 33       		.byte	0x33
 3647 0246 26       		.byte	0x26
 3648 0247 9F       		.byte	0x9f
 3649 0248 00000000 		.long	0
 3650 024c 00000000 		.long	0
 3651              	LLST26:
 3652 0250 C7020000 		.long	LFB27-Ltext0
 3653 0254 C8020000 		.long	LCFI20-Ltext0
 3654 0258 0200     		.word	0x2
 3655 025a 74       		.byte	0x74
 3656 025b 04       		.sleb128 4
 3657 025c C8020000 		.long	LCFI20-Ltext0
 3658 0260 C9020000 		.long	LCFI21-Ltext0
 3659 0264 0200     		.word	0x2
 3660 0266 74       		.byte	0x74
 3661 0267 08       		.sleb128 8
 3662 0268 C9020000 		.long	LCFI21-Ltext0
 3663 026c CA020000 		.long	LCFI22-Ltext0
 3664 0270 0200     		.word	0x2
 3665 0272 74       		.byte	0x74
 3666 0273 0C       		.sleb128 12
 3667 0274 CA020000 		.long	LCFI22-Ltext0
 3668 0278 CB020000 		.long	LCFI23-Ltext0
 3669 027c 0200     		.word	0x2
GAS LISTING C:\Users\jisu8\AppData\Local\Temp\ccLWfpjm.s 			page 76


 3670 027e 74       		.byte	0x74
 3671 027f 10       		.sleb128 16
 3672 0280 CB020000 		.long	LCFI23-Ltext0
 3673 0284 CE020000 		.long	LCFI24-Ltext0
 3674 0288 0200     		.word	0x2
 3675 028a 74       		.byte	0x74
 3676 028b 14       		.sleb128 20
 3677 028c CE020000 		.long	LCFI24-Ltext0
 3678 0290 05040000 		.long	LCFI25-Ltext0
 3679 0294 0300     		.word	0x3
 3680 0296 74       		.byte	0x74
 3681 0297 D000     		.sleb128 80
 3682 0299 05040000 		.long	LCFI25-Ltext0
 3683 029d 06040000 		.long	LCFI26-Ltext0
 3684 02a1 0200     		.word	0x2
 3685 02a3 74       		.byte	0x74
 3686 02a4 14       		.sleb128 20
 3687 02a5 06040000 		.long	LCFI26-Ltext0
 3688 02a9 07040000 		.long	LCFI27-Ltext0
 3689 02ad 0200     		.word	0x2
 3690 02af 74       		.byte	0x74
 3691 02b0 10       		.sleb128 16
 3692 02b1 07040000 		.long	LCFI27-Ltext0
 3693 02b5 08040000 		.long	LCFI28-Ltext0
 3694 02b9 0200     		.word	0x2
 3695 02bb 74       		.byte	0x74
 3696 02bc 0C       		.sleb128 12
 3697 02bd 08040000 		.long	LCFI28-Ltext0
 3698 02c1 09040000 		.long	LCFI29-Ltext0
 3699 02c5 0200     		.word	0x2
 3700 02c7 74       		.byte	0x74
 3701 02c8 08       		.sleb128 8
 3702 02c9 09040000 		.long	LCFI29-Ltext0
 3703 02cd 0A040000 		.long	LFE27-Ltext0
 3704 02d1 0200     		.word	0x2
 3705 02d3 74       		.byte	0x74
 3706 02d4 04       		.sleb128 4
 3707 02d5 00000000 		.long	0
 3708 02d9 00000000 		.long	0
 3709              	LVUS27:
 3710 02dd 00       		.uleb128 0
 3711 02de 00       		.uleb128 LVU164
 3712 02df 00       		.uleb128 LVU164
 3713 02e0 00       		.uleb128 0
 3714              	LLST27:
 3715 02e1 C7020000 		.long	LVL65-Ltext0
 3716 02e5 E5020000 		.long	LVL66-1-Ltext0
 3717 02e9 0100     		.word	0x1
 3718 02eb 50       		.byte	0x50
 3719 02ec E5020000 		.long	LVL66-1-Ltext0
 3720 02f0 0A040000 		.long	LFE27-Ltext0
 3721 02f4 0200     		.word	0x2
 3722 02f6 91       		.byte	0x91
 3723 02f7 5C       		.sleb128 -36
 3724 02f8 00000000 		.long	0
 3725 02fc 00000000 		.long	0
 3726              	LVUS28:
GAS LISTING C:\Users\jisu8\AppData\Local\Temp\ccLWfpjm.s 			page 77


 3727 0300 00       		.uleb128 0
 3728 0301 00       		.uleb128 LVU164
 3729 0302 00       		.uleb128 LVU164
 3730 0303 00       		.uleb128 0
 3731              	LLST28:
 3732 0304 C7020000 		.long	LVL65-Ltext0
 3733 0308 E5020000 		.long	LVL66-1-Ltext0
 3734 030c 0100     		.word	0x1
 3735 030e 52       		.byte	0x52
 3736 030f E5020000 		.long	LVL66-1-Ltext0
 3737 0313 0A040000 		.long	LFE27-Ltext0
 3738 0317 0200     		.word	0x2
 3739 0319 91       		.byte	0x91
 3740 031a 48       		.sleb128 -56
 3741 031b 00000000 		.long	0
 3742 031f 00000000 		.long	0
 3743              	LVUS29:
 3744 0323 00       		.uleb128 0
 3745 0324 00       		.uleb128 LVU164
 3746 0325 00       		.uleb128 LVU164
 3747 0326 00       		.uleb128 0
 3748              	LLST29:
 3749 0327 C7020000 		.long	LVL65-Ltext0
 3750 032b E5020000 		.long	LVL66-1-Ltext0
 3751 032f 0100     		.word	0x1
 3752 0331 51       		.byte	0x51
 3753 0332 E5020000 		.long	LVL66-1-Ltext0
 3754 0336 0A040000 		.long	LFE27-Ltext0
 3755 033a 0200     		.word	0x2
 3756 033c 91       		.byte	0x91
 3757 033d 54       		.sleb128 -44
 3758 033e 00000000 		.long	0
 3759 0342 00000000 		.long	0
 3760              	LVUS30:
 3761 0346 02       		.uleb128 LVU166
 3762 0347 00       		.uleb128 LVU168
 3763 0348 00       		.uleb128 LVU168
 3764 0349 00       		.uleb128 0
 3765              	LLST30:
 3766 034a E6020000 		.long	LVL66-Ltext0
 3767 034e F3020000 		.long	LVL67-Ltext0
 3768 0352 0200     		.word	0x2
 3769 0354 30       		.byte	0x30
 3770 0355 9F       		.byte	0x9f
 3771 0356 F3020000 		.long	LVL67-Ltext0
 3772 035a 0A040000 		.long	LFE27-Ltext0
 3773 035e 0200     		.word	0x2
 3774 0360 91       		.byte	0x91
 3775 0361 50       		.sleb128 -48
 3776 0362 00000000 		.long	0
 3777 0366 00000000 		.long	0
 3778              	LVUS31:
 3779 036a 00       		.uleb128 LVU168
 3780 036b 00       		.uleb128 LVU217
 3781 036c 00       		.uleb128 LVU221
 3782 036d 00       		.uleb128 LVU225
 3783              	LLST31:
GAS LISTING C:\Users\jisu8\AppData\Local\Temp\ccLWfpjm.s 			page 78


 3784 036e F3020000 		.long	LVL67-Ltext0
 3785 0372 D4030000 		.long	LVL89-Ltext0
 3786 0376 0200     		.word	0x2
 3787 0378 91       		.byte	0x91
 3788 0379 58       		.sleb128 -40
 3789 037a F5030000 		.long	LVL90-Ltext0
 3790 037e 02040000 		.long	LVL91-Ltext0
 3791 0382 0100     		.word	0x1
 3792 0384 50       		.byte	0x50
 3793 0385 00000000 		.long	0
 3794 0389 00000000 		.long	0
 3795              	LVUS32:
 3796 038d 00       		.uleb128 LVU168
 3797 038e 00       		.uleb128 LVU170
 3798 038f 00       		.uleb128 LVU170
 3799 0390 00       		.uleb128 LVU217
 3800 0391 02       		.uleb128 LVU223
 3801 0392 00       		.uleb128 LVU225
 3802              	LLST32:
 3803 0393 F3020000 		.long	LVL67-Ltext0
 3804 0397 FD020000 		.long	LVL69-Ltext0
 3805 039b 0100     		.word	0x1
 3806 039d 57       		.byte	0x57
 3807 039e FD020000 		.long	LVL69-Ltext0
 3808 03a2 D4030000 		.long	LVL89-Ltext0
 3809 03a6 0200     		.word	0x2
 3810 03a8 91       		.byte	0x91
 3811 03a9 44       		.sleb128 -60
 3812 03aa F5030000 		.long	LVL90-Ltext0
 3813 03ae 02040000 		.long	LVL91-Ltext0
 3814 03b2 0200     		.word	0x2
 3815 03b4 30       		.byte	0x30
 3816 03b5 9F       		.byte	0x9f
 3817 03b6 00000000 		.long	0
 3818 03ba 00000000 		.long	0
 3819              	LVUS33:
 3820 03be 00       		.uleb128 LVU168
 3821 03bf 00       		.uleb128 LVU192
 3822 03c0 00       		.uleb128 LVU196
 3823 03c1 00       		.uleb128 LVU198
 3824 03c2 00       		.uleb128 LVU198
 3825 03c3 00       		.uleb128 LVU215
 3826              	LLST33:
 3827 03c4 F3020000 		.long	LVL67-Ltext0
 3828 03c8 6D030000 		.long	LVL81-Ltext0
 3829 03cc 0200     		.word	0x2
 3830 03ce 91       		.byte	0x91
 3831 03cf 4C       		.sleb128 -52
 3832 03d0 92030000 		.long	LVL82-Ltext0
 3833 03d4 96030000 		.long	LVL83-Ltext0
 3834 03d8 0100     		.word	0x1
 3835 03da 50       		.byte	0x50
 3836 03db 96030000 		.long	LVL83-Ltext0
 3837 03df CF030000 		.long	LVL88-Ltext0
 3838 03e3 0200     		.word	0x2
 3839 03e5 91       		.byte	0x91
 3840 03e6 4C       		.sleb128 -52
GAS LISTING C:\Users\jisu8\AppData\Local\Temp\ccLWfpjm.s 			page 79


 3841 03e7 00000000 		.long	0
 3842 03eb 00000000 		.long	0
 3843              	LVUS34:
 3844 03ef 00       		.uleb128 LVU170
 3845 03f0 00       		.uleb128 LVU192
 3846 03f1 00       		.uleb128 LVU202
 3847 03f2 00       		.uleb128 LVU215
 3848              	LLST34:
 3849 03f3 FD020000 		.long	LVL69-Ltext0
 3850 03f7 6D030000 		.long	LVL81-Ltext0
 3851 03fb 0100     		.word	0x1
 3852 03fd 55       		.byte	0x55
 3853 03fe A7030000 		.long	LVL85-Ltext0
 3854 0402 CF030000 		.long	LVL88-Ltext0
 3855 0406 0100     		.word	0x1
 3856 0408 55       		.byte	0x55
 3857 0409 00000000 		.long	0
 3858 040d 00000000 		.long	0
 3859              	LVUS35:
 3860 0411 00       		.uleb128 LVU172
 3861 0412 00       		.uleb128 LVU192
 3862 0413 00       		.uleb128 LVU208
 3863 0414 00       		.uleb128 LVU215
 3864              	LLST35:
 3865 0415 07030000 		.long	LVL71-Ltext0
 3866 0419 6D030000 		.long	LVL81-Ltext0
 3867 041d 0100     		.word	0x1
 3868 041f 57       		.byte	0x57
 3869 0420 C0030000 		.long	LVL87-Ltext0
 3870 0424 CF030000 		.long	LVL88-Ltext0
 3871 0428 0100     		.word	0x1
 3872 042a 57       		.byte	0x57
 3873 042b 00000000 		.long	0
 3874 042f 00000000 		.long	0
 3875              	LVUS36:
 3876 0433 00       		.uleb128 LVU172
 3877 0434 00       		.uleb128 LVU187
 3878 0435 02       		.uleb128 LVU210
 3879 0436 00       		.uleb128 LVU215
 3880              	LLST36:
 3881 0437 07030000 		.long	LVL71-Ltext0
 3882 043b 42030000 		.long	LVL77-Ltext0
 3883 043f 0100     		.word	0x1
 3884 0441 51       		.byte	0x51
 3885 0442 C0030000 		.long	LVL87-Ltext0
 3886 0446 CF030000 		.long	LVL88-Ltext0
 3887 044a 0200     		.word	0x2
 3888 044c 30       		.byte	0x30
 3889 044d 9F       		.byte	0x9f
 3890 044e 00000000 		.long	0
 3891 0452 00000000 		.long	0
 3892              	LVUS37:
 3893 0456 00       		.uleb128 LVU188
 3894 0457 00       		.uleb128 LVU189
 3895 0458 00       		.uleb128 LVU189
 3896 0459 00       		.uleb128 LVU190
 3897              	LLST37:
GAS LISTING C:\Users\jisu8\AppData\Local\Temp\ccLWfpjm.s 			page 80


 3898 045a 44030000 		.long	LVL78-Ltext0
 3899 045e 5F030000 		.long	LVL79-Ltext0
 3900 0462 0100     		.word	0x1
 3901 0464 52       		.byte	0x52
 3902 0465 5F030000 		.long	LVL79-Ltext0
 3903 0469 67030000 		.long	LVL80-1-Ltext0
 3904 046d 0200     		.word	0x2
 3905 046f 74       		.byte	0x74
 3906 0470 00       		.sleb128 0
 3907 0471 00000000 		.long	0
 3908 0475 00000000 		.long	0
 3909              	LVUS44:
 3910 0479 00       		.uleb128 LVU172
 3911 047a 00       		.uleb128 LVU192
 3912 047b 04       		.uleb128 LVU212
 3913 047c 00       		.uleb128 LVU215
 3914              	LLST44:
 3915 047d 07030000 		.long	LVL71-Ltext0
 3916 0481 6D030000 		.long	LVL81-Ltext0
 3917 0485 0100     		.word	0x1
 3918 0487 56       		.byte	0x56
 3919 0488 C0030000 		.long	LVL87-Ltext0
 3920 048c CF030000 		.long	LVL88-Ltext0
 3921 0490 0300     		.word	0x3
 3922 0492 09       		.byte	0x9
 3923 0493 FE       		.byte	0xfe
 3924 0494 9F       		.byte	0x9f
 3925 0495 00000000 		.long	0
 3926 0499 00000000 		.long	0
 3927              	LVUS45:
 3928 049d 00       		.uleb128 LVU172
 3929 049e 00       		.uleb128 LVU174
 3930 049f 00       		.uleb128 LVU176
 3931 04a0 00       		.uleb128 LVU184
 3932              	LLST45:
 3933 04a1 07030000 		.long	LVL71-Ltext0
 3934 04a5 0A030000 		.long	LVL72-Ltext0
 3935 04a9 0100     		.word	0x1
 3936 04ab 52       		.byte	0x52
 3937 04ac 14030000 		.long	LVL73-Ltext0
 3938 04b0 33030000 		.long	LVL76-Ltext0
 3939 04b4 0100     		.word	0x1
 3940 04b6 52       		.byte	0x52
 3941 04b7 00000000 		.long	0
 3942 04bb 00000000 		.long	0
 3943              	LVUS38:
 3944 04bf 00       		.uleb128 LVU168
 3945 04c0 00       		.uleb128 LVU169
 3946 04c1 00       		.uleb128 LVU169
 3947 04c2 00       		.uleb128 LVU170
 3948 04c3 00       		.uleb128 LVU199
 3949 04c4 00       		.uleb128 LVU202
 3950              	LLST38:
 3951 04c5 F3020000 		.long	LVL67-Ltext0
 3952 04c9 F8020000 		.long	LVL68-Ltext0
 3953 04cd 0100     		.word	0x1
 3954 04cf 55       		.byte	0x55
GAS LISTING C:\Users\jisu8\AppData\Local\Temp\ccLWfpjm.s 			page 81


 3955 04d0 F8020000 		.long	LVL68-Ltext0
 3956 04d4 FD020000 		.long	LVL69-Ltext0
 3957 04d8 0300     		.word	0x3
 3958 04da 70       		.byte	0x70
 3959 04db 7D       		.sleb128 -3
 3960 04dc 9F       		.byte	0x9f
 3961 04dd 99030000 		.long	LVL84-Ltext0
 3962 04e1 A7030000 		.long	LVL85-Ltext0
 3963 04e5 0100     		.word	0x1
 3964 04e7 55       		.byte	0x55
 3965 04e8 00000000 		.long	0
 3966 04ec 00000000 		.long	0
 3967              	LVUS39:
 3968 04f0 00       		.uleb128 LVU168
 3969 04f1 00       		.uleb128 LVU170
 3970 04f2 00       		.uleb128 LVU199
 3971 04f3 00       		.uleb128 LVU202
 3972              	LLST39:
 3973 04f4 F3020000 		.long	LVL67-Ltext0
 3974 04f8 FD020000 		.long	LVL69-Ltext0
 3975 04fc 0200     		.word	0x2
 3976 04fe 32       		.byte	0x32
 3977 04ff 9F       		.byte	0x9f
 3978 0500 99030000 		.long	LVL84-Ltext0
 3979 0504 A7030000 		.long	LVL85-Ltext0
 3980 0508 0200     		.word	0x2
 3981 050a 32       		.byte	0x32
 3982 050b 9F       		.byte	0x9f
 3983 050c 00000000 		.long	0
 3984 0510 00000000 		.long	0
 3985              	LVUS40:
 3986 0514 00       		.uleb128 LVU168
 3987 0515 00       		.uleb128 LVU170
 3988 0516 00       		.uleb128 LVU199
 3989 0517 00       		.uleb128 LVU202
 3990              	LLST40:
 3991 0518 F3020000 		.long	LVL67-Ltext0
 3992 051c FD020000 		.long	LVL69-Ltext0
 3993 0520 0100     		.word	0x1
 3994 0522 57       		.byte	0x57
 3995 0523 99030000 		.long	LVL84-Ltext0
 3996 0527 A7030000 		.long	LVL85-Ltext0
 3997 052b 0200     		.word	0x2
 3998 052d 91       		.byte	0x91
 3999 052e 44       		.sleb128 -60
 4000 052f 00000000 		.long	0
 4001 0533 00000000 		.long	0
 4002              	LVUS41:
 4003 0537 00       		.uleb128 LVU170
 4004 0538 00       		.uleb128 LVU171
 4005 0539 00       		.uleb128 LVU171
 4006 053a 00       		.uleb128 LVU172
 4007 053b 00       		.uleb128 LVU205
 4008 053c 00       		.uleb128 LVU208
 4009              	LLST41:
 4010 053d FD020000 		.long	LVL69-Ltext0
 4011 0541 02030000 		.long	LVL70-Ltext0
GAS LISTING C:\Users\jisu8\AppData\Local\Temp\ccLWfpjm.s 			page 82


 4012 0545 0100     		.word	0x1
 4013 0547 57       		.byte	0x57
 4014 0548 02030000 		.long	LVL70-Ltext0
 4015 054c 07030000 		.long	LVL71-Ltext0
 4016 0550 0600     		.word	0x6
 4017 0552 91       		.byte	0x91
 4018 0553 54       		.sleb128 -44
 4019 0554 06       		.byte	0x6
 4020 0555 33       		.byte	0x33
 4021 0556 1C       		.byte	0x1c
 4022 0557 9F       		.byte	0x9f
 4023 0558 AE030000 		.long	LVL86-Ltext0
 4024 055c C0030000 		.long	LVL87-Ltext0
 4025 0560 0100     		.word	0x1
 4026 0562 57       		.byte	0x57
 4027 0563 00000000 		.long	0
 4028 0567 00000000 		.long	0
 4029              	LVUS42:
 4030 056b 00       		.uleb128 LVU170
 4031 056c 00       		.uleb128 LVU172
 4032 056d 00       		.uleb128 LVU205
 4033 056e 00       		.uleb128 LVU208
 4034              	LLST42:
 4035 056f FD020000 		.long	LVL69-Ltext0
 4036 0573 07030000 		.long	LVL71-Ltext0
 4037 0577 0200     		.word	0x2
 4038 0579 32       		.byte	0x32
 4039 057a 9F       		.byte	0x9f
 4040 057b AE030000 		.long	LVL86-Ltext0
 4041 057f C0030000 		.long	LVL87-Ltext0
 4042 0583 0200     		.word	0x2
 4043 0585 32       		.byte	0x32
 4044 0586 9F       		.byte	0x9f
 4045 0587 00000000 		.long	0
 4046 058b 00000000 		.long	0
 4047              	LVUS43:
 4048 058f 00       		.uleb128 LVU170
 4049 0590 00       		.uleb128 LVU172
 4050 0591 00       		.uleb128 LVU205
 4051 0592 00       		.uleb128 LVU208
 4052              	LLST43:
 4053 0593 FD020000 		.long	LVL69-Ltext0
 4054 0597 07030000 		.long	LVL71-Ltext0
 4055 059b 0100     		.word	0x1
 4056 059d 50       		.byte	0x50
 4057 059e AE030000 		.long	LVL86-Ltext0
 4058 05a2 C0030000 		.long	LVL87-Ltext0
 4059 05a6 0200     		.word	0x2
 4060 05a8 91       		.byte	0x91
 4061 05a9 50       		.sleb128 -48
 4062 05aa 00000000 		.long	0
 4063 05ae 00000000 		.long	0
 4064              	LLST18:
 4065 05b2 42020000 		.long	LFB26-Ltext0
 4066 05b6 43020000 		.long	LCFI10-Ltext0
 4067 05ba 0200     		.word	0x2
 4068 05bc 74       		.byte	0x74
GAS LISTING C:\Users\jisu8\AppData\Local\Temp\ccLWfpjm.s 			page 83


 4069 05bd 04       		.sleb128 4
 4070 05be 43020000 		.long	LCFI10-Ltext0
 4071 05c2 44020000 		.long	LCFI11-Ltext0
 4072 05c6 0200     		.word	0x2
 4073 05c8 74       		.byte	0x74
 4074 05c9 08       		.sleb128 8
 4075 05ca 44020000 		.long	LCFI11-Ltext0
 4076 05ce 45020000 		.long	LCFI12-Ltext0
 4077 05d2 0200     		.word	0x2
 4078 05d4 74       		.byte	0x74
 4079 05d5 0C       		.sleb128 12
 4080 05d6 45020000 		.long	LCFI12-Ltext0
 4081 05da 46020000 		.long	LCFI13-Ltext0
 4082 05de 0200     		.word	0x2
 4083 05e0 74       		.byte	0x74
 4084 05e1 10       		.sleb128 16
 4085 05e2 46020000 		.long	LCFI13-Ltext0
 4086 05e6 49020000 		.long	LCFI14-Ltext0
 4087 05ea 0200     		.word	0x2
 4088 05ec 74       		.byte	0x74
 4089 05ed 14       		.sleb128 20
 4090 05ee 49020000 		.long	LCFI14-Ltext0
 4091 05f2 C2020000 		.long	LCFI15-Ltext0
 4092 05f6 0300     		.word	0x3
 4093 05f8 74       		.byte	0x74
 4094 05f9 C000     		.sleb128 64
 4095 05fb C2020000 		.long	LCFI15-Ltext0
 4096 05ff C3020000 		.long	LCFI16-Ltext0
 4097 0603 0200     		.word	0x2
 4098 0605 74       		.byte	0x74
 4099 0606 14       		.sleb128 20
 4100 0607 C3020000 		.long	LCFI16-Ltext0
 4101 060b C4020000 		.long	LCFI17-Ltext0
 4102 060f 0200     		.word	0x2
 4103 0611 74       		.byte	0x74
 4104 0612 10       		.sleb128 16
 4105 0613 C4020000 		.long	LCFI17-Ltext0
 4106 0617 C5020000 		.long	LCFI18-Ltext0
 4107 061b 0200     		.word	0x2
 4108 061d 74       		.byte	0x74
 4109 061e 0C       		.sleb128 12
 4110 061f C5020000 		.long	LCFI18-Ltext0
 4111 0623 C6020000 		.long	LCFI19-Ltext0
 4112 0627 0200     		.word	0x2
 4113 0629 74       		.byte	0x74
 4114 062a 08       		.sleb128 8
 4115 062b C6020000 		.long	LCFI19-Ltext0
 4116 062f C7020000 		.long	LFE26-Ltext0
 4117 0633 0200     		.word	0x2
 4118 0635 74       		.byte	0x74
 4119 0636 04       		.sleb128 4
 4120 0637 00000000 		.long	0
 4121 063b 00000000 		.long	0
 4122              	LVUS19:
 4123 063f 00       		.uleb128 0
 4124 0640 00       		.uleb128 LVU130
 4125 0641 00       		.uleb128 LVU130
GAS LISTING C:\Users\jisu8\AppData\Local\Temp\ccLWfpjm.s 			page 84


 4126 0642 00       		.uleb128 0
 4127              	LLST19:
 4128 0643 42020000 		.long	LVL54-Ltext0
 4129 0647 6A020000 		.long	LVL55-1-Ltext0
 4130 064b 0100     		.word	0x1
 4131 064d 50       		.byte	0x50
 4132 064e 6A020000 		.long	LVL55-1-Ltext0
 4133 0652 C7020000 		.long	LFE26-Ltext0
 4134 0656 0200     		.word	0x2
 4135 0658 91       		.byte	0x91
 4136 0659 58       		.sleb128 -40
 4137 065a 00000000 		.long	0
 4138 065e 00000000 		.long	0
 4139              	LVUS20:
 4140 0662 00       		.uleb128 0
 4141 0663 00       		.uleb128 LVU130
 4142 0664 00       		.uleb128 LVU130
 4143 0665 00       		.uleb128 0
 4144              	LLST20:
 4145 0666 42020000 		.long	LVL54-Ltext0
 4146 066a 6A020000 		.long	LVL55-1-Ltext0
 4147 066e 0100     		.word	0x1
 4148 0670 52       		.byte	0x52
 4149 0671 6A020000 		.long	LVL55-1-Ltext0
 4150 0675 C7020000 		.long	LFE26-Ltext0
 4151 0679 0200     		.word	0x2
 4152 067b 91       		.byte	0x91
 4153 067c 5C       		.sleb128 -36
 4154 067d 00000000 		.long	0
 4155 0681 00000000 		.long	0
 4156              	LVUS21:
 4157 0685 00       		.uleb128 0
 4158 0686 00       		.uleb128 LVU130
 4159 0687 00       		.uleb128 LVU130
 4160 0688 00       		.uleb128 LVU133
 4161 0689 00       		.uleb128 LVU133
 4162 068a 00       		.uleb128 0
 4163              	LLST21:
 4164 068b 42020000 		.long	LVL54-Ltext0
 4165 068f 6A020000 		.long	LVL55-1-Ltext0
 4166 0693 0100     		.word	0x1
 4167 0695 51       		.byte	0x51
 4168 0696 6A020000 		.long	LVL55-1-Ltext0
 4169 069a 6D020000 		.long	LVL56-Ltext0
 4170 069e 0100     		.word	0x1
 4171 06a0 55       		.byte	0x55
 4172 06a1 6D020000 		.long	LVL56-Ltext0
 4173 06a5 C7020000 		.long	LFE26-Ltext0
 4174 06a9 0200     		.word	0x2
 4175 06ab 91       		.byte	0x91
 4176 06ac 54       		.sleb128 -44
 4177 06ad 00000000 		.long	0
 4178 06b1 00000000 		.long	0
 4179              	LVUS22:
 4180 06b5 02       		.uleb128 LVU132
 4181 06b6 00       		.uleb128 LVU160
 4182              	LLST22:
GAS LISTING C:\Users\jisu8\AppData\Local\Temp\ccLWfpjm.s 			page 85


 4183 06b7 6B020000 		.long	LVL55-Ltext0
 4184 06bb C6020000 		.long	LVL64-Ltext0
 4185 06bf 0100     		.word	0x1
 4186 06c1 55       		.byte	0x55
 4187 06c2 00000000 		.long	0
 4188 06c6 00000000 		.long	0
 4189              	LVUS23:
 4190 06ca 00       		.uleb128 LVU133
 4191 06cb 00       		.uleb128 LVU143
 4192 06cc 00       		.uleb128 LVU149
 4193 06cd 00       		.uleb128 LVU157
 4194              	LLST23:
 4195 06ce 6D020000 		.long	LVL56-Ltext0
 4196 06d2 85020000 		.long	LVL59-Ltext0
 4197 06d6 0100     		.word	0x1
 4198 06d8 52       		.byte	0x52
 4199 06d9 A1020000 		.long	LVL60-Ltext0
 4200 06dd AF020000 		.long	LVL62-Ltext0
 4201 06e1 0100     		.word	0x1
 4202 06e3 52       		.byte	0x52
 4203 06e4 00000000 		.long	0
 4204 06e8 00000000 		.long	0
 4205              	LVUS24:
 4206 06ec 00       		.uleb128 LVU133
 4207 06ed 00       		.uleb128 LVU143
 4208 06ee 00       		.uleb128 LVU153
 4209 06ef 00       		.uleb128 LVU157
 4210              	LLST24:
 4211 06f0 6D020000 		.long	LVL56-Ltext0
 4212 06f4 85020000 		.long	LVL59-Ltext0
 4213 06f8 0100     		.word	0x1
 4214 06fa 57       		.byte	0x57
 4215 06fb AB020000 		.long	LVL61-Ltext0
 4216 06ff AF020000 		.long	LVL62-Ltext0
 4217 0703 0100     		.word	0x1
 4218 0705 57       		.byte	0x57
 4219 0706 00000000 		.long	0
 4220 070a 00000000 		.long	0
 4221              	LVUS25:
 4222 070e 00       		.uleb128 LVU133
 4223 070f 00       		.uleb128 LVU143
 4224 0710 02       		.uleb128 LVU155
 4225 0711 00       		.uleb128 LVU157
 4226              	LLST25:
 4227 0712 6D020000 		.long	LVL56-Ltext0
 4228 0716 85020000 		.long	LVL59-Ltext0
 4229 071a 0100     		.word	0x1
 4230 071c 50       		.byte	0x50
 4231 071d AB020000 		.long	LVL61-Ltext0
 4232 0721 AF020000 		.long	LVL62-Ltext0
 4233 0725 0100     		.word	0x1
 4234 0727 57       		.byte	0x57
 4235 0728 00000000 		.long	0
 4236 072c 00000000 		.long	0
 4237              	LLST0:
 4238 0730 00000000 		.long	LFB24-Ltext0
 4239 0734 01000000 		.long	LCFI0-Ltext0
GAS LISTING C:\Users\jisu8\AppData\Local\Temp\ccLWfpjm.s 			page 86


 4240 0738 0200     		.word	0x2
 4241 073a 74       		.byte	0x74
 4242 073b 04       		.sleb128 4
 4243 073c 01000000 		.long	LCFI0-Ltext0
 4244 0740 02000000 		.long	LCFI1-Ltext0
 4245 0744 0200     		.word	0x2
 4246 0746 74       		.byte	0x74
 4247 0747 08       		.sleb128 8
 4248 0748 02000000 		.long	LCFI1-Ltext0
 4249 074c 03000000 		.long	LCFI2-Ltext0
 4250 0750 0200     		.word	0x2
 4251 0752 74       		.byte	0x74
 4252 0753 0C       		.sleb128 12
 4253 0754 03000000 		.long	LCFI2-Ltext0
 4254 0758 04000000 		.long	LCFI3-Ltext0
 4255 075c 0200     		.word	0x2
 4256 075e 74       		.byte	0x74
 4257 075f 10       		.sleb128 16
 4258 0760 04000000 		.long	LCFI3-Ltext0
 4259 0764 07000000 		.long	LCFI4-Ltext0
 4260 0768 0200     		.word	0x2
 4261 076a 74       		.byte	0x74
 4262 076b 14       		.sleb128 20
 4263 076c 07000000 		.long	LCFI4-Ltext0
 4264 0770 3D020000 		.long	LCFI5-Ltext0
 4265 0774 0300     		.word	0x3
 4266 0776 74       		.byte	0x74
 4267 0777 E000     		.sleb128 96
 4268 0779 3D020000 		.long	LCFI5-Ltext0
 4269 077d 3E020000 		.long	LCFI6-Ltext0
 4270 0781 0200     		.word	0x2
 4271 0783 74       		.byte	0x74
 4272 0784 14       		.sleb128 20
 4273 0785 3E020000 		.long	LCFI6-Ltext0
 4274 0789 3F020000 		.long	LCFI7-Ltext0
 4275 078d 0200     		.word	0x2
 4276 078f 74       		.byte	0x74
 4277 0790 10       		.sleb128 16
 4278 0791 3F020000 		.long	LCFI7-Ltext0
 4279 0795 40020000 		.long	LCFI8-Ltext0
 4280 0799 0200     		.word	0x2
 4281 079b 74       		.byte	0x74
 4282 079c 0C       		.sleb128 12
 4283 079d 40020000 		.long	LCFI8-Ltext0
 4284 07a1 41020000 		.long	LCFI9-Ltext0
 4285 07a5 0200     		.word	0x2
 4286 07a7 74       		.byte	0x74
 4287 07a8 08       		.sleb128 8
 4288 07a9 41020000 		.long	LCFI9-Ltext0
 4289 07ad 42020000 		.long	LFE24-Ltext0
 4290 07b1 0200     		.word	0x2
 4291 07b3 74       		.byte	0x74
 4292 07b4 04       		.sleb128 4
 4293 07b5 00000000 		.long	0
 4294 07b9 00000000 		.long	0
 4295              	LVUS1:
 4296 07bd 00       		.uleb128 0
GAS LISTING C:\Users\jisu8\AppData\Local\Temp\ccLWfpjm.s 			page 87


 4297 07be 00       		.uleb128 LVU3
 4298 07bf 00       		.uleb128 LVU3
 4299 07c0 00       		.uleb128 LVU126
 4300 07c1 00       		.uleb128 LVU126
 4301 07c2 00       		.uleb128 0
 4302              	LLST1:
 4303 07c3 00000000 		.long	LVL0-Ltext0
 4304 07c7 19000000 		.long	LVL1-Ltext0
 4305 07cb 0100     		.word	0x1
 4306 07cd 50       		.byte	0x50
 4307 07ce 19000000 		.long	LVL1-Ltext0
 4308 07d2 41020000 		.long	LVL53-Ltext0
 4309 07d6 0100     		.word	0x1
 4310 07d8 55       		.byte	0x55
 4311 07d9 41020000 		.long	LVL53-Ltext0
 4312 07dd 42020000 		.long	LFE24-Ltext0
 4313 07e1 0400     		.word	0x4
 4314 07e3 F3       		.byte	0xf3
 4315 07e4 01       		.uleb128 0x1
 4316 07e5 50       		.byte	0x50
 4317 07e6 9F       		.byte	0x9f
 4318 07e7 00000000 		.long	0
 4319 07eb 00000000 		.long	0
 4320              	LVUS2:
 4321 07ef 00       		.uleb128 0
 4322 07f0 00       		.uleb128 LVU4
 4323 07f1 00       		.uleb128 LVU4
 4324 07f2 00       		.uleb128 LVU12
 4325 07f3 00       		.uleb128 LVU12
 4326 07f4 00       		.uleb128 0
 4327              	LLST2:
 4328 07f5 00000000 		.long	LVL0-Ltext0
 4329 07f9 40000000 		.long	LVL2-1-Ltext0
 4330 07fd 0100     		.word	0x1
 4331 07ff 52       		.byte	0x52
 4332 0800 40000000 		.long	LVL2-1-Ltext0
 4333 0804 5A000000 		.long	LVL4-Ltext0
 4334 0808 0100     		.word	0x1
 4335 080a 56       		.byte	0x56
 4336 080b 5A000000 		.long	LVL4-Ltext0
 4337 080f 42020000 		.long	LFE24-Ltext0
 4338 0813 0200     		.word	0x2
 4339 0815 91       		.byte	0x91
 4340 0816 54       		.sleb128 -44
 4341 0817 00000000 		.long	0
 4342 081b 00000000 		.long	0
 4343              	LVUS3:
 4344 081f 00       		.uleb128 0
 4345 0820 00       		.uleb128 LVU4
 4346 0821 00       		.uleb128 LVU4
 4347 0822 00       		.uleb128 LVU12
 4348 0823 00       		.uleb128 LVU12
 4349 0824 00       		.uleb128 0
 4350              	LLST3:
 4351 0825 00000000 		.long	LVL0-Ltext0
 4352 0829 40000000 		.long	LVL2-1-Ltext0
 4353 082d 0100     		.word	0x1
GAS LISTING C:\Users\jisu8\AppData\Local\Temp\ccLWfpjm.s 			page 88


 4354 082f 51       		.byte	0x51
 4355 0830 40000000 		.long	LVL2-1-Ltext0
 4356 0834 5A000000 		.long	LVL4-Ltext0
 4357 0838 0100     		.word	0x1
 4358 083a 57       		.byte	0x57
 4359 083b 5A000000 		.long	LVL4-Ltext0
 4360 083f 42020000 		.long	LFE24-Ltext0
 4361 0843 0200     		.word	0x2
 4362 0845 91       		.byte	0x91
 4363 0846 5C       		.sleb128 -36
 4364 0847 00000000 		.long	0
 4365 084b 00000000 		.long	0
 4366              	LVUS4:
 4367 084f 02       		.uleb128 LVU10
 4368 0850 00       		.uleb128 LVU12
 4369 0851 00       		.uleb128 LVU12
 4370 0852 00       		.uleb128 0
 4371              	LLST4:
 4372 0853 4D000000 		.long	LVL3-Ltext0
 4373 0857 5A000000 		.long	LVL4-Ltext0
 4374 085b 0200     		.word	0x2
 4375 085d 30       		.byte	0x30
 4376 085e 9F       		.byte	0x9f
 4377 085f 5A000000 		.long	LVL4-Ltext0
 4378 0863 42020000 		.long	LFE24-Ltext0
 4379 0867 0200     		.word	0x2
 4380 0869 91       		.byte	0x91
 4381 086a 50       		.sleb128 -48
 4382 086b 00000000 		.long	0
 4383 086f 00000000 		.long	0
 4384              	LVUS5:
 4385 0873 00       		.uleb128 LVU12
 4386 0874 00       		.uleb128 LVU115
 4387 0875 00       		.uleb128 LVU119
 4388 0876 00       		.uleb128 LVU123
 4389              	LLST5:
 4390 0877 5A000000 		.long	LVL4-Ltext0
 4391 087b 0A020000 		.long	LVL50-Ltext0
 4392 087f 0200     		.word	0x2
 4393 0881 91       		.byte	0x91
 4394 0882 58       		.sleb128 -40
 4395 0883 2B020000 		.long	LVL51-Ltext0
 4396 0887 35020000 		.long	LVL52-Ltext0
 4397 088b 0100     		.word	0x1
 4398 088d 50       		.byte	0x50
 4399 088e 00000000 		.long	0
 4400 0892 00000000 		.long	0
 4401              	LVUS6:
 4402 0896 00       		.uleb128 LVU12
 4403 0897 00       		.uleb128 LVU115
 4404 0898 02       		.uleb128 LVU121
 4405 0899 00       		.uleb128 LVU123
 4406              	LLST6:
 4407 089a 5A000000 		.long	LVL4-Ltext0
 4408 089e 0A020000 		.long	LVL50-Ltext0
 4409 08a2 0200     		.word	0x2
 4410 08a4 91       		.byte	0x91
GAS LISTING C:\Users\jisu8\AppData\Local\Temp\ccLWfpjm.s 			page 89


 4411 08a5 4C       		.sleb128 -52
 4412 08a6 2B020000 		.long	LVL51-Ltext0
 4413 08aa 35020000 		.long	LVL52-Ltext0
 4414 08ae 0200     		.word	0x2
 4415 08b0 30       		.byte	0x30
 4416 08b1 9F       		.byte	0x9f
 4417 08b2 00000000 		.long	0
 4418 08b6 00000000 		.long	0
 4419              	LVUS7:
 4420 08ba 00       		.uleb128 LVU12
 4421 08bb 00       		.uleb128 LVU97
 4422 08bc 00       		.uleb128 LVU101
 4423 08bd 00       		.uleb128 LVU112
 4424 08be 00       		.uleb128 LVU112
 4425 08bf 00       		.uleb128 LVU113
 4426              	LLST7:
 4427 08c0 5A000000 		.long	LVL4-Ltext0
 4428 08c4 BD010000 		.long	LVL45-Ltext0
 4429 08c8 1B00     		.word	0x1b
 4430 08ca 91       		.byte	0x91
 4431 08cb 00       		.sleb128 0
 4432 08cc 06       		.byte	0x6
 4433 08cd 38       		.byte	0x38
 4434 08ce 1C       		.byte	0x1c
 4435 08cf 91       		.byte	0x91
 4436 08d0 4C       		.sleb128 -52
 4437 08d1 06       		.byte	0x6
 4438 08d2 33       		.byte	0x33
 4439 08d3 24       		.byte	0x24
 4440 08d4 91       		.byte	0x91
 4441 08d5 00       		.sleb128 0
 4442 08d6 06       		.byte	0x6
 4443 08d7 38       		.byte	0x38
 4444 08d8 1C       		.byte	0x1c
 4445 08d9 91       		.byte	0x91
 4446 08da 4C       		.sleb128 -52
 4447 08db 06       		.byte	0x6
 4448 08dc 33       		.byte	0x33
 4449 08dd 24       		.byte	0x24
 4450 08de 2C       		.byte	0x2c
 4451 08df 28       		.byte	0x28
 4452 08e0 0100     		.word	0x1
 4453 08e2 16       		.byte	0x16
 4454 08e3 13       		.byte	0x13
 4455 08e4 9F       		.byte	0x9f
 4456 08e5 DE010000 		.long	LVL46-Ltext0
 4457 08e9 00020000 		.long	LVL48-Ltext0
 4458 08ed 0100     		.word	0x1
 4459 08ef 50       		.byte	0x50
 4460 08f0 00020000 		.long	LVL48-Ltext0
 4461 08f4 05020000 		.long	LVL49-Ltext0
 4462 08f8 1B00     		.word	0x1b
 4463 08fa 91       		.byte	0x91
 4464 08fb 00       		.sleb128 0
 4465 08fc 06       		.byte	0x6
 4466 08fd 38       		.byte	0x38
 4467 08fe 1C       		.byte	0x1c
GAS LISTING C:\Users\jisu8\AppData\Local\Temp\ccLWfpjm.s 			page 90


 4468 08ff 91       		.byte	0x91
 4469 0900 4C       		.sleb128 -52
 4470 0901 06       		.byte	0x6
 4471 0902 33       		.byte	0x33
 4472 0903 24       		.byte	0x24
 4473 0904 91       		.byte	0x91
 4474 0905 00       		.sleb128 0
 4475 0906 06       		.byte	0x6
 4476 0907 38       		.byte	0x38
 4477 0908 1C       		.byte	0x1c
 4478 0909 91       		.byte	0x91
 4479 090a 4C       		.sleb128 -52
 4480 090b 06       		.byte	0x6
 4481 090c 33       		.byte	0x33
 4482 090d 24       		.byte	0x24
 4483 090e 2C       		.byte	0x2c
 4484 090f 28       		.byte	0x28
 4485 0910 0100     		.word	0x1
 4486 0912 16       		.byte	0x16
 4487 0913 13       		.byte	0x13
 4488 0914 9F       		.byte	0x9f
 4489 0915 00000000 		.long	0
 4490 0919 00000000 		.long	0
 4491              	LVUS8:
 4492 091d 00       		.uleb128 LVU12
 4493 091e 00       		.uleb128 LVU25
 4494 091f 00       		.uleb128 LVU25
 4495 0920 00       		.uleb128 LVU62
 4496 0921 01       		.uleb128 LVU102
 4497 0922 00       		.uleb128 LVU113
 4498              	LLST8:
 4499 0923 5A000000 		.long	LVL4-Ltext0
 4500 0927 80000000 		.long	LVL10-Ltext0
 4501 092b 0100     		.word	0x1
 4502 092d 57       		.byte	0x57
 4503 092e 80000000 		.long	LVL10-Ltext0
 4504 0932 16010000 		.long	LVL33-Ltext0
 4505 0936 0100     		.word	0x1
 4506 0938 50       		.byte	0x50
 4507 0939 DE010000 		.long	LVL46-Ltext0
 4508 093d 05020000 		.long	LVL49-Ltext0
 4509 0941 0200     		.word	0x2
 4510 0943 30       		.byte	0x30
 4511 0944 9F       		.byte	0x9f
 4512 0945 00000000 		.long	0
 4513 0949 00000000 		.long	0
 4514              	LVUS9:
 4515 094d 00       		.uleb128 LVU12
 4516 094e 00       		.uleb128 LVU29
 4517 094f 00       		.uleb128 LVU29
 4518 0950 00       		.uleb128 LVU32
 4519 0951 00       		.uleb128 LVU34
 4520 0952 00       		.uleb128 LVU36
 4521 0953 00       		.uleb128 LVU36
 4522 0954 00       		.uleb128 LVU38
 4523 0955 00       		.uleb128 LVU38
 4524 0956 00       		.uleb128 LVU44
GAS LISTING C:\Users\jisu8\AppData\Local\Temp\ccLWfpjm.s 			page 91


 4525 0957 00       		.uleb128 LVU44
 4526 0958 00       		.uleb128 LVU59
 4527 0959 00       		.uleb128 LVU59
 4528 095a 00       		.uleb128 LVU74
 4529 095b 00       		.uleb128 LVU74
 4530 095c 00       		.uleb128 LVU93
 4531 095d 02       		.uleb128 LVU103
 4532 095e 00       		.uleb128 LVU113
 4533              	LLST9:
 4534 095f 5A000000 		.long	LVL4-Ltext0
 4535 0963 88000000 		.long	LVL12-Ltext0
 4536 0967 0100     		.word	0x1
 4537 0969 52       		.byte	0x52
 4538 096a 88000000 		.long	LVL12-Ltext0
 4539 096e 97000000 		.long	LVL14-Ltext0
 4540 0972 0100     		.word	0x1
 4541 0974 57       		.byte	0x57
 4542 0975 A0000000 		.long	LVL16-Ltext0
 4543 0979 B0000000 		.long	LVL17-Ltext0
 4544 097d 0100     		.word	0x1
 4545 097f 57       		.byte	0x57
 4546 0980 B0000000 		.long	LVL17-Ltext0
 4547 0984 B8000000 		.long	LVL19-Ltext0
 4548 0988 0100     		.word	0x1
 4549 098a 52       		.byte	0x52
 4550 098b B8000000 		.long	LVL19-Ltext0
 4551 098f D3000000 		.long	LVL23-Ltext0
 4552 0993 0100     		.word	0x1
 4553 0995 57       		.byte	0x57
 4554 0996 D3000000 		.long	LVL23-Ltext0
 4555 099a 0C010000 		.long	LVL32-Ltext0
 4556 099e 0200     		.word	0x2
 4557 09a0 91       		.byte	0x91
 4558 09a1 44       		.sleb128 -60
 4559 09a2 0C010000 		.long	LVL32-Ltext0
 4560 09a6 35010000 		.long	LVL39-Ltext0
 4561 09aa 0100     		.word	0x1
 4562 09ac 57       		.byte	0x57
 4563 09ad 35010000 		.long	LVL39-Ltext0
 4564 09b1 91010000 		.long	LVL43-Ltext0
 4565 09b5 0100     		.word	0x1
 4566 09b7 52       		.byte	0x52
 4567 09b8 DE010000 		.long	LVL46-Ltext0
 4568 09bc 05020000 		.long	LVL49-Ltext0
 4569 09c0 0300     		.word	0x3
 4570 09c2 09       		.byte	0x9
 4571 09c3 FF       		.byte	0xff
 4572 09c4 9F       		.byte	0x9f
 4573 09c5 00000000 		.long	0
 4574 09c9 00000000 		.long	0
 4575              	LVUS10:
 4576 09cd 00       		.uleb128 LVU12
 4577 09ce 00       		.uleb128 LVU26
 4578 09cf 00       		.uleb128 LVU26
 4579 09d0 00       		.uleb128 LVU32
 4580 09d1 00       		.uleb128 LVU34
 4581 09d2 00       		.uleb128 LVU45
GAS LISTING C:\Users\jisu8\AppData\Local\Temp\ccLWfpjm.s 			page 92


 4582 09d3 00       		.uleb128 LVU45
 4583 09d4 00       		.uleb128 LVU46
 4584 09d5 00       		.uleb128 LVU46
 4585 09d6 00       		.uleb128 LVU57
 4586 09d7 00       		.uleb128 LVU59
 4587 09d8 00       		.uleb128 LVU66
 4588 09d9 00       		.uleb128 LVU66
 4589 09da 00       		.uleb128 LVU75
 4590 09db 03       		.uleb128 LVU104
 4591 09dc 00       		.uleb128 LVU113
 4592              	LLST10:
 4593 09dd 5A000000 		.long	LVL4-Ltext0
 4594 09e1 86000000 		.long	LVL11-Ltext0
 4595 09e5 0100     		.word	0x1
 4596 09e7 53       		.byte	0x53
 4597 09e8 86000000 		.long	LVL11-Ltext0
 4598 09ec 97000000 		.long	LVL14-Ltext0
 4599 09f0 0100     		.word	0x1
 4600 09f2 56       		.byte	0x56
 4601 09f3 A0000000 		.long	LVL16-Ltext0
 4602 09f7 D7000000 		.long	LVL24-Ltext0
 4603 09fb 0100     		.word	0x1
 4604 09fd 56       		.byte	0x56
 4605 09fe D7000000 		.long	LVL24-Ltext0
 4606 0a02 D9000000 		.long	LVL25-Ltext0
 4607 0a06 0100     		.word	0x1
 4608 0a08 52       		.byte	0x52
 4609 0a09 D9000000 		.long	LVL25-Ltext0
 4610 0a0d 05010000 		.long	LVL30-Ltext0
 4611 0a11 0200     		.word	0x2
 4612 0a13 91       		.byte	0x91
 4613 0a14 48       		.sleb128 -56
 4614 0a15 0C010000 		.long	LVL32-Ltext0
 4615 0a19 23010000 		.long	LVL36-Ltext0
 4616 0a1d 0100     		.word	0x1
 4617 0a1f 56       		.byte	0x56
 4618 0a20 23010000 		.long	LVL36-Ltext0
 4619 0a24 3A010000 		.long	LVL40-Ltext0
 4620 0a28 0100     		.word	0x1
 4621 0a2a 53       		.byte	0x53
 4622 0a2b DE010000 		.long	LVL46-Ltext0
 4623 0a2f 05020000 		.long	LVL49-Ltext0
 4624 0a33 0200     		.word	0x2
 4625 0a35 30       		.byte	0x30
 4626 0a36 9F       		.byte	0x9f
 4627 0a37 00000000 		.long	0
 4628 0a3b 00000000 		.long	0
 4629              	LVUS11:
 4630 0a3f 00       		.uleb128 LVU63
 4631 0a40 00       		.uleb128 LVU70
 4632 0a41 00       		.uleb128 LVU72
 4633 0a42 00       		.uleb128 LVU95
 4634              	LLST11:
 4635 0a43 19010000 		.long	LVL34-Ltext0
 4636 0a47 2C010000 		.long	LVL37-Ltext0
 4637 0a4b 0100     		.word	0x1
 4638 0a4d 50       		.byte	0x50
GAS LISTING C:\Users\jisu8\AppData\Local\Temp\ccLWfpjm.s 			page 93


 4639 0a4e 31010000 		.long	LVL38-Ltext0
 4640 0a52 B5010000 		.long	LVL44-1-Ltext0
 4641 0a56 0100     		.word	0x1
 4642 0a58 50       		.byte	0x50
 4643 0a59 00000000 		.long	0
 4644 0a5d 00000000 		.long	0
 4645              	LVUS12:
 4646 0a61 00       		.uleb128 LVU12
 4647 0a62 00       		.uleb128 LVU41
 4648 0a63 00       		.uleb128 LVU42
 4649 0a64 00       		.uleb128 LVU46
 4650 0a65 00       		.uleb128 LVU46
 4651 0a66 00       		.uleb128 LVU58
 4652 0a67 00       		.uleb128 LVU58
 4653 0a68 00       		.uleb128 LVU97
 4654 0a69 05       		.uleb128 LVU106
 4655 0a6a 00       		.uleb128 LVU113
 4656              	LLST12:
 4657 0a6b 5A000000 		.long	LVL4-Ltext0
 4658 0a6f BD000000 		.long	LVL20-Ltext0
 4659 0a73 0200     		.word	0x2
 4660 0a75 91       		.byte	0x91
 4661 0a76 48       		.sleb128 -56
 4662 0a77 C1000000 		.long	LVL21-Ltext0
 4663 0a7b D9000000 		.long	LVL25-Ltext0
 4664 0a7f 0100     		.word	0x1
 4665 0a81 51       		.byte	0x51
 4666 0a82 D9000000 		.long	LVL25-Ltext0
 4667 0a86 0A010000 		.long	LVL31-Ltext0
 4668 0a8a 0100     		.word	0x1
 4669 0a8c 57       		.byte	0x57
 4670 0a8d 0A010000 		.long	LVL31-Ltext0
 4671 0a91 BD010000 		.long	LVL45-Ltext0
 4672 0a95 0200     		.word	0x2
 4673 0a97 91       		.byte	0x91
 4674 0a98 48       		.sleb128 -56
 4675 0a99 DE010000 		.long	LVL46-Ltext0
 4676 0a9d 05020000 		.long	LVL49-Ltext0
 4677 0aa1 0200     		.word	0x2
 4678 0aa3 30       		.byte	0x30
 4679 0aa4 9F       		.byte	0x9f
 4680 0aa5 00000000 		.long	0
 4681 0aa9 00000000 		.long	0
 4682              	LVUS13:
 4683 0aad 00       		.uleb128 LVU12
 4684 0aae 00       		.uleb128 LVU32
 4685 0aaf 00       		.uleb128 LVU32
 4686 0ab0 00       		.uleb128 LVU37
 4687 0ab1 00       		.uleb128 LVU37
 4688 0ab2 00       		.uleb128 LVU43
 4689 0ab3 00       		.uleb128 LVU43
 4690 0ab4 00       		.uleb128 LVU65
 4691 0ab5 00       		.uleb128 LVU108
 4692 0ab6 00       		.uleb128 LVU113
 4693              	LLST13:
 4694 0ab7 5A000000 		.long	LVL4-Ltext0
 4695 0abb 97000000 		.long	LVL14-Ltext0
GAS LISTING C:\Users\jisu8\AppData\Local\Temp\ccLWfpjm.s 			page 94


 4696 0abf 0200     		.word	0x2
 4697 0ac1 91       		.byte	0x91
 4698 0ac2 44       		.sleb128 -60
 4699 0ac3 97000000 		.long	LVL14-Ltext0
 4700 0ac7 B6000000 		.long	LVL18-Ltext0
 4701 0acb 0100     		.word	0x1
 4702 0acd 53       		.byte	0x53
 4703 0ace B6000000 		.long	LVL18-Ltext0
 4704 0ad2 C5000000 		.long	LVL22-Ltext0
 4705 0ad6 0200     		.word	0x2
 4706 0ad8 91       		.byte	0x91
 4707 0ad9 44       		.sleb128 -60
 4708 0ada C5000000 		.long	LVL22-Ltext0
 4709 0ade 1B010000 		.long	LVL35-Ltext0
 4710 0ae2 0100     		.word	0x1
 4711 0ae4 53       		.byte	0x53
 4712 0ae5 E9010000 		.long	LVL47-Ltext0
 4713 0ae9 05020000 		.long	LVL49-Ltext0
 4714 0aed 0100     		.word	0x1
 4715 0aef 53       		.byte	0x53
 4716 0af0 00000000 		.long	0
 4717 0af4 00000000 		.long	0
 4718              	LVUS14:
 4719 0af8 00       		.uleb128 LVU12
 4720 0af9 00       		.uleb128 LVU30
 4721              	LLST14:
 4722 0afa 5A000000 		.long	LVL4-Ltext0
 4723 0afe 8D000000 		.long	LVL13-Ltext0
 4724 0b02 0100     		.word	0x1
 4725 0b04 51       		.byte	0x51
 4726 0b05 00000000 		.long	0
 4727 0b09 00000000 		.long	0
 4728              	LVUS15:
 4729 0b0d 00       		.uleb128 LVU15
 4730 0b0e 00       		.uleb128 LVU23
 4731              	LLST15:
 4732 0b0f 65000000 		.long	LVL5-Ltext0
 4733 0b13 77000000 		.long	LVL9-Ltext0
 4734 0b17 0100     		.word	0x1
 4735 0b19 50       		.byte	0x50
 4736 0b1a 00000000 		.long	0
 4737 0b1e 00000000 		.long	0
 4738              	LVUS16:
 4739 0b22 00       		.uleb128 LVU46
 4740 0b23 00       		.uleb128 LVU55
 4741              	LLST16:
 4742 0b24 D9000000 		.long	LVL25-Ltext0
 4743 0b28 F0000000 		.long	LVL29-Ltext0
 4744 0b2c 0100     		.word	0x1
 4745 0b2e 52       		.byte	0x52
 4746 0b2f 00000000 		.long	0
 4747 0b33 00000000 		.long	0
 4748              	LVUS17:
 4749 0b37 00       		.uleb128 LVU87
 4750 0b38 00       		.uleb128 LVU90
 4751              	LLST17:
 4752 0b39 81010000 		.long	LVL41-Ltext0
GAS LISTING C:\Users\jisu8\AppData\Local\Temp\ccLWfpjm.s 			page 95


 4753 0b3d 87010000 		.long	LVL42-Ltext0
 4754 0b41 0100     		.word	0x1
 4755 0b43 51       		.byte	0x51
 4756 0b44 00000000 		.long	0
 4757 0b48 00000000 		.long	0
 4758              		.section	.debug_aranges,"dr"
 4759 0000 1C000000 		.long	0x1c
 4760 0004 0200     		.word	0x2
 4761 0006 00000000 		.secrel32	Ldebug_info0
 4762 000a 04       		.byte	0x4
 4763 000b 00       		.byte	0
 4764 000c 0000     		.word	0
 4765 000e 0000     		.word	0
 4766 0010 00000000 		.long	Ltext0
 4767 0014 08050000 		.long	Letext0-Ltext0
 4768 0018 00000000 		.long	0
 4769 001c 00000000 		.long	0
 4770              		.section	.debug_ranges,"dr"
 4771              	Ldebug_ranges0:
 4772 0000 5A000000 		.long	LBB13-Ltext0
 4773 0004 05020000 		.long	LBE13-Ltext0
 4774 0008 14020000 		.long	LBB27-Ltext0
 4775 000c 35020000 		.long	LBE27-Ltext0
 4776 0010 00000000 		.long	0
 4777 0014 00000000 		.long	0
 4778 0018 5A000000 		.long	LBB14-Ltext0
 4779 001c 05020000 		.long	LBE14-Ltext0
 4780 0020 2B020000 		.long	LBB26-Ltext0
 4781 0024 35020000 		.long	LBE26-Ltext0
 4782 0028 00000000 		.long	0
 4783 002c 00000000 		.long	0
 4784 0030 5A000000 		.long	LBB15-Ltext0
 4785 0034 B6010000 		.long	LBE15-Ltext0
 4786 0038 C7010000 		.long	LBB25-Ltext0
 4787 003c 05020000 		.long	LBE25-Ltext0
 4788 0040 00000000 		.long	0
 4789 0044 00000000 		.long	0
 4790 0048 5A000000 		.long	LBB16-Ltext0
 4791 004c 0C010000 		.long	LBE16-Ltext0
 4792 0050 DE010000 		.long	LBB23-Ltext0
 4793 0054 F1010000 		.long	LBE23-Ltext0
 4794 0058 00020000 		.long	LBB24-Ltext0
 4795 005c 05020000 		.long	LBE24-Ltext0
 4796 0060 00000000 		.long	0
 4797 0064 00000000 		.long	0
 4798 0068 5A000000 		.long	LBB17-Ltext0
 4799 006c 86000000 		.long	LBE17-Ltext0
 4800 0070 A7000000 		.long	LBB19-Ltext0
 4801 0074 B8000000 		.long	LBE19-Ltext0
 4802 0078 00000000 		.long	0
 4803 007c 00000000 		.long	0
 4804 0080 D9000000 		.long	LBB20-Ltext0
 4805 0084 EB000000 		.long	LBE20-Ltext0
 4806 0088 F5000000 		.long	LBB21-Ltext0
 4807 008c 0C010000 		.long	LBE21-Ltext0
 4808 0090 00000000 		.long	0
 4809 0094 00000000 		.long	0
GAS LISTING C:\Users\jisu8\AppData\Local\Temp\ccLWfpjm.s 			page 96


 4810 0098 6D020000 		.long	LBB29-Ltext0
 4811 009c 82020000 		.long	LBE29-Ltext0
 4812 00a0 90020000 		.long	LBB32-Ltext0
 4813 00a4 AF020000 		.long	LBE32-Ltext0
 4814 00a8 00000000 		.long	0
 4815 00ac 00000000 		.long	0
 4816 00b0 6D020000 		.long	LBB30-Ltext0
 4817 00b4 82020000 		.long	LBE30-Ltext0
 4818 00b8 AB020000 		.long	LBB31-Ltext0
 4819 00bc AF020000 		.long	LBE31-Ltext0
 4820 00c0 00000000 		.long	0
 4821 00c4 00000000 		.long	0
 4822 00c8 F3020000 		.long	LBB34-Ltext0
 4823 00cc CF030000 		.long	LBE34-Ltext0
 4824 00d0 DE030000 		.long	LBB51-Ltext0
 4825 00d4 02040000 		.long	LBE51-Ltext0
 4826 00d8 00000000 		.long	0
 4827 00dc 00000000 		.long	0
 4828 00e0 F3020000 		.long	LBB35-Ltext0
 4829 00e4 CF030000 		.long	LBE35-Ltext0
 4830 00e8 F5030000 		.long	LBB50-Ltext0
 4831 00ec 02040000 		.long	LBE50-Ltext0
 4832 00f0 00000000 		.long	0
 4833 00f4 00000000 		.long	0
 4834 00f8 F3020000 		.long	LBB36-Ltext0
 4835 00fc 68030000 		.long	LBE36-Ltext0
 4836 0100 77030000 		.long	LBB49-Ltext0
 4837 0104 CF030000 		.long	LBE49-Ltext0
 4838 0108 00000000 		.long	0
 4839 010c 00000000 		.long	0
 4840 0110 F3020000 		.long	LBB37-Ltext0
 4841 0114 FD020000 		.long	LBE37-Ltext0
 4842 0118 99030000 		.long	LBB45-Ltext0
 4843 011c A7030000 		.long	LBE45-Ltext0
 4844 0120 00000000 		.long	0
 4845 0124 00000000 		.long	0
 4846 0128 FD020000 		.long	LBB40-Ltext0
 4847 012c 07030000 		.long	LBE40-Ltext0
 4848 0130 AE030000 		.long	LBB46-Ltext0
 4849 0134 C0030000 		.long	LBE46-Ltext0
 4850 0138 00000000 		.long	0
 4851 013c 00000000 		.long	0
 4852 0140 07030000 		.long	LBB43-Ltext0
 4853 0144 33030000 		.long	LBE43-Ltext0
 4854 0148 C0030000 		.long	LBB47-Ltext0
 4855 014c C5030000 		.long	LBE47-Ltext0
 4856 0150 CA030000 		.long	LBB48-Ltext0
 4857 0154 CF030000 		.long	LBE48-Ltext0
 4858 0158 00000000 		.long	0
 4859 015c 00000000 		.long	0
 4860              		.section	.debug_line,"dr"
 4861              	Ldebug_line0:
 4862 0000 94050000 		.section	.debug_str,"dr"
 4862      0200DF00 
 4862      00000101 
 4862      FB0E0D00 
 4862      01010101 
GAS LISTING C:\Users\jisu8\AppData\Local\Temp\ccLWfpjm.s 			page 97


 4863              	LASF3:
 4864 0000 73747269 		.ascii "stride\0"
 4864      646500
 4865              	LASF9:
 4866 0007 6765744D 		.ascii "getMatrix\0"
 4866      61747269 
 4866      7800
 4867              	LASF1:
 4868 0011 68656967 		.ascii "height\0"
 4868      687400
 4869              	LASF7:
 4870 0018 796F6666 		.ascii "yoffset\0"
 4870      73657400 
 4871              	LASF6:
 4872 0020 73756248 		.ascii "subHeight\0"
 4872      65696768 
 4872      7400
 4873              	LASF5:
 4874 002a 73756257 		.ascii "subWidth\0"
 4874      69647468 
 4874      00
 4875              	LASF2:
 4876 0033 6D617472 		.ascii "matrix\0"
 4876      697800
 4877              	LASF0:
 4878 003a 77696474 		.ascii "width\0"
 4878      6800
 4879              	LASF4:
 4880 0040 6C756D69 		.ascii "luminances\0"
 4880      6E616E63 
 4880      657300
 4881              	LASF8:
 4882 004b 786F6666 		.ascii "xoffset\0"
 4882      73657400 
 4883              		.ident	"GCC: (i686-posix-dwarf-rev0, Built by MinGW-W64 project) 8.1.0"
GAS LISTING C:\Users\jisu8\AppData\Local\Temp\ccLWfpjm.s 			page 98


DEFINED SYMBOLS
                            *ABS*:00000000 HybridBinarizer.c
C:\Users\jisu8\AppData\Local\Temp\ccLWfpjm.s:12     .text:00000000 _CalculateBlackPoints
                            *COM*:0000000c _blackPoints
                            *COM*:003d0900 _blackpoints_data
C:\Users\jisu8\AppData\Local\Temp\ccLWfpjm.s:452    .text:00000242 _ThresholdBlock
C:\Users\jisu8\AppData\Local\Temp\ccLWfpjm.s:597    .text:000002c7 _CalculateThresholdForBlock
C:\Users\jisu8\AppData\Local\Temp\ccLWfpjm.s:866    .text:0000040a _InitBlackMatrix
C:\Users\jisu8\AppData\Local\Temp\ccLWfpjm.s:997    .text:000004b0 _getBlackMatrix
                            *COM*:00000010 _matrix
                            *COM*:0001c200 _matrix_bits

UNDEFINED SYMBOLS
_printf
_puts
_getMatrix
