GAS LISTING C:\Users\jisu8\AppData\Local\Temp\ccNqYQdE.s 			page 1


   1              		.file	"HybridBinarizer.c"
   2              		.text
   3              	Ltext0:
   4              		.comm	_blackPoints, 12, 2
   5              		.comm	_matrix, 16, 2
   6              		.section .rdata,"dr"
   7              		.align 4
   8              	_BLOCK_SIZE:
   9 0000 08000000 		.long	8
  10              		.align 4
  11              	_MINIMUM_DIMENSION:
  12 0004 28000000 		.long	40
  13              		.align 4
  14              	_MIN_DYNAMIC_RANGE:
  15 0008 18000000 		.long	24
  16              		.comm	_blackpoints_data, 4000000, 5
  17              		.comm	_matrix_bits, 150000, 5
  18              		.align 4
  19              	LC0:
  20 000c 43616C63 		.ascii "CalculateBlackPoints : subWidth=%d subHeight=%d width=%d height=%d strides=%d \12\0"
  20      756C6174 
  20      65426C61 
  20      636B506F 
  20      696E7473 
  21              	LC1:
  22 005c 583D2564 		.ascii "X=%d, Y=%d, AVG=%d\12\0"
  22      2C20593D 
  22      25642C20 
  22      4156473D 
  22      25640A00 
  23              		.text
  25              	_CalculateBlackPoints:
  26              	LFB16:
  27              		.file 1 "src/HybridBinarizer.c"
   1:src/HybridBinarizer.c **** 
   2:src/HybridBinarizer.c **** #include "HybridBinarizer.h"
   3:src/HybridBinarizer.c **** #include "BitMatrix.h"
   4:src/HybridBinarizer.c **** #include "Matrix.h"
   5:src/HybridBinarizer.c **** #include <stdlib.h>
   6:src/HybridBinarizer.c **** 
   7:src/HybridBinarizer.c **** Matrix_t blackPoints;
   8:src/HybridBinarizer.c **** BitMatrix_t matrix;
   9:src/HybridBinarizer.c **** 
  10:src/HybridBinarizer.c **** static const int BLOCK_SIZE = 8;
  11:src/HybridBinarizer.c **** static const int MINIMUM_DIMENSION = BLOCK_SIZE * 5;
  12:src/HybridBinarizer.c **** static const int MIN_DYNAMIC_RANGE = 24;
  13:src/HybridBinarizer.c **** 
  14:src/HybridBinarizer.c **** unsigned int blackpoints_data[1000][1000]; //사이즈 조정 필요
  15:src/HybridBinarizer.c **** uint8_t matrix_bits[150000];
  16:src/HybridBinarizer.c **** /**
  17:src/HybridBinarizer.c **** * Calculates the final BitMatrix once for all requests. This could be called once from the
  18:src/HybridBinarizer.c **** * constructor instead, but there are some advantages to doing it lazily, such as making
  19:src/HybridBinarizer.c **** * profiling easier, and not doing heavy lifting when callers don't expect it.
  20:src/HybridBinarizer.c **** */
  21:src/HybridBinarizer.c **** static int * CalculateBlackPoints(const uint8_t* luminances, int subWidth, int subHeight, int width
  22:src/HybridBinarizer.c **** {
  28              		.loc 1 22 1
GAS LISTING C:\Users\jisu8\AppData\Local\Temp\ccNqYQdE.s 			page 2


  29              		.cfi_startproc
  30 0000 55       		pushl	%ebp
  31              	LCFI0:
  32              		.cfi_def_cfa_offset 8
  33              		.cfi_offset 5, -8
  34 0001 89E5     		movl	%esp, %ebp
  35              	LCFI1:
  36              		.cfi_def_cfa_register 5
  37 0003 53       		pushl	%ebx
  38 0004 83EC64   		subl	$100, %esp
  39              		.cfi_offset 3, -12
  23:src/HybridBinarizer.c **** 	//#ifdef HK_DEBUG
  24:src/HybridBinarizer.c **** 	printf("CalculateBlackPoints : subWidth=%d subHeight=%d width=%d height=%d strides=%d \n",subHeigh
  40              		.loc 1 24 2
  41 0007 8B451C   		movl	28(%ebp), %eax
  42 000a 89442414 		movl	%eax, 20(%esp)
  43 000e 8B4518   		movl	24(%ebp), %eax
  44 0011 89442410 		movl	%eax, 16(%esp)
  45 0015 8B4514   		movl	20(%ebp), %eax
  46 0018 8944240C 		movl	%eax, 12(%esp)
  47 001c 8B4510   		movl	16(%ebp), %eax
  48 001f 89442408 		movl	%eax, 8(%esp)
  49 0023 8B4510   		movl	16(%ebp), %eax
  50 0026 89442404 		movl	%eax, 4(%esp)
  51 002a C704240C 		movl	$LC0, (%esp)
  51      000000
  52 0031 E8000000 		call	_printf
  52      00
  25:src/HybridBinarizer.c **** 	//#endif
  26:src/HybridBinarizer.c **** 	
  27:src/HybridBinarizer.c **** 	blackPoints.width = subWidth;
  53              		.loc 1 27 20
  54 0036 8B450C   		movl	12(%ebp), %eax
  55 0039 A3000000 		movl	%eax, _blackPoints
  55      00
  28:src/HybridBinarizer.c **** 	blackPoints.height = subHeight;
  56              		.loc 1 28 21
  57 003e 8B4510   		movl	16(%ebp), %eax
  58 0041 A3040000 		movl	%eax, _blackPoints+4
  58      00
  59              	LBB2:
  29:src/HybridBinarizer.c **** 
  30:src/HybridBinarizer.c **** 	for (int y = 0; y < subHeight; y++) 
  60              		.loc 1 30 11
  61 0046 C745F400 		movl	$0, -12(%ebp)
  61      000000
  62              		.loc 1 30 2
  63 004d E93B0200 		jmp	L2
  63      00
  64              	L15:
  65              	LBB3:
  31:src/HybridBinarizer.c **** 	{
  32:src/HybridBinarizer.c **** 		int yoffset = __min(y * BLOCK_SIZE, height - BLOCK_SIZE);
  66              		.loc 1 32 17
  67 0052 BA080000 		movl	$8, %edx
  67      00
  68 0057 8B4518   		movl	24(%ebp), %eax
GAS LISTING C:\Users\jisu8\AppData\Local\Temp\ccNqYQdE.s 			page 3


  69 005a 29D0     		subl	%edx, %eax
  70 005c 89C2     		movl	%eax, %edx
  71 005e B8080000 		movl	$8, %eax
  71      00
  72 0063 0FAF45F4 		imull	-12(%ebp), %eax
  73              		.loc 1 32 7
  74 0067 39C2     		cmpl	%eax, %edx
  75 0069 0F4EC2   		cmovle	%edx, %eax
  76 006c 8945D0   		movl	%eax, -48(%ebp)
  77              	LBB4:
  33:src/HybridBinarizer.c **** 		for (int x = 0; x < subWidth; x++) 
  78              		.loc 1 33 12
  79 006f C745F000 		movl	$0, -16(%ebp)
  79      000000
  80              		.loc 1 33 3
  81 0076 E9020200 		jmp	L3
  81      00
  82              	L14:
  83              	LBB5:
  34:src/HybridBinarizer.c **** 		{
  35:src/HybridBinarizer.c **** 			int xoffset = __min(x * BLOCK_SIZE, width - BLOCK_SIZE);
  84              		.loc 1 35 18
  85 007b BA080000 		movl	$8, %edx
  85      00
  86 0080 8B4514   		movl	20(%ebp), %eax
  87 0083 29D0     		subl	%edx, %eax
  88 0085 89C2     		movl	%eax, %edx
  89 0087 B8080000 		movl	$8, %eax
  89      00
  90 008c 0FAF45F0 		imull	-16(%ebp), %eax
  91              		.loc 1 35 8
  92 0090 39C2     		cmpl	%eax, %edx
  93 0092 0F4EC2   		cmovle	%edx, %eax
  94 0095 8945CC   		movl	%eax, -52(%ebp)
  36:src/HybridBinarizer.c **** 			int sum = 0;
  95              		.loc 1 36 8
  96 0098 C745EC00 		movl	$0, -20(%ebp)
  96      000000
  37:src/HybridBinarizer.c **** 			uint8_t min = 0xFF;
  97              		.loc 1 37 12
  98 009f C645EBFF 		movb	$-1, -21(%ebp)
  38:src/HybridBinarizer.c **** 			uint8_t max = 0;
  99              		.loc 1 38 12
 100 00a3 C645EA00 		movb	$0, -22(%ebp)
 101              	LBB6:
  39:src/HybridBinarizer.c **** 			for (int yy = 0, offset = yoffset * stride + xoffset; yy < BLOCK_SIZE; yy++, offset += stride) 
 102              		.loc 1 39 13
 103 00a7 C745E400 		movl	$0, -28(%ebp)
 103      000000
 104              		.loc 1 39 38
 105 00ae 8B45D0   		movl	-48(%ebp), %eax
 106 00b1 0FAF451C 		imull	28(%ebp), %eax
 107 00b5 89C2     		movl	%eax, %edx
 108              		.loc 1 39 21
 109 00b7 8B45CC   		movl	-52(%ebp), %eax
 110 00ba 01D0     		addl	%edx, %eax
 111 00bc 8945E0   		movl	%eax, -32(%ebp)
GAS LISTING C:\Users\jisu8\AppData\Local\Temp\ccNqYQdE.s 			page 4


 112              		.loc 1 39 4
 113 00bf E9C30000 		jmp	L4
 113      00
 114              	L12:
 115              	LBB7:
  40:src/HybridBinarizer.c **** 			{
  41:src/HybridBinarizer.c **** 				for (int xx = 0; xx < BLOCK_SIZE; xx++) 
 116              		.loc 1 41 14
 117 00c4 C745DC00 		movl	$0, -36(%ebp)
 117      000000
 118              		.loc 1 41 5
 119 00cb EB42     		jmp	L5
 120              	L6:
 121              	LBB8:
  42:src/HybridBinarizer.c **** 				{
  43:src/HybridBinarizer.c **** 					uint8_t pixel = luminances[offset + xx];
 122              		.loc 1 43 40 discriminator 3
 123 00cd 8B55E0   		movl	-32(%ebp), %edx
 124 00d0 8B45DC   		movl	-36(%ebp), %eax
 125 00d3 01D0     		addl	%edx, %eax
 126 00d5 89C2     		movl	%eax, %edx
 127              		.loc 1 43 32 discriminator 3
 128 00d7 8B4508   		movl	8(%ebp), %eax
 129 00da 01D0     		addl	%edx, %eax
 130              		.loc 1 43 14 discriminator 3
 131 00dc 0FB600   		movzbl	(%eax), %eax
 132 00df 8845CB   		movb	%al, -53(%ebp)
  44:src/HybridBinarizer.c **** 					sum += pixel;
 133              		.loc 1 44 10 discriminator 3
 134 00e2 0FB645CB 		movzbl	-53(%ebp), %eax
 135 00e6 0145EC   		addl	%eax, -20(%ebp)
  45:src/HybridBinarizer.c **** 					min = min < pixel ? min : pixel;
 136              		.loc 1 45 10 discriminator 3
 137 00e9 0FB645EB 		movzbl	-21(%ebp), %eax
 138 00ed 0FB655CB 		movzbl	-53(%ebp), %edx
 139 00f1 3845CB   		cmpb	%al, -53(%ebp)
 140 00f4 0F46C2   		cmovbe	%edx, %eax
 141 00f7 8845EB   		movb	%al, -21(%ebp)
  46:src/HybridBinarizer.c **** 					max = max > pixel ? max : pixel;
 142              		.loc 1 46 10 discriminator 3
 143 00fa 0FB645EA 		movzbl	-22(%ebp), %eax
 144 00fe 0FB655CB 		movzbl	-53(%ebp), %edx
 145 0102 3845CB   		cmpb	%al, -53(%ebp)
 146 0105 0F43C2   		cmovnb	%edx, %eax
 147 0108 8845EA   		movb	%al, -22(%ebp)
 148              	LBE8:
  41:src/HybridBinarizer.c **** 				{
 149              		.loc 1 41 41 discriminator 3
 150 010b 8345DC01 		addl	$1, -36(%ebp)
 151              	L5:
  41:src/HybridBinarizer.c **** 				{
 152              		.loc 1 41 25 discriminator 1
 153 010f B8080000 		movl	$8, %eax
 153      00
  41:src/HybridBinarizer.c **** 				{
 154              		.loc 1 41 5 discriminator 1
 155 0114 3945DC   		cmpl	%eax, -36(%ebp)
GAS LISTING C:\Users\jisu8\AppData\Local\Temp\ccNqYQdE.s 			page 5


 156 0117 7CB4     		jl	L6
 157              	LBE7:
  47:src/HybridBinarizer.c **** 				}
  48:src/HybridBinarizer.c **** 				// short-circuit min/max tests once dynamic range is met
  49:src/HybridBinarizer.c **** 				if (max - min > MIN_DYNAMIC_RANGE) 
 158              		.loc 1 49 13
 159 0119 0FB655EA 		movzbl	-22(%ebp), %edx
 160 011d 0FB645EB 		movzbl	-21(%ebp), %eax
 161 0121 29C2     		subl	%eax, %edx
 162 0123 89D0     		movl	%edx, %eax
 163              		.loc 1 49 19
 164 0125 BA180000 		movl	$24, %edx
 164      00
 165              		.loc 1 49 8
 166 012a 39D0     		cmpl	%edx, %eax
 167 012c 7E4F     		jle	L7
  50:src/HybridBinarizer.c **** 				{
  51:src/HybridBinarizer.c **** 					// finish the rest of the rows quickly
  52:src/HybridBinarizer.c **** 					for (yy++, offset += stride; yy < BLOCK_SIZE; yy++, offset += stride) 
 168              		.loc 1 52 13
 169 012e 8345E401 		addl	$1, -28(%ebp)
 170              		.loc 1 52 24
 171 0132 8B451C   		movl	28(%ebp), %eax
 172 0135 0145E0   		addl	%eax, -32(%ebp)
 173              		.loc 1 52 6
 174 0138 EB39     		jmp	L8
 175              	L11:
 176              	LBB9:
  53:src/HybridBinarizer.c **** 					{
  54:src/HybridBinarizer.c **** 						for (int xx = 0; xx < BLOCK_SIZE; xx++) 
 177              		.loc 1 54 16
 178 013a C745D800 		movl	$0, -40(%ebp)
 178      000000
 179              		.loc 1 54 7
 180 0141 EB1C     		jmp	L9
 181              	L10:
  55:src/HybridBinarizer.c **** 						{
  56:src/HybridBinarizer.c **** 							sum += luminances[offset + xx];
 182              		.loc 1 56 33 discriminator 3
 183 0143 8B55E0   		movl	-32(%ebp), %edx
 184 0146 8B45D8   		movl	-40(%ebp), %eax
 185 0149 01D0     		addl	%edx, %eax
 186 014b 89C2     		movl	%eax, %edx
 187              		.loc 1 56 25 discriminator 3
 188 014d 8B4508   		movl	8(%ebp), %eax
 189 0150 01D0     		addl	%edx, %eax
 190 0152 0FB600   		movzbl	(%eax), %eax
 191 0155 0FB6C0   		movzbl	%al, %eax
 192              		.loc 1 56 12 discriminator 3
 193 0158 0145EC   		addl	%eax, -20(%ebp)
  54:src/HybridBinarizer.c **** 						{
 194              		.loc 1 54 43 discriminator 3
 195 015b 8345D801 		addl	$1, -40(%ebp)
 196              	L9:
  54:src/HybridBinarizer.c **** 						{
 197              		.loc 1 54 27 discriminator 1
 198 015f B8080000 		movl	$8, %eax
GAS LISTING C:\Users\jisu8\AppData\Local\Temp\ccNqYQdE.s 			page 6


 198      00
  54:src/HybridBinarizer.c **** 						{
 199              		.loc 1 54 7 discriminator 1
 200 0164 3945D8   		cmpl	%eax, -40(%ebp)
 201 0167 7CDA     		jl	L10
 202              	LBE9:
  52:src/HybridBinarizer.c **** 					{
 203              		.loc 1 52 54 discriminator 2
 204 0169 8345E401 		addl	$1, -28(%ebp)
  52:src/HybridBinarizer.c **** 					{
 205              		.loc 1 52 65 discriminator 2
 206 016d 8B451C   		movl	28(%ebp), %eax
 207 0170 0145E0   		addl	%eax, -32(%ebp)
 208              	L8:
  52:src/HybridBinarizer.c **** 					{
 209              		.loc 1 52 38 discriminator 1
 210 0173 B8080000 		movl	$8, %eax
 210      00
  52:src/HybridBinarizer.c **** 					{
 211              		.loc 1 52 6 discriminator 1
 212 0178 3945E4   		cmpl	%eax, -28(%ebp)
 213 017b 7CBD     		jl	L11
 214              	L7:
  39:src/HybridBinarizer.c **** 			{
 215              		.loc 1 39 77 discriminator 2
 216 017d 8345E401 		addl	$1, -28(%ebp)
  39:src/HybridBinarizer.c **** 			{
 217              		.loc 1 39 88 discriminator 2
 218 0181 8B451C   		movl	28(%ebp), %eax
 219 0184 0145E0   		addl	%eax, -32(%ebp)
 220              	L4:
  39:src/HybridBinarizer.c **** 			{
 221              		.loc 1 39 61 discriminator 1
 222 0187 B8080000 		movl	$8, %eax
 222      00
  39:src/HybridBinarizer.c **** 			{
 223              		.loc 1 39 4 discriminator 1
 224 018c 3945E4   		cmpl	%eax, -28(%ebp)
 225 018f 0F8C2FFF 		jl	L12
 225      FFFF
 226              	LBE6:
  57:src/HybridBinarizer.c **** 						}
  58:src/HybridBinarizer.c **** 					}
  59:src/HybridBinarizer.c **** 				}
  60:src/HybridBinarizer.c **** 			}
  61:src/HybridBinarizer.c **** 
  62:src/HybridBinarizer.c **** 			// The default estimate is the average of the values in the block.
  63:src/HybridBinarizer.c **** 			int average = sum / (BLOCK_SIZE * BLOCK_SIZE);
 227              		.loc 1 63 36
 228 0195 BA080000 		movl	$8, %edx
 228      00
 229 019a B8080000 		movl	$8, %eax
 229      00
 230 019f 89D3     		movl	%edx, %ebx
 231 01a1 0FAFD8   		imull	%eax, %ebx
 232              		.loc 1 63 8
 233 01a4 8B45EC   		movl	-20(%ebp), %eax
GAS LISTING C:\Users\jisu8\AppData\Local\Temp\ccNqYQdE.s 			page 7


 234 01a7 99       		cltd
 235 01a8 F7FB     		idivl	%ebx
 236 01aa 8945D4   		movl	%eax, -44(%ebp)
  64:src/HybridBinarizer.c **** 			if (max - min <= MIN_DYNAMIC_RANGE) 
 237              		.loc 1 64 12
 238 01ad 0FB655EA 		movzbl	-22(%ebp), %edx
 239 01b1 0FB645EB 		movzbl	-21(%ebp), %eax
 240 01b5 29C2     		subl	%eax, %edx
 241 01b7 89D0     		movl	%edx, %eax
 242              		.loc 1 64 18
 243 01b9 BA180000 		movl	$24, %edx
 243      00
 244              		.loc 1 64 7
 245 01be 39D0     		cmpl	%edx, %eax
 246 01c0 7F7E     		jg	L13
  65:src/HybridBinarizer.c **** 			{
  66:src/HybridBinarizer.c **** 				// If variation within the block is low, assume this is a block with only light or only
  67:src/HybridBinarizer.c **** 				// dark pixels. In that case we do not want to use the average, as it would divide this
  68:src/HybridBinarizer.c **** 				// low contrast area into black and white pixels, essentially creating data out of noise.
  69:src/HybridBinarizer.c **** 				//
  70:src/HybridBinarizer.c **** 				// The default assumption is that the block is light/background. Since no estimate for
  71:src/HybridBinarizer.c **** 				// the level of dark pixels exists locally, use half the min for the block.
  72:src/HybridBinarizer.c **** 				average = min / 2;
 247              		.loc 1 72 19
 248 01c2 0FB645EB 		movzbl	-21(%ebp), %eax
 249 01c6 D0E8     		shrb	%al
 250              		.loc 1 72 13
 251 01c8 0FB6C0   		movzbl	%al, %eax
 252 01cb 8945D4   		movl	%eax, -44(%ebp)
  73:src/HybridBinarizer.c **** 
  74:src/HybridBinarizer.c **** 				if (y > 0 && x > 0) 
 253              		.loc 1 74 8
 254 01ce 837DF400 		cmpl	$0, -12(%ebp)
 255 01d2 7E6C     		jle	L13
 256              		.loc 1 74 15 discriminator 1
 257 01d4 837DF000 		cmpl	$0, -16(%ebp)
 258 01d8 7E66     		jle	L13
 259              	LBB10:
  75:src/HybridBinarizer.c **** 				{
  76:src/HybridBinarizer.c **** 					// Correct the "white background" assumption for blocks that have neighbors by comparing
  77:src/HybridBinarizer.c **** 					// the pixels in this block to the previously calculated black points. This is based on
  78:src/HybridBinarizer.c **** 					// the fact that dark barcode symbology is always surrounded by some amount of light
  79:src/HybridBinarizer.c **** 					// background for which reasonable black point estimates were made. The bp estimated at
  80:src/HybridBinarizer.c **** 					// the boundaries is used for the interior.
  81:src/HybridBinarizer.c **** 
  82:src/HybridBinarizer.c **** 					// The (min < bp) is arbitrary but works better than other heuristics that were tried.
  83:src/HybridBinarizer.c **** 					int averageNeighborBlackPoint =
  84:src/HybridBinarizer.c **** 						(blackpoints_data[x][y - 1] + (2 * blackpoints_data[x - 1][y]) + blackpoints_data[x - 1][y - 
 260              		.loc 1 84 30
 261 01da 8B45F4   		movl	-12(%ebp), %eax
 262 01dd 8D50FF   		leal	-1(%eax), %edx
 263              		.loc 1 84 27
 264 01e0 8B45F0   		movl	-16(%ebp), %eax
 265 01e3 69C0E803 		imull	$1000, %eax, %eax
 265      0000
 266 01e9 01D0     		addl	%edx, %eax
 267 01eb 8B048500 		movl	_blackpoints_data(,%eax,4), %eax
GAS LISTING C:\Users\jisu8\AppData\Local\Temp\ccNqYQdE.s 			page 8


 267      000000
 268              		.loc 1 84 61
 269 01f2 8B55F0   		movl	-16(%ebp), %edx
 270 01f5 83EA01   		subl	$1, %edx
 271              		.loc 1 84 65
 272 01f8 69CAE803 		imull	$1000, %edx, %ecx
 272      0000
 273 01fe 8B55F4   		movl	-12(%ebp), %edx
 274 0201 01CA     		addl	%ecx, %edx
 275 0203 8B149500 		movl	_blackpoints_data(,%edx,4), %edx
 275      000000
 276              		.loc 1 84 40
 277 020a 01D2     		addl	%edx, %edx
 278              		.loc 1 84 35
 279 020c 01C2     		addl	%eax, %edx
 280              		.loc 1 84 91
 281 020e 8B45F0   		movl	-16(%ebp), %eax
 282 0211 8D58FF   		leal	-1(%eax), %ebx
 283              		.loc 1 84 98
 284 0214 8B45F4   		movl	-12(%ebp), %eax
 285 0217 8D48FF   		leal	-1(%eax), %ecx
 286              		.loc 1 84 95
 287 021a 69C3E803 		imull	$1000, %ebx, %eax
 287      0000
 288 0220 01C8     		addl	%ecx, %eax
 289 0222 8B048500 		movl	_blackpoints_data(,%eax,4), %eax
 289      000000
 290              		.loc 1 84 70
 291 0229 01D0     		addl	%edx, %eax
 292              		.loc 1 84 104
 293 022b C1E802   		shrl	$2, %eax
  83:src/HybridBinarizer.c **** 						(blackpoints_data[x][y - 1] + (2 * blackpoints_data[x - 1][y]) + blackpoints_data[x - 1][y - 
 294              		.loc 1 83 10
 295 022e 8945C4   		movl	%eax, -60(%ebp)
  85:src/HybridBinarizer.c **** 
  86:src/HybridBinarizer.c **** 					if (min < averageNeighborBlackPoint) 
 296              		.loc 1 86 14
 297 0231 0FB645EB 		movzbl	-21(%ebp), %eax
 298              		.loc 1 86 9
 299 0235 3945C4   		cmpl	%eax, -60(%ebp)
 300 0238 7E06     		jle	L13
  87:src/HybridBinarizer.c **** 					{
  88:src/HybridBinarizer.c **** 						average = averageNeighborBlackPoint;
 301              		.loc 1 88 15
 302 023a 8B45C4   		movl	-60(%ebp), %eax
 303 023d 8945D4   		movl	%eax, -44(%ebp)
 304              	L13:
 305              	LBE10:
  89:src/HybridBinarizer.c **** 					}
  90:src/HybridBinarizer.c **** 				}
  91:src/HybridBinarizer.c **** 			}
  92:src/HybridBinarizer.c **** 
  93:src/HybridBinarizer.c **** 			blackpoints_data[x][y] = average;
 306              		.loc 1 93 27 discriminator 2
 307 0240 8B45D4   		movl	-44(%ebp), %eax
 308 0243 8B55F0   		movl	-16(%ebp), %edx
 309 0246 69CAE803 		imull	$1000, %edx, %ecx
GAS LISTING C:\Users\jisu8\AppData\Local\Temp\ccNqYQdE.s 			page 9


 309      0000
 310 024c 8B55F4   		movl	-12(%ebp), %edx
 311 024f 01CA     		addl	%ecx, %edx
 312 0251 89049500 		movl	%eax, _blackpoints_data(,%edx,4)
 312      000000
  94:src/HybridBinarizer.c **** 
  95:src/HybridBinarizer.c **** 
  96:src/HybridBinarizer.c **** 			printf("X=%d, Y=%d, AVG=%d\n", x, y, average);
 313              		.loc 1 96 4 discriminator 2
 314 0258 8B45D4   		movl	-44(%ebp), %eax
 315 025b 8944240C 		movl	%eax, 12(%esp)
 316 025f 8B45F4   		movl	-12(%ebp), %eax
 317 0262 89442408 		movl	%eax, 8(%esp)
 318 0266 8B45F0   		movl	-16(%ebp), %eax
 319 0269 89442404 		movl	%eax, 4(%esp)
 320 026d C704245C 		movl	$LC1, (%esp)
 320      000000
 321 0274 E8000000 		call	_printf
 321      00
 322              	LBE5:
  33:src/HybridBinarizer.c **** 		{
 323              		.loc 1 33 34 discriminator 2
 324 0279 8345F001 		addl	$1, -16(%ebp)
 325              	L3:
  33:src/HybridBinarizer.c **** 		{
 326              		.loc 1 33 3 discriminator 1
 327 027d 8B45F0   		movl	-16(%ebp), %eax
 328 0280 3B450C   		cmpl	12(%ebp), %eax
 329 0283 0F8CF2FD 		jl	L14
 329      FFFF
 330              	LBE4:
 331              	LBE3:
  30:src/HybridBinarizer.c **** 	{
 332              		.loc 1 30 34 discriminator 2
 333 0289 8345F401 		addl	$1, -12(%ebp)
 334              	L2:
  30:src/HybridBinarizer.c **** 	{
 335              		.loc 1 30 2 discriminator 1
 336 028d 8B45F4   		movl	-12(%ebp), %eax
 337 0290 3B4510   		cmpl	16(%ebp), %eax
 338 0293 0F8CB9FD 		jl	L15
 338      FFFF
 339              	LBE2:
  97:src/HybridBinarizer.c **** 
  98:src/HybridBinarizer.c **** 		}
  99:src/HybridBinarizer.c **** 	}
 100:src/HybridBinarizer.c **** 
 101:src/HybridBinarizer.c **** 	return blackpoints_data;
 340              		.loc 1 101 9
 341 0299 B8000000 		movl	$_blackpoints_data, %eax
 341      00
 102:src/HybridBinarizer.c **** }
 342              		.loc 1 102 1
 343 029e 83C464   		addl	$100, %esp
 344 02a1 5B       		popl	%ebx
 345              		.cfi_restore 3
 346 02a2 5D       		popl	%ebp
GAS LISTING C:\Users\jisu8\AppData\Local\Temp\ccNqYQdE.s 			page 10


 347              	LCFI2:
 348              		.cfi_restore 5
 349              		.cfi_def_cfa 4, 4
 350 02a3 C3       		ret
 351              		.cfi_endproc
 352              	LFE16:
 354              	_clamp:
 355              	LFB17:
 103:src/HybridBinarizer.c **** 
 104:src/HybridBinarizer.c **** static inline clamp(const int __val, const int __lo, const int __hi)
 105:src/HybridBinarizer.c **** {
 356              		.loc 1 105 1
 357              		.cfi_startproc
 358 02a4 55       		pushl	%ebp
 359              	LCFI3:
 360              		.cfi_def_cfa_offset 8
 361              		.cfi_offset 5, -8
 362 02a5 89E5     		movl	%esp, %ebp
 363              	LCFI4:
 364              		.cfi_def_cfa_register 5
 106:src/HybridBinarizer.c ****      // __glibcxx_assert(!(__hi < __lo));
 107:src/HybridBinarizer.c ****       return (__val < __lo) ? __lo : (__hi < __val) ? __hi : __val;
 365              		.loc 1 107 36
 366 02a7 8B4508   		movl	8(%ebp), %eax
 367 02aa 3B450C   		cmpl	12(%ebp), %eax
 368 02ad 7C0C     		jl	L18
 369              		.loc 1 107 36 is_stmt 0 discriminator 1
 370 02af 8B4510   		movl	16(%ebp), %eax
 371 02b2 394508   		cmpl	%eax, 8(%ebp)
 372 02b5 0F4E4508 		cmovle	8(%ebp), %eax
 373 02b9 EB03     		jmp	L20
 374              	L18:
 375              		.loc 1 107 36 discriminator 2
 376 02bb 8B450C   		movl	12(%ebp), %eax
 377              	L20:
 108:src/HybridBinarizer.c **** }
 378              		.loc 1 108 1 is_stmt 1 discriminator 5
 379 02be 5D       		popl	%ebp
 380              	LCFI5:
 381              		.cfi_restore 5
 382              		.cfi_def_cfa 4, 4
 383 02bf C3       		ret
 384              		.cfi_endproc
 385              	LFE17:
 386              		.section .rdata,"dr"
 387              	LC2:
 388 0070 73746174 		.ascii "static void ThresholdBlock : \0"
 388      69632076 
 388      6F696420 
 388      54687265 
 388      73686F6C 
 389              	LC3:
 390 008e 74687265 		.ascii "threshold : %d \12\0"
 390      73686F6C 
 390      64203A20 
 390      2564200A 
 390      00
GAS LISTING C:\Users\jisu8\AppData\Local\Temp\ccNqYQdE.s 			page 11


 391              		.text
 393              	_ThresholdBlock:
 394              	LFB18:
 109:src/HybridBinarizer.c **** 
 110:src/HybridBinarizer.c **** /**
 111:src/HybridBinarizer.c **** * Applies a single threshold to a block of pixels.
 112:src/HybridBinarizer.c **** */
 113:src/HybridBinarizer.c **** static void ThresholdBlock(const uint8_t * luminances, int xoffset, int yoffset, int threshold, int
 114:src/HybridBinarizer.c **** {
 395              		.loc 1 114 1
 396              		.cfi_startproc
 397 02c0 55       		pushl	%ebp
 398              	LCFI6:
 399              		.cfi_def_cfa_offset 8
 400              		.cfi_offset 5, -8
 401 02c1 89E5     		movl	%esp, %ebp
 402              	LCFI7:
 403              		.cfi_def_cfa_register 5
 404 02c3 83EC28   		subl	$40, %esp
 115:src/HybridBinarizer.c **** 
 116:src/HybridBinarizer.c **** 	printf("static void ThresholdBlock : ");
 405              		.loc 1 116 2
 406 02c6 C7042470 		movl	$LC2, (%esp)
 406      000000
 407 02cd E8000000 		call	_printf
 407      00
 408              	LBB11:
 117:src/HybridBinarizer.c **** 
 118:src/HybridBinarizer.c **** 	for (int y = yoffset; y < yoffset + BLOCK_SIZE; ++y) 
 409              		.loc 1 118 11
 410 02d2 8B4510   		movl	16(%ebp), %eax
 411 02d5 8945F4   		movl	%eax, -12(%ebp)
 412              		.loc 1 118 2
 413 02d8 EB6C     		jmp	L22
 414              	L25:
 415              	LBB12:
 119:src/HybridBinarizer.c **** 	{
 120:src/HybridBinarizer.c **** 		uint8_t * src = luminances + y * stride + xoffset;
 416              		.loc 1 120 34
 417 02da 8B45F4   		movl	-12(%ebp), %eax
 418 02dd 0FAF4518 		imull	24(%ebp), %eax
 419 02e1 89C2     		movl	%eax, %edx
 420              		.loc 1 120 43
 421 02e3 8B450C   		movl	12(%ebp), %eax
 422 02e6 01C2     		addl	%eax, %edx
 423              		.loc 1 120 13
 424 02e8 8B4508   		movl	8(%ebp), %eax
 425 02eb 01D0     		addl	%edx, %eax
 426 02ed 8945F0   		movl	%eax, -16(%ebp)
 121:src/HybridBinarizer.c **** 		uint8_t * const dstBegin = matrix->bits + y * matrix->_width + xoffset;
 427              		.loc 1 121 36
 428 02f0 8B451C   		movl	28(%ebp), %eax
 429 02f3 8B500C   		movl	12(%eax), %edx
 430              		.loc 1 121 55
 431 02f6 8B451C   		movl	28(%ebp), %eax
 432 02f9 8B00     		movl	(%eax), %eax
 433              		.loc 1 121 47
GAS LISTING C:\Users\jisu8\AppData\Local\Temp\ccNqYQdE.s 			page 12


 434 02fb 0FAF45F4 		imull	-12(%ebp), %eax
 435 02ff 89C1     		movl	%eax, %ecx
 436              		.loc 1 121 64
 437 0301 8B450C   		movl	12(%ebp), %eax
 438 0304 01C8     		addl	%ecx, %eax
 439              		.loc 1 121 19
 440 0306 01D0     		addl	%edx, %eax
 441 0308 8945E8   		movl	%eax, -24(%ebp)
 442              	LBB13:
 122:src/HybridBinarizer.c **** 		for (uint8_t * dst = dstBegin; dst < dstBegin + BLOCK_SIZE; ++dst, ++src)
 443              		.loc 1 122 18
 444 030b 8B45E8   		movl	-24(%ebp), %eax
 445 030e 8945EC   		movl	%eax, -20(%ebp)
 446              		.loc 1 122 3
 447 0311 EB1E     		jmp	L23
 448              	L24:
 123:src/HybridBinarizer.c **** 			*dst = *src <= threshold;
 449              		.loc 1 123 11 discriminator 3
 450 0313 8B45F0   		movl	-16(%ebp), %eax
 451 0316 0FB600   		movzbl	(%eax), %eax
 452 0319 0FB6C0   		movzbl	%al, %eax
 453              		.loc 1 123 16 discriminator 3
 454 031c 394514   		cmpl	%eax, 20(%ebp)
 455 031f 0F9DC0   		setge	%al
 456 0322 89C2     		movl	%eax, %edx
 457              		.loc 1 123 9 discriminator 3
 458 0324 8B45EC   		movl	-20(%ebp), %eax
 459 0327 8810     		movb	%dl, (%eax)
 122:src/HybridBinarizer.c **** 		for (uint8_t * dst = dstBegin; dst < dstBegin + BLOCK_SIZE; ++dst, ++src)
 460              		.loc 1 122 63 discriminator 3
 461 0329 8345EC01 		addl	$1, -20(%ebp)
 122:src/HybridBinarizer.c **** 		for (uint8_t * dst = dstBegin; dst < dstBegin + BLOCK_SIZE; ++dst, ++src)
 462              		.loc 1 122 70 discriminator 3
 463 032d 8345F001 		addl	$1, -16(%ebp)
 464              	L23:
 122:src/HybridBinarizer.c **** 		for (uint8_t * dst = dstBegin; dst < dstBegin + BLOCK_SIZE; ++dst, ++src)
 465              		.loc 1 122 49 discriminator 1
 466 0331 B8080000 		movl	$8, %eax
 466      00
 467 0336 89C2     		movl	%eax, %edx
 468 0338 8B45E8   		movl	-24(%ebp), %eax
 469 033b 01D0     		addl	%edx, %eax
 122:src/HybridBinarizer.c **** 		for (uint8_t * dst = dstBegin; dst < dstBegin + BLOCK_SIZE; ++dst, ++src)
 470              		.loc 1 122 3 discriminator 1
 471 033d 3945EC   		cmpl	%eax, -20(%ebp)
 472 0340 72D1     		jb	L24
 473              	LBE13:
 474              	LBE12:
 118:src/HybridBinarizer.c **** 	{
 475              		.loc 1 118 50 discriminator 2
 476 0342 8345F401 		addl	$1, -12(%ebp)
 477              	L22:
 118:src/HybridBinarizer.c **** 	{
 478              		.loc 1 118 36 discriminator 1
 479 0346 BA080000 		movl	$8, %edx
 479      00
 480 034b 8B4510   		movl	16(%ebp), %eax
GAS LISTING C:\Users\jisu8\AppData\Local\Temp\ccNqYQdE.s 			page 13


 481 034e 01D0     		addl	%edx, %eax
 118:src/HybridBinarizer.c **** 	{
 482              		.loc 1 118 2 discriminator 1
 483 0350 3945F4   		cmpl	%eax, -12(%ebp)
 484 0353 7C85     		jl	L25
 485              	LBE11:
 124:src/HybridBinarizer.c **** 	}
 125:src/HybridBinarizer.c **** 
 126:src/HybridBinarizer.c **** 	printf("threshold : %d \n",threshold);
 486              		.loc 1 126 2
 487 0355 8B4514   		movl	20(%ebp), %eax
 488 0358 89442404 		movl	%eax, 4(%esp)
 489 035c C704248E 		movl	$LC3, (%esp)
 489      000000
 490 0363 E8000000 		call	_printf
 490      00
 127:src/HybridBinarizer.c **** }
 491              		.loc 1 127 1
 492 0368 90       		nop
 493 0369 C9       		leave
 494              	LCFI8:
 495              		.cfi_restore 5
 496              		.cfi_def_cfa 4, 4
 497 036a C3       		ret
 498              		.cfi_endproc
 499              	LFE18:
 500              		.section .rdata,"dr"
 501 009f 00       		.align 4
 502              	LC4:
 503 00a0 73746174 		.ascii "static void CalculateThresholdForBlock : Calls ThresholdBlock \0"
 503      69632076 
 503      6F696420 
 503      43616C63 
 503      756C6174 
 504 00df 00       		.text
 506              	_CalculateThresholdForBlock:
 507              	LFB19:
 128:src/HybridBinarizer.c **** 
 129:src/HybridBinarizer.c **** /**
 130:src/HybridBinarizer.c **** * For each block in the image, calculate the average black point using a 5x5 grid
 131:src/HybridBinarizer.c **** * of the blocks around it. Also handles the corner cases (fractional blocks are computed based
 132:src/HybridBinarizer.c **** * on the last pixels in the row/column which are also used in the previous block).
 133:src/HybridBinarizer.c **** */
 134:src/HybridBinarizer.c **** static void CalculateThresholdForBlock(const uint8_t* luminances, int subWidth, int subHeight, int 
 135:src/HybridBinarizer.c ****                                        int stride, BitMatrix_t * matrix)
 136:src/HybridBinarizer.c **** {
 508              		.loc 1 136 1
 509              		.cfi_startproc
 510 036b 55       		pushl	%ebp
 511              	LCFI9:
 512              		.cfi_def_cfa_offset 8
 513              		.cfi_offset 5, -8
 514 036c 89E5     		movl	%esp, %ebp
 515              	LCFI10:
 516              		.cfi_def_cfa_register 5
 517 036e 83EC58   		subl	$88, %esp
 137:src/HybridBinarizer.c **** 	printf("static void CalculateThresholdForBlock : Calls ThresholdBlock \n");
GAS LISTING C:\Users\jisu8\AppData\Local\Temp\ccNqYQdE.s 			page 14


 518              		.loc 1 137 2
 519 0371 C70424A0 		movl	$LC4, (%esp)
 519      000000
 520 0378 E8000000 		call	_puts
 520      00
 521              	LBB14:
 138:src/HybridBinarizer.c **** 
 139:src/HybridBinarizer.c **** 	for (int y = 0; y < subHeight; y++) 
 522              		.loc 1 139 11
 523 037d C745F400 		movl	$0, -12(%ebp)
 523      000000
 524              		.loc 1 139 2
 525 0384 E9380100 		jmp	L27
 525      00
 526              	L34:
 527              	LBB15:
 140:src/HybridBinarizer.c **** 	{
 141:src/HybridBinarizer.c **** 		int yoffset = __min(y * BLOCK_SIZE, height - BLOCK_SIZE);
 528              		.loc 1 141 17
 529 0389 BA080000 		movl	$8, %edx
 529      00
 530 038e 8B4518   		movl	24(%ebp), %eax
 531 0391 29D0     		subl	%edx, %eax
 532 0393 89C2     		movl	%eax, %edx
 533 0395 B8080000 		movl	$8, %eax
 533      00
 534 039a 0FAF45F4 		imull	-12(%ebp), %eax
 535              		.loc 1 141 7
 536 039e 39C2     		cmpl	%eax, %edx
 537 03a0 0F4EC2   		cmovle	%edx, %eax
 538 03a3 8945E0   		movl	%eax, -32(%ebp)
 539              	LBB16:
 142:src/HybridBinarizer.c **** 		for (int x = 0; x < subWidth; x++) 
 540              		.loc 1 142 12
 541 03a6 C745F000 		movl	$0, -16(%ebp)
 541      000000
 542              		.loc 1 142 3
 543 03ad E9FF0000 		jmp	L28
 543      00
 544              	L33:
 545              	LBB17:
 143:src/HybridBinarizer.c **** 		{
 144:src/HybridBinarizer.c **** 			int xoffset = __min(x * BLOCK_SIZE, width - BLOCK_SIZE);
 546              		.loc 1 144 18
 547 03b2 BA080000 		movl	$8, %edx
 547      00
 548 03b7 8B4514   		movl	20(%ebp), %eax
 549 03ba 29D0     		subl	%edx, %eax
 550 03bc 89C2     		movl	%eax, %edx
 551 03be B8080000 		movl	$8, %eax
 551      00
 552 03c3 0FAF45F0 		imull	-16(%ebp), %eax
 553              		.loc 1 144 8
 554 03c7 39C2     		cmpl	%eax, %edx
 555 03c9 0F4EC2   		cmovle	%edx, %eax
 556 03cc 8945DC   		movl	%eax, -36(%ebp)
 145:src/HybridBinarizer.c **** 			int left = clamp(x, 2, subWidth - 3);
GAS LISTING C:\Users\jisu8\AppData\Local\Temp\ccNqYQdE.s 			page 15


 557              		.loc 1 145 15
 558 03cf 8B450C   		movl	12(%ebp), %eax
 559 03d2 83E803   		subl	$3, %eax
 560 03d5 89442408 		movl	%eax, 8(%esp)
 561 03d9 C7442404 		movl	$2, 4(%esp)
 561      02000000 
 562 03e1 8B45F0   		movl	-16(%ebp), %eax
 563 03e4 890424   		movl	%eax, (%esp)
 564 03e7 E8B8FEFF 		call	_clamp
 564      FF
 565 03ec 8945D8   		movl	%eax, -40(%ebp)
 146:src/HybridBinarizer.c **** 			int top  = clamp(y, 2, subHeight - 3);
 566              		.loc 1 146 15
 567 03ef 8B4510   		movl	16(%ebp), %eax
 568 03f2 83E803   		subl	$3, %eax
 569 03f5 89442408 		movl	%eax, 8(%esp)
 570 03f9 C7442404 		movl	$2, 4(%esp)
 570      02000000 
 571 0401 8B45F4   		movl	-12(%ebp), %eax
 572 0404 890424   		movl	%eax, (%esp)
 573 0407 E898FEFF 		call	_clamp
 573      FF
 574 040c 8945D4   		movl	%eax, -44(%ebp)
 147:src/HybridBinarizer.c **** 			int sum = 0;
 575              		.loc 1 147 8
 576 040f C745EC00 		movl	$0, -20(%ebp)
 576      000000
 577              	LBB18:
 148:src/HybridBinarizer.c **** 			for (int dy = -2; dy <= 2; ++dy) 
 578              		.loc 1 148 13
 579 0416 C745E8FE 		movl	$-2, -24(%ebp)
 579      FFFFFF
 580              		.loc 1 148 4
 581 041d EB3F     		jmp	L29
 582              	L32:
 583              	LBB19:
 149:src/HybridBinarizer.c **** 			{
 150:src/HybridBinarizer.c **** 				for (int dx = -2; dx <= 2; ++dx) 
 584              		.loc 1 150 14
 585 041f C745E4FE 		movl	$-2, -28(%ebp)
 585      FFFFFF
 586              		.loc 1 150 5
 587 0426 EB2C     		jmp	L30
 588              	L31:
 151:src/HybridBinarizer.c **** 				{
 152:src/HybridBinarizer.c **** 					sum += blackpoints_data[left + dx][top + dy];
 589              		.loc 1 152 35 discriminator 3
 590 0428 8B55D8   		movl	-40(%ebp), %edx
 591 042b 8B45E4   		movl	-28(%ebp), %eax
 592 042e 8D0C02   		leal	(%edx,%eax), %ecx
 593              		.loc 1 152 45 discriminator 3
 594 0431 8B55D4   		movl	-44(%ebp), %edx
 595 0434 8B45E8   		movl	-24(%ebp), %eax
 596 0437 01C2     		addl	%eax, %edx
 597              		.loc 1 152 40 discriminator 3
 598 0439 69C1E803 		imull	$1000, %ecx, %eax
 598      0000
GAS LISTING C:\Users\jisu8\AppData\Local\Temp\ccNqYQdE.s 			page 16


 599 043f 01D0     		addl	%edx, %eax
 600 0441 8B148500 		movl	_blackpoints_data(,%eax,4), %edx
 600      000000
 601              		.loc 1 152 10 discriminator 3
 602 0448 8B45EC   		movl	-20(%ebp), %eax
 603 044b 01D0     		addl	%edx, %eax
 604 044d 8945EC   		movl	%eax, -20(%ebp)
 150:src/HybridBinarizer.c **** 				{
 605              		.loc 1 150 32 discriminator 3
 606 0450 8345E401 		addl	$1, -28(%ebp)
 607              	L30:
 150:src/HybridBinarizer.c **** 				{
 608              		.loc 1 150 5 discriminator 1
 609 0454 837DE402 		cmpl	$2, -28(%ebp)
 610 0458 7ECE     		jle	L31
 611              	LBE19:
 148:src/HybridBinarizer.c **** 			{
 612              		.loc 1 148 31 discriminator 2
 613 045a 8345E801 		addl	$1, -24(%ebp)
 614              	L29:
 148:src/HybridBinarizer.c **** 			{
 615              		.loc 1 148 4 discriminator 1
 616 045e 837DE802 		cmpl	$2, -24(%ebp)
 617 0462 7EBB     		jle	L32
 618              	LBE18:
 153:src/HybridBinarizer.c **** 				}
 154:src/HybridBinarizer.c **** 			}
 155:src/HybridBinarizer.c **** 
 156:src/HybridBinarizer.c **** 			int average = sum / 25;
 619              		.loc 1 156 8 discriminator 2
 620 0464 8B4DEC   		movl	-20(%ebp), %ecx
 621 0467 BA1F85EB 		movl	$1374389535, %edx
 621      51
 622 046c 89C8     		movl	%ecx, %eax
 623 046e F7EA     		imull	%edx
 624 0470 C1FA03   		sarl	$3, %edx
 625 0473 89C8     		movl	%ecx, %eax
 626 0475 C1F81F   		sarl	$31, %eax
 627 0478 29C2     		subl	%eax, %edx
 628 047a 89D0     		movl	%edx, %eax
 629 047c 8945D0   		movl	%eax, -48(%ebp)
 157:src/HybridBinarizer.c **** 			ThresholdBlock(luminances, xoffset, yoffset, average, stride, matrix);
 630              		.loc 1 157 4 discriminator 2
 631 047f 8B4520   		movl	32(%ebp), %eax
 632 0482 89442414 		movl	%eax, 20(%esp)
 633 0486 8B451C   		movl	28(%ebp), %eax
 634 0489 89442410 		movl	%eax, 16(%esp)
 635 048d 8B45D0   		movl	-48(%ebp), %eax
 636 0490 8944240C 		movl	%eax, 12(%esp)
 637 0494 8B45E0   		movl	-32(%ebp), %eax
 638 0497 89442408 		movl	%eax, 8(%esp)
 639 049b 8B45DC   		movl	-36(%ebp), %eax
 640 049e 89442404 		movl	%eax, 4(%esp)
 641 04a2 8B4508   		movl	8(%ebp), %eax
 642 04a5 890424   		movl	%eax, (%esp)
 643 04a8 E813FEFF 		call	_ThresholdBlock
 643      FF
GAS LISTING C:\Users\jisu8\AppData\Local\Temp\ccNqYQdE.s 			page 17


 644              	LBE17:
 142:src/HybridBinarizer.c **** 		{
 645              		.loc 1 142 34 discriminator 2
 646 04ad 8345F001 		addl	$1, -16(%ebp)
 647              	L28:
 142:src/HybridBinarizer.c **** 		{
 648              		.loc 1 142 3 discriminator 1
 649 04b1 8B45F0   		movl	-16(%ebp), %eax
 650 04b4 3B450C   		cmpl	12(%ebp), %eax
 651 04b7 0F8CF5FE 		jl	L33
 651      FFFF
 652              	LBE16:
 653              	LBE15:
 139:src/HybridBinarizer.c **** 	{
 654              		.loc 1 139 34 discriminator 2
 655 04bd 8345F401 		addl	$1, -12(%ebp)
 656              	L27:
 139:src/HybridBinarizer.c **** 	{
 657              		.loc 1 139 2 discriminator 1
 658 04c1 8B45F4   		movl	-12(%ebp), %eax
 659 04c4 3B4510   		cmpl	16(%ebp), %eax
 660 04c7 0F8CBCFE 		jl	L34
 660      FFFF
 661              	LBE14:
 158:src/HybridBinarizer.c **** 		}
 159:src/HybridBinarizer.c **** 	}
 160:src/HybridBinarizer.c **** 
 161:src/HybridBinarizer.c **** #ifdef HK_DEBUG
 162:src/HybridBinarizer.c **** 	//std::cout << "width : " << width << "height : " << height << "\n";
 163:src/HybridBinarizer.c **** #endif
 164:src/HybridBinarizer.c **** 
 165:src/HybridBinarizer.c **** }
 662              		.loc 1 165 1
 663 04cd 90       		nop
 664 04ce C9       		leave
 665              	LCFI11:
 666              		.cfi_restore 5
 667              		.cfi_def_cfa 4, 4
 668 04cf C3       		ret
 669              		.cfi_endproc
 670              	LFE19:
 672              	_InitBlackMatrix:
 673              	LFB20:
 166:src/HybridBinarizer.c **** 
 167:src/HybridBinarizer.c **** static void InitBlackMatrix(GenericLuminanceSource_t * source, BitMatrix_t * outMatrix)
 168:src/HybridBinarizer.c **** {
 674              		.loc 1 168 1
 675              		.cfi_startproc
 676 04d0 55       		pushl	%ebp
 677              	LCFI12:
 678              		.cfi_def_cfa_offset 8
 679              		.cfi_offset 5, -8
 680 04d1 89E5     		movl	%esp, %ebp
 681              	LCFI13:
 682              		.cfi_def_cfa_register 5
 683 04d3 83EC48   		subl	$72, %esp
 169:src/HybridBinarizer.c **** 	BitMatrix_t * matrix = outMatrix;
GAS LISTING C:\Users\jisu8\AppData\Local\Temp\ccNqYQdE.s 			page 18


 684              		.loc 1 169 16
 685 04d6 8B450C   		movl	12(%ebp), %eax
 686 04d9 8945F4   		movl	%eax, -12(%ebp)
 170:src/HybridBinarizer.c **** 	int width = source->width;
 687              		.loc 1 170 6
 688 04dc 8B4508   		movl	8(%ebp), %eax
 689 04df 8B400C   		movl	12(%eax), %eax
 690 04e2 8945F0   		movl	%eax, -16(%ebp)
 171:src/HybridBinarizer.c **** 	int height = source->height;
 691              		.loc 1 171 6
 692 04e5 8B4508   		movl	8(%ebp), %eax
 693 04e8 8B4010   		movl	16(%eax), %eax
 694 04eb 8945EC   		movl	%eax, -20(%ebp)
 172:src/HybridBinarizer.c **** 	uint8_t * buffer = NULL;
 695              		.loc 1 172 12
 696 04ee C745E800 		movl	$0, -24(%ebp)
 696      000000
 173:src/HybridBinarizer.c **** 	int stride = 0;
 697              		.loc 1 173 6
 698 04f5 C745D800 		movl	$0, -40(%ebp)
 698      000000
 174:src/HybridBinarizer.c **** 
 175:src/HybridBinarizer.c **** 	uint8_t* luminances = getMatrix(source, buffer, &stride,0);
 699              		.loc 1 175 24
 700 04fc C744240C 		movl	$0, 12(%esp)
 700      00000000 
 701 0504 8D45D8   		leal	-40(%ebp), %eax
 702 0507 89442408 		movl	%eax, 8(%esp)
 703 050b 8B45E8   		movl	-24(%ebp), %eax
 704 050e 89442404 		movl	%eax, 4(%esp)
 705 0512 8B4508   		movl	8(%ebp), %eax
 706 0515 890424   		movl	%eax, (%esp)
 707 0518 E8000000 		call	_getMatrix
 707      00
 708 051d 8945E4   		movl	%eax, -28(%ebp)
 176:src/HybridBinarizer.c **** 	int subWidth = (width + BLOCK_SIZE - 1) / BLOCK_SIZE; // ceil(width/BS)
 709              		.loc 1 176 24
 710 0520 BA080000 		movl	$8, %edx
 710      00
 711 0525 8B45F0   		movl	-16(%ebp), %eax
 712 0528 01D0     		addl	%edx, %eax
 713              		.loc 1 176 37
 714 052a 83E801   		subl	$1, %eax
 715              		.loc 1 176 42
 716 052d B9080000 		movl	$8, %ecx
 716      00
 717              		.loc 1 176 6
 718 0532 99       		cltd
 719 0533 F7F9     		idivl	%ecx
 720 0535 8945E0   		movl	%eax, -32(%ebp)
 177:src/HybridBinarizer.c **** 	int subHeight = (height + BLOCK_SIZE - 1) / BLOCK_SIZE; // ceil(height/BS)
 721              		.loc 1 177 26
 722 0538 BA080000 		movl	$8, %edx
 722      00
 723 053d 8B45EC   		movl	-20(%ebp), %eax
 724 0540 01D0     		addl	%edx, %eax
 725              		.loc 1 177 39
GAS LISTING C:\Users\jisu8\AppData\Local\Temp\ccNqYQdE.s 			page 19


 726 0542 83E801   		subl	$1, %eax
 727              		.loc 1 177 44
 728 0545 B9080000 		movl	$8, %ecx
 728      00
 729              		.loc 1 177 6
 730 054a 99       		cltd
 731 054b F7F9     		idivl	%ecx
 732 054d 8945DC   		movl	%eax, -36(%ebp)
 178:src/HybridBinarizer.c **** 	blackPoints.data = CalculateBlackPoints(luminances, subWidth, subHeight, width, height, stride);
 733              		.loc 1 178 21
 734 0550 8B45D8   		movl	-40(%ebp), %eax
 735 0553 89442414 		movl	%eax, 20(%esp)
 736 0557 8B45EC   		movl	-20(%ebp), %eax
 737 055a 89442410 		movl	%eax, 16(%esp)
 738 055e 8B45F0   		movl	-16(%ebp), %eax
 739 0561 8944240C 		movl	%eax, 12(%esp)
 740 0565 8B45DC   		movl	-36(%ebp), %eax
 741 0568 89442408 		movl	%eax, 8(%esp)
 742 056c 8B45E0   		movl	-32(%ebp), %eax
 743 056f 89442404 		movl	%eax, 4(%esp)
 744 0573 8B45E4   		movl	-28(%ebp), %eax
 745 0576 890424   		movl	%eax, (%esp)
 746 0579 E882FAFF 		call	_CalculateBlackPoints
 746      FF
 747              		.loc 1 178 19
 748 057e A3080000 		movl	%eax, _blackPoints+8
 748      00
 179:src/HybridBinarizer.c **** 
 180:src/HybridBinarizer.c **** 	//matrix = std::make_shared<BitMatrix>(width, height);
 181:src/HybridBinarizer.c **** 	CalculateThresholdForBlock(luminances, subWidth, subHeight, width, height, stride, matrix);
 749              		.loc 1 181 2
 750 0583 8B45D8   		movl	-40(%ebp), %eax
 751 0586 8B55F4   		movl	-12(%ebp), %edx
 752 0589 89542418 		movl	%edx, 24(%esp)
 753 058d 89442414 		movl	%eax, 20(%esp)
 754 0591 8B45EC   		movl	-20(%ebp), %eax
 755 0594 89442410 		movl	%eax, 16(%esp)
 756 0598 8B45F0   		movl	-16(%ebp), %eax
 757 059b 8944240C 		movl	%eax, 12(%esp)
 758 059f 8B45DC   		movl	-36(%ebp), %eax
 759 05a2 89442408 		movl	%eax, 8(%esp)
 760 05a6 8B45E0   		movl	-32(%ebp), %eax
 761 05a9 89442404 		movl	%eax, 4(%esp)
 762 05ad 8B45E4   		movl	-28(%ebp), %eax
 763 05b0 890424   		movl	%eax, (%esp)
 764 05b3 E8B3FDFF 		call	_CalculateThresholdForBlock
 764      FF
 182:src/HybridBinarizer.c **** }
 765              		.loc 1 182 1
 766 05b8 90       		nop
 767 05b9 C9       		leave
 768              	LCFI14:
 769              		.cfi_restore 5
 770              		.cfi_def_cfa 4, 4
 771 05ba C3       		ret
 772              		.cfi_endproc
 773              	LFE20:
GAS LISTING C:\Users\jisu8\AppData\Local\Temp\ccNqYQdE.s 			page 20


 774              		.globl	_getBlackMatrix
 776              	_getBlackMatrix:
 777              	LFB21:
 183:src/HybridBinarizer.c **** 
 184:src/HybridBinarizer.c **** BitMatrix_t * getBlackMatrix(GenericLuminanceSource_t * image)
 185:src/HybridBinarizer.c **** {
 778              		.loc 1 185 1
 779              		.cfi_startproc
 780 05bb 55       		pushl	%ebp
 781              	LCFI15:
 782              		.cfi_def_cfa_offset 8
 783              		.cfi_offset 5, -8
 784 05bc 89E5     		movl	%esp, %ebp
 785              	LCFI16:
 786              		.cfi_def_cfa_register 5
 787 05be 83EC28   		subl	$40, %esp
 186:src/HybridBinarizer.c **** 	
 187:src/HybridBinarizer.c **** 	int width = image->width;
 788              		.loc 1 187 6
 789 05c1 8B4508   		movl	8(%ebp), %eax
 790 05c4 8B400C   		movl	12(%eax), %eax
 791 05c7 8945F4   		movl	%eax, -12(%ebp)
 188:src/HybridBinarizer.c **** 	int height = image->height;
 792              		.loc 1 188 6
 793 05ca 8B4508   		movl	8(%ebp), %eax
 794 05cd 8B4010   		movl	16(%eax), %eax
 795 05d0 8945F0   		movl	%eax, -16(%ebp)
 189:src/HybridBinarizer.c **** 	matrix._width = width;
 796              		.loc 1 189 16
 797 05d3 8B45F4   		movl	-12(%ebp), %eax
 798 05d6 A3000000 		movl	%eax, _matrix
 798      00
 190:src/HybridBinarizer.c **** 	matrix._height = height;
 799              		.loc 1 190 17
 800 05db 8B45F0   		movl	-16(%ebp), %eax
 801 05de A3040000 		movl	%eax, _matrix+4
 801      00
 191:src/HybridBinarizer.c **** 	matrix._rowSize = width;
 802              		.loc 1 191 18
 803 05e3 8B45F4   		movl	-12(%ebp), %eax
 804 05e6 A3080000 		movl	%eax, _matrix+8
 804      00
 192:src/HybridBinarizer.c **** 	matrix.bits = matrix_bits;
 805              		.loc 1 192 14
 806 05eb C7050C00 		movl	$_matrix_bits, _matrix+12
 806      00000000 
 806      0000
 193:src/HybridBinarizer.c **** 	if (width >= MINIMUM_DIMENSION && height >= MINIMUM_DIMENSION) 
 807              		.loc 1 193 12
 808 05f5 B8280000 		movl	$40, %eax
 808      00
 809              		.loc 1 193 5
 810 05fa 3945F4   		cmpl	%eax, -12(%ebp)
 811 05fd 7C24     		jl	L37
 812              		.loc 1 193 43 discriminator 1
 813 05ff B8280000 		movl	$40, %eax
 813      00
GAS LISTING C:\Users\jisu8\AppData\Local\Temp\ccNqYQdE.s 			page 21


 814              		.loc 1 193 33 discriminator 1
 815 0604 3945F0   		cmpl	%eax, -16(%ebp)
 816 0607 7C1A     		jl	L37
 194:src/HybridBinarizer.c **** 	{
 195:src/HybridBinarizer.c **** 		InitBlackMatrix(image,&matrix);
 817              		.loc 1 195 3
 818 0609 C7442404 		movl	$_matrix, 4(%esp)
 818      00000000 
 819 0611 8B4508   		movl	8(%ebp), %eax
 820 0614 890424   		movl	%eax, (%esp)
 821 0617 E8B4FEFF 		call	_InitBlackMatrix
 821      FF
 196:src/HybridBinarizer.c **** 		return &matrix;
 822              		.loc 1 196 10
 823 061c B8000000 		movl	$_matrix, %eax
 823      00
 824 0621 EB0B     		jmp	L38
 825              	L37:
 197:src/HybridBinarizer.c **** 	}
 198:src/HybridBinarizer.c **** 	else 
 199:src/HybridBinarizer.c **** 	{
 200:src/HybridBinarizer.c **** 		// If the image is too small, fall back to the global histogram approach.
 201:src/HybridBinarizer.c **** 		return getBlackMatrix(image);
 826              		.loc 1 201 10
 827 0623 8B4508   		movl	8(%ebp), %eax
 828 0626 890424   		movl	%eax, (%esp)
 829 0629 E88DFFFF 		call	_getBlackMatrix
 829      FF
 830              	L38:
 202:src/HybridBinarizer.c **** 	}
 203:src/HybridBinarizer.c **** 
 204:src/HybridBinarizer.c **** }
 831              		.loc 1 204 1
 832 062e C9       		leave
 833              	LCFI17:
 834              		.cfi_restore 5
 835              		.cfi_def_cfa 4, 4
 836 062f C3       		ret
 837              		.cfi_endproc
 838              	LFE21:
 839              	Letext0:
 840              		.file 2 "D:/3.tools/mingw/mingw32/i686-w64-mingw32/include/crtdefs.h"
 841              		.file 3 "D:/3.tools/mingw/mingw32/i686-w64-mingw32/include/stdint.h"
 842              		.file 4 "D:/3.tools/mingw/mingw32/i686-w64-mingw32/include/stdio.h"
 843              		.file 5 "src/GenericLuminanceSource.h"
 844              		.file 6 "src/BitMatrix.h"
 845              		.file 7 "src/Matrix.h"
 846              		.file 8 "D:/3.tools/mingw/mingw32/i686-w64-mingw32/include/stdlib.h"
 847              		.file 9 "D:/3.tools/mingw/mingw32/i686-w64-mingw32/include/malloc.h"
 848              		.section	.debug_info,"dr"
 849              	Ldebug_info0:
 850 0000 190C0000 		.long	0xc19
 851 0004 0200     		.word	0x2
 852 0006 00000000 		.secrel32	Ldebug_abbrev0
 853 000a 04       		.byte	0x4
 854 000b 01       		.uleb128 0x1
 855 000c 474E5520 		.ascii "GNU C17 8.1.0 -mtune=generic -march=i686 -g -gdwarf-2 -O0\0"
GAS LISTING C:\Users\jisu8\AppData\Local\Temp\ccNqYQdE.s 			page 22


 855      43313720 
 855      382E312E 
 855      30202D6D 
 855      74756E65 
 856 0046 0C       		.byte	0xc
 857 0047 7372632F 		.ascii "src/HybridBinarizer.c\0"
 857      48796272 
 857      69644269 
 857      6E617269 
 857      7A65722E 
 858 005d 443A5C31 		.ascii "D:\\1.Project_workspace\\PDF_BARCODE\0"
 858      2E50726F 
 858      6A656374 
 858      5F776F72 
 858      6B737061 
 859 0080 00000000 		.long	Ltext0
 860 0084 30060000 		.long	Letext0
 861 0088 00000000 		.secrel32	Ldebug_line0
 862 008c 02       		.uleb128 0x2
 863 008d 01       		.byte	0x1
 864 008e 06       		.byte	0x6
 865 008f 63686172 		.ascii "char\0"
 865      00
 866 0094 02       		.uleb128 0x2
 867 0095 04       		.byte	0x4
 868 0096 07       		.byte	0x7
 869 0097 756E7369 		.ascii "unsigned int\0"
 869      676E6564 
 869      20696E74 
 869      00
 870 00a4 02       		.uleb128 0x2
 871 00a5 04       		.byte	0x4
 872 00a6 05       		.byte	0x5
 873 00a7 696E7400 		.ascii "int\0"
 874 00ab 03       		.uleb128 0x3
 875 00ac A4000000 		.long	0xa4
 876 00b0 04       		.uleb128 0x4
 877 00b1 77636861 		.ascii "wchar_t\0"
 877      725F7400 
 878 00b9 02       		.byte	0x2
 879 00ba 62       		.byte	0x62
 880 00bb 18       		.byte	0x18
 881 00bc C0000000 		.long	0xc0
 882 00c0 02       		.uleb128 0x2
 883 00c1 02       		.byte	0x2
 884 00c2 07       		.byte	0x7
 885 00c3 73686F72 		.ascii "short unsigned int\0"
 885      7420756E 
 885      7369676E 
 885      65642069 
 885      6E7400
 886 00d6 02       		.uleb128 0x2
 887 00d7 04       		.byte	0x4
 888 00d8 05       		.byte	0x5
 889 00d9 6C6F6E67 		.ascii "long int\0"
 889      20696E74 
 889      00
GAS LISTING C:\Users\jisu8\AppData\Local\Temp\ccNqYQdE.s 			page 23


 890 00e2 02       		.uleb128 0x2
 891 00e3 08       		.byte	0x8
 892 00e4 05       		.byte	0x5
 893 00e5 6C6F6E67 		.ascii "long long int\0"
 893      206C6F6E 
 893      6720696E 
 893      7400
 894 00f3 05       		.uleb128 0x5
 895 00f4 04       		.byte	0x4
 896 00f5 8C000000 		.long	0x8c
 897 00f9 05       		.uleb128 0x5
 898 00fa 04       		.byte	0x4
 899 00fb B0000000 		.long	0xb0
 900 00ff 05       		.uleb128 0x5
 901 0100 04       		.byte	0x4
 902 0101 A4000000 		.long	0xa4
 903 0105 02       		.uleb128 0x2
 904 0106 04       		.byte	0x4
 905 0107 07       		.byte	0x7
 906 0108 6C6F6E67 		.ascii "long unsigned int\0"
 906      20756E73 
 906      69676E65 
 906      6420696E 
 906      7400
 907 011a 02       		.uleb128 0x2
 908 011b 01       		.byte	0x1
 909 011c 08       		.byte	0x8
 910 011d 756E7369 		.ascii "unsigned char\0"
 910      676E6564 
 910      20636861 
 910      7200
 911 012b 02       		.uleb128 0x2
 912 012c 0C       		.byte	0xc
 913 012d 04       		.byte	0x4
 914 012e 6C6F6E67 		.ascii "long double\0"
 914      20646F75 
 914      626C6500 
 915 013a 02       		.uleb128 0x2
 916 013b 10       		.byte	0x10
 917 013c 04       		.byte	0x4
 918 013d 5F466C6F 		.ascii "_Float128\0"
 918      61743132 
 918      3800
 919 0147 02       		.uleb128 0x2
 920 0148 01       		.byte	0x1
 921 0149 06       		.byte	0x6
 922 014a 7369676E 		.ascii "signed char\0"
 922      65642063 
 922      68617200 
 923 0156 04       		.uleb128 0x4
 924 0157 75696E74 		.ascii "uint8_t\0"
 924      385F7400 
 925 015f 03       		.byte	0x3
 926 0160 24       		.byte	0x24
 927 0161 19       		.byte	0x19
 928 0162 1A010000 		.long	0x11a
 929 0166 03       		.uleb128 0x3
GAS LISTING C:\Users\jisu8\AppData\Local\Temp\ccNqYQdE.s 			page 24


 930 0167 56010000 		.long	0x156
 931 016b 02       		.uleb128 0x2
 932 016c 02       		.byte	0x2
 933 016d 05       		.byte	0x5
 934 016e 73686F72 		.ascii "short int\0"
 934      7420696E 
 934      7400
 935 0178 02       		.uleb128 0x2
 936 0179 08       		.byte	0x8
 937 017a 07       		.byte	0x7
 938 017b 6C6F6E67 		.ascii "long long unsigned int\0"
 938      206C6F6E 
 938      6720756E 
 938      7369676E 
 938      65642069 
 939 0192 06       		.uleb128 0x6
 940 0193 5F696F62 		.ascii "_iobuf\0"
 940      756600
 941 019a 20       		.byte	0x20
 942 019b 04       		.byte	0x4
 943 019c 1A       		.byte	0x1a
 944 019d 0A       		.byte	0xa
 945 019e 32020000 		.long	0x232
 946 01a2 07       		.uleb128 0x7
 947 01a3 5F707472 		.ascii "_ptr\0"
 947      00
 948 01a8 04       		.byte	0x4
 949 01a9 1B       		.byte	0x1b
 950 01aa 0B       		.byte	0xb
 951 01ab F3000000 		.long	0xf3
 952 01af 02       		.byte	0x2
 953 01b0 23       		.byte	0x23
 954 01b1 00       		.uleb128 0
 955 01b2 07       		.uleb128 0x7
 956 01b3 5F636E74 		.ascii "_cnt\0"
 956      00
 957 01b8 04       		.byte	0x4
 958 01b9 1C       		.byte	0x1c
 959 01ba 09       		.byte	0x9
 960 01bb A4000000 		.long	0xa4
 961 01bf 02       		.byte	0x2
 962 01c0 23       		.byte	0x23
 963 01c1 04       		.uleb128 0x4
 964 01c2 07       		.uleb128 0x7
 965 01c3 5F626173 		.ascii "_base\0"
 965      6500
 966 01c9 04       		.byte	0x4
 967 01ca 1D       		.byte	0x1d
 968 01cb 0B       		.byte	0xb
 969 01cc F3000000 		.long	0xf3
 970 01d0 02       		.byte	0x2
 971 01d1 23       		.byte	0x23
 972 01d2 08       		.uleb128 0x8
 973 01d3 07       		.uleb128 0x7
 974 01d4 5F666C61 		.ascii "_flag\0"
 974      6700
 975 01da 04       		.byte	0x4
GAS LISTING C:\Users\jisu8\AppData\Local\Temp\ccNqYQdE.s 			page 25


 976 01db 1E       		.byte	0x1e
 977 01dc 09       		.byte	0x9
 978 01dd A4000000 		.long	0xa4
 979 01e1 02       		.byte	0x2
 980 01e2 23       		.byte	0x23
 981 01e3 0C       		.uleb128 0xc
 982 01e4 07       		.uleb128 0x7
 983 01e5 5F66696C 		.ascii "_file\0"
 983      6500
 984 01eb 04       		.byte	0x4
 985 01ec 1F       		.byte	0x1f
 986 01ed 09       		.byte	0x9
 987 01ee A4000000 		.long	0xa4
 988 01f2 02       		.byte	0x2
 989 01f3 23       		.byte	0x23
 990 01f4 10       		.uleb128 0x10
 991 01f5 07       		.uleb128 0x7
 992 01f6 5F636861 		.ascii "_charbuf\0"
 992      72627566 
 992      00
 993 01ff 04       		.byte	0x4
 994 0200 20       		.byte	0x20
 995 0201 09       		.byte	0x9
 996 0202 A4000000 		.long	0xa4
 997 0206 02       		.byte	0x2
 998 0207 23       		.byte	0x23
 999 0208 14       		.uleb128 0x14
 1000 0209 07       		.uleb128 0x7
 1001 020a 5F627566 		.ascii "_bufsiz\0"
 1001      73697A00 
 1002 0212 04       		.byte	0x4
 1003 0213 21       		.byte	0x21
 1004 0214 09       		.byte	0x9
 1005 0215 A4000000 		.long	0xa4
 1006 0219 02       		.byte	0x2
 1007 021a 23       		.byte	0x23
 1008 021b 18       		.uleb128 0x18
 1009 021c 07       		.uleb128 0x7
 1010 021d 5F746D70 		.ascii "_tmpfname\0"
 1010      666E616D 
 1010      6500
 1011 0227 04       		.byte	0x4
 1012 0228 22       		.byte	0x22
 1013 0229 0B       		.byte	0xb
 1014 022a F3000000 		.long	0xf3
 1015 022e 02       		.byte	0x2
 1016 022f 23       		.byte	0x23
 1017 0230 1C       		.uleb128 0x1c
 1018 0231 00       		.byte	0
 1019 0232 04       		.uleb128 0x4
 1020 0233 46494C45 		.ascii "FILE\0"
 1020      00
 1021 0238 04       		.byte	0x4
 1022 0239 24       		.byte	0x24
 1023 023a 19       		.byte	0x19
 1024 023b 92010000 		.long	0x192
 1025 023f 08       		.uleb128 0x8
GAS LISTING C:\Users\jisu8\AppData\Local\Temp\ccNqYQdE.s 			page 26


 1026 0240 32020000 		.long	0x232
 1027 0244 4A020000 		.long	0x24a
 1028 0248 09       		.uleb128 0x9
 1029 0249 00       		.byte	0
 1030 024a 0A       		.uleb128 0xa
 1031 024b 5F696D70 		.ascii "_imp___iob\0"
 1031      5F5F5F69 
 1031      6F6200
 1032 0256 04       		.byte	0x4
 1033 0257 5C       		.byte	0x5c
 1034 0258 10       		.byte	0x10
 1035 0259 5F020000 		.long	0x25f
 1036 025d 01       		.byte	0x1
 1037 025e 01       		.byte	0x1
 1038 025f 05       		.uleb128 0x5
 1039 0260 04       		.byte	0x4
 1040 0261 3F020000 		.long	0x23f
 1041 0265 0B       		.uleb128 0xb
 1042 0266 18       		.byte	0x18
 1043 0267 05       		.byte	0x5
 1044 0268 06       		.byte	0x6
 1045 0269 09       		.byte	0x9
 1046 026a D2020000 		.long	0x2d2
 1047 026e 07       		.uleb128 0x7
 1048 026f 70697865 		.ascii "pixels\0"
 1048      6C7300
 1049 0276 05       		.byte	0x5
 1050 0277 08       		.byte	0x8
 1051 0278 15       		.byte	0x15
 1052 0279 D2020000 		.long	0x2d2
 1053 027d 02       		.byte	0x2
 1054 027e 23       		.byte	0x23
 1055 027f 00       		.uleb128 0
 1056 0280 07       		.uleb128 0x7
 1057 0281 6C656674 		.ascii "left\0"
 1057      00
 1058 0286 05       		.byte	0x5
 1059 0287 09       		.byte	0x9
 1060 0288 09       		.byte	0x9
 1061 0289 A4000000 		.long	0xa4
 1062 028d 02       		.byte	0x2
 1063 028e 23       		.byte	0x23
 1064 028f 04       		.uleb128 0x4
 1065 0290 07       		.uleb128 0x7
 1066 0291 746F7000 		.ascii "top\0"
 1067 0295 05       		.byte	0x5
 1068 0296 0A       		.byte	0xa
 1069 0297 09       		.byte	0x9
 1070 0298 A4000000 		.long	0xa4
 1071 029c 02       		.byte	0x2
 1072 029d 23       		.byte	0x23
 1073 029e 08       		.uleb128 0x8
 1074 029f 0C       		.uleb128 0xc
 1075 02a0 30000000 		.secrel32	LASF0
 1076 02a4 05       		.byte	0x5
 1077 02a5 0B       		.byte	0xb
 1078 02a6 09       		.byte	0x9
GAS LISTING C:\Users\jisu8\AppData\Local\Temp\ccNqYQdE.s 			page 27


 1079 02a7 A4000000 		.long	0xa4
 1080 02ab 02       		.byte	0x2
 1081 02ac 23       		.byte	0x23
 1082 02ad 0C       		.uleb128 0xc
 1083 02ae 0C       		.uleb128 0xc
 1084 02af 07000000 		.secrel32	LASF1
 1085 02b3 05       		.byte	0x5
 1086 02b4 0C       		.byte	0xc
 1087 02b5 09       		.byte	0x9
 1088 02b6 A4000000 		.long	0xa4
 1089 02ba 02       		.byte	0x2
 1090 02bb 23       		.byte	0x23
 1091 02bc 10       		.uleb128 0x10
 1092 02bd 07       		.uleb128 0x7
 1093 02be 726F7742 		.ascii "rowBytes\0"
 1093      79746573 
 1093      00
 1094 02c7 05       		.byte	0x5
 1095 02c8 0D       		.byte	0xd
 1096 02c9 09       		.byte	0x9
 1097 02ca A4000000 		.long	0xa4
 1098 02ce 02       		.byte	0x2
 1099 02cf 23       		.byte	0x23
 1100 02d0 14       		.uleb128 0x14
 1101 02d1 00       		.byte	0
 1102 02d2 05       		.uleb128 0x5
 1103 02d3 04       		.byte	0x4
 1104 02d4 1A010000 		.long	0x11a
 1105 02d8 04       		.uleb128 0x4
 1106 02d9 47656E65 		.ascii "GenericLuminanceSource_t\0"
 1106      7269634C 
 1106      756D696E 
 1106      616E6365 
 1106      536F7572 
 1107 02f2 05       		.byte	0x5
 1108 02f3 0E       		.byte	0xe
 1109 02f4 02       		.byte	0x2
 1110 02f5 65020000 		.long	0x265
 1111 02f9 0B       		.uleb128 0xb
 1112 02fa 10       		.byte	0x10
 1113 02fb 06       		.byte	0x6
 1114 02fc 06       		.byte	0x6
 1115 02fd 09       		.byte	0x9
 1116 02fe 4C030000 		.long	0x34c
 1117 0302 07       		.uleb128 0x7
 1118 0303 5F776964 		.ascii "_width\0"
 1118      746800
 1119 030a 06       		.byte	0x6
 1120 030b 08       		.byte	0x8
 1121 030c 06       		.byte	0x6
 1122 030d A4000000 		.long	0xa4
 1123 0311 02       		.byte	0x2
 1124 0312 23       		.byte	0x23
 1125 0313 00       		.uleb128 0
 1126 0314 07       		.uleb128 0x7
 1127 0315 5F686569 		.ascii "_height\0"
 1127      67687400 
GAS LISTING C:\Users\jisu8\AppData\Local\Temp\ccNqYQdE.s 			page 28


 1128 031d 06       		.byte	0x6
 1129 031e 09       		.byte	0x9
 1130 031f 06       		.byte	0x6
 1131 0320 A4000000 		.long	0xa4
 1132 0324 02       		.byte	0x2
 1133 0325 23       		.byte	0x23
 1134 0326 04       		.uleb128 0x4
 1135 0327 07       		.uleb128 0x7
 1136 0328 5F726F77 		.ascii "_rowSize\0"
 1136      53697A65 
 1136      00
 1137 0331 06       		.byte	0x6
 1138 0332 0A       		.byte	0xa
 1139 0333 06       		.byte	0x6
 1140 0334 A4000000 		.long	0xa4
 1141 0338 02       		.byte	0x2
 1142 0339 23       		.byte	0x23
 1143 033a 08       		.uleb128 0x8
 1144 033b 07       		.uleb128 0x7
 1145 033c 62697473 		.ascii "bits\0"
 1145      00
 1146 0341 06       		.byte	0x6
 1147 0342 0B       		.byte	0xb
 1148 0343 0C       		.byte	0xc
 1149 0344 4C030000 		.long	0x34c
 1150 0348 02       		.byte	0x2
 1151 0349 23       		.byte	0x23
 1152 034a 0C       		.uleb128 0xc
 1153 034b 00       		.byte	0
 1154 034c 05       		.uleb128 0x5
 1155 034d 04       		.byte	0x4
 1156 034e 56010000 		.long	0x156
 1157 0352 03       		.uleb128 0x3
 1158 0353 4C030000 		.long	0x34c
 1159 0357 04       		.uleb128 0x4
 1160 0358 4269744D 		.ascii "BitMatrix_t\0"
 1160      61747269 
 1160      785F7400 
 1161 0364 06       		.byte	0x6
 1162 0365 0E       		.byte	0xe
 1163 0366 02       		.byte	0x2
 1164 0367 F9020000 		.long	0x2f9
 1165 036b 0B       		.uleb128 0xb
 1166 036c 0C       		.byte	0xc
 1167 036d 07       		.byte	0x7
 1168 036e 04       		.byte	0x4
 1169 036f 09       		.byte	0x9
 1170 0370 A3030000 		.long	0x3a3
 1171 0374 0C       		.uleb128 0xc
 1172 0375 30000000 		.secrel32	LASF0
 1173 0379 07       		.byte	0x7
 1174 037a 06       		.byte	0x6
 1175 037b 06       		.byte	0x6
 1176 037c A4000000 		.long	0xa4
 1177 0380 02       		.byte	0x2
 1178 0381 23       		.byte	0x23
 1179 0382 00       		.uleb128 0
GAS LISTING C:\Users\jisu8\AppData\Local\Temp\ccNqYQdE.s 			page 29


 1180 0383 0C       		.uleb128 0xc
 1181 0384 07000000 		.secrel32	LASF1
 1182 0388 07       		.byte	0x7
 1183 0389 07       		.byte	0x7
 1184 038a 06       		.byte	0x6
 1185 038b A4000000 		.long	0xa4
 1186 038f 02       		.byte	0x2
 1187 0390 23       		.byte	0x23
 1188 0391 04       		.uleb128 0x4
 1189 0392 07       		.uleb128 0x7
 1190 0393 64617461 		.ascii "data\0"
 1190      00
 1191 0398 07       		.byte	0x7
 1192 0399 08       		.byte	0x8
 1193 039a 11       		.byte	0x11
 1194 039b A3030000 		.long	0x3a3
 1195 039f 02       		.byte	0x2
 1196 03a0 23       		.byte	0x23
 1197 03a1 08       		.uleb128 0x8
 1198 03a2 00       		.byte	0
 1199 03a3 05       		.uleb128 0x5
 1200 03a4 04       		.byte	0x4
 1201 03a5 94000000 		.long	0x94
 1202 03a9 04       		.uleb128 0x4
 1203 03aa 4D617472 		.ascii "Matrix_t\0"
 1203      69785F74 
 1203      00
 1204 03b3 07       		.byte	0x7
 1205 03b4 09       		.byte	0x9
 1206 03b5 02       		.byte	0x2
 1207 03b6 6B030000 		.long	0x36b
 1208 03ba 02       		.uleb128 0x2
 1209 03bb 08       		.byte	0x8
 1210 03bc 04       		.byte	0x4
 1211 03bd 646F7562 		.ascii "double\0"
 1211      6C6500
 1212 03c4 02       		.uleb128 0x2
 1213 03c5 04       		.byte	0x4
 1214 03c6 04       		.byte	0x4
 1215 03c7 666C6F61 		.ascii "float\0"
 1215      7400
 1216 03cd 0A       		.uleb128 0xa
 1217 03ce 5F696D70 		.ascii "_imp____mb_cur_max\0"
 1217      5F5F5F5F 
 1217      6D625F63 
 1217      75725F6D 
 1217      617800
 1218 03e1 08       		.byte	0x8
 1219 03e2 73       		.byte	0x73
 1220 03e3 10       		.byte	0x10
 1221 03e4 FF000000 		.long	0xff
 1222 03e8 01       		.byte	0x1
 1223 03e9 01       		.byte	0x1
 1224 03ea 08       		.uleb128 0x8
 1225 03eb F3000000 		.long	0xf3
 1226 03ef FA030000 		.long	0x3fa
 1227 03f3 0D       		.uleb128 0xd
GAS LISTING C:\Users\jisu8\AppData\Local\Temp\ccNqYQdE.s 			page 30


 1228 03f4 94000000 		.long	0x94
 1229 03f8 00       		.byte	0
 1230 03f9 00       		.byte	0
 1231 03fa 0A       		.uleb128 0xa
 1232 03fb 5F737973 		.ascii "_sys_errlist\0"
 1232      5F657272 
 1232      6C697374 
 1232      00
 1233 0408 08       		.byte	0x8
 1234 0409 AC       		.byte	0xac
 1235 040a 26       		.byte	0x26
 1236 040b EA030000 		.long	0x3ea
 1237 040f 01       		.byte	0x1
 1238 0410 01       		.byte	0x1
 1239 0411 0A       		.uleb128 0xa
 1240 0412 5F737973 		.ascii "_sys_nerr\0"
 1240      5F6E6572 
 1240      7200
 1241 041c 08       		.byte	0x8
 1242 041d AD       		.byte	0xad
 1243 041e 24       		.byte	0x24
 1244 041f A4000000 		.long	0xa4
 1245 0423 01       		.byte	0x1
 1246 0424 01       		.byte	0x1
 1247 0425 0E       		.uleb128 0xe
 1248 0426 5F696D70 		.ascii "_imp____argc\0"
 1248      5F5F5F5F 
 1248      61726763 
 1248      00
 1249 0433 08       		.byte	0x8
 1250 0434 1901     		.word	0x119
 1251 0436 10       		.byte	0x10
 1252 0437 FF000000 		.long	0xff
 1253 043b 01       		.byte	0x1
 1254 043c 01       		.byte	0x1
 1255 043d 0E       		.uleb128 0xe
 1256 043e 5F696D70 		.ascii "_imp____argv\0"
 1256      5F5F5F5F 
 1256      61726776 
 1256      00
 1257 044b 08       		.byte	0x8
 1258 044c 1D01     		.word	0x11d
 1259 044e 13       		.byte	0x13
 1260 044f 55040000 		.long	0x455
 1261 0453 01       		.byte	0x1
 1262 0454 01       		.byte	0x1
 1263 0455 05       		.uleb128 0x5
 1264 0456 04       		.byte	0x4
 1265 0457 5B040000 		.long	0x45b
 1266 045b 05       		.uleb128 0x5
 1267 045c 04       		.byte	0x4
 1268 045d F3000000 		.long	0xf3
 1269 0461 0E       		.uleb128 0xe
 1270 0462 5F696D70 		.ascii "_imp____wargv\0"
 1270      5F5F5F5F 
 1270      77617267 
 1270      7600
GAS LISTING C:\Users\jisu8\AppData\Local\Temp\ccNqYQdE.s 			page 31


 1271 0470 08       		.byte	0x8
 1272 0471 2101     		.word	0x121
 1273 0473 16       		.byte	0x16
 1274 0474 7A040000 		.long	0x47a
 1275 0478 01       		.byte	0x1
 1276 0479 01       		.byte	0x1
 1277 047a 05       		.uleb128 0x5
 1278 047b 04       		.byte	0x4
 1279 047c 80040000 		.long	0x480
 1280 0480 05       		.uleb128 0x5
 1281 0481 04       		.byte	0x4
 1282 0482 F9000000 		.long	0xf9
 1283 0486 0E       		.uleb128 0xe
 1284 0487 5F696D70 		.ascii "_imp___environ\0"
 1284      5F5F5F65 
 1284      6E766972 
 1284      6F6E00
 1285 0496 08       		.byte	0x8
 1286 0497 2701     		.word	0x127
 1287 0499 13       		.byte	0x13
 1288 049a 55040000 		.long	0x455
 1289 049e 01       		.byte	0x1
 1290 049f 01       		.byte	0x1
 1291 04a0 0E       		.uleb128 0xe
 1292 04a1 5F696D70 		.ascii "_imp___wenviron\0"
 1292      5F5F5F77 
 1292      656E7669 
 1292      726F6E00 
 1293 04b1 08       		.byte	0x8
 1294 04b2 2C01     		.word	0x12c
 1295 04b4 16       		.byte	0x16
 1296 04b5 7A040000 		.long	0x47a
 1297 04b9 01       		.byte	0x1
 1298 04ba 01       		.byte	0x1
 1299 04bb 0E       		.uleb128 0xe
 1300 04bc 5F696D70 		.ascii "_imp___pgmptr\0"
 1300      5F5F5F70 
 1300      676D7074 
 1300      7200
 1301 04ca 08       		.byte	0x8
 1302 04cb 3201     		.word	0x132
 1303 04cd 12       		.byte	0x12
 1304 04ce 5B040000 		.long	0x45b
 1305 04d2 01       		.byte	0x1
 1306 04d3 01       		.byte	0x1
 1307 04d4 0E       		.uleb128 0xe
 1308 04d5 5F696D70 		.ascii "_imp___wpgmptr\0"
 1308      5F5F5F77 
 1308      70676D70 
 1308      747200
 1309 04e4 08       		.byte	0x8
 1310 04e5 3701     		.word	0x137
 1311 04e7 15       		.byte	0x15
 1312 04e8 80040000 		.long	0x480
 1313 04ec 01       		.byte	0x1
 1314 04ed 01       		.byte	0x1
 1315 04ee 0E       		.uleb128 0xe
GAS LISTING C:\Users\jisu8\AppData\Local\Temp\ccNqYQdE.s 			page 32


 1316 04ef 5F696D70 		.ascii "_imp___osplatform\0"
 1316      5F5F5F6F 
 1316      73706C61 
 1316      74666F72 
 1316      6D00
 1317 0501 08       		.byte	0x8
 1318 0502 3C01     		.word	0x13c
 1319 0504 19       		.byte	0x19
 1320 0505 A3030000 		.long	0x3a3
 1321 0509 01       		.byte	0x1
 1322 050a 01       		.byte	0x1
 1323 050b 0E       		.uleb128 0xe
 1324 050c 5F696D70 		.ascii "_imp___osver\0"
 1324      5F5F5F6F 
 1324      73766572 
 1324      00
 1325 0519 08       		.byte	0x8
 1326 051a 4101     		.word	0x141
 1327 051c 19       		.byte	0x19
 1328 051d A3030000 		.long	0x3a3
 1329 0521 01       		.byte	0x1
 1330 0522 01       		.byte	0x1
 1331 0523 0E       		.uleb128 0xe
 1332 0524 5F696D70 		.ascii "_imp___winver\0"
 1332      5F5F5F77 
 1332      696E7665 
 1332      7200
 1333 0532 08       		.byte	0x8
 1334 0533 4601     		.word	0x146
 1335 0535 19       		.byte	0x19
 1336 0536 A3030000 		.long	0x3a3
 1337 053a 01       		.byte	0x1
 1338 053b 01       		.byte	0x1
 1339 053c 0E       		.uleb128 0xe
 1340 053d 5F696D70 		.ascii "_imp___winmajor\0"
 1340      5F5F5F77 
 1340      696E6D61 
 1340      6A6F7200 
 1341 054d 08       		.byte	0x8
 1342 054e 4B01     		.word	0x14b
 1343 0550 19       		.byte	0x19
 1344 0551 A3030000 		.long	0x3a3
 1345 0555 01       		.byte	0x1
 1346 0556 01       		.byte	0x1
 1347 0557 0E       		.uleb128 0xe
 1348 0558 5F696D70 		.ascii "_imp___winminor\0"
 1348      5F5F5F77 
 1348      696E6D69 
 1348      6E6F7200 
 1349 0568 08       		.byte	0x8
 1350 0569 5001     		.word	0x150
 1351 056b 19       		.byte	0x19
 1352 056c A3030000 		.long	0x3a3
 1353 0570 01       		.byte	0x1
 1354 0571 01       		.byte	0x1
 1355 0572 0A       		.uleb128 0xa
 1356 0573 5F616D62 		.ascii "_amblksiz\0"
GAS LISTING C:\Users\jisu8\AppData\Local\Temp\ccNqYQdE.s 			page 33


 1356      6C6B7369 
 1356      7A00
 1357 057d 09       		.byte	0x9
 1358 057e 35       		.byte	0x35
 1359 057f 17       		.byte	0x17
 1360 0580 94000000 		.long	0x94
 1361 0584 01       		.byte	0x1
 1362 0585 01       		.byte	0x1
 1363 0586 0F       		.uleb128 0xf
 1364 0587 626C6163 		.ascii "blackPoints\0"
 1364      6B506F69 
 1364      6E747300 
 1365 0593 01       		.byte	0x1
 1366 0594 07       		.byte	0x7
 1367 0595 0A       		.byte	0xa
 1368 0596 A9030000 		.long	0x3a9
 1369 059a 01       		.byte	0x1
 1370 059b 05       		.byte	0x5
 1371 059c 03       		.byte	0x3
 1372 059d 00000000 		.long	_blackPoints
 1373 05a1 10       		.uleb128 0x10
 1374 05a2 29000000 		.secrel32	LASF2
 1375 05a6 01       		.byte	0x1
 1376 05a7 08       		.byte	0x8
 1377 05a8 0D       		.byte	0xd
 1378 05a9 57030000 		.long	0x357
 1379 05ad 01       		.byte	0x1
 1380 05ae 05       		.byte	0x5
 1381 05af 03       		.byte	0x3
 1382 05b0 00000000 		.long	_matrix
 1383 05b4 11       		.uleb128 0x11
 1384 05b5 424C4F43 		.ascii "BLOCK_SIZE\0"
 1384      4B5F5349 
 1384      5A4500
 1385 05c0 01       		.byte	0x1
 1386 05c1 0A       		.byte	0xa
 1387 05c2 12       		.byte	0x12
 1388 05c3 AB000000 		.long	0xab
 1389 05c7 05       		.byte	0x5
 1390 05c8 03       		.byte	0x3
 1391 05c9 00000000 		.long	_BLOCK_SIZE
 1392 05cd 11       		.uleb128 0x11
 1393 05ce 4D494E49 		.ascii "MINIMUM_DIMENSION\0"
 1393      4D554D5F 
 1393      44494D45 
 1393      4E53494F 
 1393      4E00
 1394 05e0 01       		.byte	0x1
 1395 05e1 0B       		.byte	0xb
 1396 05e2 12       		.byte	0x12
 1397 05e3 AB000000 		.long	0xab
 1398 05e7 05       		.byte	0x5
 1399 05e8 03       		.byte	0x3
 1400 05e9 04000000 		.long	_MINIMUM_DIMENSION
 1401 05ed 11       		.uleb128 0x11
 1402 05ee 4D494E5F 		.ascii "MIN_DYNAMIC_RANGE\0"
 1402      44594E41 
GAS LISTING C:\Users\jisu8\AppData\Local\Temp\ccNqYQdE.s 			page 34


 1402      4D49435F 
 1402      52414E47 
 1402      4500
 1403 0600 01       		.byte	0x1
 1404 0601 0C       		.byte	0xc
 1405 0602 12       		.byte	0x12
 1406 0603 AB000000 		.long	0xab
 1407 0607 05       		.byte	0x5
 1408 0608 03       		.byte	0x3
 1409 0609 08000000 		.long	_MIN_DYNAMIC_RANGE
 1410 060d 08       		.uleb128 0x8
 1411 060e 94000000 		.long	0x94
 1412 0612 25060000 		.long	0x625
 1413 0616 12       		.uleb128 0x12
 1414 0617 94000000 		.long	0x94
 1415 061b E703     		.word	0x3e7
 1416 061d 12       		.uleb128 0x12
 1417 061e 94000000 		.long	0x94
 1418 0622 E703     		.word	0x3e7
 1419 0624 00       		.byte	0
 1420 0625 0F       		.uleb128 0xf
 1421 0626 626C6163 		.ascii "blackpoints_data\0"
 1421      6B706F69 
 1421      6E74735F 
 1421      64617461 
 1421      00
 1422 0637 01       		.byte	0x1
 1423 0638 0E       		.byte	0xe
 1424 0639 0E       		.byte	0xe
 1425 063a 0D060000 		.long	0x60d
 1426 063e 01       		.byte	0x1
 1427 063f 05       		.byte	0x5
 1428 0640 03       		.byte	0x3
 1429 0641 00000000 		.long	_blackpoints_data
 1430 0645 08       		.uleb128 0x8
 1431 0646 56010000 		.long	0x156
 1432 064a 58060000 		.long	0x658
 1433 064e 13       		.uleb128 0x13
 1434 064f 94000000 		.long	0x94
 1435 0653 EF490200 		.long	0x249ef
 1436 0657 00       		.byte	0
 1437 0658 0F       		.uleb128 0xf
 1438 0659 6D617472 		.ascii "matrix_bits\0"
 1438      69785F62 
 1438      69747300 
 1439 0665 01       		.byte	0x1
 1440 0666 0F       		.byte	0xf
 1441 0667 09       		.byte	0x9
 1442 0668 45060000 		.long	0x645
 1443 066c 01       		.byte	0x1
 1444 066d 05       		.byte	0x5
 1445 066e 03       		.byte	0x3
 1446 066f 00000000 		.long	_matrix_bits
 1447 0673 14       		.uleb128 0x14
 1448 0674 01       		.byte	0x1
 1449 0675 67657442 		.ascii "getBlackMatrix\0"
 1449      6C61636B 
GAS LISTING C:\Users\jisu8\AppData\Local\Temp\ccNqYQdE.s 			page 35


 1449      4D617472 
 1449      697800
 1450 0684 01       		.byte	0x1
 1451 0685 B8       		.byte	0xb8
 1452 0686 0F       		.byte	0xf
 1453 0687 01       		.byte	0x1
 1454 0688 CD060000 		.long	0x6cd
 1455 068c BB050000 		.long	LFB21
 1456 0690 30060000 		.long	LFE21
 1457 0694 00000000 		.secrel32	LLST5
 1458 0698 01       		.byte	0x1
 1459 0699 CD060000 		.long	0x6cd
 1460 069d 15       		.uleb128 0x15
 1461 069e 696D6167 		.ascii "image\0"
 1461      6500
 1462 06a4 01       		.byte	0x1
 1463 06a5 B8       		.byte	0xb8
 1464 06a6 39       		.byte	0x39
 1465 06a7 D3060000 		.long	0x6d3
 1466 06ab 02       		.byte	0x2
 1467 06ac 91       		.byte	0x91
 1468 06ad 00       		.sleb128 0
 1469 06ae 16       		.uleb128 0x16
 1470 06af 30000000 		.secrel32	LASF0
 1471 06b3 01       		.byte	0x1
 1472 06b4 BB       		.byte	0xbb
 1473 06b5 06       		.byte	0x6
 1474 06b6 A4000000 		.long	0xa4
 1475 06ba 02       		.byte	0x2
 1476 06bb 91       		.byte	0x91
 1477 06bc 6C       		.sleb128 -20
 1478 06bd 16       		.uleb128 0x16
 1479 06be 07000000 		.secrel32	LASF1
 1480 06c2 01       		.byte	0x1
 1481 06c3 BC       		.byte	0xbc
 1482 06c4 06       		.byte	0x6
 1483 06c5 A4000000 		.long	0xa4
 1484 06c9 02       		.byte	0x2
 1485 06ca 91       		.byte	0x91
 1486 06cb 68       		.sleb128 -24
 1487 06cc 00       		.byte	0
 1488 06cd 05       		.uleb128 0x5
 1489 06ce 04       		.byte	0x4
 1490 06cf 57030000 		.long	0x357
 1491 06d3 05       		.uleb128 0x5
 1492 06d4 04       		.byte	0x4
 1493 06d5 D8020000 		.long	0x2d8
 1494 06d9 17       		.uleb128 0x17
 1495 06da 496E6974 		.ascii "InitBlackMatrix\0"
 1495      426C6163 
 1495      6B4D6174 
 1495      72697800 
 1496 06ea 01       		.byte	0x1
 1497 06eb A7       		.byte	0xa7
 1498 06ec 0D       		.byte	0xd
 1499 06ed 01       		.byte	0x1
 1500 06ee D0040000 		.long	LFB20
GAS LISTING C:\Users\jisu8\AppData\Local\Temp\ccNqYQdE.s 			page 36


 1501 06f2 BB050000 		.long	LFE20
 1502 06f6 38000000 		.secrel32	LLST4
 1503 06fa 01       		.byte	0x1
 1504 06fb A2070000 		.long	0x7a2
 1505 06ff 15       		.uleb128 0x15
 1506 0700 736F7572 		.ascii "source\0"
 1506      636500
 1507 0707 01       		.byte	0x1
 1508 0708 A7       		.byte	0xa7
 1509 0709 38       		.byte	0x38
 1510 070a D3060000 		.long	0x6d3
 1511 070e 02       		.byte	0x2
 1512 070f 91       		.byte	0x91
 1513 0710 00       		.sleb128 0
 1514 0711 15       		.uleb128 0x15
 1515 0712 6F75744D 		.ascii "outMatrix\0"
 1515      61747269 
 1515      7800
 1516 071c 01       		.byte	0x1
 1517 071d A7       		.byte	0xa7
 1518 071e 4E       		.byte	0x4e
 1519 071f CD060000 		.long	0x6cd
 1520 0723 02       		.byte	0x2
 1521 0724 91       		.byte	0x91
 1522 0725 04       		.sleb128 4
 1523 0726 16       		.uleb128 0x16
 1524 0727 29000000 		.secrel32	LASF2
 1525 072b 01       		.byte	0x1
 1526 072c A9       		.byte	0xa9
 1527 072d 10       		.byte	0x10
 1528 072e CD060000 		.long	0x6cd
 1529 0732 02       		.byte	0x2
 1530 0733 91       		.byte	0x91
 1531 0734 6C       		.sleb128 -20
 1532 0735 16       		.uleb128 0x16
 1533 0736 30000000 		.secrel32	LASF0
 1534 073a 01       		.byte	0x1
 1535 073b AA       		.byte	0xaa
 1536 073c 06       		.byte	0x6
 1537 073d A4000000 		.long	0xa4
 1538 0741 02       		.byte	0x2
 1539 0742 91       		.byte	0x91
 1540 0743 68       		.sleb128 -24
 1541 0744 16       		.uleb128 0x16
 1542 0745 07000000 		.secrel32	LASF1
 1543 0749 01       		.byte	0x1
 1544 074a AB       		.byte	0xab
 1545 074b 06       		.byte	0x6
 1546 074c A4000000 		.long	0xa4
 1547 0750 02       		.byte	0x2
 1548 0751 91       		.byte	0x91
 1549 0752 64       		.sleb128 -28
 1550 0753 11       		.uleb128 0x11
 1551 0754 62756666 		.ascii "buffer\0"
 1551      657200
 1552 075b 01       		.byte	0x1
 1553 075c AC       		.byte	0xac
GAS LISTING C:\Users\jisu8\AppData\Local\Temp\ccNqYQdE.s 			page 37


 1554 075d 0C       		.byte	0xc
 1555 075e 4C030000 		.long	0x34c
 1556 0762 02       		.byte	0x2
 1557 0763 91       		.byte	0x91
 1558 0764 60       		.sleb128 -32
 1559 0765 16       		.uleb128 0x16
 1560 0766 00000000 		.secrel32	LASF3
 1561 076a 01       		.byte	0x1
 1562 076b AD       		.byte	0xad
 1563 076c 06       		.byte	0x6
 1564 076d A4000000 		.long	0xa4
 1565 0771 02       		.byte	0x2
 1566 0772 91       		.byte	0x91
 1567 0773 50       		.sleb128 -48
 1568 0774 16       		.uleb128 0x16
 1569 0775 36000000 		.secrel32	LASF4
 1570 0779 01       		.byte	0x1
 1571 077a AF       		.byte	0xaf
 1572 077b 0B       		.byte	0xb
 1573 077c 4C030000 		.long	0x34c
 1574 0780 02       		.byte	0x2
 1575 0781 91       		.byte	0x91
 1576 0782 5C       		.sleb128 -36
 1577 0783 16       		.uleb128 0x16
 1578 0784 20000000 		.secrel32	LASF5
 1579 0788 01       		.byte	0x1
 1580 0789 B0       		.byte	0xb0
 1581 078a 06       		.byte	0x6
 1582 078b A4000000 		.long	0xa4
 1583 078f 02       		.byte	0x2
 1584 0790 91       		.byte	0x91
 1585 0791 58       		.sleb128 -40
 1586 0792 16       		.uleb128 0x16
 1587 0793 16000000 		.secrel32	LASF6
 1588 0797 01       		.byte	0x1
 1589 0798 B1       		.byte	0xb1
 1590 0799 06       		.byte	0x6
 1591 079a A4000000 		.long	0xa4
 1592 079e 02       		.byte	0x2
 1593 079f 91       		.byte	0x91
 1594 07a0 54       		.sleb128 -44
 1595 07a1 00       		.byte	0
 1596 07a2 17       		.uleb128 0x17
 1597 07a3 43616C63 		.ascii "CalculateThresholdForBlock\0"
 1597      756C6174 
 1597      65546872 
 1597      6573686F 
 1597      6C64466F 
 1598 07be 01       		.byte	0x1
 1599 07bf 86       		.byte	0x86
 1600 07c0 0D       		.byte	0xd
 1601 07c1 01       		.byte	0x1
 1602 07c2 6B030000 		.long	LFB19
 1603 07c6 D0040000 		.long	LFE19
 1604 07ca 70000000 		.secrel32	LLST3
 1605 07ce 01       		.byte	0x1
 1606 07cf 0E090000 		.long	0x90e
GAS LISTING C:\Users\jisu8\AppData\Local\Temp\ccNqYQdE.s 			page 38


 1607 07d3 18       		.uleb128 0x18
 1608 07d4 36000000 		.secrel32	LASF4
 1609 07d8 01       		.byte	0x1
 1610 07d9 86       		.byte	0x86
 1611 07da 37       		.byte	0x37
 1612 07db 0E090000 		.long	0x90e
 1613 07df 02       		.byte	0x2
 1614 07e0 91       		.byte	0x91
 1615 07e1 00       		.sleb128 0
 1616 07e2 18       		.uleb128 0x18
 1617 07e3 20000000 		.secrel32	LASF5
 1618 07e7 01       		.byte	0x1
 1619 07e8 86       		.byte	0x86
 1620 07e9 47       		.byte	0x47
 1621 07ea A4000000 		.long	0xa4
 1622 07ee 02       		.byte	0x2
 1623 07ef 91       		.byte	0x91
 1624 07f0 04       		.sleb128 4
 1625 07f1 18       		.uleb128 0x18
 1626 07f2 16000000 		.secrel32	LASF6
 1627 07f6 01       		.byte	0x1
 1628 07f7 86       		.byte	0x86
 1629 07f8 55       		.byte	0x55
 1630 07f9 A4000000 		.long	0xa4
 1631 07fd 02       		.byte	0x2
 1632 07fe 91       		.byte	0x91
 1633 07ff 08       		.sleb128 8
 1634 0800 18       		.uleb128 0x18
 1635 0801 30000000 		.secrel32	LASF0
 1636 0805 01       		.byte	0x1
 1637 0806 86       		.byte	0x86
 1638 0807 64       		.byte	0x64
 1639 0808 A4000000 		.long	0xa4
 1640 080c 02       		.byte	0x2
 1641 080d 91       		.byte	0x91
 1642 080e 0C       		.sleb128 12
 1643 080f 18       		.uleb128 0x18
 1644 0810 07000000 		.secrel32	LASF1
 1645 0814 01       		.byte	0x1
 1646 0815 86       		.byte	0x86
 1647 0816 6F       		.byte	0x6f
 1648 0817 A4000000 		.long	0xa4
 1649 081b 02       		.byte	0x2
 1650 081c 91       		.byte	0x91
 1651 081d 10       		.sleb128 16
 1652 081e 18       		.uleb128 0x18
 1653 081f 00000000 		.secrel32	LASF3
 1654 0823 01       		.byte	0x1
 1655 0824 87       		.byte	0x87
 1656 0825 2C       		.byte	0x2c
 1657 0826 A4000000 		.long	0xa4
 1658 082a 02       		.byte	0x2
 1659 082b 91       		.byte	0x91
 1660 082c 14       		.sleb128 20
 1661 082d 18       		.uleb128 0x18
 1662 082e 29000000 		.secrel32	LASF2
 1663 0832 01       		.byte	0x1
GAS LISTING C:\Users\jisu8\AppData\Local\Temp\ccNqYQdE.s 			page 39


 1664 0833 87       		.byte	0x87
 1665 0834 42       		.byte	0x42
 1666 0835 CD060000 		.long	0x6cd
 1667 0839 02       		.byte	0x2
 1668 083a 91       		.byte	0x91
 1669 083b 18       		.sleb128 24
 1670 083c 19       		.uleb128 0x19
 1671 083d 7D030000 		.long	LBB14
 1672 0841 CD040000 		.long	LBE14
 1673 0845 11       		.uleb128 0x11
 1674 0846 7900     		.ascii "y\0"
 1675 0848 01       		.byte	0x1
 1676 0849 8B       		.byte	0x8b
 1677 084a 0B       		.byte	0xb
 1678 084b A4000000 		.long	0xa4
 1679 084f 02       		.byte	0x2
 1680 0850 91       		.byte	0x91
 1681 0851 6C       		.sleb128 -20
 1682 0852 19       		.uleb128 0x19
 1683 0853 89030000 		.long	LBB15
 1684 0857 BD040000 		.long	LBE15
 1685 085b 16       		.uleb128 0x16
 1686 085c 0E000000 		.secrel32	LASF7
 1687 0860 01       		.byte	0x1
 1688 0861 8D       		.byte	0x8d
 1689 0862 07       		.byte	0x7
 1690 0863 A4000000 		.long	0xa4
 1691 0867 02       		.byte	0x2
 1692 0868 91       		.byte	0x91
 1693 0869 58       		.sleb128 -40
 1694 086a 19       		.uleb128 0x19
 1695 086b A6030000 		.long	LBB16
 1696 086f BD040000 		.long	LBE16
 1697 0873 11       		.uleb128 0x11
 1698 0874 7800     		.ascii "x\0"
 1699 0876 01       		.byte	0x1
 1700 0877 8E       		.byte	0x8e
 1701 0878 0C       		.byte	0xc
 1702 0879 A4000000 		.long	0xa4
 1703 087d 02       		.byte	0x2
 1704 087e 91       		.byte	0x91
 1705 087f 68       		.sleb128 -24
 1706 0880 19       		.uleb128 0x19
 1707 0881 B2030000 		.long	LBB17
 1708 0885 AD040000 		.long	LBE17
 1709 0889 16       		.uleb128 0x16
 1710 088a 41000000 		.secrel32	LASF8
 1711 088e 01       		.byte	0x1
 1712 088f 90       		.byte	0x90
 1713 0890 08       		.byte	0x8
 1714 0891 A4000000 		.long	0xa4
 1715 0895 02       		.byte	0x2
 1716 0896 91       		.byte	0x91
 1717 0897 54       		.sleb128 -44
 1718 0898 11       		.uleb128 0x11
 1719 0899 6C656674 		.ascii "left\0"
 1719      00
GAS LISTING C:\Users\jisu8\AppData\Local\Temp\ccNqYQdE.s 			page 40


 1720 089e 01       		.byte	0x1
 1721 089f 91       		.byte	0x91
 1722 08a0 08       		.byte	0x8
 1723 08a1 A4000000 		.long	0xa4
 1724 08a5 02       		.byte	0x2
 1725 08a6 91       		.byte	0x91
 1726 08a7 50       		.sleb128 -48
 1727 08a8 11       		.uleb128 0x11
 1728 08a9 746F7000 		.ascii "top\0"
 1729 08ad 01       		.byte	0x1
 1730 08ae 92       		.byte	0x92
 1731 08af 08       		.byte	0x8
 1732 08b0 A4000000 		.long	0xa4
 1733 08b4 02       		.byte	0x2
 1734 08b5 91       		.byte	0x91
 1735 08b6 4C       		.sleb128 -52
 1736 08b7 11       		.uleb128 0x11
 1737 08b8 73756D00 		.ascii "sum\0"
 1738 08bc 01       		.byte	0x1
 1739 08bd 93       		.byte	0x93
 1740 08be 08       		.byte	0x8
 1741 08bf A4000000 		.long	0xa4
 1742 08c3 02       		.byte	0x2
 1743 08c4 91       		.byte	0x91
 1744 08c5 64       		.sleb128 -28
 1745 08c6 11       		.uleb128 0x11
 1746 08c7 61766572 		.ascii "average\0"
 1746      61676500 
 1747 08cf 01       		.byte	0x1
 1748 08d0 9C       		.byte	0x9c
 1749 08d1 08       		.byte	0x8
 1750 08d2 A4000000 		.long	0xa4
 1751 08d6 02       		.byte	0x2
 1752 08d7 91       		.byte	0x91
 1753 08d8 48       		.sleb128 -56
 1754 08d9 19       		.uleb128 0x19
 1755 08da 16040000 		.long	LBB18
 1756 08de 64040000 		.long	LBE18
 1757 08e2 11       		.uleb128 0x11
 1758 08e3 647900   		.ascii "dy\0"
 1759 08e6 01       		.byte	0x1
 1760 08e7 94       		.byte	0x94
 1761 08e8 0D       		.byte	0xd
 1762 08e9 A4000000 		.long	0xa4
 1763 08ed 02       		.byte	0x2
 1764 08ee 91       		.byte	0x91
 1765 08ef 60       		.sleb128 -32
 1766 08f0 19       		.uleb128 0x19
 1767 08f1 1F040000 		.long	LBB19
 1768 08f5 5A040000 		.long	LBE19
 1769 08f9 11       		.uleb128 0x11
 1770 08fa 647800   		.ascii "dx\0"
 1771 08fd 01       		.byte	0x1
 1772 08fe 96       		.byte	0x96
 1773 08ff 0E       		.byte	0xe
 1774 0900 A4000000 		.long	0xa4
 1775 0904 02       		.byte	0x2
GAS LISTING C:\Users\jisu8\AppData\Local\Temp\ccNqYQdE.s 			page 41


 1776 0905 91       		.byte	0x91
 1777 0906 5C       		.sleb128 -36
 1778 0907 00       		.byte	0
 1779 0908 00       		.byte	0
 1780 0909 00       		.byte	0
 1781 090a 00       		.byte	0
 1782 090b 00       		.byte	0
 1783 090c 00       		.byte	0
 1784 090d 00       		.byte	0
 1785 090e 05       		.uleb128 0x5
 1786 090f 04       		.byte	0x4
 1787 0910 66010000 		.long	0x166
 1788 0914 17       		.uleb128 0x17
 1789 0915 54687265 		.ascii "ThresholdBlock\0"
 1789      73686F6C 
 1789      64426C6F 
 1789      636B00
 1790 0924 01       		.byte	0x1
 1791 0925 71       		.byte	0x71
 1792 0926 0D       		.byte	0xd
 1793 0927 01       		.byte	0x1
 1794 0928 C0020000 		.long	LFB18
 1795 092c 6B030000 		.long	LFE18
 1796 0930 A8000000 		.secrel32	LLST2
 1797 0934 01       		.byte	0x1
 1798 0935 F7090000 		.long	0x9f7
 1799 0939 18       		.uleb128 0x18
 1800 093a 36000000 		.secrel32	LASF4
 1801 093e 01       		.byte	0x1
 1802 093f 71       		.byte	0x71
 1803 0940 2C       		.byte	0x2c
 1804 0941 0E090000 		.long	0x90e
 1805 0945 02       		.byte	0x2
 1806 0946 91       		.byte	0x91
 1807 0947 00       		.sleb128 0
 1808 0948 18       		.uleb128 0x18
 1809 0949 41000000 		.secrel32	LASF8
 1810 094d 01       		.byte	0x1
 1811 094e 71       		.byte	0x71
 1812 094f 3C       		.byte	0x3c
 1813 0950 A4000000 		.long	0xa4
 1814 0954 02       		.byte	0x2
 1815 0955 91       		.byte	0x91
 1816 0956 04       		.sleb128 4
 1817 0957 18       		.uleb128 0x18
 1818 0958 0E000000 		.secrel32	LASF7
 1819 095c 01       		.byte	0x1
 1820 095d 71       		.byte	0x71
 1821 095e 49       		.byte	0x49
 1822 095f A4000000 		.long	0xa4
 1823 0963 02       		.byte	0x2
 1824 0964 91       		.byte	0x91
 1825 0965 08       		.sleb128 8
 1826 0966 15       		.uleb128 0x15
 1827 0967 74687265 		.ascii "threshold\0"
 1827      73686F6C 
 1827      6400
GAS LISTING C:\Users\jisu8\AppData\Local\Temp\ccNqYQdE.s 			page 42


 1828 0971 01       		.byte	0x1
 1829 0972 71       		.byte	0x71
 1830 0973 56       		.byte	0x56
 1831 0974 A4000000 		.long	0xa4
 1832 0978 02       		.byte	0x2
 1833 0979 91       		.byte	0x91
 1834 097a 0C       		.sleb128 12
 1835 097b 18       		.uleb128 0x18
 1836 097c 00000000 		.secrel32	LASF3
 1837 0980 01       		.byte	0x1
 1838 0981 71       		.byte	0x71
 1839 0982 65       		.byte	0x65
 1840 0983 A4000000 		.long	0xa4
 1841 0987 02       		.byte	0x2
 1842 0988 91       		.byte	0x91
 1843 0989 10       		.sleb128 16
 1844 098a 18       		.uleb128 0x18
 1845 098b 29000000 		.secrel32	LASF2
 1846 098f 01       		.byte	0x1
 1847 0990 71       		.byte	0x71
 1848 0991 7B       		.byte	0x7b
 1849 0992 CD060000 		.long	0x6cd
 1850 0996 02       		.byte	0x2
 1851 0997 91       		.byte	0x91
 1852 0998 14       		.sleb128 20
 1853 0999 19       		.uleb128 0x19
 1854 099a D2020000 		.long	LBB11
 1855 099e 55030000 		.long	LBE11
 1856 09a2 11       		.uleb128 0x11
 1857 09a3 7900     		.ascii "y\0"
 1858 09a5 01       		.byte	0x1
 1859 09a6 76       		.byte	0x76
 1860 09a7 0B       		.byte	0xb
 1861 09a8 A4000000 		.long	0xa4
 1862 09ac 02       		.byte	0x2
 1863 09ad 91       		.byte	0x91
 1864 09ae 6C       		.sleb128 -20
 1865 09af 19       		.uleb128 0x19
 1866 09b0 DA020000 		.long	LBB12
 1867 09b4 42030000 		.long	LBE12
 1868 09b8 11       		.uleb128 0x11
 1869 09b9 73726300 		.ascii "src\0"
 1870 09bd 01       		.byte	0x1
 1871 09be 78       		.byte	0x78
 1872 09bf 0D       		.byte	0xd
 1873 09c0 4C030000 		.long	0x34c
 1874 09c4 02       		.byte	0x2
 1875 09c5 91       		.byte	0x91
 1876 09c6 68       		.sleb128 -24
 1877 09c7 11       		.uleb128 0x11
 1878 09c8 64737442 		.ascii "dstBegin\0"
 1878      6567696E 
 1878      00
 1879 09d1 01       		.byte	0x1
 1880 09d2 79       		.byte	0x79
 1881 09d3 13       		.byte	0x13
 1882 09d4 52030000 		.long	0x352
GAS LISTING C:\Users\jisu8\AppData\Local\Temp\ccNqYQdE.s 			page 43


 1883 09d8 02       		.byte	0x2
 1884 09d9 91       		.byte	0x91
 1885 09da 60       		.sleb128 -32
 1886 09db 19       		.uleb128 0x19
 1887 09dc 0B030000 		.long	LBB13
 1888 09e0 42030000 		.long	LBE13
 1889 09e4 11       		.uleb128 0x11
 1890 09e5 64737400 		.ascii "dst\0"
 1891 09e9 01       		.byte	0x1
 1892 09ea 7A       		.byte	0x7a
 1893 09eb 12       		.byte	0x12
 1894 09ec 4C030000 		.long	0x34c
 1895 09f0 02       		.byte	0x2
 1896 09f1 91       		.byte	0x91
 1897 09f2 64       		.sleb128 -28
 1898 09f3 00       		.byte	0
 1899 09f4 00       		.byte	0
 1900 09f5 00       		.byte	0
 1901 09f6 00       		.byte	0
 1902 09f7 1A       		.uleb128 0x1a
 1903 09f8 636C616D 		.ascii "clamp\0"
 1903      7000
 1904 09fe 01       		.byte	0x1
 1905 09ff 68       		.byte	0x68
 1906 0a00 0F       		.byte	0xf
 1907 0a01 01       		.byte	0x1
 1908 0a02 A4000000 		.long	0xa4
 1909 0a06 A4020000 		.long	LFB17
 1910 0a0a C0020000 		.long	LFE17
 1911 0a0e E0000000 		.secrel32	LLST1
 1912 0a12 01       		.byte	0x1
 1913 0a13 490A0000 		.long	0xa49
 1914 0a17 15       		.uleb128 0x15
 1915 0a18 5F5F7661 		.ascii "__val\0"
 1915      6C00
 1916 0a1e 01       		.byte	0x1
 1917 0a1f 68       		.byte	0x68
 1918 0a20 1F       		.byte	0x1f
 1919 0a21 AB000000 		.long	0xab
 1920 0a25 02       		.byte	0x2
 1921 0a26 91       		.byte	0x91
 1922 0a27 00       		.sleb128 0
 1923 0a28 15       		.uleb128 0x15
 1924 0a29 5F5F6C6F 		.ascii "__lo\0"
 1924      00
 1925 0a2e 01       		.byte	0x1
 1926 0a2f 68       		.byte	0x68
 1927 0a30 30       		.byte	0x30
 1928 0a31 AB000000 		.long	0xab
 1929 0a35 02       		.byte	0x2
 1930 0a36 91       		.byte	0x91
 1931 0a37 04       		.sleb128 4
 1932 0a38 15       		.uleb128 0x15
 1933 0a39 5F5F6869 		.ascii "__hi\0"
 1933      00
 1934 0a3e 01       		.byte	0x1
 1935 0a3f 68       		.byte	0x68
GAS LISTING C:\Users\jisu8\AppData\Local\Temp\ccNqYQdE.s 			page 44


 1936 0a40 40       		.byte	0x40
 1937 0a41 AB000000 		.long	0xab
 1938 0a45 02       		.byte	0x2
 1939 0a46 91       		.byte	0x91
 1940 0a47 08       		.sleb128 8
 1941 0a48 00       		.byte	0
 1942 0a49 1B       		.uleb128 0x1b
 1943 0a4a 43616C63 		.ascii "CalculateBlackPoints\0"
 1943      756C6174 
 1943      65426C61 
 1943      636B506F 
 1943      696E7473 
 1944 0a5f 01       		.byte	0x1
 1945 0a60 15       		.byte	0x15
 1946 0a61 0E       		.byte	0xe
 1947 0a62 01       		.byte	0x1
 1948 0a63 FF000000 		.long	0xff
 1949 0a67 00000000 		.long	LFB16
 1950 0a6b A4020000 		.long	LFE16
 1951 0a6f 18010000 		.secrel32	LLST0
 1952 0a73 01       		.byte	0x1
 1953 0a74 18       		.uleb128 0x18
 1954 0a75 36000000 		.secrel32	LASF4
 1955 0a79 01       		.byte	0x1
 1956 0a7a 15       		.byte	0x15
 1957 0a7b 32       		.byte	0x32
 1958 0a7c 0E090000 		.long	0x90e
 1959 0a80 02       		.byte	0x2
 1960 0a81 91       		.byte	0x91
 1961 0a82 00       		.sleb128 0
 1962 0a83 18       		.uleb128 0x18
 1963 0a84 20000000 		.secrel32	LASF5
 1964 0a88 01       		.byte	0x1
 1965 0a89 15       		.byte	0x15
 1966 0a8a 42       		.byte	0x42
 1967 0a8b A4000000 		.long	0xa4
 1968 0a8f 02       		.byte	0x2
 1969 0a90 91       		.byte	0x91
 1970 0a91 04       		.sleb128 4
 1971 0a92 18       		.uleb128 0x18
 1972 0a93 16000000 		.secrel32	LASF6
 1973 0a97 01       		.byte	0x1
 1974 0a98 15       		.byte	0x15
 1975 0a99 50       		.byte	0x50
 1976 0a9a A4000000 		.long	0xa4
 1977 0a9e 02       		.byte	0x2
 1978 0a9f 91       		.byte	0x91
 1979 0aa0 08       		.sleb128 8
 1980 0aa1 18       		.uleb128 0x18
 1981 0aa2 30000000 		.secrel32	LASF0
 1982 0aa6 01       		.byte	0x1
 1983 0aa7 15       		.byte	0x15
 1984 0aa8 5F       		.byte	0x5f
 1985 0aa9 A4000000 		.long	0xa4
 1986 0aad 02       		.byte	0x2
 1987 0aae 91       		.byte	0x91
 1988 0aaf 0C       		.sleb128 12
GAS LISTING C:\Users\jisu8\AppData\Local\Temp\ccNqYQdE.s 			page 45


 1989 0ab0 18       		.uleb128 0x18
 1990 0ab1 07000000 		.secrel32	LASF1
 1991 0ab5 01       		.byte	0x1
 1992 0ab6 15       		.byte	0x15
 1993 0ab7 6A       		.byte	0x6a
 1994 0ab8 A4000000 		.long	0xa4
 1995 0abc 02       		.byte	0x2
 1996 0abd 91       		.byte	0x91
 1997 0abe 10       		.sleb128 16
 1998 0abf 18       		.uleb128 0x18
 1999 0ac0 00000000 		.secrel32	LASF3
 2000 0ac4 01       		.byte	0x1
 2001 0ac5 15       		.byte	0x15
 2002 0ac6 76       		.byte	0x76
 2003 0ac7 A4000000 		.long	0xa4
 2004 0acb 02       		.byte	0x2
 2005 0acc 91       		.byte	0x91
 2006 0acd 14       		.sleb128 20
 2007 0ace 19       		.uleb128 0x19
 2008 0acf 46000000 		.long	LBB2
 2009 0ad3 99020000 		.long	LBE2
 2010 0ad7 11       		.uleb128 0x11
 2011 0ad8 7900     		.ascii "y\0"
 2012 0ada 01       		.byte	0x1
 2013 0adb 1E       		.byte	0x1e
 2014 0adc 0B       		.byte	0xb
 2015 0add A4000000 		.long	0xa4
 2016 0ae1 02       		.byte	0x2
 2017 0ae2 91       		.byte	0x91
 2018 0ae3 6C       		.sleb128 -20
 2019 0ae4 19       		.uleb128 0x19
 2020 0ae5 52000000 		.long	LBB3
 2021 0ae9 89020000 		.long	LBE3
 2022 0aed 16       		.uleb128 0x16
 2023 0aee 0E000000 		.secrel32	LASF7
 2024 0af2 01       		.byte	0x1
 2025 0af3 20       		.byte	0x20
 2026 0af4 07       		.byte	0x7
 2027 0af5 A4000000 		.long	0xa4
 2028 0af9 02       		.byte	0x2
 2029 0afa 91       		.byte	0x91
 2030 0afb 48       		.sleb128 -56
 2031 0afc 19       		.uleb128 0x19
 2032 0afd 6F000000 		.long	LBB4
 2033 0b01 89020000 		.long	LBE4
 2034 0b05 11       		.uleb128 0x11
 2035 0b06 7800     		.ascii "x\0"
 2036 0b08 01       		.byte	0x1
 2037 0b09 21       		.byte	0x21
 2038 0b0a 0C       		.byte	0xc
 2039 0b0b A4000000 		.long	0xa4
 2040 0b0f 02       		.byte	0x2
 2041 0b10 91       		.byte	0x91
 2042 0b11 68       		.sleb128 -24
 2043 0b12 19       		.uleb128 0x19
 2044 0b13 7B000000 		.long	LBB5
 2045 0b17 79020000 		.long	LBE5
GAS LISTING C:\Users\jisu8\AppData\Local\Temp\ccNqYQdE.s 			page 46


 2046 0b1b 16       		.uleb128 0x16
 2047 0b1c 41000000 		.secrel32	LASF8
 2048 0b20 01       		.byte	0x1
 2049 0b21 23       		.byte	0x23
 2050 0b22 08       		.byte	0x8
 2051 0b23 A4000000 		.long	0xa4
 2052 0b27 02       		.byte	0x2
 2053 0b28 91       		.byte	0x91
 2054 0b29 44       		.sleb128 -60
 2055 0b2a 11       		.uleb128 0x11
 2056 0b2b 73756D00 		.ascii "sum\0"
 2057 0b2f 01       		.byte	0x1
 2058 0b30 24       		.byte	0x24
 2059 0b31 08       		.byte	0x8
 2060 0b32 A4000000 		.long	0xa4
 2061 0b36 02       		.byte	0x2
 2062 0b37 91       		.byte	0x91
 2063 0b38 64       		.sleb128 -28
 2064 0b39 11       		.uleb128 0x11
 2065 0b3a 6D696E00 		.ascii "min\0"
 2066 0b3e 01       		.byte	0x1
 2067 0b3f 25       		.byte	0x25
 2068 0b40 0C       		.byte	0xc
 2069 0b41 56010000 		.long	0x156
 2070 0b45 02       		.byte	0x2
 2071 0b46 91       		.byte	0x91
 2072 0b47 63       		.sleb128 -29
 2073 0b48 11       		.uleb128 0x11
 2074 0b49 6D617800 		.ascii "max\0"
 2075 0b4d 01       		.byte	0x1
 2076 0b4e 26       		.byte	0x26
 2077 0b4f 0C       		.byte	0xc
 2078 0b50 56010000 		.long	0x156
 2079 0b54 02       		.byte	0x2
 2080 0b55 91       		.byte	0x91
 2081 0b56 62       		.sleb128 -30
 2082 0b57 11       		.uleb128 0x11
 2083 0b58 61766572 		.ascii "average\0"
 2083      61676500 
 2084 0b60 01       		.byte	0x1
 2085 0b61 3F       		.byte	0x3f
 2086 0b62 08       		.byte	0x8
 2087 0b63 A4000000 		.long	0xa4
 2088 0b67 02       		.byte	0x2
 2089 0b68 91       		.byte	0x91
 2090 0b69 4C       		.sleb128 -52
 2091 0b6a 1C       		.uleb128 0x1c
 2092 0b6b A7000000 		.long	LBB6
 2093 0b6f 95010000 		.long	LBE6
 2094 0b73 E70B0000 		.long	0xbe7
 2095 0b77 11       		.uleb128 0x11
 2096 0b78 797900   		.ascii "yy\0"
 2097 0b7b 01       		.byte	0x1
 2098 0b7c 27       		.byte	0x27
 2099 0b7d 0D       		.byte	0xd
 2100 0b7e A4000000 		.long	0xa4
 2101 0b82 02       		.byte	0x2
GAS LISTING C:\Users\jisu8\AppData\Local\Temp\ccNqYQdE.s 			page 47


 2102 0b83 91       		.byte	0x91
 2103 0b84 5C       		.sleb128 -36
 2104 0b85 11       		.uleb128 0x11
 2105 0b86 6F666673 		.ascii "offset\0"
 2105      657400
 2106 0b8d 01       		.byte	0x1
 2107 0b8e 27       		.byte	0x27
 2108 0b8f 15       		.byte	0x15
 2109 0b90 A4000000 		.long	0xa4
 2110 0b94 02       		.byte	0x2
 2111 0b95 91       		.byte	0x91
 2112 0b96 58       		.sleb128 -40
 2113 0b97 1C       		.uleb128 0x1c
 2114 0b98 C4000000 		.long	LBB7
 2115 0b9c 19010000 		.long	LBE7
 2116 0ba0 CE0B0000 		.long	0xbce
 2117 0ba4 11       		.uleb128 0x11
 2118 0ba5 787800   		.ascii "xx\0"
 2119 0ba8 01       		.byte	0x1
 2120 0ba9 29       		.byte	0x29
 2121 0baa 0E       		.byte	0xe
 2122 0bab A4000000 		.long	0xa4
 2123 0baf 02       		.byte	0x2
 2124 0bb0 91       		.byte	0x91
 2125 0bb1 54       		.sleb128 -44
 2126 0bb2 19       		.uleb128 0x19
 2127 0bb3 CD000000 		.long	LBB8
 2128 0bb7 0B010000 		.long	LBE8
 2129 0bbb 11       		.uleb128 0x11
 2130 0bbc 70697865 		.ascii "pixel\0"
 2130      6C00
 2131 0bc2 01       		.byte	0x1
 2132 0bc3 2B       		.byte	0x2b
 2133 0bc4 0E       		.byte	0xe
 2134 0bc5 56010000 		.long	0x156
 2135 0bc9 02       		.byte	0x2
 2136 0bca 91       		.byte	0x91
 2137 0bcb 43       		.sleb128 -61
 2138 0bcc 00       		.byte	0
 2139 0bcd 00       		.byte	0
 2140 0bce 19       		.uleb128 0x19
 2141 0bcf 3A010000 		.long	LBB9
 2142 0bd3 69010000 		.long	LBE9
 2143 0bd7 11       		.uleb128 0x11
 2144 0bd8 787800   		.ascii "xx\0"
 2145 0bdb 01       		.byte	0x1
 2146 0bdc 36       		.byte	0x36
 2147 0bdd 10       		.byte	0x10
 2148 0bde A4000000 		.long	0xa4
 2149 0be2 02       		.byte	0x2
 2150 0be3 91       		.byte	0x91
 2151 0be4 50       		.sleb128 -48
 2152 0be5 00       		.byte	0
 2153 0be6 00       		.byte	0
 2154 0be7 19       		.uleb128 0x19
 2155 0be8 DA010000 		.long	LBB10
 2156 0bec 40020000 		.long	LBE10
GAS LISTING C:\Users\jisu8\AppData\Local\Temp\ccNqYQdE.s 			page 48


 2157 0bf0 11       		.uleb128 0x11
 2158 0bf1 61766572 		.ascii "averageNeighborBlackPoint\0"
 2158      6167654E 
 2158      65696768 
 2158      626F7242 
 2158      6C61636B 
 2159 0c0b 01       		.byte	0x1
 2160 0c0c 53       		.byte	0x53
 2161 0c0d 0A       		.byte	0xa
 2162 0c0e A4000000 		.long	0xa4
 2163 0c12 03       		.byte	0x3
 2164 0c13 91       		.byte	0x91
 2165 0c14 BC7F     		.sleb128 -68
 2166 0c16 00       		.byte	0
 2167 0c17 00       		.byte	0
 2168 0c18 00       		.byte	0
 2169 0c19 00       		.byte	0
 2170 0c1a 00       		.byte	0
 2171 0c1b 00       		.byte	0
 2172 0c1c 00       		.byte	0
 2173              		.section	.debug_abbrev,"dr"
 2174              	Ldebug_abbrev0:
 2175 0000 01       		.uleb128 0x1
 2176 0001 11       		.uleb128 0x11
 2177 0002 01       		.byte	0x1
 2178 0003 25       		.uleb128 0x25
 2179 0004 08       		.uleb128 0x8
 2180 0005 13       		.uleb128 0x13
 2181 0006 0B       		.uleb128 0xb
 2182 0007 03       		.uleb128 0x3
 2183 0008 08       		.uleb128 0x8
 2184 0009 1B       		.uleb128 0x1b
 2185 000a 08       		.uleb128 0x8
 2186 000b 11       		.uleb128 0x11
 2187 000c 01       		.uleb128 0x1
 2188 000d 12       		.uleb128 0x12
 2189 000e 01       		.uleb128 0x1
 2190 000f 10       		.uleb128 0x10
 2191 0010 06       		.uleb128 0x6
 2192 0011 00       		.byte	0
 2193 0012 00       		.byte	0
 2194 0013 02       		.uleb128 0x2
 2195 0014 24       		.uleb128 0x24
 2196 0015 00       		.byte	0
 2197 0016 0B       		.uleb128 0xb
 2198 0017 0B       		.uleb128 0xb
 2199 0018 3E       		.uleb128 0x3e
 2200 0019 0B       		.uleb128 0xb
 2201 001a 03       		.uleb128 0x3
 2202 001b 08       		.uleb128 0x8
 2203 001c 00       		.byte	0
 2204 001d 00       		.byte	0
 2205 001e 03       		.uleb128 0x3
 2206 001f 26       		.uleb128 0x26
 2207 0020 00       		.byte	0
 2208 0021 49       		.uleb128 0x49
 2209 0022 13       		.uleb128 0x13
GAS LISTING C:\Users\jisu8\AppData\Local\Temp\ccNqYQdE.s 			page 49


 2210 0023 00       		.byte	0
 2211 0024 00       		.byte	0
 2212 0025 04       		.uleb128 0x4
 2213 0026 16       		.uleb128 0x16
 2214 0027 00       		.byte	0
 2215 0028 03       		.uleb128 0x3
 2216 0029 08       		.uleb128 0x8
 2217 002a 3A       		.uleb128 0x3a
 2218 002b 0B       		.uleb128 0xb
 2219 002c 3B       		.uleb128 0x3b
 2220 002d 0B       		.uleb128 0xb
 2221 002e 39       		.uleb128 0x39
 2222 002f 0B       		.uleb128 0xb
 2223 0030 49       		.uleb128 0x49
 2224 0031 13       		.uleb128 0x13
 2225 0032 00       		.byte	0
 2226 0033 00       		.byte	0
 2227 0034 05       		.uleb128 0x5
 2228 0035 0F       		.uleb128 0xf
 2229 0036 00       		.byte	0
 2230 0037 0B       		.uleb128 0xb
 2231 0038 0B       		.uleb128 0xb
 2232 0039 49       		.uleb128 0x49
 2233 003a 13       		.uleb128 0x13
 2234 003b 00       		.byte	0
 2235 003c 00       		.byte	0
 2236 003d 06       		.uleb128 0x6
 2237 003e 13       		.uleb128 0x13
 2238 003f 01       		.byte	0x1
 2239 0040 03       		.uleb128 0x3
 2240 0041 08       		.uleb128 0x8
 2241 0042 0B       		.uleb128 0xb
 2242 0043 0B       		.uleb128 0xb
 2243 0044 3A       		.uleb128 0x3a
 2244 0045 0B       		.uleb128 0xb
 2245 0046 3B       		.uleb128 0x3b
 2246 0047 0B       		.uleb128 0xb
 2247 0048 39       		.uleb128 0x39
 2248 0049 0B       		.uleb128 0xb
 2249 004a 01       		.uleb128 0x1
 2250 004b 13       		.uleb128 0x13
 2251 004c 00       		.byte	0
 2252 004d 00       		.byte	0
 2253 004e 07       		.uleb128 0x7
 2254 004f 0D       		.uleb128 0xd
 2255 0050 00       		.byte	0
 2256 0051 03       		.uleb128 0x3
 2257 0052 08       		.uleb128 0x8
 2258 0053 3A       		.uleb128 0x3a
 2259 0054 0B       		.uleb128 0xb
 2260 0055 3B       		.uleb128 0x3b
 2261 0056 0B       		.uleb128 0xb
 2262 0057 39       		.uleb128 0x39
 2263 0058 0B       		.uleb128 0xb
 2264 0059 49       		.uleb128 0x49
 2265 005a 13       		.uleb128 0x13
 2266 005b 38       		.uleb128 0x38
GAS LISTING C:\Users\jisu8\AppData\Local\Temp\ccNqYQdE.s 			page 50


 2267 005c 0A       		.uleb128 0xa
 2268 005d 00       		.byte	0
 2269 005e 00       		.byte	0
 2270 005f 08       		.uleb128 0x8
 2271 0060 01       		.uleb128 0x1
 2272 0061 01       		.byte	0x1
 2273 0062 49       		.uleb128 0x49
 2274 0063 13       		.uleb128 0x13
 2275 0064 01       		.uleb128 0x1
 2276 0065 13       		.uleb128 0x13
 2277 0066 00       		.byte	0
 2278 0067 00       		.byte	0
 2279 0068 09       		.uleb128 0x9
 2280 0069 21       		.uleb128 0x21
 2281 006a 00       		.byte	0
 2282 006b 00       		.byte	0
 2283 006c 00       		.byte	0
 2284 006d 0A       		.uleb128 0xa
 2285 006e 34       		.uleb128 0x34
 2286 006f 00       		.byte	0
 2287 0070 03       		.uleb128 0x3
 2288 0071 08       		.uleb128 0x8
 2289 0072 3A       		.uleb128 0x3a
 2290 0073 0B       		.uleb128 0xb
 2291 0074 3B       		.uleb128 0x3b
 2292 0075 0B       		.uleb128 0xb
 2293 0076 39       		.uleb128 0x39
 2294 0077 0B       		.uleb128 0xb
 2295 0078 49       		.uleb128 0x49
 2296 0079 13       		.uleb128 0x13
 2297 007a 3F       		.uleb128 0x3f
 2298 007b 0C       		.uleb128 0xc
 2299 007c 3C       		.uleb128 0x3c
 2300 007d 0C       		.uleb128 0xc
 2301 007e 00       		.byte	0
 2302 007f 00       		.byte	0
 2303 0080 0B       		.uleb128 0xb
 2304 0081 13       		.uleb128 0x13
 2305 0082 01       		.byte	0x1
 2306 0083 0B       		.uleb128 0xb
 2307 0084 0B       		.uleb128 0xb
 2308 0085 3A       		.uleb128 0x3a
 2309 0086 0B       		.uleb128 0xb
 2310 0087 3B       		.uleb128 0x3b
 2311 0088 0B       		.uleb128 0xb
 2312 0089 39       		.uleb128 0x39
 2313 008a 0B       		.uleb128 0xb
 2314 008b 01       		.uleb128 0x1
 2315 008c 13       		.uleb128 0x13
 2316 008d 00       		.byte	0
 2317 008e 00       		.byte	0
 2318 008f 0C       		.uleb128 0xc
 2319 0090 0D       		.uleb128 0xd
 2320 0091 00       		.byte	0
 2321 0092 03       		.uleb128 0x3
 2322 0093 0E       		.uleb128 0xe
 2323 0094 3A       		.uleb128 0x3a
GAS LISTING C:\Users\jisu8\AppData\Local\Temp\ccNqYQdE.s 			page 51


 2324 0095 0B       		.uleb128 0xb
 2325 0096 3B       		.uleb128 0x3b
 2326 0097 0B       		.uleb128 0xb
 2327 0098 39       		.uleb128 0x39
 2328 0099 0B       		.uleb128 0xb
 2329 009a 49       		.uleb128 0x49
 2330 009b 13       		.uleb128 0x13
 2331 009c 38       		.uleb128 0x38
 2332 009d 0A       		.uleb128 0xa
 2333 009e 00       		.byte	0
 2334 009f 00       		.byte	0
 2335 00a0 0D       		.uleb128 0xd
 2336 00a1 21       		.uleb128 0x21
 2337 00a2 00       		.byte	0
 2338 00a3 49       		.uleb128 0x49
 2339 00a4 13       		.uleb128 0x13
 2340 00a5 2F       		.uleb128 0x2f
 2341 00a6 0B       		.uleb128 0xb
 2342 00a7 00       		.byte	0
 2343 00a8 00       		.byte	0
 2344 00a9 0E       		.uleb128 0xe
 2345 00aa 34       		.uleb128 0x34
 2346 00ab 00       		.byte	0
 2347 00ac 03       		.uleb128 0x3
 2348 00ad 08       		.uleb128 0x8
 2349 00ae 3A       		.uleb128 0x3a
 2350 00af 0B       		.uleb128 0xb
 2351 00b0 3B       		.uleb128 0x3b
 2352 00b1 05       		.uleb128 0x5
 2353 00b2 39       		.uleb128 0x39
 2354 00b3 0B       		.uleb128 0xb
 2355 00b4 49       		.uleb128 0x49
 2356 00b5 13       		.uleb128 0x13
 2357 00b6 3F       		.uleb128 0x3f
 2358 00b7 0C       		.uleb128 0xc
 2359 00b8 3C       		.uleb128 0x3c
 2360 00b9 0C       		.uleb128 0xc
 2361 00ba 00       		.byte	0
 2362 00bb 00       		.byte	0
 2363 00bc 0F       		.uleb128 0xf
 2364 00bd 34       		.uleb128 0x34
 2365 00be 00       		.byte	0
 2366 00bf 03       		.uleb128 0x3
 2367 00c0 08       		.uleb128 0x8
 2368 00c1 3A       		.uleb128 0x3a
 2369 00c2 0B       		.uleb128 0xb
 2370 00c3 3B       		.uleb128 0x3b
 2371 00c4 0B       		.uleb128 0xb
 2372 00c5 39       		.uleb128 0x39
 2373 00c6 0B       		.uleb128 0xb
 2374 00c7 49       		.uleb128 0x49
 2375 00c8 13       		.uleb128 0x13
 2376 00c9 3F       		.uleb128 0x3f
 2377 00ca 0C       		.uleb128 0xc
 2378 00cb 02       		.uleb128 0x2
 2379 00cc 0A       		.uleb128 0xa
 2380 00cd 00       		.byte	0
GAS LISTING C:\Users\jisu8\AppData\Local\Temp\ccNqYQdE.s 			page 52


 2381 00ce 00       		.byte	0
 2382 00cf 10       		.uleb128 0x10
 2383 00d0 34       		.uleb128 0x34
 2384 00d1 00       		.byte	0
 2385 00d2 03       		.uleb128 0x3
 2386 00d3 0E       		.uleb128 0xe
 2387 00d4 3A       		.uleb128 0x3a
 2388 00d5 0B       		.uleb128 0xb
 2389 00d6 3B       		.uleb128 0x3b
 2390 00d7 0B       		.uleb128 0xb
 2391 00d8 39       		.uleb128 0x39
 2392 00d9 0B       		.uleb128 0xb
 2393 00da 49       		.uleb128 0x49
 2394 00db 13       		.uleb128 0x13
 2395 00dc 3F       		.uleb128 0x3f
 2396 00dd 0C       		.uleb128 0xc
 2397 00de 02       		.uleb128 0x2
 2398 00df 0A       		.uleb128 0xa
 2399 00e0 00       		.byte	0
 2400 00e1 00       		.byte	0
 2401 00e2 11       		.uleb128 0x11
 2402 00e3 34       		.uleb128 0x34
 2403 00e4 00       		.byte	0
 2404 00e5 03       		.uleb128 0x3
 2405 00e6 08       		.uleb128 0x8
 2406 00e7 3A       		.uleb128 0x3a
 2407 00e8 0B       		.uleb128 0xb
 2408 00e9 3B       		.uleb128 0x3b
 2409 00ea 0B       		.uleb128 0xb
 2410 00eb 39       		.uleb128 0x39
 2411 00ec 0B       		.uleb128 0xb
 2412 00ed 49       		.uleb128 0x49
 2413 00ee 13       		.uleb128 0x13
 2414 00ef 02       		.uleb128 0x2
 2415 00f0 0A       		.uleb128 0xa
 2416 00f1 00       		.byte	0
 2417 00f2 00       		.byte	0
 2418 00f3 12       		.uleb128 0x12
 2419 00f4 21       		.uleb128 0x21
 2420 00f5 00       		.byte	0
 2421 00f6 49       		.uleb128 0x49
 2422 00f7 13       		.uleb128 0x13
 2423 00f8 2F       		.uleb128 0x2f
 2424 00f9 05       		.uleb128 0x5
 2425 00fa 00       		.byte	0
 2426 00fb 00       		.byte	0
 2427 00fc 13       		.uleb128 0x13
 2428 00fd 21       		.uleb128 0x21
 2429 00fe 00       		.byte	0
 2430 00ff 49       		.uleb128 0x49
 2431 0100 13       		.uleb128 0x13
 2432 0101 2F       		.uleb128 0x2f
 2433 0102 06       		.uleb128 0x6
 2434 0103 00       		.byte	0
 2435 0104 00       		.byte	0
 2436 0105 14       		.uleb128 0x14
 2437 0106 2E       		.uleb128 0x2e
GAS LISTING C:\Users\jisu8\AppData\Local\Temp\ccNqYQdE.s 			page 53


 2438 0107 01       		.byte	0x1
 2439 0108 3F       		.uleb128 0x3f
 2440 0109 0C       		.uleb128 0xc
 2441 010a 03       		.uleb128 0x3
 2442 010b 08       		.uleb128 0x8
 2443 010c 3A       		.uleb128 0x3a
 2444 010d 0B       		.uleb128 0xb
 2445 010e 3B       		.uleb128 0x3b
 2446 010f 0B       		.uleb128 0xb
 2447 0110 39       		.uleb128 0x39
 2448 0111 0B       		.uleb128 0xb
 2449 0112 27       		.uleb128 0x27
 2450 0113 0C       		.uleb128 0xc
 2451 0114 49       		.uleb128 0x49
 2452 0115 13       		.uleb128 0x13
 2453 0116 11       		.uleb128 0x11
 2454 0117 01       		.uleb128 0x1
 2455 0118 12       		.uleb128 0x12
 2456 0119 01       		.uleb128 0x1
 2457 011a 40       		.uleb128 0x40
 2458 011b 06       		.uleb128 0x6
 2459 011c 9642     		.uleb128 0x2116
 2460 011e 0C       		.uleb128 0xc
 2461 011f 01       		.uleb128 0x1
 2462 0120 13       		.uleb128 0x13
 2463 0121 00       		.byte	0
 2464 0122 00       		.byte	0
 2465 0123 15       		.uleb128 0x15
 2466 0124 05       		.uleb128 0x5
 2467 0125 00       		.byte	0
 2468 0126 03       		.uleb128 0x3
 2469 0127 08       		.uleb128 0x8
 2470 0128 3A       		.uleb128 0x3a
 2471 0129 0B       		.uleb128 0xb
 2472 012a 3B       		.uleb128 0x3b
 2473 012b 0B       		.uleb128 0xb
 2474 012c 39       		.uleb128 0x39
 2475 012d 0B       		.uleb128 0xb
 2476 012e 49       		.uleb128 0x49
 2477 012f 13       		.uleb128 0x13
 2478 0130 02       		.uleb128 0x2
 2479 0131 0A       		.uleb128 0xa
 2480 0132 00       		.byte	0
 2481 0133 00       		.byte	0
 2482 0134 16       		.uleb128 0x16
 2483 0135 34       		.uleb128 0x34
 2484 0136 00       		.byte	0
 2485 0137 03       		.uleb128 0x3
 2486 0138 0E       		.uleb128 0xe
 2487 0139 3A       		.uleb128 0x3a
 2488 013a 0B       		.uleb128 0xb
 2489 013b 3B       		.uleb128 0x3b
 2490 013c 0B       		.uleb128 0xb
 2491 013d 39       		.uleb128 0x39
 2492 013e 0B       		.uleb128 0xb
 2493 013f 49       		.uleb128 0x49
 2494 0140 13       		.uleb128 0x13
GAS LISTING C:\Users\jisu8\AppData\Local\Temp\ccNqYQdE.s 			page 54


 2495 0141 02       		.uleb128 0x2
 2496 0142 0A       		.uleb128 0xa
 2497 0143 00       		.byte	0
 2498 0144 00       		.byte	0
 2499 0145 17       		.uleb128 0x17
 2500 0146 2E       		.uleb128 0x2e
 2501 0147 01       		.byte	0x1
 2502 0148 03       		.uleb128 0x3
 2503 0149 08       		.uleb128 0x8
 2504 014a 3A       		.uleb128 0x3a
 2505 014b 0B       		.uleb128 0xb
 2506 014c 3B       		.uleb128 0x3b
 2507 014d 0B       		.uleb128 0xb
 2508 014e 39       		.uleb128 0x39
 2509 014f 0B       		.uleb128 0xb
 2510 0150 27       		.uleb128 0x27
 2511 0151 0C       		.uleb128 0xc
 2512 0152 11       		.uleb128 0x11
 2513 0153 01       		.uleb128 0x1
 2514 0154 12       		.uleb128 0x12
 2515 0155 01       		.uleb128 0x1
 2516 0156 40       		.uleb128 0x40
 2517 0157 06       		.uleb128 0x6
 2518 0158 9642     		.uleb128 0x2116
 2519 015a 0C       		.uleb128 0xc
 2520 015b 01       		.uleb128 0x1
 2521 015c 13       		.uleb128 0x13
 2522 015d 00       		.byte	0
 2523 015e 00       		.byte	0
 2524 015f 18       		.uleb128 0x18
 2525 0160 05       		.uleb128 0x5
 2526 0161 00       		.byte	0
 2527 0162 03       		.uleb128 0x3
 2528 0163 0E       		.uleb128 0xe
 2529 0164 3A       		.uleb128 0x3a
 2530 0165 0B       		.uleb128 0xb
 2531 0166 3B       		.uleb128 0x3b
 2532 0167 0B       		.uleb128 0xb
 2533 0168 39       		.uleb128 0x39
 2534 0169 0B       		.uleb128 0xb
 2535 016a 49       		.uleb128 0x49
 2536 016b 13       		.uleb128 0x13
 2537 016c 02       		.uleb128 0x2
 2538 016d 0A       		.uleb128 0xa
 2539 016e 00       		.byte	0
 2540 016f 00       		.byte	0
 2541 0170 19       		.uleb128 0x19
 2542 0171 0B       		.uleb128 0xb
 2543 0172 01       		.byte	0x1
 2544 0173 11       		.uleb128 0x11
 2545 0174 01       		.uleb128 0x1
 2546 0175 12       		.uleb128 0x12
 2547 0176 01       		.uleb128 0x1
 2548 0177 00       		.byte	0
 2549 0178 00       		.byte	0
 2550 0179 1A       		.uleb128 0x1a
 2551 017a 2E       		.uleb128 0x2e
GAS LISTING C:\Users\jisu8\AppData\Local\Temp\ccNqYQdE.s 			page 55


 2552 017b 01       		.byte	0x1
 2553 017c 03       		.uleb128 0x3
 2554 017d 08       		.uleb128 0x8
 2555 017e 3A       		.uleb128 0x3a
 2556 017f 0B       		.uleb128 0xb
 2557 0180 3B       		.uleb128 0x3b
 2558 0181 0B       		.uleb128 0xb
 2559 0182 39       		.uleb128 0x39
 2560 0183 0B       		.uleb128 0xb
 2561 0184 27       		.uleb128 0x27
 2562 0185 0C       		.uleb128 0xc
 2563 0186 49       		.uleb128 0x49
 2564 0187 13       		.uleb128 0x13
 2565 0188 11       		.uleb128 0x11
 2566 0189 01       		.uleb128 0x1
 2567 018a 12       		.uleb128 0x12
 2568 018b 01       		.uleb128 0x1
 2569 018c 40       		.uleb128 0x40
 2570 018d 06       		.uleb128 0x6
 2571 018e 9742     		.uleb128 0x2117
 2572 0190 0C       		.uleb128 0xc
 2573 0191 01       		.uleb128 0x1
 2574 0192 13       		.uleb128 0x13
 2575 0193 00       		.byte	0
 2576 0194 00       		.byte	0
 2577 0195 1B       		.uleb128 0x1b
 2578 0196 2E       		.uleb128 0x2e
 2579 0197 01       		.byte	0x1
 2580 0198 03       		.uleb128 0x3
 2581 0199 08       		.uleb128 0x8
 2582 019a 3A       		.uleb128 0x3a
 2583 019b 0B       		.uleb128 0xb
 2584 019c 3B       		.uleb128 0x3b
 2585 019d 0B       		.uleb128 0xb
 2586 019e 39       		.uleb128 0x39
 2587 019f 0B       		.uleb128 0xb
 2588 01a0 27       		.uleb128 0x27
 2589 01a1 0C       		.uleb128 0xc
 2590 01a2 49       		.uleb128 0x49
 2591 01a3 13       		.uleb128 0x13
 2592 01a4 11       		.uleb128 0x11
 2593 01a5 01       		.uleb128 0x1
 2594 01a6 12       		.uleb128 0x12
 2595 01a7 01       		.uleb128 0x1
 2596 01a8 40       		.uleb128 0x40
 2597 01a9 06       		.uleb128 0x6
 2598 01aa 9642     		.uleb128 0x2116
 2599 01ac 0C       		.uleb128 0xc
 2600 01ad 00       		.byte	0
 2601 01ae 00       		.byte	0
 2602 01af 1C       		.uleb128 0x1c
 2603 01b0 0B       		.uleb128 0xb
 2604 01b1 01       		.byte	0x1
 2605 01b2 11       		.uleb128 0x11
 2606 01b3 01       		.uleb128 0x1
 2607 01b4 12       		.uleb128 0x12
 2608 01b5 01       		.uleb128 0x1
GAS LISTING C:\Users\jisu8\AppData\Local\Temp\ccNqYQdE.s 			page 56


 2609 01b6 01       		.uleb128 0x1
 2610 01b7 13       		.uleb128 0x13
 2611 01b8 00       		.byte	0
 2612 01b9 00       		.byte	0
 2613 01ba 00       		.byte	0
 2614              		.section	.debug_loc,"dr"
 2615              	Ldebug_loc0:
 2616              	LLST5:
 2617 0000 BB050000 		.long	LFB21-Ltext0
 2618 0004 BC050000 		.long	LCFI15-Ltext0
 2619 0008 0200     		.word	0x2
 2620 000a 74       		.byte	0x74
 2621 000b 04       		.sleb128 4
 2622 000c BC050000 		.long	LCFI15-Ltext0
 2623 0010 BE050000 		.long	LCFI16-Ltext0
 2624 0014 0200     		.word	0x2
 2625 0016 74       		.byte	0x74
 2626 0017 08       		.sleb128 8
 2627 0018 BE050000 		.long	LCFI16-Ltext0
 2628 001c 2F060000 		.long	LCFI17-Ltext0
 2629 0020 0200     		.word	0x2
 2630 0022 75       		.byte	0x75
 2631 0023 08       		.sleb128 8
 2632 0024 2F060000 		.long	LCFI17-Ltext0
 2633 0028 30060000 		.long	LFE21-Ltext0
 2634 002c 0200     		.word	0x2
 2635 002e 74       		.byte	0x74
 2636 002f 04       		.sleb128 4
 2637 0030 00000000 		.long	0
 2638 0034 00000000 		.long	0
 2639              	LLST4:
 2640 0038 D0040000 		.long	LFB20-Ltext0
 2641 003c D1040000 		.long	LCFI12-Ltext0
 2642 0040 0200     		.word	0x2
 2643 0042 74       		.byte	0x74
 2644 0043 04       		.sleb128 4
 2645 0044 D1040000 		.long	LCFI12-Ltext0
 2646 0048 D3040000 		.long	LCFI13-Ltext0
 2647 004c 0200     		.word	0x2
 2648 004e 74       		.byte	0x74
 2649 004f 08       		.sleb128 8
 2650 0050 D3040000 		.long	LCFI13-Ltext0
 2651 0054 BA050000 		.long	LCFI14-Ltext0
 2652 0058 0200     		.word	0x2
 2653 005a 75       		.byte	0x75
 2654 005b 08       		.sleb128 8
 2655 005c BA050000 		.long	LCFI14-Ltext0
 2656 0060 BB050000 		.long	LFE20-Ltext0
 2657 0064 0200     		.word	0x2
 2658 0066 74       		.byte	0x74
 2659 0067 04       		.sleb128 4
 2660 0068 00000000 		.long	0
 2661 006c 00000000 		.long	0
 2662              	LLST3:
 2663 0070 6B030000 		.long	LFB19-Ltext0
 2664 0074 6C030000 		.long	LCFI9-Ltext0
 2665 0078 0200     		.word	0x2
GAS LISTING C:\Users\jisu8\AppData\Local\Temp\ccNqYQdE.s 			page 57


 2666 007a 74       		.byte	0x74
 2667 007b 04       		.sleb128 4
 2668 007c 6C030000 		.long	LCFI9-Ltext0
 2669 0080 6E030000 		.long	LCFI10-Ltext0
 2670 0084 0200     		.word	0x2
 2671 0086 74       		.byte	0x74
 2672 0087 08       		.sleb128 8
 2673 0088 6E030000 		.long	LCFI10-Ltext0
 2674 008c CF040000 		.long	LCFI11-Ltext0
 2675 0090 0200     		.word	0x2
 2676 0092 75       		.byte	0x75
 2677 0093 08       		.sleb128 8
 2678 0094 CF040000 		.long	LCFI11-Ltext0
 2679 0098 D0040000 		.long	LFE19-Ltext0
 2680 009c 0200     		.word	0x2
 2681 009e 74       		.byte	0x74
 2682 009f 04       		.sleb128 4
 2683 00a0 00000000 		.long	0
 2684 00a4 00000000 		.long	0
 2685              	LLST2:
 2686 00a8 C0020000 		.long	LFB18-Ltext0
 2687 00ac C1020000 		.long	LCFI6-Ltext0
 2688 00b0 0200     		.word	0x2
 2689 00b2 74       		.byte	0x74
 2690 00b3 04       		.sleb128 4
 2691 00b4 C1020000 		.long	LCFI6-Ltext0
 2692 00b8 C3020000 		.long	LCFI7-Ltext0
 2693 00bc 0200     		.word	0x2
 2694 00be 74       		.byte	0x74
 2695 00bf 08       		.sleb128 8
 2696 00c0 C3020000 		.long	LCFI7-Ltext0
 2697 00c4 6A030000 		.long	LCFI8-Ltext0
 2698 00c8 0200     		.word	0x2
 2699 00ca 75       		.byte	0x75
 2700 00cb 08       		.sleb128 8
 2701 00cc 6A030000 		.long	LCFI8-Ltext0
 2702 00d0 6B030000 		.long	LFE18-Ltext0
 2703 00d4 0200     		.word	0x2
 2704 00d6 74       		.byte	0x74
 2705 00d7 04       		.sleb128 4
 2706 00d8 00000000 		.long	0
 2707 00dc 00000000 		.long	0
 2708              	LLST1:
 2709 00e0 A4020000 		.long	LFB17-Ltext0
 2710 00e4 A5020000 		.long	LCFI3-Ltext0
 2711 00e8 0200     		.word	0x2
 2712 00ea 74       		.byte	0x74
 2713 00eb 04       		.sleb128 4
 2714 00ec A5020000 		.long	LCFI3-Ltext0
 2715 00f0 A7020000 		.long	LCFI4-Ltext0
 2716 00f4 0200     		.word	0x2
 2717 00f6 74       		.byte	0x74
 2718 00f7 08       		.sleb128 8
 2719 00f8 A7020000 		.long	LCFI4-Ltext0
 2720 00fc BF020000 		.long	LCFI5-Ltext0
 2721 0100 0200     		.word	0x2
 2722 0102 75       		.byte	0x75
GAS LISTING C:\Users\jisu8\AppData\Local\Temp\ccNqYQdE.s 			page 58


 2723 0103 08       		.sleb128 8
 2724 0104 BF020000 		.long	LCFI5-Ltext0
 2725 0108 C0020000 		.long	LFE17-Ltext0
 2726 010c 0200     		.word	0x2
 2727 010e 74       		.byte	0x74
 2728 010f 04       		.sleb128 4
 2729 0110 00000000 		.long	0
 2730 0114 00000000 		.long	0
 2731              	LLST0:
 2732 0118 00000000 		.long	LFB16-Ltext0
 2733 011c 01000000 		.long	LCFI0-Ltext0
 2734 0120 0200     		.word	0x2
 2735 0122 74       		.byte	0x74
 2736 0123 04       		.sleb128 4
 2737 0124 01000000 		.long	LCFI0-Ltext0
 2738 0128 03000000 		.long	LCFI1-Ltext0
 2739 012c 0200     		.word	0x2
 2740 012e 74       		.byte	0x74
 2741 012f 08       		.sleb128 8
 2742 0130 03000000 		.long	LCFI1-Ltext0
 2743 0134 A3020000 		.long	LCFI2-Ltext0
 2744 0138 0200     		.word	0x2
 2745 013a 75       		.byte	0x75
 2746 013b 08       		.sleb128 8
 2747 013c A3020000 		.long	LCFI2-Ltext0
 2748 0140 A4020000 		.long	LFE16-Ltext0
 2749 0144 0200     		.word	0x2
 2750 0146 74       		.byte	0x74
 2751 0147 04       		.sleb128 4
 2752 0148 00000000 		.long	0
 2753 014c 00000000 		.long	0
 2754              		.section	.debug_aranges,"dr"
 2755 0000 1C000000 		.long	0x1c
 2756 0004 0200     		.word	0x2
 2757 0006 00000000 		.secrel32	Ldebug_info0
 2758 000a 04       		.byte	0x4
 2759 000b 00       		.byte	0
 2760 000c 0000     		.word	0
 2761 000e 0000     		.word	0
 2762 0010 00000000 		.long	Ltext0
 2763 0014 30060000 		.long	Letext0-Ltext0
 2764 0018 00000000 		.long	0
 2765 001c 00000000 		.long	0
 2766              		.section	.debug_line,"dr"
 2767              	Ldebug_line0:
 2768 0000 F9030000 		.section	.debug_str,"dr"
 2768      0200D100 
 2768      00000101 
 2768      FB0E0D00 
 2768      01010101 
 2769              	LASF3:
 2770 0000 73747269 		.ascii "stride\0"
 2770      646500
 2771              	LASF1:
 2772 0007 68656967 		.ascii "height\0"
 2772      687400
 2773              	LASF7:
GAS LISTING C:\Users\jisu8\AppData\Local\Temp\ccNqYQdE.s 			page 59


 2774 000e 796F6666 		.ascii "yoffset\0"
 2774      73657400 
 2775              	LASF6:
 2776 0016 73756248 		.ascii "subHeight\0"
 2776      65696768 
 2776      7400
 2777              	LASF5:
 2778 0020 73756257 		.ascii "subWidth\0"
 2778      69647468 
 2778      00
 2779              	LASF2:
 2780 0029 6D617472 		.ascii "matrix\0"
 2780      697800
 2781              	LASF0:
 2782 0030 77696474 		.ascii "width\0"
 2782      6800
 2783              	LASF4:
 2784 0036 6C756D69 		.ascii "luminances\0"
 2784      6E616E63 
 2784      657300
 2785              	LASF8:
 2786 0041 786F6666 		.ascii "xoffset\0"
 2786      73657400 
 2787              		.ident	"GCC: (i686-posix-dwarf-rev0, Built by MinGW-W64 project) 8.1.0"
GAS LISTING C:\Users\jisu8\AppData\Local\Temp\ccNqYQdE.s 			page 60


DEFINED SYMBOLS
                            *ABS*:00000000 HybridBinarizer.c
                            *COM*:0000000c _blackPoints
                            *COM*:00000010 _matrix
C:\Users\jisu8\AppData\Local\Temp\ccNqYQdE.s:8      .rdata:00000000 _BLOCK_SIZE
C:\Users\jisu8\AppData\Local\Temp\ccNqYQdE.s:11     .rdata:00000004 _MINIMUM_DIMENSION
C:\Users\jisu8\AppData\Local\Temp\ccNqYQdE.s:14     .rdata:00000008 _MIN_DYNAMIC_RANGE
                            *COM*:003d0900 _blackpoints_data
                            *COM*:000249f0 _matrix_bits
C:\Users\jisu8\AppData\Local\Temp\ccNqYQdE.s:25     .text:00000000 _CalculateBlackPoints
C:\Users\jisu8\AppData\Local\Temp\ccNqYQdE.s:354    .text:000002a4 _clamp
C:\Users\jisu8\AppData\Local\Temp\ccNqYQdE.s:393    .text:000002c0 _ThresholdBlock
C:\Users\jisu8\AppData\Local\Temp\ccNqYQdE.s:506    .text:0000036b _CalculateThresholdForBlock
C:\Users\jisu8\AppData\Local\Temp\ccNqYQdE.s:672    .text:000004d0 _InitBlackMatrix
C:\Users\jisu8\AppData\Local\Temp\ccNqYQdE.s:776    .text:000005bb _getBlackMatrix

UNDEFINED SYMBOLS
_printf
_puts
_getMatrix
