GAS LISTING C:\Users\jisu8\AppData\Local\Temp\ccNqYQdE.s 			page 1


   1              		.file	"HybridBinarizer.c"
   2              		.text
   3              	Ltext0:
   4              		.comm	_blackPoints, 12, 2
   5              		.comm	_matrix, 16, 2
   6              		.section .rdata,"dr"
   7              		.align 4
   8              	_BLOCK_SIZE:
   9 0000 08000000 		.long	8
  10              		.align 4
  11              	_MINIMUM_DIMENSION:
  12 0004 28000000 		.long	40
  13              		.align 4
  14              	_MIN_DYNAMIC_RANGE:
  15 0008 18000000 		.long	24
  16              		.comm	_blackpoints_data, 4000000, 5
  17              		.comm	_matrix_bits, 150000, 5
  18              		.align 4
  19              	LC0:
  20 000c 43616C63 		.ascii "CalculateBlackPoints : subWidth=%d subHeight=%d width=%d height=%d strides=%d \12\0"
  20      756C6174 
  20      65426C61 
  20      636B506F 
  20      696E7473 
  21              	LC1:
  22 005c 583D2564 		.ascii "X=%d, Y=%d, AVG=%d\12\0"
  22      2C20593D 
  22      25642C20 
  22      4156473D 
  22      25640A00 
  23              		.text
  25              	_CalculateBlackPoints:
  26              	LFB16:
  27              		.file 1 "src/HybridBinarizer.c"
   1:src/HybridBinarizer.c **** 
   2:src/HybridBinarizer.c **** #include "HybridBinarizer.h"
   3:src/HybridBinarizer.c **** #include "BitMatrix.h"
   4:src/HybridBinarizer.c **** #include "Matrix.h"
   5:src/HybridBinarizer.c **** #include <stdlib.h>
   6:src/HybridBinarizer.c **** 
   7:src/HybridBinarizer.c **** Matrix_t blackPoints;
   8:src/HybridBinarizer.c **** BitMatrix_t matrix;
   9:src/HybridBinarizer.c **** 
  10:src/HybridBinarizer.c **** static const int BLOCK_SIZE = 8;
  11:src/HybridBinarizer.c **** static const int MINIMUM_DIMENSION = BLOCK_SIZE * 5;
  12:src/HybridBinarizer.c **** static const int MIN_DYNAMIC_RANGE = 24;
  13:src/HybridBinarizer.c **** 
  14:src/HybridBinarizer.c **** unsigned int blackpoints_data[1000][1000]; //사이즈 조정 필요
  15:src/HybridBinarizer.c **** uint8_t matrix_bits[150000];
  16:src/HybridBinarizer.c **** /**
  17:src/HybridBinarizer.c **** * Calculates the final BitMatrix once for all requests. This could be called once from the
  18:src/HybridBinarizer.c **** * constructor instead, but there are some advantages to doing it lazily, such as making
  19:src/HybridBinarizer.c **** * profiling easier, and not doing heavy lifting when callers don't expect it.
  20:src/HybridBinarizer.c **** */
  21:src/HybridBinarizer.c **** static int * CalculateBlackPoints(const uint8_t* luminances, int subWidth, int subHeight, int width
  22:src/HybridBinarizer.c **** {
  28              		.loc 1 22 1
GAS LISTING C:\Users\jisu8\AppData\Local\Temp\ccNqYQdE.s 			page 2


  29              		.cfi_startproc
  30 0000 55       		pushl	%ebp
  31              	LCFI0:
  32              		.cfi_def_cfa_offset 8
  33              		.cfi_offset 5, -8
  34 0001 89E5     		movl	%esp, %ebp
  35              	LCFI1:
  36              		.cfi_def_cfa_register 5
  37 0003 53       		pushl	%ebx
  38 0004 83EC64   		subl	$100, %esp
  39              		.cfi_offset 3, -12
  23:src/HybridBinarizer.c **** 	//#ifdef HK_DEBUG
  24:src/HybridBinarizer.c **** 	printf("CalculateBlackPoints : subWidth=%d subHeight=%d width=%d height=%d strides=%d \n",subHeigh
  40              		.loc 1 24 2
  41 0007 8B451C   		movl	28(%ebp), %eax
  42 000a 89442414 		movl	%eax, 20(%esp)
  43 000e 8B4518   		movl	24(%ebp), %eax
  44 0011 89442410 		movl	%eax, 16(%esp)
  45 0015 8B4514   		movl	20(%ebp), %eax
  46 0018 8944240C 		movl	%eax, 12(%esp)
  47 001c 8B4510   		movl	16(%ebp), %eax
  48 001f 89442408 		movl	%eax, 8(%esp)
  49 0023 8B4510   		movl	16(%ebp), %eax
  50 0026 89442404 		movl	%eax, 4(%esp)
  51 002a C704240C 		movl	$LC0, (%esp)
  51      000000
  52 0031 E8000000 		call	_printf
  52      00
  25:src/HybridBinarizer.c **** 	//#endif
  26:src/HybridBinarizer.c **** 	
  27:src/HybridBinarizer.c **** 	blackPoints.width = subWidth;
  53              		.loc 1 27 20
  54 0036 8B450C   		movl	12(%ebp), %eax
  55 0039 A3000000 		movl	%eax, _blackPoints
  55      00
  28:src/HybridBinarizer.c **** 	blackPoints.height = subHeight;
  56              		.loc 1 28 21
  57 003e 8B4510   		movl	16(%ebp), %eax
  58 0041 A3040000 		movl	%eax, _blackPoints+4
  58      00
  59              	LBB2:
  29:src/HybridBinarizer.c **** 
  30:src/HybridBinarizer.c **** 	for (int y = 0; y < subHeight; y++) 
  60              		.loc 1 30 11
  61 0046 C745F400 		movl	$0, -12(%ebp)
  61      000000
  62              		.loc 1 30 2
  63 004d E93B0200 		jmp	L2
  63      00
  64              	L15:
  65              	LBB3:
  31:src/HybridBinarizer.c **** 	{
  32:src/HybridBinarizer.c **** 		int yoffset = __min(y * BLOCK_SIZE, height - BLOCK_SIZE);
  66              		.loc 1 32 17
  67 0052 BA080000 		movl	$8, %edx
  67      00
  68 0057 8B4518   		movl	24(%ebp), %eax
GAS LISTING C:\Users\jisu8\AppData\Local\Temp\ccNqYQdE.s 			page 3


  69 005a 29D0     		subl	%edx, %eax
  70 005c 89C2     		movl	%eax, %edx
  71 005e B8080000 		movl	$8, %eax
  71      00
  72 0063 0FAF45F4 		imull	-12(%ebp), %eax
  73              		.loc 1 32 7
  74 0067 39C2     		cmpl	%eax, %edx
  75 0069 0F4EC2   		cmovle	%edx, %eax
  76 006c 8945D0   		movl	%eax, -48(%ebp)
  77              	LBB4:
  33:src/HybridBinarizer.c **** 		for (int x = 0; x < subWidth; x++) 
  78              		.loc 1 33 12
  79 006f C745F000 		movl	$0, -16(%ebp)
  79      000000
  80              		.loc 1 33 3
  81 0076 E9020200 		jmp	L3
  81      00
  82              	L14:
  83              	LBB5:
  34:src/HybridBinarizer.c **** 		{
  35:src/HybridBinarizer.c **** 			int xoffset = __min(x * BLOCK_SIZE, width - BLOCK_SIZE);
  84              		.loc 1 35 18
  85 007b BA080000 		movl	$8, %edx
  85      00
  86 0080 8B4514   		movl	20(%ebp), %eax
  87 0083 29D0     		subl	%edx, %eax
  88 0085 89C2     		movl	%eax, %edx
  89 0087 B8080000 		movl	$8, %eax
  89      00
  90 008c 0FAF45F0 		imull	-16(%ebp), %eax
  91              		.loc 1 35 8
  92 0090 39C2     		cmpl	%eax, %edx
  93 0092 0F4EC2   		cmovle	%edx, %eax
  94 0095 8945CC   		movl	%eax, -52(%ebp)
  36:src/HybridBinarizer.c **** 			int sum = 0;
  95              		.loc 1 36 8
  96 0098 C745EC00 		movl	$0, -20(%ebp)
  96      000000
  37:src/HybridBinarizer.c **** 			uint8_t min = 0xFF;
  97              		.loc 1 37 12
  98 009f C645EBFF 		movb	$-1, -21(%ebp)
  38:src/HybridBinarizer.c **** 			uint8_t max = 0;
  99              		.loc 1 38 12
 100 00a3 C645EA00 		movb	$0, -22(%ebp)
 101              	LBB6:
  39:src/HybridBinarizer.c **** 			for (int yy = 0, offset = yoffset * stride + xoffset; yy < BLOCK_SIZE; yy++, offset += stride) 
 102              		.loc 1 39 13
 103 00a7 C745E400 		movl	$0, -28(%ebp)
 103      000000
 104              		.loc 1 39 38
 105 00ae 8B45D0   		movl	-48(%ebp), %eax
 106 00b1 0FAF451C 		imull	28(%ebp), %eax
 107 00b5 89C2     		movl	%eax, %edx
 108              		.loc 1 39 21
 109 00b7 8B45CC   		movl	-52(%ebp), %eax
 110 00ba 01D0     		addl	%edx, %eax
 111 00bc 8945E0   		movl	%eax, -32(%ebp)
GAS LISTING C:\Users\jisu8\AppData\Local\Temp\ccNqYQdE.s 			page 4


 112              		.loc 1 39 4
 113 00bf E9C30000 		jmp	L4
 113      00
 114              	L12:
 115              	LBB7:
  40:src/HybridBinarizer.c **** 			{
  41:src/HybridBinarizer.c **** 				for (int xx = 0; xx < BLOCK_SIZE; xx++) 
 116              		.loc 1 41 14
 117 00c4 C745DC00 		movl	$0, -36(%ebp)
 117      000000
 118              		.loc 1 41 5
 119 00cb EB42     		jmp	L5
 120              	L6:
 121              	LBB8:
  42:src/HybridBinarizer.c **** 				{
  43:src/HybridBinarizer.c **** 					uint8_t pixel = luminances[offset + xx];
 122              		.loc 1 43 40 discriminator 3
 123 00cd 8B55E0   		movl	-32(%ebp), %edx
 124 00d0 8B45DC   		movl	-36(%ebp), %eax
 125 00d3 01D0     		addl	%edx, %eax
 126 00d5 89C2     		movl	%eax, %edx
 127              		.loc 1 43 32 discriminator 3
 128 00d7 8B4508   		movl	8(%ebp), %eax
 129 00da 01D0     		addl	%edx, %eax
 130              		.loc 1 43 14 discriminator 3
 131 00dc 0FB600   		movzbl	(%eax), %eax
 132 00df 8845CB   		movb	%al, -53(%ebp)
  44:src/HybridBinarizer.c **** 					sum += pixel;
 133              		.loc 1 44 10 discriminator 3
 134 00e2 0FB645CB 		movzbl	-53(%ebp), %eax
 135 00e6 0145EC   		addl	%eax, -20(%ebp)
  45:src/HybridBinarizer.c **** 					min = min < pixel ? min : pixel;
 136              		.loc 1 45 10 discriminator 3
 137 00e9 0FB645EB 		movzbl	-21(%ebp), %eax
 138 00ed 0FB655CB 		movzbl	-53(%ebp), %edx
 139 00f1 3845CB   		cmpb	%al, -53(%ebp)
 140 00f4 0F46C2   		cmovbe	%edx, %eax
 141 00f7 8845EB   		movb	%al, -21(%ebp)
  46:src/HybridBinarizer.c **** 					max = max > pixel ? max : pixel;
 142              		.loc 1 46 10 discriminator 3
 143 00fa 0FB645EA 		movzbl	-22(%ebp), %eax
 144 00fe 0FB655CB 		movzbl	-53(%ebp), %edx
 145 0102 3845CB   		cmpb	%al, -53(%ebp)
 146 0105 0F43C2   		cmovnb	%edx, %eax
 147 0108 8845EA   		movb	%al, -22(%ebp)
 148              	LBE8:
  41:src/HybridBinarizer.c **** 				{
 149              		.loc 1 41 41 discriminator 3
 150 010b 8345DC01 		addl	$1, -36(%ebp)
 151              	L5:
  41:src/HybridBinarizer.c **** 				{
 152              		.loc 1 41 25 discriminator 1
 153 010f B8080000 		movl	$8, %eax
 153      00
  41:src/HybridBinarizer.c **** 				{
 154              		.loc 1 41 5 discriminator 1
 155 0114 3945DC   		cmpl	%eax, -36(%ebp)
GAS LISTING C:\Users\jisu8\AppData\Local\Temp\ccNqYQdE.s 			page 5


 156 0117 7CB4     		jl	L6
 157              	LBE7:
  47:src/HybridBinarizer.c **** 				}
  48:src/HybridBinarizer.c **** 				// short-circuit min/max tests once dynamic range is met
  49:src/HybridBinarizer.c **** 				if (max - min > MIN_DYNAMIC_RANGE) 
 158              		.loc 1 49 13
 159 0119 0FB655EA 		movzbl	-22(%ebp), %edx
 160 011d 0FB645EB 		movzbl	-21(%ebp), %eax
 161 0121 29C2     		subl	%eax, %edx
 162 0123 89D0     		movl	%edx, %eax
 163              		.loc 1 49 19
 164 0125 BA180000 		movl	$24, %edx
 164      00
 165              		.loc 1 49 8
 166 012a 39D0     		cmpl	%edx, %eax
 167 012c 7E4F     		jle	L7
  50:src/HybridBinarizer.c **** 				{
  51:src/HybridBinarizer.c **** 					// finish the rest of the rows quickly
  52:src/HybridBinarizer.c **** 					for (yy++, offset += stride; yy < BLOCK_SIZE; yy++, offset += stride) 
 168              		.loc 1 52 13
 169 012e 8345E401 		addl	$1, -28(%ebp)
 170              		.loc 1 52 24
 171 0132 8B451C   		movl	28(%ebp), %eax
 172 0135 0145E0   		addl	%eax, -32(%ebp)
 173              		.loc 1 52 6
 174 0138 EB39     		jmp	L8
 175              	L11:
 176              	LBB9:
  53:src/HybridBinarizer.c **** 					{
  54:src/HybridBinarizer.c **** 						for (int xx = 0; xx < BLOCK_SIZE; xx++) 
 177              		.loc 1 54 16
 178 013a C745D800 		movl	$0, -40(%ebp)
 178      000000
 179              		.loc 1 54 7
 180 0141 EB1C     		jmp	L9
 181              	L10:
  55:src/HybridBinarizer.c **** 						{
  56:src/HybridBinarizer.c **** 							sum += luminances[offset + xx];
 182              		.loc 1 56 33 discriminator 3
 183 0143 8B55E0   		movl	-32(%ebp), %edx
 184 0146 8B45D8   		movl	-40(%ebp), %eax
 185 0149 01D0     		addl	%edx, %eax
 186 014b 89C2     		movl	%eax, %edx
 187              		.loc 1 56 25 discriminator 3
 188 014d 8B4508   		movl	8(%ebp), %eax
 189 0150 01D0     		addl	%edx, %eax
 190 0152 0FB600   		movzbl	(%eax), %eax
 191 0155 0FB6C0   		movzbl	%al, %eax
 192              		.loc 1 56 12 discriminator 3
 193 0158 0145EC   		addl	%eax, -20(%ebp)
  54:src/HybridBinarizer.c **** 						{
 194              		.loc 1 54 43 discriminator 3
 195 015b 8345D801 		addl	$1, -40(%ebp)
 196              	L9:
  54:src/HybridBinarizer.c **** 						{
 197              		.loc 1 54 27 discriminator 1
 198 015f B8080000 		movl	$8, %eax
GAS LISTING C:\Users\jisu8\AppData\Local\Temp\ccNqYQdE.s 			page 6


 198      00
  54:src/HybridBinarizer.c **** 						{
 199              		.loc 1 54 7 discriminator 1
 200 0164 3945D8   		cmpl	%eax, -40(%ebp)
 201 0167 7CDA     		jl	L10
 202              	LBE9:
  52:src/HybridBinarizer.c **** 					{
 203              		.loc 1 52 54 discriminator 2
 204 0169 8345E401 		addl	$1, -28(%ebp)
  52:src/HybridBinarizer.c **** 					{
 205              		.loc 1 52 65 discriminator 2
 206 016d 8B451C   		movl	28(%ebp), %eax
 207 0170 0145E0   		addl	%eax, -32(%ebp)
 208              	L8:
  52:src/HybridBinarizer.c **** 					{
 209              		.loc 1 52 38 discriminator 1
 210 0173 B8080000 		movl	$8, %eax
 210      00
  52:src/HybridBinarizer.c **** 					{
 211              		.loc 1 52 6 discriminator 1
 212 0178 3945E4   		cmpl	%eax, -28(%ebp)
 213 017b 7CBD     		jl	L11
 214              	L7:
  39:src/HybridBinarizer.c **** 			{
 215              		.loc 1 39 77 discriminator 2
 216 017d 8345E401 		addl	$1, -28(%ebp)
  39:src/HybridBinarizer.c **** 			{
 217              		.loc 1 39 88 discriminator 2
 218 0181 8B451C   		movl	28(%ebp), %eax
 219 0184 0145E0   		addl	%eax, -32(%ebp)
 220              	L4:
  39:src/HybridBinarizer.c **** 			{
 221              		.loc 1 39 61 discriminator 1
 222 0187 B8080000 		movl	$8, %eax
 222      00
  39:src/HybridBinarizer.c **** 			{
 223              		.loc 1 39 4 discriminator 1
 224 018c 3945E4   		cmpl	%eax, -28(%ebp)
 225 018f 0F8C2FFF 		jl	L12
 225      FFFF
 226              	LBE6:
  57:src/HybridBinarizer.c **** 						}
  58:src/HybridBinarizer.c **** 					}
  59:src/HybridBinarizer.c **** 				}
  60:src/HybridBinarizer.c **** 			}
  61:src/HybridBinarizer.c **** 
  62:src/HybridBinarizer.c **** 			// The default estimate is the average of the values in the block.
  63:src/HybridBinarizer.c **** 			int average = sum / (BLOCK_SIZE * BLOCK_SIZE);
 227              		.loc 1 63 36
 228 0195 BA080000 		movl	$8, %edx
 228      00
 229 019a B8080000 		movl	$8, %eax
 229      00
 230 019f 89D3     		movl	%edx, %ebx
 231 01a1 0FAFD8   		imull	%eax, %ebx
 232              		.loc 1 63 8
 233 01a4 8B45EC   		movl	-20(%ebp), %eax
GAS LISTING C:\Users\jisu8\AppData\Local\Temp\ccNqYQdE.s 			page 7


 234 01a7 99       		cltd
 235 01a8 F7FB     		idivl	%ebx
 236 01aa 8945D4   		movl	%eax, -44(%ebp)
  64:src/HybridBinarizer.c **** 			if (max - min <= MIN_DYNAMIC_RANGE) 
 237              		.loc 1 64 12
 238 01ad 0FB655EA 		movzbl	-22(%ebp), %edx
 239 01b1 0FB645EB 		movzbl	-21(%ebp), %eax
 240 01b5 29C2     		subl	%eax, %edx
 241 01b7 89D0     		movl	%edx, %eax
 242              		.loc 1 64 18
 243 01b9 BA180000 		movl	$24, %edx
 243      00
 244              		.loc 1 64 7
 245 01be 39D0     		cmpl	%edx, %eax
 246 01c0 7F7E     		jg	L13
  65:src/HybridBinarizer.c **** 			{
  66:src/HybridBinarizer.c **** 				// If variation within the block is low, assume this is a block with only light or only
  67:src/HybridBinarizer.c **** 				// dark pixels. In that case we do not want to use the average, as it would divide this
  68:src/HybridBinarizer.c **** 				// low contrast area into black and white pixels, essentially creating data out of noise.
  69:src/HybridBinarizer.c **** 				//
  70:src/HybridBinarizer.c **** 				// The default assumption is that the block is light/background. Since no estimate for
  71:src/HybridBinarizer.c **** 				// the level of dark pixels exists locally, use half the min for the block.
  72:src/HybridBinarizer.c **** 				average = min / 2;
 247              		.loc 1 72 19
 248 01c2 0FB645EB 		movzbl	-21(%ebp), %eax
 249 01c6 D0E8     		shrb	%al
 250              		.loc 1 72 13
 251 01c8 0FB6C0   		movzbl	%al, %eax
 252 01cb 8945D4   		movl	%eax, -44(%ebp)
  73:src/HybridBinarizer.c **** 
  74:src/HybridBinarizer.c **** 				if (y > 0 && x > 0) 
 253              		.loc 1 74 8
 254 01ce 837DF400 		cmpl	$0, -12(%ebp)
 255 01d2 7E6C     		jle	L13
 256              		.loc 1 74 15 discriminator 1
 257 01d4 837DF000 		cmpl	$0, -16(%ebp)
 258 01d8 7E66     		jle	L13
 259              	LBB10:
  75:src/HybridBinarizer.c **** 				{
  76:src/HybridBinarizer.c **** 					// Correct the "white background" assumption for blocks that have neighbors by comparing
  77:src/HybridBinarizer.c **** 					// the pixels in this block to the previously calculated black points. This is based on
  78:src/HybridBinarizer.c **** 					// the fact that dark barcode symbology is always surrounded by some amount of light
  79:src/HybridBinarizer.c **** 					// background for which reasonable black point estimates were made. The bp estimated at
  80:src/HybridBinarizer.c **** 					// the boundaries is used for the interior.
  81:src/HybridBinarizer.c **** 
  82:src/HybridBinarizer.c **** 					// The (min < bp) is arbitrary but works better than other heuristics that were tried.
  83:src/HybridBinarizer.c **** 					int averageNeighborBlackPoint =
  84:src/HybridBinarizer.c **** 						(blackpoints_data[x][y - 1] + (2 * blackpoints_data[x - 1][y]) + blackpoints_data[x - 1][y - 
 260              		.loc 1 84 30
 261 01da 8B45F4   		movl	-12(%ebp), %eax
 262 01dd 8D50FF   		leal	-1(%eax), %edx
 263              		.loc 1 84 27
 264 01e0 8B45F0   		movl	-16(%ebp), %eax
 265 01e3 69C0E803 		imull	$1000, %eax, %eax
 265      0000
 266 01e9 01D0     		addl	%edx, %eax
 267 01eb 8B048500 		movl	_blackpoints_data(,%eax,4), %eax
GAS LISTING C:\Users\jisu8\AppData\Local\Temp\ccNqYQdE.s 			page 8


 267      000000
 268              		.loc 1 84 61
 269 01f2 8B55F0   		movl	-16(%ebp), %edx
 270 01f5 83EA01   		subl	$1, %edx
 271              		.loc 1 84 65
 272 01f8 69CAE803 		imull	$1000, %edx, %ecx
 272      0000
 273 01fe 8B55F4   		movl	-12(%ebp), %edx
 274 0201 01CA     		addl	%ecx, %edx
 275 0203 8B149500 		movl	_blackpoints_data(,%edx,4), %edx
 275      000000
 276              		.loc 1 84 40
 277 020a 01D2     		addl	%edx, %edx
 278              		.loc 1 84 35
 279 020c 01C2     		addl	%eax, %edx
 280              		.loc 1 84 91
 281 020e 8B45F0   		movl	-16(%ebp), %eax
 282 0211 8D58FF   		leal	-1(%eax), %ebx
 283              		.loc 1 84 98
 284 0214 8B45F4   		movl	-12(%ebp), %eax
 285 0217 8D48FF   		leal	-1(%eax), %ecx
 286              		.loc 1 84 95
 287 021a 69C3E803 		imull	$1000, %ebx, %eax
 287      0000
 288 0220 01C8     		addl	%ecx, %eax
 289 0222 8B048500 		movl	_blackpoints_data(,%eax,4), %eax
 289      000000
 290              		.loc 1 84 70
 291 0229 01D0     		addl	%edx, %eax
 292              		.loc 1 84 104
 293 022b C1E802   		shrl	$2, %eax
  83:src/HybridBinarizer.c **** 						(blackpoints_data[x][y - 1] + (2 * blackpoints_data[x - 1][y]) + blackpoints_data[x - 1][y - 
 294              		.loc 1 83 10
 295 022e 8945C4   		movl	%eax, -60(%ebp)
  85:src/HybridBinarizer.c **** 
  86:src/HybridBinarizer.c **** 					if (min < averageNeighborBlackPoint) 
 296              		.loc 1 86 14
 297 0231 0FB645EB 		movzbl	-21(%ebp), %eax
 298              		.loc 1 86 9
 299 0235 3945C4   		cmpl	%eax, -60(%ebp)
 300 0238 7E06     		jle	L13
  87:src/HybridBinarizer.c **** 					{
  88:src/HybridBinarizer.c **** 						average = averageNeighborBlackPoint;
 301              		.loc 1 88 15
 302 023a 8B45C4   		movl	-60(%ebp), %eax
 303 023d 8945D4   		movl	%eax, -44(%ebp)
 304              	L13:
 305              	LBE10:
  89:src/HybridBinarizer.c **** 					}
  90:src/HybridBinarizer.c **** 				}
  91:src/HybridBinarizer.c **** 			}
  92:src/HybridBinarizer.c **** 
  93:src/HybridBinarizer.c **** 			blackpoints_data[x][y] = average;
 306              		.loc 1 93 27 discriminator 2
 307 0240 8B45D4   		movl	-44(%ebp), %eax
 308 0243 8B55F0   		movl	-16(%ebp), %edx
 309 0246 69CAE803 		imull	$1000, %edx, %ecx
GAS LISTING C:\Users\jisu8\AppData\Local\Temp\ccNqYQdE.s 			page 9


 309      0000
 310 024c 8B55F4   		movl	-12(%ebp), %edx
 311 024f 01CA     		addl	%ecx, %edx
 312 0251 89049500 		movl	%eax, _blackpoints_data(,%edx,4)
 312      000000
  94:src/HybridBinarizer.c **** 
  95:src/HybridBinarizer.c **** 
  96:src/HybridBinarizer.c **** 			printf("X=%d, Y=%d, AVG=%d\n", x, y, average);
 313              		.loc 1 96 4 discriminator 2
 314 0258 8B45D4   		movl	-44(%ebp), %eax
 315 025b 8944240C 		movl	%eax, 12(%esp)
 316 025f 8B45F4   		movl	-12(%ebp), %eax
 317 0262 89442408 		movl	%eax, 8(%esp)
 318 0266 8B45F0   		movl	-16(%ebp), %eax
 319 0269 89442404 		movl	%eax, 4(%esp)
 320 026d C704245C 		movl	$LC1, (%esp)
 320      000000
 321 0274 E8000000 		call	_printf
 321      00
 322              	LBE5:
  33:src/HybridBinarizer.c **** 		{
 323              		.loc 1 33 34 discriminator 2
 324 0279 8345F001 		addl	$1, -16(%ebp)
 325              	L3:
  33:src/HybridBinarizer.c **** 		{
 326              		.loc 1 33 3 discriminator 1
 327 027d 8B45F0   		movl	-16(%ebp), %eax
 328 0280 3B450C   		cmpl	12(%ebp), %eax
 329 0283 0F8CF2FD 		jl	L14
 329      FFFF
 330              	LBE4:
 331              	LBE3:
  30:src/HybridBinarizer.c **** 	{
 332              		.loc 1 30 34 discriminator 2
 333 0289 8345F401 		addl	$1, -12(%ebp)
 334              	L2:
  30:src/HybridBinarizer.c **** 	{
 335              		.loc 1 30 2 discriminator 1
 336 028d 8B45F4   		movl	-12(%ebp), %eax
 337 0290 3B4510   		cmpl	16(%ebp), %eax
 338 0293 0F8CB9FD 		jl	L15
 338      FFFF
 339              	LBE2:
  97:src/HybridBinarizer.c **** 
  98:src/HybridBinarizer.c **** 		}
  99:src/HybridBinarizer.c **** 	}
 100:src/HybridBinarizer.c **** 
 101:src/HybridBinarizer.c **** 	return blackpoints_data;
 340              		.loc 1 101 9
 341 0299 B8000000 		movl	$_blackpoints_data, %eax
 341      00
 102:src/HybridBinarizer.c **** }
 342              		.loc 1 102 1
 343 029e 83C464   		addl	$100, %esp
 344 02a1 5B       		popl	%ebx
 345              		.cfi_restore 3
 346 02a2 5D       		popl	%ebp
GAS LISTING C:\Users\jisu8\AppData\Local\Temp\ccNqYQdE.s 			page 10


 347              	LCFI2:
 348              		.cfi_restore 5
 349              		.cfi_def_cfa 4, 4
 350 02a3 C3       		ret
 351              		.cfi_endproc
 352              	LFE16:
 354              	_clamp:
 355              	LFB17:
 103:src/HybridBinarizer.c **** 
 104:src/HybridBinarizer.c **** static inline clamp(const int __val, const int __lo, const int __hi)
 105:src/HybridBinarizer.c **** {
 356              		.loc 1 105 1
 357              		.cfi_startproc
 358 02a4 55       		pushl	%ebp
 359              	LCFI3:
 360              		.cfi_def_cfa_offset 8
 361              		.cfi_offset 5, -8
 362 02a5 89E5     		movl	%esp, %ebp
 363              	LCFI4:
 364              		.cfi_def_cfa_register 5
 106:src/HybridBinarizer.c ****      // __glibcxx_assert(!(__hi < __lo));
 107:src/HybridBinarizer.c ****       return (__val < __lo) ? __lo : (__hi < __val) ? __hi : __val;
 365              		.loc 1 107 36
 366 02a7 8B4508   		movl	8(%ebp), %eax
 367 02aa 3B450C   		cmpl	12(%ebp), %eax
 368 02ad 7C0C     		jl	L18
 369              		.loc 1 107 36 is_stmt 0 discriminator 1
 370 02af 8B4510   		movl	16(%ebp), %eax
 371 02b2 394508   		cmpl	%eax, 8(%ebp)
 372 02b5 0F4E4508 		cmovle	8(%ebp), %eax
 373 02b9 EB03     		jmp	L20
 374              	L18:
 375              		.loc 1 107 36 discriminator 2
 376 02bb 8B450C   		movl	12(%ebp), %eax
 377              	L20:
 108:src/HybridBinarizer.c **** }
 378              		.loc 1 108 1 is_stmt 1 discriminator 5
 379 02be 5D       		popl	%ebp
 380              	LCFI5:
 381              		.cfi_restore 5
 382              		.cfi_def_cfa 4, 4
 383 02bf C3       		ret
 384              		.cfi_endproc
 385              	LFE17:
 386              		.section .rdata,"dr"
 387              	LC2:
 388 0070 73746174 		.ascii "static void ThresholdBlock : \0"
 388      69632076 
 388      6F696420 
 388      54687265 
 388      73686F6C 
 389              	LC3:
 390 008e 74687265 		.ascii "threshold : %d \12\0"
 390      73686F6C 
 390      64203A20 
 390      2564200A 
 390      00
GAS LISTING C:\Users\jisu8\AppData\Local\Temp\ccNqYQdE.s 			page 11


 391              		.text
 393              	_ThresholdBlock:
 394              	LFB18:
 109:src/HybridBinarizer.c **** 
 110:src/HybridBinarizer.c **** /**
 111:src/HybridBinarizer.c **** * Applies a single threshold to a block of pixels.
 112:src/HybridBinarizer.c **** */
 113:src/HybridBinarizer.c **** static void ThresholdBlock(const uint8_t * luminances, int xoffset, int yoffset, int threshold, int
 114:src/HybridBinarizer.c **** {
 395              		.loc 1 114 1
 396              		.cfi_startproc
 397 02c0 55       		pushl	%ebp
 398              	LCFI6:
 399              		.cfi_def_cfa_offset 8
 400              		.cfi_offset 5, -8
 401 02c1 89E5     		movl	%esp, %ebp
 402              	LCFI7:
 403              		.cfi_def_cfa_register 5
 404 02c3 83EC28   		subl	$40, %esp
 115:src/HybridBinarizer.c **** 
 116:src/HybridBinarizer.c **** 	printf("static void ThresholdBlock : ");
 405              		.loc 1 116 2
 406 02c6 C7042470 		movl	$LC2, (%esp)
 406      000000
 407 02cd E8000000 		call	_printf
 407      00
 408              	LBB11:
 117:src/HybridBinarizer.c **** 
 118:src/HybridBinarizer.c **** 	for (int y = yoffset; y < yoffset + BLOCK_SIZE; ++y) 
 409              		.loc 1 118 11
 410 02d2 8B4510   		movl	16(%ebp), %eax
 411 02d5 8945F4   		movl	%eax, -12(%ebp)
 412              		.loc 1 118 2
 413 02d8 EB6C     		jmp	L22
 414              	L25:
 415              	LBB12:
 119:src/HybridBinarizer.c **** 	{
 120:src/HybridBinarizer.c **** 		uint8_t * src = luminances + y * stride + xoffset;
 416              		.loc 1 120 34
 417 02da 8B45F4   		movl	-12(%ebp), %eax
 418 02dd 0FAF4518 		imull	24(%ebp), %eax
 419 02e1 89C2     		movl	%eax, %edx
 420              		.loc 1 120 43
 421 02e3 8B450C   		movl	12(%ebp), %eax
 422 02e6 01C2     		addl	%eax, %edx
 423              		.loc 1 120 13
 424 02e8 8B4508   		movl	8(%ebp), %eax
 425 02eb 01D0     		addl	%edx, %eax
 426 02ed 8945F0   		movl	%eax, -16(%ebp)
 121:src/HybridBinarizer.c **** 		uint8_t * const dstBegin = matrix->bits + y * matrix->_width + xoffset;
 427              		.loc 1 121 36
 428 02f0 8B451C   		movl	28(%ebp), %eax
 429 02f3 8B500C   		movl	12(%eax), %edx
 430              		.loc 1 121 55
 431 02f6 8B451C   		movl	28(%ebp), %eax
 432 02f9 8B00     		movl	(%eax), %eax
 433              		.loc 1 121 47
GAS LISTING C:\Users\jisu8\AppData\Local\Temp\ccNqYQdE.s 			page 12


 434 02fb 0FAF45F4 		imull	-12(%ebp), %eax
 435 02ff 89C1     		movl	%eax, %ecx
 436              		.loc 1 121 64
 437 0301 8B450C   		movl	12(%ebp), %eax
 438 0304 01C8     		addl	%ecx, %eax
 439              		.loc 1 121 19
 440 0306 01D0     		addl	%edx, %eax
 441 0308 8945E8   		movl	%eax, -24(%ebp)
 442              	LBB13:
 122:src/HybridBinarizer.c **** 		for (uint8_t * dst = dstBegin; dst < dstBegin + BLOCK_SIZE; ++dst, ++src)
 443              		.loc 1 122 18
 444 030b 8B45E8   		movl	-24(%ebp), %eax
 445 030e 8945EC   		movl	%eax, -20(%ebp)
 446              		.loc 1 122 3
 447 0311 EB1E     		jmp	L23
 448              	L24:
 123:src/HybridBinarizer.c **** 			*dst = *src <= threshold;
 449              		.loc 1 123 11 discriminator 3
 450 0313 8B45F0   		movl	-16(%ebp), %eax
 451 0316 0FB600   		movzbl	(%eax), %eax
 452 0319 0FB6C0   		movzbl	%al, %eax
 453              		.loc 1 123 16 discriminator 3
 454 031c 394514   		cmpl	%eax, 20(%ebp)
 455 031f 0F9DC0   		setge	%al
 456 0322 89C2     		movl	%eax, %edx
 457              		.loc 1 123 9 discriminator 3
 458 0324 8B45EC   		movl	-20(%ebp), %eax
 459 0327 8810     		movb	%dl, (%eax)
 122:src/HybridBinarizer.c **** 		for (uint8_t * dst = dstBegin; dst < dstBegin + BLOCK_SIZE; ++dst, ++src)
 460              		.loc 1 122 63 discriminator 3
 461 0329 8345EC01 		addl	$1, -20(%ebp)
 122:src/HybridBinarizer.c **** 		for (uint8_t * dst = dstBegin; dst < dstBegin + BLOCK_SIZE; ++dst, ++src)
 462              		.loc 1 122 70 discriminator 3
 463 032d 8345F001 		addl	$1, -16(%ebp)
 464              	L23:
 122:src/HybridBinarizer.c **** 		for (uint8_t * dst = dstBegin; dst < dstBegin + BLOCK_SIZE; ++dst, ++src)
 465              		.loc 1 122 49 discriminator 1
 466 0331 B8080000 		movl	$8, %eax
 466      00
 467 0336 89C2     		movl	%eax, %edx
 468 0338 8B45E8   		movl	-24(%ebp), %eax
 469 033b 01D0     		addl	%edx, %eax
 122:src/HybridBinarizer.c **** 		for (uint8_t * dst = dstBegin; dst < dstBegin + BLOCK_SIZE; ++dst, ++src)
 470              		.loc 1 122 3 discriminator 1
 471 033d 3945EC   		cmpl	%eax, -20(%ebp)
 472 0340 72D1     		jb	L24
 473              	LBE13:
 474              	LBE12:
 118:src/HybridBinarizer.c **** 	{
 475              		.loc 1 118 50 discriminator 2
 476 0342 8345F401 		addl	$1, -12(%ebp)
 477              	L22:
 118:src/HybridBinarizer.c **** 	{
 478              		.loc 1 118 36 discriminator 1
 479 0346 BA080000 		movl	$8, %edx
 479      00
 480 034b 8B4510   		movl	16(%ebp), %eax
GAS LISTING C:\Users\jisu8\AppData\Local\Temp\ccNqYQdE.s 			page 13


 481 034e 01D0     		addl	%edx, %eax
 118:src/HybridBinarizer.c **** 	{
 482              		.loc 1 118 2 discriminator 1
 483 0350 3945F4   		cmpl	%eax, -12(%ebp)
 484 0353 7C85     		jl	L25
 485              	LBE11:
 124:src/HybridBinarizer.c **** 	}
 125:src/HybridBinarizer.c **** 
 126:src/HybridBinarizer.c **** 	printf("threshold : %d \n",threshold);
 486              		.loc 1 126 2
 487 0355 8B4514   		movl	20(%ebp), %eax
 488 0358 89442404 		movl	%eax, 4(%esp)
 489 035c C704248E 		movl	$LC3, (%esp)
 489      000000
 490 0363 E8000000 		call	_printf
 490      00
 127:src/HybridBinarizer.c **** }
 491              		.loc 1 127 1
 492 0368 90       		nop
 493 0369 C9       		leave
 494              	LCFI8:
 495              		.cfi_restore 5
 496              		.cfi_def_cfa 4, 4
 497 036a C3       		ret
 498              		.cfi_endproc
 499              	LFE18:
 500              		.section .rdata,"dr"
 501 009f 00       		.align 4
 502              	LC4:
 503 00a0 73746174 		.ascii "static void CalculateThresholdForBlock : Calls ThresholdBlock \0"
 503      69632076 
 503      6F696420 
 503      43616C63 
 503      756C6174 
 504 00df 00       		.text
 506              	_CalculateThresholdForBlock:
 507              	LFB19:
 128:src/HybridBinarizer.c **** 
 129:src/HybridBinarizer.c **** /**
 130:src/HybridBinarizer.c **** * For each block in the image, calculate the average black point using a 5x5 grid
 131:src/HybridBinarizer.c **** * of the blocks around it. Also handles the corner cases (fractional blocks are computed based
 132:src/HybridBinarizer.c **** * on the last pixels in the row/column which are also used in the previous block).
 133:src/HybridBinarizer.c **** */
 134:src/HybridBinarizer.c **** static void CalculateThresholdForBlock(const uint8_t* luminances, int subWidth, int subHeight, int 
 135:src/HybridBinarizer.c ****                                        int stride, BitMatrix_t * matrix)
 136:src/HybridBinarizer.c **** {
 508              		.loc 1 136 1
 509              		.cfi_startproc
 510 036b 55       		pushl	%ebp
 511              	LCFI9:
 512              		.cfi_def_cfa_offset 8
 513              		.cfi_offset 5, -8
 514 036c 89E5     		movl	%esp, %ebp
 515              	LCFI10:
 516              		.cfi_def_cfa_register 5
 517 036e 83EC58   		subl	$88, %esp
 137:src/HybridBinarizer.c **** 	printf("static void CalculateThresholdForBlock : Calls ThresholdBlock \n");
GAS LISTING C:\Users\jisu8\AppData\Local\Temp\ccNqYQdE.s 			page 14


 518              		.loc 1 137 2
 519 0371 C70424A0 		movl	$LC4, (%esp)
 519      000000
 520 0378 E8000000 		call	_puts
 520      00
 521              	LBB14:
 138:src/HybridBinarizer.c **** 
 139:src/HybridBinarizer.c **** 	for (int y = 0; y < subHeight; y++) 
 522              		.loc 1 139 11
 523 037d C745F400 		movl	$0, -12(%ebp)
 523      000000
 524              		.loc 1 139 2
 525 0384 E9380100 		jmp	L27
 525      00
 526              	L34:
 527              	LBB15:
 140:src/HybridBinarizer.c **** 	{
 141:src/HybridBinarizer.c **** 		int yoffset = __min(y * BLOCK_SIZE, height - BLOCK_SIZE);
 528              		.loc 1 141 17
 529 0389 BA080000 		movl	$8, %edx
 529      00
 530 038e 8B4518   		movl	24(%ebp), %eax
 531 0391 29D0     		subl	%edx, %eax
 532 0393 89C2     		movl	%eax, %edx
 533 0395 B8080000 		movl	$8, %eax
 533      00
 534 039a 0FAF45F4 		imull	-12(%ebp), %eax
 535              		.loc 1 141 7
 536 039e 39C2     		cmpl	%eax, %edx
 537 03a0 0F4EC2   		cmovle	%edx, %eax
 538 03a3 8945E0   		movl	%eax, -32(%ebp)
 539              	LBB16:
 142:src/HybridBinarizer.c **** 		for (int x = 0; x < subWidth; x++) 
 540              		.loc 1 142 12
 541 03a6 C745F000 		movl	$0, -16(%ebp)
 541      000000
 542              		.loc 1 142 3
 543 03ad E9FF0000 		jmp	L28
 543      00
 544              	L33:
 545              	LBB17:
 143:src/HybridBinarizer.c **** 		{
 144:src/HybridBinarizer.c **** 			int xoffset = __min(x * BLOCK_SIZE, width - BLOCK_SIZE);
 546              		.loc 1 144 18
 547 03b2 BA080000 		movl	$8, %edx
 547      00
 548 03b7 8B4514   		movl	20(%ebp), %eax
 549 03ba 29D0     		subl	%edx, %eax
 550 03bc 89C2     		movl	%eax, %edx
 551 03be B8080000 		movl	$8, %eax
 551      00
 552 03c3 0FAF45F0 		imull	-16(%ebp), %eax
 553              		.loc 1 144 8
 554 03c7 39C2     		cmpl	%eax, %edx
 555 03c9 0F4EC2   		cmovle	%edx, %eax
 556 03cc 8945DC   		movl	%eax, -36(%ebp)
 145:src/HybridBinarizer.c **** 			int left = clamp(x, 2, subWidth - 3);
GAS LISTING C:\Users\jisu8\AppData\Local\Temp\ccNqYQdE.s 			page 15


 557              		.loc 1 145 15
 558 03cf 8B450C   		movl	12(%ebp), %eax
 559 03d2 83E803   		subl	$3, %eax
 560 03d5 89442408 		movl	%eax, 8(%esp)
 561 03d9 C7442404 		movl	$2, 4(%esp)
 561      02000000 
 562 03e1 8B45F0   		movl	-16(%ebp), %eax
 563 03e4 890424   		movl	%eax, (%esp)
 564 03e7 E8B8FEFF 		call	_clamp
 564      FF
 565 03ec 8945D8   		movl	%eax, -40(%ebp)
 146:src/HybridBinarizer.c **** 			int top  = clamp(y, 2, subHeight - 3);
 566              		.loc 1 146 15
 567 03ef 8B4510   		movl	16(%ebp), %eax
 568 03f2 83E803   		subl	$3, %eax
 569 03f5 89442408 		movl	%eax, 8(%esp)
 570 03f9 C7442404 		movl	$2, 4(%esp)
 570      02000000 
 571 0401 8B45F4   		movl	-12(%ebp), %eax
 572 0404 890424   		movl	%eax, (%esp)
 573 0407 E898FEFF 		call	_clamp
 573      FF
 574 040c 8945D4   		movl	%eax, -44(%ebp)
 147:src/HybridBinarizer.c **** 			int sum = 0;
 575              		.loc 1 147 8
 576 040f C745EC00 		movl	$0, -20(%ebp)
 576      000000
 577              	LBB18:
 148:src/HybridBinarizer.c **** 			for (int dy = -2; dy <= 2; ++dy) 
 578              		.loc 1 148 13
 579 0416 C745E8FE 		movl	$-2, -24(%ebp)
 579      FFFFFF
 580              		.loc 1 148 4
 581 041d EB3F     		jmp	L29
 582              	L32:
 583              	LBB19:
 149:src/HybridBinarizer.c **** 			{
 150:src/HybridBinarizer.c **** 				for (int dx = -2; dx <= 2; ++dx) 
 584              		.loc 1 150 14
 585 041f C745E4FE 		movl	$-2, -28(%ebp)
 585      FFFFFF
 586              		.loc 1 150 5
 587 0426 EB2C     		jmp	L30
 588              	L31:
 151:src/HybridBinarizer.c **** 				{
 152:src/HybridBinarizer.c **** 					sum += blackpoints_data[left + dx][top + dy];
 589              		.loc 1 152 35 discriminator 3
 590 0428 8B55D8   		movl	-40(%ebp), %edx
 591 042b 8B45E4   		movl	-28(%ebp), %eax
 592 042e 8D0C02   		leal	(%edx,%eax), %ecx
 593              		.loc 1 152 45 discriminator 3
 594 0431 8B55D4   		movl	-44(%ebp), %edx
 595 0434 8B45E8   		movl	-24(%ebp), %eax
 596 0437 01C2     		addl	%eax, %edx
 597              		.loc 1 152 40 discriminator 3
 598 0439 69C1E803 		imull	$1000, %ecx, %eax
 598      0000
GAS LISTING C:\Users\jisu8\AppData\Local\Temp\ccNqYQdE.s 			page 16


 599 043f 01D0     		addl	%edx, %eax
 600 0441 8B148500 		movl	_blackpoints_data(,%eax,4), %edx
 600      000000
 601              		.loc 1 152 10 discriminator 3
 602 0448 8B45EC   		movl	-20(%ebp), %eax
 603 044b 01D0     		addl	%edx, %eax
 604 044d 8945EC   		movl	%eax, -20(%ebp)
 150:src/HybridBinarizer.c **** 				{
 605              		.loc 1 150 32 discriminator 3
 606 0450 8345E401 		addl	$1, -28(%ebp)
 607              	L30:
 150:src/HybridBinarizer.c **** 				{
 608              		.loc 1 150 5 discriminator 1
 609 0454 837DE402 		cmpl	$2, -28(%ebp)
 610 0458 7ECE     		jle	L31
 611              	LBE19:
 148:src/HybridBinarizer.c **** 			{
 612              		.loc 1 148 31 discriminator 2
 613 045a 8345E801 		addl	$1, -24(%ebp)
 614              	L29:
 148:src/HybridBinarizer.c **** 			{
 615              		.loc 1 148 4 discriminator 1
 616 045e 837DE802 		cmpl	$2, -24(%ebp)
 617 0462 7EBB     		jle	L32
 618              	LBE18:
 153:src/HybridBinarizer.c **** 				}
 154:src/HybridBinarizer.c **** 			}
 155:src/HybridBinarizer.c **** 
 156:src/HybridBinarizer.c **** 			int average = sum / 25;
 619              		.loc 1 156 8 discriminator 2
 620 0464 8B4DEC   		movl	-20(%ebp), %ecx
 621 0467 BA1F85EB 		movl	$1374389535, %edx
 621      51
 622 046c 89C8     		movl	%ecx, %eax
 623 046e F7EA     		imull	%edx
 624 0470 C1FA03   		sarl	$3, %edx
 625 0473 89C8     		movl	%ecx, %eax
 626 0475 C1F81F   		sarl	$31, %eax
 627 0478 29C2     		subl	%eax, %edx
 628 047a 89D0     		movl	%edx, %eax
 629 047c 8945D0   		movl	%eax, -48(%ebp)
 157:src/HybridBinarizer.c **** 			ThresholdBlock(luminances, xoffset, yoffset, average, stride, matrix);
 630              		.loc 1 157 4 discriminator 2
 631 047f 8B4520   		movl	32(%ebp), %eax
 632 0482 89442414 		movl	%eax, 20(%esp)
 633 0486 8B451C   		movl	28(%ebp), %eax
 634 0489 89442410 		movl	%eax, 16(%esp)
 635 048d 8B45D0   		movl	-48(%ebp), %eax
 636 0490 8944240C 		movl	%eax, 12(%esp)
 637 0494 8B45E0   		movl	-32(%ebp), %eax
 638 0497 89442408 		movl	%eax, 8(%esp)
 639 049b 8B45DC   		movl	-36(%ebp), %eax
 640 049e 89442404 		movl	%eax, 4(%esp)
 641 04a2 8B4508   		movl	8(%ebp), %eax
 642 04a5 890424   		movl	%eax, (%esp)
 643 04a8 E813FEFF 		call	_ThresholdBlock
 643      FF
GAS LISTING C:\Users\jisu8\AppData\Local\Temp\ccNqYQdE.s 			page 17


 644              	LBE17:
 142:src/HybridBinarizer.c **** 		{
 645              		.loc 1 142 34 discriminator 2
 646 04ad 8345F001 		addl	$1, -16(%ebp)
 647              	L28:
 142:src/HybridBinarizer.c **** 		{
 648              		.loc 1 142 3 discriminator 1
 649 04b1 8B45F0   		movl	-16(%ebp), %eax
 650 04b4 3B450C   		cmpl	12(%ebp), %eax
 651 04b7 0F8CF5FE 		jl	L33
 651      FFFF
 652              	LBE16:
 653              	LBE15:
 139:src/HybridBinarizer.c **** 	{
 654              		.loc 1 139 34 discriminator 2
 655 04bd 8345F401 		addl	$1, -12(%ebp)
 656              	L27:
 139:src/HybridBinarizer.c **** 	{
 657              		.loc 1 139 2 discriminator 1
 658 04c1 8B45F4   		movl	-12(%ebp), %eax
 659 04c4 3B4510   		cmpl	16(%ebp), %eax
 660 04c7 0F8CBCFE 		jl	L34
 660      FFFF
 661              	LBE14:
 158:src/HybridBinarizer.c **** 		}
 159:src/HybridBinarizer.c **** 	}
 160:src/HybridBinarizer.c **** 
 161:src/HybridBinarizer.c **** #ifdef HK_DEBUG
 162:src/HybridBinarizer.c **** 	//std::cout << "width : " << width << "height : " << height << "\n";
 163:src/HybridBinarizer.c **** #endif
 164:src/HybridBinarizer.c **** 
 165:src/HybridBinarizer.c **** }
 662              		.loc 1 165 1
 663 04cd 90       		nop
 664 04ce C9       		leave
 665              	LCFI11:
 666              		.cfi_restore 5
 667              		.cfi_def_cfa 4, 4
 668 04cf C3       		ret
 669              		.cfi_endproc
 670              	LFE19:
 672              	_InitBlackMatrix:
 673              	LFB20:
 166:src/HybridBinarizer.c **** 
 167:src/HybridBinarizer.c **** static void InitBlackMatrix(GenericLuminanceSource_t * source, BitMatrix_t * outMatrix)
 168:src/HybridBinarizer.c **** {
 674              		.loc 1 168 1
 675              		.cfi_startproc
 676 04d0 55       		pushl	%ebp
 677              	LCFI12:
 678              		.cfi_def_cfa_offset 8
 679              		.cfi_offset 5, -8
 680 04d1 89E5     		movl	%esp, %ebp
 681              	LCFI13:
 682              		.cfi_def_cfa_register 5
 683 04d3 83EC48   		subl	$72, %esp
 169:src/HybridBinarizer.c **** 	BitMatrix_t * matrix = outMatrix;
GAS LISTING C:\Users\jisu8\AppData\Local\Temp\ccNqYQdE.s 			page 18


 684              		.loc 1 169 16
 685 04d6 8B450C   		movl	12(%ebp), %eax
 686 04d9 8945F4   		movl	%eax, -12(%ebp)
 170:src/HybridBinarizer.c **** 	int width = source->width;
 687              		.loc 1 170 6
 688 04dc 8B4508   		movl	8(%ebp), %eax
 689 04df 8B400C   		movl	12(%eax), %eax
 690 04e2 8945F0   		movl	%eax, -16(%ebp)
 171:src/HybridBinarizer.c **** 	int height = source->height;
 691              		.loc 1 171 6
 692 04e5 8B4508   		movl	8(%ebp), %eax
 693 04e8 8B4010   		movl	16(%eax), %eax
 694 04eb 8945EC   		movl	%eax, -20(%ebp)
 172:src/HybridBinarizer.c **** 	uint8_t * buffer = NULL;
 695              		.loc 1 172 12
 696 04ee C745E800 		movl	$0, -24(%ebp)
 696      000000
 173:src/HybridBinarizer.c **** 	int stride = 0;
 697              		.loc 1 173 6
 698 04f5 C745D800 		movl	$0, -40(%ebp)
 698      000000
 174:src/HybridBinarizer.c **** 
 175:src/HybridBinarizer.c **** 	uint8_t* luminances = getMatrix(source, buffer, &stride,0);
 699              		.loc 1 175 24
 700 04fc C744240C 		movl	$0, 12(%esp)
 700      00000000 
 701 0504 8D45D8   		leal	-40(%ebp), %eax
 702 0507 89442408 		movl	%eax, 8(%esp)
 703 050b 8B45E8   		movl	-24(%ebp), %eax
 704 050e 89442404 		movl	%eax, 4(%esp)
 705 0512 8B4508   		movl	8(%ebp), %eax
 706 0515 890424   		movl	%eax, (%esp)
 707 0518 E8000000 		call	_getMatrix
 707      00
 708 051d 8945E4   		movl	%eax, -28(%ebp)
 176:src/HybridBinarizer.c **** 	int subWidth = (width + BLOCK_SIZE - 1) / BLOCK_SIZE; // ceil(width/BS)
 709              		.loc 1 176 24
 710 0520 BA080000 		movl	$8, %edx
 710      00
 711 0525 8B45F0   		movl	-16(%ebp), %eax
 712 0528 01D0     		addl	%edx, %eax
 713              		.loc 1 176 37
 714 052a 83E801   		subl	$1, %eax
 715              		.loc 1 176 42
 716 052d B9080000 		movl	$8, %ecx
 716      00
 717              		.loc 1 176 6
 718 0532 99       		cltd
 719 0533 F7F9     		idivl	%ecx
 720 0535 8945E0   		movl	%eax, -32(%ebp)
 177:src/HybridBinarizer.c **** 	int subHeight = (height + BLOCK_SIZE - 1) / BLOCK_SIZE; // ceil(height/BS)
 721              		.loc 1 177 26
 722 0538 BA080000 		movl	$8, %edx
 722      00
 723 053d 8B45EC   		movl	-20(%ebp), %eax
 724 0540 01D0     		addl	%edx, %eax
 725              		.loc 1 177 39
GAS LISTING C:\Users\jisu8\AppData\Local\Temp\ccNqYQdE.s 			page 19


 726 0542 83E801   		subl	$1, %eax
 727              		.loc 1 177 44
 728 0545 B9080000 		movl	$8, %ecx
 728      00
 729              		.loc 1 177 6
 730 054a 99       		cltd
 731 054b F7F9     		idivl	%ecx
 732 054d 8945DC   		movl	%eax, -36(%ebp)
 178:src/HybridBinarizer.c **** 	blackPoints.data = CalculateBlackPoints(luminances, subWidth, subHeight, width, height, stride);
 733              		.loc 1 178 21
 734 0550 8B45D8   		movl	-40(%ebp), %eax
 735 0553 89442414 		movl	%eax, 20(%esp)
 736 0557 8B45EC   		movl	-20(%ebp), %eax
 737 055a 89442410 		movl	%eax, 16(%esp)
 738 055e 8B45F0   		movl	-16(%ebp), %eax
 739 0561 8944240C 		movl	%eax, 12(%esp)
 740 0565 8B45DC   		movl	-36(%ebp), %eax
 741 0568 89442408 		movl	%eax, 8(%esp)
 742 056c 8B45E0   		movl	-32(%ebp), %eax
 743 056f 89442404 		movl	%eax, 4(%esp)
 744 0573 8B45E4   		movl	-28(%ebp), %eax
 745 0576 890424   		movl	%eax, (%esp)
 746 0579 E882FAFF 		call	_CalculateBlackPoints
 746      FF
 747              		.loc 1 178 19
 748 057e A3080000 		movl	%eax, _blackPoints+8
 748      00
 179:src/HybridBinarizer.c **** 
 180:src/HybridBinarizer.c **** 	//matrix = std::make_shared<BitMatrix>(width, height);
 181:src/HybridBinarizer.c **** 	CalculateThresholdForBlock(luminances, subWidth, subHeight, width, height, stride, matrix);
 749              		.loc 1 181 2
 750 0583 8B45D8   		movl	-40(%ebp), %eax
 751 0586 8B55F4   		movl	-12(%ebp), %edx
 752 0589 89542418 		movl	%edx, 24(%esp)
 753 058d 89442414 		movl	%eax, 20(%esp)
 754 0591 8B45EC   		movl	-20(%ebp), %eax
 755 0594 89442410 		movl	%eax, 16(%esp)
 756 0598 8B45F0   		movl	-16(%ebp), %eax
 757 059b 8944240C 		movl	%eax, 12(%esp)
 758 059f 8B45DC   		movl	-36(%ebp), %eax
 759 05a2 89442408 		movl	%eax, 8(%esp)
 760 05a6 8B45E0   		movl	-32(%ebp), %eax
 761 05a9 89442404 		movl	%eax, 4(%esp)
 762 05ad 8B45E4   		movl	-28(%ebp), %eax
 763 05b0 890424   		movl	%eax, (%esp)
 764 05b3 E8B3FDFF 		call	_CalculateThresholdForBlock
 764      FF
 182:src/HybridBinarizer.c **** }
 765              		.loc 1 182 1
 766 05b8 90       		nop
 767 05b9 C9       		leave
 768              	LCFI14:
 769              		.cfi_restore 5
 770              		.cfi_def_cfa 4, 4
 771 05ba C3       		ret
 772              		.cfi_endproc
 773              	LFE20:
GAS LISTING C:\Users\jisu8\AppData\Local\Temp\ccNqYQdE.s 			page 20


 774              		.globl	_getBlackMatrix
 776              	_getBlackMatrix:
 777              	LFB21:
 183:src/HybridBinarizer.c **** 
 184:src/HybridBinarizer.c **** BitMatrix_t * getBlackMatrix(GenericLuminanceSource_t * image)
 185:src/HybridBinarizer.c **** {
 778              		.loc 1 185 1
 779              		.cfi_startproc
 780 05bb 55       		pushl	%ebp
 781              	LCFI15:
 782              		.cfi_def_cfa_offset 8
 783              		.cfi_offset 5, -8
 784 05bc 89E5     		movl	%esp, %ebp
 785              	LCFI16:
 786              		.cfi_def_cfa_register 5
 787 05be 83EC28   		subl	$40, %esp
 186:src/HybridBinarizer.c **** 	
 187:src/HybridBinarizer.c **** 	int width = image->width;
 788              		.loc 1 187 6
 789 05c1 8B4508   		movl	8(%ebp), %eax
 790 05c4 8B400C   		movl	12(%eax), %eax
 791 05c7 8945F4   		movl	%eax, -12(%ebp)
 188:src/HybridBinarizer.c **** 	int height = image->height;
 792              		.loc 1 188 6
 793 05ca 8B4508   		movl	8(%ebp), %eax
 794 05cd 8B4010   		movl	16(%eax), %eax
 795 05d0 8945F0   		movl	%eax, -16(%ebp)
 189:src/HybridBinarizer.c **** 	matrix._width = width;
 796              		.loc 1 189 16
 797 05d3 8B45F4   		movl	-12(%ebp), %eax
 798 05d6 A3000000 		movl	%eax, _matrix
 798      00
 190:src/HybridBinarizer.c **** 	matrix._height = height;
 799              		.loc 1 190 17
 800 05db 8B45F0   		movl	-16(%ebp), %eax
 801 05de A3040000 		movl	%eax, _matrix+4
 801      00
 191:src/HybridBinarizer.c **** 	matrix._rowSize = width;
 802              		.loc 1 191 18
 803 05e3 8B45F4   		movl	-12(%ebp), %eax
 804 05e6 A3080000 		movl	%eax, _matrix+8
 804      00
 192:src/HybridBinarizer.c **** 	matrix.bits = matrix_bits;
 805              		.loc 1 192 14
 806 05eb C7050C00 		movl	$_matrix_bits, _matrix+12
 806      00000000 
 806      0000
 193:src/HybridBinarizer.c **** 	if (width >= MINIMUM_DIMENSION && height >= MINIMUM_DIMENSION) 
 807              		.loc 1 193 12
 808 05f5 B8280000 		movl	$40, %eax
 808      00
 809              		.loc 1 193 5
 810 05fa 3945F4   		cmpl	%eax, -12(%ebp)
 811 05fd 7C24     		jl	L37
 812              		.loc 1 193 43 discriminator 1
 813 05ff B8280000 		movl	$40, %eax
 813      00
GAS LISTING C:\Users\jisu8\AppData\Local\Temp\ccNqYQdE.s 			page 21


 814              		.loc 1 193 33 discriminator 1
 815 0604 3945F0   		cmpl	%eax, -16(%ebp)
 816 0607 7C1A     		jl	L37
 194:src/HybridBinarizer.c **** 	{
 195:src/HybridBinarizer.c **** 		InitBlackMatrix(image,&matrix);
 817              		.loc 1 195 3
 818 0609 C7442404 		movl	$_matrix, 4(%esp)
 818      00000000 
 819 0611 8B4508   		movl	8(%ebp), %eax
 820 0614 890424   		movl	%eax, (%esp)
 821 0617 E8B4FEFF 		call	_InitBlackMatrix
 821      FF
 196:src/HybridBinarizer.c **** 		return &matrix;
 822              		.loc 1 196 10
 823 061c B8000000 		movl	$_matrix, %eax
 823      00
 824 0621 EB0B     		jmp	L38
 825              	L37:
 197:src/HybridBinarizer.c **** 	}
 198:src/HybridBinarizer.c **** 	else 
 199:src/HybridBinarizer.c **** 	{
 200:src/HybridBinarizer.c **** 		// If the image is too small, fall back to the global histogram approach.
 201:src/HybridBinarizer.c **** 		return getBlackMatrix(image);
 826              		.loc 1 201 10
 827 0623 8B4508   		movl	8(%ebp), %eax
 828 0626 890424   		movl	%eax, (%esp)
 829 0629 E88DFFFF 		call	_getBlackMatrix
 829      FF
 830              	L38:
 202:src/HybridBinarizer.c **** 	}
 203:src/HybridBinarizer.c **** 
 204:src/HybridBinarizer.c **** }
 831              		.loc 1 204 1
 832 062e C9       		leave
 833              	LCFI17:
 834              		.cfi_restore 5
 835              		.cfi_def_cfa 4, 4
 836 062f C3       		ret
 837              		.cfi_endproc
 838              	LFE21:
 839              	Letext0:
 840              		.file 2 "D:/3.tools/mingw/mingw32/i686-w64-mingw32/include/crtdefs.h"
 841              		.file 3 "D:/3.tools/mingw/mingw32/i686-w64-mingw32/include/stdint.h"
 842              		.file 4 "D:/3.tools/mingw/mingw32/i686-w64-mingw32/include/stdio.h"
 843              		.file 5 "src/GenericLuminanceSource.h"
 844              		.file 6 "src/BitMatrix.h"
 845              		.file 7 "src/Matrix.h"
 846              		.file 8 "D:/3.tools/mingw/mingw32/i686-w64-mingw32/include/stdlib.h"
 847              		.file 9 "D:/3.tools/mingw/mingw32/i686-w64-mingw32/include/malloc.h"