GAS LISTING C:\Users\jisu8\AppData\Local\Temp\ccXq07oJ.s 			page 1


   1              		.file	"Library.c"
   2              		.text
   3              	Ltext0:
   4              		.globl	_fill
   6              	_fill:
   7              	LFB1:
   8              		.file 1 "src/Library.c"
   1:src/Library.c **** 
   2:src/Library.c **** #include "library.h"
   3:src/Library.c **** 
   4:src/Library.c **** void fill(int length, int* buffer,int val)
   5:src/Library.c **** {
   9              		.loc 1 5 1
  10              		.cfi_startproc
  11 0000 55       		pushl	%ebp
  12              	LCFI0:
  13              		.cfi_def_cfa_offset 8
  14              		.cfi_offset 5, -8
  15 0001 89E5     		movl	%esp, %ebp
  16              	LCFI1:
  17              		.cfi_def_cfa_register 5
  18 0003 83EC10   		subl	$16, %esp
  19              	LBB2:
   6:src/Library.c ****     for(int i = 0;i<length;i++)
  20              		.loc 1 6 13
  21 0006 C745FC00 		movl	$0, -4(%ebp)
  21      000000
  22              		.loc 1 6 5
  23 000d EB18     		jmp	L2
  24              	L3:
   7:src/Library.c ****     {
   8:src/Library.c ****         buffer[i] = val;
  25              		.loc 1 8 15 discriminator 3
  26 000f 8B45FC   		movl	-4(%ebp), %eax
  27 0012 8D148500 		leal	0(,%eax,4), %edx
  27      000000
  28 0019 8B450C   		movl	12(%ebp), %eax
  29 001c 01C2     		addl	%eax, %edx
  30              		.loc 1 8 19 discriminator 3
  31 001e 8B4510   		movl	16(%ebp), %eax
  32 0021 8902     		movl	%eax, (%edx)
   6:src/Library.c ****     for(int i = 0;i<length;i++)
  33              		.loc 1 6 29 discriminator 3
  34 0023 8345FC01 		addl	$1, -4(%ebp)
  35              	L2:
   6:src/Library.c ****     for(int i = 0;i<length;i++)
  36              		.loc 1 6 5 discriminator 1
  37 0027 8B45FC   		movl	-4(%ebp), %eax
  38 002a 3B4508   		cmpl	8(%ebp), %eax
  39 002d 7CE0     		jl	L3
  40              	LBE2:
   9:src/Library.c ****     }
  10:src/Library.c **** }
  41              		.loc 1 10 1
  42 002f 90       		nop
  43 0030 C9       		leave
  44              	LCFI2:
GAS LISTING C:\Users\jisu8\AppData\Local\Temp\ccXq07oJ.s 			page 2


  45              		.cfi_restore 5
  46              		.cfi_def_cfa 4, 4
  47 0031 C3       		ret
  48              		.cfi_endproc
  49              	LFE1:
  50              		.globl	_reverse
  52              	_reverse:
  53              	LFB2:
  11:src/Library.c **** void reverse(int length,int * buffer)
  12:src/Library.c **** {
  54              		.loc 1 12 1
  55              		.cfi_startproc
  56 0032 55       		pushl	%ebp
  57              	LCFI3:
  58              		.cfi_def_cfa_offset 8
  59              		.cfi_offset 5, -8
  60 0033 89E5     		movl	%esp, %ebp
  61              	LCFI4:
  62              		.cfi_def_cfa_register 5
  63 0035 83EC10   		subl	$16, %esp
  13:src/Library.c ****     int temp = 0;
  64              		.loc 1 13 9
  65 0038 C745F800 		movl	$0, -8(%ebp)
  65      000000
  66              	LBB3:
  14:src/Library.c ****     for(int i = 0;i<(length/2);i++)
  67              		.loc 1 14 13
  68 003f C745FC00 		movl	$0, -4(%ebp)
  68      000000
  69              		.loc 1 14 5
  70 0046 EB5A     		jmp	L5
  71              	L6:
  15:src/Library.c ****     {
  16:src/Library.c ****         temp = buffer[i];
  72              		.loc 1 16 22 discriminator 3
  73 0048 8B45FC   		movl	-4(%ebp), %eax
  74 004b 8D148500 		leal	0(,%eax,4), %edx
  74      000000
  75 0052 8B450C   		movl	12(%ebp), %eax
  76 0055 01D0     		addl	%edx, %eax
  77              		.loc 1 16 14 discriminator 3
  78 0057 8B00     		movl	(%eax), %eax
  79 0059 8945F8   		movl	%eax, -8(%ebp)
  17:src/Library.c ****         buffer[i] = buffer[length-1-i];
  80              		.loc 1 17 34 discriminator 3
  81 005c 8B4508   		movl	8(%ebp), %eax
  82 005f 83E801   		subl	$1, %eax
  83              		.loc 1 17 36 discriminator 3
  84 0062 2B45FC   		subl	-4(%ebp), %eax
  85              		.loc 1 17 27 discriminator 3
  86 0065 8D148500 		leal	0(,%eax,4), %edx
  86      000000
  87 006c 8B450C   		movl	12(%ebp), %eax
  88 006f 01D0     		addl	%edx, %eax
  89              		.loc 1 17 15 discriminator 3
  90 0071 8B55FC   		movl	-4(%ebp), %edx
  91 0074 8D0C9500 		leal	0(,%edx,4), %ecx
GAS LISTING C:\Users\jisu8\AppData\Local\Temp\ccXq07oJ.s 			page 3


  91      000000
  92 007b 8B550C   		movl	12(%ebp), %edx
  93 007e 01CA     		addl	%ecx, %edx
  94              		.loc 1 17 27 discriminator 3
  95 0080 8B00     		movl	(%eax), %eax
  96              		.loc 1 17 19 discriminator 3
  97 0082 8902     		movl	%eax, (%edx)
  18:src/Library.c ****         buffer[length-1-i] = temp;
  98              		.loc 1 18 22 discriminator 3
  99 0084 8B4508   		movl	8(%ebp), %eax
 100 0087 83E801   		subl	$1, %eax
 101              		.loc 1 18 24 discriminator 3
 102 008a 2B45FC   		subl	-4(%ebp), %eax
 103              		.loc 1 18 15 discriminator 3
 104 008d 8D148500 		leal	0(,%eax,4), %edx
 104      000000
 105 0094 8B450C   		movl	12(%ebp), %eax
 106 0097 01C2     		addl	%eax, %edx
 107              		.loc 1 18 28 discriminator 3
 108 0099 8B45F8   		movl	-8(%ebp), %eax
 109 009c 8902     		movl	%eax, (%edx)
  14:src/Library.c ****     {
 110              		.loc 1 14 33 discriminator 3
 111 009e 8345FC01 		addl	$1, -4(%ebp)
 112              	L5:
  14:src/Library.c ****     {
 113              		.loc 1 14 28 discriminator 1
 114 00a2 8B4508   		movl	8(%ebp), %eax
 115 00a5 89C2     		movl	%eax, %edx
 116 00a7 C1EA1F   		shrl	$31, %edx
 117 00aa 01D0     		addl	%edx, %eax
 118 00ac D1F8     		sarl	%eax
  14:src/Library.c ****     {
 119              		.loc 1 14 5 discriminator 1
 120 00ae 3945FC   		cmpl	%eax, -4(%ebp)
 121 00b1 7C95     		jl	L6
 122              	LBE3:
  19:src/Library.c ****     }
  20:src/Library.c **** }
 123              		.loc 1 20 1
 124 00b3 90       		nop
 125 00b4 C9       		leave
 126              	LCFI5:
 127              		.cfi_restore 5
 128              		.cfi_def_cfa 4, 4
 129 00b5 C3       		ret
 130              		.cfi_endproc
 131              	LFE2:
 132              		.globl	_Reduce
 134              	_Reduce:
 135              	LFB3:
  21:src/Library.c **** int Reduce(int length,int * buffer)
  22:src/Library.c **** {
 136              		.loc 1 22 1
 137              		.cfi_startproc
 138 00b6 55       		pushl	%ebp
 139              	LCFI6:
GAS LISTING C:\Users\jisu8\AppData\Local\Temp\ccXq07oJ.s 			page 4


 140              		.cfi_def_cfa_offset 8
 141              		.cfi_offset 5, -8
 142 00b7 89E5     		movl	%esp, %ebp
 143              	LCFI7:
 144              		.cfi_def_cfa_register 5
 145 00b9 83EC10   		subl	$16, %esp
  23:src/Library.c ****     int ret = 0;
 146              		.loc 1 23 9
 147 00bc C745FC00 		movl	$0, -4(%ebp)
 147      000000
 148              	LBB4:
  24:src/Library.c ****     for(int i = 0;i<length;i++)
 149              		.loc 1 24 13
 150 00c3 C745F800 		movl	$0, -8(%ebp)
 150      000000
 151              		.loc 1 24 5
 152 00ca EB18     		jmp	L8
 153              	L9:
  25:src/Library.c ****     {
  26:src/Library.c ****         ret+=buffer[i];
 154              		.loc 1 26 20 discriminator 3
 155 00cc 8B45F8   		movl	-8(%ebp), %eax
 156 00cf 8D148500 		leal	0(,%eax,4), %edx
 156      000000
 157 00d6 8B450C   		movl	12(%ebp), %eax
 158 00d9 01D0     		addl	%edx, %eax
 159 00db 8B00     		movl	(%eax), %eax
 160              		.loc 1 26 12 discriminator 3
 161 00dd 0145FC   		addl	%eax, -4(%ebp)
  24:src/Library.c ****     for(int i = 0;i<length;i++)
 162              		.loc 1 24 29 discriminator 3
 163 00e0 8345F801 		addl	$1, -8(%ebp)
 164              	L8:
  24:src/Library.c ****     for(int i = 0;i<length;i++)
 165              		.loc 1 24 5 discriminator 1
 166 00e4 8B45F8   		movl	-8(%ebp), %eax
 167 00e7 3B4508   		cmpl	8(%ebp), %eax
 168 00ea 7CE0     		jl	L9
 169              	LBE4:
  27:src/Library.c ****     }
  28:src/Library.c ****     return ret;
 170              		.loc 1 28 12
 171 00ec 8B45FC   		movl	-4(%ebp), %eax
  29:src/Library.c **** }
 172              		.loc 1 29 1
 173 00ef C9       		leave
 174              	LCFI8:
 175              		.cfi_restore 5
 176              		.cfi_def_cfa 4, 4
 177 00f0 C3       		ret
 178              		.cfi_endproc
 179              	LFE3:
 180              	Letext0: