GAS LISTING C:\Users\jisu8\AppData\Local\Temp\ccvTqu9a.s 			page 1


   1              		.file	"PDF.c"
   2              		.text
   3              	Ltext0:
   4              		.comm	_filepath, 200, 5
   6              		.section .rdata,"dr"
   7              	LC0:
   8 0000 2E2F696D 		.ascii "./images/01.png\0"
   8      61676573 
   8      2F30312E 
   8      706E6700 
   9              	LC1:
  10 0010 25642C25 		.ascii "%d,%d,%d\0"
  10      642C2564 
  10      00
  11              	LC2:
  12 0019 4661696C 		.ascii "Failed to read image: %s\12\0"
  12      65642074 
  12      6F207265 
  12      61642069 
  12      6D616765 
  13              	LC3:
  14 0033 3D3D3D3D 		.ascii "======TIME to decode=====\0"
  14      3D3D5449 
  14      4D452074 
  14      6F206465 
  14      636F6465 
  15              	LC4:
  16 004d 61646472 		.ascii "address : %x \12\0"
  16      65737320 
  16      3A202578 
  16      200A00
  17              	LC5:
  18 005c 546F7461 		.ascii "Total Time = %3.2f msec.\15\12\0"
  18      6C205469 
  18      6D65203D 
  18      2025332E 
  18      3266206D 
  19              	LC6:
  20 0077 3D3D3D3D 		.ascii "=========================\12\0"
  20      3D3D3D3D 
  20      3D3D3D3D 
  20      3D3D3D3D 
  20      3D3D3D3D 
  21              	LC7:
  22 0092 257300   		.ascii "%s\0"
  23              	LC8:
  24 0095 70617573 		.ascii "pause\0"
  24      6500
  25 009b 00       		.text
  26              		.globl	_main
  28              	_main:
  29              	LFB19:
  30              		.file 1 "PDF.c"
   1:PDF.c         **** /*
   2:PDF.c         **** * Copyright 2016 Nu-book Inc.
   3:PDF.c         **** *
   4:PDF.c         **** * Licensed under the Apache License, Version 2.0 (the "License");
GAS LISTING C:\Users\jisu8\AppData\Local\Temp\ccvTqu9a.s 			page 2


   5:PDF.c         **** * you may not use this file except in compliance with the License.
   6:PDF.c         **** * You may obtain a copy of the License at
   7:PDF.c         **** *
   8:PDF.c         **** *      http://www.apache.org/licenses/LICENSE-2.0
   9:PDF.c         **** *
  10:PDF.c         **** * Unless required by applicable law or agreed to in writing, software
  11:PDF.c         **** * distributed under the License is distributed on an "AS IS" BASIS,
  12:PDF.c         **** * WITHOUT WARRANTIES OR CONDITIONS OF ANY KIND, either express or implied.
  13:PDF.c         **** * See the License for the specific language governing permissions and
  14:PDF.c         **** * limitations under the License.
  15:PDF.c         **** */
  16:PDF.c         **** 
  17:PDF.c         **** #include <stdio.h>
  18:PDF.c         **** #include <time.h>
  19:PDF.c         **** 
  20:PDF.c         **** #include "thirdparty/stb_image.h"
  21:PDF.c         **** #include "src/ReadBarcode.h"
  22:PDF.c         **** 
  23:PDF.c         **** char filepath[200];
  24:PDF.c         **** #define FILE_TEST 		(1)
  25:PDF.c         **** 
  26:PDF.c         **** int main()
  27:PDF.c         **** {
  31              		.loc 1 27 1
  32              		.cfi_startproc
  33 0000 55       		pushl	%ebp
  34              	LCFI0:
  35              		.cfi_def_cfa_offset 8
  36              		.cfi_offset 5, -8
  37 0001 89E5     		movl	%esp, %ebp
  38              	LCFI1:
  39              		.cfi_def_cfa_register 5
  40 0003 83E4F0   		andl	$-16, %esp
  41 0006 83EC50   		subl	$80, %esp
  42              		.loc 1 27 1
  43 0009 E8000000 		call	___main
  43      00
  44              	LVL0:
  28:PDF.c         **** 	double startClock;
  29:PDF.c         ****     int width, height, channels;
  30:PDF.c         **** 	unsigned char *buffer = NULL;
  45              		.loc 1 30 17
  46 000e C744244C 		movl	$0, 76(%esp)
  46      00000000 
  31:PDF.c         ****     const unsigned int *result;
  32:PDF.c         ****     // need to Test 7 images
  33:PDF.c         ****     #if   (FILE_TEST == 1)
  34:PDF.c         ****     sprintf(filepath,"./images/01.png");
  47              		.loc 1 34 5
  48 0016 C7442404 		movl	$LC0, 4(%esp)
  48      00000000 
  49 001e C7042400 		movl	$_filepath, (%esp)
  49      000000
  50 0025 E8000000 		call	_sprintf
  50      00
  35:PDF.c         ****     #elif (FILE_TEST == 2)
  36:PDF.c         ****     sprintf(filepath,"./images/07.png");
GAS LISTING C:\Users\jisu8\AppData\Local\Temp\ccvTqu9a.s 			page 3


  37:PDF.c         ****     #elif (FILE_TEST == 3)
  38:PDF.c         ****     sprintf(filepath,"./images/10.png");
  39:PDF.c         ****     #elif (FILE_TEST == 4)
  40:PDF.c         ****     sprintf(filepath,"./images/14.png");
  41:PDF.c         ****     #elif (FILE_TEST == 5)
  42:PDF.c         ****     sprintf(filepath,"./images/20.bmp");
  43:PDF.c         ****     #elif (FILE_TEST == 6)
  44:PDF.c         ****     sprintf(filepath,"./images/21.jpg"); // Sample of No Decode
  45:PDF.c         ****     #elif (FILE_TEST == 7)
  46:PDF.c         ****     sprintf(filepath,"./images/22.jpg"); // Ecc Zero - Error with Trans
  47:PDF.c         ****     #endif
  48:PDF.c         **** 
  49:PDF.c         ****     buffer = stbi_load(filepath,&width, &height, &channels, 4);
  51              		.loc 1 49 14
  52 002a C7442410 		movl	$4, 16(%esp)
  52      04000000 
  53 0032 8D442430 		leal	48(%esp), %eax
  54 0036 8944240C 		movl	%eax, 12(%esp)
  55 003a 8D442434 		leal	52(%esp), %eax
  56 003e 89442408 		movl	%eax, 8(%esp)
  57 0042 8D442438 		leal	56(%esp), %eax
  58 0046 89442404 		movl	%eax, 4(%esp)
  59 004a C7042400 		movl	$_filepath, (%esp)
  59      000000
  60 0051 E8000000 		call	_stbi_load
  60      00
  61 0056 8944244C 		movl	%eax, 76(%esp)
  50:PDF.c         **** 
  51:PDF.c         ****     printf("%d,%d,%d",width,height,channels);
  62              		.loc 1 51 5
  63 005a 8B4C2430 		movl	48(%esp), %ecx
  64 005e 8B542434 		movl	52(%esp), %edx
  65 0062 8B442438 		movl	56(%esp), %eax
  66 0066 894C240C 		movl	%ecx, 12(%esp)
  67 006a 89542408 		movl	%edx, 8(%esp)
  68 006e 89442404 		movl	%eax, 4(%esp)
  69 0072 C7042410 		movl	$LC1, (%esp)
  69      000000
  70 0079 E8000000 		call	_printf
  70      00
  52:PDF.c         **** 
  53:PDF.c         **** 	if (buffer == NULL)
  71              		.loc 1 53 5
  72 007e 837C244C 		cmpl	$0, 76(%esp)
  72      00
  73 0083 751E     		jne	L2
  54:PDF.c         **** 	{
  55:PDF.c         **** 		printf("Failed to read image: %s\n", filepath);
  74              		.loc 1 55 3
  75 0085 C7442404 		movl	$_filepath, 4(%esp)
  75      00000000 
  76 008d C7042419 		movl	$LC2, (%esp)
  76      000000
  77 0094 E8000000 		call	_printf
  77      00
  56:PDF.c         **** 		return -1;
  78              		.loc 1 56 10
GAS LISTING C:\Users\jisu8\AppData\Local\Temp\ccvTqu9a.s 			page 4


  79 0099 B8FFFFFF 		movl	$-1, %eax
  79      FF
  80 009e E9AB0000 		jmp	L4
  80      00
  81              	L2:
  57:PDF.c         **** 	}
  58:PDF.c         **** 
  59:PDF.c         **** 	printf("======TIME to decode=====\n");
  82              		.loc 1 59 2
  83 00a3 C7042433 		movl	$LC3, (%esp)
  83      000000
  84 00aa E8000000 		call	_puts
  84      00
  60:PDF.c         **** 	startClock = clock();
  85              		.loc 1 60 15
  86 00af E8000000 		call	_clock
  86      00
  87 00b4 8944242C 		movl	%eax, 44(%esp)
  88              		.loc 1 60 13
  89 00b8 DB44242C 		fildl	44(%esp)
  90 00bc DD5C2440 		fstpl	64(%esp)
  61:PDF.c         **** 
  62:PDF.c         ****     result = ReadBarcode(buffer,width,height,RGBX);
  91              		.loc 1 62 14
  92 00c0 8B542434 		movl	52(%esp), %edx
  93 00c4 8B442438 		movl	56(%esp), %eax
  94 00c8 C744240C 		movl	$67109122, 12(%esp)
  94      02010004 
  95 00d0 89542408 		movl	%edx, 8(%esp)
  96 00d4 89442404 		movl	%eax, 4(%esp)
  97 00d8 8B44244C 		movl	76(%esp), %eax
  98 00dc 890424   		movl	%eax, (%esp)
  99 00df E8000000 		call	_ReadBarcode
  99      00
 100 00e4 8944243C 		movl	%eax, 60(%esp)
  63:PDF.c         ****     printf("address : %x \n",result);
 101              		.loc 1 63 5
 102 00e8 8B44243C 		movl	60(%esp), %eax
 103 00ec 89442404 		movl	%eax, 4(%esp)
 104 00f0 C704244D 		movl	$LC4, (%esp)
 104      000000
 105 00f7 E8000000 		call	_printf
 105      00
  64:PDF.c         **** 
  65:PDF.c         **** 	printf("Total Time = %3.2f msec.\r\n", clock() - startClock);
 106              		.loc 1 65 41
 107 00fc E8000000 		call	_clock
 107      00
 108 0101 8944242C 		movl	%eax, 44(%esp)
 109              		.loc 1 65 2
 110 0105 DB44242C 		fildl	44(%esp)
 111 0109 DC642440 		fsubl	64(%esp)
 112 010d DD5C2404 		fstpl	4(%esp)
 113 0111 C704245C 		movl	$LC5, (%esp)
 113      000000
 114 0118 E8000000 		call	_printf
 114      00
GAS LISTING C:\Users\jisu8\AppData\Local\Temp\ccvTqu9a.s 			page 5


  66:PDF.c         **** 	printf("=========================\n\n");
 115              		.loc 1 66 2
 116 011d C7042477 		movl	$LC6, (%esp)
 116      000000
 117 0124 E8000000 		call	_puts
 117      00
  67:PDF.c         ****     //while(1)
  68:PDF.c         ****     //{
  69:PDF.c         ****     printf("%s",filepath);
 118              		.loc 1 69 5
 119 0129 C7442404 		movl	$_filepath, 4(%esp)
 119      00000000 
 120 0131 C7042492 		movl	$LC7, (%esp)
 120      000000
 121 0138 E8000000 		call	_printf
 121      00
  70:PDF.c         ****         system("pause");
 122              		.loc 1 70 9
 123 013d C7042495 		movl	$LC8, (%esp)
 123      000000
 124 0144 E8000000 		call	_system
 124      00
  71:PDF.c         ****     //}
  72:PDF.c         ****     return 0;
 125              		.loc 1 72 12
 126 0149 B8000000 		movl	$0, %eax
 126      00
 127              	L4:
  73:PDF.c         **** }
 128              		.loc 1 73 1 discriminator 1
 129 014e C9       		leave
 130              	LCFI2:
 131              		.cfi_restore 5
 132              		.cfi_def_cfa 4, 4
 133 014f C3       		ret
 134              		.cfi_endproc
 135              	LFE19:
 136              	Letext0:
 137              		.file 2 "D:/3.tools/mingw/mingw32/i686-w64-mingw32/include/stdio.h"
 138              		.file 3 "D:/3.tools/mingw/mingw32/i686-w64-mingw32/include/crtdefs.h"
 139              		.file 4 "D:/3.tools/mingw/mingw32/i686-w64-mingw32/include/time.h"
 140              		.file 5 "D:/3.tools/mingw/mingw32/i686-w64-mingw32/include/stdlib.h"
 141              		.file 6 "D:/3.tools/mingw/mingw32/i686-w64-mingw32/include/malloc.h"
 142              		.file 7 "src/ReadBarcode.h"
 143              		.section	.debug_info,"dr"
 144              	Ldebug_info0:
 145 0000 C6050000 		.long	0x5c6
 146 0004 0200     		.word	0x2
 147 0006 00000000 		.secrel32	Ldebug_abbrev0
 148 000a 04       		.byte	0x4
 149 000b 01       		.uleb128 0x1
 150 000c 474E5520 		.ascii "GNU C17 8.1.0 -mtune=generic -march=i686 -g -gdwarf-2 -O0\0"
 150      43313720 
 150      382E312E 
 150      30202D6D 
 150      74756E65 
 151 0046 0C       		.byte	0xc
GAS LISTING C:\Users\jisu8\AppData\Local\Temp\ccvTqu9a.s 			page 6


 152 0047 5044462E 		.ascii "PDF.c\0"
 152      6300
 153 004d 443A5C31 		.ascii "D:\\1.Project_workspace\\PDF_BARCODE\0"
 153      2E50726F 
 153      6A656374 
 153      5F776F72 
 153      6B737061 
 154 0070 00000000 		.long	Ltext0
 155 0074 50010000 		.long	Letext0
 156 0078 00000000 		.secrel32	Ldebug_line0
 157 007c 02       		.uleb128 0x2
 158 007d 01       		.byte	0x1
 159 007e 06       		.byte	0x6
 160 007f 63686172 		.ascii "char\0"
 160      00
 161 0084 02       		.uleb128 0x2
 162 0085 04       		.byte	0x4
 163 0086 07       		.byte	0x7
 164 0087 756E7369 		.ascii "unsigned int\0"
 164      676E6564 
 164      20696E74 
 164      00
 165 0094 03       		.uleb128 0x3
 166 0095 84000000 		.long	0x84
 167 0099 02       		.uleb128 0x2
 168 009a 04       		.byte	0x4
 169 009b 05       		.byte	0x5
 170 009c 696E7400 		.ascii "int\0"
 171 00a0 04       		.uleb128 0x4
 172 00a1 77636861 		.ascii "wchar_t\0"
 172      725F7400 
 173 00a9 03       		.byte	0x3
 174 00aa 62       		.byte	0x62
 175 00ab 18       		.byte	0x18
 176 00ac B0000000 		.long	0xb0
 177 00b0 02       		.uleb128 0x2
 178 00b1 02       		.byte	0x2
 179 00b2 07       		.byte	0x7
 180 00b3 73686F72 		.ascii "short unsigned int\0"
 180      7420756E 
 180      7369676E 
 180      65642069 
 180      6E7400
 181 00c6 02       		.uleb128 0x2
 182 00c7 04       		.byte	0x4
 183 00c8 05       		.byte	0x5
 184 00c9 6C6F6E67 		.ascii "long int\0"
 184      20696E74 
 184      00
 185 00d2 02       		.uleb128 0x2
 186 00d3 08       		.byte	0x8
 187 00d4 05       		.byte	0x5
 188 00d5 6C6F6E67 		.ascii "long long int\0"
 188      206C6F6E 
 188      6720696E 
 188      7400
 189 00e3 05       		.uleb128 0x5
GAS LISTING C:\Users\jisu8\AppData\Local\Temp\ccvTqu9a.s 			page 7


 190 00e4 04       		.byte	0x4
 191 00e5 7C000000 		.long	0x7c
 192 00e9 05       		.uleb128 0x5
 193 00ea 04       		.byte	0x4
 194 00eb A0000000 		.long	0xa0
 195 00ef 05       		.uleb128 0x5
 196 00f0 04       		.byte	0x4
 197 00f1 99000000 		.long	0x99
 198 00f5 02       		.uleb128 0x2
 199 00f6 04       		.byte	0x4
 200 00f7 07       		.byte	0x7
 201 00f8 6C6F6E67 		.ascii "long unsigned int\0"
 201      20756E73 
 201      69676E65 
 201      6420696E 
 201      7400
 202 010a 02       		.uleb128 0x2
 203 010b 01       		.byte	0x1
 204 010c 08       		.byte	0x8
 205 010d 756E7369 		.ascii "unsigned char\0"
 205      676E6564 
 205      20636861 
 205      7200
 206 011b 06       		.uleb128 0x6
 207 011c 5F696F62 		.ascii "_iobuf\0"
 207      756600
 208 0123 20       		.byte	0x20
 209 0124 02       		.byte	0x2
 210 0125 1A       		.byte	0x1a
 211 0126 0A       		.byte	0xa
 212 0127 BB010000 		.long	0x1bb
 213 012b 07       		.uleb128 0x7
 214 012c 5F707472 		.ascii "_ptr\0"
 214      00
 215 0131 02       		.byte	0x2
 216 0132 1B       		.byte	0x1b
 217 0133 0B       		.byte	0xb
 218 0134 E3000000 		.long	0xe3
 219 0138 02       		.byte	0x2
 220 0139 23       		.byte	0x23
 221 013a 00       		.uleb128 0
 222 013b 07       		.uleb128 0x7
 223 013c 5F636E74 		.ascii "_cnt\0"
 223      00
 224 0141 02       		.byte	0x2
 225 0142 1C       		.byte	0x1c
 226 0143 09       		.byte	0x9
 227 0144 99000000 		.long	0x99
 228 0148 02       		.byte	0x2
 229 0149 23       		.byte	0x23
 230 014a 04       		.uleb128 0x4
 231 014b 07       		.uleb128 0x7
 232 014c 5F626173 		.ascii "_base\0"
 232      6500
 233 0152 02       		.byte	0x2
 234 0153 1D       		.byte	0x1d
 235 0154 0B       		.byte	0xb
GAS LISTING C:\Users\jisu8\AppData\Local\Temp\ccvTqu9a.s 			page 8


 236 0155 E3000000 		.long	0xe3
 237 0159 02       		.byte	0x2
 238 015a 23       		.byte	0x23
 239 015b 08       		.uleb128 0x8
 240 015c 07       		.uleb128 0x7
 241 015d 5F666C61 		.ascii "_flag\0"
 241      6700
 242 0163 02       		.byte	0x2
 243 0164 1E       		.byte	0x1e
 244 0165 09       		.byte	0x9
 245 0166 99000000 		.long	0x99
 246 016a 02       		.byte	0x2
 247 016b 23       		.byte	0x23
 248 016c 0C       		.uleb128 0xc
 249 016d 07       		.uleb128 0x7
 250 016e 5F66696C 		.ascii "_file\0"
 250      6500
 251 0174 02       		.byte	0x2
 252 0175 1F       		.byte	0x1f
 253 0176 09       		.byte	0x9
 254 0177 99000000 		.long	0x99
 255 017b 02       		.byte	0x2
 256 017c 23       		.byte	0x23
 257 017d 10       		.uleb128 0x10
 258 017e 07       		.uleb128 0x7
 259 017f 5F636861 		.ascii "_charbuf\0"
 259      72627566 
 259      00
 260 0188 02       		.byte	0x2
 261 0189 20       		.byte	0x20
 262 018a 09       		.byte	0x9
 263 018b 99000000 		.long	0x99
 264 018f 02       		.byte	0x2
 265 0190 23       		.byte	0x23
 266 0191 14       		.uleb128 0x14
 267 0192 07       		.uleb128 0x7
 268 0193 5F627566 		.ascii "_bufsiz\0"
 268      73697A00 
 269 019b 02       		.byte	0x2
 270 019c 21       		.byte	0x21
 271 019d 09       		.byte	0x9
 272 019e 99000000 		.long	0x99
 273 01a2 02       		.byte	0x2
 274 01a3 23       		.byte	0x23
 275 01a4 18       		.uleb128 0x18
 276 01a5 07       		.uleb128 0x7
 277 01a6 5F746D70 		.ascii "_tmpfname\0"
 277      666E616D 
 277      6500
 278 01b0 02       		.byte	0x2
 279 01b1 22       		.byte	0x22
 280 01b2 0B       		.byte	0xb
 281 01b3 E3000000 		.long	0xe3
 282 01b7 02       		.byte	0x2
 283 01b8 23       		.byte	0x23
 284 01b9 1C       		.uleb128 0x1c
 285 01ba 00       		.byte	0
GAS LISTING C:\Users\jisu8\AppData\Local\Temp\ccvTqu9a.s 			page 9


 286 01bb 04       		.uleb128 0x4
 287 01bc 46494C45 		.ascii "FILE\0"
 287      00
 288 01c1 02       		.byte	0x2
 289 01c2 24       		.byte	0x24
 290 01c3 19       		.byte	0x19
 291 01c4 1B010000 		.long	0x11b
 292 01c8 08       		.uleb128 0x8
 293 01c9 BB010000 		.long	0x1bb
 294 01cd D3010000 		.long	0x1d3
 295 01d1 09       		.uleb128 0x9
 296 01d2 00       		.byte	0
 297 01d3 0A       		.uleb128 0xa
 298 01d4 5F696D70 		.ascii "_imp___iob\0"
 298      5F5F5F69 
 298      6F6200
 299 01df 02       		.byte	0x2
 300 01e0 5C       		.byte	0x5c
 301 01e1 10       		.byte	0x10
 302 01e2 E8010000 		.long	0x1e8
 303 01e6 01       		.byte	0x1
 304 01e7 01       		.byte	0x1
 305 01e8 05       		.uleb128 0x5
 306 01e9 04       		.byte	0x4
 307 01ea C8010000 		.long	0x1c8
 308 01ee 0A       		.uleb128 0xa
 309 01ef 5F646179 		.ascii "_daylight\0"
 309      6C696768 
 309      7400
 310 01f9 04       		.byte	0x4
 311 01fa 7A       		.byte	0x7a
 312 01fb 16       		.byte	0x16
 313 01fc 99000000 		.long	0x99
 314 0200 01       		.byte	0x1
 315 0201 01       		.byte	0x1
 316 0202 0A       		.uleb128 0xa
 317 0203 5F647374 		.ascii "_dstbias\0"
 317      62696173 
 317      00
 318 020c 04       		.byte	0x4
 319 020d 7B       		.byte	0x7b
 320 020e 17       		.byte	0x17
 321 020f C6000000 		.long	0xc6
 322 0213 01       		.byte	0x1
 323 0214 01       		.byte	0x1
 324 0215 0A       		.uleb128 0xa
 325 0216 5F74696D 		.ascii "_timezone\0"
 325      657A6F6E 
 325      6500
 326 0220 04       		.byte	0x4
 327 0221 7C       		.byte	0x7c
 328 0222 17       		.byte	0x17
 329 0223 C6000000 		.long	0xc6
 330 0227 01       		.byte	0x1
 331 0228 01       		.byte	0x1
 332 0229 08       		.uleb128 0x8
 333 022a E3000000 		.long	0xe3
GAS LISTING C:\Users\jisu8\AppData\Local\Temp\ccvTqu9a.s 			page 10


 334 022e 39020000 		.long	0x239
 335 0232 0B       		.uleb128 0xb
 336 0233 84000000 		.long	0x84
 337 0237 01       		.byte	0x1
 338 0238 00       		.byte	0
 339 0239 0A       		.uleb128 0xa
 340 023a 5F747A6E 		.ascii "_tzname\0"
 340      616D6500 
 341 0242 04       		.byte	0x4
 342 0243 7D       		.byte	0x7d
 343 0244 19       		.byte	0x19
 344 0245 29020000 		.long	0x229
 345 0249 01       		.byte	0x1
 346 024a 01       		.byte	0x1
 347 024b 0C       		.uleb128 0xc
 348 024c 6461796C 		.ascii "daylight\0"
 348      69676874 
 348      00
 349 0255 04       		.byte	0x4
 350 0256 1601     		.word	0x116
 351 0258 16       		.byte	0x16
 352 0259 99000000 		.long	0x99
 353 025d 01       		.byte	0x1
 354 025e 01       		.byte	0x1
 355 025f 0C       		.uleb128 0xc
 356 0260 74696D65 		.ascii "timezone\0"
 356      7A6F6E65 
 356      00
 357 0269 04       		.byte	0x4
 358 026a 1901     		.word	0x119
 359 026c 17       		.byte	0x17
 360 026d C6000000 		.long	0xc6
 361 0271 01       		.byte	0x1
 362 0272 01       		.byte	0x1
 363 0273 0C       		.uleb128 0xc
 364 0274 747A6E61 		.ascii "tzname\0"
 364      6D6500
 365 027b 04       		.byte	0x4
 366 027c 1A01     		.word	0x11a
 367 027e 18       		.byte	0x18
 368 027f 29020000 		.long	0x229
 369 0283 01       		.byte	0x1
 370 0284 01       		.byte	0x1
 371 0285 02       		.uleb128 0x2
 372 0286 02       		.byte	0x2
 373 0287 05       		.byte	0x5
 374 0288 73686F72 		.ascii "short int\0"
 374      7420696E 
 374      7400
 375 0292 02       		.uleb128 0x2
 376 0293 08       		.byte	0x8
 377 0294 04       		.byte	0x4
 378 0295 646F7562 		.ascii "double\0"
 378      6C6500
 379 029c 02       		.uleb128 0x2
 380 029d 04       		.byte	0x4
 381 029e 04       		.byte	0x4
GAS LISTING C:\Users\jisu8\AppData\Local\Temp\ccvTqu9a.s 			page 11


 382 029f 666C6F61 		.ascii "float\0"
 382      7400
 383 02a5 02       		.uleb128 0x2
 384 02a6 0C       		.byte	0xc
 385 02a7 04       		.byte	0x4
 386 02a8 6C6F6E67 		.ascii "long double\0"
 386      20646F75 
 386      626C6500 
 387 02b4 0A       		.uleb128 0xa
 388 02b5 5F696D70 		.ascii "_imp____mb_cur_max\0"
 388      5F5F5F5F 
 388      6D625F63 
 388      75725F6D 
 388      617800
 389 02c8 05       		.byte	0x5
 390 02c9 73       		.byte	0x73
 391 02ca 10       		.byte	0x10
 392 02cb EF000000 		.long	0xef
 393 02cf 01       		.byte	0x1
 394 02d0 01       		.byte	0x1
 395 02d1 08       		.uleb128 0x8
 396 02d2 E3000000 		.long	0xe3
 397 02d6 E1020000 		.long	0x2e1
 398 02da 0B       		.uleb128 0xb
 399 02db 84000000 		.long	0x84
 400 02df 00       		.byte	0
 401 02e0 00       		.byte	0
 402 02e1 0A       		.uleb128 0xa
 403 02e2 5F737973 		.ascii "_sys_errlist\0"
 403      5F657272 
 403      6C697374 
 403      00
 404 02ef 05       		.byte	0x5
 405 02f0 AC       		.byte	0xac
 406 02f1 26       		.byte	0x26
 407 02f2 D1020000 		.long	0x2d1
 408 02f6 01       		.byte	0x1
 409 02f7 01       		.byte	0x1
 410 02f8 0A       		.uleb128 0xa
 411 02f9 5F737973 		.ascii "_sys_nerr\0"
 411      5F6E6572 
 411      7200
 412 0303 05       		.byte	0x5
 413 0304 AD       		.byte	0xad
 414 0305 24       		.byte	0x24
 415 0306 99000000 		.long	0x99
 416 030a 01       		.byte	0x1
 417 030b 01       		.byte	0x1
 418 030c 0C       		.uleb128 0xc
 419 030d 5F696D70 		.ascii "_imp____argc\0"
 419      5F5F5F5F 
 419      61726763 
 419      00
 420 031a 05       		.byte	0x5
 421 031b 1901     		.word	0x119
 422 031d 10       		.byte	0x10
 423 031e EF000000 		.long	0xef
GAS LISTING C:\Users\jisu8\AppData\Local\Temp\ccvTqu9a.s 			page 12


 424 0322 01       		.byte	0x1
 425 0323 01       		.byte	0x1
 426 0324 0C       		.uleb128 0xc
 427 0325 5F696D70 		.ascii "_imp____argv\0"
 427      5F5F5F5F 
 427      61726776 
 427      00
 428 0332 05       		.byte	0x5
 429 0333 1D01     		.word	0x11d
 430 0335 13       		.byte	0x13
 431 0336 3C030000 		.long	0x33c
 432 033a 01       		.byte	0x1
 433 033b 01       		.byte	0x1
 434 033c 05       		.uleb128 0x5
 435 033d 04       		.byte	0x4
 436 033e 42030000 		.long	0x342
 437 0342 05       		.uleb128 0x5
 438 0343 04       		.byte	0x4
 439 0344 E3000000 		.long	0xe3
 440 0348 0C       		.uleb128 0xc
 441 0349 5F696D70 		.ascii "_imp____wargv\0"
 441      5F5F5F5F 
 441      77617267 
 441      7600
 442 0357 05       		.byte	0x5
 443 0358 2101     		.word	0x121
 444 035a 16       		.byte	0x16
 445 035b 61030000 		.long	0x361
 446 035f 01       		.byte	0x1
 447 0360 01       		.byte	0x1
 448 0361 05       		.uleb128 0x5
 449 0362 04       		.byte	0x4
 450 0363 67030000 		.long	0x367
 451 0367 05       		.uleb128 0x5
 452 0368 04       		.byte	0x4
 453 0369 E9000000 		.long	0xe9
 454 036d 0C       		.uleb128 0xc
 455 036e 5F696D70 		.ascii "_imp___environ\0"
 455      5F5F5F65 
 455      6E766972 
 455      6F6E00
 456 037d 05       		.byte	0x5
 457 037e 2701     		.word	0x127
 458 0380 13       		.byte	0x13
 459 0381 3C030000 		.long	0x33c
 460 0385 01       		.byte	0x1
 461 0386 01       		.byte	0x1
 462 0387 0C       		.uleb128 0xc
 463 0388 5F696D70 		.ascii "_imp___wenviron\0"
 463      5F5F5F77 
 463      656E7669 
 463      726F6E00 
 464 0398 05       		.byte	0x5
 465 0399 2C01     		.word	0x12c
 466 039b 16       		.byte	0x16
 467 039c 61030000 		.long	0x361
 468 03a0 01       		.byte	0x1
GAS LISTING C:\Users\jisu8\AppData\Local\Temp\ccvTqu9a.s 			page 13


 469 03a1 01       		.byte	0x1
 470 03a2 0C       		.uleb128 0xc
 471 03a3 5F696D70 		.ascii "_imp___pgmptr\0"
 471      5F5F5F70 
 471      676D7074 
 471      7200
 472 03b1 05       		.byte	0x5
 473 03b2 3201     		.word	0x132
 474 03b4 12       		.byte	0x12
 475 03b5 42030000 		.long	0x342
 476 03b9 01       		.byte	0x1
 477 03ba 01       		.byte	0x1
 478 03bb 0C       		.uleb128 0xc
 479 03bc 5F696D70 		.ascii "_imp___wpgmptr\0"
 479      5F5F5F77 
 479      70676D70 
 479      747200
 480 03cb 05       		.byte	0x5
 481 03cc 3701     		.word	0x137
 482 03ce 15       		.byte	0x15
 483 03cf 67030000 		.long	0x367
 484 03d3 01       		.byte	0x1
 485 03d4 01       		.byte	0x1
 486 03d5 0C       		.uleb128 0xc
 487 03d6 5F696D70 		.ascii "_imp___osplatform\0"
 487      5F5F5F6F 
 487      73706C61 
 487      74666F72 
 487      6D00
 488 03e8 05       		.byte	0x5
 489 03e9 3C01     		.word	0x13c
 490 03eb 19       		.byte	0x19
 491 03ec F2030000 		.long	0x3f2
 492 03f0 01       		.byte	0x1
 493 03f1 01       		.byte	0x1
 494 03f2 05       		.uleb128 0x5
 495 03f3 04       		.byte	0x4
 496 03f4 84000000 		.long	0x84
 497 03f8 0C       		.uleb128 0xc
 498 03f9 5F696D70 		.ascii "_imp___osver\0"
 498      5F5F5F6F 
 498      73766572 
 498      00
 499 0406 05       		.byte	0x5
 500 0407 4101     		.word	0x141
 501 0409 19       		.byte	0x19
 502 040a F2030000 		.long	0x3f2
 503 040e 01       		.byte	0x1
 504 040f 01       		.byte	0x1
 505 0410 0C       		.uleb128 0xc
 506 0411 5F696D70 		.ascii "_imp___winver\0"
 506      5F5F5F77 
 506      696E7665 
 506      7200
 507 041f 05       		.byte	0x5
 508 0420 4601     		.word	0x146
 509 0422 19       		.byte	0x19
GAS LISTING C:\Users\jisu8\AppData\Local\Temp\ccvTqu9a.s 			page 14


 510 0423 F2030000 		.long	0x3f2
 511 0427 01       		.byte	0x1
 512 0428 01       		.byte	0x1
 513 0429 0C       		.uleb128 0xc
 514 042a 5F696D70 		.ascii "_imp___winmajor\0"
 514      5F5F5F77 
 514      696E6D61 
 514      6A6F7200 
 515 043a 05       		.byte	0x5
 516 043b 4B01     		.word	0x14b
 517 043d 19       		.byte	0x19
 518 043e F2030000 		.long	0x3f2
 519 0442 01       		.byte	0x1
 520 0443 01       		.byte	0x1
 521 0444 0C       		.uleb128 0xc
 522 0445 5F696D70 		.ascii "_imp___winminor\0"
 522      5F5F5F77 
 522      696E6D69 
 522      6E6F7200 
 523 0455 05       		.byte	0x5
 524 0456 5001     		.word	0x150
 525 0458 19       		.byte	0x19
 526 0459 F2030000 		.long	0x3f2
 527 045d 01       		.byte	0x1
 528 045e 01       		.byte	0x1
 529 045f 0A       		.uleb128 0xa
 530 0460 5F616D62 		.ascii "_amblksiz\0"
 530      6C6B7369 
 530      7A00
 531 046a 06       		.byte	0x6
 532 046b 35       		.byte	0x35
 533 046c 17       		.byte	0x17
 534 046d 84000000 		.long	0x84
 535 0471 01       		.byte	0x1
 536 0472 01       		.byte	0x1
 537 0473 02       		.uleb128 0x2
 538 0474 10       		.byte	0x10
 539 0475 04       		.byte	0x4
 540 0476 5F466C6F 		.ascii "_Float128\0"
 540      61743132 
 540      3800
 541 0480 02       		.uleb128 0x2
 542 0481 01       		.byte	0x1
 543 0482 06       		.byte	0x6
 544 0483 7369676E 		.ascii "signed char\0"
 544      65642063 
 544      68617200 
 545 048f 02       		.uleb128 0x2
 546 0490 08       		.byte	0x8
 547 0491 07       		.byte	0x7
 548 0492 6C6F6E67 		.ascii "long long unsigned int\0"
 548      206C6F6E 
 548      6720756E 
 548      7369676E 
 548      65642069 
 549 04a9 05       		.uleb128 0x5
 550 04aa 04       		.byte	0x4
GAS LISTING C:\Users\jisu8\AppData\Local\Temp\ccvTqu9a.s 			page 15


 551 04ab 0A010000 		.long	0x10a
 552 04af 0D       		.uleb128 0xd
 553 04b0 07       		.byte	0x7
 554 04b1 04       		.byte	0x4
 555 04b2 84000000 		.long	0x84
 556 04b6 07       		.byte	0x7
 557 04b7 08       		.byte	0x8
 558 04b8 01       		.byte	0x1
 559 04b9 08050000 		.long	0x508
 560 04bd 0E       		.uleb128 0xe
 561 04be 4E6F6E65 		.ascii "None\0"
 561      00
 562 04c3 00       		.byte	0
 563 04c4 0F       		.uleb128 0xf
 564 04c5 4C756D00 		.ascii "Lum\0"
 565 04c9 00000001 		.long	0x1000000
 566 04cd 0F       		.uleb128 0xf
 567 04ce 52474200 		.ascii "RGB\0"
 568 04d2 02010003 		.long	0x3000102
 569 04d6 0F       		.uleb128 0xf
 570 04d7 42475200 		.ascii "BGR\0"
 571 04db 00010203 		.long	0x3020100
 572 04df 0F       		.uleb128 0xf
 573 04e0 52474258 		.ascii "RGBX\0"
 573      00
 574 04e5 02010004 		.long	0x4000102
 575 04e9 0F       		.uleb128 0xf
 576 04ea 58524742 		.ascii "XRGB\0"
 576      00
 577 04ef 03020104 		.long	0x4010203
 578 04f3 0F       		.uleb128 0xf
 579 04f4 42475258 		.ascii "BGRX\0"
 579      00
 580 04f9 00010204 		.long	0x4020100
 581 04fd 0F       		.uleb128 0xf
 582 04fe 58424752 		.ascii "XBGR\0"
 582      00
 583 0503 01020304 		.long	0x4030201
 584 0507 00       		.byte	0
 585 0508 08       		.uleb128 0x8
 586 0509 7C000000 		.long	0x7c
 587 050d 18050000 		.long	0x518
 588 0511 0B       		.uleb128 0xb
 589 0512 84000000 		.long	0x84
 590 0516 C7       		.byte	0xc7
 591 0517 00       		.byte	0
 592 0518 10       		.uleb128 0x10
 593 0519 66696C65 		.ascii "filepath\0"
 593      70617468 
 593      00
 594 0522 01       		.byte	0x1
 595 0523 17       		.byte	0x17
 596 0524 06       		.byte	0x6
 597 0525 08050000 		.long	0x508
 598 0529 01       		.byte	0x1
 599 052a 05       		.byte	0x5
 600 052b 03       		.byte	0x3
GAS LISTING C:\Users\jisu8\AppData\Local\Temp\ccvTqu9a.s 			page 16


 601 052c 00000000 		.long	_filepath
 602 0530 11       		.uleb128 0x11
 603 0531 01       		.byte	0x1
 604 0532 6D61696E 		.ascii "main\0"
 604      00
 605 0537 01       		.byte	0x1
 606 0538 1A       		.byte	0x1a
 607 0539 05       		.byte	0x5
 608 053a 99000000 		.long	0x99
 609 053e 00000000 		.long	LFB19
 610 0542 50010000 		.long	LFE19
 611 0546 00000000 		.secrel32	LLST0
 612 054a 01       		.byte	0x1
 613 054b C3050000 		.long	0x5c3
 614 054f 12       		.uleb128 0x12
 615 0550 73746172 		.ascii "startClock\0"
 615      74436C6F 
 615      636B00
 616 055b 01       		.byte	0x1
 617 055c 1C       		.byte	0x1c
 618 055d 09       		.byte	0x9
 619 055e 92020000 		.long	0x292
 620 0562 03       		.byte	0x3
 621 0563 74       		.byte	0x74
 622 0564 C000     		.sleb128 64
 623 0566 12       		.uleb128 0x12
 624 0567 77696474 		.ascii "width\0"
 624      6800
 625 056d 01       		.byte	0x1
 626 056e 1D       		.byte	0x1d
 627 056f 09       		.byte	0x9
 628 0570 99000000 		.long	0x99
 629 0574 02       		.byte	0x2
 630 0575 74       		.byte	0x74
 631 0576 38       		.sleb128 56
 632 0577 12       		.uleb128 0x12
 633 0578 68656967 		.ascii "height\0"
 633      687400
 634 057f 01       		.byte	0x1
 635 0580 1D       		.byte	0x1d
 636 0581 10       		.byte	0x10
 637 0582 99000000 		.long	0x99
 638 0586 02       		.byte	0x2
 639 0587 74       		.byte	0x74
 640 0588 34       		.sleb128 52
 641 0589 12       		.uleb128 0x12
 642 058a 6368616E 		.ascii "channels\0"
 642      6E656C73 
 642      00
 643 0593 01       		.byte	0x1
 644 0594 1D       		.byte	0x1d
 645 0595 18       		.byte	0x18
 646 0596 99000000 		.long	0x99
 647 059a 02       		.byte	0x2
 648 059b 74       		.byte	0x74
 649 059c 30       		.sleb128 48
 650 059d 12       		.uleb128 0x12
GAS LISTING C:\Users\jisu8\AppData\Local\Temp\ccvTqu9a.s 			page 17


 651 059e 62756666 		.ascii "buffer\0"
 651      657200
 652 05a5 01       		.byte	0x1
 653 05a6 1E       		.byte	0x1e
 654 05a7 11       		.byte	0x11
 655 05a8 A9040000 		.long	0x4a9
 656 05ac 03       		.byte	0x3
 657 05ad 74       		.byte	0x74
 658 05ae CC00     		.sleb128 76
 659 05b0 12       		.uleb128 0x12
 660 05b1 72657375 		.ascii "result\0"
 660      6C7400
 661 05b8 01       		.byte	0x1
 662 05b9 1F       		.byte	0x1f
 663 05ba 19       		.byte	0x19
 664 05bb C3050000 		.long	0x5c3
 665 05bf 02       		.byte	0x2
 666 05c0 74       		.byte	0x74
 667 05c1 3C       		.sleb128 60
 668 05c2 00       		.byte	0
 669 05c3 05       		.uleb128 0x5
 670 05c4 04       		.byte	0x4
 671 05c5 94000000 		.long	0x94
 672 05c9 00       		.byte	0
 673              		.section	.debug_abbrev,"dr"
 674              	Ldebug_abbrev0:
 675 0000 01       		.uleb128 0x1
 676 0001 11       		.uleb128 0x11
 677 0002 01       		.byte	0x1
 678 0003 25       		.uleb128 0x25
 679 0004 08       		.uleb128 0x8
 680 0005 13       		.uleb128 0x13
 681 0006 0B       		.uleb128 0xb
 682 0007 03       		.uleb128 0x3
 683 0008 08       		.uleb128 0x8
 684 0009 1B       		.uleb128 0x1b
 685 000a 08       		.uleb128 0x8
 686 000b 11       		.uleb128 0x11
 687 000c 01       		.uleb128 0x1
 688 000d 12       		.uleb128 0x12
 689 000e 01       		.uleb128 0x1
 690 000f 10       		.uleb128 0x10
 691 0010 06       		.uleb128 0x6
 692 0011 00       		.byte	0
 693 0012 00       		.byte	0
 694 0013 02       		.uleb128 0x2
 695 0014 24       		.uleb128 0x24
 696 0015 00       		.byte	0
 697 0016 0B       		.uleb128 0xb
 698 0017 0B       		.uleb128 0xb
 699 0018 3E       		.uleb128 0x3e
 700 0019 0B       		.uleb128 0xb
 701 001a 03       		.uleb128 0x3
 702 001b 08       		.uleb128 0x8
 703 001c 00       		.byte	0
 704 001d 00       		.byte	0
 705 001e 03       		.uleb128 0x3
GAS LISTING C:\Users\jisu8\AppData\Local\Temp\ccvTqu9a.s 			page 18


 706 001f 26       		.uleb128 0x26
 707 0020 00       		.byte	0
 708 0021 49       		.uleb128 0x49
 709 0022 13       		.uleb128 0x13
 710 0023 00       		.byte	0
 711 0024 00       		.byte	0
 712 0025 04       		.uleb128 0x4
 713 0026 16       		.uleb128 0x16
 714 0027 00       		.byte	0
 715 0028 03       		.uleb128 0x3
 716 0029 08       		.uleb128 0x8
 717 002a 3A       		.uleb128 0x3a
 718 002b 0B       		.uleb128 0xb
 719 002c 3B       		.uleb128 0x3b
 720 002d 0B       		.uleb128 0xb
 721 002e 39       		.uleb128 0x39
 722 002f 0B       		.uleb128 0xb
 723 0030 49       		.uleb128 0x49
 724 0031 13       		.uleb128 0x13
 725 0032 00       		.byte	0
 726 0033 00       		.byte	0
 727 0034 05       		.uleb128 0x5
 728 0035 0F       		.uleb128 0xf
 729 0036 00       		.byte	0
 730 0037 0B       		.uleb128 0xb
 731 0038 0B       		.uleb128 0xb
 732 0039 49       		.uleb128 0x49
 733 003a 13       		.uleb128 0x13
 734 003b 00       		.byte	0
 735 003c 00       		.byte	0
 736 003d 06       		.uleb128 0x6
 737 003e 13       		.uleb128 0x13
 738 003f 01       		.byte	0x1
 739 0040 03       		.uleb128 0x3
 740 0041 08       		.uleb128 0x8
 741 0042 0B       		.uleb128 0xb
 742 0043 0B       		.uleb128 0xb
 743 0044 3A       		.uleb128 0x3a
 744 0045 0B       		.uleb128 0xb
 745 0046 3B       		.uleb128 0x3b
 746 0047 0B       		.uleb128 0xb
 747 0048 39       		.uleb128 0x39
 748 0049 0B       		.uleb128 0xb
 749 004a 01       		.uleb128 0x1
 750 004b 13       		.uleb128 0x13
 751 004c 00       		.byte	0
 752 004d 00       		.byte	0
 753 004e 07       		.uleb128 0x7
 754 004f 0D       		.uleb128 0xd
 755 0050 00       		.byte	0
 756 0051 03       		.uleb128 0x3
 757 0052 08       		.uleb128 0x8
 758 0053 3A       		.uleb128 0x3a
 759 0054 0B       		.uleb128 0xb
 760 0055 3B       		.uleb128 0x3b
 761 0056 0B       		.uleb128 0xb
 762 0057 39       		.uleb128 0x39
GAS LISTING C:\Users\jisu8\AppData\Local\Temp\ccvTqu9a.s 			page 19


 763 0058 0B       		.uleb128 0xb
 764 0059 49       		.uleb128 0x49
 765 005a 13       		.uleb128 0x13
 766 005b 38       		.uleb128 0x38
 767 005c 0A       		.uleb128 0xa
 768 005d 00       		.byte	0
 769 005e 00       		.byte	0
 770 005f 08       		.uleb128 0x8
 771 0060 01       		.uleb128 0x1
 772 0061 01       		.byte	0x1
 773 0062 49       		.uleb128 0x49
 774 0063 13       		.uleb128 0x13
 775 0064 01       		.uleb128 0x1
 776 0065 13       		.uleb128 0x13
 777 0066 00       		.byte	0
 778 0067 00       		.byte	0
 779 0068 09       		.uleb128 0x9
 780 0069 21       		.uleb128 0x21
 781 006a 00       		.byte	0
 782 006b 00       		.byte	0
 783 006c 00       		.byte	0
 784 006d 0A       		.uleb128 0xa
 785 006e 34       		.uleb128 0x34
 786 006f 00       		.byte	0
 787 0070 03       		.uleb128 0x3
 788 0071 08       		.uleb128 0x8
 789 0072 3A       		.uleb128 0x3a
 790 0073 0B       		.uleb128 0xb
 791 0074 3B       		.uleb128 0x3b
 792 0075 0B       		.uleb128 0xb
 793 0076 39       		.uleb128 0x39
 794 0077 0B       		.uleb128 0xb
 795 0078 49       		.uleb128 0x49
 796 0079 13       		.uleb128 0x13
 797 007a 3F       		.uleb128 0x3f
 798 007b 0C       		.uleb128 0xc
 799 007c 3C       		.uleb128 0x3c
 800 007d 0C       		.uleb128 0xc
 801 007e 00       		.byte	0
 802 007f 00       		.byte	0
 803 0080 0B       		.uleb128 0xb
 804 0081 21       		.uleb128 0x21
 805 0082 00       		.byte	0
 806 0083 49       		.uleb128 0x49
 807 0084 13       		.uleb128 0x13
 808 0085 2F       		.uleb128 0x2f
 809 0086 0B       		.uleb128 0xb
 810 0087 00       		.byte	0
 811 0088 00       		.byte	0
 812 0089 0C       		.uleb128 0xc
 813 008a 34       		.uleb128 0x34
 814 008b 00       		.byte	0
 815 008c 03       		.uleb128 0x3
 816 008d 08       		.uleb128 0x8
 817 008e 3A       		.uleb128 0x3a
 818 008f 0B       		.uleb128 0xb
 819 0090 3B       		.uleb128 0x3b
GAS LISTING C:\Users\jisu8\AppData\Local\Temp\ccvTqu9a.s 			page 20


 820 0091 05       		.uleb128 0x5
 821 0092 39       		.uleb128 0x39
 822 0093 0B       		.uleb128 0xb
 823 0094 49       		.uleb128 0x49
 824 0095 13       		.uleb128 0x13
 825 0096 3F       		.uleb128 0x3f
 826 0097 0C       		.uleb128 0xc
 827 0098 3C       		.uleb128 0x3c
 828 0099 0C       		.uleb128 0xc
 829 009a 00       		.byte	0
 830 009b 00       		.byte	0
 831 009c 0D       		.uleb128 0xd
 832 009d 04       		.uleb128 0x4
 833 009e 01       		.byte	0x1
 834 009f 3E       		.uleb128 0x3e
 835 00a0 0B       		.uleb128 0xb
 836 00a1 0B       		.uleb128 0xb
 837 00a2 0B       		.uleb128 0xb
 838 00a3 49       		.uleb128 0x49
 839 00a4 13       		.uleb128 0x13
 840 00a5 3A       		.uleb128 0x3a
 841 00a6 0B       		.uleb128 0xb
 842 00a7 3B       		.uleb128 0x3b
 843 00a8 0B       		.uleb128 0xb
 844 00a9 39       		.uleb128 0x39
 845 00aa 0B       		.uleb128 0xb
 846 00ab 01       		.uleb128 0x1
 847 00ac 13       		.uleb128 0x13
 848 00ad 00       		.byte	0
 849 00ae 00       		.byte	0
 850 00af 0E       		.uleb128 0xe
 851 00b0 28       		.uleb128 0x28
 852 00b1 00       		.byte	0
 853 00b2 03       		.uleb128 0x3
 854 00b3 08       		.uleb128 0x8
 855 00b4 1C       		.uleb128 0x1c
 856 00b5 0B       		.uleb128 0xb
 857 00b6 00       		.byte	0
 858 00b7 00       		.byte	0
 859 00b8 0F       		.uleb128 0xf
 860 00b9 28       		.uleb128 0x28
 861 00ba 00       		.byte	0
 862 00bb 03       		.uleb128 0x3
 863 00bc 08       		.uleb128 0x8
 864 00bd 1C       		.uleb128 0x1c
 865 00be 06       		.uleb128 0x6
 866 00bf 00       		.byte	0
 867 00c0 00       		.byte	0
 868 00c1 10       		.uleb128 0x10
 869 00c2 34       		.uleb128 0x34
 870 00c3 00       		.byte	0
 871 00c4 03       		.uleb128 0x3
 872 00c5 08       		.uleb128 0x8
 873 00c6 3A       		.uleb128 0x3a
 874 00c7 0B       		.uleb128 0xb
 875 00c8 3B       		.uleb128 0x3b
 876 00c9 0B       		.uleb128 0xb
GAS LISTING C:\Users\jisu8\AppData\Local\Temp\ccvTqu9a.s 			page 21


 877 00ca 39       		.uleb128 0x39
 878 00cb 0B       		.uleb128 0xb
 879 00cc 49       		.uleb128 0x49
 880 00cd 13       		.uleb128 0x13
 881 00ce 3F       		.uleb128 0x3f
 882 00cf 0C       		.uleb128 0xc
 883 00d0 02       		.uleb128 0x2
 884 00d1 0A       		.uleb128 0xa
 885 00d2 00       		.byte	0
 886 00d3 00       		.byte	0
 887 00d4 11       		.uleb128 0x11
 888 00d5 2E       		.uleb128 0x2e
 889 00d6 01       		.byte	0x1
 890 00d7 3F       		.uleb128 0x3f
 891 00d8 0C       		.uleb128 0xc
 892 00d9 03       		.uleb128 0x3
 893 00da 08       		.uleb128 0x8
 894 00db 3A       		.uleb128 0x3a
 895 00dc 0B       		.uleb128 0xb
 896 00dd 3B       		.uleb128 0x3b
 897 00de 0B       		.uleb128 0xb
 898 00df 39       		.uleb128 0x39
 899 00e0 0B       		.uleb128 0xb
 900 00e1 49       		.uleb128 0x49
 901 00e2 13       		.uleb128 0x13
 902 00e3 11       		.uleb128 0x11
 903 00e4 01       		.uleb128 0x1
 904 00e5 12       		.uleb128 0x12
 905 00e6 01       		.uleb128 0x1
 906 00e7 40       		.uleb128 0x40
 907 00e8 06       		.uleb128 0x6
 908 00e9 9642     		.uleb128 0x2116
 909 00eb 0C       		.uleb128 0xc
 910 00ec 01       		.uleb128 0x1
 911 00ed 13       		.uleb128 0x13
 912 00ee 00       		.byte	0
 913 00ef 00       		.byte	0
 914 00f0 12       		.uleb128 0x12
 915 00f1 34       		.uleb128 0x34
 916 00f2 00       		.byte	0
 917 00f3 03       		.uleb128 0x3
 918 00f4 08       		.uleb128 0x8
 919 00f5 3A       		.uleb128 0x3a
 920 00f6 0B       		.uleb128 0xb
 921 00f7 3B       		.uleb128 0x3b
 922 00f8 0B       		.uleb128 0xb
 923 00f9 39       		.uleb128 0x39
 924 00fa 0B       		.uleb128 0xb
 925 00fb 49       		.uleb128 0x49
 926 00fc 13       		.uleb128 0x13
 927 00fd 02       		.uleb128 0x2
 928 00fe 0A       		.uleb128 0xa
 929 00ff 00       		.byte	0
 930 0100 00       		.byte	0
 931 0101 00       		.byte	0
 932              		.section	.debug_loc,"dr"
 933              	Ldebug_loc0:
GAS LISTING C:\Users\jisu8\AppData\Local\Temp\ccvTqu9a.s 			page 22


 934              	LLST0:
 935 0000 00000000 		.long	LFB19-Ltext0
 936 0004 01000000 		.long	LCFI0-Ltext0
 937 0008 0200     		.word	0x2
 938 000a 74       		.byte	0x74
 939 000b 04       		.sleb128 4
 940 000c 01000000 		.long	LCFI0-Ltext0
 941 0010 03000000 		.long	LCFI1-Ltext0
 942 0014 0200     		.word	0x2
 943 0016 74       		.byte	0x74
 944 0017 08       		.sleb128 8
 945 0018 03000000 		.long	LCFI1-Ltext0
 946 001c 4F010000 		.long	LCFI2-Ltext0
 947 0020 0200     		.word	0x2
 948 0022 75       		.byte	0x75
 949 0023 08       		.sleb128 8
 950 0024 4F010000 		.long	LCFI2-Ltext0
 951 0028 50010000 		.long	LFE19-Ltext0
 952 002c 0200     		.word	0x2
 953 002e 74       		.byte	0x74
 954 002f 04       		.sleb128 4
 955 0030 00000000 		.long	0
 956 0034 00000000 		.long	0
 957              		.section	.debug_aranges,"dr"
 958 0000 1C000000 		.long	0x1c
 959 0004 0200     		.word	0x2
 960 0006 00000000 		.secrel32	Ldebug_info0
 961 000a 04       		.byte	0x4
 962 000b 00       		.byte	0
 963 000c 0000     		.word	0
 964 000e 0000     		.word	0
 965 0010 00000000 		.long	Ltext0
 966 0014 50010000 		.long	Letext0-Ltext0
 967 0018 00000000 		.long	0
 968 001c 00000000 		.long	0
 969              		.section	.debug_line,"dr"
 970              	Ldebug_line0:
 971 0000 FB000000 		.section	.debug_str,"dr"
 971      02009D00 
 971      00000101 
 971      FB0E0D00 
 971      01010101 
 972              		.ident	"GCC: (i686-posix-dwarf-rev0, Built by MinGW-W64 project) 8.1.0"
GAS LISTING C:\Users\jisu8\AppData\Local\Temp\ccvTqu9a.s 			page 23


DEFINED SYMBOLS
                            *ABS*:00000000 PDF.c
                            *COM*:000000c8 _filepath
C:\Users\jisu8\AppData\Local\Temp\ccvTqu9a.s:28     .text:00000000 _main

UNDEFINED SYMBOLS
___main
_sprintf
_stbi_load
_printf
_puts
_clock
_ReadBarcode
_system
