GAS LISTING C:\Users\jisu8\AppData\Local\Temp\cc0XR9sR.s 			page 1


   1              		.file	"PDF.c"
   2              		.text
   3              	Ltext0:
   4              		.comm	_filepath, 200, 5
   6              		.section .rdata,"dr"
   7              	LC0:
   8 0000 2E2F696D 		.ascii "./images/22.jpg\0"
   8      61676573 
   8      2F32322E 
   8      6A706700 
   9              	LC1:
  10 0010 25642C25 		.ascii "%d,%d,%d\0"
  10      642C2564 
  10      00
  11              	LC2:
  12 0019 4661696C 		.ascii "Failed to read image: %s\12\0"
  12      65642074 
  12      6F207265 
  12      61642069 
  12      6D616765 
  13              	LC3:
  14 0033 3D3D3D3D 		.ascii "======TIME to decode=====\0"
  14      3D3D5449 
  14      4D452074 
  14      6F206465 
  14      636F6465 
  15              	LC4:
  16 004d 61646472 		.ascii "address : %x \12\0"
  16      65737320 
  16      3A202578 
  16      200A00
  17              	LC5:
  18 005c 546F7461 		.ascii "Total Time = %3.2f msec.\15\12\0"
  18      6C205469 
  18      6D65203D 
  18      2025332E 
  18      3266206D 
  19              	LC6:
  20 0077 3D3D3D3D 		.ascii "=========================\12\0"
  20      3D3D3D3D 
  20      3D3D3D3D 
  20      3D3D3D3D 
  20      3D3D3D3D 
  21              	LC7:
  22 0092 54657874 		.ascii "Text:     \"%s\"\12\0"
  22      3A202020 
  22      20202225 
  22      73220A00 
  23              	LC8:
  24 00a2 466F726D 		.ascii "Format:   %s\12\0"
  24      61743A20 
  24      20202573 
  24      0A00
  25              		.align 4
  26              	LC9:
  27 00b0 506F7369 		.ascii "Position: %dx%d %dx%d %dx%d %dx%d\12\0"
  27      74696F6E 
GAS LISTING C:\Users\jisu8\AppData\Local\Temp\cc0XR9sR.s 			page 2


  27      3A202564 
  27      78256420 
  27      25647825 
  28              	LC10:
  29 00d3 526F7461 		.ascii "Rotation: %d\0"
  29      74696F6E 
  29      3A202564 
  29      00
  30              	LC11:
  31 00e0 20646567 		.ascii " deg\0"
  31      00
  32              	LC12:
  33 00e5 4572726F 		.ascii "Error:    %s\12\0"
  33      723A2020 
  33      20202573 
  33      0A00
  34              	LC13:
  35 00f3 4543204C 		.ascii "EC Level: %s\12\0"
  35      6576656C 
  35      3A202573 
  35      0A00
  36 0101 000000   		.align 4
  37              	LC14:
  38 0104 52656164 		.ascii "Reader Initialisation/Programming\0"
  38      65722049 
  38      6E697469 
  38      616C6973 
  38      6174696F 
  39              	LC15:
  40 0126 70617573 		.ascii "pause\0"
  40      6500
  41              		.text
  42              		.globl	_main
  44              	_main:
  45              	LFB19:
  46              		.file 1 "PDF.c"
   1:PDF.c         **** /*
   2:PDF.c         **** * Copyright 2016 Nu-book Inc.
   3:PDF.c         **** *
   4:PDF.c         **** * Licensed under the Apache License, Version 2.0 (the "License");
   5:PDF.c         **** * you may not use this file except in compliance with the License.
   6:PDF.c         **** * You may obtain a copy of the License at
   7:PDF.c         **** *
   8:PDF.c         **** *      http://www.apache.org/licenses/LICENSE-2.0
   9:PDF.c         **** *
  10:PDF.c         **** * Unless required by applicable law or agreed to in writing, software
  11:PDF.c         **** * distributed under the License is distributed on an "AS IS" BASIS,
  12:PDF.c         **** * WITHOUT WARRANTIES OR CONDITIONS OF ANY KIND, either express or implied.
  13:PDF.c         **** * See the License for the specific language governing permissions and
  14:PDF.c         **** * limitations under the License.
  15:PDF.c         **** */
  16:PDF.c         **** 
  17:PDF.c         **** #include <stdio.h>
  18:PDF.c         **** #include <time.h>
  19:PDF.c         **** #include "Result.h"
  20:PDF.c         **** 
  21:PDF.c         **** #include "thirdparty/stb_image.h"
GAS LISTING C:\Users\jisu8\AppData\Local\Temp\cc0XR9sR.s 			page 3


  22:PDF.c         **** #include "src/ReadBarcode.h"
  23:PDF.c         **** 
  24:PDF.c         **** char filepath[200];
  25:PDF.c         **** #define FILE_TEST 		(7) 
  26:PDF.c         **** // 1 - OK
  27:PDF.c         **** // 2 - Array Overflow
  28:PDF.c         **** // 3 - OK
  29:PDF.c         **** // 4 - OK지만, text utf8 변환 필요
  30:PDF.c         **** // 5 - OK지만, text utf8 변환 필요
  31:PDF.c         **** // 6 - NULL 변환(CPP 프로그램도 에러 반환)
  32:PDF.c         **** // 7 - vertical trap
  33:PDF.c         **** 
  34:PDF.c         **** int main()
  35:PDF.c         **** {
  47              		.loc 1 35 1
  48              		.cfi_startproc
  49 0000 55       		pushl	%ebp
  50              	LCFI0:
  51              		.cfi_def_cfa_offset 8
  52              		.cfi_offset 5, -8
  53 0001 89E5     		movl	%esp, %ebp
  54              	LCFI1:
  55              		.cfi_def_cfa_register 5
  56 0003 57       		pushl	%edi
  57 0004 56       		pushl	%esi
  58 0005 53       		pushl	%ebx
  59 0006 83E4F0   		andl	$-16, %esp
  60 0009 81ECF000 		subl	$240, %esp
  60      0000
  61              		.cfi_offset 7, -12
  62              		.cfi_offset 6, -16
  63              		.cfi_offset 3, -20
  64              		.loc 1 35 1
  65 000f E8000000 		call	___main
  65      00
  66              	LVL0:
  36:PDF.c         **** 	double startClock;
  37:PDF.c         ****     int width, height, channels;
  38:PDF.c         **** 	unsigned char *buffer = NULL;
  67              		.loc 1 38 17
  68 0014 C78424EC 		movl	$0, 236(%esp)
  68      00000000 
  68      000000
  39:PDF.c         ****     uint8_t angleEscape = 0;
  69              		.loc 1 39 13
  70 001f C68424EB 		movb	$0, 235(%esp)
  70      00000000 
  40:PDF.c         ****     int ret = 0;
  71              		.loc 1 40 9
  72 0027 C78424E4 		movl	$0, 228(%esp)
  72      00000000 
  72      000000
  41:PDF.c         ****     // need to Test 7 images
  42:PDF.c         ****     #if   (FILE_TEST == 1)
  43:PDF.c         ****     sprintf(filepath,"./images/01.png");
  44:PDF.c         ****     #elif (FILE_TEST == 2)
  45:PDF.c         ****     sprintf(filepath,"./images/07.png");
GAS LISTING C:\Users\jisu8\AppData\Local\Temp\cc0XR9sR.s 			page 4


  46:PDF.c         ****     #elif (FILE_TEST == 3)
  47:PDF.c         ****     sprintf(filepath,"./images/10.png");
  48:PDF.c         ****     #elif (FILE_TEST == 4)
  49:PDF.c         ****     sprintf(filepath,"./images/14.png");
  50:PDF.c         ****     #elif (FILE_TEST == 5)
  51:PDF.c         ****     sprintf(filepath,"./images/20.bmp");
  52:PDF.c         ****     #elif (FILE_TEST == 6)
  53:PDF.c         ****     sprintf(filepath,"./images/21.jpg"); // Sample of No Decode
  54:PDF.c         ****     #elif (FILE_TEST == 7)
  55:PDF.c         ****     sprintf(filepath,"./images/22.jpg"); // Ecc Zero - Error with Trans
  73              		.loc 1 55 5
  74 0032 C7442404 		movl	$LC0, 4(%esp)
  74      00000000 
  75 003a C7042400 		movl	$_filepath, (%esp)
  75      000000
  76 0041 E8000000 		call	_sprintf
  76      00
  56:PDF.c         ****     #endif
  57:PDF.c         **** 
  58:PDF.c         ****     buffer = stbi_load(filepath,&width, &height, &channels, 4);
  77              		.loc 1 58 14
  78 0046 C7442410 		movl	$4, 16(%esp)
  78      04000000 
  79 004e 8D8424CC 		leal	204(%esp), %eax
  79      000000
  80 0055 8944240C 		movl	%eax, 12(%esp)
  81 0059 8D8424D0 		leal	208(%esp), %eax
  81      000000
  82 0060 89442408 		movl	%eax, 8(%esp)
  83 0064 8D8424D4 		leal	212(%esp), %eax
  83      000000
  84 006b 89442404 		movl	%eax, 4(%esp)
  85 006f C7042400 		movl	$_filepath, (%esp)
  85      000000
  86 0076 E8000000 		call	_stbi_load
  86      00
  87 007b 898424EC 		movl	%eax, 236(%esp)
  87      000000
  59:PDF.c         **** 
  60:PDF.c         ****     printf("%d,%d,%d",width,height,channels);
  88              		.loc 1 60 5
  89 0082 8B8C24CC 		movl	204(%esp), %ecx
  89      000000
  90 0089 8B9424D0 		movl	208(%esp), %edx
  90      000000
  91 0090 8B8424D4 		movl	212(%esp), %eax
  91      000000
  92 0097 894C240C 		movl	%ecx, 12(%esp)
  93 009b 89542408 		movl	%edx, 8(%esp)
  94 009f 89442404 		movl	%eax, 4(%esp)
  95 00a3 C7042410 		movl	$LC1, (%esp)
  95      000000
  96 00aa E8000000 		call	_printf
  96      00
  61:PDF.c         **** 
  62:PDF.c         **** 	if (buffer == NULL)
  97              		.loc 1 62 5
GAS LISTING C:\Users\jisu8\AppData\Local\Temp\cc0XR9sR.s 			page 5


  98 00af 83BC24EC 		cmpl	$0, 236(%esp)
  98      00000000 
  99 00b7 751E     		jne	L2
  63:PDF.c         **** 	{
  64:PDF.c         **** 		printf("Failed to read image: %s\n", filepath);
 100              		.loc 1 64 3
 101 00b9 C7442404 		movl	$_filepath, 4(%esp)
 101      00000000 
 102 00c1 C7042419 		movl	$LC2, (%esp)
 102      000000
 103 00c8 E8000000 		call	_printf
 103      00
  65:PDF.c         **** 		return -1;
 104              		.loc 1 65 10
 105 00cd B8FFFFFF 		movl	$-1, %eax
 105      FF
 106 00d2 E93B0200 		jmp	L5
 106      00
 107              	L2:
  66:PDF.c         **** 	}
  67:PDF.c         **** 
  68:PDF.c         **** 	printf("======TIME to decode=====\n");
 108              		.loc 1 68 2
 109 00d7 C7042433 		movl	$LC3, (%esp)
 109      000000
 110 00de E8000000 		call	_puts
 110      00
  69:PDF.c         **** 	startClock = clock();
 111              		.loc 1 69 15
 112 00e3 E8000000 		call	_clock
 112      00
 113 00e8 8944245C 		movl	%eax, 92(%esp)
 114              		.loc 1 69 13
 115 00ec DB44245C 		fildl	92(%esp)
 116 00f0 DD9C24D8 		fstpl	216(%esp)
 116      000000
  70:PDF.c         **** 
  71:PDF.c         ****     result_t result = ReadBarcode(buffer,width,height,RGBX);
 117              		.loc 1 71 23
 118 00f7 8B8C24D0 		movl	208(%esp), %ecx
 118      000000
 119 00fe 8B9424D4 		movl	212(%esp), %edx
 119      000000
 120 0105 8D842480 		leal	128(%esp), %eax
 120      000000
 121 010c C7442410 		movl	$67109122, 16(%esp)
 121      02010004 
 122 0114 894C240C 		movl	%ecx, 12(%esp)
 123 0118 89542408 		movl	%edx, 8(%esp)
 124 011c 8B9424EC 		movl	236(%esp), %edx
 124      000000
 125 0123 89542404 		movl	%edx, 4(%esp)
 126 0127 890424   		movl	%eax, (%esp)
 127 012a E8000000 		call	_ReadBarcode
 127      00
  72:PDF.c         ****     printf("address : %x \n",result);
 128              		.loc 1 72 5
GAS LISTING C:\Users\jisu8\AppData\Local\Temp\cc0XR9sR.s 			page 6


 129 012f 8D442404 		leal	4(%esp), %eax
 130 0133 8D942480 		leal	128(%esp), %edx
 130      000000
 131 013a B9130000 		movl	$19, %ecx
 131      00
 132 013f 89C7     		movl	%eax, %edi
 133 0141 89D6     		movl	%edx, %esi
 134 0143 F3A5     		rep movsl
 135 0145 C704244D 		movl	$LC4, (%esp)
 135      000000
 136 014c E8000000 		call	_printf
 136      00
  73:PDF.c         **** 
  74:PDF.c         **** 	printf("Total Time = %3.2f msec.\r\n", clock() - startClock);
 137              		.loc 1 74 41
 138 0151 E8000000 		call	_clock
 138      00
 139 0156 8944245C 		movl	%eax, 92(%esp)
 140              		.loc 1 74 2
 141 015a DB44245C 		fildl	92(%esp)
 142 015e DCA424D8 		fsubl	216(%esp)
 142      000000
 143 0165 DD5C2404 		fstpl	4(%esp)
 144 0169 C704245C 		movl	$LC5, (%esp)
 144      000000
 145 0170 E8000000 		call	_printf
 145      00
  75:PDF.c         **** 	printf("=========================\n\n");
 146              		.loc 1 75 2
 147 0175 C7042477 		movl	$LC6, (%esp)
 147      000000
 148 017c E8000000 		call	_puts
 148      00
  76:PDF.c         **** 
  77:PDF.c         ****     ret |= result._status; 
 149              		.loc 1 77 18
 150 0181 8B942480 		movl	128(%esp), %edx
 150      000000
 151              		.loc 1 77 9
 152 0188 8B8424E4 		movl	228(%esp), %eax
 152      000000
 153 018f 09D0     		orl	%edx, %eax
 154 0191 898424E4 		movl	%eax, 228(%esp)
 154      000000
  78:PDF.c         **** 
  79:PDF.c         ****     char printarray[20] = {0,};
 155              		.loc 1 79 10
 156 0198 C744246C 		movl	$0, 108(%esp)
 156      00000000 
 157 01a0 C7442470 		movl	$0, 112(%esp)
 157      00000000 
 158 01a8 C7442474 		movl	$0, 116(%esp)
 158      00000000 
 159 01b0 C7442478 		movl	$0, 120(%esp)
 159      00000000 
 160 01b8 C744247C 		movl	$0, 124(%esp)
 160      00000000 
GAS LISTING C:\Users\jisu8\AppData\Local\Temp\cc0XR9sR.s 			page 7


  80:PDF.c         ****     printf("Text:     \"%s\"\n",result._text, angleEscape);
 161              		.loc 1 80 5
 162 01c0 0FB69424 		movzbl	235(%esp), %edx
 162      EB000000 
 163 01c8 8B842488 		movl	136(%esp), %eax
 163      000000
 164 01cf 89542408 		movl	%edx, 8(%esp)
 165 01d3 89442404 		movl	%eax, 4(%esp)
 166 01d7 C7042492 		movl	$LC7, (%esp)
 166      000000
 167 01de E8000000 		call	_printf
 167      00
  81:PDF.c         ****     printf("Format:   %s\n",ToString_Format(result._format,printarray));
 168              		.loc 1 81 5
 169 01e3 8B842484 		movl	132(%esp), %eax
 169      000000
 170 01ea 8D54246C 		leal	108(%esp), %edx
 171 01ee 89542404 		movl	%edx, 4(%esp)
 172 01f2 890424   		movl	%eax, (%esp)
 173 01f5 E8000000 		call	_ToString_Format
 173      00
 174 01fa 89442404 		movl	%eax, 4(%esp)
 175 01fe C70424A2 		movl	$LC8, (%esp)
 175      000000
 176 0205 E8000000 		call	_printf
 176      00
  82:PDF.c         ****     printf("Position: %dx%d %dx%d %dx%d %dx%d\n",result._position[0].x,result._position[0].y,result
 177              		.loc 1 82 5
 178 020a 8B9424A8 		movl	168(%esp), %edx
 178      000000
 179 0211 8B8424A4 		movl	164(%esp), %eax
 179      000000
 180 0218 8944245C 		movl	%eax, 92(%esp)
 181 021c 8B9C24A0 		movl	160(%esp), %ebx
 181      000000
 182 0223 895C2458 		movl	%ebx, 88(%esp)
 183 0227 8BBC249C 		movl	156(%esp), %edi
 183      000000
 184 022e 8BB42498 		movl	152(%esp), %esi
 184      000000
 185 0235 8B9C2494 		movl	148(%esp), %ebx
 185      000000
 186 023c 8B8C2490 		movl	144(%esp), %ecx
 186      000000
 187 0243 8B84248C 		movl	140(%esp), %eax
 187      000000
 188 024a 89542420 		movl	%edx, 32(%esp)
 189 024e 8B54245C 		movl	92(%esp), %edx
 190 0252 8954241C 		movl	%edx, 28(%esp)
 191 0256 8B542458 		movl	88(%esp), %edx
 192 025a 89542418 		movl	%edx, 24(%esp)
 193 025e 897C2414 		movl	%edi, 20(%esp)
 194 0262 89742410 		movl	%esi, 16(%esp)
 195 0266 895C240C 		movl	%ebx, 12(%esp)
 196 026a 894C2408 		movl	%ecx, 8(%esp)
 197 026e 89442404 		movl	%eax, 4(%esp)
 198 0272 C70424B0 		movl	$LC9, (%esp)
GAS LISTING C:\Users\jisu8\AppData\Local\Temp\cc0XR9sR.s 			page 8


 198      000000
 199 0279 E8000000 		call	_printf
 199      00
  83:PDF.c         ****     printf("Rotation: %d",Result_Orientation(&result));
 200              		.loc 1 83 5
 201 027e 8D842480 		leal	128(%esp), %eax
 201      000000
 202 0285 890424   		movl	%eax, (%esp)
 203 0288 E8000000 		call	_Result_Orientation
 203      00
 204 028d 89442404 		movl	%eax, 4(%esp)
 205 0291 C70424D3 		movl	$LC10, (%esp)
 205      000000
 206 0298 E8000000 		call	_printf
 206      00
  84:PDF.c         ****     printf(" deg\n");
 207              		.loc 1 84 5
 208 029d C70424E0 		movl	$LC11, (%esp)
 208      000000
 209 02a4 E8000000 		call	_puts
 209      00
  85:PDF.c         ****     printf("Error:    %s\n",ToString_Status(result._status,printarray));
 210              		.loc 1 85 5
 211 02a9 8B842480 		movl	128(%esp), %eax
 211      000000
 212 02b0 8D54246C 		leal	108(%esp), %edx
 213 02b4 89542404 		movl	%edx, 4(%esp)
 214 02b8 890424   		movl	%eax, (%esp)
 215 02bb E8000000 		call	_ToString_Status
 215      00
 216 02c0 89442404 		movl	%eax, 4(%esp)
 217 02c4 C70424E5 		movl	$LC12, (%esp)
 217      000000
 218 02cb E8000000 		call	_printf
 218      00
  86:PDF.c         ****     #if 0
  87:PDF.c         **** 	auto printOptional = [](const char* key, const std::string& v)
  88:PDF.c         **** 	{
  89:PDF.c         **** 		if (!v.empty())
  90:PDF.c         **** 				std::cout << key << v << "\n";
  91:PDF.c         **** 	};
  92:PDF.c         ****     #endif
  93:PDF.c         **** 
  94:PDF.c         **** 	printf("EC Level: %s\n", result._ecLevel);
 219              		.loc 1 94 2
 220 02d0 8B8424B4 		movl	180(%esp), %eax
 220      000000
 221 02d7 89442404 		movl	%eax, 4(%esp)
 222 02db C70424F3 		movl	$LC13, (%esp)
 222      000000
 223 02e2 E8000000 		call	_printf
 223      00
  95:PDF.c         **** 
  96:PDF.c         **** 	if (result._readerInit)
 224              		.loc 1 96 12
 225 02e7 0FB68424 		movzbl	200(%esp), %eax
 225      C8000000 
GAS LISTING C:\Users\jisu8\AppData\Local\Temp\cc0XR9sR.s 			page 9


 226              		.loc 1 96 5
 227 02ef 84C0     		testb	%al, %al
 228 02f1 740C     		je	L4
  97:PDF.c         ****     {
  98:PDF.c         ****         printf("Reader Initialisation/Programming\n");
 229              		.loc 1 98 9
 230 02f3 C7042404 		movl	$LC14, (%esp)
 230      010000
 231 02fa E8000000 		call	_puts
 231      00
 232              	L4:
  99:PDF.c         ****     }
 100:PDF.c         **** 
 101:PDF.c         ****     system("pause");
 233              		.loc 1 101 5
 234 02ff C7042426 		movl	$LC15, (%esp)
 234      010000
 235 0306 E8000000 		call	_system
 235      00
 102:PDF.c         **** 
 103:PDF.c         ****     return ret;
 236              		.loc 1 103 12
 237 030b 8B8424E4 		movl	228(%esp), %eax
 237      000000
 238              	L5:
 104:PDF.c         **** }
 239              		.loc 1 104 1 discriminator 1
 240 0312 8D65F4   		leal	-12(%ebp), %esp
 241 0315 5B       		popl	%ebx
 242              		.cfi_restore 3
 243 0316 5E       		popl	%esi
 244              		.cfi_restore 6
 245 0317 5F       		popl	%edi
 246              		.cfi_restore 7
 247 0318 5D       		popl	%ebp
 248              	LCFI2:
 249              		.cfi_restore 5
 250              		.cfi_def_cfa 4, 4
 251 0319 C3       		ret
 252              		.cfi_endproc
 253              	LFE19:
 254              	Letext0:
 255              		.file 2 "D:/3.tools/mingw/mingw32/i686-w64-mingw32/include/stdio.h"
 256              		.file 3 "D:/3.tools/mingw/mingw32/i686-w64-mingw32/include/crtdefs.h"
 257              		.file 4 "D:/3.tools/mingw/mingw32/i686-w64-mingw32/include/time.h"
 258              		.file 5 "src/DecodeStatus.h"
 259              		.file 6 "src/BarcodeFormat.h"
 260              		.file 7 "D:/3.tools/mingw/mingw32/i686-w64-mingw32/include/stdint.h"
 261              		.file 8 "src/ResultPoint.h"
 262              		.file 9 "src/StructuredAppend.h"
 263              		.file 10 "src/Result.h"
 264              		.file 11 "D:/3.tools/mingw/mingw32/i686-w64-mingw32/include/stdlib.h"
 265              		.file 12 "D:/3.tools/mingw/mingw32/i686-w64-mingw32/include/malloc.h"
 266              		.file 13 "src/ReadBarcode.h"