GAS LISTING C:\Users\jisu8\AppData\Local\Temp\ccfTcNY5.s 			page 1


   1              		.file	"PDFBoundingBox.c"
   2              		.text
   3              	Ltext0:
   5              	_BoundingBox_Init:
   6              	LFB4:
   7              		.file 1 "src/pdf417/PDFBoundingBox.c"
   1:src/pdf417/PDFBoundingBox.c **** /*
   2:src/pdf417/PDFBoundingBox.c **** * Copyright 2016 Nu-book Inc.
   3:src/pdf417/PDFBoundingBox.c **** * Copyright 2016 ZXing authors
   4:src/pdf417/PDFBoundingBox.c **** *
   5:src/pdf417/PDFBoundingBox.c **** * Licensed under the Apache License, Version 2.0 (the "License");
   6:src/pdf417/PDFBoundingBox.c **** * you may not use this file except in compliance with the License.
   7:src/pdf417/PDFBoundingBox.c **** * You may obtain a copy of the License at
   8:src/pdf417/PDFBoundingBox.c **** *
   9:src/pdf417/PDFBoundingBox.c **** *      http://www.apache.org/licenses/LICENSE-2.0
  10:src/pdf417/PDFBoundingBox.c **** *
  11:src/pdf417/PDFBoundingBox.c **** * Unless required by applicable law or agreed to in writing, software
  12:src/pdf417/PDFBoundingBox.c **** * distributed under the License is distributed on an "AS IS" BASIS,
  13:src/pdf417/PDFBoundingBox.c **** * WITHOUT WARRANTIES OR CONDITIONS OF ANY KIND, either express or implied.
  14:src/pdf417/PDFBoundingBox.c **** * See the License for the specific language governing permissions and
  15:src/pdf417/PDFBoundingBox.c **** * limitations under the License.
  16:src/pdf417/PDFBoundingBox.c **** */
  17:src/pdf417/PDFBoundingBox.c **** 
  18:src/pdf417/PDFBoundingBox.c **** #include "PDFBoundingBox.h"
  19:src/pdf417/PDFBoundingBox.c **** #include <stdint.h>
  20:src/pdf417/PDFBoundingBox.c **** #include <stdlib.h>
  21:src/pdf417/PDFBoundingBox.c **** 
  22:src/pdf417/PDFBoundingBox.c **** static void BoundingBox_Init(BoundingBox_t * result) 
  23:src/pdf417/PDFBoundingBox.c **** {
   8              		.loc 1 23 1
   9              		.cfi_startproc
  10 0000 55       		pushl	%ebp
  11              	LCFI0:
  12              		.cfi_def_cfa_offset 8
  13              		.cfi_offset 5, -8
  14 0001 89E5     		movl	%esp, %ebp
  15              	LCFI1:
  16              		.cfi_def_cfa_register 5
  24:src/pdf417/PDFBoundingBox.c **** 	result->_imgWidth = 0;
  17              		.loc 1 24 20
  18 0003 8B4508   		movl	8(%ebp), %eax
  19 0006 C7000000 		movl	$0, (%eax)
  19      0000
  25:src/pdf417/PDFBoundingBox.c **** 	result->_imgHeight = 0;
  20              		.loc 1 25 21
  21 000c 8B4508   		movl	8(%ebp), %eax
  22 000f C7400400 		movl	$0, 4(%eax)
  22      000000
  26:src/pdf417/PDFBoundingBox.c **** 	result->_minX = 0;
  23              		.loc 1 26 16
  24 0016 8B4508   		movl	8(%ebp), %eax
  25 0019 C7403800 		movl	$0, 56(%eax)
  25      000000
  27:src/pdf417/PDFBoundingBox.c **** 	result->_maxX = 0;
  26              		.loc 1 27 16
  27 0020 8B4508   		movl	8(%ebp), %eax
  28 0023 C7403C00 		movl	$0, 60(%eax)
GAS LISTING C:\Users\jisu8\AppData\Local\Temp\ccfTcNY5.s 			page 2


  28      000000
  28:src/pdf417/PDFBoundingBox.c **** 	result->_minY = 0;
  29              		.loc 1 28 16
  30 002a 8B4508   		movl	8(%ebp), %eax
  31 002d C7404000 		movl	$0, 64(%eax)
  31      000000
  29:src/pdf417/PDFBoundingBox.c **** 	result->_maxY = 0;
  32              		.loc 1 29 16
  33 0034 8B4508   		movl	8(%ebp), %eax
  34 0037 C7404400 		movl	$0, 68(%eax)
  34      000000
  30:src/pdf417/PDFBoundingBox.c **** }
  35              		.loc 1 30 1
  36 003e 90       		nop
  37 003f 5D       		popl	%ebp
  38              	LCFI2:
  39              		.cfi_restore 5
  40              		.cfi_def_cfa 4, 4
  41 0040 C3       		ret
  42              		.cfi_endproc
  43              	LFE4:
  44              		.globl	_Create
  46              	_Create:
  47              	LFB5:
  31:src/pdf417/PDFBoundingBox.c **** 
  32:src/pdf417/PDFBoundingBox.c **** uint8_t Create(int imgWidth, int imgHeight, const ResultPoint_t topLeft, const ResultPoint_t bottom
  33:src/pdf417/PDFBoundingBox.c **** {
  48              		.loc 1 33 1
  49              		.cfi_startproc
  50 0041 55       		pushl	%ebp
  51              	LCFI3:
  52              		.cfi_def_cfa_offset 8
  53              		.cfi_offset 5, -8
  54 0042 89E5     		movl	%esp, %ebp
  55              	LCFI4:
  56              		.cfi_def_cfa_register 5
  57 0044 83EC18   		subl	$24, %esp
  34:src/pdf417/PDFBoundingBox.c **** 	BoundingBox_Init(result);
  58              		.loc 1 34 2
  59 0047 8B4540   		movl	64(%ebp), %eax
  60 004a 890424   		movl	%eax, (%esp)
  61 004d E8AEFFFF 		call	_BoundingBox_Init
  61      FF
  35:src/pdf417/PDFBoundingBox.c **** 
  36:src/pdf417/PDFBoundingBox.c **** 	if ((topLeft.m_hasValue == 0 && topRight.m_hasValue == 0) ||
  62              		.loc 1 36 14
  63 0052 0FB64510 		movzbl	16(%ebp), %eax
  64              		.loc 1 36 5
  65 0056 84C0     		testb	%al, %al
  66 0058 7508     		jne	L3
  67              		.loc 1 36 42 discriminator 1
  68 005a 0FB64528 		movzbl	40(%ebp), %eax
  69              		.loc 1 36 31 discriminator 1
  70 005e 84C0     		testb	%al, %al
  71 0060 7430     		je	L4
  72              	L3:
  37:src/pdf417/PDFBoundingBox.c **** 		(bottomLeft.m_hasValue == 0 && bottomRight.m_hasValue == 0) ||
GAS LISTING C:\Users\jisu8\AppData\Local\Temp\ccfTcNY5.s 			page 3


  73              		.loc 1 37 14 discriminator 3
  74 0062 0FB6451C 		movzbl	28(%ebp), %eax
  36:src/pdf417/PDFBoundingBox.c **** 		(bottomLeft.m_hasValue == 0 && bottomRight.m_hasValue == 0) ||
  75              		.loc 1 36 60 discriminator 3
  76 0066 84C0     		testb	%al, %al
  77 0068 7508     		jne	L5
  78              		.loc 1 37 45
  79 006a 0FB64534 		movzbl	52(%ebp), %eax
  80              		.loc 1 37 31
  81 006e 84C0     		testb	%al, %al
  82 0070 7420     		je	L4
  83              	L5:
  38:src/pdf417/PDFBoundingBox.c **** 		(topLeft.m_hasValue != 0 && bottomLeft.m_hasValue == 0) ||
  84              		.loc 1 38 11 discriminator 1
  85 0072 0FB64510 		movzbl	16(%ebp), %eax
  37:src/pdf417/PDFBoundingBox.c **** 		(bottomLeft.m_hasValue == 0 && bottomRight.m_hasValue == 0) ||
  86              		.loc 1 37 63 discriminator 1
  87 0076 84C0     		testb	%al, %al
  88 0078 7408     		je	L6
  89              		.loc 1 38 41
  90 007a 0FB6451C 		movzbl	28(%ebp), %eax
  91              		.loc 1 38 28
  92 007e 84C0     		testb	%al, %al
  93 0080 7410     		je	L4
  94              	L6:
  39:src/pdf417/PDFBoundingBox.c **** 		(topRight.m_hasValue != 0 && bottomRight.m_hasValue == 0)) 
  95              		.loc 1 39 12 discriminator 1
  96 0082 0FB64528 		movzbl	40(%ebp), %eax
  38:src/pdf417/PDFBoundingBox.c **** 		(topLeft.m_hasValue != 0 && bottomLeft.m_hasValue == 0) ||
  97              		.loc 1 38 59 discriminator 1
  98 0086 84C0     		testb	%al, %al
  99 0088 740F     		je	L7
 100              		.loc 1 39 43
 101 008a 0FB64534 		movzbl	52(%ebp), %eax
 102              		.loc 1 39 29
 103 008e 84C0     		testb	%al, %al
 104 0090 7507     		jne	L7
 105              	L4:
  40:src/pdf417/PDFBoundingBox.c **** 	{
  41:src/pdf417/PDFBoundingBox.c **** 		return 0;
 106              		.loc 1 41 10
 107 0092 B8000000 		movl	$0, %eax
 107      00
 108 0097 EB75     		jmp	L8
 109              	L7:
  42:src/pdf417/PDFBoundingBox.c **** 	}
  43:src/pdf417/PDFBoundingBox.c **** 
  44:src/pdf417/PDFBoundingBox.c **** 	result->_imgWidth = imgWidth;
 110              		.loc 1 44 20
 111 0099 8B4540   		movl	64(%ebp), %eax
 112 009c 8B5508   		movl	8(%ebp), %edx
 113 009f 8910     		movl	%edx, (%eax)
  45:src/pdf417/PDFBoundingBox.c **** 	result->_imgHeight = imgHeight;
 114              		.loc 1 45 21
 115 00a1 8B4540   		movl	64(%ebp), %eax
 116 00a4 8B550C   		movl	12(%ebp), %edx
 117 00a7 895004   		movl	%edx, 4(%eax)
GAS LISTING C:\Users\jisu8\AppData\Local\Temp\ccfTcNY5.s 			page 4


  46:src/pdf417/PDFBoundingBox.c **** 	result->_topLeft = topLeft;
 118              		.loc 1 46 19
 119 00aa 8B4540   		movl	64(%ebp), %eax
 120 00ad 8B5510   		movl	16(%ebp), %edx
 121 00b0 895008   		movl	%edx, 8(%eax)
 122 00b3 8B5514   		movl	20(%ebp), %edx
 123 00b6 89500C   		movl	%edx, 12(%eax)
 124 00b9 8B5518   		movl	24(%ebp), %edx
 125 00bc 895010   		movl	%edx, 16(%eax)
  47:src/pdf417/PDFBoundingBox.c **** 	result->_bottomLeft = bottomLeft;
 126              		.loc 1 47 22
 127 00bf 8B4540   		movl	64(%ebp), %eax
 128 00c2 8B551C   		movl	28(%ebp), %edx
 129 00c5 895014   		movl	%edx, 20(%eax)
 130 00c8 8B5520   		movl	32(%ebp), %edx
 131 00cb 895018   		movl	%edx, 24(%eax)
 132 00ce 8B5524   		movl	36(%ebp), %edx
 133 00d1 89501C   		movl	%edx, 28(%eax)
  48:src/pdf417/PDFBoundingBox.c **** 	result->_topRight = topRight;
 134              		.loc 1 48 20
 135 00d4 8B4540   		movl	64(%ebp), %eax
 136 00d7 8B5528   		movl	40(%ebp), %edx
 137 00da 895020   		movl	%edx, 32(%eax)
 138 00dd 8B552C   		movl	44(%ebp), %edx
 139 00e0 895024   		movl	%edx, 36(%eax)
 140 00e3 8B5530   		movl	48(%ebp), %edx
 141 00e6 895028   		movl	%edx, 40(%eax)
  49:src/pdf417/PDFBoundingBox.c **** 	result->_bottomRight = bottomRight;
 142              		.loc 1 49 23
 143 00e9 8B4540   		movl	64(%ebp), %eax
 144 00ec 8B5534   		movl	52(%ebp), %edx
 145 00ef 89502C   		movl	%edx, 44(%eax)
 146 00f2 8B5538   		movl	56(%ebp), %edx
 147 00f5 895030   		movl	%edx, 48(%eax)
 148 00f8 8B553C   		movl	60(%ebp), %edx
 149 00fb 895034   		movl	%edx, 52(%eax)
  50:src/pdf417/PDFBoundingBox.c **** 	calculateMinMaxValues(result);
 150              		.loc 1 50 2
 151 00fe 8B4540   		movl	64(%ebp), %eax
 152 0101 890424   		movl	%eax, (%esp)
 153 0104 E8070000 		call	_calculateMinMaxValues
 153      00
  51:src/pdf417/PDFBoundingBox.c **** 
  52:src/pdf417/PDFBoundingBox.c **** 	return 1;//true
 154              		.loc 1 52 9
 155 0109 B8010000 		movl	$1, %eax
 155      00
 156              	L8:
  53:src/pdf417/PDFBoundingBox.c **** 
  54:src/pdf417/PDFBoundingBox.c **** }
 157              		.loc 1 54 1
 158 010e C9       		leave
 159              	LCFI5:
 160              		.cfi_restore 5
 161              		.cfi_def_cfa 4, 4
 162 010f C3       		ret
 163              		.cfi_endproc
GAS LISTING C:\Users\jisu8\AppData\Local\Temp\ccfTcNY5.s 			page 5


 164              	LFE5:
 165              		.globl	_calculateMinMaxValues
 167              	_calculateMinMaxValues:
 168              	LFB6:
  55:src/pdf417/PDFBoundingBox.c **** 
  56:src/pdf417/PDFBoundingBox.c **** void calculateMinMaxValues(BoundingBox_t * result)
  57:src/pdf417/PDFBoundingBox.c **** {
 169              		.loc 1 57 1
 170              		.cfi_startproc
 171 0110 55       		pushl	%ebp
 172              	LCFI6:
 173              		.cfi_def_cfa_offset 8
 174              		.cfi_offset 5, -8
 175 0111 89E5     		movl	%esp, %ebp
 176              	LCFI7:
 177              		.cfi_def_cfa_register 5
 178 0113 83EC0C   		subl	$12, %esp
  58:src/pdf417/PDFBoundingBox.c **** 	if (result->_topLeft.m_hasValue == 0) 
 179              		.loc 1 58 22
 180 0116 8B4508   		movl	8(%ebp), %eax
 181 0119 0FB64008 		movzbl	8(%eax), %eax
 182              		.loc 1 58 5
 183 011d 84C0     		testb	%al, %al
 184 011f 7528     		jne	L10
  59:src/pdf417/PDFBoundingBox.c **** 	{
  60:src/pdf417/PDFBoundingBox.c **** 		result->_topLeft.m_value.x = 0.f;
 185              		.loc 1 60 30
 186 0121 8B4508   		movl	8(%ebp), %eax
 187 0124 D9EE     		fldz
 188 0126 D9580C   		fstps	12(%eax)
  61:src/pdf417/PDFBoundingBox.c **** 		result->_topLeft.m_value.x = result->_topRight.m_value.y;
 189              		.loc 1 61 57
 190 0129 8B4508   		movl	8(%ebp), %eax
 191 012c D94028   		flds	40(%eax)
 192              		.loc 1 61 30
 193 012f 8B4508   		movl	8(%ebp), %eax
 194 0132 D9580C   		fstps	12(%eax)
  62:src/pdf417/PDFBoundingBox.c **** 		result->_bottomLeft.m_value.x = 0.f;
 195              		.loc 1 62 33
 196 0135 8B4508   		movl	8(%ebp), %eax
 197 0138 D9EE     		fldz
 198 013a D95818   		fstps	24(%eax)
  63:src/pdf417/PDFBoundingBox.c **** 		result->_bottomLeft.m_value.x = result->_bottomRight.m_value.y;
 199              		.loc 1 63 63
 200 013d 8B4508   		movl	8(%ebp), %eax
 201 0140 D94034   		flds	52(%eax)
 202              		.loc 1 63 33
 203 0143 8B4508   		movl	8(%ebp), %eax
 204 0146 D95818   		fstps	24(%eax)
 205              	L10:
  64:src/pdf417/PDFBoundingBox.c **** 	}
  65:src/pdf417/PDFBoundingBox.c **** 	if (result->_topRight.m_hasValue == 0) 
 206              		.loc 1 65 23
 207 0149 8B4508   		movl	8(%ebp), %eax
 208 014c 0FB64020 		movzbl	32(%eax), %eax
 209              		.loc 1 65 5
 210 0150 84C0     		testb	%al, %al
GAS LISTING C:\Users\jisu8\AppData\Local\Temp\ccfTcNY5.s 			page 6


 211 0152 7541     		jne	L11
  66:src/pdf417/PDFBoundingBox.c **** 	{
  67:src/pdf417/PDFBoundingBox.c **** 		result->_topRight.m_value.x = (float)(result->_imgWidth - 1);
 212              		.loc 1 67 47
 213 0154 8B4508   		movl	8(%ebp), %eax
 214 0157 8B00     		movl	(%eax), %eax
 215              		.loc 1 67 59
 216 0159 83E801   		subl	$1, %eax
 217              		.loc 1 67 33
 218 015c 8945F4   		movl	%eax, -12(%ebp)
 219 015f DB45F4   		fildl	-12(%ebp)
 220              		.loc 1 67 31
 221 0162 8B4508   		movl	8(%ebp), %eax
 222 0165 D95824   		fstps	36(%eax)
  68:src/pdf417/PDFBoundingBox.c **** 		result->_topRight.m_value.y = result->_topLeft.m_value.y;
 223              		.loc 1 68 57
 224 0168 8B4508   		movl	8(%ebp), %eax
 225 016b D94010   		flds	16(%eax)
 226              		.loc 1 68 31
 227 016e 8B4508   		movl	8(%ebp), %eax
 228 0171 D95828   		fstps	40(%eax)
  69:src/pdf417/PDFBoundingBox.c **** 		result->_bottomRight.m_value.x = (float)(result->_imgHeight - 1); 
 229              		.loc 1 69 50
 230 0174 8B4508   		movl	8(%ebp), %eax
 231 0177 8B4004   		movl	4(%eax), %eax
 232              		.loc 1 69 63
 233 017a 83E801   		subl	$1, %eax
 234              		.loc 1 69 36
 235 017d 8945F4   		movl	%eax, -12(%ebp)
 236 0180 DB45F4   		fildl	-12(%ebp)
 237              		.loc 1 69 34
 238 0183 8B4508   		movl	8(%ebp), %eax
 239 0186 D95830   		fstps	48(%eax)
  70:src/pdf417/PDFBoundingBox.c **** 		result->_bottomRight.m_value.y = result->_bottomLeft.m_value.y;
 240              		.loc 1 70 63
 241 0189 8B4508   		movl	8(%ebp), %eax
 242 018c D9401C   		flds	28(%eax)
 243              		.loc 1 70 34
 244 018f 8B4508   		movl	8(%ebp), %eax
 245 0192 D95834   		fstps	52(%eax)
 246              	L11:
  71:src/pdf417/PDFBoundingBox.c **** 	}
  72:src/pdf417/PDFBoundingBox.c **** 
  73:src/pdf417/PDFBoundingBox.c **** 	result->_minX = (int)(__min(result->_topLeft.m_value.x, result->_bottomLeft.m_value.x));
 247              		.loc 1 73 24
 248 0195 8B4508   		movl	8(%ebp), %eax
 249 0198 D9400C   		flds	12(%eax)
 250 019b 8B4508   		movl	8(%ebp), %eax
 251 019e D94018   		flds	24(%eax)
 252              		.loc 1 73 18
 253 01a1 DFF1     		fcomip	%st(1), %st
 254 01a3 DDD8     		fstp	%st(0)
 255 01a5 7622     		jbe	L28
 256              		.loc 1 73 24 discriminator 1
 257 01a7 8B4508   		movl	8(%ebp), %eax
 258 01aa D9400C   		flds	12(%eax)
 259              		.loc 1 73 18 discriminator 1
GAS LISTING C:\Users\jisu8\AppData\Local\Temp\ccfTcNY5.s 			page 7


 260 01ad D97DFE   		fnstcw	-2(%ebp)
 261 01b0 0FB745FE 		movzwl	-2(%ebp), %eax
 262 01b4 80CC0C   		orb	$12, %ah
 263 01b7 668945FC 		movw	%ax, -4(%ebp)
 264 01bb D96DFC   		fldcw	-4(%ebp)
 265 01be DB5DF8   		fistpl	-8(%ebp)
 266 01c1 D96DFE   		fldcw	-2(%ebp)
 267 01c4 8B55F8   		movl	-8(%ebp), %edx
 268 01c7 EB20     		jmp	L14
 269              	L28:
 270              		.loc 1 73 24 discriminator 2
 271 01c9 8B4508   		movl	8(%ebp), %eax
 272 01cc D94018   		flds	24(%eax)
 273              		.loc 1 73 18 discriminator 2
 274 01cf D97DFE   		fnstcw	-2(%ebp)
 275 01d2 0FB745FE 		movzwl	-2(%ebp), %eax
 276 01d6 80CC0C   		orb	$12, %ah
 277 01d9 668945FC 		movw	%ax, -4(%ebp)
 278 01dd D96DFC   		fldcw	-4(%ebp)
 279 01e0 DB5DF8   		fistpl	-8(%ebp)
 280 01e3 D96DFE   		fldcw	-2(%ebp)
 281 01e6 8B55F8   		movl	-8(%ebp), %edx
 282              	L14:
 283              		.loc 1 73 16 discriminator 4
 284 01e9 8B4508   		movl	8(%ebp), %eax
 285 01ec 895038   		movl	%edx, 56(%eax)
  74:src/pdf417/PDFBoundingBox.c **** 	result->_maxX = (int)(__max(result->_topRight.m_value.x, result->_bottomRight.m_value.x));
 286              		.loc 1 74 24 discriminator 4
 287 01ef 8B4508   		movl	8(%ebp), %eax
 288 01f2 D94024   		flds	36(%eax)
 289 01f5 8B4508   		movl	8(%ebp), %eax
 290 01f8 D94030   		flds	48(%eax)
 291 01fb D9C9     		fxch	%st(1)
 292              		.loc 1 74 18 discriminator 4
 293 01fd DFF1     		fcomip	%st(1), %st
 294 01ff DDD8     		fstp	%st(0)
 295 0201 7614     		jbe	L29
 296              		.loc 1 74 24 discriminator 1
 297 0203 8B4508   		movl	8(%ebp), %eax
 298 0206 D94024   		flds	36(%eax)
 299              		.loc 1 74 18 discriminator 1
 300 0209 D96DFC   		fldcw	-4(%ebp)
 301 020c DB5DF8   		fistpl	-8(%ebp)
 302 020f D96DFE   		fldcw	-2(%ebp)
 303 0212 8B55F8   		movl	-8(%ebp), %edx
 304 0215 EB12     		jmp	L17
 305              	L29:
 306              		.loc 1 74 24 discriminator 2
 307 0217 8B4508   		movl	8(%ebp), %eax
 308 021a D94030   		flds	48(%eax)
 309              		.loc 1 74 18 discriminator 2
 310 021d D96DFC   		fldcw	-4(%ebp)
 311 0220 DB5DF8   		fistpl	-8(%ebp)
 312 0223 D96DFE   		fldcw	-2(%ebp)
 313 0226 8B55F8   		movl	-8(%ebp), %edx
 314              	L17:
 315              		.loc 1 74 16 discriminator 4
GAS LISTING C:\Users\jisu8\AppData\Local\Temp\ccfTcNY5.s 			page 8


 316 0229 8B4508   		movl	8(%ebp), %eax
 317 022c 89503C   		movl	%edx, 60(%eax)
  75:src/pdf417/PDFBoundingBox.c **** 	result->_minY = (int)(__min(result->_topLeft.m_value.y, result->_topRight.m_value.y));
 318              		.loc 1 75 24 discriminator 4
 319 022f 8B4508   		movl	8(%ebp), %eax
 320 0232 D94010   		flds	16(%eax)
 321 0235 8B4508   		movl	8(%ebp), %eax
 322 0238 D94028   		flds	40(%eax)
 323              		.loc 1 75 18 discriminator 4
 324 023b DFF1     		fcomip	%st(1), %st
 325 023d DDD8     		fstp	%st(0)
 326 023f 7614     		jbe	L30
 327              		.loc 1 75 24 discriminator 1
 328 0241 8B4508   		movl	8(%ebp), %eax
 329 0244 D94010   		flds	16(%eax)
 330              		.loc 1 75 18 discriminator 1
 331 0247 D96DFC   		fldcw	-4(%ebp)
 332 024a DB5DF8   		fistpl	-8(%ebp)
 333 024d D96DFE   		fldcw	-2(%ebp)
 334 0250 8B55F8   		movl	-8(%ebp), %edx
 335 0253 EB12     		jmp	L20
 336              	L30:
 337              		.loc 1 75 24 discriminator 2
 338 0255 8B4508   		movl	8(%ebp), %eax
 339 0258 D94028   		flds	40(%eax)
 340              		.loc 1 75 18 discriminator 2
 341 025b D96DFC   		fldcw	-4(%ebp)
 342 025e DB5DF8   		fistpl	-8(%ebp)
 343 0261 D96DFE   		fldcw	-2(%ebp)
 344 0264 8B55F8   		movl	-8(%ebp), %edx
 345              	L20:
 346              		.loc 1 75 16 discriminator 4
 347 0267 8B4508   		movl	8(%ebp), %eax
 348 026a 895040   		movl	%edx, 64(%eax)
  76:src/pdf417/PDFBoundingBox.c **** 	result->_maxY = (int)(__max(result->_bottomLeft.m_value.y, result->_bottomRight.m_value.y));
 349              		.loc 1 76 24 discriminator 4
 350 026d 8B4508   		movl	8(%ebp), %eax
 351 0270 D9401C   		flds	28(%eax)
 352 0273 8B4508   		movl	8(%ebp), %eax
 353 0276 D94034   		flds	52(%eax)
 354 0279 D9C9     		fxch	%st(1)
 355              		.loc 1 76 18 discriminator 4
 356 027b DFF1     		fcomip	%st(1), %st
 357 027d DDD8     		fstp	%st(0)
 358 027f 7614     		jbe	L31
 359              		.loc 1 76 24 discriminator 1
 360 0281 8B4508   		movl	8(%ebp), %eax
 361 0284 D9401C   		flds	28(%eax)
 362              		.loc 1 76 18 discriminator 1
 363 0287 D96DFC   		fldcw	-4(%ebp)
 364 028a DB5DF8   		fistpl	-8(%ebp)
 365 028d D96DFE   		fldcw	-2(%ebp)
 366 0290 8B55F8   		movl	-8(%ebp), %edx
 367 0293 EB12     		jmp	L23
 368              	L31:
 369              		.loc 1 76 24 discriminator 2
 370 0295 8B4508   		movl	8(%ebp), %eax
GAS LISTING C:\Users\jisu8\AppData\Local\Temp\ccfTcNY5.s 			page 9


 371 0298 D94034   		flds	52(%eax)
 372              		.loc 1 76 18 discriminator 2
 373 029b D96DFC   		fldcw	-4(%ebp)
 374 029e DB5DF8   		fistpl	-8(%ebp)
 375 02a1 D96DFE   		fldcw	-2(%ebp)
 376 02a4 8B55F8   		movl	-8(%ebp), %edx
 377              	L23:
 378              		.loc 1 76 16 discriminator 4
 379 02a7 8B4508   		movl	8(%ebp), %eax
 380 02aa 895044   		movl	%edx, 68(%eax)
  77:src/pdf417/PDFBoundingBox.c **** }
 381              		.loc 1 77 1 discriminator 4
 382 02ad 90       		nop
 383 02ae C9       		leave
 384              	LCFI8:
 385              		.cfi_restore 5
 386              		.cfi_def_cfa 4, 4
 387 02af C3       		ret
 388              		.cfi_endproc
 389              	LFE6:
 390              		.globl	_Merge
 392              	_Merge:
 393              	LFB7:
  78:src/pdf417/PDFBoundingBox.c **** 
  79:src/pdf417/PDFBoundingBox.c **** uint8_t Merge(const BoundingBox_t leftBox, const BoundingBox_t rightBox, BoundingBox_t result)
  80:src/pdf417/PDFBoundingBox.c **** {
 394              		.loc 1 80 1
 395              		.cfi_startproc
  81:src/pdf417/PDFBoundingBox.c **** 	#if 0
  82:src/pdf417/PDFBoundingBox.c **** 	if (leftBox.m_hasValue == 0) 
  83:src/pdf417/PDFBoundingBox.c **** 	{
  84:src/pdf417/PDFBoundingBox.c **** 		result = rightBox;
  85:src/pdf417/PDFBoundingBox.c **** 		return true;
  86:src/pdf417/PDFBoundingBox.c **** 	}
  87:src/pdf417/PDFBoundingBox.c **** 
  88:src/pdf417/PDFBoundingBox.c **** 	if (rightBox.m_hasValue == 0) 
  89:src/pdf417/PDFBoundingBox.c **** 	{
  90:src/pdf417/PDFBoundingBox.c **** 		result = leftBox;
  91:src/pdf417/PDFBoundingBox.c **** 		return true;
  92:src/pdf417/PDFBoundingBox.c **** 	}
  93:src/pdf417/PDFBoundingBox.c **** 
  94:src/pdf417/PDFBoundingBox.c **** 	BoundingBox box;
  95:src/pdf417/PDFBoundingBox.c **** 	if (Create(leftBox.value()._imgWidth, leftBox.value()._imgHeight, leftBox.value()._topLeft, leftBo
  96:src/pdf417/PDFBoundingBox.c **** 		result = box;
  97:src/pdf417/PDFBoundingBox.c **** 		return true;
  98:src/pdf417/PDFBoundingBox.c **** 	}
  99:src/pdf417/PDFBoundingBox.c **** 
 100:src/pdf417/PDFBoundingBox.c **** 	return false;
 101:src/pdf417/PDFBoundingBox.c **** 	#endif
 102:src/pdf417/PDFBoundingBox.c **** }
 396              		.loc 1 102 1
 397 02b0 90       		nop
 398 02b1 C3       		ret
 399              		.cfi_endproc
 400              	LFE7:
 401              		.globl	_AddMissingRows
 403              	_AddMissingRows:
GAS LISTING C:\Users\jisu8\AppData\Local\Temp\ccfTcNY5.s 			page 10


 404              	LFB8:
 103:src/pdf417/PDFBoundingBox.c **** 
 104:src/pdf417/PDFBoundingBox.c **** uint8_t AddMissingRows(const BoundingBox_t box, int missingStartRows, int missingEndRows, uint8_t i
 105:src/pdf417/PDFBoundingBox.c **** {
 405              		.loc 1 105 1
 406              		.cfi_startproc
 407 02b2 55       		pushl	%ebp
 408              	LCFI9:
 409              		.cfi_def_cfa_offset 8
 410              		.cfi_offset 5, -8
 411 02b3 89E5     		movl	%esp, %ebp
 412              	LCFI10:
 413              		.cfi_def_cfa_register 5
 414 02b5 83EC04   		subl	$4, %esp
 415 02b8 8B4558   		movl	88(%ebp), %eax
 416 02bb 8845FC   		movb	%al, -4(%ebp)
 106:src/pdf417/PDFBoundingBox.c **** 	#if 0
 107:src/pdf417/PDFBoundingBox.c **** 	auto newTopLeft = box._topLeft;
 108:src/pdf417/PDFBoundingBox.c **** 	auto newBottomLeft = box._bottomLeft;
 109:src/pdf417/PDFBoundingBox.c **** 	auto newTopRight = box._topRight;
 110:src/pdf417/PDFBoundingBox.c **** 	auto newBottomRight = box._bottomRight;
 111:src/pdf417/PDFBoundingBox.c **** 
 112:src/pdf417/PDFBoundingBox.c **** 	if (missingStartRows > 0) 
 113:src/pdf417/PDFBoundingBox.c **** 	{
 114:src/pdf417/PDFBoundingBox.c **** 		auto top = isLeft ? box._topLeft : box._topRight;
 115:src/pdf417/PDFBoundingBox.c **** 		int newMinY = static_cast<int>(top.value().y()) - missingStartRows;
 116:src/pdf417/PDFBoundingBox.c **** 		if (newMinY < 0) 
 117:src/pdf417/PDFBoundingBox.c **** 		{
 118:src/pdf417/PDFBoundingBox.c **** 			newMinY = 0;
 119:src/pdf417/PDFBoundingBox.c **** 		}
 120:src/pdf417/PDFBoundingBox.c **** 
 121:src/pdf417/PDFBoundingBox.c **** 		ResultPoint newTop(top.value().x(), static_cast<float>(newMinY));
 122:src/pdf417/PDFBoundingBox.c **** 
 123:src/pdf417/PDFBoundingBox.c **** 		if (isLeft) 
 124:src/pdf417/PDFBoundingBox.c **** 		{
 125:src/pdf417/PDFBoundingBox.c **** 			newTopLeft = newTop;
 126:src/pdf417/PDFBoundingBox.c **** 		}
 127:src/pdf417/PDFBoundingBox.c **** 		else 
 128:src/pdf417/PDFBoundingBox.c **** 		{
 129:src/pdf417/PDFBoundingBox.c **** 			newTopRight = newTop;
 130:src/pdf417/PDFBoundingBox.c **** 		}
 131:src/pdf417/PDFBoundingBox.c **** 	}
 132:src/pdf417/PDFBoundingBox.c **** 
 133:src/pdf417/PDFBoundingBox.c **** 	if (missingEndRows > 0) 
 134:src/pdf417/PDFBoundingBox.c **** 	{
 135:src/pdf417/PDFBoundingBox.c **** 		auto bottom = isLeft ? box._bottomLeft : box._bottomRight;
 136:src/pdf417/PDFBoundingBox.c **** 		int newMaxY = (int)bottom.value().y() + missingEndRows;
 137:src/pdf417/PDFBoundingBox.c **** 		if (newMaxY >= box._imgHeight) 
 138:src/pdf417/PDFBoundingBox.c **** 		{
 139:src/pdf417/PDFBoundingBox.c **** 			newMaxY = box._imgHeight - 1;
 140:src/pdf417/PDFBoundingBox.c **** 		}
 141:src/pdf417/PDFBoundingBox.c **** 
 142:src/pdf417/PDFBoundingBox.c **** 		ResultPoint_t newBottom(bottom.value().x(), static_cast<float>(newMaxY));
 143:src/pdf417/PDFBoundingBox.c **** 		
 144:src/pdf417/PDFBoundingBox.c **** 		if (isLeft) 
 145:src/pdf417/PDFBoundingBox.c **** 		{
 146:src/pdf417/PDFBoundingBox.c **** 			newBottomLeft = newBottom;
GAS LISTING C:\Users\jisu8\AppData\Local\Temp\ccfTcNY5.s 			page 11


 147:src/pdf417/PDFBoundingBox.c **** 		}
 148:src/pdf417/PDFBoundingBox.c **** 		else 
 149:src/pdf417/PDFBoundingBox.c **** 		{
 150:src/pdf417/PDFBoundingBox.c **** 			newBottomRight = newBottom;
 151:src/pdf417/PDFBoundingBox.c **** 		}
 152:src/pdf417/PDFBoundingBox.c **** 	}
 153:src/pdf417/PDFBoundingBox.c **** 
 154:src/pdf417/PDFBoundingBox.c **** 	return Create(box._imgWidth, box._imgHeight, newTopLeft, newBottomLeft, newTopRight, newBottomRigh
 155:src/pdf417/PDFBoundingBox.c **** 	#endif
 156:src/pdf417/PDFBoundingBox.c **** }
 417              		.loc 1 156 1
 418 02be 90       		nop
 419 02bf C9       		leave
 420              	LCFI11:
 421              		.cfi_restore 5
 422              		.cfi_def_cfa 4, 4
 423 02c0 C3       		ret
 424              		.cfi_endproc
 425              	LFE8:
 426              	Letext0:
 427              		.file 2 "D:/3.tools/mingw/mingw32/i686-w64-mingw32/include/crtdefs.h"
 428              		.file 3 "D:/3.tools/mingw/mingw32/i686-w64-mingw32/include/stdint.h"
 429              		.file 4 "src/ResultPoint.h"
 430              		.file 5 "src/pdf417/PDFBoundingBox.h"
 431              		.file 6 "D:/3.tools/mingw/mingw32/i686-w64-mingw32/include/stdlib.h"
 432              		.file 7 "D:/3.tools/mingw/mingw32/i686-w64-mingw32/include/malloc.h"