GAS LISTING C:\Users\jisu8\AppData\Local\Temp\cc1aqbhf.s 			page 1


   1              		.file	"PDFDetector.c"
   2              		.text
   3              	Ltext0:
   4              		.section .rdata,"dr"
   5              	LC0:
   6 0000 48617353 		.ascii "HasStartPattern \0"
   6      74617274 
   6      50617474 
   6      65726E20 
   6      00
   7              		.text
   8              		.globl	_HasStartPattern
  10              	_HasStartPattern:
  11              	LVL0:
  12              	LFB13:
  13              		.file 1 "src/pdf417/PDFDetector.c"
   1:src/pdf417/PDFDetector.c **** 
   2:src/pdf417/PDFDetector.c **** 
   3:src/pdf417/PDFDetector.c **** #include "PDFDetector.h"
   4:src/pdf417/PDFDetector.c **** #include "DecodeStatus.h"
   5:src/pdf417/PDFDetector.c **** #include "BinaryBitmap.h"
   6:src/pdf417/PDFDetector.c **** #include "HybridBinarizer.h"
   7:src/pdf417/PDFDetector.c **** #include <stdio.h>
   8:src/pdf417/PDFDetector.c **** 
   9:src/pdf417/PDFDetector.c **** static const int ROW_STEP = 8; // used to be 5, but 8 is enough for conforming symbols
  10:src/pdf417/PDFDetector.c **** 
  11:src/pdf417/PDFDetector.c **** uint8_t HasStartPattern(const BitMatrix_t * m)
  12:src/pdf417/PDFDetector.c **** {
  14              		.loc 1 12 1 view -0
  15              		.cfi_startproc
  16              		.loc 1 12 1 is_stmt 0 view LVU1
  17 0000 57       		pushl	%edi
  18              	LCFI0:
  19              		.cfi_def_cfa_offset 8
  20              		.cfi_offset 7, -8
  21 0001 56       		pushl	%esi
  22              	LCFI1:
  23              		.cfi_def_cfa_offset 12
  24              		.cfi_offset 6, -12
  25 0002 53       		pushl	%ebx
  26              	LCFI2:
  27              		.cfi_def_cfa_offset 16
  28              		.cfi_offset 3, -16
  29 0003 83EC10   		subl	$16, %esp
  30              	LCFI3:
  31              		.cfi_def_cfa_offset 32
  32 0006 8B742420 		movl	32(%esp), %esi
  13:src/pdf417/PDFDetector.c **** 	unsigned int array_length = 0;;
  33              		.loc 1 13 2 is_stmt 1 view LVU2
  34              	LVL1:
  35              		.loc 1 13 32 view LVU3
  14:src/pdf417/PDFDetector.c **** 	printf("HasStartPattern \n");
  36              		.loc 1 14 2 view LVU4
  37 000a C7042400 		movl	$LC0, (%esp)
  37      000000
  38 0011 E8000000 		call	_puts
  38      00
GAS LISTING C:\Users\jisu8\AppData\Local\Temp\cc1aqbhf.s 			page 2


  39              	LVL2:
  15:src/pdf417/PDFDetector.c **** 
  16:src/pdf417/PDFDetector.c **** 	int START_PATTERN[8] = { 8, 1, 1, 1, 1, 1, 1, 3 };
  40              		.loc 1 16 2 view LVU5
  17:src/pdf417/PDFDetector.c **** 	int minSymbolWidth = 3*8+1; // compact symbol
  41              		.loc 1 17 2 view LVU6
  18:src/pdf417/PDFDetector.c **** 
  19:src/pdf417/PDFDetector.c **** 	uint16_t * row = (uint16_t*)malloc(sizeof(uint16_t) * array_length);
  42              		.loc 1 19 2 view LVU7
  43              		.loc 1 19 30 is_stmt 0 view LVU8
  44 0016 C7042400 		movl	$0, (%esp)
  44      000000
  45 001d E8000000 		call	_malloc
  45      00
  46              	LVL3:
  47 0022 89C7     		movl	%eax, %edi
  48              	LVL4:
  20:src/pdf417/PDFDetector.c **** 
  21:src/pdf417/PDFDetector.c **** 	for (int r = ROW_STEP; r < m->_height; r += ROW_STEP) 
  49              		.loc 1 21 2 is_stmt 1 view LVU9
  50              	LBB2:
  51              		.loc 1 21 7 view LVU10
  52              		.loc 1 21 11 is_stmt 0 view LVU11
  53 0024 BB080000 		movl	$8, %ebx
  53      00
  54              	LVL5:
  55              	L2:
  56              		.loc 1 21 2 discriminator 1 view LVU12
  57 0029 395E04   		cmpl	%ebx, 4(%esi)
  58 002c 7E15     		jle	L5
  22:src/pdf417/PDFDetector.c **** 	{
  23:src/pdf417/PDFDetector.c **** 		array_length = getPatternRow(m, r, row);
  59              		.loc 1 23 3 is_stmt 1 discriminator 3 view LVU13
  60              		.loc 1 23 18 is_stmt 0 discriminator 3 view LVU14
  61 002e 897C2408 		movl	%edi, 8(%esp)
  62 0032 895C2404 		movl	%ebx, 4(%esp)
  63 0036 893424   		movl	%esi, (%esp)
  64 0039 E8000000 		call	_getPatternRow
  64      00
  65              	LVL6:
  21:src/pdf417/PDFDetector.c **** 	{
  66              		.loc 1 21 43 discriminator 3 view LVU15
  67 003e 83C308   		addl	$8, %ebx
  68              	LVL7:
  21:src/pdf417/PDFDetector.c **** 	{
  69              		.loc 1 21 43 discriminator 3 view LVU16
  70 0041 EBE6     		jmp	L2
  71              	L5:
  21:src/pdf417/PDFDetector.c **** 	{
  72              		.loc 1 21 43 discriminator 3 view LVU17
  73              	LBE2:
  24:src/pdf417/PDFDetector.c **** 
  25:src/pdf417/PDFDetector.c **** 		//if (FindLeftGuard(row, minSymbolWidth, START_PATTERN, 2).isValid())
  26:src/pdf417/PDFDetector.c **** 			//return true;
  27:src/pdf417/PDFDetector.c **** 		//std::reverse(row.begin(), row.end());
  28:src/pdf417/PDFDetector.c **** 		//if (FindLeftGuard(row, minSymbolWidth, START_PATTERN, 2).isValid())
  29:src/pdf417/PDFDetector.c **** 			//return true;
GAS LISTING C:\Users\jisu8\AppData\Local\Temp\cc1aqbhf.s 			page 3


  30:src/pdf417/PDFDetector.c **** 	}
  31:src/pdf417/PDFDetector.c **** 
  32:src/pdf417/PDFDetector.c **** 	return 0;
  74              		.loc 1 32 2 is_stmt 1 view LVU18
  33:src/pdf417/PDFDetector.c **** }
  75              		.loc 1 33 1 is_stmt 0 view LVU19
  76 0043 B8000000 		movl	$0, %eax
  76      00
  77 0048 83C410   		addl	$16, %esp
  78              	LCFI4:
  79              		.cfi_def_cfa_offset 16
  80 004b 5B       		popl	%ebx
  81              	LCFI5:
  82              		.cfi_restore 3
  83              		.cfi_def_cfa_offset 12
  84              	LVL8:
  85              		.loc 1 33 1 view LVU20
  86 004c 5E       		popl	%esi
  87              	LCFI6:
  88              		.cfi_restore 6
  89              		.cfi_def_cfa_offset 8
  90 004d 5F       		popl	%edi
  91              	LCFI7:
  92              		.cfi_restore 7
  93              		.cfi_def_cfa_offset 4
  94              	LVL9:
  95              		.loc 1 33 1 view LVU21
  96 004e C3       		ret
  97              		.cfi_endproc
  98              	LFE13:
  99              		.section .rdata,"dr"
 100              	LC1:
 101 0011 44657465 		.ascii "Detector::Detect \0"
 101      63746F72 
 101      3A3A4465 
 101      74656374 
 101      2000
 102 0023 00       		.text
 103              		.globl	_Detect
 105              	_Detect:
 106              	LVL10:
 107              	LFB14:
  34:src/pdf417/PDFDetector.c **** 
  35:src/pdf417/PDFDetector.c **** DecodeStatus_t Detect(GenericLuminanceSource_t * image, unsigned char multiple, unsigned char * res
  36:src/pdf417/PDFDetector.c **** {
 108              		.loc 1 36 1 is_stmt 1 view -0
 109              		.cfi_startproc
 110              		.loc 1 36 1 is_stmt 0 view LVU23
 111 004f 83EC1C   		subl	$28, %esp
 112              	LCFI8:
 113              		.cfi_def_cfa_offset 32
  37:src/pdf417/PDFDetector.c **** 	printf("Detector::Detect \n");
 114              		.loc 1 37 2 is_stmt 1 view LVU24
 115 0052 C7042411 		movl	$LC1, (%esp)
 115      000000
 116 0059 E8000000 		call	_puts
 116      00
GAS LISTING C:\Users\jisu8\AppData\Local\Temp\cc1aqbhf.s 			page 4


 117              	LVL11:
  38:src/pdf417/PDFDetector.c **** 	BitMatrix_t * binImg;
 118              		.loc 1 38 2 view LVU25
  39:src/pdf417/PDFDetector.c **** 	unsigned char * barcodeCoordinates;
 119              		.loc 1 39 2 view LVU26
  40:src/pdf417/PDFDetector.c **** 	unsigned char * newBits;
 120              		.loc 1 40 2 view LVU27
  41:src/pdf417/PDFDetector.c **** 	
  42:src/pdf417/PDFDetector.c **** 	binImg = getBlackMatrix(image);
 121              		.loc 1 42 2 view LVU28
 122              		.loc 1 42 11 is_stmt 0 view LVU29
 123 005e 8B442420 		movl	32(%esp), %eax
 124 0062 890424   		movl	%eax, (%esp)
 125 0065 E8000000 		call	_getBlackMatrix
 125      00
 126              	LVL12:
  43:src/pdf417/PDFDetector.c **** 	if (binImg == NULL) 
 127              		.loc 1 43 2 is_stmt 1 view LVU30
 128              		.loc 1 43 5 is_stmt 0 view LVU31
 129 006a 85C0     		testl	%eax, %eax
 130 006c 7415     		je	L8
  44:src/pdf417/PDFDetector.c **** 	{
  45:src/pdf417/PDFDetector.c **** 		return NotFound;
  46:src/pdf417/PDFDetector.c **** 	}
  47:src/pdf417/PDFDetector.c **** 
  48:src/pdf417/PDFDetector.c **** 	if (!HasStartPattern(binImg))
 131              		.loc 1 48 2 is_stmt 1 view LVU32
 132              		.loc 1 48 7 is_stmt 0 view LVU33
 133 006e 890424   		movl	%eax, (%esp)
 134 0071 E88AFFFF 		call	_HasStartPattern
 134      FF
 135              	LVL13:
 136              		.loc 1 48 5 view LVU34
 137 0076 84C0     		testb	%al, %al
 138 0078 7410     		je	L9
  49:src/pdf417/PDFDetector.c **** 	{
  50:src/pdf417/PDFDetector.c **** 		return NotFound;
  51:src/pdf417/PDFDetector.c **** 	}
  52:src/pdf417/PDFDetector.c **** 
  53:src/pdf417/PDFDetector.c **** 	#if 0
  54:src/pdf417/PDFDetector.c **** 	barcodeCoordinates = DetectBarcode(*binImg, multiple);
  55:src/pdf417/PDFDetector.c **** 	if (barcodeCoordinates.empty()) 
  56:src/pdf417/PDFDetector.c **** 	{
  57:src/pdf417/PDFDetector.c **** 		newBits = binImg->copy();
  58:src/pdf417/PDFDetector.c **** 		newBits->rotate180();
  59:src/pdf417/PDFDetector.c **** 		binImg = newBits;
  60:src/pdf417/PDFDetector.c **** 		barcodeCoordinates = DetectBarcode(*binImg, multiple);
  61:src/pdf417/PDFDetector.c **** 	}
  62:src/pdf417/PDFDetector.c **** 	if (barcodeCoordinates.empty()) {
  63:src/pdf417/PDFDetector.c **** 		return NotFound;
  64:src/pdf417/PDFDetector.c **** 	}
  65:src/pdf417/PDFDetector.c **** 	result.points = barcodeCoordinates;
  66:src/pdf417/PDFDetector.c **** 	result.bits = binImg;
  67:src/pdf417/PDFDetector.c **** 	#endif
  68:src/pdf417/PDFDetector.c **** 	return NoError;
 139              		.loc 1 68 9 view LVU35
 140 007a B8000000 		movl	$0, %eax
GAS LISTING C:\Users\jisu8\AppData\Local\Temp\cc1aqbhf.s 			page 5


 140      00
 141              	L6:
  69:src/pdf417/PDFDetector.c **** }
 142              		.loc 1 69 1 view LVU36
 143 007f 83C41C   		addl	$28, %esp
 144              	LCFI9:
 145              		.cfi_remember_state
 146              		.cfi_def_cfa_offset 4
 147 0082 C3       		ret
 148              	LVL14:
 149              	L8:
 150              	LCFI10:
 151              		.cfi_restore_state
  45:src/pdf417/PDFDetector.c **** 	}
 152              		.loc 1 45 10 view LVU37
 153 0083 B8010000 		movl	$1, %eax
 153      00
 154              	LVL15:
  45:src/pdf417/PDFDetector.c **** 	}
 155              		.loc 1 45 10 view LVU38
 156 0088 EBF5     		jmp	L6
 157              	L9:
  50:src/pdf417/PDFDetector.c **** 	}
 158              		.loc 1 50 10 view LVU39
 159 008a B8010000 		movl	$1, %eax
 159      00
 160 008f EBEE     		jmp	L6
 161              		.cfi_endproc
 162              	LFE14:
 163              	Letext0:
 164              		.file 2 "src/DecodeStatus.h"
 165              		.file 3 "D:/3.tools/mingw/mingw32/i686-w64-mingw32/include/stdint.h"
 166              		.file 4 "D:/3.tools/mingw/mingw32/i686-w64-mingw32/include/stdio.h"
 167              		.file 5 "src/GenericLuminanceSource.h"
 168              		.file 6 "src/BitMatrix.h"
 169              		.file 7 "src/HybridBinarizer.h"
 170              		.file 8 "<built-in>"