GAS LISTING C:\Users\jisu8\AppData\Local\Temp\ccM43flq.s 			page 1


   1              		.file	"PDFDecodedBitStreamParser.c"
   2              		.text
   3              	Ltext0:
   4              		.section .rdata,"dr"
   5              		.align 4
   6              	_MAX_NUMERIC_CODEWORDS:
   7 0000 0F000000 		.long	15
   8              	LC0:
   9 0004 3B3C3E40 		.ascii ";<>@[\\]_`~!\15\11,:\12-.$/\"|*()?{}'\0"
   9      5B5C5D5F 
   9      607E210D 
   9      092C3A0A 
   9      2D2E242F 
  10              		.data
  11              		.align 4
  12              	_PUNCT_CHARS:
  13 0000 04000000 		.long	LC0
  14              		.section .rdata,"dr"
  15              	LC1:
  16 0022 30313233 		.ascii "0123456789&\15\11,:#-.$/+%*=^\0"
  16      34353637 
  16      3839260D 
  16      092C3A23 
  16      2D2E242F 
  17              		.data
  18              		.align 4
  19              	_MIXED_CHARS:
  20 0004 22000000 		.long	LC1
  21              		.section .rdata,"dr"
  22              		.align 4
  23              	_NUMBER_OF_SEQUENCE_CODEWORDS:
  24 003c 02000000 		.long	2
  25              		.text
  27              	_TerminatesCompaction:
  28              	LFB17:
  29              		.file 1 "src/pdf417/PDFDecodedBitStreamParser.c"
   1:src/pdf417/PDFDecodedBitStreamParser.c **** /*
   2:src/pdf417/PDFDecodedBitStreamParser.c **** * Copyright 2016 Nu-book Inc.
   3:src/pdf417/PDFDecodedBitStreamParser.c **** * Copyright 2016 ZXing authors
   4:src/pdf417/PDFDecodedBitStreamParser.c **** *
   5:src/pdf417/PDFDecodedBitStreamParser.c **** * Licensed under the Apache License, Version 2.0 (the "License");
   6:src/pdf417/PDFDecodedBitStreamParser.c **** * you may not use this file except in compliance with the License.
   7:src/pdf417/PDFDecodedBitStreamParser.c **** * You may obtain a copy of the License at
   8:src/pdf417/PDFDecodedBitStreamParser.c **** *
   9:src/pdf417/PDFDecodedBitStreamParser.c **** *      http://www.apache.org/licenses/LICENSE-2.0
  10:src/pdf417/PDFDecodedBitStreamParser.c **** *
  11:src/pdf417/PDFDecodedBitStreamParser.c **** * Unless required by applicable law or agreed to in writing, software
  12:src/pdf417/PDFDecodedBitStreamParser.c **** * distributed under the License is distributed on an "AS IS" BASIS,
  13:src/pdf417/PDFDecodedBitStreamParser.c **** * WITHOUT WARRANTIES OR CONDITIONS OF ANY KIND, either express or implied.
  14:src/pdf417/PDFDecodedBitStreamParser.c **** * See the License for the specific language governing permissions and
  15:src/pdf417/PDFDecodedBitStreamParser.c **** * limitations under the License.
  16:src/pdf417/PDFDecodedBitStreamParser.c **** */
  17:src/pdf417/PDFDecodedBitStreamParser.c **** 
  18:src/pdf417/PDFDecodedBitStreamParser.c **** #include "PDFDecodedBitStreamParser.h"
  19:src/pdf417/PDFDecodedBitStreamParser.c **** #include "PDFDecoderResultExtra.h"
  20:src/pdf417/PDFDecodedBitStreamParser.c **** #include "CharacterSet.h"
  21:src/pdf417/PDFDecodedBitStreamParser.c **** #include "TextDecoder.h"
GAS LISTING C:\Users\jisu8\AppData\Local\Temp\ccM43flq.s 			page 2


  22:src/pdf417/PDFDecodedBitStreamParser.c **** #include "Library.h"
  23:src/pdf417/PDFDecodedBitStreamParser.c **** #include <string.h>
  24:src/pdf417/PDFDecodedBitStreamParser.c **** #include <stdlib.h>
  25:src/pdf417/PDFDecodedBitStreamParser.c **** #include <stdio.h>
  26:src/pdf417/PDFDecodedBitStreamParser.c **** 
  27:src/pdf417/PDFDecodedBitStreamParser.c **** typedef enum 
  28:src/pdf417/PDFDecodedBitStreamParser.c **** {
  29:src/pdf417/PDFDecodedBitStreamParser.c **** 	ALPHA,
  30:src/pdf417/PDFDecodedBitStreamParser.c **** 	LOWER,
  31:src/pdf417/PDFDecodedBitStreamParser.c **** 	MIXED,
  32:src/pdf417/PDFDecodedBitStreamParser.c **** 	PUNCT,
  33:src/pdf417/PDFDecodedBitStreamParser.c **** 	ALPHA_SHIFT,
  34:src/pdf417/PDFDecodedBitStreamParser.c **** 	PUNCT_SHIFT
  35:src/pdf417/PDFDecodedBitStreamParser.c **** }Mode_t;
  36:src/pdf417/PDFDecodedBitStreamParser.c **** 
  37:src/pdf417/PDFDecodedBitStreamParser.c **** typedef enum
  38:src/pdf417/PDFDecodedBitStreamParser.c **** {
  39:src/pdf417/PDFDecodedBitStreamParser.c **** 	TEXT_COMPACTION_MODE_LATCH = 900,
  40:src/pdf417/PDFDecodedBitStreamParser.c **** 	BYTE_COMPACTION_MODE_LATCH = 901,
  41:src/pdf417/PDFDecodedBitStreamParser.c **** 	NUMERIC_COMPACTION_MODE_LATCH = 902,
  42:src/pdf417/PDFDecodedBitStreamParser.c **** 	// 903-912 reserved
  43:src/pdf417/PDFDecodedBitStreamParser.c **** 	MODE_SHIFT_TO_BYTE_COMPACTION_MODE = 913,
  44:src/pdf417/PDFDecodedBitStreamParser.c **** 	// 914-917 reserved
  45:src/pdf417/PDFDecodedBitStreamParser.c **** 	LINKAGE_OTHER = 918,
  46:src/pdf417/PDFDecodedBitStreamParser.c **** 	// 919 reserved
  47:src/pdf417/PDFDecodedBitStreamParser.c **** 	LINKAGE_EANUCC = 920, // GS1 Composite
  48:src/pdf417/PDFDecodedBitStreamParser.c **** 	READER_INIT = 921, // Reader Initialisation/Programming
  49:src/pdf417/PDFDecodedBitStreamParser.c **** 	MACRO_PDF417_TERMINATOR = 922,
  50:src/pdf417/PDFDecodedBitStreamParser.c **** 	BEGIN_MACRO_PDF417_OPTIONAL_FIELD = 923,
  51:src/pdf417/PDFDecodedBitStreamParser.c **** 	BYTE_COMPACTION_MODE_LATCH_6 = 924,
  52:src/pdf417/PDFDecodedBitStreamParser.c **** 	ECI_USER_DEFINED = 925, // 810900-811799 (1 codeword)
  53:src/pdf417/PDFDecodedBitStreamParser.c **** 	ECI_GENERAL_PURPOSE = 926, // 900-810899 (2 codewords)
  54:src/pdf417/PDFDecodedBitStreamParser.c **** 	ECI_CHARSET = 927, // 0-899 (1 codeword)
  55:src/pdf417/PDFDecodedBitStreamParser.c **** 	BEGIN_MACRO_PDF417_CONTROL_BLOCK = 928
  56:src/pdf417/PDFDecodedBitStreamParser.c **** }code_t;
  57:src/pdf417/PDFDecodedBitStreamParser.c **** 
  58:src/pdf417/PDFDecodedBitStreamParser.c **** 
  59:src/pdf417/PDFDecodedBitStreamParser.c **** static const int MAX_NUMERIC_CODEWORDS = 15;
  60:src/pdf417/PDFDecodedBitStreamParser.c **** typedef enum
  61:src/pdf417/PDFDecodedBitStreamParser.c **** {
  62:src/pdf417/PDFDecodedBitStreamParser.c **** 	MACRO_PDF417_OPTIONAL_FIELD_FILE_NAME = 0,
  63:src/pdf417/PDFDecodedBitStreamParser.c **** 	MACRO_PDF417_OPTIONAL_FIELD_SEGMENT_COUNT = 1,
  64:src/pdf417/PDFDecodedBitStreamParser.c **** 	MACRO_PDF417_OPTIONAL_FIELD_TIME_STAMP = 2,
  65:src/pdf417/PDFDecodedBitStreamParser.c **** 	MACRO_PDF417_OPTIONAL_FIELD_SENDER = 3,
  66:src/pdf417/PDFDecodedBitStreamParser.c **** 	MACRO_PDF417_OPTIONAL_FIELD_ADDRESSEE = 4,
  67:src/pdf417/PDFDecodedBitStreamParser.c **** 	MACRO_PDF417_OPTIONAL_FIELD_FILE_SIZE = 5,
  68:src/pdf417/PDFDecodedBitStreamParser.c **** 	MACRO_PDF417_OPTIONAL_FIELD_CHECKSUM = 6
  69:src/pdf417/PDFDecodedBitStreamParser.c **** }codeIndex_t;
  70:src/pdf417/PDFDecodedBitStreamParser.c **** 
  71:src/pdf417/PDFDecodedBitStreamParser.c **** 
  72:src/pdf417/PDFDecodedBitStreamParser.c **** static const char* PUNCT_CHARS = ";<>@[\\]_`~!\r\t,:\n-.$/\"|*()?{}'";
  73:src/pdf417/PDFDecodedBitStreamParser.c **** static const char* MIXED_CHARS = "0123456789&\r\t,:#-.$/+%*=^";
  74:src/pdf417/PDFDecodedBitStreamParser.c **** 
  75:src/pdf417/PDFDecodedBitStreamParser.c **** static const int NUMBER_OF_SEQUENCE_CODEWORDS = 2;
  76:src/pdf417/PDFDecodedBitStreamParser.c **** 
  77:src/pdf417/PDFDecodedBitStreamParser.c **** /**
  78:src/pdf417/PDFDecodedBitStreamParser.c **** * Whether a codeword terminates a Compaction mode.
GAS LISTING C:\Users\jisu8\AppData\Local\Temp\ccM43flq.s 			page 3


  79:src/pdf417/PDFDecodedBitStreamParser.c **** *
  80:src/pdf417/PDFDecodedBitStreamParser.c **** * See ISO/IEC 15438:2015 5.4.2.5 (Text), 5.4.3.4 (Byte), 5.4.4.3 (Numeric)
  81:src/pdf417/PDFDecodedBitStreamParser.c **** */
  82:src/pdf417/PDFDecodedBitStreamParser.c **** 
  83:src/pdf417/PDFDecodedBitStreamParser.c **** static uint8_t TerminatesCompaction(int code)
  84:src/pdf417/PDFDecodedBitStreamParser.c **** {
  30              		.loc 1 84 1
  31              		.cfi_startproc
  32 0000 55       		pushl	%ebp
  33              	LCFI0:
  34              		.cfi_def_cfa_offset 8
  35              		.cfi_offset 5, -8
  36 0001 89E5     		movl	%esp, %ebp
  37              	LCFI1:
  38              		.cfi_def_cfa_register 5
  85:src/pdf417/PDFDecodedBitStreamParser.c **** 	switch (code) 
  39              		.loc 1 85 2
  40 0003 8B4508   		movl	8(%ebp), %eax
  41 0006 2D840300 		subl	$900, %eax
  41      00
  42 000b 83F81C   		cmpl	$28, %eax
  43 000e 7710     		ja	L2
  44 0010 8B048540 		movl	L4(,%eax,4), %eax
  44      000000
  45 0017 FFE0     		jmp	*%eax
  46              		.section .rdata,"dr"
  47              		.align 4
  48              	L4:
  49 0040 19000000 		.long	L3
  50 0044 19000000 		.long	L3
  51 0048 19000000 		.long	L3
  52 004c 20000000 		.long	L2
  53 0050 20000000 		.long	L2
  54 0054 20000000 		.long	L2
  55 0058 20000000 		.long	L2
  56 005c 20000000 		.long	L2
  57 0060 20000000 		.long	L2
  58 0064 20000000 		.long	L2
  59 0068 20000000 		.long	L2
  60 006c 20000000 		.long	L2
  61 0070 20000000 		.long	L2
  62 0074 20000000 		.long	L2
  63 0078 20000000 		.long	L2
  64 007c 20000000 		.long	L2
  65 0080 20000000 		.long	L2
  66 0084 20000000 		.long	L2
  67 0088 20000000 		.long	L2
  68 008c 20000000 		.long	L2
  69 0090 20000000 		.long	L2
  70 0094 20000000 		.long	L2
  71 0098 19000000 		.long	L3
  72 009c 19000000 		.long	L3
  73 00a0 19000000 		.long	L3
  74 00a4 20000000 		.long	L2
  75 00a8 20000000 		.long	L2
  76 00ac 20000000 		.long	L2
  77 00b0 19000000 		.long	L3
GAS LISTING C:\Users\jisu8\AppData\Local\Temp\ccM43flq.s 			page 4


  78              		.text
  79              	L3:
  86:src/pdf417/PDFDecodedBitStreamParser.c **** 	{
  87:src/pdf417/PDFDecodedBitStreamParser.c **** 		case TEXT_COMPACTION_MODE_LATCH:
  88:src/pdf417/PDFDecodedBitStreamParser.c **** 		case BYTE_COMPACTION_MODE_LATCH:
  89:src/pdf417/PDFDecodedBitStreamParser.c **** 		case NUMERIC_COMPACTION_MODE_LATCH:
  90:src/pdf417/PDFDecodedBitStreamParser.c **** 		case BYTE_COMPACTION_MODE_LATCH_6:
  91:src/pdf417/PDFDecodedBitStreamParser.c **** 		case BEGIN_MACRO_PDF417_CONTROL_BLOCK:
  92:src/pdf417/PDFDecodedBitStreamParser.c **** 		case BEGIN_MACRO_PDF417_OPTIONAL_FIELD:
  93:src/pdf417/PDFDecodedBitStreamParser.c **** 		case MACRO_PDF417_TERMINATOR:
  94:src/pdf417/PDFDecodedBitStreamParser.c **** 			return 1;
  80              		.loc 1 94 11
  81 0019 B8010000 		movl	$1, %eax
  81      00
  82 001e EB05     		jmp	L5
  83              	L2:
  95:src/pdf417/PDFDecodedBitStreamParser.c **** 		break;
  96:src/pdf417/PDFDecodedBitStreamParser.c **** 	}
  97:src/pdf417/PDFDecodedBitStreamParser.c **** 
  98:src/pdf417/PDFDecodedBitStreamParser.c **** 	return 0;
  84              		.loc 1 98 9
  85 0020 B8000000 		movl	$0, %eax
  85      00
  86              	L5:
  99:src/pdf417/PDFDecodedBitStreamParser.c **** }
  87              		.loc 1 99 1
  88 0025 5D       		popl	%ebp
  89              	LCFI2:
  90              		.cfi_restore 5
  91              		.cfi_def_cfa 4, 4
  92 0026 C3       		ret
  93              		.cfi_endproc
  94              	LFE17:
  95              		.section .rdata,"dr"
  96              	LC2:
  97 00b4 50726F63 		.ascii "ProcessECI\0"
  97      65737345 
  97      434900
  98              		.text
 100              	_ProcessECI:
 101              	LFB18:
 100:src/pdf417/PDFDecodedBitStreamParser.c **** 
 101:src/pdf417/PDFDecodedBitStreamParser.c **** /**
 102:src/pdf417/PDFDecodedBitStreamParser.c **** * Helper to process ECIs.
 103:src/pdf417/PDFDecodedBitStreamParser.c **** **/
 104:src/pdf417/PDFDecodedBitStreamParser.c **** static int ProcessECI(const int * codewords, int codeIndex, const int length, const int code,
 105:src/pdf417/PDFDecodedBitStreamParser.c **** 					  unsigned char * resultEncoded, char * result, CharacterSet_t * encoding)
 106:src/pdf417/PDFDecodedBitStreamParser.c **** {
 102              		.loc 1 106 1
 103              		.cfi_startproc
 104 0027 55       		pushl	%ebp
 105              	LCFI3:
 106              		.cfi_def_cfa_offset 8
 107              		.cfi_offset 5, -8
 108 0028 89E5     		movl	%esp, %ebp
 109              	LCFI4:
 110              		.cfi_def_cfa_register 5
GAS LISTING C:\Users\jisu8\AppData\Local\Temp\ccM43flq.s 			page 5


 111 002a 83EC18   		subl	$24, %esp
 107:src/pdf417/PDFDecodedBitStreamParser.c **** 	printf("ProcessECI\n");
 112              		.loc 1 107 2
 113 002d C70424B4 		movl	$LC2, (%esp)
 113      000000
 114 0034 E8000000 		call	_puts
 114      00
 108:src/pdf417/PDFDecodedBitStreamParser.c **** 
 109:src/pdf417/PDFDecodedBitStreamParser.c **** 	if (codeIndex < length && code >= ECI_USER_DEFINED && code <= ECI_CHARSET) 
 115              		.loc 1 109 5
 116 0039 8B450C   		movl	12(%ebp), %eax
 117 003c 3B4510   		cmpl	16(%ebp), %eax
 118 003f 7D33     		jge	L7
 119              		.loc 1 109 25 discriminator 1
 120 0041 817D149C 		cmpl	$924, 20(%ebp)
 120      030000
 121 0048 7E2A     		jle	L7
 122              		.loc 1 109 53 discriminator 2
 123 004a 817D149F 		cmpl	$927, 20(%ebp)
 123      030000
 124 0051 7F21     		jg	L7
 110:src/pdf417/PDFDecodedBitStreamParser.c **** 	{
 111:src/pdf417/PDFDecodedBitStreamParser.c **** 		if (code == ECI_CHARSET) 
 125              		.loc 1 111 6
 126 0053 817D149F 		cmpl	$927, 20(%ebp)
 126      030000
 127 005a 7418     		je	L7
 112:src/pdf417/PDFDecodedBitStreamParser.c **** 		{
 113:src/pdf417/PDFDecodedBitStreamParser.c **** 			//encoding = OnChangeAppendReset(codewords[codeIndex++], resultEncoded, result, encoding);
 114:src/pdf417/PDFDecodedBitStreamParser.c **** 		}
 115:src/pdf417/PDFDecodedBitStreamParser.c **** 		else 
 116:src/pdf417/PDFDecodedBitStreamParser.c **** 		{
 117:src/pdf417/PDFDecodedBitStreamParser.c **** 			// Don't currently handle non-character set ECIs so just ignore
 118:src/pdf417/PDFDecodedBitStreamParser.c **** 			codeIndex += code == ECI_GENERAL_PURPOSE ? 2 : 1;
 128              		.loc 1 118 49
 129 005c 817D149E 		cmpl	$926, 20(%ebp)
 129      030000
 130 0063 7507     		jne	L8
 131              		.loc 1 118 49 is_stmt 0 discriminator 1
 132 0065 B8020000 		movl	$2, %eax
 132      00
 133 006a EB05     		jmp	L9
 134              	L8:
 135              		.loc 1 118 49 discriminator 2
 136 006c B8010000 		movl	$1, %eax
 136      00
 137              	L9:
 138              		.loc 1 118 14 is_stmt 1 discriminator 4
 139 0071 01450C   		addl	%eax, 12(%ebp)
 140              	L7:
 119:src/pdf417/PDFDecodedBitStreamParser.c **** 		}
 120:src/pdf417/PDFDecodedBitStreamParser.c **** 	}
 121:src/pdf417/PDFDecodedBitStreamParser.c **** 
 122:src/pdf417/PDFDecodedBitStreamParser.c **** 	return codeIndex;
 141              		.loc 1 122 9
 142 0074 8B450C   		movl	12(%ebp), %eax
 123:src/pdf417/PDFDecodedBitStreamParser.c **** }
GAS LISTING C:\Users\jisu8\AppData\Local\Temp\ccM43flq.s 			page 6


 143              		.loc 1 123 1
 144 0077 C9       		leave
 145              	LCFI5:
 146              		.cfi_restore 5
 147              		.cfi_def_cfa 4, 4
 148 0078 C3       		ret
 149              		.cfi_endproc
 150              	LFE18:
 151              		.section .rdata,"dr"
 152              	LC3:
 153 00bf 4465636F 		.ascii "DecodeTextCompaction\0"
 153      64655465 
 153      7874436F 
 153      6D706163 
 153      74696F6E 
 154              		.text
 156              	_DecodeTextCompaction:
 157              	LFB19:
 124:src/pdf417/PDFDecodedBitStreamParser.c **** 
 125:src/pdf417/PDFDecodedBitStreamParser.c **** /**
 126:src/pdf417/PDFDecodedBitStreamParser.c **** * The Text Compaction mode includes all the printable ASCII characters
 127:src/pdf417/PDFDecodedBitStreamParser.c **** * (i.e. values from 32 to 126) and three ASCII control characters: HT or tab
 128:src/pdf417/PDFDecodedBitStreamParser.c **** * (ASCII value 9), LF or line feed (ASCII value 10), and CR or carriage
 129:src/pdf417/PDFDecodedBitStreamParser.c **** * return (ASCII value 13). The Text Compaction mode also includes various latch
 130:src/pdf417/PDFDecodedBitStreamParser.c **** * and shift characters which are used exclusively within the mode. The Text
 131:src/pdf417/PDFDecodedBitStreamParser.c **** * Compaction mode encodes up to 2 characters per codeword. The compaction rules
 132:src/pdf417/PDFDecodedBitStreamParser.c **** * for converting data into PDF417 codewords are defined in 5.4.2.2. The sub-mode
 133:src/pdf417/PDFDecodedBitStreamParser.c **** * switches are defined in 5.4.2.3.
 134:src/pdf417/PDFDecodedBitStreamParser.c **** *
 135:src/pdf417/PDFDecodedBitStreamParser.c **** * @param textCompactionData The text compaction data.
 136:src/pdf417/PDFDecodedBitStreamParser.c **** * @param length             The size of the text compaction data.
 137:src/pdf417/PDFDecodedBitStreamParser.c **** * @param resultEncoded      The Unicode-encoded data.
 138:src/pdf417/PDFDecodedBitStreamParser.c **** * @param result             The data in the character set encoding.
 139:src/pdf417/PDFDecodedBitStreamParser.c **** * @param encoding           Currently active character encoding.
 140:src/pdf417/PDFDecodedBitStreamParser.c **** */
 141:src/pdf417/PDFDecodedBitStreamParser.c **** 
 142:src/pdf417/PDFDecodedBitStreamParser.c **** static void DecodeTextCompaction(const int * textCompactionData, int length, unsigned char * result
 143:src/pdf417/PDFDecodedBitStreamParser.c **** 								 char * result, CharacterSet_t * encoding)
 144:src/pdf417/PDFDecodedBitStreamParser.c **** {
 158              		.loc 1 144 1
 159              		.cfi_startproc
 160 0079 55       		pushl	%ebp
 161              	LCFI6:
 162              		.cfi_def_cfa_offset 8
 163              		.cfi_offset 5, -8
 164 007a 89E5     		movl	%esp, %ebp
 165              	LCFI7:
 166              		.cfi_def_cfa_register 5
 167 007c 83EC48   		subl	$72, %esp
 145:src/pdf417/PDFDecodedBitStreamParser.c **** 
 146:src/pdf417/PDFDecodedBitStreamParser.c **** 	printf("DecodeTextCompaction\n");
 168              		.loc 1 146 2
 169 007f C70424BF 		movl	$LC3, (%esp)
 169      000000
 170 0086 E8000000 		call	_puts
 170      00
 147:src/pdf417/PDFDecodedBitStreamParser.c **** 
GAS LISTING C:\Users\jisu8\AppData\Local\Temp\ccM43flq.s 			page 7


 148:src/pdf417/PDFDecodedBitStreamParser.c **** 	// Beginning from an initial state of the Alpha sub-mode
 149:src/pdf417/PDFDecodedBitStreamParser.c **** 	// The default compaction mode for PDF417 in effect at the start of each symbol shall always be Te
 150:src/pdf417/PDFDecodedBitStreamParser.c **** 	// Compaction mode Alpha sub-mode (uppercase alphabetic). A latch codeword from another mode to th
 151:src/pdf417/PDFDecodedBitStreamParser.c **** 	// Compaction mode shall always switch to the Text Compaction Alpha sub-mode.
 152:src/pdf417/PDFDecodedBitStreamParser.c **** 	Mode_t subMode = ALPHA;
 171              		.loc 1 152 9
 172 008b C745F400 		movl	$0, -12(%ebp)
 172      000000
 153:src/pdf417/PDFDecodedBitStreamParser.c **** 	Mode_t priorToShiftMode = ALPHA;
 173              		.loc 1 153 9
 174 0092 C745F000 		movl	$0, -16(%ebp)
 174      000000
 154:src/pdf417/PDFDecodedBitStreamParser.c **** 
 155:src/pdf417/PDFDecodedBitStreamParser.c **** 	int i = 0;
 175              		.loc 1 155 6
 176 0099 C745EC00 		movl	$0, -20(%ebp)
 176      000000
 156:src/pdf417/PDFDecodedBitStreamParser.c **** 	int character_idx = strlen(result);
 177              		.loc 1 156 22
 178 00a0 8B4514   		movl	20(%ebp), %eax
 179 00a3 890424   		movl	%eax, (%esp)
 180 00a6 E8000000 		call	_strlen
 180      00
 181              		.loc 1 156 6
 182 00ab 8945E8   		movl	%eax, -24(%ebp)
 157:src/pdf417/PDFDecodedBitStreamParser.c **** 
 158:src/pdf417/PDFDecodedBitStreamParser.c **** 	while (i < length) 
 183              		.loc 1 158 8
 184 00ae E9290300 		jmp	L12
 184      00
 185              	L47:
 186              	LBB2:
 159:src/pdf417/PDFDecodedBitStreamParser.c **** 	{
 160:src/pdf417/PDFDecodedBitStreamParser.c **** 		int subModeCh = textCompactionData[i];
 187              		.loc 1 160 37
 188 00b3 8B45EC   		movl	-20(%ebp), %eax
 189 00b6 8D148500 		leal	0(,%eax,4), %edx
 189      000000
 190 00bd 8B4508   		movl	8(%ebp), %eax
 191 00c0 01D0     		addl	%edx, %eax
 192              		.loc 1 160 7
 193 00c2 8B00     		movl	(%eax), %eax
 194 00c4 8945E0   		movl	%eax, -32(%ebp)
 161:src/pdf417/PDFDecodedBitStreamParser.c **** 
 162:src/pdf417/PDFDecodedBitStreamParser.c **** 		// Note only have ECI and MODE_SHIFT_TO_BYTE_COMPACTION_MODE function codewords in text compactio
 163:src/pdf417/PDFDecodedBitStreamParser.c **** 		if (subModeCh >= ECI_USER_DEFINED && subModeCh <= ECI_CHARSET) 
 195              		.loc 1 163 6
 196 00c7 817DE09C 		cmpl	$924, -32(%ebp)
 196      030000
 197 00ce 7E49     		jle	L13
 198              		.loc 1 163 37 discriminator 1
 199 00d0 817DE09F 		cmpl	$927, -32(%ebp)
 199      030000
 200 00d7 7F40     		jg	L13
 164:src/pdf417/PDFDecodedBitStreamParser.c **** 		{
 165:src/pdf417/PDFDecodedBitStreamParser.c **** 			i = ProcessECI(textCompactionData, i + 1, length, subModeCh, resultEncoded, result, encoding);
 201              		.loc 1 165 8
GAS LISTING C:\Users\jisu8\AppData\Local\Temp\ccM43flq.s 			page 8


 202 00d9 8B45EC   		movl	-20(%ebp), %eax
 203 00dc 8D5001   		leal	1(%eax), %edx
 204 00df 8B4518   		movl	24(%ebp), %eax
 205 00e2 89442418 		movl	%eax, 24(%esp)
 206 00e6 8B4514   		movl	20(%ebp), %eax
 207 00e9 89442414 		movl	%eax, 20(%esp)
 208 00ed 8B4510   		movl	16(%ebp), %eax
 209 00f0 89442410 		movl	%eax, 16(%esp)
 210 00f4 8B45E0   		movl	-32(%ebp), %eax
 211 00f7 8944240C 		movl	%eax, 12(%esp)
 212 00fb 8B450C   		movl	12(%ebp), %eax
 213 00fe 89442408 		movl	%eax, 8(%esp)
 214 0102 89542404 		movl	%edx, 4(%esp)
 215 0106 8B4508   		movl	8(%ebp), %eax
 216 0109 890424   		movl	%eax, (%esp)
 217 010c E816FFFF 		call	_ProcessECI
 217      FF
 218 0111 8945EC   		movl	%eax, -20(%ebp)
 166:src/pdf417/PDFDecodedBitStreamParser.c **** 			continue;
 219              		.loc 1 166 4
 220 0114 E9C30200 		jmp	L12
 220      00
 221              	L13:
 167:src/pdf417/PDFDecodedBitStreamParser.c **** 		}
 168:src/pdf417/PDFDecodedBitStreamParser.c **** 
 169:src/pdf417/PDFDecodedBitStreamParser.c **** 		if (subModeCh == MODE_SHIFT_TO_BYTE_COMPACTION_MODE) 
 222              		.loc 1 169 6
 223 0119 817DE091 		cmpl	$913, -32(%ebp)
 223      030000
 224 0120 0F85B400 		jne	L14
 224      0000
 170:src/pdf417/PDFDecodedBitStreamParser.c **** 		{
 171:src/pdf417/PDFDecodedBitStreamParser.c **** 			i++;
 225              		.loc 1 171 5
 226 0126 8345EC01 		addl	$1, -20(%ebp)
 172:src/pdf417/PDFDecodedBitStreamParser.c **** 			while (i < length && textCompactionData[i] >= ECI_USER_DEFINED && textCompactionData[i] <= ECI_C
 227              		.loc 1 172 10
 228 012a EB49     		jmp	L15
 229              	L17:
 173:src/pdf417/PDFDecodedBitStreamParser.c **** 			{
 174:src/pdf417/PDFDecodedBitStreamParser.c **** 				i = ProcessECI(textCompactionData, i + 1, length, textCompactionData[i], resultEncoded, result,
 230              		.loc 1 174 73
 231 012c 8B45EC   		movl	-20(%ebp), %eax
 232 012f 8D148500 		leal	0(,%eax,4), %edx
 232      000000
 233 0136 8B4508   		movl	8(%ebp), %eax
 234 0139 01D0     		addl	%edx, %eax
 235              		.loc 1 174 9
 236 013b 8B00     		movl	(%eax), %eax
 237 013d 8B55EC   		movl	-20(%ebp), %edx
 238 0140 8D4A01   		leal	1(%edx), %ecx
 239 0143 8B5518   		movl	24(%ebp), %edx
 240 0146 89542418 		movl	%edx, 24(%esp)
 241 014a 8B5514   		movl	20(%ebp), %edx
 242 014d 89542414 		movl	%edx, 20(%esp)
 243 0151 8B5510   		movl	16(%ebp), %edx
 244 0154 89542410 		movl	%edx, 16(%esp)
GAS LISTING C:\Users\jisu8\AppData\Local\Temp\ccM43flq.s 			page 9


 245 0158 8944240C 		movl	%eax, 12(%esp)
 246 015c 8B450C   		movl	12(%ebp), %eax
 247 015f 89442408 		movl	%eax, 8(%esp)
 248 0163 894C2404 		movl	%ecx, 4(%esp)
 249 0167 8B4508   		movl	8(%ebp), %eax
 250 016a 890424   		movl	%eax, (%esp)
 251 016d E8B5FEFF 		call	_ProcessECI
 251      FF
 252 0172 8945EC   		movl	%eax, -20(%ebp)
 253              	L15:
 172:src/pdf417/PDFDecodedBitStreamParser.c **** 			while (i < length && textCompactionData[i] >= ECI_USER_DEFINED && textCompactionData[i] <= ECI_C
 254              		.loc 1 172 10
 255 0175 8B45EC   		movl	-20(%ebp), %eax
 256 0178 3B450C   		cmpl	12(%ebp), %eax
 257 017b 7D34     		jge	L16
 172:src/pdf417/PDFDecodedBitStreamParser.c **** 			while (i < length && textCompactionData[i] >= ECI_USER_DEFINED && textCompactionData[i] <= ECI_C
 258              		.loc 1 172 43 discriminator 1
 259 017d 8B45EC   		movl	-20(%ebp), %eax
 260 0180 8D148500 		leal	0(,%eax,4), %edx
 260      000000
 261 0187 8B4508   		movl	8(%ebp), %eax
 262 018a 01D0     		addl	%edx, %eax
 263 018c 8B00     		movl	(%eax), %eax
 172:src/pdf417/PDFDecodedBitStreamParser.c **** 			while (i < length && textCompactionData[i] >= ECI_USER_DEFINED && textCompactionData[i] <= ECI_C
 264              		.loc 1 172 22 discriminator 1
 265 018e 3D9C0300 		cmpl	$924, %eax
 265      00
 266 0193 7E1C     		jle	L16
 172:src/pdf417/PDFDecodedBitStreamParser.c **** 			while (i < length && textCompactionData[i] >= ECI_USER_DEFINED && textCompactionData[i] <= ECI_C
 267              		.loc 1 172 88 discriminator 2
 268 0195 8B45EC   		movl	-20(%ebp), %eax
 269 0198 8D148500 		leal	0(,%eax,4), %edx
 269      000000
 270 019f 8B4508   		movl	8(%ebp), %eax
 271 01a2 01D0     		addl	%edx, %eax
 272 01a4 8B00     		movl	(%eax), %eax
 172:src/pdf417/PDFDecodedBitStreamParser.c **** 			while (i < length && textCompactionData[i] >= ECI_USER_DEFINED && textCompactionData[i] <= ECI_C
 273              		.loc 1 172 67 discriminator 2
 274 01a6 3D9F0300 		cmpl	$927, %eax
 274      00
 275 01ab 0F8E7BFF 		jle	L17
 275      FFFF
 276              	L16:
 175:src/pdf417/PDFDecodedBitStreamParser.c **** 							   encoding);
 176:src/pdf417/PDFDecodedBitStreamParser.c **** 			}
 177:src/pdf417/PDFDecodedBitStreamParser.c **** 			if (i < length) 
 277              		.loc 1 177 7
 278 01b1 8B45EC   		movl	-20(%ebp), %eax
 279 01b4 3B450C   		cmpl	12(%ebp), %eax
 280 01b7 0F8D1F02 		jge	L12
 280      0000
 178:src/pdf417/PDFDecodedBitStreamParser.c **** 			{
 179:src/pdf417/PDFDecodedBitStreamParser.c **** 				result=textCompactionData[i];
 281              		.loc 1 179 30
 282 01bd 8B45EC   		movl	-20(%ebp), %eax
 283 01c0 8D148500 		leal	0(,%eax,4), %edx
 283      000000
GAS LISTING C:\Users\jisu8\AppData\Local\Temp\ccM43flq.s 			page 10


 284 01c7 8B4508   		movl	8(%ebp), %eax
 285 01ca 01D0     		addl	%edx, %eax
 286 01cc 8B00     		movl	(%eax), %eax
 287              		.loc 1 179 11
 288 01ce 894514   		movl	%eax, 20(%ebp)
 180:src/pdf417/PDFDecodedBitStreamParser.c **** 				i++;
 289              		.loc 1 180 6
 290 01d1 8345EC01 		addl	$1, -20(%ebp)
 181:src/pdf417/PDFDecodedBitStreamParser.c **** 			}
 182:src/pdf417/PDFDecodedBitStreamParser.c **** 			continue;
 291              		.loc 1 182 4
 292 01d5 E9020200 		jmp	L12
 292      00
 293              	L14:
 183:src/pdf417/PDFDecodedBitStreamParser.c **** 		}
 184:src/pdf417/PDFDecodedBitStreamParser.c **** 
 185:src/pdf417/PDFDecodedBitStreamParser.c **** 		char ch = 0;
 294              		.loc 1 185 8
 295 01da C645E700 		movb	$0, -25(%ebp)
 186:src/pdf417/PDFDecodedBitStreamParser.c **** 		switch (subMode) 
 296              		.loc 1 186 3
 297 01de 837DF405 		cmpl	$5, -12(%ebp)
 298 01e2 0F87D801 		ja	L19
 298      0000
 299 01e8 8B45F4   		movl	-12(%ebp), %eax
 300 01eb C1E002   		sall	$2, %eax
 301 01ee 05D40000 		addl	$L21, %eax
 301      00
 302 01f3 8B00     		movl	(%eax), %eax
 303 01f5 FFE0     		jmp	*%eax
 304              		.section .rdata,"dr"
 305              		.align 4
 306              	L21:
 307 00d4 F7010000 		.long	L25
 308 00d8 F7010000 		.long	L25
 309 00dc B2020000 		.long	L24
 310 00e0 4C030000 		.long	L23
 311 00e4 6E030000 		.long	L22
 312 00e8 91030000 		.long	L20
 313              		.text
 314              	L25:
 187:src/pdf417/PDFDecodedBitStreamParser.c **** 		{
 188:src/pdf417/PDFDecodedBitStreamParser.c **** 			case ALPHA:
 189:src/pdf417/PDFDecodedBitStreamParser.c **** 			case LOWER:
 190:src/pdf417/PDFDecodedBitStreamParser.c **** 				// Alpha (uppercase alphabetic) or Lower (lowercase alphabetic)
 191:src/pdf417/PDFDecodedBitStreamParser.c **** 				if (subModeCh < 26) 
 315              		.loc 1 191 8
 316 01f7 837DE019 		cmpl	$25, -32(%ebp)
 317 01fb 7F1F     		jg	L26
 192:src/pdf417/PDFDecodedBitStreamParser.c **** 				{
 193:src/pdf417/PDFDecodedBitStreamParser.c **** 					// Upper/lowercase character
 194:src/pdf417/PDFDecodedBitStreamParser.c **** 					ch = (char)((subMode == ALPHA ? 'A' : 'a') + subModeCh);
 318              		.loc 1 194 49
 319 01fd 837DF400 		cmpl	$0, -12(%ebp)
 320 0201 7507     		jne	L27
 321              		.loc 1 194 49 is_stmt 0 discriminator 1
 322 0203 B8410000 		movl	$65, %eax
GAS LISTING C:\Users\jisu8\AppData\Local\Temp\ccM43flq.s 			page 11


 322      00
 323 0208 EB05     		jmp	L28
 324              	L27:
 325              		.loc 1 194 49 discriminator 2
 326 020a B8610000 		movl	$97, %eax
 326      00
 327              	L28:
 328              		.loc 1 194 49 discriminator 4
 329 020f 8B55E0   		movl	-32(%ebp), %edx
 330 0212 01D0     		addl	%edx, %eax
 331              		.loc 1 194 9 is_stmt 1 discriminator 4
 332 0214 8845E7   		movb	%al, -25(%ebp)
 195:src/pdf417/PDFDecodedBitStreamParser.c **** 				}
 196:src/pdf417/PDFDecodedBitStreamParser.c **** 				else if (subModeCh == 26) 
 197:src/pdf417/PDFDecodedBitStreamParser.c **** 				{ // Space
 198:src/pdf417/PDFDecodedBitStreamParser.c **** 					ch = ' ';
 199:src/pdf417/PDFDecodedBitStreamParser.c **** 				}
 200:src/pdf417/PDFDecodedBitStreamParser.c **** 				else if (subModeCh == 27 && subMode == ALPHA) 
 201:src/pdf417/PDFDecodedBitStreamParser.c **** 				{ // LL
 202:src/pdf417/PDFDecodedBitStreamParser.c **** 					subMode = LOWER;
 203:src/pdf417/PDFDecodedBitStreamParser.c **** 				}
 204:src/pdf417/PDFDecodedBitStreamParser.c **** 				else if (subModeCh == 27 && subMode == LOWER) 
 205:src/pdf417/PDFDecodedBitStreamParser.c **** 				{ // AS
 206:src/pdf417/PDFDecodedBitStreamParser.c **** 					// Shift to alpha
 207:src/pdf417/PDFDecodedBitStreamParser.c **** 					priorToShiftMode = subMode;
 208:src/pdf417/PDFDecodedBitStreamParser.c **** 					subMode = ALPHA_SHIFT;
 209:src/pdf417/PDFDecodedBitStreamParser.c **** 				}
 210:src/pdf417/PDFDecodedBitStreamParser.c **** 				else if (subModeCh == 28) 
 211:src/pdf417/PDFDecodedBitStreamParser.c **** 				{ // ML
 212:src/pdf417/PDFDecodedBitStreamParser.c **** 					subMode = MIXED;
 213:src/pdf417/PDFDecodedBitStreamParser.c **** 				}
 214:src/pdf417/PDFDecodedBitStreamParser.c **** 				// 29 PS - ignore if last or followed by Shift to Byte, 5.4.2.4 (b) (1)
 215:src/pdf417/PDFDecodedBitStreamParser.c **** 				else if (i + 1 < length && textCompactionData[i + 1] != MODE_SHIFT_TO_BYTE_COMPACTION_MODE) 
 216:src/pdf417/PDFDecodedBitStreamParser.c **** 				{
 217:src/pdf417/PDFDecodedBitStreamParser.c **** 					// Shift to punctuation
 218:src/pdf417/PDFDecodedBitStreamParser.c **** 					priorToShiftMode = subMode;
 219:src/pdf417/PDFDecodedBitStreamParser.c **** 					subMode = PUNCT_SHIFT;
 220:src/pdf417/PDFDecodedBitStreamParser.c **** 				}
 221:src/pdf417/PDFDecodedBitStreamParser.c **** 			break;
 333              		.loc 1 221 4 discriminator 4
 334 0217 E99D0100 		jmp	L48
 334      00
 335              	L26:
 196:src/pdf417/PDFDecodedBitStreamParser.c **** 				{ // Space
 336              		.loc 1 196 13
 337 021c 837DE01A 		cmpl	$26, -32(%ebp)
 338 0220 7509     		jne	L30
 198:src/pdf417/PDFDecodedBitStreamParser.c **** 				}
 339              		.loc 1 198 9
 340 0222 C645E720 		movb	$32, -25(%ebp)
 341              		.loc 1 221 4
 342 0226 E98E0100 		jmp	L48
 342      00
 343              	L30:
 200:src/pdf417/PDFDecodedBitStreamParser.c **** 				{ // LL
 344              		.loc 1 200 13
 345 022b 837DE01B 		cmpl	$27, -32(%ebp)
GAS LISTING C:\Users\jisu8\AppData\Local\Temp\ccM43flq.s 			page 12


 346 022f 750F     		jne	L31
 200:src/pdf417/PDFDecodedBitStreamParser.c **** 				{ // LL
 347              		.loc 1 200 30 discriminator 1
 348 0231 837DF400 		cmpl	$0, -12(%ebp)
 349 0235 7509     		jne	L31
 202:src/pdf417/PDFDecodedBitStreamParser.c **** 				}
 350              		.loc 1 202 14
 351 0237 C745F401 		movl	$1, -12(%ebp)
 351      000000
 352 023e EB6D     		jmp	L29
 353              	L31:
 204:src/pdf417/PDFDecodedBitStreamParser.c **** 				{ // AS
 354              		.loc 1 204 13
 355 0240 837DE01B 		cmpl	$27, -32(%ebp)
 356 0244 7515     		jne	L32
 204:src/pdf417/PDFDecodedBitStreamParser.c **** 				{ // AS
 357              		.loc 1 204 30 discriminator 1
 358 0246 837DF401 		cmpl	$1, -12(%ebp)
 359 024a 750F     		jne	L32
 207:src/pdf417/PDFDecodedBitStreamParser.c **** 					subMode = ALPHA_SHIFT;
 360              		.loc 1 207 23
 361 024c 8B45F4   		movl	-12(%ebp), %eax
 362 024f 8945F0   		movl	%eax, -16(%ebp)
 208:src/pdf417/PDFDecodedBitStreamParser.c **** 				}
 363              		.loc 1 208 14
 364 0252 C745F404 		movl	$4, -12(%ebp)
 364      000000
 365 0259 EB52     		jmp	L29
 366              	L32:
 210:src/pdf417/PDFDecodedBitStreamParser.c **** 				{ // ML
 367              		.loc 1 210 13
 368 025b 837DE01C 		cmpl	$28, -32(%ebp)
 369 025f 750C     		jne	L33
 212:src/pdf417/PDFDecodedBitStreamParser.c **** 				}
 370              		.loc 1 212 14
 371 0261 C745F402 		movl	$2, -12(%ebp)
 371      000000
 372              		.loc 1 221 4
 373 0268 E94C0100 		jmp	L48
 373      00
 374              	L33:
 215:src/pdf417/PDFDecodedBitStreamParser.c **** 				{
 375              		.loc 1 215 16
 376 026d 8B45EC   		movl	-20(%ebp), %eax
 377 0270 83C001   		addl	$1, %eax
 215:src/pdf417/PDFDecodedBitStreamParser.c **** 				{
 378              		.loc 1 215 13
 379 0273 39450C   		cmpl	%eax, 12(%ebp)
 380 0276 0F8E3D01 		jle	L48
 380      0000
 215:src/pdf417/PDFDecodedBitStreamParser.c **** 				{
 381              		.loc 1 215 50 discriminator 1
 382 027c 8B45EC   		movl	-20(%ebp), %eax
 383 027f 83C001   		addl	$1, %eax
 384 0282 8D148500 		leal	0(,%eax,4), %edx
 384      000000
 385 0289 8B4508   		movl	8(%ebp), %eax
GAS LISTING C:\Users\jisu8\AppData\Local\Temp\ccM43flq.s 			page 13


 386 028c 01D0     		addl	%edx, %eax
 387 028e 8B00     		movl	(%eax), %eax
 215:src/pdf417/PDFDecodedBitStreamParser.c **** 				{
 388              		.loc 1 215 29 discriminator 1
 389 0290 3D910300 		cmpl	$913, %eax
 389      00
 390 0295 0F841E01 		je	L48
 390      0000
 218:src/pdf417/PDFDecodedBitStreamParser.c **** 					subMode = PUNCT_SHIFT;
 391              		.loc 1 218 23
 392 029b 8B45F4   		movl	-12(%ebp), %eax
 393 029e 8945F0   		movl	%eax, -16(%ebp)
 219:src/pdf417/PDFDecodedBitStreamParser.c **** 				}
 394              		.loc 1 219 14
 395 02a1 C745F405 		movl	$5, -12(%ebp)
 395      000000
 396              		.loc 1 221 4
 397 02a8 E90C0100 		jmp	L48
 397      00
 398              	L29:
 399 02ad E9070100 		jmp	L48
 399      00
 400              	L24:
 222:src/pdf417/PDFDecodedBitStreamParser.c **** 			case MIXED:
 223:src/pdf417/PDFDecodedBitStreamParser.c **** 				// Mixed (numeric and some punctuation)
 224:src/pdf417/PDFDecodedBitStreamParser.c **** 				if (subModeCh < 25) 
 401              		.loc 1 224 8
 402 02b2 837DE018 		cmpl	$24, -32(%ebp)
 403 02b6 7F16     		jg	L34
 225:src/pdf417/PDFDecodedBitStreamParser.c **** 				{
 226:src/pdf417/PDFDecodedBitStreamParser.c **** 					ch = MIXED_CHARS[subModeCh];
 404              		.loc 1 226 22
 405 02b8 8B150400 		movl	_MIXED_CHARS, %edx
 405      0000
 406 02be 8B45E0   		movl	-32(%ebp), %eax
 407 02c1 01D0     		addl	%edx, %eax
 408              		.loc 1 226 9
 409 02c3 0FB600   		movzbl	(%eax), %eax
 410 02c6 8845E7   		movb	%al, -25(%ebp)
 227:src/pdf417/PDFDecodedBitStreamParser.c **** 				}
 228:src/pdf417/PDFDecodedBitStreamParser.c **** 				else if (subModeCh == 25) 
 229:src/pdf417/PDFDecodedBitStreamParser.c **** 				{ // PL
 230:src/pdf417/PDFDecodedBitStreamParser.c **** 					subMode = PUNCT;
 231:src/pdf417/PDFDecodedBitStreamParser.c **** 				}
 232:src/pdf417/PDFDecodedBitStreamParser.c **** 				else if (subModeCh == 26) 
 233:src/pdf417/PDFDecodedBitStreamParser.c **** 				{ // Space
 234:src/pdf417/PDFDecodedBitStreamParser.c **** 					ch = ' ';
 235:src/pdf417/PDFDecodedBitStreamParser.c **** 				}
 236:src/pdf417/PDFDecodedBitStreamParser.c **** 				else
 237:src/pdf417/PDFDecodedBitStreamParser.c **** 				if (subModeCh == 27) 
 238:src/pdf417/PDFDecodedBitStreamParser.c **** 				{ // LL
 239:src/pdf417/PDFDecodedBitStreamParser.c **** 					subMode = LOWER;
 240:src/pdf417/PDFDecodedBitStreamParser.c **** 				}
 241:src/pdf417/PDFDecodedBitStreamParser.c **** 				else
 242:src/pdf417/PDFDecodedBitStreamParser.c **** 				if (subModeCh == 28) 
 243:src/pdf417/PDFDecodedBitStreamParser.c **** 				{ // AL
 244:src/pdf417/PDFDecodedBitStreamParser.c **** 					subMode = ALPHA;
GAS LISTING C:\Users\jisu8\AppData\Local\Temp\ccM43flq.s 			page 14


 245:src/pdf417/PDFDecodedBitStreamParser.c **** 				}
 246:src/pdf417/PDFDecodedBitStreamParser.c **** 				// 29 PS - ignore if last or followed by Shift to Byte, 5.4.2.4 (b) (1)
 247:src/pdf417/PDFDecodedBitStreamParser.c **** 				else 
 248:src/pdf417/PDFDecodedBitStreamParser.c **** 				if (i + 1 < length && textCompactionData[i + 1] != MODE_SHIFT_TO_BYTE_COMPACTION_MODE) 
 249:src/pdf417/PDFDecodedBitStreamParser.c **** 				{
 250:src/pdf417/PDFDecodedBitStreamParser.c **** 					// Shift to punctuation
 251:src/pdf417/PDFDecodedBitStreamParser.c **** 					priorToShiftMode = subMode;
 252:src/pdf417/PDFDecodedBitStreamParser.c **** 					subMode = PUNCT_SHIFT;
 253:src/pdf417/PDFDecodedBitStreamParser.c **** 				}
 254:src/pdf417/PDFDecodedBitStreamParser.c **** 			break;
 411              		.loc 1 254 4
 412 02c9 E9EE0000 		jmp	L49
 412      00
 413              	L34:
 228:src/pdf417/PDFDecodedBitStreamParser.c **** 				{ // PL
 414              		.loc 1 228 13
 415 02ce 837DE019 		cmpl	$25, -32(%ebp)
 416 02d2 750C     		jne	L36
 230:src/pdf417/PDFDecodedBitStreamParser.c **** 				}
 417              		.loc 1 230 14
 418 02d4 C745F403 		movl	$3, -12(%ebp)
 418      000000
 419              		.loc 1 254 4
 420 02db E9DC0000 		jmp	L49
 420      00
 421              	L36:
 232:src/pdf417/PDFDecodedBitStreamParser.c **** 				{ // Space
 422              		.loc 1 232 13
 423 02e0 837DE01A 		cmpl	$26, -32(%ebp)
 424 02e4 7509     		jne	L37
 234:src/pdf417/PDFDecodedBitStreamParser.c **** 				}
 425              		.loc 1 234 9
 426 02e6 C645E720 		movb	$32, -25(%ebp)
 427              		.loc 1 254 4
 428 02ea E9CD0000 		jmp	L49
 428      00
 429              	L37:
 237:src/pdf417/PDFDecodedBitStreamParser.c **** 				{ // LL
 430              		.loc 1 237 8
 431 02ef 837DE01B 		cmpl	$27, -32(%ebp)
 432 02f3 750C     		jne	L38
 239:src/pdf417/PDFDecodedBitStreamParser.c **** 				}
 433              		.loc 1 239 14
 434 02f5 C745F401 		movl	$1, -12(%ebp)
 434      000000
 435              		.loc 1 254 4
 436 02fc E9BB0000 		jmp	L49
 436      00
 437              	L38:
 242:src/pdf417/PDFDecodedBitStreamParser.c **** 				{ // AL
 438              		.loc 1 242 8
 439 0301 837DE01C 		cmpl	$28, -32(%ebp)
 440 0305 750C     		jne	L39
 244:src/pdf417/PDFDecodedBitStreamParser.c **** 				}
 441              		.loc 1 244 14
 442 0307 C745F400 		movl	$0, -12(%ebp)
 442      000000
GAS LISTING C:\Users\jisu8\AppData\Local\Temp\ccM43flq.s 			page 15


 443              		.loc 1 254 4
 444 030e E9A90000 		jmp	L49
 444      00
 445              	L39:
 248:src/pdf417/PDFDecodedBitStreamParser.c **** 				{
 446              		.loc 1 248 11
 447 0313 8B45EC   		movl	-20(%ebp), %eax
 448 0316 83C001   		addl	$1, %eax
 248:src/pdf417/PDFDecodedBitStreamParser.c **** 				{
 449              		.loc 1 248 8
 450 0319 39450C   		cmpl	%eax, 12(%ebp)
 451 031c 0F8E9A00 		jle	L49
 451      0000
 248:src/pdf417/PDFDecodedBitStreamParser.c **** 				{
 452              		.loc 1 248 45 discriminator 1
 453 0322 8B45EC   		movl	-20(%ebp), %eax
 454 0325 83C001   		addl	$1, %eax
 455 0328 8D148500 		leal	0(,%eax,4), %edx
 455      000000
 456 032f 8B4508   		movl	8(%ebp), %eax
 457 0332 01D0     		addl	%edx, %eax
 458 0334 8B00     		movl	(%eax), %eax
 248:src/pdf417/PDFDecodedBitStreamParser.c **** 				{
 459              		.loc 1 248 24 discriminator 1
 460 0336 3D910300 		cmpl	$913, %eax
 460      00
 461 033b 747F     		je	L49
 251:src/pdf417/PDFDecodedBitStreamParser.c **** 					subMode = PUNCT_SHIFT;
 462              		.loc 1 251 23
 463 033d 8B45F4   		movl	-12(%ebp), %eax
 464 0340 8945F0   		movl	%eax, -16(%ebp)
 252:src/pdf417/PDFDecodedBitStreamParser.c **** 				}
 465              		.loc 1 252 14
 466 0343 C745F405 		movl	$5, -12(%ebp)
 466      000000
 467              		.loc 1 254 4
 468 034a EB70     		jmp	L49
 469              	L23:
 255:src/pdf417/PDFDecodedBitStreamParser.c **** 			case PUNCT:
 256:src/pdf417/PDFDecodedBitStreamParser.c **** 				// Punctuation
 257:src/pdf417/PDFDecodedBitStreamParser.c **** 				if (subModeCh < 29) {
 470              		.loc 1 257 8
 471 034c 837DE01C 		cmpl	$28, -32(%ebp)
 472 0350 7F13     		jg	L40
 258:src/pdf417/PDFDecodedBitStreamParser.c **** 					ch = PUNCT_CHARS[subModeCh];
 473              		.loc 1 258 22
 474 0352 8B150000 		movl	_PUNCT_CHARS, %edx
 474      0000
 475 0358 8B45E0   		movl	-32(%ebp), %eax
 476 035b 01D0     		addl	%edx, %eax
 477              		.loc 1 258 9
 478 035d 0FB600   		movzbl	(%eax), %eax
 479 0360 8845E7   		movb	%al, -25(%ebp)
 259:src/pdf417/PDFDecodedBitStreamParser.c **** 				}
 260:src/pdf417/PDFDecodedBitStreamParser.c **** 				else { // 29 AL - note not ignored if followed by Shift to Byte, 5.4.2.4 (b) (2)
 261:src/pdf417/PDFDecodedBitStreamParser.c **** 					subMode = ALPHA;
 262:src/pdf417/PDFDecodedBitStreamParser.c **** 				}
GAS LISTING C:\Users\jisu8\AppData\Local\Temp\ccM43flq.s 			page 16


 263:src/pdf417/PDFDecodedBitStreamParser.c **** 			break;
 480              		.loc 1 263 4
 481 0363 EB5B     		jmp	L19
 482              	L40:
 261:src/pdf417/PDFDecodedBitStreamParser.c **** 				}
 483              		.loc 1 261 14
 484 0365 C745F400 		movl	$0, -12(%ebp)
 484      000000
 485              		.loc 1 263 4
 486 036c EB52     		jmp	L19
 487              	L22:
 264:src/pdf417/PDFDecodedBitStreamParser.c **** 				case ALPHA_SHIFT:
 265:src/pdf417/PDFDecodedBitStreamParser.c **** 				// Restore sub-mode
 266:src/pdf417/PDFDecodedBitStreamParser.c **** 				subMode = priorToShiftMode;
 488              		.loc 1 266 13
 489 036e 8B45F0   		movl	-16(%ebp), %eax
 490 0371 8945F4   		movl	%eax, -12(%ebp)
 267:src/pdf417/PDFDecodedBitStreamParser.c **** 				if (subModeCh < 26) 
 491              		.loc 1 267 8
 492 0374 837DE019 		cmpl	$25, -32(%ebp)
 493 0378 7F0B     		jg	L42
 268:src/pdf417/PDFDecodedBitStreamParser.c **** 				{
 269:src/pdf417/PDFDecodedBitStreamParser.c **** 					ch = (char)('A' + subModeCh);
 494              		.loc 1 269 22
 495 037a 8B45E0   		movl	-32(%ebp), %eax
 496 037d 83C041   		addl	$65, %eax
 497              		.loc 1 269 9
 498 0380 8845E7   		movb	%al, -25(%ebp)
 270:src/pdf417/PDFDecodedBitStreamParser.c **** 				}
 271:src/pdf417/PDFDecodedBitStreamParser.c **** 				else if (subModeCh == 26) 
 272:src/pdf417/PDFDecodedBitStreamParser.c **** 				{ // Space
 273:src/pdf417/PDFDecodedBitStreamParser.c **** 					ch = ' ';
 274:src/pdf417/PDFDecodedBitStreamParser.c **** 				}
 275:src/pdf417/PDFDecodedBitStreamParser.c **** 				// 27 LL, 28 ML, 29 PS used as padding
 276:src/pdf417/PDFDecodedBitStreamParser.c **** 			break;
 499              		.loc 1 276 4
 500 0383 EB3A     		jmp	L50
 501              	L42:
 271:src/pdf417/PDFDecodedBitStreamParser.c **** 				{ // Space
 502              		.loc 1 271 13
 503 0385 837DE01A 		cmpl	$26, -32(%ebp)
 504 0389 7534     		jne	L50
 273:src/pdf417/PDFDecodedBitStreamParser.c **** 				}
 505              		.loc 1 273 9
 506 038b C645E720 		movb	$32, -25(%ebp)
 507              		.loc 1 276 4
 508 038f EB2E     		jmp	L50
 509              	L20:
 277:src/pdf417/PDFDecodedBitStreamParser.c **** 			case PUNCT_SHIFT:
 278:src/pdf417/PDFDecodedBitStreamParser.c **** 				// Restore sub-mode
 279:src/pdf417/PDFDecodedBitStreamParser.c **** 				subMode = priorToShiftMode;
 510              		.loc 1 279 13
 511 0391 8B45F0   		movl	-16(%ebp), %eax
 512 0394 8945F4   		movl	%eax, -12(%ebp)
 280:src/pdf417/PDFDecodedBitStreamParser.c **** 				if (subModeCh < 29) 
 513              		.loc 1 280 8
 514 0397 837DE01C 		cmpl	$28, -32(%ebp)
GAS LISTING C:\Users\jisu8\AppData\Local\Temp\ccM43flq.s 			page 17


 515 039b 7F13     		jg	L44
 281:src/pdf417/PDFDecodedBitStreamParser.c **** 				{
 282:src/pdf417/PDFDecodedBitStreamParser.c **** 					ch = PUNCT_CHARS[subModeCh];
 516              		.loc 1 282 22
 517 039d 8B150000 		movl	_PUNCT_CHARS, %edx
 517      0000
 518 03a3 8B45E0   		movl	-32(%ebp), %eax
 519 03a6 01D0     		addl	%edx, %eax
 520              		.loc 1 282 9
 521 03a8 0FB600   		movzbl	(%eax), %eax
 522 03ab 8845E7   		movb	%al, -25(%ebp)
 283:src/pdf417/PDFDecodedBitStreamParser.c **** 				}
 284:src/pdf417/PDFDecodedBitStreamParser.c **** 				else 
 285:src/pdf417/PDFDecodedBitStreamParser.c **** 				{ // 29 AL
 286:src/pdf417/PDFDecodedBitStreamParser.c **** 					subMode = ALPHA;
 287:src/pdf417/PDFDecodedBitStreamParser.c **** 				}
 288:src/pdf417/PDFDecodedBitStreamParser.c **** 			break;
 523              		.loc 1 288 4
 524 03ae EB10     		jmp	L19
 525              	L44:
 286:src/pdf417/PDFDecodedBitStreamParser.c **** 				}
 526              		.loc 1 286 14
 527 03b0 C745F400 		movl	$0, -12(%ebp)
 527      000000
 528              		.loc 1 288 4
 529 03b7 EB07     		jmp	L19
 530              	L48:
 221:src/pdf417/PDFDecodedBitStreamParser.c **** 			case MIXED:
 531              		.loc 1 221 4
 532 03b9 90       		nop
 533 03ba EB04     		jmp	L19
 534              	L49:
 254:src/pdf417/PDFDecodedBitStreamParser.c **** 			case PUNCT:
 535              		.loc 1 254 4
 536 03bc 90       		nop
 537 03bd EB01     		jmp	L19
 538              	L50:
 276:src/pdf417/PDFDecodedBitStreamParser.c **** 			case PUNCT_SHIFT:
 539              		.loc 1 276 4
 540 03bf 90       		nop
 541              	L19:
 289:src/pdf417/PDFDecodedBitStreamParser.c **** 		}
 290:src/pdf417/PDFDecodedBitStreamParser.c **** 		if (ch != 0) 
 542              		.loc 1 290 6
 543 03c0 807DE700 		cmpb	$0, -25(%ebp)
 544 03c4 7412     		je	L46
 291:src/pdf417/PDFDecodedBitStreamParser.c **** 		{
 292:src/pdf417/PDFDecodedBitStreamParser.c **** 			// Append decoded character to result
 293:src/pdf417/PDFDecodedBitStreamParser.c **** 			result[character_idx] = ch;
 545              		.loc 1 293 10
 546 03c6 8B55E8   		movl	-24(%ebp), %edx
 547 03c9 8B4514   		movl	20(%ebp), %eax
 548 03cc 01C2     		addl	%eax, %edx
 549              		.loc 1 293 26
 550 03ce 0FB645E7 		movzbl	-25(%ebp), %eax
 551 03d2 8802     		movb	%al, (%edx)
 294:src/pdf417/PDFDecodedBitStreamParser.c **** 			character_idx++;
GAS LISTING C:\Users\jisu8\AppData\Local\Temp\ccM43flq.s 			page 18


 552              		.loc 1 294 17
 553 03d4 8345E801 		addl	$1, -24(%ebp)
 554              	L46:
 295:src/pdf417/PDFDecodedBitStreamParser.c **** 		}
 296:src/pdf417/PDFDecodedBitStreamParser.c **** 		i++;
 555              		.loc 1 296 4
 556 03d8 8345EC01 		addl	$1, -20(%ebp)
 557              	L12:
 558              	LBE2:
 158:src/pdf417/PDFDecodedBitStreamParser.c **** 	{
 559              		.loc 1 158 8
 560 03dc 8B45EC   		movl	-20(%ebp), %eax
 561 03df 3B450C   		cmpl	12(%ebp), %eax
 562 03e2 0F8CCBFC 		jl	L47
 562      FFFF
 297:src/pdf417/PDFDecodedBitStreamParser.c **** 	}
 298:src/pdf417/PDFDecodedBitStreamParser.c **** }
 563              		.loc 1 298 1
 564 03e8 90       		nop
 565 03e9 C9       		leave
 566              	LCFI8:
 567              		.cfi_restore 5
 568              		.cfi_def_cfa 4, 4
 569 03ea C3       		ret
 570              		.cfi_endproc
 571              	LFE19:
 572              		.section .rdata,"dr"
 573              	LC4:
 574 00ec 50726F63 		.ascii "ProcessTextECI\0"
 574      65737354 
 574      65787445 
 574      434900
 575              		.text
 577              	_ProcessTextECI:
 578              	LFB20:
 299:src/pdf417/PDFDecodedBitStreamParser.c **** 
 300:src/pdf417/PDFDecodedBitStreamParser.c **** 
 301:src/pdf417/PDFDecodedBitStreamParser.c **** /*
 302:src/pdf417/PDFDecodedBitStreamParser.c **** * Helper to put ECI codewords into Text Compaction array.
 303:src/pdf417/PDFDecodedBitStreamParser.c **** */
 304:src/pdf417/PDFDecodedBitStreamParser.c **** static int ProcessTextECI(int * textCompactionData, int index,
 305:src/pdf417/PDFDecodedBitStreamParser.c **** 						  const int * codewords, int codeIndex, const int code) 
 306:src/pdf417/PDFDecodedBitStreamParser.c **** {
 579              		.loc 1 306 1
 580              		.cfi_startproc
 581 03eb 55       		pushl	%ebp
 582              	LCFI9:
 583              		.cfi_def_cfa_offset 8
 584              		.cfi_offset 5, -8
 585 03ec 89E5     		movl	%esp, %ebp
 586              	LCFI10:
 587              		.cfi_def_cfa_register 5
 588 03ee 83EC18   		subl	$24, %esp
 307:src/pdf417/PDFDecodedBitStreamParser.c **** 
 308:src/pdf417/PDFDecodedBitStreamParser.c **** 	printf("ProcessTextECI\n");
 589              		.loc 1 308 2
 590 03f1 C70424EC 		movl	$LC4, (%esp)
GAS LISTING C:\Users\jisu8\AppData\Local\Temp\ccM43flq.s 			page 19


 590      000000
 591 03f8 E8000000 		call	_puts
 591      00
 309:src/pdf417/PDFDecodedBitStreamParser.c **** 
 310:src/pdf417/PDFDecodedBitStreamParser.c **** 	textCompactionData[index++] = code;
 592              		.loc 1 310 26
 593 03fd 8B450C   		movl	12(%ebp), %eax
 594 0400 8D5001   		leal	1(%eax), %edx
 595 0403 89550C   		movl	%edx, 12(%ebp)
 596              		.loc 1 310 20
 597 0406 8D148500 		leal	0(,%eax,4), %edx
 597      000000
 598 040d 8B4508   		movl	8(%ebp), %eax
 599 0410 01C2     		addl	%eax, %edx
 600              		.loc 1 310 30
 601 0412 8B4518   		movl	24(%ebp), %eax
 602 0415 8902     		movl	%eax, (%edx)
 311:src/pdf417/PDFDecodedBitStreamParser.c **** 
 312:src/pdf417/PDFDecodedBitStreamParser.c **** 	if (codeIndex < codewords[0]) 
 603              		.loc 1 312 27
 604 0417 8B4510   		movl	16(%ebp), %eax
 605 041a 8B00     		movl	(%eax), %eax
 606              		.loc 1 312 5
 607 041c 394514   		cmpl	%eax, 20(%ebp)
 608 041f 7D71     		jge	L52
 313:src/pdf417/PDFDecodedBitStreamParser.c **** 	{
 314:src/pdf417/PDFDecodedBitStreamParser.c **** 		textCompactionData[index++] = codewords[codeIndex++];
 609              		.loc 1 314 52
 610 0421 8B4514   		movl	20(%ebp), %eax
 611 0424 8D5001   		leal	1(%eax), %edx
 612 0427 895514   		movl	%edx, 20(%ebp)
 613              		.loc 1 314 42
 614 042a 8D148500 		leal	0(,%eax,4), %edx
 614      000000
 615 0431 8B4510   		movl	16(%ebp), %eax
 616 0434 8D0C02   		leal	(%edx,%eax), %ecx
 617              		.loc 1 314 27
 618 0437 8B450C   		movl	12(%ebp), %eax
 619 043a 8D5001   		leal	1(%eax), %edx
 620 043d 89550C   		movl	%edx, 12(%ebp)
 621              		.loc 1 314 21
 622 0440 8D148500 		leal	0(,%eax,4), %edx
 622      000000
 623 0447 8B4508   		movl	8(%ebp), %eax
 624 044a 01C2     		addl	%eax, %edx
 625              		.loc 1 314 42
 626 044c 8B01     		movl	(%ecx), %eax
 627              		.loc 1 314 31
 628 044e 8902     		movl	%eax, (%edx)
 315:src/pdf417/PDFDecodedBitStreamParser.c **** 		if (codeIndex < codewords[0] && code == ECI_GENERAL_PURPOSE) 
 629              		.loc 1 315 28
 630 0450 8B4510   		movl	16(%ebp), %eax
 631 0453 8B00     		movl	(%eax), %eax
 632              		.loc 1 315 6
 633 0455 394514   		cmpl	%eax, 20(%ebp)
 634 0458 7D38     		jge	L52
 635              		.loc 1 315 32 discriminator 1
GAS LISTING C:\Users\jisu8\AppData\Local\Temp\ccM43flq.s 			page 20


 636 045a 817D189E 		cmpl	$926, 24(%ebp)
 636      030000
 637 0461 752F     		jne	L52
 316:src/pdf417/PDFDecodedBitStreamParser.c **** 		{
 317:src/pdf417/PDFDecodedBitStreamParser.c **** 			textCompactionData[index++] = codewords[codeIndex++];
 638              		.loc 1 317 53
 639 0463 8B4514   		movl	20(%ebp), %eax
 640 0466 8D5001   		leal	1(%eax), %edx
 641 0469 895514   		movl	%edx, 20(%ebp)
 642              		.loc 1 317 43
 643 046c 8D148500 		leal	0(,%eax,4), %edx
 643      000000
 644 0473 8B4510   		movl	16(%ebp), %eax
 645 0476 8D0C02   		leal	(%edx,%eax), %ecx
 646              		.loc 1 317 28
 647 0479 8B450C   		movl	12(%ebp), %eax
 648 047c 8D5001   		leal	1(%eax), %edx
 649 047f 89550C   		movl	%edx, 12(%ebp)
 650              		.loc 1 317 22
 651 0482 8D148500 		leal	0(,%eax,4), %edx
 651      000000
 652 0489 8B4508   		movl	8(%ebp), %eax
 653 048c 01C2     		addl	%eax, %edx
 654              		.loc 1 317 43
 655 048e 8B01     		movl	(%ecx), %eax
 656              		.loc 1 317 32
 657 0490 8902     		movl	%eax, (%edx)
 658              	L52:
 318:src/pdf417/PDFDecodedBitStreamParser.c **** 		}
 319:src/pdf417/PDFDecodedBitStreamParser.c **** 	}
 320:src/pdf417/PDFDecodedBitStreamParser.c **** 
 321:src/pdf417/PDFDecodedBitStreamParser.c **** 	return codeIndex;
 659              		.loc 1 321 9
 660 0492 8B4514   		movl	20(%ebp), %eax
 322:src/pdf417/PDFDecodedBitStreamParser.c **** }
 661              		.loc 1 322 1
 662 0495 C9       		leave
 663              	LCFI11:
 664              		.cfi_restore 5
 665              		.cfi_def_cfa 4, 4
 666 0496 C3       		ret
 667              		.cfi_endproc
 668              	LFE20:
 669              		.section .rdata,"dr"
 670              	LC5:
 671 00fb 54657874 		.ascii "TextCompaction\0"
 671      436F6D70 
 671      61637469 
 671      6F6E00
 672              		.text
 674              	_TextCompaction:
 675              	LFB21:
 323:src/pdf417/PDFDecodedBitStreamParser.c **** 
 324:src/pdf417/PDFDecodedBitStreamParser.c **** 
 325:src/pdf417/PDFDecodedBitStreamParser.c **** /**
 326:src/pdf417/PDFDecodedBitStreamParser.c **** * Text Compaction mode (see 5.4.1.5) permits all printable ASCII characters to be
 327:src/pdf417/PDFDecodedBitStreamParser.c **** * encoded, i.e. values 32 - 126 inclusive in accordance with ISO/IEC 646 (IRV), as
GAS LISTING C:\Users\jisu8\AppData\Local\Temp\ccM43flq.s 			page 21


 328:src/pdf417/PDFDecodedBitStreamParser.c **** * well as selected control characters.
 329:src/pdf417/PDFDecodedBitStreamParser.c **** *
 330:src/pdf417/PDFDecodedBitStreamParser.c **** * @param codewords     The array of codewords (data + error)
 331:src/pdf417/PDFDecodedBitStreamParser.c **** * @param codeIndex     The current index into the codeword array.
 332:src/pdf417/PDFDecodedBitStreamParser.c **** * @param resultEncoded The Unicode-encoded data.
 333:src/pdf417/PDFDecodedBitStreamParser.c **** * @param result        The data in the character set encoding.
 334:src/pdf417/PDFDecodedBitStreamParser.c **** * @param encoding      Currently active character encoding.
 335:src/pdf417/PDFDecodedBitStreamParser.c **** * @return The next index into the codeword array.
 336:src/pdf417/PDFDecodedBitStreamParser.c **** */
 337:src/pdf417/PDFDecodedBitStreamParser.c **** static int TextCompaction(DecodeStatus_t status, const int * codewords, int codeIndex,
 338:src/pdf417/PDFDecodedBitStreamParser.c **** 						  unsigned char * resultEncoded, char * result, CharacterSet_t * encoding)
 339:src/pdf417/PDFDecodedBitStreamParser.c **** {
 676              		.loc 1 339 1
 677              		.cfi_startproc
 678 0497 55       		pushl	%ebp
 679              	LCFI12:
 680              		.cfi_def_cfa_offset 8
 681              		.cfi_offset 5, -8
 682 0498 89E5     		movl	%esp, %ebp
 683              	LCFI13:
 684              		.cfi_def_cfa_register 5
 685 049a 56       		pushl	%esi
 686 049b 53       		pushl	%ebx
 687 049c 83EC40   		subl	$64, %esp
 688              		.cfi_offset 6, -12
 689              		.cfi_offset 3, -16
 690              		.loc 1 339 1
 691 049f 89E0     		movl	%esp, %eax
 692 04a1 89C6     		movl	%eax, %esi
 340:src/pdf417/PDFDecodedBitStreamParser.c **** 
 341:src/pdf417/PDFDecodedBitStreamParser.c **** 	printf("TextCompaction\n");
 693              		.loc 1 341 2
 694 04a3 C70424FB 		movl	$LC5, (%esp)
 694      000000
 695 04aa E8000000 		call	_puts
 695      00
 342:src/pdf417/PDFDecodedBitStreamParser.c **** 
 343:src/pdf417/PDFDecodedBitStreamParser.c **** 	// 2 characters per codeword
 344:src/pdf417/PDFDecodedBitStreamParser.c **** 	int size = (codewords[0] - codeIndex) * 2;
 696              		.loc 1 344 23
 697 04af 8B450C   		movl	12(%ebp), %eax
 698 04b2 8B00     		movl	(%eax), %eax
 699              		.loc 1 344 27
 700 04b4 2B4510   		subl	16(%ebp), %eax
 701              		.loc 1 344 6
 702 04b7 01C0     		addl	%eax, %eax
 703 04b9 8945EC   		movl	%eax, -20(%ebp)
 345:src/pdf417/PDFDecodedBitStreamParser.c **** 	int textCompactionData[size];
 704              		.loc 1 345 2
 705 04bc 8B45EC   		movl	-20(%ebp), %eax
 706              		.loc 1 345 6
 707 04bf 8D50FF   		leal	-1(%eax), %edx
 708 04c2 8955E8   		movl	%edx, -24(%ebp)
 709 04c5 8D148500 		leal	0(,%eax,4), %edx
 709      000000
 710 04cc B8100000 		movl	$16, %eax
 710      00
GAS LISTING C:\Users\jisu8\AppData\Local\Temp\ccM43flq.s 			page 22


 711 04d1 83E801   		subl	$1, %eax
 712 04d4 01D0     		addl	%edx, %eax
 713 04d6 BB100000 		movl	$16, %ebx
 713      00
 714 04db BA000000 		movl	$0, %edx
 714      00
 715 04e0 F7F3     		divl	%ebx
 716 04e2 6BC010   		imull	$16, %eax, %eax
 717 04e5 E8000000 		call	___chkstk_ms
 717      00
 718 04ea 29C4     		subl	%eax, %esp
 719 04ec 8D442414 		leal	20(%esp), %eax
 720 04f0 83C003   		addl	$3, %eax
 721 04f3 C1E802   		shrl	$2, %eax
 722 04f6 C1E002   		sall	$2, %eax
 723 04f9 8945E4   		movl	%eax, -28(%ebp)
 346:src/pdf417/PDFDecodedBitStreamParser.c **** 	fill(size,textCompactionData,0);
 724              		.loc 1 346 2
 725 04fc 8B45E4   		movl	-28(%ebp), %eax
 726 04ff C7442408 		movl	$0, 8(%esp)
 726      00000000 
 727 0507 89442404 		movl	%eax, 4(%esp)
 728 050b 8B45EC   		movl	-20(%ebp), %eax
 729 050e 890424   		movl	%eax, (%esp)
 730 0511 E8000000 		call	_fill
 730      00
 347:src/pdf417/PDFDecodedBitStreamParser.c **** 
 348:src/pdf417/PDFDecodedBitStreamParser.c **** 	int index = 0;
 731              		.loc 1 348 6
 732 0516 C745F400 		movl	$0, -12(%ebp)
 732      000000
 349:src/pdf417/PDFDecodedBitStreamParser.c **** 	uint8_t end = 0;
 733              		.loc 1 349 10
 734 051d C645F300 		movb	$0, -13(%ebp)
 350:src/pdf417/PDFDecodedBitStreamParser.c **** 	while ((codeIndex < codewords[0]) && !end) 
 735              		.loc 1 350 8
 736 0521 E9BB0100 		jmp	L55
 736      00
 737              	L67:
 738              	LBB3:
 351:src/pdf417/PDFDecodedBitStreamParser.c **** 	{
 352:src/pdf417/PDFDecodedBitStreamParser.c **** 		int code = codewords[codeIndex++];
 739              		.loc 1 352 33
 740 0526 8B4510   		movl	16(%ebp), %eax
 741 0529 8D5001   		leal	1(%eax), %edx
 742 052c 895510   		movl	%edx, 16(%ebp)
 743              		.loc 1 352 23
 744 052f 8D148500 		leal	0(,%eax,4), %edx
 744      000000
 745 0536 8B450C   		movl	12(%ebp), %eax
 746 0539 01D0     		addl	%edx, %eax
 747              		.loc 1 352 7
 748 053b 8B00     		movl	(%eax), %eax
 749 053d 8945E0   		movl	%eax, -32(%ebp)
 353:src/pdf417/PDFDecodedBitStreamParser.c **** 		if (code < TEXT_COMPACTION_MODE_LATCH) 
 750              		.loc 1 353 6
 751 0540 817DE083 		cmpl	$899, -32(%ebp)
GAS LISTING C:\Users\jisu8\AppData\Local\Temp\ccM43flq.s 			page 23


 751      030000
 752 0547 7F5F     		jg	L56
 354:src/pdf417/PDFDecodedBitStreamParser.c **** 		{
 355:src/pdf417/PDFDecodedBitStreamParser.c **** 			textCompactionData[index] = code / 30;
 753              		.loc 1 355 37
 754 0549 8B4DE0   		movl	-32(%ebp), %ecx
 755 054c BA898888 		movl	$-2004318071, %edx
 755      88
 756 0551 89C8     		movl	%ecx, %eax
 757 0553 F7EA     		imull	%edx
 758 0555 8D040A   		leal	(%edx,%ecx), %eax
 759 0558 C1F804   		sarl	$4, %eax
 760 055b 89C2     		movl	%eax, %edx
 761 055d 89C8     		movl	%ecx, %eax
 762 055f C1F81F   		sarl	$31, %eax
 763 0562 89D1     		movl	%edx, %ecx
 764 0564 29C1     		subl	%eax, %ecx
 765              		.loc 1 355 30
 766 0566 8B45E4   		movl	-28(%ebp), %eax
 767 0569 8B55F4   		movl	-12(%ebp), %edx
 768 056c 890C90   		movl	%ecx, (%eax,%edx,4)
 356:src/pdf417/PDFDecodedBitStreamParser.c **** 			textCompactionData[index + 1] = code % 30;
 769              		.loc 1 356 29
 770 056f 8B45F4   		movl	-12(%ebp), %eax
 771 0572 8D5801   		leal	1(%eax), %ebx
 772              		.loc 1 356 41
 773 0575 8B4DE0   		movl	-32(%ebp), %ecx
 774 0578 BA898888 		movl	$-2004318071, %edx
 774      88
 775 057d 89C8     		movl	%ecx, %eax
 776 057f F7EA     		imull	%edx
 777 0581 8D040A   		leal	(%edx,%ecx), %eax
 778 0584 C1F804   		sarl	$4, %eax
 779 0587 89C2     		movl	%eax, %edx
 780 0589 89C8     		movl	%ecx, %eax
 781 058b C1F81F   		sarl	$31, %eax
 782 058e 29C2     		subl	%eax, %edx
 783 0590 89D0     		movl	%edx, %eax
 784 0592 6BC01E   		imull	$30, %eax, %eax
 785 0595 29C1     		subl	%eax, %ecx
 786 0597 89C8     		movl	%ecx, %eax
 787              		.loc 1 356 34
 788 0599 8B55E4   		movl	-28(%ebp), %edx
 789 059c 89049A   		movl	%eax, (%edx,%ebx,4)
 357:src/pdf417/PDFDecodedBitStreamParser.c **** 			index += 2;
 790              		.loc 1 357 10
 791 059f 8345F402 		addl	$2, -12(%ebp)
 792 05a3 E9390100 		jmp	L55
 792      00
 793              	L56:
 794 05a8 817DE091 		cmpl	$913, -32(%ebp)
 794      030000
 795 05af 7423     		je	L57
 796 05b1 817DE091 		cmpl	$913, -32(%ebp)
 796      030000
 797 05b8 0F8CFF00 		jl	L58
 797      0000
GAS LISTING C:\Users\jisu8\AppData\Local\Temp\ccM43flq.s 			page 24


 798 05be 8B45E0   		movl	-32(%ebp), %eax
 799 05c1 2D9D0300 		subl	$925, %eax
 799      00
 800 05c6 83F802   		cmpl	$2, %eax
 801 05c9 0F87EE00 		ja	L58
 801      0000
 802 05cf E9BD0000 		jmp	L69
 802      00
 803              	L57:
 358:src/pdf417/PDFDecodedBitStreamParser.c **** 		}
 359:src/pdf417/PDFDecodedBitStreamParser.c **** 		else 
 360:src/pdf417/PDFDecodedBitStreamParser.c **** 		{
 361:src/pdf417/PDFDecodedBitStreamParser.c **** 			switch (code) 
 362:src/pdf417/PDFDecodedBitStreamParser.c **** 			{
 363:src/pdf417/PDFDecodedBitStreamParser.c **** 				case MODE_SHIFT_TO_BYTE_COMPACTION_MODE:
 364:src/pdf417/PDFDecodedBitStreamParser.c **** 					// The Mode Shift codeword 913 shall cause a temporary
 365:src/pdf417/PDFDecodedBitStreamParser.c **** 					// switch from Text Compaction mode to Byte Compaction mode.
 366:src/pdf417/PDFDecodedBitStreamParser.c **** 					// This switch shall be in effect for only the next codeword,
 367:src/pdf417/PDFDecodedBitStreamParser.c **** 					// after which the mode shall revert to the prevailing sub-mode
 368:src/pdf417/PDFDecodedBitStreamParser.c **** 					// of the Text Compaction mode. Codeword 913 is only available
 369:src/pdf417/PDFDecodedBitStreamParser.c **** 					// in Text Compaction mode; its use is described in 5.4.2.4.
 370:src/pdf417/PDFDecodedBitStreamParser.c **** 					textCompactionData[index++] = MODE_SHIFT_TO_BYTE_COMPACTION_MODE;
 804              		.loc 1 370 30
 805 05d4 8B45F4   		movl	-12(%ebp), %eax
 806 05d7 8D5001   		leal	1(%eax), %edx
 807 05da 8955F4   		movl	%edx, -12(%ebp)
 808              		.loc 1 370 34
 809 05dd 8B55E4   		movl	-28(%ebp), %edx
 810 05e0 C7048291 		movl	$913, (%edx,%eax,4)
 810      030000
 371:src/pdf417/PDFDecodedBitStreamParser.c **** 					// 5.5.3.1 allows ECIs anywhere in Text Compaction, including after a Shift to Byte
 372:src/pdf417/PDFDecodedBitStreamParser.c **** 					while (codeIndex < codewords[0] && codewords[codeIndex] >= ECI_USER_DEFINED
 811              		.loc 1 372 12
 812 05e7 EB3B     		jmp	L60
 813              	L62:
 373:src/pdf417/PDFDecodedBitStreamParser.c **** 							&& codewords[codeIndex] <= ECI_CHARSET) 
 374:src/pdf417/PDFDecodedBitStreamParser.c **** 					{
 375:src/pdf417/PDFDecodedBitStreamParser.c **** 						codeIndex = ProcessTextECI(textCompactionData, index, codewords, codeIndex + 1,
 376:src/pdf417/PDFDecodedBitStreamParser.c **** 												codewords[codeIndex]);
 814              		.loc 1 376 22
 815 05e9 8B4510   		movl	16(%ebp), %eax
 816 05ec 8D148500 		leal	0(,%eax,4), %edx
 816      000000
 817 05f3 8B450C   		movl	12(%ebp), %eax
 818 05f6 01D0     		addl	%edx, %eax
 375:src/pdf417/PDFDecodedBitStreamParser.c **** 												codewords[codeIndex]);
 819              		.loc 1 375 19
 820 05f8 8B10     		movl	(%eax), %edx
 821 05fa 8B4510   		movl	16(%ebp), %eax
 822 05fd 8D4801   		leal	1(%eax), %ecx
 823 0600 8B45E4   		movl	-28(%ebp), %eax
 824 0603 89542410 		movl	%edx, 16(%esp)
 825 0607 894C240C 		movl	%ecx, 12(%esp)
 826 060b 8B550C   		movl	12(%ebp), %edx
 827 060e 89542408 		movl	%edx, 8(%esp)
 828 0612 8B55F4   		movl	-12(%ebp), %edx
 829 0615 89542404 		movl	%edx, 4(%esp)
GAS LISTING C:\Users\jisu8\AppData\Local\Temp\ccM43flq.s 			page 25


 830 0619 890424   		movl	%eax, (%esp)
 831 061c E8CAFDFF 		call	_ProcessTextECI
 831      FF
 832 0621 894510   		movl	%eax, 16(%ebp)
 833              	L60:
 372:src/pdf417/PDFDecodedBitStreamParser.c **** 							&& codewords[codeIndex] <= ECI_CHARSET) 
 834              		.loc 1 372 34
 835 0624 8B450C   		movl	12(%ebp), %eax
 836 0627 8B00     		movl	(%eax), %eax
 372:src/pdf417/PDFDecodedBitStreamParser.c **** 							&& codewords[codeIndex] <= ECI_CHARSET) 
 837              		.loc 1 372 12
 838 0629 394510   		cmpl	%eax, 16(%ebp)
 839 062c 7D30     		jge	L61
 372:src/pdf417/PDFDecodedBitStreamParser.c **** 							&& codewords[codeIndex] <= ECI_CHARSET) 
 840              		.loc 1 372 50 discriminator 1
 841 062e 8B4510   		movl	16(%ebp), %eax
 842 0631 8D148500 		leal	0(,%eax,4), %edx
 842      000000
 843 0638 8B450C   		movl	12(%ebp), %eax
 844 063b 01D0     		addl	%edx, %eax
 845 063d 8B00     		movl	(%eax), %eax
 372:src/pdf417/PDFDecodedBitStreamParser.c **** 							&& codewords[codeIndex] <= ECI_CHARSET) 
 846              		.loc 1 372 38 discriminator 1
 847 063f 3D9C0300 		cmpl	$924, %eax
 847      00
 848 0644 7E18     		jle	L61
 373:src/pdf417/PDFDecodedBitStreamParser.c **** 							&& codewords[codeIndex] <= ECI_CHARSET) 
 849              		.loc 1 373 20
 850 0646 8B4510   		movl	16(%ebp), %eax
 851 0649 8D148500 		leal	0(,%eax,4), %edx
 851      000000
 852 0650 8B450C   		movl	12(%ebp), %eax
 853 0653 01D0     		addl	%edx, %eax
 854 0655 8B00     		movl	(%eax), %eax
 373:src/pdf417/PDFDecodedBitStreamParser.c **** 							&& codewords[codeIndex] <= ECI_CHARSET) 
 855              		.loc 1 373 8
 856 0657 3D9F0300 		cmpl	$927, %eax
 856      00
 857 065c 7E8B     		jle	L62
 858              	L61:
 377:src/pdf417/PDFDecodedBitStreamParser.c **** 					}
 378:src/pdf417/PDFDecodedBitStreamParser.c **** 
 379:src/pdf417/PDFDecodedBitStreamParser.c **** 					if (codeIndex < codewords[0]) 
 859              		.loc 1 379 31
 860 065e 8B450C   		movl	12(%ebp), %eax
 861 0661 8B00     		movl	(%eax), %eax
 862              		.loc 1 379 9
 863 0663 394510   		cmpl	%eax, 16(%ebp)
 864 0666 7D79     		jge	L55
 380:src/pdf417/PDFDecodedBitStreamParser.c **** 					{
 381:src/pdf417/PDFDecodedBitStreamParser.c **** 						textCompactionData[index++] = codewords[codeIndex++]; // Byte to shift
 865              		.loc 1 381 56
 866 0668 8B4510   		movl	16(%ebp), %eax
 867 066b 8D5001   		leal	1(%eax), %edx
 868 066e 895510   		movl	%edx, 16(%ebp)
 869              		.loc 1 381 46
 870 0671 8D148500 		leal	0(,%eax,4), %edx
GAS LISTING C:\Users\jisu8\AppData\Local\Temp\ccM43flq.s 			page 26


 870      000000
 871 0678 8B450C   		movl	12(%ebp), %eax
 872 067b 8D0C02   		leal	(%edx,%eax), %ecx
 873              		.loc 1 381 31
 874 067e 8B45F4   		movl	-12(%ebp), %eax
 875 0681 8D5001   		leal	1(%eax), %edx
 876 0684 8955F4   		movl	%edx, -12(%ebp)
 877              		.loc 1 381 46
 878 0687 8B09     		movl	(%ecx), %ecx
 879              		.loc 1 381 35
 880 0689 8B55E4   		movl	-28(%ebp), %edx
 881 068c 890C82   		movl	%ecx, (%edx,%eax,4)
 382:src/pdf417/PDFDecodedBitStreamParser.c **** 					}
 383:src/pdf417/PDFDecodedBitStreamParser.c **** 				break;
 882              		.loc 1 383 5
 883 068f EB50     		jmp	L55
 884              	L69:
 384:src/pdf417/PDFDecodedBitStreamParser.c **** 				case ECI_CHARSET:
 385:src/pdf417/PDFDecodedBitStreamParser.c **** 				case ECI_GENERAL_PURPOSE:
 386:src/pdf417/PDFDecodedBitStreamParser.c **** 				case ECI_USER_DEFINED:
 387:src/pdf417/PDFDecodedBitStreamParser.c **** 					codeIndex = ProcessTextECI(textCompactionData, index, codewords, codeIndex, code);
 885              		.loc 1 387 18
 886 0691 8B45E4   		movl	-28(%ebp), %eax
 887 0694 8B55E0   		movl	-32(%ebp), %edx
 888 0697 89542410 		movl	%edx, 16(%esp)
 889 069b 8B5510   		movl	16(%ebp), %edx
 890 069e 8954240C 		movl	%edx, 12(%esp)
 891 06a2 8B550C   		movl	12(%ebp), %edx
 892 06a5 89542408 		movl	%edx, 8(%esp)
 893 06a9 8B55F4   		movl	-12(%ebp), %edx
 894 06ac 89542404 		movl	%edx, 4(%esp)
 895 06b0 890424   		movl	%eax, (%esp)
 896 06b3 E833FDFF 		call	_ProcessTextECI
 896      FF
 897 06b8 894510   		movl	%eax, 16(%ebp)
 388:src/pdf417/PDFDecodedBitStreamParser.c **** 				break;
 898              		.loc 1 388 5
 899 06bb EB24     		jmp	L55
 900              	L58:
 389:src/pdf417/PDFDecodedBitStreamParser.c **** 				default:
 390:src/pdf417/PDFDecodedBitStreamParser.c **** 					if (!TerminatesCompaction(code)) 
 901              		.loc 1 390 11
 902 06bd 8B45E0   		movl	-32(%ebp), %eax
 903 06c0 890424   		movl	%eax, (%esp)
 904 06c3 E838F9FF 		call	_TerminatesCompaction
 904      FF
 905              		.loc 1 390 9
 906 06c8 84C0     		testb	%al, %al
 907 06ca 750C     		jne	L64
 391:src/pdf417/PDFDecodedBitStreamParser.c **** 					{
 392:src/pdf417/PDFDecodedBitStreamParser.c **** 						status = FormatError;
 908              		.loc 1 392 14
 909 06cc C7450802 		movl	$2, 8(%ebp)
 909      000000
 393:src/pdf417/PDFDecodedBitStreamParser.c **** 						return codeIndex;
 910              		.loc 1 393 14
 911 06d3 8B4510   		movl	16(%ebp), %eax
GAS LISTING C:\Users\jisu8\AppData\Local\Temp\ccM43flq.s 			page 27


 912 06d6 EB47     		jmp	L65
 913              	L64:
 394:src/pdf417/PDFDecodedBitStreamParser.c **** 					}
 395:src/pdf417/PDFDecodedBitStreamParser.c **** 					codeIndex--;
 914              		.loc 1 395 15
 915 06d8 836D1001 		subl	$1, 16(%ebp)
 396:src/pdf417/PDFDecodedBitStreamParser.c **** 					end = 1;
 916              		.loc 1 396 10
 917 06dc C645F301 		movb	$1, -13(%ebp)
 397:src/pdf417/PDFDecodedBitStreamParser.c **** 				break;
 918              		.loc 1 397 5
 919 06e0 90       		nop
 920              	L55:
 921              	LBE3:
 350:src/pdf417/PDFDecodedBitStreamParser.c **** 	{
 922              		.loc 1 350 31
 923 06e1 8B450C   		movl	12(%ebp), %eax
 924 06e4 8B00     		movl	(%eax), %eax
 350:src/pdf417/PDFDecodedBitStreamParser.c **** 	{
 925              		.loc 1 350 8
 926 06e6 394510   		cmpl	%eax, 16(%ebp)
 927 06e9 7D0A     		jge	L66
 350:src/pdf417/PDFDecodedBitStreamParser.c **** 	{
 928              		.loc 1 350 36 discriminator 1
 929 06eb 807DF300 		cmpb	$0, -13(%ebp)
 930 06ef 0F8431FE 		je	L67
 930      FFFF
 931              	L66:
 398:src/pdf417/PDFDecodedBitStreamParser.c **** 			}
 399:src/pdf417/PDFDecodedBitStreamParser.c **** 		}
 400:src/pdf417/PDFDecodedBitStreamParser.c **** 	}
 401:src/pdf417/PDFDecodedBitStreamParser.c **** 
 402:src/pdf417/PDFDecodedBitStreamParser.c **** 	DecodeTextCompaction(textCompactionData, index, resultEncoded, result, encoding);
 932              		.loc 1 402 2
 933 06f5 8B45E4   		movl	-28(%ebp), %eax
 934 06f8 8B551C   		movl	28(%ebp), %edx
 935 06fb 89542410 		movl	%edx, 16(%esp)
 936 06ff 8B5518   		movl	24(%ebp), %edx
 937 0702 8954240C 		movl	%edx, 12(%esp)
 938 0706 8B5514   		movl	20(%ebp), %edx
 939 0709 89542408 		movl	%edx, 8(%esp)
 940 070d 8B55F4   		movl	-12(%ebp), %edx
 941 0710 89542404 		movl	%edx, 4(%esp)
 942 0714 890424   		movl	%eax, (%esp)
 943 0717 E85DF9FF 		call	_DecodeTextCompaction
 943      FF
 403:src/pdf417/PDFDecodedBitStreamParser.c **** 	return codeIndex;
 944              		.loc 1 403 9
 945 071c 8B4510   		movl	16(%ebp), %eax
 946              	L65:
 947 071f 89F4     		movl	%esi, %esp
 404:src/pdf417/PDFDecodedBitStreamParser.c **** }
 948              		.loc 1 404 1
 949 0721 8D65F8   		leal	-8(%ebp), %esp
 950 0724 5B       		popl	%ebx
 951              		.cfi_restore 3
 952 0725 5E       		popl	%esi
GAS LISTING C:\Users\jisu8\AppData\Local\Temp\ccM43flq.s 			page 28


 953              		.cfi_restore 6
 954 0726 5D       		popl	%ebp
 955              	LCFI14:
 956              		.cfi_restore 5
 957              		.cfi_def_cfa 4, 4
 958 0727 C3       		ret
 959              		.cfi_endproc
 960              	LFE21:
 962              	_CountByteBatches:
 963              	LFB22:
 405:src/pdf417/PDFDecodedBitStreamParser.c **** 
 406:src/pdf417/PDFDecodedBitStreamParser.c **** 
 407:src/pdf417/PDFDecodedBitStreamParser.c **** /*
 408:src/pdf417/PDFDecodedBitStreamParser.c **** * Helper for Byte Compaction to look ahead and count 5-codeword batches and trailing bytes, with so
 409:src/pdf417/PDFDecodedBitStreamParser.c **** * format errors.
 410:src/pdf417/PDFDecodedBitStreamParser.c **** */
 411:src/pdf417/PDFDecodedBitStreamParser.c **** static int CountByteBatches(DecodeStatus_t status, int mode, const int * codewords, int codeIndex,
 412:src/pdf417/PDFDecodedBitStreamParser.c **** 							int * trailingCount)
 413:src/pdf417/PDFDecodedBitStreamParser.c **** {
 964              		.loc 1 413 1
 965              		.cfi_startproc
 966 0728 55       		pushl	%ebp
 967              	LCFI15:
 968              		.cfi_def_cfa_offset 8
 969              		.cfi_offset 5, -8
 970 0729 89E5     		movl	%esp, %ebp
 971              	LCFI16:
 972              		.cfi_def_cfa_register 5
 973 072b 83EC28   		subl	$40, %esp
 414:src/pdf417/PDFDecodedBitStreamParser.c **** 	int count = 0;
 974              		.loc 1 414 6
 975 072e C745F400 		movl	$0, -12(%ebp)
 975      000000
 415:src/pdf417/PDFDecodedBitStreamParser.c **** 
 416:src/pdf417/PDFDecodedBitStreamParser.c **** 	while (codeIndex < codewords[0]) 
 976              		.loc 1 416 8
 977 0735 E9BD0000 		jmp	L71
 977      00
 978              	L80:
 979              	LBB4:
 417:src/pdf417/PDFDecodedBitStreamParser.c **** 	{
 418:src/pdf417/PDFDecodedBitStreamParser.c **** 		int code = codewords[codeIndex++];
 980              		.loc 1 418 33
 981 073a 8B4514   		movl	20(%ebp), %eax
 982 073d 8D5001   		leal	1(%eax), %edx
 983 0740 895514   		movl	%edx, 20(%ebp)
 984              		.loc 1 418 23
 985 0743 8D148500 		leal	0(,%eax,4), %edx
 985      000000
 986 074a 8B4510   		movl	16(%ebp), %eax
 987 074d 01D0     		addl	%edx, %eax
 988              		.loc 1 418 7
 989 074f 8B00     		movl	(%eax), %eax
 990 0751 8945F0   		movl	%eax, -16(%ebp)
 419:src/pdf417/PDFDecodedBitStreamParser.c **** 		if (code >= TEXT_COMPACTION_MODE_LATCH) 
 991              		.loc 1 419 6
 992 0754 817DF083 		cmpl	$899, -16(%ebp)
GAS LISTING C:\Users\jisu8\AppData\Local\Temp\ccM43flq.s 			page 29


 992      030000
 993 075b 0F8E9200 		jle	L72
 993      0000
 420:src/pdf417/PDFDecodedBitStreamParser.c **** 		{
 421:src/pdf417/PDFDecodedBitStreamParser.c **** 			if (mode == BYTE_COMPACTION_MODE_LATCH_6 && count && count % 5) 
 994              		.loc 1 421 7
 995 0761 817D0C9C 		cmpl	$924, 12(%ebp)
 995      030000
 996 0768 753D     		jne	L73
 997              		.loc 1 421 45 discriminator 1
 998 076a 837DF400 		cmpl	$0, -12(%ebp)
 999 076e 7437     		je	L73
 1000              		.loc 1 421 63 discriminator 2
 1001 0770 8B4DF4   		movl	-12(%ebp), %ecx
 1002 0773 BA676666 		movl	$1717986919, %edx
 1002      66
 1003 0778 89C8     		movl	%ecx, %eax
 1004 077a F7EA     		imull	%edx
 1005 077c D1FA     		sarl	%edx
 1006 077e 89C8     		movl	%ecx, %eax
 1007 0780 C1F81F   		sarl	$31, %eax
 1008 0783 29C2     		subl	%eax, %edx
 1009 0785 89D0     		movl	%edx, %eax
 1010 0787 89C2     		movl	%eax, %edx
 1011 0789 C1E202   		sall	$2, %edx
 1012 078c 01C2     		addl	%eax, %edx
 1013 078e 89C8     		movl	%ecx, %eax
 1014 0790 29D0     		subl	%edx, %eax
 1015              		.loc 1 421 54 discriminator 2
 1016 0792 85C0     		testl	%eax, %eax
 1017 0794 7411     		je	L73
 422:src/pdf417/PDFDecodedBitStreamParser.c **** 			{
 423:src/pdf417/PDFDecodedBitStreamParser.c **** 				status = FormatError;
 1018              		.loc 1 423 12
 1019 0796 C7450802 		movl	$2, 8(%ebp)
 1019      000000
 424:src/pdf417/PDFDecodedBitStreamParser.c **** 				return 0;
 1020              		.loc 1 424 12
 1021 079d B8000000 		movl	$0, %eax
 1021      00
 1022 07a2 E91F0100 		jmp	L74
 1022      00
 1023              	L73:
 425:src/pdf417/PDFDecodedBitStreamParser.c **** 			}
 426:src/pdf417/PDFDecodedBitStreamParser.c **** 			if (code >= ECI_USER_DEFINED && code <= ECI_CHARSET) 
 1024              		.loc 1 426 7
 1025 07a7 817DF09C 		cmpl	$924, -16(%ebp)
 1025      030000
 1026 07ae 7E23     		jle	L75
 1027              		.loc 1 426 33 discriminator 1
 1028 07b0 817DF09F 		cmpl	$927, -16(%ebp)
 1028      030000
 1029 07b7 7F1A     		jg	L75
 427:src/pdf417/PDFDecodedBitStreamParser.c **** 			{
 428:src/pdf417/PDFDecodedBitStreamParser.c **** 				codeIndex += code == ECI_GENERAL_PURPOSE ? 2 : 1;
 1030              		.loc 1 428 50
 1031 07b9 817DF09E 		cmpl	$926, -16(%ebp)
GAS LISTING C:\Users\jisu8\AppData\Local\Temp\ccM43flq.s 			page 30


 1031      030000
 1032 07c0 7507     		jne	L76
 1033              		.loc 1 428 50 is_stmt 0 discriminator 1
 1034 07c2 B8020000 		movl	$2, %eax
 1034      00
 1035 07c7 EB05     		jmp	L77
 1036              	L76:
 1037              		.loc 1 428 50 discriminator 2
 1038 07c9 B8010000 		movl	$1, %eax
 1038      00
 1039              	L77:
 1040              		.loc 1 428 15 is_stmt 1 discriminator 4
 1041 07ce 014514   		addl	%eax, 20(%ebp)
 429:src/pdf417/PDFDecodedBitStreamParser.c **** 				continue;
 1042              		.loc 1 429 5 discriminator 4
 1043 07d1 EB24     		jmp	L71
 1044              	L75:
 430:src/pdf417/PDFDecodedBitStreamParser.c **** 			}
 431:src/pdf417/PDFDecodedBitStreamParser.c **** 			if (!TerminatesCompaction(code)) 
 1045              		.loc 1 431 9
 1046 07d3 8B45F0   		movl	-16(%ebp), %eax
 1047 07d6 890424   		movl	%eax, (%esp)
 1048 07d9 E822F8FF 		call	_TerminatesCompaction
 1048      FF
 1049              		.loc 1 431 7
 1050 07de 84C0     		testb	%al, %al
 1051 07e0 7525     		jne	L86
 432:src/pdf417/PDFDecodedBitStreamParser.c **** 			{
 433:src/pdf417/PDFDecodedBitStreamParser.c **** 				status = FormatError;
 1052              		.loc 1 433 12
 1053 07e2 C7450802 		movl	$2, 8(%ebp)
 1053      000000
 434:src/pdf417/PDFDecodedBitStreamParser.c **** 				return 0;
 1054              		.loc 1 434 12
 1055 07e9 B8000000 		movl	$0, %eax
 1055      00
 1056 07ee E9D30000 		jmp	L74
 1056      00
 1057              	L72:
 435:src/pdf417/PDFDecodedBitStreamParser.c **** 			}
 436:src/pdf417/PDFDecodedBitStreamParser.c **** 			break;
 437:src/pdf417/PDFDecodedBitStreamParser.c **** 		}
 438:src/pdf417/PDFDecodedBitStreamParser.c **** 		count++;
 1058              		.loc 1 438 8
 1059 07f3 8345F401 		addl	$1, -12(%ebp)
 1060              	L71:
 1061              	LBE4:
 416:src/pdf417/PDFDecodedBitStreamParser.c **** 	{
 1062              		.loc 1 416 30
 1063 07f7 8B4510   		movl	16(%ebp), %eax
 1064 07fa 8B00     		movl	(%eax), %eax
 416:src/pdf417/PDFDecodedBitStreamParser.c **** 	{
 1065              		.loc 1 416 8
 1066 07fc 394514   		cmpl	%eax, 20(%ebp)
 1067 07ff 0F8C35FF 		jl	L80
 1067      FFFF
 1068 0805 EB01     		jmp	L79
GAS LISTING C:\Users\jisu8\AppData\Local\Temp\ccM43flq.s 			page 31


 1069              	L86:
 1070              	LBB5:
 436:src/pdf417/PDFDecodedBitStreamParser.c **** 		}
 1071              		.loc 1 436 4
 1072 0807 90       		nop
 1073              	L79:
 1074              	LBE5:
 439:src/pdf417/PDFDecodedBitStreamParser.c **** 	}
 440:src/pdf417/PDFDecodedBitStreamParser.c **** 	if (codeIndex > codewords[0]) 
 1075              		.loc 1 440 27
 1076 0808 8B4510   		movl	16(%ebp), %eax
 1077 080b 8B00     		movl	(%eax), %eax
 1078              		.loc 1 440 5
 1079 080d 394514   		cmpl	%eax, 20(%ebp)
 1080 0810 7E11     		jle	L81
 441:src/pdf417/PDFDecodedBitStreamParser.c **** 	{
 442:src/pdf417/PDFDecodedBitStreamParser.c **** 		status = FormatError;
 1081              		.loc 1 442 10
 1082 0812 C7450802 		movl	$2, 8(%ebp)
 1082      000000
 443:src/pdf417/PDFDecodedBitStreamParser.c **** 		return 0;
 1083              		.loc 1 443 10
 1084 0819 B8000000 		movl	$0, %eax
 1084      00
 1085 081e E9A30000 		jmp	L74
 1085      00
 1086              	L81:
 444:src/pdf417/PDFDecodedBitStreamParser.c **** 	}
 445:src/pdf417/PDFDecodedBitStreamParser.c **** 	if (count == 0) {
 1087              		.loc 1 445 5
 1088 0823 837DF400 		cmpl	$0, -12(%ebp)
 1089 0827 750A     		jne	L82
 446:src/pdf417/PDFDecodedBitStreamParser.c **** 		return 0;
 1090              		.loc 1 446 10
 1091 0829 B8000000 		movl	$0, %eax
 1091      00
 1092 082e E9930000 		jmp	L74
 1092      00
 1093              	L82:
 447:src/pdf417/PDFDecodedBitStreamParser.c **** 	}
 448:src/pdf417/PDFDecodedBitStreamParser.c **** 
 449:src/pdf417/PDFDecodedBitStreamParser.c **** 	if (mode == BYTE_COMPACTION_MODE_LATCH) 
 1094              		.loc 1 449 5
 1095 0833 817D0C85 		cmpl	$901, 12(%ebp)
 1095      030000
 1096 083a 753F     		jne	L83
 450:src/pdf417/PDFDecodedBitStreamParser.c **** 	{
 451:src/pdf417/PDFDecodedBitStreamParser.c **** 		*trailingCount = count % 5;
 1097              		.loc 1 451 26
 1098 083c 8B4DF4   		movl	-12(%ebp), %ecx
 1099 083f BA676666 		movl	$1717986919, %edx
 1099      66
 1100 0844 89C8     		movl	%ecx, %eax
 1101 0846 F7EA     		imull	%edx
 1102 0848 D1FA     		sarl	%edx
 1103 084a 89C8     		movl	%ecx, %eax
 1104 084c C1F81F   		sarl	$31, %eax
GAS LISTING C:\Users\jisu8\AppData\Local\Temp\ccM43flq.s 			page 32


 1105 084f 29C2     		subl	%eax, %edx
 1106 0851 89D0     		movl	%edx, %eax
 1107 0853 89C2     		movl	%eax, %edx
 1108 0855 C1E202   		sall	$2, %edx
 1109 0858 01C2     		addl	%eax, %edx
 1110 085a 89C8     		movl	%ecx, %eax
 1111 085c 29D0     		subl	%edx, %eax
 1112              		.loc 1 451 18
 1113 085e 8B5518   		movl	24(%ebp), %edx
 1114 0861 8902     		movl	%eax, (%edx)
 452:src/pdf417/PDFDecodedBitStreamParser.c **** 		if (*trailingCount == 0) 
 1115              		.loc 1 452 7
 1116 0863 8B4518   		movl	24(%ebp), %eax
 1117 0866 8B00     		movl	(%eax), %eax
 1118              		.loc 1 452 6
 1119 0868 85C0     		testl	%eax, %eax
 1120 086a 7543     		jne	L85
 453:src/pdf417/PDFDecodedBitStreamParser.c **** 		{
 454:src/pdf417/PDFDecodedBitStreamParser.c **** 			*trailingCount = 5;
 1121              		.loc 1 454 19
 1122 086c 8B4518   		movl	24(%ebp), %eax
 1123 086f C7000500 		movl	$5, (%eax)
 1123      0000
 455:src/pdf417/PDFDecodedBitStreamParser.c **** 			count -= 5;
 1124              		.loc 1 455 10
 1125 0875 836DF405 		subl	$5, -12(%ebp)
 1126 0879 EB34     		jmp	L85
 1127              	L83:
 456:src/pdf417/PDFDecodedBitStreamParser.c **** 		}
 457:src/pdf417/PDFDecodedBitStreamParser.c **** 	}
 458:src/pdf417/PDFDecodedBitStreamParser.c **** 	else 
 459:src/pdf417/PDFDecodedBitStreamParser.c **** 	{ // BYTE_COMPACTION_MODE_LATCH_6
 460:src/pdf417/PDFDecodedBitStreamParser.c **** 		if (count % 5 != 0) 
 1128              		.loc 1 460 13
 1129 087b 8B4DF4   		movl	-12(%ebp), %ecx
 1130 087e BA676666 		movl	$1717986919, %edx
 1130      66
 1131 0883 89C8     		movl	%ecx, %eax
 1132 0885 F7EA     		imull	%edx
 1133 0887 D1FA     		sarl	%edx
 1134 0889 89C8     		movl	%ecx, %eax
 1135 088b C1F81F   		sarl	$31, %eax
 1136 088e 29C2     		subl	%eax, %edx
 1137 0890 89D0     		movl	%edx, %eax
 1138 0892 89C2     		movl	%eax, %edx
 1139 0894 C1E202   		sall	$2, %edx
 1140 0897 01C2     		addl	%eax, %edx
 1141 0899 89C8     		movl	%ecx, %eax
 1142 089b 29D0     		subl	%edx, %eax
 1143              		.loc 1 460 6
 1144 089d 85C0     		testl	%eax, %eax
 1145 089f 740E     		je	L85
 461:src/pdf417/PDFDecodedBitStreamParser.c **** 		{
 462:src/pdf417/PDFDecodedBitStreamParser.c **** 			status = FormatError;
 1146              		.loc 1 462 11
 1147 08a1 C7450802 		movl	$2, 8(%ebp)
 1147      000000
GAS LISTING C:\Users\jisu8\AppData\Local\Temp\ccM43flq.s 			page 33


 463:src/pdf417/PDFDecodedBitStreamParser.c **** 			return 0;
 1148              		.loc 1 463 11
 1149 08a8 B8000000 		movl	$0, %eax
 1149      00
 1150 08ad EB17     		jmp	L74
 1151              	L85:
 464:src/pdf417/PDFDecodedBitStreamParser.c **** 		}
 465:src/pdf417/PDFDecodedBitStreamParser.c **** 	}
 466:src/pdf417/PDFDecodedBitStreamParser.c **** 
 467:src/pdf417/PDFDecodedBitStreamParser.c **** 	return count / 5;
 1152              		.loc 1 467 15
 1153 08af 8B4DF4   		movl	-12(%ebp), %ecx
 1154 08b2 BA676666 		movl	$1717986919, %edx
 1154      66
 1155 08b7 89C8     		movl	%ecx, %eax
 1156 08b9 F7EA     		imull	%edx
 1157 08bb D1FA     		sarl	%edx
 1158 08bd 89C8     		movl	%ecx, %eax
 1159 08bf C1F81F   		sarl	$31, %eax
 1160 08c2 29C2     		subl	%eax, %edx
 1161 08c4 89D0     		movl	%edx, %eax
 1162              	L74:
 468:src/pdf417/PDFDecodedBitStreamParser.c **** }
 1163              		.loc 1 468 1
 1164 08c6 C9       		leave
 1165              	LCFI17:
 1166              		.cfi_restore 5
 1167              		.cfi_def_cfa 4, 4
 1168 08c7 C3       		ret
 1169              		.cfi_endproc
 1170              	LFE22:
 1172              	_ProcessByteECIs:
 1173              	LFB23:
 469:src/pdf417/PDFDecodedBitStreamParser.c **** 
 470:src/pdf417/PDFDecodedBitStreamParser.c **** 
 471:src/pdf417/PDFDecodedBitStreamParser.c **** /*
 472:src/pdf417/PDFDecodedBitStreamParser.c **** * Helper to handle Byte Compaction ECIs.
 473:src/pdf417/PDFDecodedBitStreamParser.c **** */
 474:src/pdf417/PDFDecodedBitStreamParser.c **** static int ProcessByteECIs(const int * codewords, int codeIndex,
 475:src/pdf417/PDFDecodedBitStreamParser.c **** 						   unsigned char * resultEncoded, char * result, CharacterSet_t * encoding)
 476:src/pdf417/PDFDecodedBitStreamParser.c **** {
 1174              		.loc 1 476 1
 1175              		.cfi_startproc
 1176 08c8 55       		pushl	%ebp
 1177              	LCFI18:
 1178              		.cfi_def_cfa_offset 8
 1179              		.cfi_offset 5, -8
 1180 08c9 89E5     		movl	%esp, %ebp
 1181              	LCFI19:
 1182              		.cfi_def_cfa_register 5
 1183 08cb 83EC38   		subl	$56, %esp
 477:src/pdf417/PDFDecodedBitStreamParser.c **** 	while (codeIndex < codewords[0] && codewords[codeIndex] >= TEXT_COMPACTION_MODE_LATCH
 1184              		.loc 1 477 8
 1185 08ce EB66     		jmp	L88
 1186              	L90:
 1187              	LBB6:
 478:src/pdf417/PDFDecodedBitStreamParser.c **** 			&& !TerminatesCompaction(codewords[codeIndex])) 
GAS LISTING C:\Users\jisu8\AppData\Local\Temp\ccM43flq.s 			page 34


 479:src/pdf417/PDFDecodedBitStreamParser.c **** 		{
 480:src/pdf417/PDFDecodedBitStreamParser.c **** 		int code = codewords[codeIndex++];
 1188              		.loc 1 480 33
 1189 08d0 8B450C   		movl	12(%ebp), %eax
 1190 08d3 8D5001   		leal	1(%eax), %edx
 1191 08d6 89550C   		movl	%edx, 12(%ebp)
 1192              		.loc 1 480 23
 1193 08d9 8D148500 		leal	0(,%eax,4), %edx
 1193      000000
 1194 08e0 8B4508   		movl	8(%ebp), %eax
 1195 08e3 01D0     		addl	%edx, %eax
 1196              		.loc 1 480 7
 1197 08e5 8B00     		movl	(%eax), %eax
 1198 08e7 8945F4   		movl	%eax, -12(%ebp)
 481:src/pdf417/PDFDecodedBitStreamParser.c **** 		if (code >= ECI_USER_DEFINED && code <= ECI_CHARSET) 
 1199              		.loc 1 481 6
 1200 08ea 817DF49C 		cmpl	$924, -12(%ebp)
 1200      030000
 1201 08f1 7E43     		jle	L88
 1202              		.loc 1 481 32 discriminator 1
 1203 08f3 817DF49F 		cmpl	$927, -12(%ebp)
 1203      030000
 1204 08fa 7F3A     		jg	L88
 482:src/pdf417/PDFDecodedBitStreamParser.c **** 		{
 483:src/pdf417/PDFDecodedBitStreamParser.c **** 			codeIndex = ProcessECI(codewords, codeIndex, codewords[0], code, resultEncoded, result, encoding
 1205              		.loc 1 483 16
 1206 08fc 8B4508   		movl	8(%ebp), %eax
 1207 08ff 8B00     		movl	(%eax), %eax
 1208 0901 8B5518   		movl	24(%ebp), %edx
 1209 0904 89542418 		movl	%edx, 24(%esp)
 1210 0908 8B5514   		movl	20(%ebp), %edx
 1211 090b 89542414 		movl	%edx, 20(%esp)
 1212 090f 8B5510   		movl	16(%ebp), %edx
 1213 0912 89542410 		movl	%edx, 16(%esp)
 1214 0916 8B55F4   		movl	-12(%ebp), %edx
 1215 0919 8954240C 		movl	%edx, 12(%esp)
 1216 091d 89442408 		movl	%eax, 8(%esp)
 1217 0921 8B450C   		movl	12(%ebp), %eax
 1218 0924 89442404 		movl	%eax, 4(%esp)
 1219 0928 8B4508   		movl	8(%ebp), %eax
 1220 092b 890424   		movl	%eax, (%esp)
 1221 092e E8F4F6FF 		call	_ProcessECI
 1221      FF
 1222 0933 89450C   		movl	%eax, 12(%ebp)
 1223              	L88:
 1224              	LBE6:
 477:src/pdf417/PDFDecodedBitStreamParser.c **** 			&& !TerminatesCompaction(codewords[codeIndex])) 
 1225              		.loc 1 477 30
 1226 0936 8B4508   		movl	8(%ebp), %eax
 1227 0939 8B00     		movl	(%eax), %eax
 477:src/pdf417/PDFDecodedBitStreamParser.c **** 			&& !TerminatesCompaction(codewords[codeIndex])) 
 1228              		.loc 1 477 8
 1229 093b 39450C   		cmpl	%eax, 12(%ebp)
 1230 093e 7D39     		jge	L89
 477:src/pdf417/PDFDecodedBitStreamParser.c **** 			&& !TerminatesCompaction(codewords[codeIndex])) 
 1231              		.loc 1 477 46 discriminator 1
 1232 0940 8B450C   		movl	12(%ebp), %eax
GAS LISTING C:\Users\jisu8\AppData\Local\Temp\ccM43flq.s 			page 35


 1233 0943 8D148500 		leal	0(,%eax,4), %edx
 1233      000000
 1234 094a 8B4508   		movl	8(%ebp), %eax
 1235 094d 01D0     		addl	%edx, %eax
 1236 094f 8B00     		movl	(%eax), %eax
 477:src/pdf417/PDFDecodedBitStreamParser.c **** 			&& !TerminatesCompaction(codewords[codeIndex])) 
 1237              		.loc 1 477 34 discriminator 1
 1238 0951 3D830300 		cmpl	$899, %eax
 1238      00
 1239 0956 7E21     		jle	L89
 478:src/pdf417/PDFDecodedBitStreamParser.c **** 		{
 1240              		.loc 1 478 38
 1241 0958 8B450C   		movl	12(%ebp), %eax
 1242 095b 8D148500 		leal	0(,%eax,4), %edx
 1242      000000
 1243 0962 8B4508   		movl	8(%ebp), %eax
 1244 0965 01D0     		addl	%edx, %eax
 478:src/pdf417/PDFDecodedBitStreamParser.c **** 		{
 1245              		.loc 1 478 8
 1246 0967 8B00     		movl	(%eax), %eax
 1247 0969 890424   		movl	%eax, (%esp)
 1248 096c E88FF6FF 		call	_TerminatesCompaction
 1248      FF
 478:src/pdf417/PDFDecodedBitStreamParser.c **** 		{
 1249              		.loc 1 478 4
 1250 0971 84C0     		testb	%al, %al
 1251 0973 0F8457FF 		je	L90
 1251      FFFF
 1252              	L89:
 484:src/pdf417/PDFDecodedBitStreamParser.c **** 		}
 485:src/pdf417/PDFDecodedBitStreamParser.c **** 	}
 486:src/pdf417/PDFDecodedBitStreamParser.c **** 
 487:src/pdf417/PDFDecodedBitStreamParser.c **** 	return codeIndex;
 1253              		.loc 1 487 9
 1254 0979 8B450C   		movl	12(%ebp), %eax
 488:src/pdf417/PDFDecodedBitStreamParser.c **** }
 1255              		.loc 1 488 1
 1256 097c C9       		leave
 1257              	LCFI20:
 1258              		.cfi_restore 5
 1259              		.cfi_def_cfa 4, 4
 1260 097d C3       		ret
 1261              		.cfi_endproc
 1262              	LFE23:
 1264              	_ByteCompaction:
 1265              	LFB24:
 489:src/pdf417/PDFDecodedBitStreamParser.c **** 
 490:src/pdf417/PDFDecodedBitStreamParser.c **** /**
 491:src/pdf417/PDFDecodedBitStreamParser.c **** * Byte Compaction mode (see 5.4.3) permits all 256 possible 8-bit byte values to be encoded.
 492:src/pdf417/PDFDecodedBitStreamParser.c **** * This includes all ASCII characters value 0 to 127 inclusive and provides for international
 493:src/pdf417/PDFDecodedBitStreamParser.c **** * character set support.
 494:src/pdf417/PDFDecodedBitStreamParser.c **** *
 495:src/pdf417/PDFDecodedBitStreamParser.c **** * @param status        Set on format error.
 496:src/pdf417/PDFDecodedBitStreamParser.c **** * @param mode          The byte compaction mode i.e. 901 or 924
 497:src/pdf417/PDFDecodedBitStreamParser.c **** * @param codewords     The array of codewords (data + error)
 498:src/pdf417/PDFDecodedBitStreamParser.c **** * @param codeIndex     The current index into the codeword array.
 499:src/pdf417/PDFDecodedBitStreamParser.c **** * @param resultEncoded The Unicode-encoded data.
GAS LISTING C:\Users\jisu8\AppData\Local\Temp\ccM43flq.s 			page 36


 500:src/pdf417/PDFDecodedBitStreamParser.c **** * @param result        The data in the character set encoding.
 501:src/pdf417/PDFDecodedBitStreamParser.c **** * @param encoding      Currently active character encoding.
 502:src/pdf417/PDFDecodedBitStreamParser.c **** * @return The next index into the codeword array.
 503:src/pdf417/PDFDecodedBitStreamParser.c **** */
 504:src/pdf417/PDFDecodedBitStreamParser.c **** 
 505:src/pdf417/PDFDecodedBitStreamParser.c **** static int ByteCompaction(DecodeStatus_t status, int mode, const int * codewords, int codeIndex,
 506:src/pdf417/PDFDecodedBitStreamParser.c **** 						  unsigned char * resultEncoded, char * result, CharacterSet_t * encoding)
 507:src/pdf417/PDFDecodedBitStreamParser.c **** {
 1266              		.loc 1 507 1
 1267              		.cfi_startproc
 1268 097e 55       		pushl	%ebp
 1269              	LCFI21:
 1270              		.cfi_def_cfa_offset 8
 1271              		.cfi_offset 5, -8
 1272 097f 89E5     		movl	%esp, %ebp
 1273              	LCFI22:
 1274              		.cfi_def_cfa_register 5
 1275 0981 56       		pushl	%esi
 1276 0982 53       		pushl	%ebx
 1277 0983 83EC50   		subl	$80, %esp
 1278              		.cfi_offset 6, -12
 1279              		.cfi_offset 3, -16
 508:src/pdf417/PDFDecodedBitStreamParser.c **** 	// Count number of 5-codeword batches and trailing bytes
 509:src/pdf417/PDFDecodedBitStreamParser.c **** 	int trailingCount = 0;;
 1280              		.loc 1 509 6
 1281 0986 C745D400 		movl	$0, -44(%ebp)
 1281      000000
 510:src/pdf417/PDFDecodedBitStreamParser.c **** 	int batches = CountByteBatches(status, mode, codewords, codeIndex, &trailingCount);
 1282              		.loc 1 510 16
 1283 098d 8D45D4   		leal	-44(%ebp), %eax
 1284 0990 89442410 		movl	%eax, 16(%esp)
 1285 0994 8B4514   		movl	20(%ebp), %eax
 1286 0997 8944240C 		movl	%eax, 12(%esp)
 1287 099b 8B4510   		movl	16(%ebp), %eax
 1288 099e 89442408 		movl	%eax, 8(%esp)
 1289 09a2 8B450C   		movl	12(%ebp), %eax
 1290 09a5 89442404 		movl	%eax, 4(%esp)
 1291 09a9 8B4508   		movl	8(%ebp), %eax
 1292 09ac 890424   		movl	%eax, (%esp)
 1293 09af E874FDFF 		call	_CountByteBatches
 1293      FF
 1294 09b4 8945D8   		movl	%eax, -40(%ebp)
 511:src/pdf417/PDFDecodedBitStreamParser.c **** 
 512:src/pdf417/PDFDecodedBitStreamParser.c **** 	if (StatusIsError(status)) 
 1295              		.loc 1 512 5
 1296 09b7 837D0800 		cmpl	$0, 8(%ebp)
 1297 09bb 7408     		je	L93
 513:src/pdf417/PDFDecodedBitStreamParser.c **** 	{
 514:src/pdf417/PDFDecodedBitStreamParser.c **** 		return codeIndex;
 1298              		.loc 1 514 10
 1299 09bd 8B4514   		movl	20(%ebp), %eax
 1300 09c0 E9770100 		jmp	L103
 1300      00
 1301              	L93:
 515:src/pdf417/PDFDecodedBitStreamParser.c **** 	}
 516:src/pdf417/PDFDecodedBitStreamParser.c **** 
 517:src/pdf417/PDFDecodedBitStreamParser.c **** 	// Deal with initial ECIs
GAS LISTING C:\Users\jisu8\AppData\Local\Temp\ccM43flq.s 			page 37


 518:src/pdf417/PDFDecodedBitStreamParser.c **** 	codeIndex = ProcessByteECIs(codewords, codeIndex, resultEncoded, result, encoding);
 1302              		.loc 1 518 14
 1303 09c5 8B4520   		movl	32(%ebp), %eax
 1304 09c8 89442410 		movl	%eax, 16(%esp)
 1305 09cc 8B451C   		movl	28(%ebp), %eax
 1306 09cf 8944240C 		movl	%eax, 12(%esp)
 1307 09d3 8B4518   		movl	24(%ebp), %eax
 1308 09d6 89442408 		movl	%eax, 8(%esp)
 1309 09da 8B4514   		movl	20(%ebp), %eax
 1310 09dd 89442404 		movl	%eax, 4(%esp)
 1311 09e1 8B4510   		movl	16(%ebp), %eax
 1312 09e4 890424   		movl	%eax, (%esp)
 1313 09e7 E8DCFEFF 		call	_ProcessByteECIs
 1313      FF
 1314 09ec 894514   		movl	%eax, 20(%ebp)
 1315              	LBB7:
 519:src/pdf417/PDFDecodedBitStreamParser.c **** 
 520:src/pdf417/PDFDecodedBitStreamParser.c **** 	for (int batch = 0; batch < batches; batch++) 
 1316              		.loc 1 520 11
 1317 09ef C745F400 		movl	$0, -12(%ebp)
 1317      000000
 1318              		.loc 1 520 2
 1319 09f6 E9D60000 		jmp	L95
 1319      00
 1320              	L100:
 1321              	LBB8:
 521:src/pdf417/PDFDecodedBitStreamParser.c **** 	{
 522:src/pdf417/PDFDecodedBitStreamParser.c **** 		int64_t value = 0;
 1322              		.loc 1 522 11
 1323 09fb C745E800 		movl	$0, -24(%ebp)
 1323      000000
 1324 0a02 C745EC00 		movl	$0, -20(%ebp)
 1324      000000
 1325              	LBB9:
 523:src/pdf417/PDFDecodedBitStreamParser.c **** 		//int32_t value = 0;
 524:src/pdf417/PDFDecodedBitStreamParser.c **** 		for (int count = 0; count < 5; count++) 
 1326              		.loc 1 524 12
 1327 0a09 C745E400 		movl	$0, -28(%ebp)
 1327      000000
 1328              		.loc 1 524 3
 1329 0a10 EB48     		jmp	L96
 1330              	L97:
 525:src/pdf417/PDFDecodedBitStreamParser.c **** 		{
 526:src/pdf417/PDFDecodedBitStreamParser.c **** 			value = 900 * value + codewords[codeIndex++];
 1331              		.loc 1 526 16 discriminator 3
 1332 0a12 8B45EC   		movl	-20(%ebp), %eax
 1333 0a15 69D08403 		imull	$900, %eax, %edx
 1333      0000
 1334 0a1b 8B45E8   		movl	-24(%ebp), %eax
 1335 0a1e 6BC000   		imull	$0, %eax, %eax
 1336 0a21 8D0C02   		leal	(%edx,%eax), %ecx
 1337 0a24 B8840300 		movl	$900, %eax
 1337      00
 1338 0a29 F765E8   		mull	-24(%ebp)
 1339 0a2c 01D1     		addl	%edx, %ecx
 1340 0a2e 89CA     		movl	%ecx, %edx
 1341              		.loc 1 526 45 discriminator 3
GAS LISTING C:\Users\jisu8\AppData\Local\Temp\ccM43flq.s 			page 38


 1342 0a30 8B4D14   		movl	20(%ebp), %ecx
 1343 0a33 8D5901   		leal	1(%ecx), %ebx
 1344 0a36 895D14   		movl	%ebx, 20(%ebp)
 1345              		.loc 1 526 35 discriminator 3
 1346 0a39 8D1C8D00 		leal	0(,%ecx,4), %ebx
 1346      000000
 1347 0a40 8B4D10   		movl	16(%ebp), %ecx
 1348 0a43 01D9     		addl	%ebx, %ecx
 1349 0a45 8B09     		movl	(%ecx), %ecx
 1350 0a47 89CB     		movl	%ecx, %ebx
 1351 0a49 C1FB1F   		sarl	$31, %ebx
 1352              		.loc 1 526 10 discriminator 3
 1353 0a4c 01C8     		addl	%ecx, %eax
 1354 0a4e 11DA     		adcl	%ebx, %edx
 1355 0a50 8945E8   		movl	%eax, -24(%ebp)
 1356 0a53 8955EC   		movl	%edx, -20(%ebp)
 524:src/pdf417/PDFDecodedBitStreamParser.c **** 		{
 1357              		.loc 1 524 39 discriminator 3
 1358 0a56 8345E401 		addl	$1, -28(%ebp)
 1359              	L96:
 524:src/pdf417/PDFDecodedBitStreamParser.c **** 		{
 1360              		.loc 1 524 3 discriminator 1
 1361 0a5a 837DE404 		cmpl	$4, -28(%ebp)
 1362 0a5e 7EB2     		jle	L97
 1363              	LBE9:
 1364              	LBB10:
 527:src/pdf417/PDFDecodedBitStreamParser.c **** 		}
 528:src/pdf417/PDFDecodedBitStreamParser.c **** 
 529:src/pdf417/PDFDecodedBitStreamParser.c **** 		for (int j = 0; j < 6; ++j) 
 1365              		.loc 1 529 12
 1366 0a60 C745E000 		movl	$0, -32(%ebp)
 1366      000000
 1367              		.loc 1 529 3
 1368 0a67 EB34     		jmp	L98
 1369              	L99:
 530:src/pdf417/PDFDecodedBitStreamParser.c **** 		{
 531:src/pdf417/PDFDecodedBitStreamParser.c **** 			result=(uint8_t)(value >> (8 * (5 - j)));
 1370              		.loc 1 531 38 discriminator 3
 1371 0a69 B8050000 		movl	$5, %eax
 1371      00
 1372 0a6e 2B45E0   		subl	-32(%ebp), %eax
 1373              		.loc 1 531 33 discriminator 3
 1374 0a71 8D0CC500 		leal	0(,%eax,8), %ecx
 1374      000000
 1375              		.loc 1 531 27 discriminator 3
 1376 0a78 8B45E8   		movl	-24(%ebp), %eax
 1377 0a7b 8B55EC   		movl	-20(%ebp), %edx
 1378 0a7e 0FADD0   		shrdl	%cl, %edx, %eax
 1379 0a81 D3FA     		sarl	%cl, %edx
 1380 0a83 F6C120   		testb	$32, %cl
 1381 0a86 7405     		je	L104
 1382 0a88 89D0     		movl	%edx, %eax
 1383 0a8a C1FA1F   		sarl	$31, %edx
 1384              	L104:
 1385 0a8d 89C3     		movl	%eax, %ebx
 1386 0a8f 89D6     		movl	%edx, %esi
 1387              		.loc 1 531 11 discriminator 3
GAS LISTING C:\Users\jisu8\AppData\Local\Temp\ccM43flq.s 			page 39


 1388 0a91 89D8     		movl	%ebx, %eax
 1389 0a93 0FB6C0   		movzbl	%al, %eax
 1390              		.loc 1 531 10 discriminator 3
 1391 0a96 89451C   		movl	%eax, 28(%ebp)
 529:src/pdf417/PDFDecodedBitStreamParser.c **** 		{
 1392              		.loc 1 529 26 discriminator 3
 1393 0a99 8345E001 		addl	$1, -32(%ebp)
 1394              	L98:
 529:src/pdf417/PDFDecodedBitStreamParser.c **** 		{
 1395              		.loc 1 529 3 discriminator 1
 1396 0a9d 837DE005 		cmpl	$5, -32(%ebp)
 1397 0aa1 7EC6     		jle	L99
 1398              	LBE10:
 532:src/pdf417/PDFDecodedBitStreamParser.c **** 		}
 533:src/pdf417/PDFDecodedBitStreamParser.c **** 
 534:src/pdf417/PDFDecodedBitStreamParser.c **** 		// Deal with inter-batch ECIs
 535:src/pdf417/PDFDecodedBitStreamParser.c **** 		codeIndex = ProcessByteECIs(codewords, codeIndex, resultEncoded, result, encoding);
 1399              		.loc 1 535 15 discriminator 2
 1400 0aa3 8B4520   		movl	32(%ebp), %eax
 1401 0aa6 89442410 		movl	%eax, 16(%esp)
 1402 0aaa 8B451C   		movl	28(%ebp), %eax
 1403 0aad 8944240C 		movl	%eax, 12(%esp)
 1404 0ab1 8B4518   		movl	24(%ebp), %eax
 1405 0ab4 89442408 		movl	%eax, 8(%esp)
 1406 0ab8 8B4514   		movl	20(%ebp), %eax
 1407 0abb 89442404 		movl	%eax, 4(%esp)
 1408 0abf 8B4510   		movl	16(%ebp), %eax
 1409 0ac2 890424   		movl	%eax, (%esp)
 1410 0ac5 E8FEFDFF 		call	_ProcessByteECIs
 1410      FF
 1411 0aca 894514   		movl	%eax, 20(%ebp)
 1412              	LBE8:
 520:src/pdf417/PDFDecodedBitStreamParser.c **** 	{
 1413              		.loc 1 520 44 discriminator 2
 1414 0acd 8345F401 		addl	$1, -12(%ebp)
 1415              	L95:
 520:src/pdf417/PDFDecodedBitStreamParser.c **** 	{
 1416              		.loc 1 520 2 discriminator 1
 1417 0ad1 8B45F4   		movl	-12(%ebp), %eax
 1418 0ad4 3B45D8   		cmpl	-40(%ebp), %eax
 1419 0ad7 0F8C1EFF 		jl	L100
 1419      FFFF
 1420              	LBE7:
 1421              	LBB11:
 536:src/pdf417/PDFDecodedBitStreamParser.c **** 	}
 537:src/pdf417/PDFDecodedBitStreamParser.c **** 
 538:src/pdf417/PDFDecodedBitStreamParser.c **** 	for (int i = 0; i < trailingCount; i++) 
 1422              		.loc 1 538 11
 1423 0add C745DC00 		movl	$0, -36(%ebp)
 1423      000000
 1424              		.loc 1 538 2
 1425 0ae4 EB4B     		jmp	L101
 1426              	L102:
 539:src/pdf417/PDFDecodedBitStreamParser.c **** 	{
 540:src/pdf417/PDFDecodedBitStreamParser.c **** 		result = (uint8_t)codewords[codeIndex++];
 1427              		.loc 1 540 40 discriminator 3
 1428 0ae6 8B4514   		movl	20(%ebp), %eax
GAS LISTING C:\Users\jisu8\AppData\Local\Temp\ccM43flq.s 			page 40


 1429 0ae9 8D5001   		leal	1(%eax), %edx
 1430 0aec 895514   		movl	%edx, 20(%ebp)
 1431              		.loc 1 540 30 discriminator 3
 1432 0aef 8D148500 		leal	0(,%eax,4), %edx
 1432      000000
 1433 0af6 8B4510   		movl	16(%ebp), %eax
 1434 0af9 01D0     		addl	%edx, %eax
 1435 0afb 8B00     		movl	(%eax), %eax
 1436              		.loc 1 540 12 discriminator 3
 1437 0afd 0FB6C0   		movzbl	%al, %eax
 1438              		.loc 1 540 10 discriminator 3
 1439 0b00 89451C   		movl	%eax, 28(%ebp)
 541:src/pdf417/PDFDecodedBitStreamParser.c **** 		// Deal with inter-byte ECIs
 542:src/pdf417/PDFDecodedBitStreamParser.c **** 		codeIndex = ProcessByteECIs(codewords, codeIndex, resultEncoded, result, encoding);
 1440              		.loc 1 542 15 discriminator 3
 1441 0b03 8B4520   		movl	32(%ebp), %eax
 1442 0b06 89442410 		movl	%eax, 16(%esp)
 1443 0b0a 8B451C   		movl	28(%ebp), %eax
 1444 0b0d 8944240C 		movl	%eax, 12(%esp)
 1445 0b11 8B4518   		movl	24(%ebp), %eax
 1446 0b14 89442408 		movl	%eax, 8(%esp)
 1447 0b18 8B4514   		movl	20(%ebp), %eax
 1448 0b1b 89442404 		movl	%eax, 4(%esp)
 1449 0b1f 8B4510   		movl	16(%ebp), %eax
 1450 0b22 890424   		movl	%eax, (%esp)
 1451 0b25 E89EFDFF 		call	_ProcessByteECIs
 1451      FF
 1452 0b2a 894514   		movl	%eax, 20(%ebp)
 538:src/pdf417/PDFDecodedBitStreamParser.c **** 	{
 1453              		.loc 1 538 38 discriminator 3
 1454 0b2d 8345DC01 		addl	$1, -36(%ebp)
 1455              	L101:
 538:src/pdf417/PDFDecodedBitStreamParser.c **** 	{
 1456              		.loc 1 538 20 discriminator 1
 1457 0b31 8B45D4   		movl	-44(%ebp), %eax
 538:src/pdf417/PDFDecodedBitStreamParser.c **** 	{
 1458              		.loc 1 538 2 discriminator 1
 1459 0b34 3945DC   		cmpl	%eax, -36(%ebp)
 1460 0b37 7CAD     		jl	L102
 1461              	LBE11:
 543:src/pdf417/PDFDecodedBitStreamParser.c **** 	}
 544:src/pdf417/PDFDecodedBitStreamParser.c **** 
 545:src/pdf417/PDFDecodedBitStreamParser.c **** 	return codeIndex;
 1462              		.loc 1 545 9
 1463 0b39 8B4514   		movl	20(%ebp), %eax
 1464              	L103:
 546:src/pdf417/PDFDecodedBitStreamParser.c **** }
 1465              		.loc 1 546 1 discriminator 1
 1466 0b3c 83C450   		addl	$80, %esp
 1467 0b3f 5B       		popl	%ebx
 1468              		.cfi_restore 3
 1469 0b40 5E       		popl	%esi
 1470              		.cfi_restore 6
 1471 0b41 5D       		popl	%ebp
 1472              	LCFI23:
 1473              		.cfi_restore 5
 1474              		.cfi_def_cfa 4, 4
GAS LISTING C:\Users\jisu8\AppData\Local\Temp\ccM43flq.s 			page 41


 1475 0b42 C3       		ret
 1476              		.cfi_endproc
 1477              	LFE24:
 1479              	_DecodeBase900toBase10:
 1480              	LFB25:
 547:src/pdf417/PDFDecodedBitStreamParser.c **** 
 548:src/pdf417/PDFDecodedBitStreamParser.c **** 
 549:src/pdf417/PDFDecodedBitStreamParser.c **** /**
 550:src/pdf417/PDFDecodedBitStreamParser.c **** * Convert a list of Numeric Compacted codewords from Base 900 to Base 10.
 551:src/pdf417/PDFDecodedBitStreamParser.c **** *
 552:src/pdf417/PDFDecodedBitStreamParser.c **** * @param codewords The array of codewords
 553:src/pdf417/PDFDecodedBitStreamParser.c **** * @param count     The number of codewords
 554:src/pdf417/PDFDecodedBitStreamParser.c **** * @return The decoded string representing the Numeric data.
 555:src/pdf417/PDFDecodedBitStreamParser.c **** */
 556:src/pdf417/PDFDecodedBitStreamParser.c **** /*
 557:src/pdf417/PDFDecodedBitStreamParser.c **** EXAMPLE
 558:src/pdf417/PDFDecodedBitStreamParser.c **** Encode the fifteen digit numeric string 000213298174000
 559:src/pdf417/PDFDecodedBitStreamParser.c **** Prefix the numeric string with a 1 and set the initial value of
 560:src/pdf417/PDFDecodedBitStreamParser.c **** t = 1 000 213 298 174 000
 561:src/pdf417/PDFDecodedBitStreamParser.c **** Calculate codeword 0
 562:src/pdf417/PDFDecodedBitStreamParser.c **** d0 = 1 000 213 298 174 000 mod 900 = 200
 563:src/pdf417/PDFDecodedBitStreamParser.c **** 
 564:src/pdf417/PDFDecodedBitStreamParser.c **** t = 1 000 213 298 174 000 div 900 = 1 111 348 109 082
 565:src/pdf417/PDFDecodedBitStreamParser.c **** Calculate codeword 1
 566:src/pdf417/PDFDecodedBitStreamParser.c **** d1 = 1 111 348 109 082 mod 900 = 282
 567:src/pdf417/PDFDecodedBitStreamParser.c **** 
 568:src/pdf417/PDFDecodedBitStreamParser.c **** t = 1 111 348 109 082 div 900 = 1 234 831 232
 569:src/pdf417/PDFDecodedBitStreamParser.c **** Calculate codeword 2
 570:src/pdf417/PDFDecodedBitStreamParser.c **** d2 = 1 234 831 232 mod 900 = 632
 571:src/pdf417/PDFDecodedBitStreamParser.c **** 
 572:src/pdf417/PDFDecodedBitStreamParser.c **** t = 1 234 831 232 div 900 = 1 372 034
 573:src/pdf417/PDFDecodedBitStreamParser.c **** Calculate codeword 3
 574:src/pdf417/PDFDecodedBitStreamParser.c **** d3 = 1 372 034 mod 900 = 434
 575:src/pdf417/PDFDecodedBitStreamParser.c **** 
 576:src/pdf417/PDFDecodedBitStreamParser.c **** t = 1 372 034 div 900 = 1 524
 577:src/pdf417/PDFDecodedBitStreamParser.c **** Calculate codeword 4
 578:src/pdf417/PDFDecodedBitStreamParser.c **** d4 = 1 524 mod 900 = 624
 579:src/pdf417/PDFDecodedBitStreamParser.c **** 
 580:src/pdf417/PDFDecodedBitStreamParser.c **** t = 1 524 div 900 = 1
 581:src/pdf417/PDFDecodedBitStreamParser.c **** Calculate codeword 5
 582:src/pdf417/PDFDecodedBitStreamParser.c **** d5 = 1 mod 900 = 1
 583:src/pdf417/PDFDecodedBitStreamParser.c **** t = 1 div 900 = 0
 584:src/pdf417/PDFDecodedBitStreamParser.c **** Codeword sequence is: 1, 624, 434, 632, 282, 200
 585:src/pdf417/PDFDecodedBitStreamParser.c **** 
 586:src/pdf417/PDFDecodedBitStreamParser.c **** Decode the above codewords involves
 587:src/pdf417/PDFDecodedBitStreamParser.c **** 1 x 900 power of 5 + 624 x 900 power of 4 + 434 x 900 power of 3 +
 588:src/pdf417/PDFDecodedBitStreamParser.c **** 632 x 900 power of 2 + 282 x 900 power of 1 + 200 x 900 power of 0 = 1000213298174000
 589:src/pdf417/PDFDecodedBitStreamParser.c **** 
 590:src/pdf417/PDFDecodedBitStreamParser.c **** Remove leading 1 =>  Result is 000213298174000
 591:src/pdf417/PDFDecodedBitStreamParser.c **** */
 592:src/pdf417/PDFDecodedBitStreamParser.c **** 
 593:src/pdf417/PDFDecodedBitStreamParser.c **** static DecodeStatus_t DecodeBase900toBase10(const int * codewords, int count, char * resultString)
 594:src/pdf417/PDFDecodedBitStreamParser.c **** {
 1481              		.loc 1 594 1
 1482              		.cfi_startproc
 595:src/pdf417/PDFDecodedBitStreamParser.c **** 	// Table containing values for the exponent of 900.
 596:src/pdf417/PDFDecodedBitStreamParser.c **** 	#if 0
GAS LISTING C:\Users\jisu8\AppData\Local\Temp\ccM43flq.s 			page 42


 597:src/pdf417/PDFDecodedBitStreamParser.c **** 	static const auto EXP900 = []() 
 598:src/pdf417/PDFDecodedBitStreamParser.c **** 	{
 599:src/pdf417/PDFDecodedBitStreamParser.c **** 		std::array<BigInteger, 16> table = {1, 900};
 600:src/pdf417/PDFDecodedBitStreamParser.c **** 		for (size_t i = 2; i < table.size(); ++i) {
 601:src/pdf417/PDFDecodedBitStreamParser.c **** 			table[i] = table[i - 1] * 900;
 602:src/pdf417/PDFDecodedBitStreamParser.c **** 		}
 603:src/pdf417/PDFDecodedBitStreamParser.c **** 		return table;
 604:src/pdf417/PDFDecodedBitStreamParser.c **** 	}();
 605:src/pdf417/PDFDecodedBitStreamParser.c **** 
 606:src/pdf417/PDFDecodedBitStreamParser.c **** 	assert(count <= 16);
 607:src/pdf417/PDFDecodedBitStreamParser.c **** 
 608:src/pdf417/PDFDecodedBitStreamParser.c **** 	BigInteger result;
 609:src/pdf417/PDFDecodedBitStreamParser.c **** 	for (int i = 0; i < count; i++) 
 610:src/pdf417/PDFDecodedBitStreamParser.c **** 	{
 611:src/pdf417/PDFDecodedBitStreamParser.c **** 		result += EXP900[count - i - 1] * codewords[i];
 612:src/pdf417/PDFDecodedBitStreamParser.c **** 	}
 613:src/pdf417/PDFDecodedBitStreamParser.c **** 
 614:src/pdf417/PDFDecodedBitStreamParser.c **** 	resultString = result.toString();
 615:src/pdf417/PDFDecodedBitStreamParser.c **** 
 616:src/pdf417/PDFDecodedBitStreamParser.c **** 	if (!resultString.empty() && resultString.front() == '1') 
 617:src/pdf417/PDFDecodedBitStreamParser.c **** 	{
 618:src/pdf417/PDFDecodedBitStreamParser.c **** 		resultString = resultString.substr(1);
 619:src/pdf417/PDFDecodedBitStreamParser.c **** 		return NoError;
 620:src/pdf417/PDFDecodedBitStreamParser.c **** 	}
 621:src/pdf417/PDFDecodedBitStreamParser.c **** 	#endif
 622:src/pdf417/PDFDecodedBitStreamParser.c **** 	return FormatError;
 1483              		.loc 1 622 9
 1484 0b43 B8020000 		movl	$2, %eax
 1484      00
 623:src/pdf417/PDFDecodedBitStreamParser.c **** }
 1485              		.loc 1 623 1
 1486 0b48 C3       		ret
 1487              		.cfi_endproc
 1488              	LFE25:
 1490              	_NumericCompaction:
 1491              	LFB26:
 624:src/pdf417/PDFDecodedBitStreamParser.c **** 
 625:src/pdf417/PDFDecodedBitStreamParser.c **** 
 626:src/pdf417/PDFDecodedBitStreamParser.c **** /**
 627:src/pdf417/PDFDecodedBitStreamParser.c **** * Numeric Compaction mode (see 5.4.4) permits efficient encoding of numeric data strings.
 628:src/pdf417/PDFDecodedBitStreamParser.c **** *
 629:src/pdf417/PDFDecodedBitStreamParser.c **** * @param status    Set on format error.
 630:src/pdf417/PDFDecodedBitStreamParser.c **** * @param codewords The array of codewords (data + error)
 631:src/pdf417/PDFDecodedBitStreamParser.c **** * @param codeIndex The current index into the codeword array.
 632:src/pdf417/PDFDecodedBitStreamParser.c **** * @param result    The decoded data is appended to the result.
 633:src/pdf417/PDFDecodedBitStreamParser.c **** * @param encoding  Currently active character encoding.
 634:src/pdf417/PDFDecodedBitStreamParser.c **** * @return The next index into the codeword array.
 635:src/pdf417/PDFDecodedBitStreamParser.c **** */
 636:src/pdf417/PDFDecodedBitStreamParser.c **** static int NumericCompaction(DecodeStatus_t status, const int * codewords, int codeIndex,
 637:src/pdf417/PDFDecodedBitStreamParser.c **** 							 unsigned char * resultEncoded, char * result, CharacterSet_t * encoding)
 638:src/pdf417/PDFDecodedBitStreamParser.c **** {
 1492              		.loc 1 638 1
 1493              		.cfi_startproc
 1494 0b49 55       		pushl	%ebp
 1495              	LCFI24:
 1496              		.cfi_def_cfa_offset 8
 1497              		.cfi_offset 5, -8
GAS LISTING C:\Users\jisu8\AppData\Local\Temp\ccM43flq.s 			page 43


 1498 0b4a 89E5     		movl	%esp, %ebp
 1499              	LCFI25:
 1500              		.cfi_def_cfa_register 5
 1501 0b4c 57       		pushl	%edi
 1502 0b4d 53       		pushl	%ebx
 1503 0b4e 81ECA000 		subl	$160, %esp
 1503      0000
 1504              		.cfi_offset 7, -12
 1505              		.cfi_offset 3, -16
 1506              		.loc 1 638 1
 1507 0b54 89E0     		movl	%esp, %eax
 1508 0b56 89C3     		movl	%eax, %ebx
 639:src/pdf417/PDFDecodedBitStreamParser.c **** 	int count = 0;
 1509              		.loc 1 639 6
 1510 0b58 C745F400 		movl	$0, -12(%ebp)
 1510      000000
 640:src/pdf417/PDFDecodedBitStreamParser.c **** 	uint8_t end = 0;
 1511              		.loc 1 640 10
 1512 0b5f C645F300 		movb	$0, -13(%ebp)
 641:src/pdf417/PDFDecodedBitStreamParser.c **** 
 642:src/pdf417/PDFDecodedBitStreamParser.c **** 	int numericCodewords[MAX_NUMERIC_CODEWORDS];
 1513              		.loc 1 642 6
 1514 0b63 B80F0000 		movl	$15, %eax
 1514      00
 1515 0b68 83E801   		subl	$1, %eax
 1516 0b6b 8945EC   		movl	%eax, -20(%ebp)
 1517 0b6e B80F0000 		movl	$15, %eax
 1517      00
 1518 0b73 8D148500 		leal	0(,%eax,4), %edx
 1518      000000
 1519 0b7a B8100000 		movl	$16, %eax
 1519      00
 1520 0b7f 83E801   		subl	$1, %eax
 1521 0b82 01D0     		addl	%edx, %eax
 1522 0b84 BF100000 		movl	$16, %edi
 1522      00
 1523 0b89 BA000000 		movl	$0, %edx
 1523      00
 1524 0b8e F7F7     		divl	%edi
 1525 0b90 6BC010   		imull	$16, %eax, %eax
 1526 0b93 E8000000 		call	___chkstk_ms
 1526      00
 1527 0b98 29C4     		subl	%eax, %esp
 1528 0b9a 8D44241C 		leal	28(%esp), %eax
 1529 0b9e 83C003   		addl	$3, %eax
 1530 0ba1 C1E802   		shrl	$2, %eax
 1531 0ba4 C1E002   		sall	$2, %eax
 1532 0ba7 8945E8   		movl	%eax, -24(%ebp)
 643:src/pdf417/PDFDecodedBitStreamParser.c **** 
 644:src/pdf417/PDFDecodedBitStreamParser.c **** 	while (codeIndex < codewords[0] && !end) 
 1533              		.loc 1 644 8
 1534 0baa E98E0100 		jmp	L108
 1534      00
 1535              	L120:
 1536              	LBB12:
 645:src/pdf417/PDFDecodedBitStreamParser.c **** 	{
 646:src/pdf417/PDFDecodedBitStreamParser.c **** 		int code = codewords[codeIndex++];
GAS LISTING C:\Users\jisu8\AppData\Local\Temp\ccM43flq.s 			page 44


 1537              		.loc 1 646 33
 1538 0baf 8B4510   		movl	16(%ebp), %eax
 1539 0bb2 8D5001   		leal	1(%eax), %edx
 1540 0bb5 895510   		movl	%edx, 16(%ebp)
 1541              		.loc 1 646 23
 1542 0bb8 8D148500 		leal	0(,%eax,4), %edx
 1542      000000
 1543 0bbf 8B450C   		movl	12(%ebp), %eax
 1544 0bc2 01D0     		addl	%edx, %eax
 1545              		.loc 1 646 7
 1546 0bc4 8B00     		movl	(%eax), %eax
 1547 0bc6 8945E4   		movl	%eax, -28(%ebp)
 647:src/pdf417/PDFDecodedBitStreamParser.c **** 		if (code >= TEXT_COMPACTION_MODE_LATCH) 
 1548              		.loc 1 647 6
 1549 0bc9 817DE483 		cmpl	$899, -28(%ebp)
 1549      030000
 1550 0bd0 0F8ED100 		jle	L109
 1550      0000
 648:src/pdf417/PDFDecodedBitStreamParser.c **** 		{
 649:src/pdf417/PDFDecodedBitStreamParser.c **** 			if (code >= ECI_USER_DEFINED && code <= ECI_CHARSET) 
 1551              		.loc 1 649 7
 1552 0bd6 817DE49C 		cmpl	$924, -28(%ebp)
 1552      030000
 1553 0bdd 0F8E9E00 		jle	L110
 1553      0000
 1554              		.loc 1 649 33 discriminator 1
 1555 0be3 817DE49F 		cmpl	$927, -28(%ebp)
 1555      030000
 1556 0bea 0F8F9100 		jg	L110
 1556      0000
 650:src/pdf417/PDFDecodedBitStreamParser.c **** 			{
 651:src/pdf417/PDFDecodedBitStreamParser.c **** 				// As operating in Basic Channel Mode (i.e. not embedding backslashed ECIs and doubling backsla
 652:src/pdf417/PDFDecodedBitStreamParser.c **** 				// allow ECIs anywhere in Numeric Compaction (i.e. ISO/IEC 15438:2015 5.5.3.4 doesn't apply).
 653:src/pdf417/PDFDecodedBitStreamParser.c **** 				if (count > 0) 
 1557              		.loc 1 653 8
 1558 0bf0 837DF400 		cmpl	$0, -12(%ebp)
 1559 0bf4 7E4C     		jle	L111
 1560              	LBB13:
 654:src/pdf417/PDFDecodedBitStreamParser.c **** 				{
 655:src/pdf417/PDFDecodedBitStreamParser.c **** 					char tmp[100] = {0,};
 1561              		.loc 1 655 11
 1562 0bf6 8D5580   		leal	-128(%ebp), %edx
 1563 0bf9 B8000000 		movl	$0, %eax
 1563      00
 1564 0bfe B9190000 		movl	$25, %ecx
 1564      00
 1565 0c03 89D7     		movl	%edx, %edi
 1566 0c05 F3AB     		rep stosl
 656:src/pdf417/PDFDecodedBitStreamParser.c **** 					status = DecodeBase900toBase10(numericCodewords, count, tmp);
 1567              		.loc 1 656 15
 1568 0c07 8B45E8   		movl	-24(%ebp), %eax
 1569 0c0a 8D5580   		leal	-128(%ebp), %edx
 1570 0c0d 89542408 		movl	%edx, 8(%esp)
 1571 0c11 8B55F4   		movl	-12(%ebp), %edx
 1572 0c14 89542404 		movl	%edx, 4(%esp)
 1573 0c18 890424   		movl	%eax, (%esp)
 1574 0c1b E823FFFF 		call	_DecodeBase900toBase10
GAS LISTING C:\Users\jisu8\AppData\Local\Temp\ccM43flq.s 			page 45


 1574      FF
 1575 0c20 894508   		movl	%eax, 8(%ebp)
 657:src/pdf417/PDFDecodedBitStreamParser.c **** 					if (StatusIsError(status)) {
 1576              		.loc 1 657 9
 1577 0c23 837D0800 		cmpl	$0, 8(%ebp)
 1578 0c27 7408     		je	L112
 658:src/pdf417/PDFDecodedBitStreamParser.c **** 						return codeIndex;
 1579              		.loc 1 658 14
 1580 0c29 8B4510   		movl	16(%ebp), %eax
 1581 0c2c E9230100 		jmp	L113
 1581      00
 1582              	L112:
 659:src/pdf417/PDFDecodedBitStreamParser.c **** 					}
 660:src/pdf417/PDFDecodedBitStreamParser.c **** 					result += *tmp;
 1583              		.loc 1 660 16
 1584 0c31 0FB64580 		movzbl	-128(%ebp), %eax
 1585 0c35 0FBEC0   		movsbl	%al, %eax
 1586              		.loc 1 660 13
 1587 0c38 014518   		addl	%eax, 24(%ebp)
 661:src/pdf417/PDFDecodedBitStreamParser.c **** 					count = 0;
 1588              		.loc 1 661 12
 1589 0c3b C745F400 		movl	$0, -12(%ebp)
 1589      000000
 1590              	L111:
 1591              	LBE13:
 662:src/pdf417/PDFDecodedBitStreamParser.c **** 				}
 663:src/pdf417/PDFDecodedBitStreamParser.c **** 				codeIndex = ProcessECI(codewords, codeIndex, codewords[0], code, resultEncoded, result, encodin
 1592              		.loc 1 663 17
 1593 0c42 8B450C   		movl	12(%ebp), %eax
 1594 0c45 8B00     		movl	(%eax), %eax
 1595 0c47 8B551C   		movl	28(%ebp), %edx
 1596 0c4a 89542418 		movl	%edx, 24(%esp)
 1597 0c4e 8B5518   		movl	24(%ebp), %edx
 1598 0c51 89542414 		movl	%edx, 20(%esp)
 1599 0c55 8B5514   		movl	20(%ebp), %edx
 1600 0c58 89542410 		movl	%edx, 16(%esp)
 1601 0c5c 8B55E4   		movl	-28(%ebp), %edx
 1602 0c5f 8954240C 		movl	%edx, 12(%esp)
 1603 0c63 89442408 		movl	%eax, 8(%esp)
 1604 0c67 8B4510   		movl	16(%ebp), %eax
 1605 0c6a 89442404 		movl	%eax, 4(%esp)
 1606 0c6e 8B450C   		movl	12(%ebp), %eax
 1607 0c71 890424   		movl	%eax, (%esp)
 1608 0c74 E8AEF3FF 		call	_ProcessECI
 1608      FF
 1609 0c79 894510   		movl	%eax, 16(%ebp)
 664:src/pdf417/PDFDecodedBitStreamParser.c **** 				continue;
 1610              		.loc 1 664 5
 1611 0c7c E9BC0000 		jmp	L108
 1611      00
 1612              	L110:
 665:src/pdf417/PDFDecodedBitStreamParser.c **** 			}
 666:src/pdf417/PDFDecodedBitStreamParser.c **** 			if (!TerminatesCompaction(code)) 
 1613              		.loc 1 666 9
 1614 0c81 8B45E4   		movl	-28(%ebp), %eax
 1615 0c84 890424   		movl	%eax, (%esp)
 1616 0c87 E874F3FF 		call	_TerminatesCompaction
GAS LISTING C:\Users\jisu8\AppData\Local\Temp\ccM43flq.s 			page 46


 1616      FF
 1617              		.loc 1 666 7
 1618 0c8c 84C0     		testb	%al, %al
 1619 0c8e 750F     		jne	L114
 667:src/pdf417/PDFDecodedBitStreamParser.c **** 			{
 668:src/pdf417/PDFDecodedBitStreamParser.c **** 				status = FormatError;
 1620              		.loc 1 668 12
 1621 0c90 C7450802 		movl	$2, 8(%ebp)
 1621      000000
 669:src/pdf417/PDFDecodedBitStreamParser.c **** 				return codeIndex;
 1622              		.loc 1 669 12
 1623 0c97 8B4510   		movl	16(%ebp), %eax
 1624 0c9a E9B50000 		jmp	L113
 1624      00
 1625              	L114:
 670:src/pdf417/PDFDecodedBitStreamParser.c **** 			}
 671:src/pdf417/PDFDecodedBitStreamParser.c **** 			codeIndex--;
 1626              		.loc 1 671 13
 1627 0c9f 836D1001 		subl	$1, 16(%ebp)
 672:src/pdf417/PDFDecodedBitStreamParser.c **** 			end = 1;
 1628              		.loc 1 672 8
 1629 0ca3 C645F301 		movb	$1, -13(%ebp)
 1630              	L109:
 673:src/pdf417/PDFDecodedBitStreamParser.c **** 		}
 674:src/pdf417/PDFDecodedBitStreamParser.c **** 		if (codeIndex == codewords[0]) {
 1631              		.loc 1 674 29
 1632 0ca7 8B450C   		movl	12(%ebp), %eax
 1633 0caa 8B00     		movl	(%eax), %eax
 1634              		.loc 1 674 6
 1635 0cac 394510   		cmpl	%eax, 16(%ebp)
 1636 0caf 7504     		jne	L115
 675:src/pdf417/PDFDecodedBitStreamParser.c **** 			end = 1;
 1637              		.loc 1 675 8
 1638 0cb1 C645F301 		movb	$1, -13(%ebp)
 1639              	L115:
 676:src/pdf417/PDFDecodedBitStreamParser.c **** 		}
 677:src/pdf417/PDFDecodedBitStreamParser.c **** 		if (code < TEXT_COMPACTION_MODE_LATCH) 
 1640              		.loc 1 677 6
 1641 0cb5 817DE483 		cmpl	$899, -28(%ebp)
 1641      030000
 1642 0cbc 7F10     		jg	L116
 678:src/pdf417/PDFDecodedBitStreamParser.c **** 		{
 679:src/pdf417/PDFDecodedBitStreamParser.c **** 			numericCodewords[count] = code;
 1643              		.loc 1 679 28
 1644 0cbe 8B45E8   		movl	-24(%ebp), %eax
 1645 0cc1 8B55F4   		movl	-12(%ebp), %edx
 1646 0cc4 8B4DE4   		movl	-28(%ebp), %ecx
 1647 0cc7 890C90   		movl	%ecx, (%eax,%edx,4)
 680:src/pdf417/PDFDecodedBitStreamParser.c **** 			count++;
 1648              		.loc 1 680 9
 1649 0cca 8345F401 		addl	$1, -12(%ebp)
 1650              	L116:
 681:src/pdf417/PDFDecodedBitStreamParser.c **** 		}
 682:src/pdf417/PDFDecodedBitStreamParser.c **** 		if (count % MAX_NUMERIC_CODEWORDS == 0 || code == NUMERIC_COMPACTION_MODE_LATCH || end) 
 1651              		.loc 1 682 13
 1652 0cce B90F0000 		movl	$15, %ecx
 1652      00
GAS LISTING C:\Users\jisu8\AppData\Local\Temp\ccM43flq.s 			page 47


 1653 0cd3 8B45F4   		movl	-12(%ebp), %eax
 1654 0cd6 99       		cltd
 1655 0cd7 F7F9     		idivl	%ecx
 1656 0cd9 89D0     		movl	%edx, %eax
 1657              		.loc 1 682 6
 1658 0cdb 85C0     		testl	%eax, %eax
 1659 0cdd 740F     		je	L117
 1660              		.loc 1 682 42 discriminator 1
 1661 0cdf 817DE486 		cmpl	$902, -28(%ebp)
 1661      030000
 1662 0ce6 7406     		je	L117
 1663              		.loc 1 682 83 discriminator 2
 1664 0ce8 807DF300 		cmpb	$0, -13(%ebp)
 1665 0cec 744F     		je	L108
 1666              	L117:
 683:src/pdf417/PDFDecodedBitStreamParser.c **** 		{
 684:src/pdf417/PDFDecodedBitStreamParser.c **** 			// Re-invoking Numeric Compaction mode (by using codeword 902
 685:src/pdf417/PDFDecodedBitStreamParser.c **** 			// while in Numeric Compaction mode) serves  to terminate the
 686:src/pdf417/PDFDecodedBitStreamParser.c **** 			// current Numeric Compaction mode grouping as described in 5.4.4.2,
 687:src/pdf417/PDFDecodedBitStreamParser.c **** 			// and then to start a new one grouping.
 688:src/pdf417/PDFDecodedBitStreamParser.c **** 			if (count > 0) 
 1667              		.loc 1 688 7
 1668 0cee 837DF400 		cmpl	$0, -12(%ebp)
 1669 0cf2 7E49     		jle	L108
 1670              	LBB14:
 689:src/pdf417/PDFDecodedBitStreamParser.c **** 			{
 690:src/pdf417/PDFDecodedBitStreamParser.c **** 				char tmp[100] = {0,};
 1671              		.loc 1 690 10
 1672 0cf4 8D5580   		leal	-128(%ebp), %edx
 1673 0cf7 B8000000 		movl	$0, %eax
 1673      00
 1674 0cfc B9190000 		movl	$25, %ecx
 1674      00
 1675 0d01 89D7     		movl	%edx, %edi
 1676 0d03 F3AB     		rep stosl
 691:src/pdf417/PDFDecodedBitStreamParser.c **** 				status = DecodeBase900toBase10(numericCodewords, count, tmp);
 1677              		.loc 1 691 14
 1678 0d05 8B45E8   		movl	-24(%ebp), %eax
 1679 0d08 8D5580   		leal	-128(%ebp), %edx
 1680 0d0b 89542408 		movl	%edx, 8(%esp)
 1681 0d0f 8B55F4   		movl	-12(%ebp), %edx
 1682 0d12 89542404 		movl	%edx, 4(%esp)
 1683 0d16 890424   		movl	%eax, (%esp)
 1684 0d19 E825FEFF 		call	_DecodeBase900toBase10
 1684      FF
 1685 0d1e 894508   		movl	%eax, 8(%ebp)
 692:src/pdf417/PDFDecodedBitStreamParser.c **** 				if (StatusIsError(status)) 
 1686              		.loc 1 692 8
 1687 0d21 837D0800 		cmpl	$0, 8(%ebp)
 1688 0d25 7405     		je	L118
 693:src/pdf417/PDFDecodedBitStreamParser.c **** 				{
 694:src/pdf417/PDFDecodedBitStreamParser.c **** 					return codeIndex;
 1689              		.loc 1 694 13
 1690 0d27 8B4510   		movl	16(%ebp), %eax
 1691 0d2a EB28     		jmp	L113
 1692              	L118:
 695:src/pdf417/PDFDecodedBitStreamParser.c **** 				}
GAS LISTING C:\Users\jisu8\AppData\Local\Temp\ccM43flq.s 			page 48


 696:src/pdf417/PDFDecodedBitStreamParser.c **** 				result += *tmp;
 1693              		.loc 1 696 15
 1694 0d2c 0FB64580 		movzbl	-128(%ebp), %eax
 1695 0d30 0FBEC0   		movsbl	%al, %eax
 1696              		.loc 1 696 12
 1697 0d33 014518   		addl	%eax, 24(%ebp)
 697:src/pdf417/PDFDecodedBitStreamParser.c **** 				count = 0;
 1698              		.loc 1 697 11
 1699 0d36 C745F400 		movl	$0, -12(%ebp)
 1699      000000
 1700              	L108:
 1701              	LBE14:
 1702              	LBE12:
 644:src/pdf417/PDFDecodedBitStreamParser.c **** 	{
 1703              		.loc 1 644 30
 1704 0d3d 8B450C   		movl	12(%ebp), %eax
 1705 0d40 8B00     		movl	(%eax), %eax
 644:src/pdf417/PDFDecodedBitStreamParser.c **** 	{
 1706              		.loc 1 644 8
 1707 0d42 394510   		cmpl	%eax, 16(%ebp)
 1708 0d45 7D0A     		jge	L119
 644:src/pdf417/PDFDecodedBitStreamParser.c **** 	{
 1709              		.loc 1 644 34 discriminator 1
 1710 0d47 807DF300 		cmpb	$0, -13(%ebp)
 1711 0d4b 0F845EFE 		je	L120
 1711      FFFF
 1712              	L119:
 698:src/pdf417/PDFDecodedBitStreamParser.c **** 			}
 699:src/pdf417/PDFDecodedBitStreamParser.c **** 		}
 700:src/pdf417/PDFDecodedBitStreamParser.c **** 	}
 701:src/pdf417/PDFDecodedBitStreamParser.c **** 	return codeIndex;
 1713              		.loc 1 701 9
 1714 0d51 8B4510   		movl	16(%ebp), %eax
 1715              	L113:
 1716 0d54 89DC     		movl	%ebx, %esp
 702:src/pdf417/PDFDecodedBitStreamParser.c **** }
 1717              		.loc 1 702 1
 1718 0d56 8D65F8   		leal	-8(%ebp), %esp
 1719 0d59 5B       		popl	%ebx
 1720              		.cfi_restore 3
 1721 0d5a 5F       		popl	%edi
 1722              		.cfi_restore 7
 1723 0d5b 5D       		popl	%ebp
 1724              	LCFI26:
 1725              		.cfi_restore 5
 1726              		.cfi_def_cfa 4, 4
 1727 0d5c C3       		ret
 1728              		.cfi_endproc
 1729              	LFE26:
 1731              	_DecodeMacroOptionalTextField:
 1732              	LFB27:
 703:src/pdf417/PDFDecodedBitStreamParser.c **** 
 704:src/pdf417/PDFDecodedBitStreamParser.c **** 
 705:src/pdf417/PDFDecodedBitStreamParser.c **** /*
 706:src/pdf417/PDFDecodedBitStreamParser.c **** * Helper to deal with optional text fields in Macros.
 707:src/pdf417/PDFDecodedBitStreamParser.c **** */
 708:src/pdf417/PDFDecodedBitStreamParser.c **** static int DecodeMacroOptionalTextField(DecodeStatus_t status, const int * codewords, int codeIndex
GAS LISTING C:\Users\jisu8\AppData\Local\Temp\ccM43flq.s 			page 49


 709:src/pdf417/PDFDecodedBitStreamParser.c **** 										char * field)
 710:src/pdf417/PDFDecodedBitStreamParser.c **** {
 1733              		.loc 1 710 1
 1734              		.cfi_startproc
 1735 0d5d 55       		pushl	%ebp
 1736              	LCFI27:
 1737              		.cfi_def_cfa_offset 8
 1738              		.cfi_offset 5, -8
 1739 0d5e 89E5     		movl	%esp, %ebp
 1740              	LCFI28:
 1741              		.cfi_def_cfa_register 5
 1742 0d60 57       		pushl	%edi
 1743 0d61 53       		pushl	%ebx
 1744 0d62 81ECF000 		subl	$240, %esp
 1744      0000
 1745              		.cfi_offset 7, -12
 1746              		.cfi_offset 3, -16
 711:src/pdf417/PDFDecodedBitStreamParser.c **** 	unsigned char resultEncoded[100] = {0,};
 1747              		.loc 1 711 16
 1748 0d68 8D5594   		leal	-108(%ebp), %edx
 1749 0d6b B8000000 		movl	$0, %eax
 1749      00
 1750 0d70 B9190000 		movl	$25, %ecx
 1750      00
 1751 0d75 89D7     		movl	%edx, %edi
 1752 0d77 F3AB     		rep stosl
 712:src/pdf417/PDFDecodedBitStreamParser.c **** 	char result[100];
 713:src/pdf417/PDFDecodedBitStreamParser.c **** 	// Each optional field begins with an implied reset to ECI 2 (Annex H.2.3). ECI 2 is ASCII for 0-1
 714:src/pdf417/PDFDecodedBitStreamParser.c **** 	// for non-ASCII (128-255). Text optional fields can contain ECIs.
 715:src/pdf417/PDFDecodedBitStreamParser.c **** 	CharacterSet_t encoding = Cp437;
 1753              		.loc 1 715 17
 1754 0d79 C7852CFF 		movl	$3, -212(%ebp)
 1754      FFFF0300 
 1754      0000
 716:src/pdf417/PDFDecodedBitStreamParser.c **** 
 717:src/pdf417/PDFDecodedBitStreamParser.c **** 	codeIndex = TextCompaction(status, codewords, codeIndex, resultEncoded, &result, &encoding);
 1755              		.loc 1 717 14
 1756 0d83 8D852CFF 		leal	-212(%ebp), %eax
 1756      FFFF
 1757 0d89 89442414 		movl	%eax, 20(%esp)
 1758 0d8d 8D8530FF 		leal	-208(%ebp), %eax
 1758      FFFF
 1759 0d93 89442410 		movl	%eax, 16(%esp)
 1760 0d97 8D4594   		leal	-108(%ebp), %eax
 1761 0d9a 8944240C 		movl	%eax, 12(%esp)
 1762 0d9e 8B4510   		movl	16(%ebp), %eax
 1763 0da1 89442408 		movl	%eax, 8(%esp)
 1764 0da5 8B450C   		movl	12(%ebp), %eax
 1765 0da8 89442404 		movl	%eax, 4(%esp)
 1766 0dac 8B4508   		movl	8(%ebp), %eax
 1767 0daf 890424   		movl	%eax, (%esp)
 1768 0db2 E8E0F6FF 		call	_TextCompaction
 1768      FF
 1769 0db7 894510   		movl	%eax, 16(%ebp)
 718:src/pdf417/PDFDecodedBitStreamParser.c **** 	Append(resultEncoded, (const uint8_t*)(result), strlen(result), encoding); 
 1770              		.loc 1 718 2
 1771 0dba 8B9D2CFF 		movl	-212(%ebp), %ebx
GAS LISTING C:\Users\jisu8\AppData\Local\Temp\ccM43flq.s 			page 50


 1771      FFFF
 1772 0dc0 8D8530FF 		leal	-208(%ebp), %eax
 1772      FFFF
 1773 0dc6 890424   		movl	%eax, (%esp)
 1774 0dc9 E8000000 		call	_strlen
 1774      00
 1775 0dce 895C240C 		movl	%ebx, 12(%esp)
 1776 0dd2 89442408 		movl	%eax, 8(%esp)
 1777 0dd6 8D8530FF 		leal	-208(%ebp), %eax
 1777      FFFF
 1778 0ddc 89442404 		movl	%eax, 4(%esp)
 1779 0de0 8D4594   		leal	-108(%ebp), %eax
 1780 0de3 890424   		movl	%eax, (%esp)
 1781 0de6 E8000000 		call	_Append
 1781      00
 719:src/pdf417/PDFDecodedBitStreamParser.c **** 
 720:src/pdf417/PDFDecodedBitStreamParser.c **** 	return codeIndex;
 1782              		.loc 1 720 9
 1783 0deb 8B4510   		movl	16(%ebp), %eax
 721:src/pdf417/PDFDecodedBitStreamParser.c **** }
 1784              		.loc 1 721 1
 1785 0dee 81C4F000 		addl	$240, %esp
 1785      0000
 1786 0df4 5B       		popl	%ebx
 1787              		.cfi_restore 3
 1788 0df5 5F       		popl	%edi
 1789              		.cfi_restore 7
 1790 0df6 5D       		popl	%ebp
 1791              	LCFI29:
 1792              		.cfi_restore 5
 1793              		.cfi_def_cfa 4, 4
 1794 0df7 C3       		ret
 1795              		.cfi_endproc
 1796              	LFE27:
 1797              		.section .rdata,"dr"
 1798 010a 0000     		.align 4
 1799              	LC6:
 1800 010c 4465636F 		.ascii "DecodeMacroOptionalNumericField\0"
 1800      64654D61 
 1800      63726F4F 
 1800      7074696F 
 1800      6E616C4E 
 1801              		.text
 1803              	_DecodeMacroOptionalNumericField:
 1804              	LFB28:
 722:src/pdf417/PDFDecodedBitStreamParser.c **** 
 723:src/pdf417/PDFDecodedBitStreamParser.c **** 
 724:src/pdf417/PDFDecodedBitStreamParser.c **** /*
 725:src/pdf417/PDFDecodedBitStreamParser.c **** * Helper to deal with optional numeric fields in Macros.
 726:src/pdf417/PDFDecodedBitStreamParser.c **** */
 727:src/pdf417/PDFDecodedBitStreamParser.c **** static int DecodeMacroOptionalNumericField(DecodeStatus_t status, const int * codewords, int codeIn
 728:src/pdf417/PDFDecodedBitStreamParser.c **** 										   uint64_t field)
 729:src/pdf417/PDFDecodedBitStreamParser.c **** {
 1805              		.loc 1 729 1
 1806              		.cfi_startproc
 1807 0df8 55       		pushl	%ebp
 1808              	LCFI30:
GAS LISTING C:\Users\jisu8\AppData\Local\Temp\ccM43flq.s 			page 51


 1809              		.cfi_def_cfa_offset 8
 1810              		.cfi_offset 5, -8
 1811 0df9 89E5     		movl	%esp, %ebp
 1812              	LCFI31:
 1813              		.cfi_def_cfa_register 5
 1814 0dfb 53       		pushl	%ebx
 1815 0dfc 81EC0401 		subl	$260, %esp
 1815      0000
 1816              		.cfi_offset 3, -12
 1817 0e02 8B4514   		movl	20(%ebp), %eax
 1818 0e05 898520FF 		movl	%eax, -224(%ebp)
 1818      FFFF
 1819 0e0b 8B4518   		movl	24(%ebp), %eax
 1820 0e0e 898524FF 		movl	%eax, -220(%ebp)
 1820      FFFF
 730:src/pdf417/PDFDecodedBitStreamParser.c **** 
 731:src/pdf417/PDFDecodedBitStreamParser.c **** 	printf("DecodeMacroOptionalNumericField\n");
 1821              		.loc 1 731 2
 1822 0e14 C704240C 		movl	$LC6, (%esp)
 1822      010000
 1823 0e1b E8000000 		call	_puts
 1823      00
 732:src/pdf417/PDFDecodedBitStreamParser.c **** 
 733:src/pdf417/PDFDecodedBitStreamParser.c **** 	
 734:src/pdf417/PDFDecodedBitStreamParser.c **** 	unsigned char resultEncoded[100];
 735:src/pdf417/PDFDecodedBitStreamParser.c **** 	char result[100];
 736:src/pdf417/PDFDecodedBitStreamParser.c **** 	// Each optional field begins with an implied reset to ECI 2 (Annex H.2.3).
 737:src/pdf417/PDFDecodedBitStreamParser.c **** 	// Numeric optional fields should not contain ECIs, but processed anyway.
 738:src/pdf417/PDFDecodedBitStreamParser.c **** 	CharacterSet_t encoding = Cp437;
 1824              		.loc 1 738 17
 1825 0e20 C7852CFF 		movl	$3, -212(%ebp)
 1825      FFFF0300 
 1825      0000
 739:src/pdf417/PDFDecodedBitStreamParser.c **** 
 740:src/pdf417/PDFDecodedBitStreamParser.c **** 	codeIndex = NumericCompaction(status, codewords, codeIndex, resultEncoded, result, &encoding);
 1826              		.loc 1 740 14
 1827 0e2a 8D852CFF 		leal	-212(%ebp), %eax
 1827      FFFF
 1828 0e30 89442414 		movl	%eax, 20(%esp)
 1829 0e34 8D8530FF 		leal	-208(%ebp), %eax
 1829      FFFF
 1830 0e3a 89442410 		movl	%eax, 16(%esp)
 1831 0e3e 8D4594   		leal	-108(%ebp), %eax
 1832 0e41 8944240C 		movl	%eax, 12(%esp)
 1833 0e45 8B4510   		movl	16(%ebp), %eax
 1834 0e48 89442408 		movl	%eax, 8(%esp)
 1835 0e4c 8B450C   		movl	12(%ebp), %eax
 1836 0e4f 89442404 		movl	%eax, 4(%esp)
 1837 0e53 8B4508   		movl	8(%ebp), %eax
 1838 0e56 890424   		movl	%eax, (%esp)
 1839 0e59 E8EBFCFF 		call	_NumericCompaction
 1839      FF
 1840 0e5e 894510   		movl	%eax, 16(%ebp)
 741:src/pdf417/PDFDecodedBitStreamParser.c **** 	Append(resultEncoded, (const uint8_t*)(result), strlen(result), encoding); 
 1841              		.loc 1 741 2
 1842 0e61 8B9D2CFF 		movl	-212(%ebp), %ebx
 1842      FFFF
GAS LISTING C:\Users\jisu8\AppData\Local\Temp\ccM43flq.s 			page 52


 1843 0e67 8D8530FF 		leal	-208(%ebp), %eax
 1843      FFFF
 1844 0e6d 890424   		movl	%eax, (%esp)
 1845 0e70 E8000000 		call	_strlen
 1845      00
 1846 0e75 895C240C 		movl	%ebx, 12(%esp)
 1847 0e79 89442408 		movl	%eax, 8(%esp)
 1848 0e7d 8D8530FF 		leal	-208(%ebp), %eax
 1848      FFFF
 1849 0e83 89442404 		movl	%eax, 4(%esp)
 1850 0e87 8D4594   		leal	-108(%ebp), %eax
 1851 0e8a 890424   		movl	%eax, (%esp)
 1852 0e8d E8000000 		call	_Append
 1852      00
 742:src/pdf417/PDFDecodedBitStreamParser.c **** 
 743:src/pdf417/PDFDecodedBitStreamParser.c **** 	field = strtol(resultEncoded,strlen(resultEncoded),10);
 1853              		.loc 1 743 31
 1854 0e92 8D4594   		leal	-108(%ebp), %eax
 1855 0e95 890424   		movl	%eax, (%esp)
 1856 0e98 E8000000 		call	_strlen
 1856      00
 1857              		.loc 1 743 10
 1858 0e9d C7442408 		movl	$10, 8(%esp)
 1858      0A000000 
 1859 0ea5 89442404 		movl	%eax, 4(%esp)
 1860 0ea9 8D4594   		leal	-108(%ebp), %eax
 1861 0eac 890424   		movl	%eax, (%esp)
 1862 0eaf E8000000 		call	_strtol
 1862      00
 1863              		.loc 1 743 8
 1864 0eb4 99       		cltd
 1865 0eb5 898520FF 		movl	%eax, -224(%ebp)
 1865      FFFF
 1866 0ebb 899524FF 		movl	%edx, -220(%ebp)
 1866      FFFF
 744:src/pdf417/PDFDecodedBitStreamParser.c **** 
 745:src/pdf417/PDFDecodedBitStreamParser.c **** 	return codeIndex;
 1867              		.loc 1 745 9
 1868 0ec1 8B4510   		movl	16(%ebp), %eax
 746:src/pdf417/PDFDecodedBitStreamParser.c **** }
 1869              		.loc 1 746 1
 1870 0ec4 81C40401 		addl	$260, %esp
 1870      0000
 1871 0eca 5B       		popl	%ebx
 1872              		.cfi_restore 3
 1873 0ecb 5D       		popl	%ebp
 1874              	LCFI32:
 1875              		.cfi_restore 5
 1876              		.cfi_def_cfa 4, 4
 1877 0ecc C3       		ret
 1878              		.cfi_endproc
 1879              	LFE28:
 1880              		.section .rdata,"dr"
 1881              	LC7:
 1882 012c 4465636F 		.ascii "DecodeMacroBlock  \0"
 1882      64654D61 
 1882      63726F42 
GAS LISTING C:\Users\jisu8\AppData\Local\Temp\ccM43flq.s 			page 53


 1882      6C6F636B 
 1882      202000
 1883              		.text
 1884              		.globl	_DecodeMacroBlock
 1886              	_DecodeMacroBlock:
 1887              	LFB29:
 747:src/pdf417/PDFDecodedBitStreamParser.c **** 
 748:src/pdf417/PDFDecodedBitStreamParser.c **** 
 749:src/pdf417/PDFDecodedBitStreamParser.c **** DecodeStatus_t DecodeMacroBlock(const int * codewords, int codeIndex, DecoderResultExtra_t * result
 750:src/pdf417/PDFDecodedBitStreamParser.c **** 							  int next)
 751:src/pdf417/PDFDecodedBitStreamParser.c **** {
 1888              		.loc 1 751 1
 1889              		.cfi_startproc
 1890 0ecd 55       		pushl	%ebp
 1891              	LCFI33:
 1892              		.cfi_def_cfa_offset 8
 1893              		.cfi_offset 5, -8
 1894 0ece 89E5     		movl	%esp, %ebp
 1895              	LCFI34:
 1896              		.cfi_def_cfa_register 5
 1897 0ed0 57       		pushl	%edi
 1898 0ed1 53       		pushl	%ebx
 1899 0ed2 81EC3001 		subl	$304, %esp
 1899      0000
 1900              		.cfi_offset 7, -12
 1901              		.cfi_offset 3, -16
 1902              		.loc 1 751 1
 1903 0ed8 89E0     		movl	%esp, %eax
 1904 0eda 89C3     		movl	%eax, %ebx
 752:src/pdf417/PDFDecodedBitStreamParser.c **** 
 753:src/pdf417/PDFDecodedBitStreamParser.c **** 	printf("DecodeMacroBlock  \n");
 1905              		.loc 1 753 2
 1906 0edc C704242C 		movl	$LC7, (%esp)
 1906      010000
 1907 0ee3 E8000000 		call	_puts
 1907      00
 754:src/pdf417/PDFDecodedBitStreamParser.c **** 	
 755:src/pdf417/PDFDecodedBitStreamParser.c **** 	if (codeIndex + NUMBER_OF_SEQUENCE_CODEWORDS > codewords[0])
 1908              		.loc 1 755 16
 1909 0ee8 BA020000 		movl	$2, %edx
 1909      00
 1910 0eed 8B450C   		movl	12(%ebp), %eax
 1911 0ef0 01C2     		addl	%eax, %edx
 1912              		.loc 1 755 58
 1913 0ef2 8B4508   		movl	8(%ebp), %eax
 1914 0ef5 8B00     		movl	(%eax), %eax
 1915              		.loc 1 755 5
 1916 0ef7 39C2     		cmpl	%eax, %edx
 1917 0ef9 7E0A     		jle	L127
 756:src/pdf417/PDFDecodedBitStreamParser.c **** 	{
 757:src/pdf417/PDFDecodedBitStreamParser.c **** 		// we must have at least two bytes left for the segment index
 758:src/pdf417/PDFDecodedBitStreamParser.c **** 		return FormatError;
 1918              		.loc 1 758 10
 1919 0efb B8020000 		movl	$2, %eax
 1919      00
 1920 0f00 E9180400 		jmp	L128
 1920      00
GAS LISTING C:\Users\jisu8\AppData\Local\Temp\ccM43flq.s 			page 54


 1921              	L127:
 759:src/pdf417/PDFDecodedBitStreamParser.c **** 	}
 760:src/pdf417/PDFDecodedBitStreamParser.c **** 
 761:src/pdf417/PDFDecodedBitStreamParser.c **** 	int segmentIndexArray[NUMBER_OF_SEQUENCE_CODEWORDS];
 1922              		.loc 1 761 6
 1923 0f05 B8020000 		movl	$2, %eax
 1923      00
 1924 0f0a 83E801   		subl	$1, %eax
 1925 0f0d 8945E8   		movl	%eax, -24(%ebp)
 1926 0f10 B8020000 		movl	$2, %eax
 1926      00
 1927 0f15 8D148500 		leal	0(,%eax,4), %edx
 1927      000000
 1928 0f1c B8100000 		movl	$16, %eax
 1928      00
 1929 0f21 83E801   		subl	$1, %eax
 1930 0f24 01D0     		addl	%edx, %eax
 1931 0f26 BF100000 		movl	$16, %edi
 1931      00
 1932 0f2b BA000000 		movl	$0, %edx
 1932      00
 1933 0f30 F7F7     		divl	%edi
 1934 0f32 6BC010   		imull	$16, %eax, %eax
 1935 0f35 E8000000 		call	___chkstk_ms
 1935      00
 1936 0f3a 29C4     		subl	%eax, %esp
 1937 0f3c 8D442414 		leal	20(%esp), %eax
 1938 0f40 83C003   		addl	$3, %eax
 1939 0f43 C1E802   		shrl	$2, %eax
 1940 0f46 C1E002   		sall	$2, %eax
 1941 0f49 8945E4   		movl	%eax, -28(%ebp)
 1942              	LBB15:
 762:src/pdf417/PDFDecodedBitStreamParser.c **** 	for (int i = 0; i < NUMBER_OF_SEQUENCE_CODEWORDS; i++, codeIndex++) 
 1943              		.loc 1 762 11
 1944 0f4c C745F400 		movl	$0, -12(%ebp)
 1944      000000
 1945              		.loc 1 762 2
 1946 0f53 EB22     		jmp	L129
 1947              	L130:
 763:src/pdf417/PDFDecodedBitStreamParser.c **** 	{
 764:src/pdf417/PDFDecodedBitStreamParser.c **** 		segmentIndexArray[i] = codewords[codeIndex];
 1948              		.loc 1 764 35 discriminator 3
 1949 0f55 8B450C   		movl	12(%ebp), %eax
 1950 0f58 8D148500 		leal	0(,%eax,4), %edx
 1950      000000
 1951 0f5f 8B4508   		movl	8(%ebp), %eax
 1952 0f62 01D0     		addl	%edx, %eax
 1953 0f64 8B08     		movl	(%eax), %ecx
 1954              		.loc 1 764 24 discriminator 3
 1955 0f66 8B45E4   		movl	-28(%ebp), %eax
 1956 0f69 8B55F4   		movl	-12(%ebp), %edx
 1957 0f6c 890C90   		movl	%ecx, (%eax,%edx,4)
 762:src/pdf417/PDFDecodedBitStreamParser.c **** 	for (int i = 0; i < NUMBER_OF_SEQUENCE_CODEWORDS; i++, codeIndex++) 
 1958              		.loc 1 762 53 discriminator 3
 1959 0f6f 8345F401 		addl	$1, -12(%ebp)
 762:src/pdf417/PDFDecodedBitStreamParser.c **** 	for (int i = 0; i < NUMBER_OF_SEQUENCE_CODEWORDS; i++, codeIndex++) 
 1960              		.loc 1 762 66 discriminator 3
GAS LISTING C:\Users\jisu8\AppData\Local\Temp\ccM43flq.s 			page 55


 1961 0f73 83450C01 		addl	$1, 12(%ebp)
 1962              	L129:
 762:src/pdf417/PDFDecodedBitStreamParser.c **** 	for (int i = 0; i < NUMBER_OF_SEQUENCE_CODEWORDS; i++, codeIndex++) 
 1963              		.loc 1 762 20 discriminator 1
 1964 0f77 B8020000 		movl	$2, %eax
 1964      00
 762:src/pdf417/PDFDecodedBitStreamParser.c **** 	for (int i = 0; i < NUMBER_OF_SEQUENCE_CODEWORDS; i++, codeIndex++) 
 1965              		.loc 1 762 2 discriminator 1
 1966 0f7c 3945F4   		cmpl	%eax, -12(%ebp)
 1967 0f7f 7CD4     		jl	L130
 1968              	LBE15:
 765:src/pdf417/PDFDecodedBitStreamParser.c **** 	}
 766:src/pdf417/PDFDecodedBitStreamParser.c **** 
 767:src/pdf417/PDFDecodedBitStreamParser.c **** 	char strBuf[100] = {0,};
 1969              		.loc 1 767 7
 1970 0f81 8D9558FF 		leal	-168(%ebp), %edx
 1970      FFFF
 1971 0f87 B8000000 		movl	$0, %eax
 1971      00
 1972 0f8c B9190000 		movl	$25, %ecx
 1972      00
 1973 0f91 89D7     		movl	%edx, %edi
 1974 0f93 F3AB     		rep stosl
 768:src/pdf417/PDFDecodedBitStreamParser.c **** 	DecodeStatus_t status = DecodeBase900toBase10(segmentIndexArray, NUMBER_OF_SEQUENCE_CODEWORDS, str
 1975              		.loc 1 768 26
 1976 0f95 B9020000 		movl	$2, %ecx
 1976      00
 1977 0f9a 8B45E4   		movl	-28(%ebp), %eax
 1978 0f9d 8D9558FF 		leal	-168(%ebp), %edx
 1978      FFFF
 1979 0fa3 89542408 		movl	%edx, 8(%esp)
 1980 0fa7 894C2404 		movl	%ecx, 4(%esp)
 1981 0fab 890424   		movl	%eax, (%esp)
 1982 0fae E890FBFF 		call	_DecodeBase900toBase10
 1982      FF
 1983 0fb3 8945F0   		movl	%eax, -16(%ebp)
 769:src/pdf417/PDFDecodedBitStreamParser.c **** 	if (StatusIsError(status)) 
 1984              		.loc 1 769 5
 1985 0fb6 837DF000 		cmpl	$0, -16(%ebp)
 1986 0fba 7408     		je	L131
 770:src/pdf417/PDFDecodedBitStreamParser.c **** 	{
 771:src/pdf417/PDFDecodedBitStreamParser.c **** 		return status;
 1987              		.loc 1 771 10
 1988 0fbc 8B45F0   		movl	-16(%ebp), %eax
 1989 0fbf E9590300 		jmp	L128
 1989      00
 1990              	L131:
 772:src/pdf417/PDFDecodedBitStreamParser.c **** 	}
 773:src/pdf417/PDFDecodedBitStreamParser.c **** 
 774:src/pdf417/PDFDecodedBitStreamParser.c **** 	resultMetadata->_segmentIndex = strtol(strBuf,strlen(strBuf),10);
 1991              		.loc 1 774 48
 1992 0fc4 8D8558FF 		leal	-168(%ebp), %eax
 1992      FFFF
 1993 0fca 890424   		movl	%eax, (%esp)
 1994 0fcd E8000000 		call	_strlen
 1994      00
 1995              		.loc 1 774 34
GAS LISTING C:\Users\jisu8\AppData\Local\Temp\ccM43flq.s 			page 56


 1996 0fd2 C7442408 		movl	$10, 8(%esp)
 1996      0A000000 
 1997 0fda 89442404 		movl	%eax, 4(%esp)
 1998 0fde 8D8558FF 		leal	-168(%ebp), %eax
 1998      FFFF
 1999 0fe4 890424   		movl	%eax, (%esp)
 2000 0fe7 E8000000 		call	_strtol
 2000      00
 2001 0fec 89C2     		movl	%eax, %edx
 2002              		.loc 1 774 32
 2003 0fee 8B4510   		movl	16(%ebp), %eax
 2004 0ff1 8910     		movl	%edx, (%eax)
 775:src/pdf417/PDFDecodedBitStreamParser.c **** 
 776:src/pdf417/PDFDecodedBitStreamParser.c **** 	// Decoding the fileId codewords as 0-899 numbers, each 0-filled to width 3. This follows the spec
 777:src/pdf417/PDFDecodedBitStreamParser.c **** 	// (See ISO/IEC 15438:2015 Annex H.6) and preserves all info, but some generators (e.g. TEC-IT) wr
 778:src/pdf417/PDFDecodedBitStreamParser.c **** 	// the fileId using text compaction, so in those cases the fileId will appear mangled.
 779:src/pdf417/PDFDecodedBitStreamParser.c **** 	#if 0
 780:src/pdf417/PDFDecodedBitStreamParser.c **** 	std::ostringstream fileId;
 781:src/pdf417/PDFDecodedBitStreamParser.c **** 	fileId.fill('0');
 782:src/pdf417/PDFDecodedBitStreamParser.c **** 	for (int i = 0; codeIndex < codewords[0] && codewords[codeIndex] != MACRO_PDF417_TERMINATOR
 783:src/pdf417/PDFDecodedBitStreamParser.c **** 			&& codewords[codeIndex] != BEGIN_MACRO_PDF417_OPTIONAL_FIELD; i++, codeIndex++) 
 784:src/pdf417/PDFDecodedBitStreamParser.c **** 	{
 785:src/pdf417/PDFDecodedBitStreamParser.c **** 		fileId << std::setw(3) << codewords[codeIndex];
 786:src/pdf417/PDFDecodedBitStreamParser.c **** 	}
 787:src/pdf417/PDFDecodedBitStreamParser.c **** 
 788:src/pdf417/PDFDecodedBitStreamParser.c **** 	resultMetadata.setFileId(fileId.str());
 789:src/pdf417/PDFDecodedBitStreamParser.c **** 	#endif //os stream  
 790:src/pdf417/PDFDecodedBitStreamParser.c **** 	int optionalFieldsStart = -1;
 2005              		.loc 1 790 6
 2006 0ff3 C745ECFF 		movl	$-1, -20(%ebp)
 2006      FFFFFF
 791:src/pdf417/PDFDecodedBitStreamParser.c **** 	if (codeIndex < codewords[0] && codewords[codeIndex] == BEGIN_MACRO_PDF417_OPTIONAL_FIELD) 
 2007              		.loc 1 791 27
 2008 0ffa 8B4508   		movl	8(%ebp), %eax
 2009 0ffd 8B00     		movl	(%eax), %eax
 2010              		.loc 1 791 5
 2011 0fff 39450C   		cmpl	%eax, 12(%ebp)
 2012 1002 0F8DC902 		jge	L133
 2012      0000
 2013              		.loc 1 791 43 discriminator 1
 2014 1008 8B450C   		movl	12(%ebp), %eax
 2015 100b 8D148500 		leal	0(,%eax,4), %edx
 2015      000000
 2016 1012 8B4508   		movl	8(%ebp), %eax
 2017 1015 01D0     		addl	%edx, %eax
 2018 1017 8B00     		movl	(%eax), %eax
 2019              		.loc 1 791 31 discriminator 1
 2020 1019 3D9B0300 		cmpl	$923, %eax
 2020      00
 2021 101e 0F85AD02 		jne	L133
 2021      0000
 792:src/pdf417/PDFDecodedBitStreamParser.c **** 	{
 793:src/pdf417/PDFDecodedBitStreamParser.c **** 		optionalFieldsStart = codeIndex + 1;
 2022              		.loc 1 793 23
 2023 1024 8B450C   		movl	12(%ebp), %eax
 2024 1027 83C001   		addl	$1, %eax
 2025 102a 8945EC   		movl	%eax, -20(%ebp)
GAS LISTING C:\Users\jisu8\AppData\Local\Temp\ccM43flq.s 			page 57


 794:src/pdf417/PDFDecodedBitStreamParser.c **** 	}
 795:src/pdf417/PDFDecodedBitStreamParser.c **** 
 796:src/pdf417/PDFDecodedBitStreamParser.c **** 	while (codeIndex < codewords[0]) 
 2026              		.loc 1 796 8
 2027 102d E99F0200 		jmp	L133
 2027      00
 2028              	L148:
 797:src/pdf417/PDFDecodedBitStreamParser.c **** 	{
 798:src/pdf417/PDFDecodedBitStreamParser.c **** 		switch (codewords[codeIndex]) 
 2029              		.loc 1 798 20
 2030 1032 8B450C   		movl	12(%ebp), %eax
 2031 1035 8D148500 		leal	0(,%eax,4), %edx
 2031      000000
 2032 103c 8B4508   		movl	8(%ebp), %eax
 2033 103f 01D0     		addl	%edx, %eax
 2034 1041 8B00     		movl	(%eax), %eax
 2035 1043 3D9A0300 		cmpl	$922, %eax
 2035      00
 2036 1048 0F846102 		je	L134
 2036      0000
 2037 104e 3D9B0300 		cmpl	$923, %eax
 2037      00
 2038 1053 0F856302 		jne	L135
 2038      0000
 799:src/pdf417/PDFDecodedBitStreamParser.c **** 		{
 800:src/pdf417/PDFDecodedBitStreamParser.c **** 			case BEGIN_MACRO_PDF417_OPTIONAL_FIELD: 
 801:src/pdf417/PDFDecodedBitStreamParser.c **** 			{
 802:src/pdf417/PDFDecodedBitStreamParser.c **** 				codeIndex++;
 2039              		.loc 1 802 14
 2040 1059 83450C01 		addl	$1, 12(%ebp)
 803:src/pdf417/PDFDecodedBitStreamParser.c **** 				if (codeIndex >= codewords[0]) 
 2041              		.loc 1 803 31
 2042 105d 8B4508   		movl	8(%ebp), %eax
 2043 1060 8B00     		movl	(%eax), %eax
 2044              		.loc 1 803 8
 2045 1062 39450C   		cmpl	%eax, 12(%ebp)
 2046 1065 0F8D5A02 		jge	L152
 2046      0000
 804:src/pdf417/PDFDecodedBitStreamParser.c **** 				{
 805:src/pdf417/PDFDecodedBitStreamParser.c **** 					break;
 806:src/pdf417/PDFDecodedBitStreamParser.c **** 				}
 807:src/pdf417/PDFDecodedBitStreamParser.c **** 
 808:src/pdf417/PDFDecodedBitStreamParser.c **** 				switch (codewords[codeIndex]) 
 2047              		.loc 1 808 22
 2048 106b 8B450C   		movl	12(%ebp), %eax
 2049 106e 8D148500 		leal	0(,%eax,4), %edx
 2049      000000
 2050 1075 8B4508   		movl	8(%ebp), %eax
 2051 1078 01D0     		addl	%edx, %eax
 2052 107a 8B00     		movl	(%eax), %eax
 2053 107c 83F806   		cmpl	$6, %eax
 2054 107f 0F872002 		ja	L138
 2054      0000
 2055 1085 8B048540 		movl	L140(,%eax,4), %eax
 2055      010000
 2056 108c FFE0     		jmp	*%eax
 2057              		.section .rdata,"dr"
GAS LISTING C:\Users\jisu8\AppData\Local\Temp\ccM43flq.s 			page 58


 2058 013f 00       		.align 4
 2059              	L140:
 2060 0140 8E100000 		.long	L146
 2061 0144 7B110000 		.long	L145
 2062 0148 C4110000 		.long	L144
 2063 014c DD100000 		.long	L143
 2064 0150 2C110000 		.long	L142
 2065 0154 59120000 		.long	L141
 2066 0158 13120000 		.long	L139
 2067              		.text
 2068              	L146:
 2069              	LBB16:
 809:src/pdf417/PDFDecodedBitStreamParser.c **** 				{
 810:src/pdf417/PDFDecodedBitStreamParser.c **** 					case MACRO_PDF417_OPTIONAL_FIELD_FILE_NAME: 
 811:src/pdf417/PDFDecodedBitStreamParser.c **** 					{
 812:src/pdf417/PDFDecodedBitStreamParser.c **** 						char fileName[100] = {0,};
 2070              		.loc 1 812 12
 2071 108e 8D95F4FE 		leal	-268(%ebp), %edx
 2071      FFFF
 2072 1094 B8000000 		movl	$0, %eax
 2072      00
 2073 1099 B9190000 		movl	$25, %ecx
 2073      00
 2074 109e 89D7     		movl	%edx, %edi
 2075 10a0 F3AB     		rep stosl
 813:src/pdf417/PDFDecodedBitStreamParser.c **** 						codeIndex = DecodeMacroOptionalTextField(status, codewords, codeIndex + 1, fileName);
 2076              		.loc 1 813 19
 2077 10a2 8B450C   		movl	12(%ebp), %eax
 2078 10a5 8D5001   		leal	1(%eax), %edx
 2079 10a8 8D85F4FE 		leal	-268(%ebp), %eax
 2079      FFFF
 2080 10ae 8944240C 		movl	%eax, 12(%esp)
 2081 10b2 89542408 		movl	%edx, 8(%esp)
 2082 10b6 8B4508   		movl	8(%ebp), %eax
 2083 10b9 89442404 		movl	%eax, 4(%esp)
 2084 10bd 8B45F0   		movl	-16(%ebp), %eax
 2085 10c0 890424   		movl	%eax, (%esp)
 2086 10c3 E895FCFF 		call	_DecodeMacroOptionalTextField
 2086      FF
 2087 10c8 89450C   		movl	%eax, 12(%ebp)
 814:src/pdf417/PDFDecodedBitStreamParser.c **** 						resultMetadata->_fileName = (fileName);
 2088              		.loc 1 814 33
 2089 10cb 8B4510   		movl	16(%ebp), %eax
 2090 10ce 8D95F4FE 		leal	-268(%ebp), %edx
 2090      FFFF
 2091 10d4 89501C   		movl	%edx, 28(%eax)
 815:src/pdf417/PDFDecodedBitStreamParser.c **** 						break;
 2092              		.loc 1 815 7
 2093 10d7 90       		nop
 2094 10d8 E9D00100 		jmp	L147
 2094      00
 2095              	L143:
 2096              	LBE16:
 2097              	LBB17:
 816:src/pdf417/PDFDecodedBitStreamParser.c **** 					}
 817:src/pdf417/PDFDecodedBitStreamParser.c **** 
 818:src/pdf417/PDFDecodedBitStreamParser.c **** 					case MACRO_PDF417_OPTIONAL_FIELD_SENDER: 
GAS LISTING C:\Users\jisu8\AppData\Local\Temp\ccM43flq.s 			page 59


 819:src/pdf417/PDFDecodedBitStreamParser.c **** 					{
 820:src/pdf417/PDFDecodedBitStreamParser.c **** 						char sender[100] = {0,};
 2098              		.loc 1 820 12
 2099 10dd 8D95F4FE 		leal	-268(%ebp), %edx
 2099      FFFF
 2100 10e3 B8000000 		movl	$0, %eax
 2100      00
 2101 10e8 B9190000 		movl	$25, %ecx
 2101      00
 2102 10ed 89D7     		movl	%edx, %edi
 2103 10ef F3AB     		rep stosl
 821:src/pdf417/PDFDecodedBitStreamParser.c **** 						codeIndex = DecodeMacroOptionalTextField(status, codewords, codeIndex + 1, sender);
 2104              		.loc 1 821 19
 2105 10f1 8B450C   		movl	12(%ebp), %eax
 2106 10f4 8D5001   		leal	1(%eax), %edx
 2107 10f7 8D85F4FE 		leal	-268(%ebp), %eax
 2107      FFFF
 2108 10fd 8944240C 		movl	%eax, 12(%esp)
 2109 1101 89542408 		movl	%edx, 8(%esp)
 2110 1105 8B4508   		movl	8(%ebp), %eax
 2111 1108 89442404 		movl	%eax, 4(%esp)
 2112 110c 8B45F0   		movl	-16(%ebp), %eax
 2113 110f 890424   		movl	%eax, (%esp)
 2114 1112 E846FCFF 		call	_DecodeMacroOptionalTextField
 2114      FF
 2115 1117 89450C   		movl	%eax, 12(%ebp)
 822:src/pdf417/PDFDecodedBitStreamParser.c **** 						resultMetadata->_sender = (sender);
 2116              		.loc 1 822 31
 2117 111a 8B4510   		movl	16(%ebp), %eax
 2118 111d 8D95F4FE 		leal	-268(%ebp), %edx
 2118      FFFF
 2119 1123 895014   		movl	%edx, 20(%eax)
 823:src/pdf417/PDFDecodedBitStreamParser.c **** 						break;
 2120              		.loc 1 823 7
 2121 1126 90       		nop
 2122 1127 E9810100 		jmp	L147
 2122      00
 2123              	L142:
 2124              	LBE17:
 2125              	LBB18:
 824:src/pdf417/PDFDecodedBitStreamParser.c **** 					}
 825:src/pdf417/PDFDecodedBitStreamParser.c **** 
 826:src/pdf417/PDFDecodedBitStreamParser.c **** 					case MACRO_PDF417_OPTIONAL_FIELD_ADDRESSEE: 
 827:src/pdf417/PDFDecodedBitStreamParser.c **** 					{
 828:src/pdf417/PDFDecodedBitStreamParser.c **** 						char addressee[100] = {0,};
 2126              		.loc 1 828 12
 2127 112c 8D95F4FE 		leal	-268(%ebp), %edx
 2127      FFFF
 2128 1132 B8000000 		movl	$0, %eax
 2128      00
 2129 1137 B9190000 		movl	$25, %ecx
 2129      00
 2130 113c 89D7     		movl	%edx, %edi
 2131 113e F3AB     		rep stosl
 829:src/pdf417/PDFDecodedBitStreamParser.c **** 						codeIndex = DecodeMacroOptionalTextField(status, codewords, codeIndex + 1, addressee);
 2132              		.loc 1 829 19
 2133 1140 8B450C   		movl	12(%ebp), %eax
GAS LISTING C:\Users\jisu8\AppData\Local\Temp\ccM43flq.s 			page 60


 2134 1143 8D5001   		leal	1(%eax), %edx
 2135 1146 8D85F4FE 		leal	-268(%ebp), %eax
 2135      FFFF
 2136 114c 8944240C 		movl	%eax, 12(%esp)
 2137 1150 89542408 		movl	%edx, 8(%esp)
 2138 1154 8B4508   		movl	8(%ebp), %eax
 2139 1157 89442404 		movl	%eax, 4(%esp)
 2140 115b 8B45F0   		movl	-16(%ebp), %eax
 2141 115e 890424   		movl	%eax, (%esp)
 2142 1161 E8F7FBFF 		call	_DecodeMacroOptionalTextField
 2142      FF
 2143 1166 89450C   		movl	%eax, 12(%ebp)
 830:src/pdf417/PDFDecodedBitStreamParser.c **** 						resultMetadata->_addressee = (addressee);
 2144              		.loc 1 830 34
 2145 1169 8B4510   		movl	16(%ebp), %eax
 2146 116c 8D95F4FE 		leal	-268(%ebp), %edx
 2146      FFFF
 2147 1172 895018   		movl	%edx, 24(%eax)
 831:src/pdf417/PDFDecodedBitStreamParser.c **** 						break;
 2148              		.loc 1 831 7
 2149 1175 90       		nop
 2150 1176 E9320100 		jmp	L147
 2150      00
 2151              	L145:
 2152              	LBE18:
 2153              	LBB19:
 832:src/pdf417/PDFDecodedBitStreamParser.c **** 					}
 833:src/pdf417/PDFDecodedBitStreamParser.c **** 					case MACRO_PDF417_OPTIONAL_FIELD_SEGMENT_COUNT: 
 834:src/pdf417/PDFDecodedBitStreamParser.c **** 					{
 835:src/pdf417/PDFDecodedBitStreamParser.c **** 						uint64_t segmentCount = 0;
 2154              		.loc 1 835 16
 2155 117b C745D800 		movl	$0, -40(%ebp)
 2155      000000
 2156 1182 C745DC00 		movl	$0, -36(%ebp)
 2156      000000
 836:src/pdf417/PDFDecodedBitStreamParser.c **** 						codeIndex = DecodeMacroOptionalNumericField(status, codewords, codeIndex + 1, segmentCount);
 2157              		.loc 1 836 19
 2158 1189 8B450C   		movl	12(%ebp), %eax
 2159 118c 8D4801   		leal	1(%eax), %ecx
 2160 118f 8B45D8   		movl	-40(%ebp), %eax
 2161 1192 8B55DC   		movl	-36(%ebp), %edx
 2162 1195 8944240C 		movl	%eax, 12(%esp)
 2163 1199 89542410 		movl	%edx, 16(%esp)
 2164 119d 894C2408 		movl	%ecx, 8(%esp)
 2165 11a1 8B4508   		movl	8(%ebp), %eax
 2166 11a4 89442404 		movl	%eax, 4(%esp)
 2167 11a8 8B45F0   		movl	-16(%ebp), %eax
 2168 11ab 890424   		movl	%eax, (%esp)
 2169 11ae E845FCFF 		call	_DecodeMacroOptionalNumericField
 2169      FF
 2170 11b3 89450C   		movl	%eax, 12(%ebp)
 837:src/pdf417/PDFDecodedBitStreamParser.c **** 						resultMetadata->_segmentCount = (segmentCount);
 2171              		.loc 1 837 37
 2172 11b6 8B55D8   		movl	-40(%ebp), %edx
 2173 11b9 8B4510   		movl	16(%ebp), %eax
 2174 11bc 895010   		movl	%edx, 16(%eax)
 838:src/pdf417/PDFDecodedBitStreamParser.c **** 						break;
GAS LISTING C:\Users\jisu8\AppData\Local\Temp\ccM43flq.s 			page 61


 2175              		.loc 1 838 7
 2176 11bf E9E90000 		jmp	L147
 2176      00
 2177              	L144:
 2178              	LBE19:
 2179              	LBB20:
 839:src/pdf417/PDFDecodedBitStreamParser.c **** 					}
 840:src/pdf417/PDFDecodedBitStreamParser.c **** 
 841:src/pdf417/PDFDecodedBitStreamParser.c **** 					case MACRO_PDF417_OPTIONAL_FIELD_TIME_STAMP: 
 842:src/pdf417/PDFDecodedBitStreamParser.c **** 					{
 843:src/pdf417/PDFDecodedBitStreamParser.c **** 						uint64_t timestamp = 0;;
 2180              		.loc 1 843 16
 2181 11c4 C745D000 		movl	$0, -48(%ebp)
 2181      000000
 2182 11cb C745D400 		movl	$0, -44(%ebp)
 2182      000000
 844:src/pdf417/PDFDecodedBitStreamParser.c **** 						codeIndex = DecodeMacroOptionalNumericField(status, codewords, codeIndex + 1, timestamp);
 2183              		.loc 1 844 19
 2184 11d2 8B450C   		movl	12(%ebp), %eax
 2185 11d5 8D4801   		leal	1(%eax), %ecx
 2186 11d8 8B45D0   		movl	-48(%ebp), %eax
 2187 11db 8B55D4   		movl	-44(%ebp), %edx
 2188 11de 8944240C 		movl	%eax, 12(%esp)
 2189 11e2 89542410 		movl	%edx, 16(%esp)
 2190 11e6 894C2408 		movl	%ecx, 8(%esp)
 2191 11ea 8B4508   		movl	8(%ebp), %eax
 2192 11ed 89442404 		movl	%eax, 4(%esp)
 2193 11f1 8B45F0   		movl	-16(%ebp), %eax
 2194 11f4 890424   		movl	%eax, (%esp)
 2195 11f7 E8FCFBFF 		call	_DecodeMacroOptionalNumericField
 2195      FF
 2196 11fc 89450C   		movl	%eax, 12(%ebp)
 845:src/pdf417/PDFDecodedBitStreamParser.c **** 						resultMetadata->_timestamp = (timestamp);
 2197              		.loc 1 845 34
 2198 11ff 8B45D0   		movl	-48(%ebp), %eax
 2199 1202 8B55D4   		movl	-44(%ebp), %edx
 2200 1205 8B4D10   		movl	16(%ebp), %ecx
 2201 1208 894128   		movl	%eax, 40(%ecx)
 2202 120b 89512C   		movl	%edx, 44(%ecx)
 846:src/pdf417/PDFDecodedBitStreamParser.c **** 						break;
 2203              		.loc 1 846 7
 2204 120e E99A0000 		jmp	L147
 2204      00
 2205              	L139:
 2206              	LBE20:
 2207              	LBB21:
 847:src/pdf417/PDFDecodedBitStreamParser.c **** 					}
 848:src/pdf417/PDFDecodedBitStreamParser.c **** 
 849:src/pdf417/PDFDecodedBitStreamParser.c **** 					case MACRO_PDF417_OPTIONAL_FIELD_CHECKSUM: 
 850:src/pdf417/PDFDecodedBitStreamParser.c **** 					{
 851:src/pdf417/PDFDecodedBitStreamParser.c **** 						uint64_t checksum = 0;;
 2208              		.loc 1 851 16
 2209 1213 C745C800 		movl	$0, -56(%ebp)
 2209      000000
 2210 121a C745CC00 		movl	$0, -52(%ebp)
 2210      000000
 852:src/pdf417/PDFDecodedBitStreamParser.c **** 						codeIndex = DecodeMacroOptionalNumericField(status, codewords, codeIndex + 1, checksum);
GAS LISTING C:\Users\jisu8\AppData\Local\Temp\ccM43flq.s 			page 62


 2211              		.loc 1 852 19
 2212 1221 8B450C   		movl	12(%ebp), %eax
 2213 1224 8D4801   		leal	1(%eax), %ecx
 2214 1227 8B45C8   		movl	-56(%ebp), %eax
 2215 122a 8B55CC   		movl	-52(%ebp), %edx
 2216 122d 8944240C 		movl	%eax, 12(%esp)
 2217 1231 89542410 		movl	%edx, 16(%esp)
 2218 1235 894C2408 		movl	%ecx, 8(%esp)
 2219 1239 8B4508   		movl	8(%ebp), %eax
 2220 123c 89442404 		movl	%eax, 4(%esp)
 2221 1240 8B45F0   		movl	-16(%ebp), %eax
 2222 1243 890424   		movl	%eax, (%esp)
 2223 1246 E8ADFBFF 		call	_DecodeMacroOptionalNumericField
 2223      FF
 2224 124b 89450C   		movl	%eax, 12(%ebp)
 853:src/pdf417/PDFDecodedBitStreamParser.c **** 						resultMetadata->_checksum = (checksum);
 2225              		.loc 1 853 33
 2226 124e 8B55C8   		movl	-56(%ebp), %edx
 2227 1251 8B4510   		movl	16(%ebp), %eax
 2228 1254 895030   		movl	%edx, 48(%eax)
 854:src/pdf417/PDFDecodedBitStreamParser.c **** 						break;
 2229              		.loc 1 854 7
 2230 1257 EB54     		jmp	L147
 2231              	L141:
 2232              	LBE21:
 2233              	LBB22:
 855:src/pdf417/PDFDecodedBitStreamParser.c **** 					}
 856:src/pdf417/PDFDecodedBitStreamParser.c **** 
 857:src/pdf417/PDFDecodedBitStreamParser.c **** 					case MACRO_PDF417_OPTIONAL_FIELD_FILE_SIZE: 
 858:src/pdf417/PDFDecodedBitStreamParser.c **** 					{
 859:src/pdf417/PDFDecodedBitStreamParser.c **** 						uint64_t fileSize = 0;;
 2234              		.loc 1 859 16
 2235 1259 C745C000 		movl	$0, -64(%ebp)
 2235      000000
 2236 1260 C745C400 		movl	$0, -60(%ebp)
 2236      000000
 860:src/pdf417/PDFDecodedBitStreamParser.c **** 						codeIndex = DecodeMacroOptionalNumericField(status, codewords, codeIndex + 1, fileSize);
 2237              		.loc 1 860 19
 2238 1267 8B450C   		movl	12(%ebp), %eax
 2239 126a 8D4801   		leal	1(%eax), %ecx
 2240 126d 8B45C0   		movl	-64(%ebp), %eax
 2241 1270 8B55C4   		movl	-60(%ebp), %edx
 2242 1273 8944240C 		movl	%eax, 12(%esp)
 2243 1277 89542410 		movl	%edx, 16(%esp)
 2244 127b 894C2408 		movl	%ecx, 8(%esp)
 2245 127f 8B4508   		movl	8(%ebp), %eax
 2246 1282 89442404 		movl	%eax, 4(%esp)
 2247 1286 8B45F0   		movl	-16(%ebp), %eax
 2248 1289 890424   		movl	%eax, (%esp)
 2249 128c E867FBFF 		call	_DecodeMacroOptionalNumericField
 2249      FF
 2250 1291 89450C   		movl	%eax, 12(%ebp)
 861:src/pdf417/PDFDecodedBitStreamParser.c **** 						resultMetadata->_fileSize = (fileSize);
 2251              		.loc 1 861 33
 2252 1294 8B45C0   		movl	-64(%ebp), %eax
 2253 1297 8B55C4   		movl	-60(%ebp), %edx
 2254 129a 8B4D10   		movl	16(%ebp), %ecx
GAS LISTING C:\Users\jisu8\AppData\Local\Temp\ccM43flq.s 			page 63


 2255 129d 894120   		movl	%eax, 32(%ecx)
 2256 12a0 895124   		movl	%edx, 36(%ecx)
 862:src/pdf417/PDFDecodedBitStreamParser.c **** 						break;
 2257              		.loc 1 862 7
 2258 12a3 EB08     		jmp	L147
 2259              	L138:
 2260              	LBE22:
 863:src/pdf417/PDFDecodedBitStreamParser.c **** 					}
 864:src/pdf417/PDFDecodedBitStreamParser.c **** 
 865:src/pdf417/PDFDecodedBitStreamParser.c **** 					default: 
 866:src/pdf417/PDFDecodedBitStreamParser.c **** 					{
 867:src/pdf417/PDFDecodedBitStreamParser.c **** 						status = FormatError;
 2261              		.loc 1 867 14
 2262 12a5 C745F002 		movl	$2, -16(%ebp)
 2262      000000
 868:src/pdf417/PDFDecodedBitStreamParser.c **** 						break;
 2263              		.loc 1 868 7
 2264 12ac 90       		nop
 2265              	L147:
 869:src/pdf417/PDFDecodedBitStreamParser.c **** 					}
 870:src/pdf417/PDFDecodedBitStreamParser.c **** 				}
 871:src/pdf417/PDFDecodedBitStreamParser.c **** 
 872:src/pdf417/PDFDecodedBitStreamParser.c **** 				break;
 2266              		.loc 1 872 5
 2267 12ad EB17     		jmp	L137
 2268              	L134:
 873:src/pdf417/PDFDecodedBitStreamParser.c **** 			}
 874:src/pdf417/PDFDecodedBitStreamParser.c **** 
 875:src/pdf417/PDFDecodedBitStreamParser.c **** 			case MACRO_PDF417_TERMINATOR: 
 876:src/pdf417/PDFDecodedBitStreamParser.c **** 			{
 877:src/pdf417/PDFDecodedBitStreamParser.c **** 				codeIndex++;
 2269              		.loc 1 877 14
 2270 12af 83450C01 		addl	$1, 12(%ebp)
 878:src/pdf417/PDFDecodedBitStreamParser.c **** 				resultMetadata->_lastSegment = 1;
 2271              		.loc 1 878 34
 2272 12b3 8B4510   		movl	16(%ebp), %eax
 2273 12b6 C6400C01 		movb	$1, 12(%eax)
 879:src/pdf417/PDFDecodedBitStreamParser.c **** 				break;
 2274              		.loc 1 879 5
 2275 12ba EB0A     		jmp	L137
 2276              	L135:
 880:src/pdf417/PDFDecodedBitStreamParser.c **** 			}
 881:src/pdf417/PDFDecodedBitStreamParser.c **** 
 882:src/pdf417/PDFDecodedBitStreamParser.c **** 			default: 
 883:src/pdf417/PDFDecodedBitStreamParser.c **** 			{
 884:src/pdf417/PDFDecodedBitStreamParser.c **** 				status = FormatError;
 2277              		.loc 1 884 12
 2278 12bc C745F002 		movl	$2, -16(%ebp)
 2278      000000
 885:src/pdf417/PDFDecodedBitStreamParser.c **** 				break;
 2279              		.loc 1 885 5
 2280 12c3 EB01     		jmp	L137
 2281              	L152:
 805:src/pdf417/PDFDecodedBitStreamParser.c **** 				}
 2282              		.loc 1 805 6
 2283 12c5 90       		nop
 2284              	L137:
GAS LISTING C:\Users\jisu8\AppData\Local\Temp\ccM43flq.s 			page 64


 886:src/pdf417/PDFDecodedBitStreamParser.c **** 			}
 887:src/pdf417/PDFDecodedBitStreamParser.c **** 		}
 888:src/pdf417/PDFDecodedBitStreamParser.c **** 
 889:src/pdf417/PDFDecodedBitStreamParser.c **** 		if (StatusIsError(status)) 
 2285              		.loc 1 889 6
 2286 12c6 837DF000 		cmpl	$0, -16(%ebp)
 2287 12ca 7405     		je	L133
 890:src/pdf417/PDFDecodedBitStreamParser.c **** 		{
 891:src/pdf417/PDFDecodedBitStreamParser.c **** 			return status;
 2288              		.loc 1 891 11
 2289 12cc 8B45F0   		movl	-16(%ebp), %eax
 2290 12cf EB4C     		jmp	L128
 2291              	L133:
 796:src/pdf417/PDFDecodedBitStreamParser.c **** 	{
 2292              		.loc 1 796 30
 2293 12d1 8B4508   		movl	8(%ebp), %eax
 2294 12d4 8B00     		movl	(%eax), %eax
 796:src/pdf417/PDFDecodedBitStreamParser.c **** 	{
 2295              		.loc 1 796 8
 2296 12d6 39450C   		cmpl	%eax, 12(%ebp)
 2297 12d9 0F8C53FD 		jl	L148
 2297      FFFF
 892:src/pdf417/PDFDecodedBitStreamParser.c **** 		}
 893:src/pdf417/PDFDecodedBitStreamParser.c **** 	}
 894:src/pdf417/PDFDecodedBitStreamParser.c **** 
 895:src/pdf417/PDFDecodedBitStreamParser.c **** 	// copy optional fields to additional options
 896:src/pdf417/PDFDecodedBitStreamParser.c **** 	if (optionalFieldsStart != -1) {
 2298              		.loc 1 896 5
 2299 12df 837DECFF 		cmpl	$-1, -20(%ebp)
 2300 12e3 742D     		je	L149
 2301              	LBB23:
 897:src/pdf417/PDFDecodedBitStreamParser.c **** 		int optionalFieldsLength = codeIndex - optionalFieldsStart;
 2302              		.loc 1 897 7
 2303 12e5 8B450C   		movl	12(%ebp), %eax
 2304 12e8 2B45EC   		subl	-20(%ebp), %eax
 2305 12eb 8945BC   		movl	%eax, -68(%ebp)
 898:src/pdf417/PDFDecodedBitStreamParser.c **** 		if (resultMetadata->_lastSegment) 
 2306              		.loc 1 898 21
 2307 12ee 8B4510   		movl	16(%ebp), %eax
 2308 12f1 0FB6400C 		movzbl	12(%eax), %eax
 2309              		.loc 1 898 6
 2310 12f5 84C0     		testb	%al, %al
 2311 12f7 7404     		je	L150
 899:src/pdf417/PDFDecodedBitStreamParser.c **** 		{
 900:src/pdf417/PDFDecodedBitStreamParser.c **** 			// do not include terminator
 901:src/pdf417/PDFDecodedBitStreamParser.c **** 			optionalFieldsLength--;
 2312              		.loc 1 901 24
 2313 12f9 836DBC01 		subl	$1, -68(%ebp)
 2314              	L150:
 902:src/pdf417/PDFDecodedBitStreamParser.c **** 		}
 903:src/pdf417/PDFDecodedBitStreamParser.c **** 		resultMetadata->_optionalData = codewords + optionalFieldsStart;
 2315              		.loc 1 903 45
 2316 12fd 8B45EC   		movl	-20(%ebp), %eax
 2317 1300 8D148500 		leal	0(,%eax,4), %edx
 2317      000000
 2318 1307 8B4508   		movl	8(%ebp), %eax
 2319 130a 01C2     		addl	%eax, %edx
GAS LISTING C:\Users\jisu8\AppData\Local\Temp\ccM43flq.s 			page 65


 2320              		.loc 1 903 33
 2321 130c 8B4510   		movl	16(%ebp), %eax
 2322 130f 895008   		movl	%edx, 8(%eax)
 2323              	L149:
 2324              	LBE23:
 904:src/pdf417/PDFDecodedBitStreamParser.c **** 	}
 905:src/pdf417/PDFDecodedBitStreamParser.c **** 
 906:src/pdf417/PDFDecodedBitStreamParser.c **** 	next = codeIndex;
 2325              		.loc 1 906 7
 2326 1312 8B450C   		movl	12(%ebp), %eax
 2327 1315 894514   		movl	%eax, 20(%ebp)
 907:src/pdf417/PDFDecodedBitStreamParser.c **** 	return NoError;
 2328              		.loc 1 907 9
 2329 1318 B8000000 		movl	$0, %eax
 2329      00
 2330              	L128:
 2331 131d 89DC     		movl	%ebx, %esp
 908:src/pdf417/PDFDecodedBitStreamParser.c **** }
 2332              		.loc 1 908 1
 2333 131f 8D65F8   		leal	-8(%ebp), %esp
 2334 1322 5B       		popl	%ebx
 2335              		.cfi_restore 3
 2336 1323 5F       		popl	%edi
 2337              		.cfi_restore 7
 2338 1324 5D       		popl	%ebp
 2339              	LCFI35:
 2340              		.cfi_restore 5
 2341              		.cfi_def_cfa 4, 4
 2342 1325 C3       		ret
 2343              		.cfi_endproc
 2344              	LFE29:
 2346              	_DecoderResultExtra_init:
 2347              	LFB30:
 909:src/pdf417/PDFDecodedBitStreamParser.c **** 
 910:src/pdf417/PDFDecodedBitStreamParser.c **** static void DecoderResultExtra_init(DecoderResultExtra_t * result)
 911:src/pdf417/PDFDecodedBitStreamParser.c **** {
 2348              		.loc 1 911 1
 2349              		.cfi_startproc
 2350 1326 55       		pushl	%ebp
 2351              	LCFI36:
 2352              		.cfi_def_cfa_offset 8
 2353              		.cfi_offset 5, -8
 2354 1327 89E5     		movl	%esp, %ebp
 2355              	LCFI37:
 2356              		.cfi_def_cfa_register 5
 912:src/pdf417/PDFDecodedBitStreamParser.c **** 	result->_segmentIndex = -1;
 2357              		.loc 1 912 24
 2358 1329 8B4508   		movl	8(%ebp), %eax
 2359 132c C700FFFF 		movl	$-1, (%eax)
 2359      FFFF
 913:src/pdf417/PDFDecodedBitStreamParser.c **** 	result->_fileId = NULL;
 2360              		.loc 1 913 18
 2361 1332 8B4508   		movl	8(%ebp), %eax
 2362 1335 C7400400 		movl	$0, 4(%eax)
 2362      000000
 914:src/pdf417/PDFDecodedBitStreamParser.c **** 	result->_optionalData = NULL;
 2363              		.loc 1 914 24
GAS LISTING C:\Users\jisu8\AppData\Local\Temp\ccM43flq.s 			page 66


 2364 133c 8B4508   		movl	8(%ebp), %eax
 2365 133f C7400800 		movl	$0, 8(%eax)
 2365      000000
 915:src/pdf417/PDFDecodedBitStreamParser.c **** 	result->_lastSegment = 0;
 2366              		.loc 1 915 23
 2367 1346 8B4508   		movl	8(%ebp), %eax
 2368 1349 C6400C00 		movb	$0, 12(%eax)
 916:src/pdf417/PDFDecodedBitStreamParser.c **** 	result->_segmentCount = -1;
 2369              		.loc 1 916 24
 2370 134d 8B4508   		movl	8(%ebp), %eax
 2371 1350 C74010FF 		movl	$-1, 16(%eax)
 2371      FFFFFF
 917:src/pdf417/PDFDecodedBitStreamParser.c **** 	result->_sender = NULL;
 2372              		.loc 1 917 18
 2373 1357 8B4508   		movl	8(%ebp), %eax
 2374 135a C7401400 		movl	$0, 20(%eax)
 2374      000000
 918:src/pdf417/PDFDecodedBitStreamParser.c **** 	result->_addressee = NULL;
 2375              		.loc 1 918 21
 2376 1361 8B4508   		movl	8(%ebp), %eax
 2377 1364 C7401800 		movl	$0, 24(%eax)
 2377      000000
 919:src/pdf417/PDFDecodedBitStreamParser.c **** 	result->_fileName = NULL;
 2378              		.loc 1 919 20
 2379 136b 8B4508   		movl	8(%ebp), %eax
 2380 136e C7401C00 		movl	$0, 28(%eax)
 2380      000000
 920:src/pdf417/PDFDecodedBitStreamParser.c **** 	result->_fileSize = -1;
 2381              		.loc 1 920 20
 2382 1375 8B4508   		movl	8(%ebp), %eax
 2383 1378 C74020FF 		movl	$-1, 32(%eax)
 2383      FFFFFF
 2384 137f C74024FF 		movl	$-1, 36(%eax)
 2384      FFFFFF
 921:src/pdf417/PDFDecodedBitStreamParser.c **** 	result->_timestamp = -1;
 2385              		.loc 1 921 21
 2386 1386 8B4508   		movl	8(%ebp), %eax
 2387 1389 C74028FF 		movl	$-1, 40(%eax)
 2387      FFFFFF
 2388 1390 C7402CFF 		movl	$-1, 44(%eax)
 2388      FFFFFF
 922:src/pdf417/PDFDecodedBitStreamParser.c **** 	result->_checksum = -1;
 2389              		.loc 1 922 20
 2390 1397 8B4508   		movl	8(%ebp), %eax
 2391 139a C74030FF 		movl	$-1, 48(%eax)
 2391      FFFFFF
 923:src/pdf417/PDFDecodedBitStreamParser.c **** }
 2392              		.loc 1 923 1
 2393 13a1 90       		nop
 2394 13a2 5D       		popl	%ebp
 2395              	LCFI38:
 2396              		.cfi_restore 5
 2397              		.cfi_def_cfa 4, 4
 2398 13a3 C3       		ret
 2399              		.cfi_endproc
 2400              	LFE30:
 2402              	_StructuredAppendInfo_Init:
GAS LISTING C:\Users\jisu8\AppData\Local\Temp\ccM43flq.s 			page 67


 2403              	LFB31:
 924:src/pdf417/PDFDecodedBitStreamParser.c **** static void StructuredAppendInfo_Init(StructuredAppendInfo_t * sai)
 925:src/pdf417/PDFDecodedBitStreamParser.c **** {
 2404              		.loc 1 925 1
 2405              		.cfi_startproc
 2406 13a4 55       		pushl	%ebp
 2407              	LCFI39:
 2408              		.cfi_def_cfa_offset 8
 2409              		.cfi_offset 5, -8
 2410 13a5 89E5     		movl	%esp, %ebp
 2411              	LCFI40:
 2412              		.cfi_def_cfa_register 5
 926:src/pdf417/PDFDecodedBitStreamParser.c **** 	sai->index = -1;
 2413              		.loc 1 926 13
 2414 13a7 8B4508   		movl	8(%ebp), %eax
 2415 13aa C700FFFF 		movl	$-1, (%eax)
 2415      FFFF
 927:src/pdf417/PDFDecodedBitStreamParser.c **** 	sai->count = -1;
 2416              		.loc 1 927 13
 2417 13b0 8B4508   		movl	8(%ebp), %eax
 2418 13b3 C74004FF 		movl	$-1, 4(%eax)
 2418      FFFFFF
 928:src/pdf417/PDFDecodedBitStreamParser.c **** 	sai->id = NULL;
 2419              		.loc 1 928 10
 2420 13ba 8B4508   		movl	8(%ebp), %eax
 2421 13bd C7400800 		movl	$0, 8(%eax)
 2421      000000
 929:src/pdf417/PDFDecodedBitStreamParser.c **** }
 2422              		.loc 1 929 1
 2423 13c4 90       		nop
 2424 13c5 5D       		popl	%ebp
 2425              	LCFI41:
 2426              		.cfi_restore 5
 2427              		.cfi_def_cfa 4, 4
 2428 13c6 C3       		ret
 2429              		.cfi_endproc
 2430              	LFE31:
 2431              		.globl	_BitStreamDecode
 2433              	_BitStreamDecode:
 2434              	LFB32:
 930:src/pdf417/PDFDecodedBitStreamParser.c **** 
 931:src/pdf417/PDFDecodedBitStreamParser.c **** void BitStreamDecode(DecoderResult_t * DecoderResult, const int * codewords, int ecLevel, const uns
 932:src/pdf417/PDFDecodedBitStreamParser.c **** {
 2435              		.loc 1 932 1
 2436              		.cfi_startproc
 2437 13c7 55       		pushl	%ebp
 2438              	LCFI42:
 2439              		.cfi_def_cfa_offset 8
 2440              		.cfi_offset 5, -8
 2441 13c8 89E5     		movl	%esp, %ebp
 2442              	LCFI43:
 2443              		.cfi_def_cfa_register 5
 2444 13ca 57       		pushl	%edi
 2445 13cb 53       		pushl	%ebx
 2446 13cc 81EC5001 		subl	$336, %esp
 2446      0000
 2447              		.cfi_offset 7, -12
GAS LISTING C:\Users\jisu8\AppData\Local\Temp\ccM43flq.s 			page 68


 2448              		.cfi_offset 3, -16
 933:src/pdf417/PDFDecodedBitStreamParser.c **** 	unsigned char resultEncoded[100] = {0,};
 2449              		.loc 1 933 16
 2450 13d2 8D5584   		leal	-124(%ebp), %edx
 2451 13d5 B8000000 		movl	$0, %eax
 2451      00
 2452 13da B9190000 		movl	$25, %ecx
 2452      00
 2453 13df 89D7     		movl	%edx, %edi
 2454 13e1 F3AB     		rep stosl
 934:src/pdf417/PDFDecodedBitStreamParser.c **** 	unsigned char result[100] = {0,};
 2455              		.loc 1 934 16
 2456 13e3 8D9520FF 		leal	-224(%ebp), %edx
 2456      FFFF
 2457 13e9 B8000000 		movl	$0, %eax
 2457      00
 2458 13ee B9190000 		movl	$25, %ecx
 2458      00
 2459 13f3 89D7     		movl	%edx, %edi
 2460 13f5 F3AB     		rep stosl
 935:src/pdf417/PDFDecodedBitStreamParser.c **** 	CharacterSet_t encoding = ISO8859_1; //= CharacterSetECI::InitEncoding(characterSet);
 2461              		.loc 1 935 17
 2462 13f7 C7851CFF 		movl	$2, -228(%ebp)
 2462      FFFF0200 
 2462      0000
 936:src/pdf417/PDFDecodedBitStreamParser.c **** 	uint8_t readerInit = 0;
 2463              		.loc 1 936 10
 2464 1401 C645F700 		movb	$0, -9(%ebp)
 937:src/pdf417/PDFDecodedBitStreamParser.c **** 	DecoderResultExtra_t resultMetadata;
 938:src/pdf417/PDFDecodedBitStreamParser.c **** 	DecoderResultExtra_init(&resultMetadata);
 2465              		.loc 1 938 2
 2466 1405 8D85E0FE 		leal	-288(%ebp), %eax
 2466      FFFF
 2467 140b 890424   		movl	%eax, (%esp)
 2468 140e E813FFFF 		call	_DecoderResultExtra_init
 2468      FF
 939:src/pdf417/PDFDecodedBitStreamParser.c **** 	int codeIndex = 1;
 2469              		.loc 1 939 6
 2470 1413 C745F001 		movl	$1, -16(%ebp)
 2470      000000
 940:src/pdf417/PDFDecodedBitStreamParser.c **** 	DecodeStatus_t status = NoError;
 2471              		.loc 1 940 17
 2472 141a C745EC00 		movl	$0, -20(%ebp)
 2472      000000
 941:src/pdf417/PDFDecodedBitStreamParser.c **** 
 942:src/pdf417/PDFDecodedBitStreamParser.c **** 	while (codeIndex < codewords[0] && status == NoError) 
 2473              		.loc 1 942 8
 2474 1421 E9210200 		jmp	L156
 2474      00
 2475              	L175:
 2476              	LBB24:
 943:src/pdf417/PDFDecodedBitStreamParser.c **** 	{
 944:src/pdf417/PDFDecodedBitStreamParser.c **** 		int code = codewords[codeIndex++];
 2477              		.loc 1 944 33
 2478 1426 8B45F0   		movl	-16(%ebp), %eax
 2479 1429 8D5001   		leal	1(%eax), %edx
 2480 142c 8955F0   		movl	%edx, -16(%ebp)
GAS LISTING C:\Users\jisu8\AppData\Local\Temp\ccM43flq.s 			page 69


 2481              		.loc 1 944 23
 2482 142f 8D148500 		leal	0(,%eax,4), %edx
 2482      000000
 2483 1436 8B450C   		movl	12(%ebp), %eax
 2484 1439 01D0     		addl	%edx, %eax
 2485              		.loc 1 944 7
 2486 143b 8B00     		movl	(%eax), %eax
 2487 143d 8945E8   		movl	%eax, -24(%ebp)
 945:src/pdf417/PDFDecodedBitStreamParser.c **** 		switch (code) 
 2488              		.loc 1 945 3
 2489 1440 8B45E8   		movl	-24(%ebp), %eax
 2490 1443 2D840300 		subl	$900, %eax
 2490      00
 2491 1448 83F81C   		cmpl	$28, %eax
 2492 144b 0F87A901 		ja	L157
 2492      0000
 2493 1451 8B04855C 		movl	L159(,%eax,4), %eax
 2493      010000
 2494 1458 FFE0     		jmp	*%eax
 2495              		.section .rdata,"dr"
 2496              		.align 4
 2497              	L159:
 2498 015c 5A140000 		.long	L168
 2499 0160 D5140000 		.long	L161
 2500 0164 18150000 		.long	L167
 2501 0168 FA150000 		.long	L157
 2502 016c FA150000 		.long	L157
 2503 0170 FA150000 		.long	L157
 2504 0174 FA150000 		.long	L157
 2505 0178 FA150000 		.long	L157
 2506 017c FA150000 		.long	L157
 2507 0180 FA150000 		.long	L157
 2508 0184 FA150000 		.long	L157
 2509 0188 FA150000 		.long	L157
 2510 018c FA150000 		.long	L157
 2511 0190 96140000 		.long	L166
 2512 0194 FA150000 		.long	L157
 2513 0198 FA150000 		.long	L157
 2514 019c FA150000 		.long	L157
 2515 01a0 FA150000 		.long	L157
 2516 01a4 F1150000 		.long	L165
 2517 01a8 FA150000 		.long	L157
 2518 01ac E2150000 		.long	L164
 2519 01b0 CD150000 		.long	L163
 2520 01b4 C4150000 		.long	L162
 2521 01b8 C4150000 		.long	L162
 2522 01bc D5140000 		.long	L161
 2523 01c0 54150000 		.long	L160
 2524 01c4 54150000 		.long	L160
 2525 01c8 54150000 		.long	L160
 2526 01cc 99150000 		.long	L158
 2527              		.text
 2528              	L168:
 946:src/pdf417/PDFDecodedBitStreamParser.c **** 		{
 947:src/pdf417/PDFDecodedBitStreamParser.c **** 			case TEXT_COMPACTION_MODE_LATCH:
 948:src/pdf417/PDFDecodedBitStreamParser.c **** 				codeIndex = TextCompaction(status, codewords, codeIndex, resultEncoded, result, &encoding);
 2529              		.loc 1 948 17
GAS LISTING C:\Users\jisu8\AppData\Local\Temp\ccM43flq.s 			page 70


 2530 145a 8D851CFF 		leal	-228(%ebp), %eax
 2530      FFFF
 2531 1460 89442414 		movl	%eax, 20(%esp)
 2532 1464 8D8520FF 		leal	-224(%ebp), %eax
 2532      FFFF
 2533 146a 89442410 		movl	%eax, 16(%esp)
 2534 146e 8D4584   		leal	-124(%ebp), %eax
 2535 1471 8944240C 		movl	%eax, 12(%esp)
 2536 1475 8B45F0   		movl	-16(%ebp), %eax
 2537 1478 89442408 		movl	%eax, 8(%esp)
 2538 147c 8B450C   		movl	12(%ebp), %eax
 2539 147f 89442404 		movl	%eax, 4(%esp)
 2540 1483 8B45EC   		movl	-20(%ebp), %eax
 2541 1486 890424   		movl	%eax, (%esp)
 2542 1489 E809F0FF 		call	_TextCompaction
 2542      FF
 2543 148e 8945F0   		movl	%eax, -16(%ebp)
 949:src/pdf417/PDFDecodedBitStreamParser.c **** 			break;
 2544              		.loc 1 949 4
 2545 1491 E9B10100 		jmp	L156
 2545      00
 2546              	L166:
 950:src/pdf417/PDFDecodedBitStreamParser.c **** 			case MODE_SHIFT_TO_BYTE_COMPACTION_MODE:
 951:src/pdf417/PDFDecodedBitStreamParser.c **** 				// This should only be encountered once in this loop, when default Text Compaction mode applies
 952:src/pdf417/PDFDecodedBitStreamParser.c **** 				// (see default case below)
 953:src/pdf417/PDFDecodedBitStreamParser.c **** 				codeIndex = TextCompaction(status, codewords, codeIndex - 1, resultEncoded, result, &encoding);
 2547              		.loc 1 953 17
 2548 1496 8B45F0   		movl	-16(%ebp), %eax
 2549 1499 8D50FF   		leal	-1(%eax), %edx
 2550 149c 8D851CFF 		leal	-228(%ebp), %eax
 2550      FFFF
 2551 14a2 89442414 		movl	%eax, 20(%esp)
 2552 14a6 8D8520FF 		leal	-224(%ebp), %eax
 2552      FFFF
 2553 14ac 89442410 		movl	%eax, 16(%esp)
 2554 14b0 8D4584   		leal	-124(%ebp), %eax
 2555 14b3 8944240C 		movl	%eax, 12(%esp)
 2556 14b7 89542408 		movl	%edx, 8(%esp)
 2557 14bb 8B450C   		movl	12(%ebp), %eax
 2558 14be 89442404 		movl	%eax, 4(%esp)
 2559 14c2 8B45EC   		movl	-20(%ebp), %eax
 2560 14c5 890424   		movl	%eax, (%esp)
 2561 14c8 E8CAEFFF 		call	_TextCompaction
 2561      FF
 2562 14cd 8945F0   		movl	%eax, -16(%ebp)
 954:src/pdf417/PDFDecodedBitStreamParser.c **** 			break;
 2563              		.loc 1 954 4
 2564 14d0 E9720100 		jmp	L156
 2564      00
 2565              	L161:
 955:src/pdf417/PDFDecodedBitStreamParser.c **** 			case BYTE_COMPACTION_MODE_LATCH:
 956:src/pdf417/PDFDecodedBitStreamParser.c **** 			case BYTE_COMPACTION_MODE_LATCH_6:
 957:src/pdf417/PDFDecodedBitStreamParser.c **** 				codeIndex = ByteCompaction(status, code, codewords, codeIndex, resultEncoded, result, &encoding
 2566              		.loc 1 957 17
 2567 14d5 8D851CFF 		leal	-228(%ebp), %eax
 2567      FFFF
 2568 14db 89442418 		movl	%eax, 24(%esp)
GAS LISTING C:\Users\jisu8\AppData\Local\Temp\ccM43flq.s 			page 71


 2569 14df 8D8520FF 		leal	-224(%ebp), %eax
 2569      FFFF
 2570 14e5 89442414 		movl	%eax, 20(%esp)
 2571 14e9 8D4584   		leal	-124(%ebp), %eax
 2572 14ec 89442410 		movl	%eax, 16(%esp)
 2573 14f0 8B45F0   		movl	-16(%ebp), %eax
 2574 14f3 8944240C 		movl	%eax, 12(%esp)
 2575 14f7 8B450C   		movl	12(%ebp), %eax
 2576 14fa 89442408 		movl	%eax, 8(%esp)
 2577 14fe 8B45E8   		movl	-24(%ebp), %eax
 2578 1501 89442404 		movl	%eax, 4(%esp)
 2579 1505 8B45EC   		movl	-20(%ebp), %eax
 2580 1508 890424   		movl	%eax, (%esp)
 2581 150b E86EF4FF 		call	_ByteCompaction
 2581      FF
 2582 1510 8945F0   		movl	%eax, -16(%ebp)
 958:src/pdf417/PDFDecodedBitStreamParser.c **** 			break;
 2583              		.loc 1 958 4
 2584 1513 E92F0100 		jmp	L156
 2584      00
 2585              	L167:
 959:src/pdf417/PDFDecodedBitStreamParser.c **** 			case NUMERIC_COMPACTION_MODE_LATCH:
 960:src/pdf417/PDFDecodedBitStreamParser.c **** 				codeIndex = NumericCompaction(status, codewords, codeIndex, resultEncoded, result, &encoding);
 2586              		.loc 1 960 17
 2587 1518 8D851CFF 		leal	-228(%ebp), %eax
 2587      FFFF
 2588 151e 89442414 		movl	%eax, 20(%esp)
 2589 1522 8D8520FF 		leal	-224(%ebp), %eax
 2589      FFFF
 2590 1528 89442410 		movl	%eax, 16(%esp)
 2591 152c 8D4584   		leal	-124(%ebp), %eax
 2592 152f 8944240C 		movl	%eax, 12(%esp)
 2593 1533 8B45F0   		movl	-16(%ebp), %eax
 2594 1536 89442408 		movl	%eax, 8(%esp)
 2595 153a 8B450C   		movl	12(%ebp), %eax
 2596 153d 89442404 		movl	%eax, 4(%esp)
 2597 1541 8B45EC   		movl	-20(%ebp), %eax
 2598 1544 890424   		movl	%eax, (%esp)
 2599 1547 E8FDF5FF 		call	_NumericCompaction
 2599      FF
 2600 154c 8945F0   		movl	%eax, -16(%ebp)
 961:src/pdf417/PDFDecodedBitStreamParser.c **** 			break;
 2601              		.loc 1 961 4
 2602 154f E9F30000 		jmp	L156
 2602      00
 2603              	L160:
 962:src/pdf417/PDFDecodedBitStreamParser.c **** 			case ECI_CHARSET:
 963:src/pdf417/PDFDecodedBitStreamParser.c **** 			case ECI_GENERAL_PURPOSE:
 964:src/pdf417/PDFDecodedBitStreamParser.c **** 			case ECI_USER_DEFINED:
 965:src/pdf417/PDFDecodedBitStreamParser.c **** 				codeIndex = ProcessECI(codewords, codeIndex, codewords[0], code, resultEncoded, result, &encodi
 2604              		.loc 1 965 17
 2605 1554 8B450C   		movl	12(%ebp), %eax
 2606 1557 8B00     		movl	(%eax), %eax
 2607 1559 8D951CFF 		leal	-228(%ebp), %edx
 2607      FFFF
 2608 155f 89542418 		movl	%edx, 24(%esp)
 2609 1563 8D9520FF 		leal	-224(%ebp), %edx
GAS LISTING C:\Users\jisu8\AppData\Local\Temp\ccM43flq.s 			page 72


 2609      FFFF
 2610 1569 89542414 		movl	%edx, 20(%esp)
 2611 156d 8D5584   		leal	-124(%ebp), %edx
 2612 1570 89542410 		movl	%edx, 16(%esp)
 2613 1574 8B55E8   		movl	-24(%ebp), %edx
 2614 1577 8954240C 		movl	%edx, 12(%esp)
 2615 157b 89442408 		movl	%eax, 8(%esp)
 2616 157f 8B45F0   		movl	-16(%ebp), %eax
 2617 1582 89442404 		movl	%eax, 4(%esp)
 2618 1586 8B450C   		movl	12(%ebp), %eax
 2619 1589 890424   		movl	%eax, (%esp)
 2620 158c E896EAFF 		call	_ProcessECI
 2620      FF
 2621 1591 8945F0   		movl	%eax, -16(%ebp)
 966:src/pdf417/PDFDecodedBitStreamParser.c **** 			break;
 2622              		.loc 1 966 4
 2623 1594 E9AE0000 		jmp	L156
 2623      00
 2624              	L158:
 967:src/pdf417/PDFDecodedBitStreamParser.c **** 			case BEGIN_MACRO_PDF417_CONTROL_BLOCK:
 968:src/pdf417/PDFDecodedBitStreamParser.c **** 				status = DecodeMacroBlock(codewords, codeIndex, &resultMetadata, codeIndex);
 2625              		.loc 1 968 14
 2626 1599 8B45F0   		movl	-16(%ebp), %eax
 2627 159c 8944240C 		movl	%eax, 12(%esp)
 2628 15a0 8D85E0FE 		leal	-288(%ebp), %eax
 2628      FFFF
 2629 15a6 89442408 		movl	%eax, 8(%esp)
 2630 15aa 8B45F0   		movl	-16(%ebp), %eax
 2631 15ad 89442404 		movl	%eax, 4(%esp)
 2632 15b1 8B450C   		movl	12(%ebp), %eax
 2633 15b4 890424   		movl	%eax, (%esp)
 2634 15b7 E811F9FF 		call	_DecodeMacroBlock
 2634      FF
 2635 15bc 8945EC   		movl	%eax, -20(%ebp)
 969:src/pdf417/PDFDecodedBitStreamParser.c **** 			break;
 2636              		.loc 1 969 4
 2637 15bf E9830000 		jmp	L156
 2637      00
 2638              	L162:
 970:src/pdf417/PDFDecodedBitStreamParser.c **** 			case BEGIN_MACRO_PDF417_OPTIONAL_FIELD:
 971:src/pdf417/PDFDecodedBitStreamParser.c **** 			case MACRO_PDF417_TERMINATOR:
 972:src/pdf417/PDFDecodedBitStreamParser.c **** 				// Should not see these outside a macro block
 973:src/pdf417/PDFDecodedBitStreamParser.c **** 				status = FormatError;
 2639              		.loc 1 973 12
 2640 15c4 C745EC02 		movl	$2, -20(%ebp)
 2640      000000
 974:src/pdf417/PDFDecodedBitStreamParser.c **** 			break;
 2641              		.loc 1 974 4
 2642 15cb EB7A     		jmp	L156
 2643              	L163:
 975:src/pdf417/PDFDecodedBitStreamParser.c **** 			case READER_INIT:
 976:src/pdf417/PDFDecodedBitStreamParser.c **** 				if (codeIndex != 2) 
 2644              		.loc 1 976 8
 2645 15cd 837DF002 		cmpl	$2, -16(%ebp)
 2646 15d1 7409     		je	L169
 977:src/pdf417/PDFDecodedBitStreamParser.c **** 				{ // Must be first codeword after symbol length (ISO/IEC 15438:2015 5.4.1.4)
 978:src/pdf417/PDFDecodedBitStreamParser.c **** 					status = FormatError;
GAS LISTING C:\Users\jisu8\AppData\Local\Temp\ccM43flq.s 			page 73


 2647              		.loc 1 978 13
 2648 15d3 C745EC02 		movl	$2, -20(%ebp)
 2648      000000
 2649 15da EB6B     		jmp	L156
 2650              	L169:
 979:src/pdf417/PDFDecodedBitStreamParser.c **** 				}
 980:src/pdf417/PDFDecodedBitStreamParser.c **** 				else 
 981:src/pdf417/PDFDecodedBitStreamParser.c **** 				{
 982:src/pdf417/PDFDecodedBitStreamParser.c **** 					readerInit = 1;
 2651              		.loc 1 982 17
 2652 15dc C645F701 		movb	$1, -9(%ebp)
 983:src/pdf417/PDFDecodedBitStreamParser.c **** 				}
 984:src/pdf417/PDFDecodedBitStreamParser.c **** 			break;
 2653              		.loc 1 984 4
 2654 15e0 EB65     		jmp	L156
 2655              	L164:
 985:src/pdf417/PDFDecodedBitStreamParser.c **** 			case LINKAGE_EANUCC:
 986:src/pdf417/PDFDecodedBitStreamParser.c **** 				if (codeIndex != 2) 
 2656              		.loc 1 986 8
 2657 15e2 837DF002 		cmpl	$2, -16(%ebp)
 2658 15e6 745F     		je	L156
 987:src/pdf417/PDFDecodedBitStreamParser.c **** 				{ // Must be first codeword after symbol length (GS1 Composite ISO/IEC 24723:2010 4.3)
 988:src/pdf417/PDFDecodedBitStreamParser.c **** 					status = FormatError;
 2659              		.loc 1 988 13
 2660 15e8 C745EC02 		movl	$2, -20(%ebp)
 2660      000000
 989:src/pdf417/PDFDecodedBitStreamParser.c **** 				}
 990:src/pdf417/PDFDecodedBitStreamParser.c **** 				else 
 991:src/pdf417/PDFDecodedBitStreamParser.c **** 				{
 992:src/pdf417/PDFDecodedBitStreamParser.c **** 					// TODO: handle
 993:src/pdf417/PDFDecodedBitStreamParser.c **** 				}
 994:src/pdf417/PDFDecodedBitStreamParser.c **** 			break;
 2661              		.loc 1 994 4
 2662 15ef EB56     		jmp	L156
 2663              	L165:
 995:src/pdf417/PDFDecodedBitStreamParser.c **** 			case LINKAGE_OTHER:
 996:src/pdf417/PDFDecodedBitStreamParser.c **** 				// Allowed to treat as invalid by ISO/IEC 24723:2010 5.4.1.5 and 5.4.6.1 when in Basic Channel 
 997:src/pdf417/PDFDecodedBitStreamParser.c **** 				status = FormatError; // TODO: add NotSupported error
 2664              		.loc 1 997 12
 2665 15f1 C745EC02 		movl	$2, -20(%ebp)
 2665      000000
 998:src/pdf417/PDFDecodedBitStreamParser.c **** 			break;
 2666              		.loc 1 998 4
 2667 15f8 EB4D     		jmp	L156
 2668              	L157:
 999:src/pdf417/PDFDecodedBitStreamParser.c **** 			default:
1000:src/pdf417/PDFDecodedBitStreamParser.c **** 				if (code >= TEXT_COMPACTION_MODE_LATCH) 
 2669              		.loc 1 1000 8
 2670 15fa 817DE883 		cmpl	$899, -24(%ebp)
 2670      030000
 2671 1601 7E09     		jle	L172
1001:src/pdf417/PDFDecodedBitStreamParser.c **** 				{ // Reserved codewords (all others in switch)
1002:src/pdf417/PDFDecodedBitStreamParser.c **** 					// Allowed to treat as invalid by ISO/IEC 24723:2010 5.4.6.1 when in Basic Channel Mode
1003:src/pdf417/PDFDecodedBitStreamParser.c **** 					status = FormatError; // TODO: add NotSupported error
 2672              		.loc 1 1003 13
 2673 1603 C745EC02 		movl	$2, -20(%ebp)
 2673      000000
GAS LISTING C:\Users\jisu8\AppData\Local\Temp\ccM43flq.s 			page 74


 2674 160a EB3A     		jmp	L185
 2675              	L172:
1004:src/pdf417/PDFDecodedBitStreamParser.c **** 				}
1005:src/pdf417/PDFDecodedBitStreamParser.c **** 				else 
1006:src/pdf417/PDFDecodedBitStreamParser.c **** 				{
1007:src/pdf417/PDFDecodedBitStreamParser.c **** 					// Default mode is Text Compaction mode Alpha sub-mode (ISO/IEC 15438:2015 5.4.2.1)
1008:src/pdf417/PDFDecodedBitStreamParser.c **** 					codeIndex = TextCompaction(status, codewords, codeIndex - 1, resultEncoded, result, &encoding)
 2676              		.loc 1 1008 18
 2677 160c 8B45F0   		movl	-16(%ebp), %eax
 2678 160f 8D50FF   		leal	-1(%eax), %edx
 2679 1612 8D851CFF 		leal	-228(%ebp), %eax
 2679      FFFF
 2680 1618 89442414 		movl	%eax, 20(%esp)
 2681 161c 8D8520FF 		leal	-224(%ebp), %eax
 2681      FFFF
 2682 1622 89442410 		movl	%eax, 16(%esp)
 2683 1626 8D4584   		leal	-124(%ebp), %eax
 2684 1629 8944240C 		movl	%eax, 12(%esp)
 2685 162d 89542408 		movl	%edx, 8(%esp)
 2686 1631 8B450C   		movl	12(%ebp), %eax
 2687 1634 89442404 		movl	%eax, 4(%esp)
 2688 1638 8B45EC   		movl	-20(%ebp), %eax
 2689 163b 890424   		movl	%eax, (%esp)
 2690 163e E854EEFF 		call	_TextCompaction
 2690      FF
 2691 1643 8945F0   		movl	%eax, -16(%ebp)
 2692              	L185:
1009:src/pdf417/PDFDecodedBitStreamParser.c **** 				}
1010:src/pdf417/PDFDecodedBitStreamParser.c **** 			break;
 2693              		.loc 1 1010 4
 2694 1646 90       		nop
 2695              	L156:
 2696              	LBE24:
 942:src/pdf417/PDFDecodedBitStreamParser.c **** 	{
 2697              		.loc 1 942 30
 2698 1647 8B450C   		movl	12(%ebp), %eax
 2699 164a 8B00     		movl	(%eax), %eax
 942:src/pdf417/PDFDecodedBitStreamParser.c **** 	{
 2700              		.loc 1 942 8
 2701 164c 3945F0   		cmpl	%eax, -16(%ebp)
 2702 164f 7D0A     		jge	L174
 942:src/pdf417/PDFDecodedBitStreamParser.c **** 	{
 2703              		.loc 1 942 34 discriminator 1
 2704 1651 837DEC00 		cmpl	$0, -20(%ebp)
 2705 1655 0F84CBFD 		je	L175
 2705      FFFF
 2706              	L174:
1011:src/pdf417/PDFDecodedBitStreamParser.c **** 		}
1012:src/pdf417/PDFDecodedBitStreamParser.c **** 	}
1013:src/pdf417/PDFDecodedBitStreamParser.c **** 
1014:src/pdf417/PDFDecodedBitStreamParser.c **** 	Append(resultEncoded, (const uint8_t*)(result), strlen(result), encoding);
 2707              		.loc 1 1014 2
 2708 165b 8B9D1CFF 		movl	-228(%ebp), %ebx
 2708      FFFF
 2709 1661 8D8520FF 		leal	-224(%ebp), %eax
 2709      FFFF
 2710 1667 890424   		movl	%eax, (%esp)
GAS LISTING C:\Users\jisu8\AppData\Local\Temp\ccM43flq.s 			page 75


 2711 166a E8000000 		call	_strlen
 2711      00
 2712 166f 895C240C 		movl	%ebx, 12(%esp)
 2713 1673 89442408 		movl	%eax, 8(%esp)
 2714 1677 8D8520FF 		leal	-224(%ebp), %eax
 2714      FFFF
 2715 167d 89442404 		movl	%eax, 4(%esp)
 2716 1681 8D4584   		leal	-124(%ebp), %eax
 2717 1684 890424   		movl	%eax, (%esp)
 2718 1687 E8000000 		call	_Append
 2718      00
1015:src/pdf417/PDFDecodedBitStreamParser.c **** 
1016:src/pdf417/PDFDecodedBitStreamParser.c **** 	if ((strlen(resultEncoded) == 0) && (resultMetadata._segmentIndex == -1))
 2719              		.loc 1 1016 14
 2720 168c 8D4584   		leal	-124(%ebp), %eax
 2721              		.loc 1 1016 29
 2722 168f 0FB600   		movzbl	(%eax), %eax
 2723              		.loc 1 1016 5
 2724 1692 84C0     		testb	%al, %al
 2725 1694 7514     		jne	L176
 2726              		.loc 1 1016 53 discriminator 1
 2727 1696 8B85E0FE 		movl	-288(%ebp), %eax
 2727      FFFF
 2728              		.loc 1 1016 35 discriminator 1
 2729 169c 83F8FF   		cmpl	$-1, %eax
 2730 169f 7509     		jne	L176
1017:src/pdf417/PDFDecodedBitStreamParser.c **** 	{
1018:src/pdf417/PDFDecodedBitStreamParser.c **** 		DecoderResult->status = FormatError;
 2731              		.loc 1 1018 25
 2732 16a1 8B4508   		movl	8(%ebp), %eax
 2733 16a4 C7000200 		movl	$2, (%eax)
 2733      0000
 2734              	L176:
1019:src/pdf417/PDFDecodedBitStreamParser.c **** 	}
1020:src/pdf417/PDFDecodedBitStreamParser.c **** 
1021:src/pdf417/PDFDecodedBitStreamParser.c **** 
1022:src/pdf417/PDFDecodedBitStreamParser.c **** 	if (StatusIsError(status))
 2735              		.loc 1 1022 5
 2736 16aa 837DEC00 		cmpl	$0, -20(%ebp)
 2737 16ae 7408     		je	L177
1023:src/pdf417/PDFDecodedBitStreamParser.c **** 	{
1024:src/pdf417/PDFDecodedBitStreamParser.c **** 		DecoderResult->status = status;
 2738              		.loc 1 1024 25
 2739 16b0 8B4508   		movl	8(%ebp), %eax
 2740 16b3 8B55EC   		movl	-20(%ebp), %edx
 2741 16b6 8910     		movl	%edx, (%eax)
 2742              	L177:
1025:src/pdf417/PDFDecodedBitStreamParser.c **** 	}
1026:src/pdf417/PDFDecodedBitStreamParser.c **** 
1027:src/pdf417/PDFDecodedBitStreamParser.c **** 
1028:src/pdf417/PDFDecodedBitStreamParser.c **** 	StructuredAppendInfo_t sai;
1029:src/pdf417/PDFDecodedBitStreamParser.c **** 	StructuredAppendInfo_Init(&sai);
 2743              		.loc 1 1029 2
 2744 16b8 8D85D4FE 		leal	-300(%ebp), %eax
 2744      FFFF
 2745 16be 890424   		movl	%eax, (%esp)
 2746 16c1 E8DEFCFF 		call	_StructuredAppendInfo_Init
GAS LISTING C:\Users\jisu8\AppData\Local\Temp\ccM43flq.s 			page 76


 2746      FF
1030:src/pdf417/PDFDecodedBitStreamParser.c **** 	if (resultMetadata._segmentIndex > -1) 
 2747              		.loc 1 1030 20
 2748 16c6 8B85E0FE 		movl	-288(%ebp), %eax
 2748      FFFF
 2749              		.loc 1 1030 5
 2750 16cc 85C0     		testl	%eax, %eax
 2751 16ce 784C     		js	L178
1031:src/pdf417/PDFDecodedBitStreamParser.c **** 	{
1032:src/pdf417/PDFDecodedBitStreamParser.c **** 		sai.count = resultMetadata._segmentCount != -1
 2752              		.loc 1 1032 29
 2753 16d0 8B85F0FE 		movl	-272(%ebp), %eax
 2753      FFFF
1033:src/pdf417/PDFDecodedBitStreamParser.c **** 						? resultMetadata._segmentCount
1034:src/pdf417/PDFDecodedBitStreamParser.c **** 						: (resultMetadata._lastSegment ? resultMetadata._segmentIndex + 1 : 0);
 2754              		.loc 1 1034 7
 2755 16d6 83F8FF   		cmpl	$-1, %eax
 2756 16d9 7408     		je	L179
 2757              		.loc 1 1034 7 is_stmt 0 discriminator 1
 2758 16db 8B85F0FE 		movl	-272(%ebp), %eax
 2758      FFFF
 2759 16e1 EB1B     		jmp	L180
 2760              	L179:
 2761              		.loc 1 1034 24 is_stmt 1 discriminator 2
 2762 16e3 0FB685EC 		movzbl	-276(%ebp), %eax
 2762      FEFFFF
 2763              		.loc 1 1034 73 discriminator 2
 2764 16ea 84C0     		testb	%al, %al
 2765 16ec 740B     		je	L181
 2766              		.loc 1 1034 54 discriminator 3
 2767 16ee 8B85E0FE 		movl	-288(%ebp), %eax
 2767      FFFF
 2768              		.loc 1 1034 73 discriminator 3
 2769 16f4 83C001   		addl	$1, %eax
 2770 16f7 EB05     		jmp	L180
 2771              	L181:
 2772              		.loc 1 1034 73 is_stmt 0 discriminator 4
 2773 16f9 B8000000 		movl	$0, %eax
 2773      00
 2774              	L180:
1032:src/pdf417/PDFDecodedBitStreamParser.c **** 						? resultMetadata._segmentCount
 2775              		.loc 1 1032 13 is_stmt 1
 2776 16fe 8985D8FE 		movl	%eax, -296(%ebp)
 2776      FFFF
1035:src/pdf417/PDFDecodedBitStreamParser.c **** 		sai.index = resultMetadata._segmentIndex;
 2777              		.loc 1 1035 29
 2778 1704 8B85E0FE 		movl	-288(%ebp), %eax
 2778      FFFF
 2779              		.loc 1 1035 13
 2780 170a 8985D4FE 		movl	%eax, -300(%ebp)
 2780      FFFF
1036:src/pdf417/PDFDecodedBitStreamParser.c **** 		sai.id    = resultMetadata._fileId;
 2781              		.loc 1 1036 29
 2782 1710 8B85E4FE 		movl	-284(%ebp), %eax
 2782      FFFF
 2783              		.loc 1 1036 13
 2784 1716 8985DCFE 		movl	%eax, -292(%ebp)
GAS LISTING C:\Users\jisu8\AppData\Local\Temp\ccM43flq.s 			page 77


 2784      FFFF
 2785              	L178:
1037:src/pdf417/PDFDecodedBitStreamParser.c **** 	}
1038:src/pdf417/PDFDecodedBitStreamParser.c **** 
1039:src/pdf417/PDFDecodedBitStreamParser.c **** 	int ecLevelChar[2];
1040:src/pdf417/PDFDecodedBitStreamParser.c **** 	if(ecLevel<10)
 2786              		.loc 1 1040 4
 2787 171c 837D1009 		cmpl	$9, 16(%ebp)
 2788 1720 7F0E     		jg	L183
1041:src/pdf417/PDFDecodedBitStreamParser.c **** 	{
1042:src/pdf417/PDFDecodedBitStreamParser.c **** 		ecLevelChar[0] = ecLevel+48;
 2789              		.loc 1 1042 27
 2790 1722 8B4510   		movl	16(%ebp), %eax
 2791 1725 83C030   		addl	$48, %eax
 2792              		.loc 1 1042 18
 2793 1728 8985CCFE 		movl	%eax, -308(%ebp)
 2793      FFFF
 2794 172e EB6F     		jmp	L184
 2795              	L183:
1043:src/pdf417/PDFDecodedBitStreamParser.c **** 	}
1044:src/pdf417/PDFDecodedBitStreamParser.c **** 	else if(ecLevel<100)
 2796              		.loc 1 1044 9
 2797 1730 837D1063 		cmpl	$99, 16(%ebp)
 2798 1734 7F69     		jg	L184
1045:src/pdf417/PDFDecodedBitStreamParser.c **** 	{
1046:src/pdf417/PDFDecodedBitStreamParser.c **** 		
1047:src/pdf417/PDFDecodedBitStreamParser.c **** 		ecLevelChar[0] = (ecLevel%10)+48;
 2799              		.loc 1 1047 28
 2800 1736 8B4D10   		movl	16(%ebp), %ecx
 2801 1739 BA676666 		movl	$1717986919, %edx
 2801      66
 2802 173e 89C8     		movl	%ecx, %eax
 2803 1740 F7EA     		imull	%edx
 2804 1742 C1FA02   		sarl	$2, %edx
 2805 1745 89C8     		movl	%ecx, %eax
 2806 1747 C1F81F   		sarl	$31, %eax
 2807 174a 29C2     		subl	%eax, %edx
 2808 174c 89D0     		movl	%edx, %eax
 2809 174e C1E002   		sall	$2, %eax
 2810 1751 01D0     		addl	%edx, %eax
 2811 1753 01C0     		addl	%eax, %eax
 2812 1755 29C1     		subl	%eax, %ecx
 2813 1757 89CA     		movl	%ecx, %edx
 2814              		.loc 1 1047 32
 2815 1759 8D4230   		leal	48(%edx), %eax
 2816              		.loc 1 1047 18
 2817 175c 8985CCFE 		movl	%eax, -308(%ebp)
 2817      FFFF
1048:src/pdf417/PDFDecodedBitStreamParser.c **** 		ecLevelChar[1] = (ecLevel%100)/10+48;	
 2818              		.loc 1 1048 28
 2819 1762 8B5D10   		movl	16(%ebp), %ebx
 2820 1765 BA1F85EB 		movl	$1374389535, %edx
 2820      51
 2821 176a 89D8     		movl	%ebx, %eax
 2822 176c F7EA     		imull	%edx
 2823 176e C1FA05   		sarl	$5, %edx
 2824 1771 89D8     		movl	%ebx, %eax
GAS LISTING C:\Users\jisu8\AppData\Local\Temp\ccM43flq.s 			page 78


 2825 1773 C1F81F   		sarl	$31, %eax
 2826 1776 89D1     		movl	%edx, %ecx
 2827 1778 29C1     		subl	%eax, %ecx
 2828 177a 6BC164   		imull	$100, %ecx, %eax
 2829 177d 29C3     		subl	%eax, %ebx
 2830 177f 89D9     		movl	%ebx, %ecx
 2831              		.loc 1 1048 33
 2832 1781 BA676666 		movl	$1717986919, %edx
 2832      66
 2833 1786 89C8     		movl	%ecx, %eax
 2834 1788 F7EA     		imull	%edx
 2835 178a C1FA02   		sarl	$2, %edx
 2836 178d 89C8     		movl	%ecx, %eax
 2837 178f C1F81F   		sarl	$31, %eax
 2838 1792 29C2     		subl	%eax, %edx
 2839 1794 89D0     		movl	%edx, %eax
 2840              		.loc 1 1048 36
 2841 1796 83C030   		addl	$48, %eax
 2842              		.loc 1 1048 18
 2843 1799 8985D0FE 		movl	%eax, -304(%ebp)
 2843      FFFF
 2844              	L184:
1049:src/pdf417/PDFDecodedBitStreamParser.c **** 	}
1050:src/pdf417/PDFDecodedBitStreamParser.c **** 	else{}
1051:src/pdf417/PDFDecodedBitStreamParser.c **** 
1052:src/pdf417/PDFDecodedBitStreamParser.c **** 	//DecoderResult->_rawBytes = ;
1053:src/pdf417/PDFDecodedBitStreamParser.c **** 	//DecoderResult->_numBits;
1054:src/pdf417/PDFDecodedBitStreamParser.c **** 	DecoderResult->_text = result;
 2845              		.loc 1 1054 23
 2846 179f 8B4508   		movl	8(%ebp), %eax
 2847 17a2 8D9520FF 		leal	-224(%ebp), %edx
 2847      FFFF
 2848 17a8 89500C   		movl	%edx, 12(%eax)
1055:src/pdf417/PDFDecodedBitStreamParser.c **** 	DecoderResult->_ecLevel = ecLevelChar;
 2849              		.loc 1 1055 26
 2850 17ab 8B4508   		movl	8(%ebp), %eax
 2851 17ae 8D95CCFE 		leal	-308(%ebp), %edx
 2851      FFFF
 2852 17b4 895010   		movl	%edx, 16(%eax)
1056:src/pdf417/PDFDecodedBitStreamParser.c **** 	DecoderResult->_structuredAppend = sai;
 2853              		.loc 1 1056 35
 2854 17b7 8B4508   		movl	8(%ebp), %eax
 2855 17ba 8B95D4FE 		movl	-300(%ebp), %edx
 2855      FFFF
 2856 17c0 89501C   		movl	%edx, 28(%eax)
 2857 17c3 8B95D8FE 		movl	-296(%ebp), %edx
 2857      FFFF
 2858 17c9 895020   		movl	%edx, 32(%eax)
 2859 17cc 8B95DCFE 		movl	-292(%ebp), %edx
 2859      FFFF
 2860 17d2 895024   		movl	%edx, 36(%eax)
1057:src/pdf417/PDFDecodedBitStreamParser.c **** 	DecoderResult->_readerInit = readerInit;
 2861              		.loc 1 1057 29
 2862 17d5 8B4508   		movl	8(%ebp), %eax
 2863 17d8 0FB655F7 		movzbl	-9(%ebp), %edx
 2864 17dc 885028   		movb	%dl, 40(%eax)
1058:src/pdf417/PDFDecodedBitStreamParser.c **** 	DecoderResult->_extra = &resultMetadata;
GAS LISTING C:\Users\jisu8\AppData\Local\Temp\ccM43flq.s 			page 79


 2865              		.loc 1 1058 24
 2866 17df 8B4508   		movl	8(%ebp), %eax
 2867 17e2 8D95E0FE 		leal	-288(%ebp), %edx
 2867      FFFF
 2868 17e8 89502C   		movl	%edx, 44(%eax)
1059:src/pdf417/PDFDecodedBitStreamParser.c **** 
1060:src/pdf417/PDFDecodedBitStreamParser.c **** }
 2869              		.loc 1 1060 1
 2870 17eb 90       		nop
 2871 17ec 81C45001 		addl	$336, %esp
 2871      0000
 2872 17f2 5B       		popl	%ebx
 2873              		.cfi_restore 3
 2874 17f3 5F       		popl	%edi
 2875              		.cfi_restore 7
 2876 17f4 5D       		popl	%ebp
 2877              	LCFI44:
 2878              		.cfi_restore 5
 2879              		.cfi_def_cfa 4, 4
 2880 17f5 C3       		ret
 2881              		.cfi_endproc
 2882              	LFE32:
 2883              	Letext0:
 2884              		.file 2 "src/StructuredAppend.h"
 2885              		.file 3 "src/decodestatus.h"
 2886              		.file 4 "D:/3.tools/mingw/mingw32/i686-w64-mingw32/include/crtdefs.h"
 2887              		.file 5 "D:/3.tools/mingw/mingw32/i686-w64-mingw32/include/stdint.h"
 2888              		.file 6 "src/DecoderResult.h"
 2889              		.file 7 "src/pdf417/PDFDecoderResultExtra.h"
 2890              		.file 8 "src/CharacterSet.h"
 2891              		.file 9 "D:/3.tools/mingw/mingw32/i686-w64-mingw32/include/stdlib.h"
 2892              		.file 10 "D:/3.tools/mingw/mingw32/i686-w64-mingw32/include/malloc.h"
 2893              		.file 11 "D:/3.tools/mingw/mingw32/i686-w64-mingw32/include/stdio.h"
 2894 17f6 9090     		.section	.debug_info,"dr"
 2895              	Ldebug_info0:
 2896 0000 23180000 		.long	0x1823
 2897 0004 0200     		.word	0x2
 2898 0006 00000000 		.secrel32	Ldebug_abbrev0
 2899 000a 04       		.byte	0x4
 2900 000b 01       		.uleb128 0x1
 2901 000c 474E5520 		.ascii "GNU C17 8.1.0 -mtune=generic -march=i686 -g -gdwarf-2 -O0\0"
 2901      43313720 
 2901      382E312E 
 2901      30202D6D 
 2901      74756E65 
 2902 0046 0C       		.byte	0xc
 2903 0047 7372632F 		.ascii "src/pdf417/PDFDecodedBitStreamParser.c\0"
 2903      70646634 
 2903      31372F50 
 2903      44464465 
 2903      636F6465 
 2904 006e 443A5C31 		.ascii "D:\\1.Project_workspace\\PDF_BARCODE\0"
 2904      2E50726F 
 2904      6A656374 
 2904      5F776F72 
 2904      6B737061 
 2905 0091 00000000 		.long	Ltext0
GAS LISTING C:\Users\jisu8\AppData\Local\Temp\ccM43flq.s 			page 80


 2906 0095 F6170000 		.long	Letext0
 2907 0099 00000000 		.secrel32	Ldebug_line0
 2908 009d 02       		.uleb128 0x2
 2909 009e 07       		.byte	0x7
 2910 009f 04       		.byte	0x4
 2911 00a0 DF000000 		.long	0xdf
 2912 00a4 03       		.byte	0x3
 2913 00a5 04       		.byte	0x4
 2914 00a6 01       		.byte	0x1
 2915 00a7 DF000000 		.long	0xdf
 2916 00ab 03       		.uleb128 0x3
 2917 00ac 4E6F4572 		.ascii "NoError\0"
 2917      726F7200 
 2918 00b4 00       		.byte	0
 2919 00b5 03       		.uleb128 0x3
 2920 00b6 4E6F7446 		.ascii "NotFound\0"
 2920      6F756E64 
 2920      00
 2921 00bf 01       		.byte	0x1
 2922 00c0 03       		.uleb128 0x3
 2923 00c1 466F726D 		.ascii "FormatError\0"
 2923      61744572 
 2923      726F7200 
 2924 00cd 02       		.byte	0x2
 2925 00ce 03       		.uleb128 0x3
 2926 00cf 43686563 		.ascii "ChecksumError\0"
 2926      6B73756D 
 2926      4572726F 
 2926      7200
 2927 00dd 03       		.byte	0x3
 2928 00de 00       		.byte	0
 2929 00df 04       		.uleb128 0x4
 2930 00e0 04       		.byte	0x4
 2931 00e1 07       		.byte	0x7
 2932 00e2 756E7369 		.ascii "unsigned int\0"
 2932      676E6564 
 2932      20696E74 
 2932      00
 2933 00ef 05       		.uleb128 0x5
 2934 00f0 4465636F 		.ascii "DecodeStatus_t\0"
 2934      64655374 
 2934      61747573 
 2934      5F7400
 2935 00ff 03       		.byte	0x3
 2936 0100 09       		.byte	0x9
 2937 0101 02       		.byte	0x2
 2938 0102 9D000000 		.long	0x9d
 2939 0106 06       		.uleb128 0x6
 2940 0107 0C       		.byte	0xc
 2941 0108 02       		.byte	0x2
 2942 0109 04       		.byte	0x4
 2943 010a 09       		.byte	0x9
 2944 010b 3E010000 		.long	0x13e
 2945 010f 07       		.uleb128 0x7
 2946 0110 696E6465 		.ascii "index\0"
 2946      7800
 2947 0116 02       		.byte	0x2
GAS LISTING C:\Users\jisu8\AppData\Local\Temp\ccM43flq.s 			page 81


 2948 0117 06       		.byte	0x6
 2949 0118 06       		.byte	0x6
 2950 0119 3E010000 		.long	0x13e
 2951 011d 02       		.byte	0x2
 2952 011e 23       		.byte	0x23
 2953 011f 00       		.uleb128 0
 2954 0120 08       		.uleb128 0x8
 2955 0121 2A000000 		.secrel32	LASF0
 2956 0125 02       		.byte	0x2
 2957 0126 07       		.byte	0x7
 2958 0127 06       		.byte	0x6
 2959 0128 3E010000 		.long	0x13e
 2960 012c 02       		.byte	0x2
 2961 012d 23       		.byte	0x23
 2962 012e 04       		.uleb128 0x4
 2963 012f 07       		.uleb128 0x7
 2964 0130 696400   		.ascii "id\0"
 2965 0133 02       		.byte	0x2
 2966 0134 08       		.byte	0x8
 2967 0135 09       		.byte	0x9
 2968 0136 4A010000 		.long	0x14a
 2969 013a 02       		.byte	0x2
 2970 013b 23       		.byte	0x23
 2971 013c 08       		.uleb128 0x8
 2972 013d 00       		.byte	0
 2973 013e 04       		.uleb128 0x4
 2974 013f 04       		.byte	0x4
 2975 0140 05       		.byte	0x5
 2976 0141 696E7400 		.ascii "int\0"
 2977 0145 09       		.uleb128 0x9
 2978 0146 3E010000 		.long	0x13e
 2979 014a 0A       		.uleb128 0xa
 2980 014b 04       		.byte	0x4
 2981 014c 50010000 		.long	0x150
 2982 0150 04       		.uleb128 0x4
 2983 0151 01       		.byte	0x1
 2984 0152 06       		.byte	0x6
 2985 0153 63686172 		.ascii "char\0"
 2985      00
 2986 0158 09       		.uleb128 0x9
 2987 0159 50010000 		.long	0x150
 2988 015d 05       		.uleb128 0x5
 2989 015e 53747275 		.ascii "StructuredAppendInfo_t\0"
 2989      63747572 
 2989      65644170 
 2989      70656E64 
 2989      496E666F 
 2990 0175 02       		.byte	0x2
 2991 0176 09       		.byte	0x9
 2992 0177 02       		.byte	0x2
 2993 0178 06010000 		.long	0x106
 2994 017c 05       		.uleb128 0x5
 2995 017d 77636861 		.ascii "wchar_t\0"
 2995      725F7400 
 2996 0185 04       		.byte	0x4
 2997 0186 62       		.byte	0x62
 2998 0187 18       		.byte	0x18
GAS LISTING C:\Users\jisu8\AppData\Local\Temp\ccM43flq.s 			page 82


 2999 0188 8C010000 		.long	0x18c
 3000 018c 04       		.uleb128 0x4
 3001 018d 02       		.byte	0x2
 3002 018e 07       		.byte	0x7
 3003 018f 73686F72 		.ascii "short unsigned int\0"
 3003      7420756E 
 3003      7369676E 
 3003      65642069 
 3003      6E7400
 3004 01a2 04       		.uleb128 0x4
 3005 01a3 04       		.byte	0x4
 3006 01a4 05       		.byte	0x5
 3007 01a5 6C6F6E67 		.ascii "long int\0"
 3007      20696E74 
 3007      00
 3008 01ae 04       		.uleb128 0x4
 3009 01af 08       		.byte	0x8
 3010 01b0 05       		.byte	0x5
 3011 01b1 6C6F6E67 		.ascii "long long int\0"
 3011      206C6F6E 
 3011      6720696E 
 3011      7400
 3012 01bf 0A       		.uleb128 0xa
 3013 01c0 04       		.byte	0x4
 3014 01c1 7C010000 		.long	0x17c
 3015 01c5 0A       		.uleb128 0xa
 3016 01c6 04       		.byte	0x4
 3017 01c7 3E010000 		.long	0x13e
 3018 01cb 04       		.uleb128 0x4
 3019 01cc 04       		.byte	0x4
 3020 01cd 07       		.byte	0x7
 3021 01ce 6C6F6E67 		.ascii "long unsigned int\0"
 3021      20756E73 
 3021      69676E65 
 3021      6420696E 
 3021      7400
 3022 01e0 0A       		.uleb128 0xa
 3023 01e1 04       		.byte	0x4
 3024 01e2 F7010000 		.long	0x1f7
 3025 01e6 04       		.uleb128 0x4
 3026 01e7 01       		.byte	0x1
 3027 01e8 08       		.byte	0x8
 3028 01e9 756E7369 		.ascii "unsigned char\0"
 3028      676E6564 
 3028      20636861 
 3028      7200
 3029 01f7 09       		.uleb128 0x9
 3030 01f8 E6010000 		.long	0x1e6
 3031 01fc 04       		.uleb128 0x4
 3032 01fd 0C       		.byte	0xc
 3033 01fe 04       		.byte	0x4
 3034 01ff 6C6F6E67 		.ascii "long double\0"
 3034      20646F75 
 3034      626C6500 
 3035 020b 04       		.uleb128 0x4
 3036 020c 10       		.byte	0x10
 3037 020d 04       		.byte	0x4
GAS LISTING C:\Users\jisu8\AppData\Local\Temp\ccM43flq.s 			page 83


 3038 020e 5F466C6F 		.ascii "_Float128\0"
 3038      61743132 
 3038      3800
 3039 0218 04       		.uleb128 0x4
 3040 0219 01       		.byte	0x1
 3041 021a 06       		.byte	0x6
 3042 021b 7369676E 		.ascii "signed char\0"
 3042      65642063 
 3042      68617200 
 3043 0227 05       		.uleb128 0x5
 3044 0228 75696E74 		.ascii "uint8_t\0"
 3044      385F7400 
 3045 0230 05       		.byte	0x5
 3046 0231 24       		.byte	0x24
 3047 0232 19       		.byte	0x19
 3048 0233 E6010000 		.long	0x1e6
 3049 0237 04       		.uleb128 0x4
 3050 0238 02       		.byte	0x2
 3051 0239 05       		.byte	0x5
 3052 023a 73686F72 		.ascii "short int\0"
 3052      7420696E 
 3052      7400
 3053 0244 05       		.uleb128 0x5
 3054 0245 696E7436 		.ascii "int64_t\0"
 3054      345F7400 
 3055 024d 05       		.byte	0x5
 3056 024e 29       		.byte	0x29
 3057 024f 26       		.byte	0x26
 3058 0250 AE010000 		.long	0x1ae
 3059 0254 05       		.uleb128 0x5
 3060 0255 75696E74 		.ascii "uint64_t\0"
 3060      36345F74 
 3060      00
 3061 025e 05       		.byte	0x5
 3062 025f 2A       		.byte	0x2a
 3063 0260 30       		.byte	0x30
 3064 0261 65020000 		.long	0x265
 3065 0265 04       		.uleb128 0x4
 3066 0266 08       		.byte	0x8
 3067 0267 07       		.byte	0x7
 3068 0268 6C6F6E67 		.ascii "long long unsigned int\0"
 3068      206C6F6E 
 3068      6720756E 
 3068      7369676E 
 3068      65642069 
 3069 027f 06       		.uleb128 0x6
 3070 0280 30       		.byte	0x30
 3071 0281 06       		.byte	0x6
 3072 0282 06       		.byte	0x6
 3073 0283 09       		.byte	0x9
 3074 0284 5D030000 		.long	0x35d
 3075 0288 08       		.uleb128 0x8
 3076 0289 00000000 		.secrel32	LASF1
 3077 028d 06       		.byte	0x6
 3078 028e 08       		.byte	0x8
 3079 028f 11       		.byte	0x11
 3080 0290 EF000000 		.long	0xef
GAS LISTING C:\Users\jisu8\AppData\Local\Temp\ccM43flq.s 			page 84


 3081 0294 02       		.byte	0x2
 3082 0295 23       		.byte	0x23
 3083 0296 00       		.uleb128 0
 3084 0297 07       		.uleb128 0x7
 3085 0298 5F726177 		.ascii "_rawBytes\0"
 3085      42797465 
 3085      7300
 3086 02a2 06       		.byte	0x6
 3087 02a3 09       		.byte	0x9
 3088 02a4 0C       		.byte	0xc
 3089 02a5 5D030000 		.long	0x35d
 3090 02a9 02       		.byte	0x2
 3091 02aa 23       		.byte	0x23
 3092 02ab 04       		.uleb128 0x4
 3093 02ac 07       		.uleb128 0x7
 3094 02ad 5F6E756D 		.ascii "_numBits\0"
 3094      42697473 
 3094      00
 3095 02b6 06       		.byte	0x6
 3096 02b7 0A       		.byte	0xa
 3097 02b8 06       		.byte	0x6
 3098 02b9 3E010000 		.long	0x13e
 3099 02bd 02       		.byte	0x2
 3100 02be 23       		.byte	0x23
 3101 02bf 08       		.uleb128 0x8
 3102 02c0 07       		.uleb128 0x7
 3103 02c1 5F746578 		.ascii "_text\0"
 3103      7400
 3104 02c7 06       		.byte	0x6
 3105 02c8 0B       		.byte	0xb
 3106 02c9 12       		.byte	0x12
 3107 02ca 63030000 		.long	0x363
 3108 02ce 02       		.byte	0x2
 3109 02cf 23       		.byte	0x23
 3110 02d0 0C       		.uleb128 0xc
 3111 02d1 07       		.uleb128 0x7
 3112 02d2 5F65634C 		.ascii "_ecLevel\0"
 3112      6576656C 
 3112      00
 3113 02db 06       		.byte	0x6
 3114 02dc 0C       		.byte	0xc
 3115 02dd 12       		.byte	0x12
 3116 02de 63030000 		.long	0x363
 3117 02e2 02       		.byte	0x2
 3118 02e3 23       		.byte	0x23
 3119 02e4 10       		.uleb128 0x10
 3120 02e5 07       		.uleb128 0x7
 3121 02e6 5F657272 		.ascii "_errorsCorrected\0"
 3121      6F727343 
 3121      6F727265 
 3121      63746564 
 3121      00
 3122 02f7 06       		.byte	0x6
 3123 02f8 0D       		.byte	0xd
 3124 02f9 06       		.byte	0x6
 3125 02fa 3E010000 		.long	0x13e
 3126 02fe 02       		.byte	0x2
GAS LISTING C:\Users\jisu8\AppData\Local\Temp\ccM43flq.s 			page 85


 3127 02ff 23       		.byte	0x23
 3128 0300 14       		.uleb128 0x14
 3129 0301 07       		.uleb128 0x7
 3130 0302 5F657261 		.ascii "_erasures\0"
 3130      73757265 
 3130      7300
 3131 030c 06       		.byte	0x6
 3132 030d 0E       		.byte	0xe
 3133 030e 06       		.byte	0x6
 3134 030f 3E010000 		.long	0x13e
 3135 0313 02       		.byte	0x2
 3136 0314 23       		.byte	0x23
 3137 0315 18       		.uleb128 0x18
 3138 0316 07       		.uleb128 0x7
 3139 0317 5F737472 		.ascii "_structuredAppend\0"
 3139      75637475 
 3139      72656441 
 3139      7070656E 
 3139      6400
 3140 0329 06       		.byte	0x6
 3141 032a 0F       		.byte	0xf
 3142 032b 19       		.byte	0x19
 3143 032c 5D010000 		.long	0x15d
 3144 0330 02       		.byte	0x2
 3145 0331 23       		.byte	0x23
 3146 0332 1C       		.uleb128 0x1c
 3147 0333 07       		.uleb128 0x7
 3148 0334 5F726561 		.ascii "_readerInit\0"
 3148      64657249 
 3148      6E697400 
 3149 0340 06       		.byte	0x6
 3150 0341 10       		.byte	0x10
 3151 0342 0A       		.byte	0xa
 3152 0343 27020000 		.long	0x227
 3153 0347 02       		.byte	0x2
 3154 0348 23       		.byte	0x23
 3155 0349 28       		.uleb128 0x28
 3156 034a 07       		.uleb128 0x7
 3157 034b 5F657874 		.ascii "_extra\0"
 3157      726100
 3158 0352 06       		.byte	0x6
 3159 0353 11       		.byte	0x11
 3160 0354 0C       		.byte	0xc
 3161 0355 5D030000 		.long	0x35d
 3162 0359 02       		.byte	0x2
 3163 035a 23       		.byte	0x23
 3164 035b 2C       		.uleb128 0x2c
 3165 035c 00       		.byte	0
 3166 035d 0A       		.uleb128 0xa
 3167 035e 04       		.byte	0x4
 3168 035f 27020000 		.long	0x227
 3169 0363 0A       		.uleb128 0xa
 3170 0364 04       		.byte	0x4
 3171 0365 E6010000 		.long	0x1e6
 3172 0369 05       		.uleb128 0x5
 3173 036a 4465636F 		.ascii "DecoderResult_t\0"
 3173      64657252 
GAS LISTING C:\Users\jisu8\AppData\Local\Temp\ccM43flq.s 			page 86


 3173      6573756C 
 3173      745F7400 
 3174 037a 06       		.byte	0x6
 3175 037b 12       		.byte	0x12
 3176 037c 02       		.byte	0x2
 3177 037d 7F020000 		.long	0x27f
 3178 0381 06       		.uleb128 0x6
 3179 0382 38       		.byte	0x38
 3180 0383 07       		.byte	0x7
 3181 0384 06       		.byte	0x6
 3182 0385 09       		.byte	0x9
 3183 0386 7F040000 		.long	0x47f
 3184 038a 07       		.uleb128 0x7
 3185 038b 5F736567 		.ascii "_segmentIndex\0"
 3185      6D656E74 
 3185      496E6465 
 3185      7800
 3186 0399 07       		.byte	0x7
 3187 039a 08       		.byte	0x8
 3188 039b 06       		.byte	0x6
 3189 039c 3E010000 		.long	0x13e
 3190 03a0 02       		.byte	0x2
 3191 03a1 23       		.byte	0x23
 3192 03a2 00       		.uleb128 0
 3193 03a3 07       		.uleb128 0x7
 3194 03a4 5F66696C 		.ascii "_fileId\0"
 3194      65496400 
 3195 03ac 07       		.byte	0x7
 3196 03ad 09       		.byte	0x9
 3197 03ae 09       		.byte	0x9
 3198 03af 4A010000 		.long	0x14a
 3199 03b3 02       		.byte	0x2
 3200 03b4 23       		.byte	0x23
 3201 03b5 04       		.uleb128 0x4
 3202 03b6 07       		.uleb128 0x7
 3203 03b7 5F6F7074 		.ascii "_optionalData\0"
 3203      696F6E61 
 3203      6C446174 
 3203      6100
 3204 03c5 07       		.byte	0x7
 3205 03c6 0A       		.byte	0xa
 3206 03c7 08       		.byte	0x8
 3207 03c8 C5010000 		.long	0x1c5
 3208 03cc 02       		.byte	0x2
 3209 03cd 23       		.byte	0x23
 3210 03ce 08       		.uleb128 0x8
 3211 03cf 07       		.uleb128 0x7
 3212 03d0 5F6C6173 		.ascii "_lastSegment\0"
 3212      74536567 
 3212      6D656E74 
 3212      00
 3213 03dd 07       		.byte	0x7
 3214 03de 0B       		.byte	0xb
 3215 03df 0A       		.byte	0xa
 3216 03e0 27020000 		.long	0x227
 3217 03e4 02       		.byte	0x2
 3218 03e5 23       		.byte	0x23
GAS LISTING C:\Users\jisu8\AppData\Local\Temp\ccM43flq.s 			page 87


 3219 03e6 0C       		.uleb128 0xc
 3220 03e7 07       		.uleb128 0x7
 3221 03e8 5F736567 		.ascii "_segmentCount\0"
 3221      6D656E74 
 3221      436F756E 
 3221      7400
 3222 03f6 07       		.byte	0x7
 3223 03f7 0C       		.byte	0xc
 3224 03f8 06       		.byte	0x6
 3225 03f9 3E010000 		.long	0x13e
 3226 03fd 02       		.byte	0x2
 3227 03fe 23       		.byte	0x23
 3228 03ff 10       		.uleb128 0x10
 3229 0400 07       		.uleb128 0x7
 3230 0401 5F73656E 		.ascii "_sender\0"
 3230      64657200 
 3231 0409 07       		.byte	0x7
 3232 040a 0D       		.byte	0xd
 3233 040b 09       		.byte	0x9
 3234 040c 4A010000 		.long	0x14a
 3235 0410 02       		.byte	0x2
 3236 0411 23       		.byte	0x23
 3237 0412 14       		.uleb128 0x14
 3238 0413 07       		.uleb128 0x7
 3239 0414 5F616464 		.ascii "_addressee\0"
 3239      72657373 
 3239      656500
 3240 041f 07       		.byte	0x7
 3241 0420 0E       		.byte	0xe
 3242 0421 09       		.byte	0x9
 3243 0422 4A010000 		.long	0x14a
 3244 0426 02       		.byte	0x2
 3245 0427 23       		.byte	0x23
 3246 0428 18       		.uleb128 0x18
 3247 0429 07       		.uleb128 0x7
 3248 042a 5F66696C 		.ascii "_fileName\0"
 3248      654E616D 
 3248      6500
 3249 0434 07       		.byte	0x7
 3250 0435 0F       		.byte	0xf
 3251 0436 09       		.byte	0x9
 3252 0437 4A010000 		.long	0x14a
 3253 043b 02       		.byte	0x2
 3254 043c 23       		.byte	0x23
 3255 043d 1C       		.uleb128 0x1c
 3256 043e 07       		.uleb128 0x7
 3257 043f 5F66696C 		.ascii "_fileSize\0"
 3257      6553697A 
 3257      6500
 3258 0449 07       		.byte	0x7
 3259 044a 10       		.byte	0x10
 3260 044b 0A       		.byte	0xa
 3261 044c 44020000 		.long	0x244
 3262 0450 02       		.byte	0x2
 3263 0451 23       		.byte	0x23
 3264 0452 20       		.uleb128 0x20
 3265 0453 07       		.uleb128 0x7
GAS LISTING C:\Users\jisu8\AppData\Local\Temp\ccM43flq.s 			page 88


 3266 0454 5F74696D 		.ascii "_timestamp\0"
 3266      65737461 
 3266      6D7000
 3267 045f 07       		.byte	0x7
 3268 0460 11       		.byte	0x11
 3269 0461 0A       		.byte	0xa
 3270 0462 44020000 		.long	0x244
 3271 0466 02       		.byte	0x2
 3272 0467 23       		.byte	0x23
 3273 0468 28       		.uleb128 0x28
 3274 0469 07       		.uleb128 0x7
 3275 046a 5F636865 		.ascii "_checksum\0"
 3275      636B7375 
 3275      6D00
 3276 0474 07       		.byte	0x7
 3277 0475 12       		.byte	0x12
 3278 0476 06       		.byte	0x6
 3279 0477 3E010000 		.long	0x13e
 3280 047b 02       		.byte	0x2
 3281 047c 23       		.byte	0x23
 3282 047d 30       		.uleb128 0x30
 3283 047e 00       		.byte	0
 3284 047f 05       		.uleb128 0x5
 3285 0480 4465636F 		.ascii "DecoderResultExtra_t\0"
 3285      64657252 
 3285      6573756C 
 3285      74457874 
 3285      72615F74 
 3286 0495 07       		.byte	0x7
 3287 0496 13       		.byte	0x13
 3288 0497 02       		.byte	0x2
 3289 0498 81030000 		.long	0x381
 3290 049c 02       		.uleb128 0x2
 3291 049d 07       		.byte	0x7
 3292 049e 04       		.byte	0x4
 3293 049f DF000000 		.long	0xdf
 3294 04a3 08       		.byte	0x8
 3295 04a4 06       		.byte	0x6
 3296 04a5 01       		.byte	0x1
 3297 04a6 E1040000 		.long	0x4e1
 3298 04aa 03       		.uleb128 0x3
 3299 04ab 556E6B6E 		.ascii "Unknown\0"
 3299      6F776E00 
 3300 04b3 00       		.byte	0
 3301 04b4 03       		.uleb128 0x3
 3302 04b5 41534349 		.ascii "ASCII\0"
 3302      4900
 3303 04bb 01       		.byte	0x1
 3304 04bc 03       		.uleb128 0x3
 3305 04bd 49534F38 		.ascii "ISO8859_1\0"
 3305      3835395F 
 3305      3100
 3306 04c7 02       		.byte	0x2
 3307 04c8 03       		.uleb128 0x3
 3308 04c9 43703433 		.ascii "Cp437\0"
 3308      3700
 3309 04cf 03       		.byte	0x3
GAS LISTING C:\Users\jisu8\AppData\Local\Temp\ccM43flq.s 			page 89


 3310 04d0 03       		.uleb128 0x3
 3311 04d1 55544638 		.ascii "UTF8\0"
 3311      00
 3312 04d6 04       		.byte	0x4
 3313 04d7 03       		.uleb128 0x3
 3314 04d8 42494E41 		.ascii "BINARY\0"
 3314      525900
 3315 04df 05       		.byte	0x5
 3316 04e0 00       		.byte	0
 3317 04e1 05       		.uleb128 0x5
 3318 04e2 43686172 		.ascii "CharacterSet_t\0"
 3318      61637465 
 3318      72536574 
 3318      5F7400
 3319 04f1 08       		.byte	0x8
 3320 04f2 2C       		.byte	0x2c
 3321 04f3 02       		.byte	0x2
 3322 04f4 9C040000 		.long	0x49c
 3323 04f8 04       		.uleb128 0x4
 3324 04f9 08       		.byte	0x8
 3325 04fa 04       		.byte	0x4
 3326 04fb 646F7562 		.ascii "double\0"
 3326      6C6500
 3327 0502 04       		.uleb128 0x4
 3328 0503 04       		.byte	0x4
 3329 0504 04       		.byte	0x4
 3330 0505 666C6F61 		.ascii "float\0"
 3330      7400
 3331 050b 0B       		.uleb128 0xb
 3332 050c 5F696D70 		.ascii "_imp____mb_cur_max\0"
 3332      5F5F5F5F 
 3332      6D625F63 
 3332      75725F6D 
 3332      617800
 3333 051f 09       		.byte	0x9
 3334 0520 73       		.byte	0x73
 3335 0521 10       		.byte	0x10
 3336 0522 C5010000 		.long	0x1c5
 3337 0526 01       		.byte	0x1
 3338 0527 01       		.byte	0x1
 3339 0528 0C       		.uleb128 0xc
 3340 0529 4A010000 		.long	0x14a
 3341 052d 38050000 		.long	0x538
 3342 0531 0D       		.uleb128 0xd
 3343 0532 DF000000 		.long	0xdf
 3344 0536 00       		.byte	0
 3345 0537 00       		.byte	0
 3346 0538 0B       		.uleb128 0xb
 3347 0539 5F737973 		.ascii "_sys_errlist\0"
 3347      5F657272 
 3347      6C697374 
 3347      00
 3348 0546 09       		.byte	0x9
 3349 0547 AC       		.byte	0xac
 3350 0548 26       		.byte	0x26
 3351 0549 28050000 		.long	0x528
 3352 054d 01       		.byte	0x1
GAS LISTING C:\Users\jisu8\AppData\Local\Temp\ccM43flq.s 			page 90


 3353 054e 01       		.byte	0x1
 3354 054f 0B       		.uleb128 0xb
 3355 0550 5F737973 		.ascii "_sys_nerr\0"
 3355      5F6E6572 
 3355      7200
 3356 055a 09       		.byte	0x9
 3357 055b AD       		.byte	0xad
 3358 055c 24       		.byte	0x24
 3359 055d 3E010000 		.long	0x13e
 3360 0561 01       		.byte	0x1
 3361 0562 01       		.byte	0x1
 3362 0563 0E       		.uleb128 0xe
 3363 0564 5F696D70 		.ascii "_imp____argc\0"
 3363      5F5F5F5F 
 3363      61726763 
 3363      00
 3364 0571 09       		.byte	0x9
 3365 0572 1901     		.word	0x119
 3366 0574 10       		.byte	0x10
 3367 0575 C5010000 		.long	0x1c5
 3368 0579 01       		.byte	0x1
 3369 057a 01       		.byte	0x1
 3370 057b 0E       		.uleb128 0xe
 3371 057c 5F696D70 		.ascii "_imp____argv\0"
 3371      5F5F5F5F 
 3371      61726776 
 3371      00
 3372 0589 09       		.byte	0x9
 3373 058a 1D01     		.word	0x11d
 3374 058c 13       		.byte	0x13
 3375 058d 93050000 		.long	0x593
 3376 0591 01       		.byte	0x1
 3377 0592 01       		.byte	0x1
 3378 0593 0A       		.uleb128 0xa
 3379 0594 04       		.byte	0x4
 3380 0595 99050000 		.long	0x599
 3381 0599 0A       		.uleb128 0xa
 3382 059a 04       		.byte	0x4
 3383 059b 4A010000 		.long	0x14a
 3384 059f 0E       		.uleb128 0xe
 3385 05a0 5F696D70 		.ascii "_imp____wargv\0"
 3385      5F5F5F5F 
 3385      77617267 
 3385      7600
 3386 05ae 09       		.byte	0x9
 3387 05af 2101     		.word	0x121
 3388 05b1 16       		.byte	0x16
 3389 05b2 B8050000 		.long	0x5b8
 3390 05b6 01       		.byte	0x1
 3391 05b7 01       		.byte	0x1
 3392 05b8 0A       		.uleb128 0xa
 3393 05b9 04       		.byte	0x4
 3394 05ba BE050000 		.long	0x5be
 3395 05be 0A       		.uleb128 0xa
 3396 05bf 04       		.byte	0x4
 3397 05c0 BF010000 		.long	0x1bf
 3398 05c4 0E       		.uleb128 0xe
GAS LISTING C:\Users\jisu8\AppData\Local\Temp\ccM43flq.s 			page 91


 3399 05c5 5F696D70 		.ascii "_imp___environ\0"
 3399      5F5F5F65 
 3399      6E766972 
 3399      6F6E00
 3400 05d4 09       		.byte	0x9
 3401 05d5 2701     		.word	0x127
 3402 05d7 13       		.byte	0x13
 3403 05d8 93050000 		.long	0x593
 3404 05dc 01       		.byte	0x1
 3405 05dd 01       		.byte	0x1
 3406 05de 0E       		.uleb128 0xe
 3407 05df 5F696D70 		.ascii "_imp___wenviron\0"
 3407      5F5F5F77 
 3407      656E7669 
 3407      726F6E00 
 3408 05ef 09       		.byte	0x9
 3409 05f0 2C01     		.word	0x12c
 3410 05f2 16       		.byte	0x16
 3411 05f3 B8050000 		.long	0x5b8
 3412 05f7 01       		.byte	0x1
 3413 05f8 01       		.byte	0x1
 3414 05f9 0E       		.uleb128 0xe
 3415 05fa 5F696D70 		.ascii "_imp___pgmptr\0"
 3415      5F5F5F70 
 3415      676D7074 
 3415      7200
 3416 0608 09       		.byte	0x9
 3417 0609 3201     		.word	0x132
 3418 060b 12       		.byte	0x12
 3419 060c 99050000 		.long	0x599
 3420 0610 01       		.byte	0x1
 3421 0611 01       		.byte	0x1
 3422 0612 0E       		.uleb128 0xe
 3423 0613 5F696D70 		.ascii "_imp___wpgmptr\0"
 3423      5F5F5F77 
 3423      70676D70 
 3423      747200
 3424 0622 09       		.byte	0x9
 3425 0623 3701     		.word	0x137
 3426 0625 15       		.byte	0x15
 3427 0626 BE050000 		.long	0x5be
 3428 062a 01       		.byte	0x1
 3429 062b 01       		.byte	0x1
 3430 062c 0E       		.uleb128 0xe
 3431 062d 5F696D70 		.ascii "_imp___osplatform\0"
 3431      5F5F5F6F 
 3431      73706C61 
 3431      74666F72 
 3431      6D00
 3432 063f 09       		.byte	0x9
 3433 0640 3C01     		.word	0x13c
 3434 0642 19       		.byte	0x19
 3435 0643 49060000 		.long	0x649
 3436 0647 01       		.byte	0x1
 3437 0648 01       		.byte	0x1
 3438 0649 0A       		.uleb128 0xa
 3439 064a 04       		.byte	0x4
GAS LISTING C:\Users\jisu8\AppData\Local\Temp\ccM43flq.s 			page 92


 3440 064b DF000000 		.long	0xdf
 3441 064f 0E       		.uleb128 0xe
 3442 0650 5F696D70 		.ascii "_imp___osver\0"
 3442      5F5F5F6F 
 3442      73766572 
 3442      00
 3443 065d 09       		.byte	0x9
 3444 065e 4101     		.word	0x141
 3445 0660 19       		.byte	0x19
 3446 0661 49060000 		.long	0x649
 3447 0665 01       		.byte	0x1
 3448 0666 01       		.byte	0x1
 3449 0667 0E       		.uleb128 0xe
 3450 0668 5F696D70 		.ascii "_imp___winver\0"
 3450      5F5F5F77 
 3450      696E7665 
 3450      7200
 3451 0676 09       		.byte	0x9
 3452 0677 4601     		.word	0x146
 3453 0679 19       		.byte	0x19
 3454 067a 49060000 		.long	0x649
 3455 067e 01       		.byte	0x1
 3456 067f 01       		.byte	0x1
 3457 0680 0E       		.uleb128 0xe
 3458 0681 5F696D70 		.ascii "_imp___winmajor\0"
 3458      5F5F5F77 
 3458      696E6D61 
 3458      6A6F7200 
 3459 0691 09       		.byte	0x9
 3460 0692 4B01     		.word	0x14b
 3461 0694 19       		.byte	0x19
 3462 0695 49060000 		.long	0x649
 3463 0699 01       		.byte	0x1
 3464 069a 01       		.byte	0x1
 3465 069b 0E       		.uleb128 0xe
 3466 069c 5F696D70 		.ascii "_imp___winminor\0"
 3466      5F5F5F77 
 3466      696E6D69 
 3466      6E6F7200 
 3467 06ac 09       		.byte	0x9
 3468 06ad 5001     		.word	0x150
 3469 06af 19       		.byte	0x19
 3470 06b0 49060000 		.long	0x649
 3471 06b4 01       		.byte	0x1
 3472 06b5 01       		.byte	0x1
 3473 06b6 0B       		.uleb128 0xb
 3474 06b7 5F616D62 		.ascii "_amblksiz\0"
 3474      6C6B7369 
 3474      7A00
 3475 06c1 0A       		.byte	0xa
 3476 06c2 35       		.byte	0x35
 3477 06c3 17       		.byte	0x17
 3478 06c4 DF000000 		.long	0xdf
 3479 06c8 01       		.byte	0x1
 3480 06c9 01       		.byte	0x1
 3481 06ca 0F       		.uleb128 0xf
 3482 06cb 5F696F62 		.ascii "_iobuf\0"
GAS LISTING C:\Users\jisu8\AppData\Local\Temp\ccM43flq.s 			page 93


 3482      756600
 3483 06d2 20       		.byte	0x20
 3484 06d3 0B       		.byte	0xb
 3485 06d4 1A       		.byte	0x1a
 3486 06d5 0A       		.byte	0xa
 3487 06d6 6A070000 		.long	0x76a
 3488 06da 07       		.uleb128 0x7
 3489 06db 5F707472 		.ascii "_ptr\0"
 3489      00
 3490 06e0 0B       		.byte	0xb
 3491 06e1 1B       		.byte	0x1b
 3492 06e2 0B       		.byte	0xb
 3493 06e3 4A010000 		.long	0x14a
 3494 06e7 02       		.byte	0x2
 3495 06e8 23       		.byte	0x23
 3496 06e9 00       		.uleb128 0
 3497 06ea 07       		.uleb128 0x7
 3498 06eb 5F636E74 		.ascii "_cnt\0"
 3498      00
 3499 06f0 0B       		.byte	0xb
 3500 06f1 1C       		.byte	0x1c
 3501 06f2 09       		.byte	0x9
 3502 06f3 3E010000 		.long	0x13e
 3503 06f7 02       		.byte	0x2
 3504 06f8 23       		.byte	0x23
 3505 06f9 04       		.uleb128 0x4
 3506 06fa 07       		.uleb128 0x7
 3507 06fb 5F626173 		.ascii "_base\0"
 3507      6500
 3508 0701 0B       		.byte	0xb
 3509 0702 1D       		.byte	0x1d
 3510 0703 0B       		.byte	0xb
 3511 0704 4A010000 		.long	0x14a
 3512 0708 02       		.byte	0x2
 3513 0709 23       		.byte	0x23
 3514 070a 08       		.uleb128 0x8
 3515 070b 07       		.uleb128 0x7
 3516 070c 5F666C61 		.ascii "_flag\0"
 3516      6700
 3517 0712 0B       		.byte	0xb
 3518 0713 1E       		.byte	0x1e
 3519 0714 09       		.byte	0x9
 3520 0715 3E010000 		.long	0x13e
 3521 0719 02       		.byte	0x2
 3522 071a 23       		.byte	0x23
 3523 071b 0C       		.uleb128 0xc
 3524 071c 07       		.uleb128 0x7
 3525 071d 5F66696C 		.ascii "_file\0"
 3525      6500
 3526 0723 0B       		.byte	0xb
 3527 0724 1F       		.byte	0x1f
 3528 0725 09       		.byte	0x9
 3529 0726 3E010000 		.long	0x13e
 3530 072a 02       		.byte	0x2
 3531 072b 23       		.byte	0x23
 3532 072c 10       		.uleb128 0x10
 3533 072d 07       		.uleb128 0x7
GAS LISTING C:\Users\jisu8\AppData\Local\Temp\ccM43flq.s 			page 94


 3534 072e 5F636861 		.ascii "_charbuf\0"
 3534      72627566 
 3534      00
 3535 0737 0B       		.byte	0xb
 3536 0738 20       		.byte	0x20
 3537 0739 09       		.byte	0x9
 3538 073a 3E010000 		.long	0x13e
 3539 073e 02       		.byte	0x2
 3540 073f 23       		.byte	0x23
 3541 0740 14       		.uleb128 0x14
 3542 0741 07       		.uleb128 0x7
 3543 0742 5F627566 		.ascii "_bufsiz\0"
 3543      73697A00 
 3544 074a 0B       		.byte	0xb
 3545 074b 21       		.byte	0x21
 3546 074c 09       		.byte	0x9
 3547 074d 3E010000 		.long	0x13e
 3548 0751 02       		.byte	0x2
 3549 0752 23       		.byte	0x23
 3550 0753 18       		.uleb128 0x18
 3551 0754 07       		.uleb128 0x7
 3552 0755 5F746D70 		.ascii "_tmpfname\0"
 3552      666E616D 
 3552      6500
 3553 075f 0B       		.byte	0xb
 3554 0760 22       		.byte	0x22
 3555 0761 0B       		.byte	0xb
 3556 0762 4A010000 		.long	0x14a
 3557 0766 02       		.byte	0x2
 3558 0767 23       		.byte	0x23
 3559 0768 1C       		.uleb128 0x1c
 3560 0769 00       		.byte	0
 3561 076a 05       		.uleb128 0x5
 3562 076b 46494C45 		.ascii "FILE\0"
 3562      00
 3563 0770 0B       		.byte	0xb
 3564 0771 24       		.byte	0x24
 3565 0772 19       		.byte	0x19
 3566 0773 CA060000 		.long	0x6ca
 3567 0777 0C       		.uleb128 0xc
 3568 0778 6A070000 		.long	0x76a
 3569 077c 82070000 		.long	0x782
 3570 0780 10       		.uleb128 0x10
 3571 0781 00       		.byte	0
 3572 0782 0B       		.uleb128 0xb
 3573 0783 5F696D70 		.ascii "_imp___iob\0"
 3573      5F5F5F69 
 3573      6F6200
 3574 078e 0B       		.byte	0xb
 3575 078f 5C       		.byte	0x5c
 3576 0790 10       		.byte	0x10
 3577 0791 97070000 		.long	0x797
 3578 0795 01       		.byte	0x1
 3579 0796 01       		.byte	0x1
 3580 0797 0A       		.uleb128 0xa
 3581 0798 04       		.byte	0x4
 3582 0799 77070000 		.long	0x777
GAS LISTING C:\Users\jisu8\AppData\Local\Temp\ccM43flq.s 			page 95


 3583 079d 02       		.uleb128 0x2
 3584 079e 07       		.byte	0x7
 3585 079f 04       		.byte	0x4
 3586 07a0 DF000000 		.long	0xdf
 3587 07a4 01       		.byte	0x1
 3588 07a5 1C       		.byte	0x1c
 3589 07a6 01       		.byte	0x1
 3590 07a7 E8070000 		.long	0x7e8
 3591 07ab 03       		.uleb128 0x3
 3592 07ac 414C5048 		.ascii "ALPHA\0"
 3592      4100
 3593 07b2 00       		.byte	0
 3594 07b3 03       		.uleb128 0x3
 3595 07b4 4C4F5745 		.ascii "LOWER\0"
 3595      5200
 3596 07ba 01       		.byte	0x1
 3597 07bb 03       		.uleb128 0x3
 3598 07bc 4D495845 		.ascii "MIXED\0"
 3598      4400
 3599 07c2 02       		.byte	0x2
 3600 07c3 03       		.uleb128 0x3
 3601 07c4 50554E43 		.ascii "PUNCT\0"
 3601      5400
 3602 07ca 03       		.byte	0x3
 3603 07cb 03       		.uleb128 0x3
 3604 07cc 414C5048 		.ascii "ALPHA_SHIFT\0"
 3604      415F5348 
 3604      49465400 
 3605 07d8 04       		.byte	0x4
 3606 07d9 03       		.uleb128 0x3
 3607 07da 50554E43 		.ascii "PUNCT_SHIFT\0"
 3607      545F5348 
 3607      49465400 
 3608 07e6 05       		.byte	0x5
 3609 07e7 00       		.byte	0
 3610 07e8 05       		.uleb128 0x5
 3611 07e9 4D6F6465 		.ascii "Mode_t\0"
 3611      5F7400
 3612 07f0 01       		.byte	0x1
 3613 07f1 23       		.byte	0x23
 3614 07f2 02       		.byte	0x2
 3615 07f3 9D070000 		.long	0x79d
 3616 07f7 02       		.uleb128 0x2
 3617 07f8 07       		.byte	0x7
 3618 07f9 04       		.byte	0x4
 3619 07fa DF000000 		.long	0xdf
 3620 07fe 01       		.byte	0x1
 3621 07ff 26       		.byte	0x26
 3622 0800 01       		.byte	0x1
 3623 0801 79090000 		.long	0x979
 3624 0805 11       		.uleb128 0x11
 3625 0806 54455854 		.ascii "TEXT_COMPACTION_MODE_LATCH\0"
 3625      5F434F4D 
 3625      50414354 
 3625      494F4E5F 
 3625      4D4F4445 
 3626 0821 8403     		.word	0x384
GAS LISTING C:\Users\jisu8\AppData\Local\Temp\ccM43flq.s 			page 96


 3627 0823 11       		.uleb128 0x11
 3628 0824 42595445 		.ascii "BYTE_COMPACTION_MODE_LATCH\0"
 3628      5F434F4D 
 3628      50414354 
 3628      494F4E5F 
 3628      4D4F4445 
 3629 083f 8503     		.word	0x385
 3630 0841 11       		.uleb128 0x11
 3631 0842 4E554D45 		.ascii "NUMERIC_COMPACTION_MODE_LATCH\0"
 3631      5249435F 
 3631      434F4D50 
 3631      41435449 
 3631      4F4E5F4D 
 3632 0860 8603     		.word	0x386
 3633 0862 11       		.uleb128 0x11
 3634 0863 4D4F4445 		.ascii "MODE_SHIFT_TO_BYTE_COMPACTION_MODE\0"
 3634      5F534849 
 3634      46545F54 
 3634      4F5F4259 
 3634      54455F43 
 3635 0886 9103     		.word	0x391
 3636 0888 11       		.uleb128 0x11
 3637 0889 4C494E4B 		.ascii "LINKAGE_OTHER\0"
 3637      4147455F 
 3637      4F544845 
 3637      5200
 3638 0897 9603     		.word	0x396
 3639 0899 11       		.uleb128 0x11
 3640 089a 4C494E4B 		.ascii "LINKAGE_EANUCC\0"
 3640      4147455F 
 3640      45414E55 
 3640      434300
 3641 08a9 9803     		.word	0x398
 3642 08ab 11       		.uleb128 0x11
 3643 08ac 52454144 		.ascii "READER_INIT\0"
 3643      45525F49 
 3643      4E495400 
 3644 08b8 9903     		.word	0x399
 3645 08ba 11       		.uleb128 0x11
 3646 08bb 4D414352 		.ascii "MACRO_PDF417_TERMINATOR\0"
 3646      4F5F5044 
 3646      46343137 
 3646      5F544552 
 3646      4D494E41 
 3647 08d3 9A03     		.word	0x39a
 3648 08d5 11       		.uleb128 0x11
 3649 08d6 42454749 		.ascii "BEGIN_MACRO_PDF417_OPTIONAL_FIELD\0"
 3649      4E5F4D41 
 3649      43524F5F 
 3649      50444634 
 3649      31375F4F 
 3650 08f8 9B03     		.word	0x39b
 3651 08fa 11       		.uleb128 0x11
 3652 08fb 42595445 		.ascii "BYTE_COMPACTION_MODE_LATCH_6\0"
 3652      5F434F4D 
 3652      50414354 
 3652      494F4E5F 
GAS LISTING C:\Users\jisu8\AppData\Local\Temp\ccM43flq.s 			page 97


 3652      4D4F4445 
 3653 0918 9C03     		.word	0x39c
 3654 091a 11       		.uleb128 0x11
 3655 091b 4543495F 		.ascii "ECI_USER_DEFINED\0"
 3655      55534552 
 3655      5F444546 
 3655      494E4544 
 3655      00
 3656 092c 9D03     		.word	0x39d
 3657 092e 11       		.uleb128 0x11
 3658 092f 4543495F 		.ascii "ECI_GENERAL_PURPOSE\0"
 3658      47454E45 
 3658      52414C5F 
 3658      50555250 
 3658      4F534500 
 3659 0943 9E03     		.word	0x39e
 3660 0945 11       		.uleb128 0x11
 3661 0946 4543495F 		.ascii "ECI_CHARSET\0"
 3661      43484152 
 3661      53455400 
 3662 0952 9F03     		.word	0x39f
 3663 0954 11       		.uleb128 0x11
 3664 0955 42454749 		.ascii "BEGIN_MACRO_PDF417_CONTROL_BLOCK\0"
 3664      4E5F4D41 
 3664      43524F5F 
 3664      50444634 
 3664      31375F43 
 3665 0976 A003     		.word	0x3a0
 3666 0978 00       		.byte	0
 3667 0979 12       		.uleb128 0x12
 3668 097a 4D41585F 		.ascii "MAX_NUMERIC_CODEWORDS\0"
 3668      4E554D45 
 3668      5249435F 
 3668      434F4445 
 3668      574F5244 
 3669 0990 01       		.byte	0x1
 3670 0991 3B       		.byte	0x3b
 3671 0992 12       		.byte	0x12
 3672 0993 45010000 		.long	0x145
 3673 0997 05       		.byte	0x5
 3674 0998 03       		.byte	0x3
 3675 0999 00000000 		.long	_MAX_NUMERIC_CODEWORDS
 3676 099d 02       		.uleb128 0x2
 3677 099e 07       		.byte	0x7
 3678 099f 04       		.byte	0x4
 3679 09a0 DF000000 		.long	0xdf
 3680 09a4 01       		.byte	0x1
 3681 09a5 3D       		.byte	0x3d
 3682 09a6 01       		.byte	0x1
 3683 09a7 C50A0000 		.long	0xac5
 3684 09ab 03       		.uleb128 0x3
 3685 09ac 4D414352 		.ascii "MACRO_PDF417_OPTIONAL_FIELD_FILE_NAME\0"
 3685      4F5F5044 
 3685      46343137 
 3685      5F4F5054 
 3685      494F4E41 
 3686 09d2 00       		.byte	0
GAS LISTING C:\Users\jisu8\AppData\Local\Temp\ccM43flq.s 			page 98


 3687 09d3 03       		.uleb128 0x3
 3688 09d4 4D414352 		.ascii "MACRO_PDF417_OPTIONAL_FIELD_SEGMENT_COUNT\0"
 3688      4F5F5044 
 3688      46343137 
 3688      5F4F5054 
 3688      494F4E41 
 3689 09fe 01       		.byte	0x1
 3690 09ff 03       		.uleb128 0x3
 3691 0a00 4D414352 		.ascii "MACRO_PDF417_OPTIONAL_FIELD_TIME_STAMP\0"
 3691      4F5F5044 
 3691      46343137 
 3691      5F4F5054 
 3691      494F4E41 
 3692 0a27 02       		.byte	0x2
 3693 0a28 03       		.uleb128 0x3
 3694 0a29 4D414352 		.ascii "MACRO_PDF417_OPTIONAL_FIELD_SENDER\0"
 3694      4F5F5044 
 3694      46343137 
 3694      5F4F5054 
 3694      494F4E41 
 3695 0a4c 03       		.byte	0x3
 3696 0a4d 03       		.uleb128 0x3
 3697 0a4e 4D414352 		.ascii "MACRO_PDF417_OPTIONAL_FIELD_ADDRESSEE\0"
 3697      4F5F5044 
 3697      46343137 
 3697      5F4F5054 
 3697      494F4E41 
 3698 0a74 04       		.byte	0x4
 3699 0a75 03       		.uleb128 0x3
 3700 0a76 4D414352 		.ascii "MACRO_PDF417_OPTIONAL_FIELD_FILE_SIZE\0"
 3700      4F5F5044 
 3700      46343137 
 3700      5F4F5054 
 3700      494F4E41 
 3701 0a9c 05       		.byte	0x5
 3702 0a9d 03       		.uleb128 0x3
 3703 0a9e 4D414352 		.ascii "MACRO_PDF417_OPTIONAL_FIELD_CHECKSUM\0"
 3703      4F5F5044 
 3703      46343137 
 3703      5F4F5054 
 3703      494F4E41 
 3704 0ac3 06       		.byte	0x6
 3705 0ac4 00       		.byte	0
 3706 0ac5 12       		.uleb128 0x12
 3707 0ac6 50554E43 		.ascii "PUNCT_CHARS\0"
 3707      545F4348 
 3707      41525300 
 3708 0ad2 01       		.byte	0x1
 3709 0ad3 48       		.byte	0x48
 3710 0ad4 14       		.byte	0x14
 3711 0ad5 DF0A0000 		.long	0xadf
 3712 0ad9 05       		.byte	0x5
 3713 0ada 03       		.byte	0x3
 3714 0adb 00000000 		.long	_PUNCT_CHARS
 3715 0adf 0A       		.uleb128 0xa
 3716 0ae0 04       		.byte	0x4
 3717 0ae1 58010000 		.long	0x158
GAS LISTING C:\Users\jisu8\AppData\Local\Temp\ccM43flq.s 			page 99


 3718 0ae5 12       		.uleb128 0x12
 3719 0ae6 4D495845 		.ascii "MIXED_CHARS\0"
 3719      445F4348 
 3719      41525300 
 3720 0af2 01       		.byte	0x1
 3721 0af3 49       		.byte	0x49
 3722 0af4 14       		.byte	0x14
 3723 0af5 DF0A0000 		.long	0xadf
 3724 0af9 05       		.byte	0x5
 3725 0afa 03       		.byte	0x3
 3726 0afb 04000000 		.long	_MIXED_CHARS
 3727 0aff 12       		.uleb128 0x12
 3728 0b00 4E554D42 		.ascii "NUMBER_OF_SEQUENCE_CODEWORDS\0"
 3728      45525F4F 
 3728      465F5345 
 3728      5155454E 
 3728      43455F43 
 3729 0b1d 01       		.byte	0x1
 3730 0b1e 4B       		.byte	0x4b
 3731 0b1f 12       		.byte	0x12
 3732 0b20 45010000 		.long	0x145
 3733 0b24 05       		.byte	0x5
 3734 0b25 03       		.byte	0x3
 3735 0b26 3C000000 		.long	_NUMBER_OF_SEQUENCE_CODEWORDS
 3736 0b2a 13       		.uleb128 0x13
 3737 0b2b 01       		.byte	0x1
 3738 0b2c 42697453 		.ascii "BitStreamDecode\0"
 3738      74726561 
 3738      6D446563 
 3738      6F646500 
 3739 0b3c 01       		.byte	0x1
 3740 0b3d A303     		.word	0x3a3
 3741 0b3f 06       		.byte	0x6
 3742 0b40 01       		.byte	0x1
 3743 0b41 C7130000 		.long	LFB32
 3744 0b45 F6170000 		.long	LFE32
 3745 0b49 00000000 		.secrel32	LLST14
 3746 0b4d 01       		.byte	0x1
 3747 0b4e 690C0000 		.long	0xc69
 3748 0b52 14       		.uleb128 0x14
 3749 0b53 4465636F 		.ascii "DecoderResult\0"
 3749      64657252 
 3749      6573756C 
 3749      7400
 3750 0b61 01       		.byte	0x1
 3751 0b62 A303     		.word	0x3a3
 3752 0b64 28       		.byte	0x28
 3753 0b65 690C0000 		.long	0xc69
 3754 0b69 02       		.byte	0x2
 3755 0b6a 91       		.byte	0x91
 3756 0b6b 00       		.sleb128 0
 3757 0b6c 15       		.uleb128 0x15
 3758 0b6d 16000000 		.secrel32	LASF2
 3759 0b71 01       		.byte	0x1
 3760 0b72 A303     		.word	0x3a3
 3761 0b74 43       		.byte	0x43
 3762 0b75 6F0C0000 		.long	0xc6f
GAS LISTING C:\Users\jisu8\AppData\Local\Temp\ccM43flq.s 			page 100


 3763 0b79 02       		.byte	0x2
 3764 0b7a 91       		.byte	0x91
 3765 0b7b 04       		.sleb128 4
 3766 0b7c 14       		.uleb128 0x14
 3767 0b7d 65634C65 		.ascii "ecLevel\0"
 3767      76656C00 
 3768 0b85 01       		.byte	0x1
 3769 0b86 A303     		.word	0x3a3
 3770 0b88 52       		.byte	0x52
 3771 0b89 3E010000 		.long	0x13e
 3772 0b8d 02       		.byte	0x2
 3773 0b8e 91       		.byte	0x91
 3774 0b8f 08       		.sleb128 8
 3775 0b90 14       		.uleb128 0x14
 3776 0b91 63686172 		.ascii "characterSet\0"
 3776      61637465 
 3776      72536574 
 3776      00
 3777 0b9e 01       		.byte	0x1
 3778 0b9f A303     		.word	0x3a3
 3779 0ba1 71       		.byte	0x71
 3780 0ba2 E0010000 		.long	0x1e0
 3781 0ba6 02       		.byte	0x2
 3782 0ba7 91       		.byte	0x91
 3783 0ba8 0C       		.sleb128 12
 3784 0ba9 16       		.uleb128 0x16
 3785 0baa 66000000 		.secrel32	LASF3
 3786 0bae 01       		.byte	0x1
 3787 0baf A503     		.word	0x3a5
 3788 0bb1 10       		.byte	0x10
 3789 0bb2 750C0000 		.long	0xc75
 3790 0bb6 03       		.byte	0x3
 3791 0bb7 91       		.byte	0x91
 3792 0bb8 FC7E     		.sleb128 -132
 3793 0bba 16       		.uleb128 0x16
 3794 0bbb 5F000000 		.secrel32	LASF4
 3795 0bbf 01       		.byte	0x1
 3796 0bc0 A603     		.word	0x3a6
 3797 0bc2 10       		.byte	0x10
 3798 0bc3 750C0000 		.long	0xc75
 3799 0bc7 03       		.byte	0x3
 3800 0bc8 91       		.byte	0x91
 3801 0bc9 987E     		.sleb128 -232
 3802 0bcb 16       		.uleb128 0x16
 3803 0bcc 43000000 		.secrel32	LASF5
 3804 0bd0 01       		.byte	0x1
 3805 0bd1 A703     		.word	0x3a7
 3806 0bd3 11       		.byte	0x11
 3807 0bd4 E1040000 		.long	0x4e1
 3808 0bd8 03       		.byte	0x3
 3809 0bd9 91       		.byte	0x91
 3810 0bda 947E     		.sleb128 -236
 3811 0bdc 17       		.uleb128 0x17
 3812 0bdd 72656164 		.ascii "readerInit\0"
 3812      6572496E 
 3812      697400
 3813 0be8 01       		.byte	0x1
GAS LISTING C:\Users\jisu8\AppData\Local\Temp\ccM43flq.s 			page 101


 3814 0be9 A803     		.word	0x3a8
 3815 0beb 0A       		.byte	0xa
 3816 0bec 27020000 		.long	0x227
 3817 0bf0 02       		.byte	0x2
 3818 0bf1 91       		.byte	0x91
 3819 0bf2 6F       		.sleb128 -17
 3820 0bf3 16       		.uleb128 0x16
 3821 0bf4 07000000 		.secrel32	LASF6
 3822 0bf8 01       		.byte	0x1
 3823 0bf9 A903     		.word	0x3a9
 3824 0bfb 17       		.byte	0x17
 3825 0bfc 7F040000 		.long	0x47f
 3826 0c00 03       		.byte	0x3
 3827 0c01 91       		.byte	0x91
 3828 0c02 D87D     		.sleb128 -296
 3829 0c04 16       		.uleb128 0x16
 3830 0c05 20000000 		.secrel32	LASF7
 3831 0c09 01       		.byte	0x1
 3832 0c0a AB03     		.word	0x3ab
 3833 0c0c 06       		.byte	0x6
 3834 0c0d 3E010000 		.long	0x13e
 3835 0c11 02       		.byte	0x2
 3836 0c12 91       		.byte	0x91
 3837 0c13 68       		.sleb128 -24
 3838 0c14 16       		.uleb128 0x16
 3839 0c15 00000000 		.secrel32	LASF1
 3840 0c19 01       		.byte	0x1
 3841 0c1a AC03     		.word	0x3ac
 3842 0c1c 11       		.byte	0x11
 3843 0c1d EF000000 		.long	0xef
 3844 0c21 02       		.byte	0x2
 3845 0c22 91       		.byte	0x91
 3846 0c23 64       		.sleb128 -28
 3847 0c24 17       		.uleb128 0x17
 3848 0c25 73616900 		.ascii "sai\0"
 3849 0c29 01       		.byte	0x1
 3850 0c2a 0404     		.word	0x404
 3851 0c2c 19       		.byte	0x19
 3852 0c2d 5D010000 		.long	0x15d
 3853 0c31 03       		.byte	0x3
 3854 0c32 91       		.byte	0x91
 3855 0c33 CC7D     		.sleb128 -308
 3856 0c35 17       		.uleb128 0x17
 3857 0c36 65634C65 		.ascii "ecLevelChar\0"
 3857      76656C43 
 3857      68617200 
 3858 0c42 01       		.byte	0x1
 3859 0c43 0F04     		.word	0x40f
 3860 0c45 06       		.byte	0x6
 3861 0c46 850C0000 		.long	0xc85
 3862 0c4a 03       		.byte	0x3
 3863 0c4b 91       		.byte	0x91
 3864 0c4c C47D     		.sleb128 -316
 3865 0c4e 18       		.uleb128 0x18
 3866 0c4f 26140000 		.long	LBB24
 3867 0c53 47160000 		.long	LBE24
 3868 0c57 16       		.uleb128 0x16
GAS LISTING C:\Users\jisu8\AppData\Local\Temp\ccM43flq.s 			page 102


 3869 0c58 30000000 		.secrel32	LASF8
 3870 0c5c 01       		.byte	0x1
 3871 0c5d B003     		.word	0x3b0
 3872 0c5f 07       		.byte	0x7
 3873 0c60 3E010000 		.long	0x13e
 3874 0c64 02       		.byte	0x2
 3875 0c65 91       		.byte	0x91
 3876 0c66 60       		.sleb128 -32
 3877 0c67 00       		.byte	0
 3878 0c68 00       		.byte	0
 3879 0c69 0A       		.uleb128 0xa
 3880 0c6a 04       		.byte	0x4
 3881 0c6b 69030000 		.long	0x369
 3882 0c6f 0A       		.uleb128 0xa
 3883 0c70 04       		.byte	0x4
 3884 0c71 45010000 		.long	0x145
 3885 0c75 0C       		.uleb128 0xc
 3886 0c76 E6010000 		.long	0x1e6
 3887 0c7a 850C0000 		.long	0xc85
 3888 0c7e 0D       		.uleb128 0xd
 3889 0c7f DF000000 		.long	0xdf
 3890 0c83 63       		.byte	0x63
 3891 0c84 00       		.byte	0
 3892 0c85 0C       		.uleb128 0xc
 3893 0c86 3E010000 		.long	0x13e
 3894 0c8a 950C0000 		.long	0xc95
 3895 0c8e 0D       		.uleb128 0xd
 3896 0c8f DF000000 		.long	0xdf
 3897 0c93 01       		.byte	0x1
 3898 0c94 00       		.byte	0
 3899 0c95 19       		.uleb128 0x19
 3900 0c96 53747275 		.ascii "StructuredAppendInfo_Init\0"
 3900      63747572 
 3900      65644170 
 3900      70656E64 
 3900      496E666F 
 3901 0cb0 01       		.byte	0x1
 3902 0cb1 9C03     		.word	0x39c
 3903 0cb3 0D       		.byte	0xd
 3904 0cb4 01       		.byte	0x1
 3905 0cb5 A4130000 		.long	LFB31
 3906 0cb9 C7130000 		.long	LFE31
 3907 0cbd 38000000 		.secrel32	LLST13
 3908 0cc1 01       		.byte	0x1
 3909 0cc2 D70C0000 		.long	0xcd7
 3910 0cc6 14       		.uleb128 0x14
 3911 0cc7 73616900 		.ascii "sai\0"
 3912 0ccb 01       		.byte	0x1
 3913 0ccc 9C03     		.word	0x39c
 3914 0cce 40       		.byte	0x40
 3915 0ccf D70C0000 		.long	0xcd7
 3916 0cd3 02       		.byte	0x2
 3917 0cd4 91       		.byte	0x91
 3918 0cd5 00       		.sleb128 0
 3919 0cd6 00       		.byte	0
 3920 0cd7 0A       		.uleb128 0xa
 3921 0cd8 04       		.byte	0x4
GAS LISTING C:\Users\jisu8\AppData\Local\Temp\ccM43flq.s 			page 103


 3922 0cd9 5D010000 		.long	0x15d
 3923 0cdd 19       		.uleb128 0x19
 3924 0cde 4465636F 		.ascii "DecoderResultExtra_init\0"
 3924      64657252 
 3924      6573756C 
 3924      74457874 
 3924      72615F69 
 3925 0cf6 01       		.byte	0x1
 3926 0cf7 8E03     		.word	0x38e
 3927 0cf9 0D       		.byte	0xd
 3928 0cfa 01       		.byte	0x1
 3929 0cfb 26130000 		.long	LFB30
 3930 0cff A4130000 		.long	LFE30
 3931 0d03 70000000 		.secrel32	LLST12
 3932 0d07 01       		.byte	0x1
 3933 0d08 1D0D0000 		.long	0xd1d
 3934 0d0c 15       		.uleb128 0x15
 3935 0d0d 5F000000 		.secrel32	LASF4
 3936 0d11 01       		.byte	0x1
 3937 0d12 8E03     		.word	0x38e
 3938 0d14 3C       		.byte	0x3c
 3939 0d15 1D0D0000 		.long	0xd1d
 3940 0d19 02       		.byte	0x2
 3941 0d1a 91       		.byte	0x91
 3942 0d1b 00       		.sleb128 0
 3943 0d1c 00       		.byte	0
 3944 0d1d 0A       		.uleb128 0xa
 3945 0d1e 04       		.byte	0x4
 3946 0d1f 7F040000 		.long	0x47f
 3947 0d23 1A       		.uleb128 0x1a
 3948 0d24 01       		.byte	0x1
 3949 0d25 4465636F 		.ascii "DecodeMacroBlock\0"
 3949      64654D61 
 3949      63726F42 
 3949      6C6F636B 
 3949      00
 3950 0d36 01       		.byte	0x1
 3951 0d37 ED02     		.word	0x2ed
 3952 0d39 10       		.byte	0x10
 3953 0d3a 01       		.byte	0x1
 3954 0d3b EF000000 		.long	0xef
 3955 0d3f CD0E0000 		.long	LFB29
 3956 0d43 26130000 		.long	LFE29
 3957 0d47 A8000000 		.secrel32	LLST11
 3958 0d4b 01       		.byte	0x1
 3959 0d4c 3A0F0000 		.long	0xf3a
 3960 0d50 15       		.uleb128 0x15
 3961 0d51 16000000 		.secrel32	LASF2
 3962 0d55 01       		.byte	0x1
 3963 0d56 ED02     		.word	0x2ed
 3964 0d58 2D       		.byte	0x2d
 3965 0d59 6F0C0000 		.long	0xc6f
 3966 0d5d 02       		.byte	0x2
 3967 0d5e 91       		.byte	0x91
 3968 0d5f 00       		.sleb128 0
 3969 0d60 15       		.uleb128 0x15
 3970 0d61 20000000 		.secrel32	LASF7
GAS LISTING C:\Users\jisu8\AppData\Local\Temp\ccM43flq.s 			page 104


 3971 0d65 01       		.byte	0x1
 3972 0d66 ED02     		.word	0x2ed
 3973 0d68 3C       		.byte	0x3c
 3974 0d69 3E010000 		.long	0x13e
 3975 0d6d 02       		.byte	0x2
 3976 0d6e 91       		.byte	0x91
 3977 0d6f 04       		.sleb128 4
 3978 0d70 15       		.uleb128 0x15
 3979 0d71 07000000 		.secrel32	LASF6
 3980 0d75 01       		.byte	0x1
 3981 0d76 ED02     		.word	0x2ed
 3982 0d78 5E       		.byte	0x5e
 3983 0d79 1D0D0000 		.long	0xd1d
 3984 0d7d 02       		.byte	0x2
 3985 0d7e 91       		.byte	0x91
 3986 0d7f 08       		.sleb128 8
 3987 0d80 14       		.uleb128 0x14
 3988 0d81 6E657874 		.ascii "next\0"
 3988      00
 3989 0d86 01       		.byte	0x1
 3990 0d87 EE02     		.word	0x2ee
 3991 0d89 0E       		.byte	0xe
 3992 0d8a 3E010000 		.long	0x13e
 3993 0d8e 02       		.byte	0x2
 3994 0d8f 91       		.byte	0x91
 3995 0d90 0C       		.sleb128 12
 3996 0d91 17       		.uleb128 0x17
 3997 0d92 7365676D 		.ascii "segmentIndexArray\0"
 3997      656E7449 
 3997      6E646578 
 3997      41727261 
 3997      7900
 3998 0da4 01       		.byte	0x1
 3999 0da5 F902     		.word	0x2f9
 4000 0da7 06       		.byte	0x6
 4001 0da8 3A0F0000 		.long	0xf3a
 4002 0dac 03       		.byte	0x3
 4003 0dad 91       		.byte	0x91
 4004 0dae 5C       		.sleb128 -36
 4005 0daf 06       		.byte	0x6
 4006 0db0 17       		.uleb128 0x17
 4007 0db1 73747242 		.ascii "strBuf\0"
 4007      756600
 4008 0db8 01       		.byte	0x1
 4009 0db9 FF02     		.word	0x2ff
 4010 0dbb 07       		.byte	0x7
 4011 0dbc 4D0F0000 		.long	0xf4d
 4012 0dc0 03       		.byte	0x3
 4013 0dc1 91       		.byte	0x91
 4014 0dc2 D07E     		.sleb128 -176
 4015 0dc4 16       		.uleb128 0x16
 4016 0dc5 00000000 		.secrel32	LASF1
 4017 0dc9 01       		.byte	0x1
 4018 0dca 0003     		.word	0x300
 4019 0dcc 11       		.byte	0x11
 4020 0dcd EF000000 		.long	0xef
 4021 0dd1 02       		.byte	0x2
GAS LISTING C:\Users\jisu8\AppData\Local\Temp\ccM43flq.s 			page 105


 4022 0dd2 91       		.byte	0x91
 4023 0dd3 68       		.sleb128 -24
 4024 0dd4 17       		.uleb128 0x17
 4025 0dd5 6F707469 		.ascii "optionalFieldsStart\0"
 4025      6F6E616C 
 4025      4669656C 
 4025      64735374 
 4025      61727400 
 4026 0de9 01       		.byte	0x1
 4027 0dea 1603     		.word	0x316
 4028 0dec 06       		.byte	0x6
 4029 0ded 3E010000 		.long	0x13e
 4030 0df1 02       		.byte	0x2
 4031 0df2 91       		.byte	0x91
 4032 0df3 64       		.sleb128 -28
 4033 0df4 1B       		.uleb128 0x1b
 4034 0df5 4C0F0000 		.long	LBB15
 4035 0df9 810F0000 		.long	LBE15
 4036 0dfd 100E0000 		.long	0xe10
 4037 0e01 17       		.uleb128 0x17
 4038 0e02 6900     		.ascii "i\0"
 4039 0e04 01       		.byte	0x1
 4040 0e05 FA02     		.word	0x2fa
 4041 0e07 0B       		.byte	0xb
 4042 0e08 3E010000 		.long	0x13e
 4043 0e0c 02       		.byte	0x2
 4044 0e0d 91       		.byte	0x91
 4045 0e0e 6C       		.sleb128 -20
 4046 0e0f 00       		.byte	0
 4047 0e10 1B       		.uleb128 0x1b
 4048 0e11 8E100000 		.long	LBB16
 4049 0e15 DD100000 		.long	LBE16
 4050 0e19 340E0000 		.long	0xe34
 4051 0e1d 17       		.uleb128 0x17
 4052 0e1e 66696C65 		.ascii "fileName\0"
 4052      4E616D65 
 4052      00
 4053 0e27 01       		.byte	0x1
 4054 0e28 2C03     		.word	0x32c
 4055 0e2a 0C       		.byte	0xc
 4056 0e2b 4D0F0000 		.long	0xf4d
 4057 0e2f 03       		.byte	0x3
 4058 0e30 91       		.byte	0x91
 4059 0e31 EC7D     		.sleb128 -276
 4060 0e33 00       		.byte	0
 4061 0e34 1B       		.uleb128 0x1b
 4062 0e35 DD100000 		.long	LBB17
 4063 0e39 2C110000 		.long	LBE17
 4064 0e3d 560E0000 		.long	0xe56
 4065 0e41 17       		.uleb128 0x17
 4066 0e42 73656E64 		.ascii "sender\0"
 4066      657200
 4067 0e49 01       		.byte	0x1
 4068 0e4a 3403     		.word	0x334
 4069 0e4c 0C       		.byte	0xc
 4070 0e4d 4D0F0000 		.long	0xf4d
 4071 0e51 03       		.byte	0x3
GAS LISTING C:\Users\jisu8\AppData\Local\Temp\ccM43flq.s 			page 106


 4072 0e52 91       		.byte	0x91
 4073 0e53 EC7D     		.sleb128 -276
 4074 0e55 00       		.byte	0
 4075 0e56 1B       		.uleb128 0x1b
 4076 0e57 2C110000 		.long	LBB18
 4077 0e5b 7B110000 		.long	LBE18
 4078 0e5f 7B0E0000 		.long	0xe7b
 4079 0e63 17       		.uleb128 0x17
 4080 0e64 61646472 		.ascii "addressee\0"
 4080      65737365 
 4080      6500
 4081 0e6e 01       		.byte	0x1
 4082 0e6f 3C03     		.word	0x33c
 4083 0e71 0C       		.byte	0xc
 4084 0e72 4D0F0000 		.long	0xf4d
 4085 0e76 03       		.byte	0x3
 4086 0e77 91       		.byte	0x91
 4087 0e78 EC7D     		.sleb128 -276
 4088 0e7a 00       		.byte	0
 4089 0e7b 1B       		.uleb128 0x1b
 4090 0e7c 7B110000 		.long	LBB19
 4091 0e80 C4110000 		.long	LBE19
 4092 0e84 A20E0000 		.long	0xea2
 4093 0e88 17       		.uleb128 0x17
 4094 0e89 7365676D 		.ascii "segmentCount\0"
 4094      656E7443 
 4094      6F756E74 
 4094      00
 4095 0e96 01       		.byte	0x1
 4096 0e97 4303     		.word	0x343
 4097 0e99 10       		.byte	0x10
 4098 0e9a 54020000 		.long	0x254
 4099 0e9e 02       		.byte	0x2
 4100 0e9f 91       		.byte	0x91
 4101 0ea0 50       		.sleb128 -48
 4102 0ea1 00       		.byte	0
 4103 0ea2 1B       		.uleb128 0x1b
 4104 0ea3 C4110000 		.long	LBB20
 4105 0ea7 13120000 		.long	LBE20
 4106 0eab C60E0000 		.long	0xec6
 4107 0eaf 17       		.uleb128 0x17
 4108 0eb0 74696D65 		.ascii "timestamp\0"
 4108      7374616D 
 4108      7000
 4109 0eba 01       		.byte	0x1
 4110 0ebb 4B03     		.word	0x34b
 4111 0ebd 10       		.byte	0x10
 4112 0ebe 54020000 		.long	0x254
 4113 0ec2 02       		.byte	0x2
 4114 0ec3 91       		.byte	0x91
 4115 0ec4 48       		.sleb128 -56
 4116 0ec5 00       		.byte	0
 4117 0ec6 1B       		.uleb128 0x1b
 4118 0ec7 13120000 		.long	LBB21
 4119 0ecb 59120000 		.long	LBE21
 4120 0ecf E90E0000 		.long	0xee9
 4121 0ed3 17       		.uleb128 0x17
GAS LISTING C:\Users\jisu8\AppData\Local\Temp\ccM43flq.s 			page 107


 4122 0ed4 63686563 		.ascii "checksum\0"
 4122      6B73756D 
 4122      00
 4123 0edd 01       		.byte	0x1
 4124 0ede 5303     		.word	0x353
 4125 0ee0 10       		.byte	0x10
 4126 0ee1 54020000 		.long	0x254
 4127 0ee5 02       		.byte	0x2
 4128 0ee6 91       		.byte	0x91
 4129 0ee7 40       		.sleb128 -64
 4130 0ee8 00       		.byte	0
 4131 0ee9 1B       		.uleb128 0x1b
 4132 0eea 59120000 		.long	LBB22
 4133 0eee A5120000 		.long	LBE22
 4134 0ef2 0D0F0000 		.long	0xf0d
 4135 0ef6 17       		.uleb128 0x17
 4136 0ef7 66696C65 		.ascii "fileSize\0"
 4136      53697A65 
 4136      00
 4137 0f00 01       		.byte	0x1
 4138 0f01 5B03     		.word	0x35b
 4139 0f03 10       		.byte	0x10
 4140 0f04 54020000 		.long	0x254
 4141 0f08 03       		.byte	0x3
 4142 0f09 91       		.byte	0x91
 4143 0f0a B87F     		.sleb128 -72
 4144 0f0c 00       		.byte	0
 4145 0f0d 18       		.uleb128 0x18
 4146 0f0e E5120000 		.long	LBB23
 4147 0f12 12130000 		.long	LBE23
 4148 0f16 17       		.uleb128 0x17
 4149 0f17 6F707469 		.ascii "optionalFieldsLength\0"
 4149      6F6E616C 
 4149      4669656C 
 4149      64734C65 
 4149      6E677468 
 4150 0f2c 01       		.byte	0x1
 4151 0f2d 8103     		.word	0x381
 4152 0f2f 07       		.byte	0x7
 4153 0f30 3E010000 		.long	0x13e
 4154 0f34 03       		.byte	0x3
 4155 0f35 91       		.byte	0x91
 4156 0f36 B47F     		.sleb128 -76
 4157 0f38 00       		.byte	0
 4158 0f39 00       		.byte	0
 4159 0f3a 0C       		.uleb128 0xc
 4160 0f3b 3E010000 		.long	0x13e
 4161 0f3f 4D0F0000 		.long	0xf4d
 4162 0f43 1C       		.uleb128 0x1c
 4163 0f44 DF000000 		.long	0xdf
 4164 0f48 03       		.byte	0x3
 4165 0f49 91       		.byte	0x91
 4166 0f4a 60       		.sleb128 -32
 4167 0f4b 06       		.byte	0x6
 4168 0f4c 00       		.byte	0
 4169 0f4d 0C       		.uleb128 0xc
 4170 0f4e 50010000 		.long	0x150
GAS LISTING C:\Users\jisu8\AppData\Local\Temp\ccM43flq.s 			page 108


 4171 0f52 5D0F0000 		.long	0xf5d
 4172 0f56 0D       		.uleb128 0xd
 4173 0f57 DF000000 		.long	0xdf
 4174 0f5b 63       		.byte	0x63
 4175 0f5c 00       		.byte	0
 4176 0f5d 1D       		.uleb128 0x1d
 4177 0f5e 4465636F 		.ascii "DecodeMacroOptionalNumericField\0"
 4177      64654D61 
 4177      63726F4F 
 4177      7074696F 
 4177      6E616C4E 
 4178 0f7e 01       		.byte	0x1
 4179 0f7f D702     		.word	0x2d7
 4180 0f81 0C       		.byte	0xc
 4181 0f82 01       		.byte	0x1
 4182 0f83 3E010000 		.long	0x13e
 4183 0f87 F80D0000 		.long	LFB28
 4184 0f8b CD0E0000 		.long	LFE28
 4185 0f8f E0000000 		.secrel32	LLST10
 4186 0f93 01       		.byte	0x1
 4187 0f94 0F100000 		.long	0x100f
 4188 0f98 15       		.uleb128 0x15
 4189 0f99 00000000 		.secrel32	LASF1
 4190 0f9d 01       		.byte	0x1
 4191 0f9e D702     		.word	0x2d7
 4192 0fa0 3B       		.byte	0x3b
 4193 0fa1 EF000000 		.long	0xef
 4194 0fa5 02       		.byte	0x2
 4195 0fa6 91       		.byte	0x91
 4196 0fa7 00       		.sleb128 0
 4197 0fa8 15       		.uleb128 0x15
 4198 0fa9 16000000 		.secrel32	LASF2
 4199 0fad 01       		.byte	0x1
 4200 0fae D702     		.word	0x2d7
 4201 0fb0 4F       		.byte	0x4f
 4202 0fb1 6F0C0000 		.long	0xc6f
 4203 0fb5 02       		.byte	0x2
 4204 0fb6 91       		.byte	0x91
 4205 0fb7 04       		.sleb128 4
 4206 0fb8 15       		.uleb128 0x15
 4207 0fb9 20000000 		.secrel32	LASF7
 4208 0fbd 01       		.byte	0x1
 4209 0fbe D702     		.word	0x2d7
 4210 0fc0 5E       		.byte	0x5e
 4211 0fc1 3E010000 		.long	0x13e
 4212 0fc5 02       		.byte	0x2
 4213 0fc6 91       		.byte	0x91
 4214 0fc7 08       		.sleb128 8
 4215 0fc8 14       		.uleb128 0x14
 4216 0fc9 6669656C 		.ascii "field\0"
 4216      6400
 4217 0fcf 01       		.byte	0x1
 4218 0fd0 D802     		.word	0x2d8
 4219 0fd2 17       		.byte	0x17
 4220 0fd3 54020000 		.long	0x254
 4221 0fd7 03       		.byte	0x3
 4222 0fd8 91       		.byte	0x91
GAS LISTING C:\Users\jisu8\AppData\Local\Temp\ccM43flq.s 			page 109


 4223 0fd9 987E     		.sleb128 -232
 4224 0fdb 16       		.uleb128 0x16
 4225 0fdc 66000000 		.secrel32	LASF3
 4226 0fe0 01       		.byte	0x1
 4227 0fe1 DE02     		.word	0x2de
 4228 0fe3 10       		.byte	0x10
 4229 0fe4 750C0000 		.long	0xc75
 4230 0fe8 03       		.byte	0x3
 4231 0fe9 91       		.byte	0x91
 4232 0fea 8C7F     		.sleb128 -116
 4233 0fec 16       		.uleb128 0x16
 4234 0fed 5F000000 		.secrel32	LASF4
 4235 0ff1 01       		.byte	0x1
 4236 0ff2 DF02     		.word	0x2df
 4237 0ff4 07       		.byte	0x7
 4238 0ff5 4D0F0000 		.long	0xf4d
 4239 0ff9 03       		.byte	0x3
 4240 0ffa 91       		.byte	0x91
 4241 0ffb A87E     		.sleb128 -216
 4242 0ffd 16       		.uleb128 0x16
 4243 0ffe 43000000 		.secrel32	LASF5
 4244 1002 01       		.byte	0x1
 4245 1003 E202     		.word	0x2e2
 4246 1005 11       		.byte	0x11
 4247 1006 E1040000 		.long	0x4e1
 4248 100a 03       		.byte	0x3
 4249 100b 91       		.byte	0x91
 4250 100c A47E     		.sleb128 -220
 4251 100e 00       		.byte	0
 4252 100f 1D       		.uleb128 0x1d
 4253 1010 4465636F 		.ascii "DecodeMacroOptionalTextField\0"
 4253      64654D61 
 4253      63726F4F 
 4253      7074696F 
 4253      6E616C54 
 4254 102d 01       		.byte	0x1
 4255 102e C402     		.word	0x2c4
 4256 1030 0C       		.byte	0xc
 4257 1031 01       		.byte	0x1
 4258 1032 3E010000 		.long	0x13e
 4259 1036 5D0D0000 		.long	LFB27
 4260 103a F80D0000 		.long	LFE27
 4261 103e 18010000 		.secrel32	LLST9
 4262 1042 01       		.byte	0x1
 4263 1043 BD100000 		.long	0x10bd
 4264 1047 15       		.uleb128 0x15
 4265 1048 00000000 		.secrel32	LASF1
 4266 104c 01       		.byte	0x1
 4267 104d C402     		.word	0x2c4
 4268 104f 38       		.byte	0x38
 4269 1050 EF000000 		.long	0xef
 4270 1054 02       		.byte	0x2
 4271 1055 91       		.byte	0x91
 4272 1056 00       		.sleb128 0
 4273 1057 15       		.uleb128 0x15
 4274 1058 16000000 		.secrel32	LASF2
 4275 105c 01       		.byte	0x1
GAS LISTING C:\Users\jisu8\AppData\Local\Temp\ccM43flq.s 			page 110


 4276 105d C402     		.word	0x2c4
 4277 105f 4C       		.byte	0x4c
 4278 1060 6F0C0000 		.long	0xc6f
 4279 1064 02       		.byte	0x2
 4280 1065 91       		.byte	0x91
 4281 1066 04       		.sleb128 4
 4282 1067 15       		.uleb128 0x15
 4283 1068 20000000 		.secrel32	LASF7
 4284 106c 01       		.byte	0x1
 4285 106d C402     		.word	0x2c4
 4286 106f 5B       		.byte	0x5b
 4287 1070 3E010000 		.long	0x13e
 4288 1074 02       		.byte	0x2
 4289 1075 91       		.byte	0x91
 4290 1076 08       		.sleb128 8
 4291 1077 14       		.uleb128 0x14
 4292 1078 6669656C 		.ascii "field\0"
 4292      6400
 4293 107e 01       		.byte	0x1
 4294 107f C502     		.word	0x2c5
 4295 1081 12       		.byte	0x12
 4296 1082 4A010000 		.long	0x14a
 4297 1086 02       		.byte	0x2
 4298 1087 91       		.byte	0x91
 4299 1088 0C       		.sleb128 12
 4300 1089 16       		.uleb128 0x16
 4301 108a 66000000 		.secrel32	LASF3
 4302 108e 01       		.byte	0x1
 4303 108f C702     		.word	0x2c7
 4304 1091 10       		.byte	0x10
 4305 1092 750C0000 		.long	0xc75
 4306 1096 03       		.byte	0x3
 4307 1097 91       		.byte	0x91
 4308 1098 8C7F     		.sleb128 -116
 4309 109a 16       		.uleb128 0x16
 4310 109b 5F000000 		.secrel32	LASF4
 4311 109f 01       		.byte	0x1
 4312 10a0 C802     		.word	0x2c8
 4313 10a2 07       		.byte	0x7
 4314 10a3 4D0F0000 		.long	0xf4d
 4315 10a7 03       		.byte	0x3
 4316 10a8 91       		.byte	0x91
 4317 10a9 A87E     		.sleb128 -216
 4318 10ab 16       		.uleb128 0x16
 4319 10ac 43000000 		.secrel32	LASF5
 4320 10b0 01       		.byte	0x1
 4321 10b1 CB02     		.word	0x2cb
 4322 10b3 11       		.byte	0x11
 4323 10b4 E1040000 		.long	0x4e1
 4324 10b8 03       		.byte	0x3
 4325 10b9 91       		.byte	0x91
 4326 10ba A47E     		.sleb128 -220
 4327 10bc 00       		.byte	0
 4328 10bd 1D       		.uleb128 0x1d
 4329 10be 4E756D65 		.ascii "NumericCompaction\0"
 4329      72696343 
 4329      6F6D7061 
GAS LISTING C:\Users\jisu8\AppData\Local\Temp\ccM43flq.s 			page 111


 4329      6374696F 
 4329      6E00
 4330 10d0 01       		.byte	0x1
 4331 10d1 7C02     		.word	0x27c
 4332 10d3 0C       		.byte	0xc
 4333 10d4 01       		.byte	0x1
 4334 10d5 3E010000 		.long	0x13e
 4335 10d9 490B0000 		.long	LFB26
 4336 10dd 5D0D0000 		.long	LFE26
 4337 10e1 50010000 		.secrel32	LLST8
 4338 10e5 01       		.byte	0x1
 4339 10e6 DD110000 		.long	0x11dd
 4340 10ea 15       		.uleb128 0x15
 4341 10eb 00000000 		.secrel32	LASF1
 4342 10ef 01       		.byte	0x1
 4343 10f0 7C02     		.word	0x27c
 4344 10f2 2D       		.byte	0x2d
 4345 10f3 EF000000 		.long	0xef
 4346 10f7 02       		.byte	0x2
 4347 10f8 91       		.byte	0x91
 4348 10f9 00       		.sleb128 0
 4349 10fa 15       		.uleb128 0x15
 4350 10fb 16000000 		.secrel32	LASF2
 4351 10ff 01       		.byte	0x1
 4352 1100 7C02     		.word	0x27c
 4353 1102 41       		.byte	0x41
 4354 1103 6F0C0000 		.long	0xc6f
 4355 1107 02       		.byte	0x2
 4356 1108 91       		.byte	0x91
 4357 1109 04       		.sleb128 4
 4358 110a 15       		.uleb128 0x15
 4359 110b 20000000 		.secrel32	LASF7
 4360 110f 01       		.byte	0x1
 4361 1110 7C02     		.word	0x27c
 4362 1112 50       		.byte	0x50
 4363 1113 3E010000 		.long	0x13e
 4364 1117 02       		.byte	0x2
 4365 1118 91       		.byte	0x91
 4366 1119 08       		.sleb128 8
 4367 111a 15       		.uleb128 0x15
 4368 111b 66000000 		.secrel32	LASF3
 4369 111f 01       		.byte	0x1
 4370 1120 7D02     		.word	0x27d
 4371 1122 19       		.byte	0x19
 4372 1123 63030000 		.long	0x363
 4373 1127 02       		.byte	0x2
 4374 1128 91       		.byte	0x91
 4375 1129 0C       		.sleb128 12
 4376 112a 15       		.uleb128 0x15
 4377 112b 5F000000 		.secrel32	LASF4
 4378 112f 01       		.byte	0x1
 4379 1130 7D02     		.word	0x27d
 4380 1132 2F       		.byte	0x2f
 4381 1133 4A010000 		.long	0x14a
 4382 1137 02       		.byte	0x2
 4383 1138 91       		.byte	0x91
 4384 1139 10       		.sleb128 16
GAS LISTING C:\Users\jisu8\AppData\Local\Temp\ccM43flq.s 			page 112


 4385 113a 15       		.uleb128 0x15
 4386 113b 43000000 		.secrel32	LASF5
 4387 113f 01       		.byte	0x1
 4388 1140 7D02     		.word	0x27d
 4389 1142 48       		.byte	0x48
 4390 1143 DD110000 		.long	0x11dd
 4391 1147 02       		.byte	0x2
 4392 1148 91       		.byte	0x91
 4393 1149 14       		.sleb128 20
 4394 114a 16       		.uleb128 0x16
 4395 114b 2A000000 		.secrel32	LASF0
 4396 114f 01       		.byte	0x1
 4397 1150 7F02     		.word	0x27f
 4398 1152 06       		.byte	0x6
 4399 1153 3E010000 		.long	0x13e
 4400 1157 02       		.byte	0x2
 4401 1158 91       		.byte	0x91
 4402 1159 6C       		.sleb128 -20
 4403 115a 17       		.uleb128 0x17
 4404 115b 656E6400 		.ascii "end\0"
 4405 115f 01       		.byte	0x1
 4406 1160 8002     		.word	0x280
 4407 1162 0A       		.byte	0xa
 4408 1163 27020000 		.long	0x227
 4409 1167 02       		.byte	0x2
 4410 1168 91       		.byte	0x91
 4411 1169 6B       		.sleb128 -21
 4412 116a 17       		.uleb128 0x17
 4413 116b 6E756D65 		.ascii "numericCodewords\0"
 4413      72696343 
 4413      6F646577 
 4413      6F726473 
 4413      00
 4414 117c 01       		.byte	0x1
 4415 117d 8202     		.word	0x282
 4416 117f 06       		.byte	0x6
 4417 1180 E3110000 		.long	0x11e3
 4418 1184 03       		.byte	0x3
 4419 1185 91       		.byte	0x91
 4420 1186 60       		.sleb128 -32
 4421 1187 06       		.byte	0x6
 4422 1188 18       		.uleb128 0x18
 4423 1189 AF0B0000 		.long	LBB12
 4424 118d 3D0D0000 		.long	LBE12
 4425 1191 16       		.uleb128 0x16
 4426 1192 30000000 		.secrel32	LASF8
 4427 1196 01       		.byte	0x1
 4428 1197 8602     		.word	0x286
 4429 1199 07       		.byte	0x7
 4430 119a 3E010000 		.long	0x13e
 4431 119e 02       		.byte	0x2
 4432 119f 91       		.byte	0x91
 4433 11a0 5C       		.sleb128 -36
 4434 11a1 1B       		.uleb128 0x1b
 4435 11a2 F60B0000 		.long	LBB13
 4436 11a6 420C0000 		.long	LBE13
 4437 11aa C0110000 		.long	0x11c0
GAS LISTING C:\Users\jisu8\AppData\Local\Temp\ccM43flq.s 			page 113


 4438 11ae 17       		.uleb128 0x17
 4439 11af 746D7000 		.ascii "tmp\0"
 4440 11b3 01       		.byte	0x1
 4441 11b4 8F02     		.word	0x28f
 4442 11b6 0B       		.byte	0xb
 4443 11b7 4D0F0000 		.long	0xf4d
 4444 11bb 03       		.byte	0x3
 4445 11bc 91       		.byte	0x91
 4446 11bd F87E     		.sleb128 -136
 4447 11bf 00       		.byte	0
 4448 11c0 18       		.uleb128 0x18
 4449 11c1 F40C0000 		.long	LBB14
 4450 11c5 3D0D0000 		.long	LBE14
 4451 11c9 17       		.uleb128 0x17
 4452 11ca 746D7000 		.ascii "tmp\0"
 4453 11ce 01       		.byte	0x1
 4454 11cf B202     		.word	0x2b2
 4455 11d1 0A       		.byte	0xa
 4456 11d2 4D0F0000 		.long	0xf4d
 4457 11d6 03       		.byte	0x3
 4458 11d7 91       		.byte	0x91
 4459 11d8 F87E     		.sleb128 -136
 4460 11da 00       		.byte	0
 4461 11db 00       		.byte	0
 4462 11dc 00       		.byte	0
 4463 11dd 0A       		.uleb128 0xa
 4464 11de 04       		.byte	0x4
 4465 11df E1040000 		.long	0x4e1
 4466 11e3 0C       		.uleb128 0xc
 4467 11e4 3E010000 		.long	0x13e
 4468 11e8 F6110000 		.long	0x11f6
 4469 11ec 1C       		.uleb128 0x1c
 4470 11ed DF000000 		.long	0xdf
 4471 11f1 03       		.byte	0x3
 4472 11f2 91       		.byte	0x91
 4473 11f3 64       		.sleb128 -28
 4474 11f4 06       		.byte	0x6
 4475 11f5 00       		.byte	0
 4476 11f6 1E       		.uleb128 0x1e
 4477 11f7 4465636F 		.ascii "DecodeBase900toBase10\0"
 4477      64654261 
 4477      73653930 
 4477      30746F42 
 4477      61736531 
 4478 120d 01       		.byte	0x1
 4479 120e 5102     		.word	0x251
 4480 1210 17       		.byte	0x17
 4481 1211 01       		.byte	0x1
 4482 1212 EF000000 		.long	0xef
 4483 1216 430B0000 		.long	LFB25
 4484 121a 490B0000 		.long	LFE25
 4485 121e 02       		.byte	0x2
 4486 121f 74       		.byte	0x74
 4487 1220 04       		.sleb128 4
 4488 1221 01       		.byte	0x1
 4489 1222 60120000 		.long	0x1260
 4490 1226 15       		.uleb128 0x15
GAS LISTING C:\Users\jisu8\AppData\Local\Temp\ccM43flq.s 			page 114


 4491 1227 16000000 		.secrel32	LASF2
 4492 122b 01       		.byte	0x1
 4493 122c 5102     		.word	0x251
 4494 122e 39       		.byte	0x39
 4495 122f 6F0C0000 		.long	0xc6f
 4496 1233 02       		.byte	0x2
 4497 1234 91       		.byte	0x91
 4498 1235 00       		.sleb128 0
 4499 1236 15       		.uleb128 0x15
 4500 1237 2A000000 		.secrel32	LASF0
 4501 123b 01       		.byte	0x1
 4502 123c 5102     		.word	0x251
 4503 123e 48       		.byte	0x48
 4504 123f 3E010000 		.long	0x13e
 4505 1243 02       		.byte	0x2
 4506 1244 91       		.byte	0x91
 4507 1245 04       		.sleb128 4
 4508 1246 14       		.uleb128 0x14
 4509 1247 72657375 		.ascii "resultString\0"
 4509      6C745374 
 4509      72696E67 
 4509      00
 4510 1254 01       		.byte	0x1
 4511 1255 5102     		.word	0x251
 4512 1257 56       		.byte	0x56
 4513 1258 4A010000 		.long	0x14a
 4514 125c 02       		.byte	0x2
 4515 125d 91       		.byte	0x91
 4516 125e 08       		.sleb128 8
 4517 125f 00       		.byte	0
 4518 1260 1D       		.uleb128 0x1d
 4519 1261 42797465 		.ascii "ByteCompaction\0"
 4519      436F6D70 
 4519      61637469 
 4519      6F6E00
 4520 1270 01       		.byte	0x1
 4521 1271 F901     		.word	0x1f9
 4522 1273 0C       		.byte	0xc
 4523 1274 01       		.byte	0x1
 4524 1275 3E010000 		.long	0x13e
 4525 1279 7E090000 		.long	LFB24
 4526 127d 430B0000 		.long	LFE24
 4527 1281 88010000 		.secrel32	LLST7
 4528 1285 01       		.byte	0x1
 4529 1286 AA130000 		.long	0x13aa
 4530 128a 15       		.uleb128 0x15
 4531 128b 00000000 		.secrel32	LASF1
 4532 128f 01       		.byte	0x1
 4533 1290 F901     		.word	0x1f9
 4534 1292 2A       		.byte	0x2a
 4535 1293 EF000000 		.long	0xef
 4536 1297 02       		.byte	0x2
 4537 1298 91       		.byte	0x91
 4538 1299 00       		.sleb128 0
 4539 129a 14       		.uleb128 0x14
 4540 129b 6D6F6465 		.ascii "mode\0"
 4540      00
GAS LISTING C:\Users\jisu8\AppData\Local\Temp\ccM43flq.s 			page 115


 4541 12a0 01       		.byte	0x1
 4542 12a1 F901     		.word	0x1f9
 4543 12a3 36       		.byte	0x36
 4544 12a4 3E010000 		.long	0x13e
 4545 12a8 02       		.byte	0x2
 4546 12a9 91       		.byte	0x91
 4547 12aa 04       		.sleb128 4
 4548 12ab 15       		.uleb128 0x15
 4549 12ac 16000000 		.secrel32	LASF2
 4550 12b0 01       		.byte	0x1
 4551 12b1 F901     		.word	0x1f9
 4552 12b3 48       		.byte	0x48
 4553 12b4 6F0C0000 		.long	0xc6f
 4554 12b8 02       		.byte	0x2
 4555 12b9 91       		.byte	0x91
 4556 12ba 08       		.sleb128 8
 4557 12bb 15       		.uleb128 0x15
 4558 12bc 20000000 		.secrel32	LASF7
 4559 12c0 01       		.byte	0x1
 4560 12c1 F901     		.word	0x1f9
 4561 12c3 57       		.byte	0x57
 4562 12c4 3E010000 		.long	0x13e
 4563 12c8 02       		.byte	0x2
 4564 12c9 91       		.byte	0x91
 4565 12ca 0C       		.sleb128 12
 4566 12cb 15       		.uleb128 0x15
 4567 12cc 66000000 		.secrel32	LASF3
 4568 12d0 01       		.byte	0x1
 4569 12d1 FA01     		.word	0x1fa
 4570 12d3 19       		.byte	0x19
 4571 12d4 63030000 		.long	0x363
 4572 12d8 02       		.byte	0x2
 4573 12d9 91       		.byte	0x91
 4574 12da 10       		.sleb128 16
 4575 12db 15       		.uleb128 0x15
 4576 12dc 5F000000 		.secrel32	LASF4
 4577 12e0 01       		.byte	0x1
 4578 12e1 FA01     		.word	0x1fa
 4579 12e3 2F       		.byte	0x2f
 4580 12e4 4A010000 		.long	0x14a
 4581 12e8 02       		.byte	0x2
 4582 12e9 91       		.byte	0x91
 4583 12ea 14       		.sleb128 20
 4584 12eb 15       		.uleb128 0x15
 4585 12ec 43000000 		.secrel32	LASF5
 4586 12f0 01       		.byte	0x1
 4587 12f1 FA01     		.word	0x1fa
 4588 12f3 48       		.byte	0x48
 4589 12f4 DD110000 		.long	0x11dd
 4590 12f8 02       		.byte	0x2
 4591 12f9 91       		.byte	0x91
 4592 12fa 18       		.sleb128 24
 4593 12fb 16       		.uleb128 0x16
 4594 12fc 35000000 		.secrel32	LASF9
 4595 1300 01       		.byte	0x1
 4596 1301 FD01     		.word	0x1fd
 4597 1303 06       		.byte	0x6
GAS LISTING C:\Users\jisu8\AppData\Local\Temp\ccM43flq.s 			page 116


 4598 1304 3E010000 		.long	0x13e
 4599 1308 02       		.byte	0x2
 4600 1309 91       		.byte	0x91
 4601 130a 4C       		.sleb128 -52
 4602 130b 17       		.uleb128 0x17
 4603 130c 62617463 		.ascii "batches\0"
 4603      68657300 
 4604 1314 01       		.byte	0x1
 4605 1315 FE01     		.word	0x1fe
 4606 1317 06       		.byte	0x6
 4607 1318 3E010000 		.long	0x13e
 4608 131c 02       		.byte	0x2
 4609 131d 91       		.byte	0x91
 4610 131e 50       		.sleb128 -48
 4611 131f 1B       		.uleb128 0x1b
 4612 1320 EF090000 		.long	LBB7
 4613 1324 DD0A0000 		.long	LBE7
 4614 1328 91130000 		.long	0x1391
 4615 132c 17       		.uleb128 0x17
 4616 132d 62617463 		.ascii "batch\0"
 4616      6800
 4617 1333 01       		.byte	0x1
 4618 1334 0802     		.word	0x208
 4619 1336 0B       		.byte	0xb
 4620 1337 3E010000 		.long	0x13e
 4621 133b 02       		.byte	0x2
 4622 133c 91       		.byte	0x91
 4623 133d 6C       		.sleb128 -20
 4624 133e 18       		.uleb128 0x18
 4625 133f FB090000 		.long	LBB8
 4626 1343 CD0A0000 		.long	LBE8
 4627 1347 17       		.uleb128 0x17
 4628 1348 76616C75 		.ascii "value\0"
 4628      6500
 4629 134e 01       		.byte	0x1
 4630 134f 0A02     		.word	0x20a
 4631 1351 0B       		.byte	0xb
 4632 1352 44020000 		.long	0x244
 4633 1356 02       		.byte	0x2
 4634 1357 91       		.byte	0x91
 4635 1358 60       		.sleb128 -32
 4636 1359 1B       		.uleb128 0x1b
 4637 135a 090A0000 		.long	LBB9
 4638 135e 600A0000 		.long	LBE9
 4639 1362 77130000 		.long	0x1377
 4640 1366 16       		.uleb128 0x16
 4641 1367 2A000000 		.secrel32	LASF0
 4642 136b 01       		.byte	0x1
 4643 136c 0C02     		.word	0x20c
 4644 136e 0C       		.byte	0xc
 4645 136f 3E010000 		.long	0x13e
 4646 1373 02       		.byte	0x2
 4647 1374 91       		.byte	0x91
 4648 1375 5C       		.sleb128 -36
 4649 1376 00       		.byte	0
 4650 1377 18       		.uleb128 0x18
 4651 1378 600A0000 		.long	LBB10
GAS LISTING C:\Users\jisu8\AppData\Local\Temp\ccM43flq.s 			page 117


 4652 137c A30A0000 		.long	LBE10
 4653 1380 17       		.uleb128 0x17
 4654 1381 6A00     		.ascii "j\0"
 4655 1383 01       		.byte	0x1
 4656 1384 1102     		.word	0x211
 4657 1386 0C       		.byte	0xc
 4658 1387 3E010000 		.long	0x13e
 4659 138b 02       		.byte	0x2
 4660 138c 91       		.byte	0x91
 4661 138d 58       		.sleb128 -40
 4662 138e 00       		.byte	0
 4663 138f 00       		.byte	0
 4664 1390 00       		.byte	0
 4665 1391 18       		.uleb128 0x18
 4666 1392 DD0A0000 		.long	LBB11
 4667 1396 390B0000 		.long	LBE11
 4668 139a 17       		.uleb128 0x17
 4669 139b 6900     		.ascii "i\0"
 4670 139d 01       		.byte	0x1
 4671 139e 1A02     		.word	0x21a
 4672 13a0 0B       		.byte	0xb
 4673 13a1 3E010000 		.long	0x13e
 4674 13a5 02       		.byte	0x2
 4675 13a6 91       		.byte	0x91
 4676 13a7 54       		.sleb128 -44
 4677 13a8 00       		.byte	0
 4678 13a9 00       		.byte	0
 4679 13aa 1D       		.uleb128 0x1d
 4680 13ab 50726F63 		.ascii "ProcessByteECIs\0"
 4680      65737342 
 4680      79746545 
 4680      43497300 
 4681 13bb 01       		.byte	0x1
 4682 13bc DA01     		.word	0x1da
 4683 13be 0C       		.byte	0xc
 4684 13bf 01       		.byte	0x1
 4685 13c0 3E010000 		.long	0x13e
 4686 13c4 C8080000 		.long	LFB23
 4687 13c8 7E090000 		.long	LFE23
 4688 13cc C0010000 		.secrel32	LLST6
 4689 13d0 01       		.byte	0x1
 4690 13d1 40140000 		.long	0x1440
 4691 13d5 15       		.uleb128 0x15
 4692 13d6 16000000 		.secrel32	LASF2
 4693 13da 01       		.byte	0x1
 4694 13db DA01     		.word	0x1da
 4695 13dd 28       		.byte	0x28
 4696 13de 6F0C0000 		.long	0xc6f
 4697 13e2 02       		.byte	0x2
 4698 13e3 91       		.byte	0x91
 4699 13e4 00       		.sleb128 0
 4700 13e5 15       		.uleb128 0x15
 4701 13e6 20000000 		.secrel32	LASF7
 4702 13ea 01       		.byte	0x1
 4703 13eb DA01     		.word	0x1da
 4704 13ed 37       		.byte	0x37
 4705 13ee 3E010000 		.long	0x13e
GAS LISTING C:\Users\jisu8\AppData\Local\Temp\ccM43flq.s 			page 118


 4706 13f2 02       		.byte	0x2
 4707 13f3 91       		.byte	0x91
 4708 13f4 04       		.sleb128 4
 4709 13f5 15       		.uleb128 0x15
 4710 13f6 66000000 		.secrel32	LASF3
 4711 13fa 01       		.byte	0x1
 4712 13fb DB01     		.word	0x1db
 4713 13fd 1A       		.byte	0x1a
 4714 13fe 63030000 		.long	0x363
 4715 1402 02       		.byte	0x2
 4716 1403 91       		.byte	0x91
 4717 1404 08       		.sleb128 8
 4718 1405 15       		.uleb128 0x15
 4719 1406 5F000000 		.secrel32	LASF4
 4720 140a 01       		.byte	0x1
 4721 140b DB01     		.word	0x1db
 4722 140d 30       		.byte	0x30
 4723 140e 4A010000 		.long	0x14a
 4724 1412 02       		.byte	0x2
 4725 1413 91       		.byte	0x91
 4726 1414 0C       		.sleb128 12
 4727 1415 15       		.uleb128 0x15
 4728 1416 43000000 		.secrel32	LASF5
 4729 141a 01       		.byte	0x1
 4730 141b DB01     		.word	0x1db
 4731 141d 49       		.byte	0x49
 4732 141e DD110000 		.long	0x11dd
 4733 1422 02       		.byte	0x2
 4734 1423 91       		.byte	0x91
 4735 1424 10       		.sleb128 16
 4736 1425 18       		.uleb128 0x18
 4737 1426 D0080000 		.long	LBB6
 4738 142a 36090000 		.long	LBE6
 4739 142e 16       		.uleb128 0x16
 4740 142f 30000000 		.secrel32	LASF8
 4741 1433 01       		.byte	0x1
 4742 1434 E001     		.word	0x1e0
 4743 1436 07       		.byte	0x7
 4744 1437 3E010000 		.long	0x13e
 4745 143b 02       		.byte	0x2
 4746 143c 91       		.byte	0x91
 4747 143d 6C       		.sleb128 -20
 4748 143e 00       		.byte	0
 4749 143f 00       		.byte	0
 4750 1440 1D       		.uleb128 0x1d
 4751 1441 436F756E 		.ascii "CountByteBatches\0"
 4751      74427974 
 4751      65426174 
 4751      63686573 
 4751      00
 4752 1452 01       		.byte	0x1
 4753 1453 9B01     		.word	0x19b
 4754 1455 0C       		.byte	0xc
 4755 1456 01       		.byte	0x1
 4756 1457 3E010000 		.long	0x13e
 4757 145b 28070000 		.long	LFB22
 4758 145f C8080000 		.long	LFE22
GAS LISTING C:\Users\jisu8\AppData\Local\Temp\ccM43flq.s 			page 119


 4759 1463 F8010000 		.secrel32	LLST5
 4760 1467 01       		.byte	0x1
 4761 1468 E4140000 		.long	0x14e4
 4762 146c 15       		.uleb128 0x15
 4763 146d 00000000 		.secrel32	LASF1
 4764 1471 01       		.byte	0x1
 4765 1472 9B01     		.word	0x19b
 4766 1474 2C       		.byte	0x2c
 4767 1475 EF000000 		.long	0xef
 4768 1479 02       		.byte	0x2
 4769 147a 91       		.byte	0x91
 4770 147b 00       		.sleb128 0
 4771 147c 14       		.uleb128 0x14
 4772 147d 6D6F6465 		.ascii "mode\0"
 4772      00
 4773 1482 01       		.byte	0x1
 4774 1483 9B01     		.word	0x19b
 4775 1485 38       		.byte	0x38
 4776 1486 3E010000 		.long	0x13e
 4777 148a 02       		.byte	0x2
 4778 148b 91       		.byte	0x91
 4779 148c 04       		.sleb128 4
 4780 148d 15       		.uleb128 0x15
 4781 148e 16000000 		.secrel32	LASF2
 4782 1492 01       		.byte	0x1
 4783 1493 9B01     		.word	0x19b
 4784 1495 4A       		.byte	0x4a
 4785 1496 6F0C0000 		.long	0xc6f
 4786 149a 02       		.byte	0x2
 4787 149b 91       		.byte	0x91
 4788 149c 08       		.sleb128 8
 4789 149d 15       		.uleb128 0x15
 4790 149e 20000000 		.secrel32	LASF7
 4791 14a2 01       		.byte	0x1
 4792 14a3 9B01     		.word	0x19b
 4793 14a5 59       		.byte	0x59
 4794 14a6 3E010000 		.long	0x13e
 4795 14aa 02       		.byte	0x2
 4796 14ab 91       		.byte	0x91
 4797 14ac 0C       		.sleb128 12
 4798 14ad 15       		.uleb128 0x15
 4799 14ae 35000000 		.secrel32	LASF9
 4800 14b2 01       		.byte	0x1
 4801 14b3 9C01     		.word	0x19c
 4802 14b5 0E       		.byte	0xe
 4803 14b6 C5010000 		.long	0x1c5
 4804 14ba 02       		.byte	0x2
 4805 14bb 91       		.byte	0x91
 4806 14bc 10       		.sleb128 16
 4807 14bd 16       		.uleb128 0x16
 4808 14be 2A000000 		.secrel32	LASF0
 4809 14c2 01       		.byte	0x1
 4810 14c3 9E01     		.word	0x19e
 4811 14c5 06       		.byte	0x6
 4812 14c6 3E010000 		.long	0x13e
 4813 14ca 02       		.byte	0x2
 4814 14cb 91       		.byte	0x91
GAS LISTING C:\Users\jisu8\AppData\Local\Temp\ccM43flq.s 			page 120


 4815 14cc 6C       		.sleb128 -20
 4816 14cd 1F       		.uleb128 0x1f
 4817 14ce 00000000 		.secrel32	Ldebug_ranges0+0
 4818 14d2 16       		.uleb128 0x16
 4819 14d3 30000000 		.secrel32	LASF8
 4820 14d7 01       		.byte	0x1
 4821 14d8 A201     		.word	0x1a2
 4822 14da 07       		.byte	0x7
 4823 14db 3E010000 		.long	0x13e
 4824 14df 02       		.byte	0x2
 4825 14e0 91       		.byte	0x91
 4826 14e1 68       		.sleb128 -24
 4827 14e2 00       		.byte	0
 4828 14e3 00       		.byte	0
 4829 14e4 1D       		.uleb128 0x1d
 4830 14e5 54657874 		.ascii "TextCompaction\0"
 4830      436F6D70 
 4830      61637469 
 4830      6F6E00
 4831 14f4 01       		.byte	0x1
 4832 14f5 5101     		.word	0x151
 4833 14f7 0C       		.byte	0xc
 4834 14f8 01       		.byte	0x1
 4835 14f9 3E010000 		.long	0x13e
 4836 14fd 97040000 		.long	LFB21
 4837 1501 28070000 		.long	LFE21
 4838 1505 30020000 		.secrel32	LLST4
 4839 1509 01       		.byte	0x1
 4840 150a CD150000 		.long	0x15cd
 4841 150e 15       		.uleb128 0x15
 4842 150f 00000000 		.secrel32	LASF1
 4843 1513 01       		.byte	0x1
 4844 1514 5101     		.word	0x151
 4845 1516 2A       		.byte	0x2a
 4846 1517 EF000000 		.long	0xef
 4847 151b 02       		.byte	0x2
 4848 151c 91       		.byte	0x91
 4849 151d 00       		.sleb128 0
 4850 151e 15       		.uleb128 0x15
 4851 151f 16000000 		.secrel32	LASF2
 4852 1523 01       		.byte	0x1
 4853 1524 5101     		.word	0x151
 4854 1526 3E       		.byte	0x3e
 4855 1527 6F0C0000 		.long	0xc6f
 4856 152b 02       		.byte	0x2
 4857 152c 91       		.byte	0x91
 4858 152d 04       		.sleb128 4
 4859 152e 15       		.uleb128 0x15
 4860 152f 20000000 		.secrel32	LASF7
 4861 1533 01       		.byte	0x1
 4862 1534 5101     		.word	0x151
 4863 1536 4D       		.byte	0x4d
 4864 1537 3E010000 		.long	0x13e
 4865 153b 02       		.byte	0x2
 4866 153c 91       		.byte	0x91
 4867 153d 08       		.sleb128 8
 4868 153e 15       		.uleb128 0x15
GAS LISTING C:\Users\jisu8\AppData\Local\Temp\ccM43flq.s 			page 121


 4869 153f 66000000 		.secrel32	LASF3
 4870 1543 01       		.byte	0x1
 4871 1544 5201     		.word	0x152
 4872 1546 19       		.byte	0x19
 4873 1547 63030000 		.long	0x363
 4874 154b 02       		.byte	0x2
 4875 154c 91       		.byte	0x91
 4876 154d 0C       		.sleb128 12
 4877 154e 15       		.uleb128 0x15
 4878 154f 5F000000 		.secrel32	LASF4
 4879 1553 01       		.byte	0x1
 4880 1554 5201     		.word	0x152
 4881 1556 2F       		.byte	0x2f
 4882 1557 4A010000 		.long	0x14a
 4883 155b 02       		.byte	0x2
 4884 155c 91       		.byte	0x91
 4885 155d 10       		.sleb128 16
 4886 155e 15       		.uleb128 0x15
 4887 155f 43000000 		.secrel32	LASF5
 4888 1563 01       		.byte	0x1
 4889 1564 5201     		.word	0x152
 4890 1566 48       		.byte	0x48
 4891 1567 DD110000 		.long	0x11dd
 4892 156b 02       		.byte	0x2
 4893 156c 91       		.byte	0x91
 4894 156d 14       		.sleb128 20
 4895 156e 17       		.uleb128 0x17
 4896 156f 73697A65 		.ascii "size\0"
 4896      00
 4897 1574 01       		.byte	0x1
 4898 1575 5801     		.word	0x158
 4899 1577 06       		.byte	0x6
 4900 1578 3E010000 		.long	0x13e
 4901 157c 02       		.byte	0x2
 4902 157d 91       		.byte	0x91
 4903 157e 64       		.sleb128 -28
 4904 157f 16       		.uleb128 0x16
 4905 1580 4C000000 		.secrel32	LASF10
 4906 1584 01       		.byte	0x1
 4907 1585 5901     		.word	0x159
 4908 1587 06       		.byte	0x6
 4909 1588 CD150000 		.long	0x15cd
 4910 158c 03       		.byte	0x3
 4911 158d 91       		.byte	0x91
 4912 158e 5C       		.sleb128 -36
 4913 158f 06       		.byte	0x6
 4914 1590 17       		.uleb128 0x17
 4915 1591 696E6465 		.ascii "index\0"
 4915      7800
 4916 1597 01       		.byte	0x1
 4917 1598 5C01     		.word	0x15c
 4918 159a 06       		.byte	0x6
 4919 159b 3E010000 		.long	0x13e
 4920 159f 02       		.byte	0x2
 4921 15a0 91       		.byte	0x91
 4922 15a1 6C       		.sleb128 -20
 4923 15a2 17       		.uleb128 0x17
GAS LISTING C:\Users\jisu8\AppData\Local\Temp\ccM43flq.s 			page 122


 4924 15a3 656E6400 		.ascii "end\0"
 4925 15a7 01       		.byte	0x1
 4926 15a8 5D01     		.word	0x15d
 4927 15aa 0A       		.byte	0xa
 4928 15ab 27020000 		.long	0x227
 4929 15af 02       		.byte	0x2
 4930 15b0 91       		.byte	0x91
 4931 15b1 6B       		.sleb128 -21
 4932 15b2 18       		.uleb128 0x18
 4933 15b3 26050000 		.long	LBB3
 4934 15b7 E1060000 		.long	LBE3
 4935 15bb 16       		.uleb128 0x16
 4936 15bc 30000000 		.secrel32	LASF8
 4937 15c0 01       		.byte	0x1
 4938 15c1 6001     		.word	0x160
 4939 15c3 07       		.byte	0x7
 4940 15c4 3E010000 		.long	0x13e
 4941 15c8 02       		.byte	0x2
 4942 15c9 91       		.byte	0x91
 4943 15ca 58       		.sleb128 -40
 4944 15cb 00       		.byte	0
 4945 15cc 00       		.byte	0
 4946 15cd 0C       		.uleb128 0xc
 4947 15ce 3E010000 		.long	0x13e
 4948 15d2 E0150000 		.long	0x15e0
 4949 15d6 1C       		.uleb128 0x1c
 4950 15d7 DF000000 		.long	0xdf
 4951 15db 03       		.byte	0x3
 4952 15dc 91       		.byte	0x91
 4953 15dd 60       		.sleb128 -32
 4954 15de 06       		.byte	0x6
 4955 15df 00       		.byte	0
 4956 15e0 1D       		.uleb128 0x1d
 4957 15e1 50726F63 		.ascii "ProcessTextECI\0"
 4957      65737354 
 4957      65787445 
 4957      434900
 4958 15f0 01       		.byte	0x1
 4959 15f1 3001     		.word	0x130
 4960 15f3 0C       		.byte	0xc
 4961 15f4 01       		.byte	0x1
 4962 15f5 3E010000 		.long	0x13e
 4963 15f9 EB030000 		.long	LFB20
 4964 15fd 97040000 		.long	LFE20
 4965 1601 68020000 		.secrel32	LLST3
 4966 1605 01       		.byte	0x1
 4967 1606 5D160000 		.long	0x165d
 4968 160a 15       		.uleb128 0x15
 4969 160b 4C000000 		.secrel32	LASF10
 4970 160f 01       		.byte	0x1
 4971 1610 3001     		.word	0x130
 4972 1612 21       		.byte	0x21
 4973 1613 C5010000 		.long	0x1c5
 4974 1617 02       		.byte	0x2
 4975 1618 91       		.byte	0x91
 4976 1619 00       		.sleb128 0
 4977 161a 14       		.uleb128 0x14
GAS LISTING C:\Users\jisu8\AppData\Local\Temp\ccM43flq.s 			page 123


 4978 161b 696E6465 		.ascii "index\0"
 4978      7800
 4979 1621 01       		.byte	0x1
 4980 1622 3001     		.word	0x130
 4981 1624 39       		.byte	0x39
 4982 1625 3E010000 		.long	0x13e
 4983 1629 02       		.byte	0x2
 4984 162a 91       		.byte	0x91
 4985 162b 04       		.sleb128 4
 4986 162c 15       		.uleb128 0x15
 4987 162d 16000000 		.secrel32	LASF2
 4988 1631 01       		.byte	0x1
 4989 1632 3101     		.word	0x131
 4990 1634 15       		.byte	0x15
 4991 1635 6F0C0000 		.long	0xc6f
 4992 1639 02       		.byte	0x2
 4993 163a 91       		.byte	0x91
 4994 163b 08       		.sleb128 8
 4995 163c 15       		.uleb128 0x15
 4996 163d 20000000 		.secrel32	LASF7
 4997 1641 01       		.byte	0x1
 4998 1642 3101     		.word	0x131
 4999 1644 24       		.byte	0x24
 5000 1645 3E010000 		.long	0x13e
 5001 1649 02       		.byte	0x2
 5002 164a 91       		.byte	0x91
 5003 164b 0C       		.sleb128 12
 5004 164c 15       		.uleb128 0x15
 5005 164d 30000000 		.secrel32	LASF8
 5006 1651 01       		.byte	0x1
 5007 1652 3101     		.word	0x131
 5008 1654 39       		.byte	0x39
 5009 1655 45010000 		.long	0x145
 5010 1659 02       		.byte	0x2
 5011 165a 91       		.byte	0x91
 5012 165b 10       		.sleb128 16
 5013 165c 00       		.byte	0
 5014 165d 20       		.uleb128 0x20
 5015 165e 4465636F 		.ascii "DecodeTextCompaction\0"
 5015      64655465 
 5015      7874436F 
 5015      6D706163 
 5015      74696F6E 
 5016 1673 01       		.byte	0x1
 5017 1674 8E       		.byte	0x8e
 5018 1675 0D       		.byte	0xd
 5019 1676 01       		.byte	0x1
 5020 1677 79000000 		.long	LFB19
 5021 167b EB030000 		.long	LFE19
 5022 167f A0020000 		.secrel32	LLST2
 5023 1683 01       		.byte	0x1
 5024 1684 59170000 		.long	0x1759
 5025 1688 21       		.uleb128 0x21
 5026 1689 4C000000 		.secrel32	LASF10
 5027 168d 01       		.byte	0x1
 5028 168e 8E       		.byte	0x8e
 5029 168f 2E       		.byte	0x2e
GAS LISTING C:\Users\jisu8\AppData\Local\Temp\ccM43flq.s 			page 124


 5030 1690 6F0C0000 		.long	0xc6f
 5031 1694 02       		.byte	0x2
 5032 1695 91       		.byte	0x91
 5033 1696 00       		.sleb128 0
 5034 1697 22       		.uleb128 0x22
 5035 1698 6C656E67 		.ascii "length\0"
 5035      746800
 5036 169f 01       		.byte	0x1
 5037 16a0 8E       		.byte	0x8e
 5038 16a1 46       		.byte	0x46
 5039 16a2 3E010000 		.long	0x13e
 5040 16a6 02       		.byte	0x2
 5041 16a7 91       		.byte	0x91
 5042 16a8 04       		.sleb128 4
 5043 16a9 21       		.uleb128 0x21
 5044 16aa 66000000 		.secrel32	LASF3
 5045 16ae 01       		.byte	0x1
 5046 16af 8E       		.byte	0x8e
 5047 16b0 5E       		.byte	0x5e
 5048 16b1 63030000 		.long	0x363
 5049 16b5 02       		.byte	0x2
 5050 16b6 91       		.byte	0x91
 5051 16b7 08       		.sleb128 8
 5052 16b8 21       		.uleb128 0x21
 5053 16b9 5F000000 		.secrel32	LASF4
 5054 16bd 01       		.byte	0x1
 5055 16be 8F       		.byte	0x8f
 5056 16bf 11       		.byte	0x11
 5057 16c0 4A010000 		.long	0x14a
 5058 16c4 02       		.byte	0x2
 5059 16c5 91       		.byte	0x91
 5060 16c6 0C       		.sleb128 12
 5061 16c7 21       		.uleb128 0x21
 5062 16c8 43000000 		.secrel32	LASF5
 5063 16cc 01       		.byte	0x1
 5064 16cd 8F       		.byte	0x8f
 5065 16ce 2A       		.byte	0x2a
 5066 16cf DD110000 		.long	0x11dd
 5067 16d3 02       		.byte	0x2
 5068 16d4 91       		.byte	0x91
 5069 16d5 10       		.sleb128 16
 5070 16d6 12       		.uleb128 0x12
 5071 16d7 7375624D 		.ascii "subMode\0"
 5071      6F646500 
 5072 16df 01       		.byte	0x1
 5073 16e0 98       		.byte	0x98
 5074 16e1 09       		.byte	0x9
 5075 16e2 E8070000 		.long	0x7e8
 5076 16e6 02       		.byte	0x2
 5077 16e7 91       		.byte	0x91
 5078 16e8 6C       		.sleb128 -20
 5079 16e9 12       		.uleb128 0x12
 5080 16ea 7072696F 		.ascii "priorToShiftMode\0"
 5080      72546F53 
 5080      68696674 
 5080      4D6F6465 
 5080      00
GAS LISTING C:\Users\jisu8\AppData\Local\Temp\ccM43flq.s 			page 125


 5081 16fb 01       		.byte	0x1
 5082 16fc 99       		.byte	0x99
 5083 16fd 09       		.byte	0x9
 5084 16fe E8070000 		.long	0x7e8
 5085 1702 02       		.byte	0x2
 5086 1703 91       		.byte	0x91
 5087 1704 68       		.sleb128 -24
 5088 1705 12       		.uleb128 0x12
 5089 1706 6900     		.ascii "i\0"
 5090 1708 01       		.byte	0x1
 5091 1709 9B       		.byte	0x9b
 5092 170a 06       		.byte	0x6
 5093 170b 3E010000 		.long	0x13e
 5094 170f 02       		.byte	0x2
 5095 1710 91       		.byte	0x91
 5096 1711 64       		.sleb128 -28
 5097 1712 12       		.uleb128 0x12
 5098 1713 63686172 		.ascii "character_idx\0"
 5098      61637465 
 5098      725F6964 
 5098      7800
 5099 1721 01       		.byte	0x1
 5100 1722 9C       		.byte	0x9c
 5101 1723 06       		.byte	0x6
 5102 1724 3E010000 		.long	0x13e
 5103 1728 02       		.byte	0x2
 5104 1729 91       		.byte	0x91
 5105 172a 60       		.sleb128 -32
 5106 172b 18       		.uleb128 0x18
 5107 172c B3000000 		.long	LBB2
 5108 1730 DC030000 		.long	LBE2
 5109 1734 12       		.uleb128 0x12
 5110 1735 7375624D 		.ascii "subModeCh\0"
 5110      6F646543 
 5110      6800
 5111 173f 01       		.byte	0x1
 5112 1740 A0       		.byte	0xa0
 5113 1741 07       		.byte	0x7
 5114 1742 3E010000 		.long	0x13e
 5115 1746 02       		.byte	0x2
 5116 1747 91       		.byte	0x91
 5117 1748 58       		.sleb128 -40
 5118 1749 12       		.uleb128 0x12
 5119 174a 636800   		.ascii "ch\0"
 5120 174d 01       		.byte	0x1
 5121 174e B9       		.byte	0xb9
 5122 174f 08       		.byte	0x8
 5123 1750 50010000 		.long	0x150
 5124 1754 02       		.byte	0x2
 5125 1755 91       		.byte	0x91
 5126 1756 5F       		.sleb128 -33
 5127 1757 00       		.byte	0
 5128 1758 00       		.byte	0
 5129 1759 23       		.uleb128 0x23
 5130 175a 50726F63 		.ascii "ProcessECI\0"
 5130      65737345 
 5130      434900
GAS LISTING C:\Users\jisu8\AppData\Local\Temp\ccM43flq.s 			page 126


 5131 1765 01       		.byte	0x1
 5132 1766 68       		.byte	0x68
 5133 1767 0C       		.byte	0xc
 5134 1768 01       		.byte	0x1
 5135 1769 3E010000 		.long	0x13e
 5136 176d 27000000 		.long	LFB18
 5137 1771 79000000 		.long	LFE18
 5138 1775 D8020000 		.secrel32	LLST1
 5139 1779 01       		.byte	0x1
 5140 177a EB170000 		.long	0x17eb
 5141 177e 21       		.uleb128 0x21
 5142 177f 16000000 		.secrel32	LASF2
 5143 1783 01       		.byte	0x1
 5144 1784 68       		.byte	0x68
 5145 1785 23       		.byte	0x23
 5146 1786 6F0C0000 		.long	0xc6f
 5147 178a 02       		.byte	0x2
 5148 178b 91       		.byte	0x91
 5149 178c 00       		.sleb128 0
 5150 178d 21       		.uleb128 0x21
 5151 178e 20000000 		.secrel32	LASF7
 5152 1792 01       		.byte	0x1
 5153 1793 68       		.byte	0x68
 5154 1794 32       		.byte	0x32
 5155 1795 3E010000 		.long	0x13e
 5156 1799 02       		.byte	0x2
 5157 179a 91       		.byte	0x91
 5158 179b 04       		.sleb128 4
 5159 179c 22       		.uleb128 0x22
 5160 179d 6C656E67 		.ascii "length\0"
 5160      746800
 5161 17a4 01       		.byte	0x1
 5162 17a5 68       		.byte	0x68
 5163 17a6 47       		.byte	0x47
 5164 17a7 45010000 		.long	0x145
 5165 17ab 02       		.byte	0x2
 5166 17ac 91       		.byte	0x91
 5167 17ad 08       		.sleb128 8
 5168 17ae 21       		.uleb128 0x21
 5169 17af 30000000 		.secrel32	LASF8
 5170 17b3 01       		.byte	0x1
 5171 17b4 68       		.byte	0x68
 5172 17b5 59       		.byte	0x59
 5173 17b6 45010000 		.long	0x145
 5174 17ba 02       		.byte	0x2
 5175 17bb 91       		.byte	0x91
 5176 17bc 0C       		.sleb128 12
 5177 17bd 21       		.uleb128 0x21
 5178 17be 66000000 		.secrel32	LASF3
 5179 17c2 01       		.byte	0x1
 5180 17c3 69       		.byte	0x69
 5181 17c4 18       		.byte	0x18
 5182 17c5 63030000 		.long	0x363
 5183 17c9 02       		.byte	0x2
 5184 17ca 91       		.byte	0x91
 5185 17cb 10       		.sleb128 16
 5186 17cc 21       		.uleb128 0x21
GAS LISTING C:\Users\jisu8\AppData\Local\Temp\ccM43flq.s 			page 127


 5187 17cd 5F000000 		.secrel32	LASF4
 5188 17d1 01       		.byte	0x1
 5189 17d2 69       		.byte	0x69
 5190 17d3 2E       		.byte	0x2e
 5191 17d4 4A010000 		.long	0x14a
 5192 17d8 02       		.byte	0x2
 5193 17d9 91       		.byte	0x91
 5194 17da 14       		.sleb128 20
 5195 17db 21       		.uleb128 0x21
 5196 17dc 43000000 		.secrel32	LASF5
 5197 17e0 01       		.byte	0x1
 5198 17e1 69       		.byte	0x69
 5199 17e2 47       		.byte	0x47
 5200 17e3 DD110000 		.long	0x11dd
 5201 17e7 02       		.byte	0x2
 5202 17e8 91       		.byte	0x91
 5203 17e9 18       		.sleb128 24
 5204 17ea 00       		.byte	0
 5205 17eb 24       		.uleb128 0x24
 5206 17ec 5465726D 		.ascii "TerminatesCompaction\0"
 5206      696E6174 
 5206      6573436F 
 5206      6D706163 
 5206      74696F6E 
 5207 1801 01       		.byte	0x1
 5208 1802 53       		.byte	0x53
 5209 1803 10       		.byte	0x10
 5210 1804 01       		.byte	0x1
 5211 1805 27020000 		.long	0x227
 5212 1809 00000000 		.long	LFB17
 5213 180d 27000000 		.long	LFE17
 5214 1811 10030000 		.secrel32	LLST0
 5215 1815 01       		.byte	0x1
 5216 1816 21       		.uleb128 0x21
 5217 1817 30000000 		.secrel32	LASF8
 5218 181b 01       		.byte	0x1
 5219 181c 53       		.byte	0x53
 5220 181d 29       		.byte	0x29
 5221 181e 3E010000 		.long	0x13e
 5222 1822 02       		.byte	0x2
 5223 1823 91       		.byte	0x91
 5224 1824 00       		.sleb128 0
 5225 1825 00       		.byte	0
 5226 1826 00       		.byte	0
 5227              		.section	.debug_abbrev,"dr"
 5228              	Ldebug_abbrev0:
 5229 0000 01       		.uleb128 0x1
 5230 0001 11       		.uleb128 0x11
 5231 0002 01       		.byte	0x1
 5232 0003 25       		.uleb128 0x25
 5233 0004 08       		.uleb128 0x8
 5234 0005 13       		.uleb128 0x13
 5235 0006 0B       		.uleb128 0xb
 5236 0007 03       		.uleb128 0x3
 5237 0008 08       		.uleb128 0x8
 5238 0009 1B       		.uleb128 0x1b
 5239 000a 08       		.uleb128 0x8
GAS LISTING C:\Users\jisu8\AppData\Local\Temp\ccM43flq.s 			page 128


 5240 000b 11       		.uleb128 0x11
 5241 000c 01       		.uleb128 0x1
 5242 000d 12       		.uleb128 0x12
 5243 000e 01       		.uleb128 0x1
 5244 000f 10       		.uleb128 0x10
 5245 0010 06       		.uleb128 0x6
 5246 0011 00       		.byte	0
 5247 0012 00       		.byte	0
 5248 0013 02       		.uleb128 0x2
 5249 0014 04       		.uleb128 0x4
 5250 0015 01       		.byte	0x1
 5251 0016 3E       		.uleb128 0x3e
 5252 0017 0B       		.uleb128 0xb
 5253 0018 0B       		.uleb128 0xb
 5254 0019 0B       		.uleb128 0xb
 5255 001a 49       		.uleb128 0x49
 5256 001b 13       		.uleb128 0x13
 5257 001c 3A       		.uleb128 0x3a
 5258 001d 0B       		.uleb128 0xb
 5259 001e 3B       		.uleb128 0x3b
 5260 001f 0B       		.uleb128 0xb
 5261 0020 39       		.uleb128 0x39
 5262 0021 0B       		.uleb128 0xb
 5263 0022 01       		.uleb128 0x1
 5264 0023 13       		.uleb128 0x13
 5265 0024 00       		.byte	0
 5266 0025 00       		.byte	0
 5267 0026 03       		.uleb128 0x3
 5268 0027 28       		.uleb128 0x28
 5269 0028 00       		.byte	0
 5270 0029 03       		.uleb128 0x3
 5271 002a 08       		.uleb128 0x8
 5272 002b 1C       		.uleb128 0x1c
 5273 002c 0B       		.uleb128 0xb
 5274 002d 00       		.byte	0
 5275 002e 00       		.byte	0
 5276 002f 04       		.uleb128 0x4
 5277 0030 24       		.uleb128 0x24
 5278 0031 00       		.byte	0
 5279 0032 0B       		.uleb128 0xb
 5280 0033 0B       		.uleb128 0xb
 5281 0034 3E       		.uleb128 0x3e
 5282 0035 0B       		.uleb128 0xb
 5283 0036 03       		.uleb128 0x3
 5284 0037 08       		.uleb128 0x8
 5285 0038 00       		.byte	0
 5286 0039 00       		.byte	0
 5287 003a 05       		.uleb128 0x5
 5288 003b 16       		.uleb128 0x16
 5289 003c 00       		.byte	0
 5290 003d 03       		.uleb128 0x3
 5291 003e 08       		.uleb128 0x8
 5292 003f 3A       		.uleb128 0x3a
 5293 0040 0B       		.uleb128 0xb
 5294 0041 3B       		.uleb128 0x3b
 5295 0042 0B       		.uleb128 0xb
 5296 0043 39       		.uleb128 0x39
GAS LISTING C:\Users\jisu8\AppData\Local\Temp\ccM43flq.s 			page 129


 5297 0044 0B       		.uleb128 0xb
 5298 0045 49       		.uleb128 0x49
 5299 0046 13       		.uleb128 0x13
 5300 0047 00       		.byte	0
 5301 0048 00       		.byte	0
 5302 0049 06       		.uleb128 0x6
 5303 004a 13       		.uleb128 0x13
 5304 004b 01       		.byte	0x1
 5305 004c 0B       		.uleb128 0xb
 5306 004d 0B       		.uleb128 0xb
 5307 004e 3A       		.uleb128 0x3a
 5308 004f 0B       		.uleb128 0xb
 5309 0050 3B       		.uleb128 0x3b
 5310 0051 0B       		.uleb128 0xb
 5311 0052 39       		.uleb128 0x39
 5312 0053 0B       		.uleb128 0xb
 5313 0054 01       		.uleb128 0x1
 5314 0055 13       		.uleb128 0x13
 5315 0056 00       		.byte	0
 5316 0057 00       		.byte	0
 5317 0058 07       		.uleb128 0x7
 5318 0059 0D       		.uleb128 0xd
 5319 005a 00       		.byte	0
 5320 005b 03       		.uleb128 0x3
 5321 005c 08       		.uleb128 0x8
 5322 005d 3A       		.uleb128 0x3a
 5323 005e 0B       		.uleb128 0xb
 5324 005f 3B       		.uleb128 0x3b
 5325 0060 0B       		.uleb128 0xb
 5326 0061 39       		.uleb128 0x39
 5327 0062 0B       		.uleb128 0xb
 5328 0063 49       		.uleb128 0x49
 5329 0064 13       		.uleb128 0x13
 5330 0065 38       		.uleb128 0x38
 5331 0066 0A       		.uleb128 0xa
 5332 0067 00       		.byte	0
 5333 0068 00       		.byte	0
 5334 0069 08       		.uleb128 0x8
 5335 006a 0D       		.uleb128 0xd
 5336 006b 00       		.byte	0
 5337 006c 03       		.uleb128 0x3
 5338 006d 0E       		.uleb128 0xe
 5339 006e 3A       		.uleb128 0x3a
 5340 006f 0B       		.uleb128 0xb
 5341 0070 3B       		.uleb128 0x3b
 5342 0071 0B       		.uleb128 0xb
 5343 0072 39       		.uleb128 0x39
 5344 0073 0B       		.uleb128 0xb
 5345 0074 49       		.uleb128 0x49
 5346 0075 13       		.uleb128 0x13
 5347 0076 38       		.uleb128 0x38
 5348 0077 0A       		.uleb128 0xa
 5349 0078 00       		.byte	0
 5350 0079 00       		.byte	0
 5351 007a 09       		.uleb128 0x9
 5352 007b 26       		.uleb128 0x26
 5353 007c 00       		.byte	0
GAS LISTING C:\Users\jisu8\AppData\Local\Temp\ccM43flq.s 			page 130


 5354 007d 49       		.uleb128 0x49
 5355 007e 13       		.uleb128 0x13
 5356 007f 00       		.byte	0
 5357 0080 00       		.byte	0
 5358 0081 0A       		.uleb128 0xa
 5359 0082 0F       		.uleb128 0xf
 5360 0083 00       		.byte	0
 5361 0084 0B       		.uleb128 0xb
 5362 0085 0B       		.uleb128 0xb
 5363 0086 49       		.uleb128 0x49
 5364 0087 13       		.uleb128 0x13
 5365 0088 00       		.byte	0
 5366 0089 00       		.byte	0
 5367 008a 0B       		.uleb128 0xb
 5368 008b 34       		.uleb128 0x34
 5369 008c 00       		.byte	0
 5370 008d 03       		.uleb128 0x3
 5371 008e 08       		.uleb128 0x8
 5372 008f 3A       		.uleb128 0x3a
 5373 0090 0B       		.uleb128 0xb
 5374 0091 3B       		.uleb128 0x3b
 5375 0092 0B       		.uleb128 0xb
 5376 0093 39       		.uleb128 0x39
 5377 0094 0B       		.uleb128 0xb
 5378 0095 49       		.uleb128 0x49
 5379 0096 13       		.uleb128 0x13
 5380 0097 3F       		.uleb128 0x3f
 5381 0098 0C       		.uleb128 0xc
 5382 0099 3C       		.uleb128 0x3c
 5383 009a 0C       		.uleb128 0xc
 5384 009b 00       		.byte	0
 5385 009c 00       		.byte	0
 5386 009d 0C       		.uleb128 0xc
 5387 009e 01       		.uleb128 0x1
 5388 009f 01       		.byte	0x1
 5389 00a0 49       		.uleb128 0x49
 5390 00a1 13       		.uleb128 0x13
 5391 00a2 01       		.uleb128 0x1
 5392 00a3 13       		.uleb128 0x13
 5393 00a4 00       		.byte	0
 5394 00a5 00       		.byte	0
 5395 00a6 0D       		.uleb128 0xd
 5396 00a7 21       		.uleb128 0x21
 5397 00a8 00       		.byte	0
 5398 00a9 49       		.uleb128 0x49
 5399 00aa 13       		.uleb128 0x13
 5400 00ab 2F       		.uleb128 0x2f
 5401 00ac 0B       		.uleb128 0xb
 5402 00ad 00       		.byte	0
 5403 00ae 00       		.byte	0
 5404 00af 0E       		.uleb128 0xe
 5405 00b0 34       		.uleb128 0x34
 5406 00b1 00       		.byte	0
 5407 00b2 03       		.uleb128 0x3
 5408 00b3 08       		.uleb128 0x8
 5409 00b4 3A       		.uleb128 0x3a
 5410 00b5 0B       		.uleb128 0xb
GAS LISTING C:\Users\jisu8\AppData\Local\Temp\ccM43flq.s 			page 131


 5411 00b6 3B       		.uleb128 0x3b
 5412 00b7 05       		.uleb128 0x5
 5413 00b8 39       		.uleb128 0x39
 5414 00b9 0B       		.uleb128 0xb
 5415 00ba 49       		.uleb128 0x49
 5416 00bb 13       		.uleb128 0x13
 5417 00bc 3F       		.uleb128 0x3f
 5418 00bd 0C       		.uleb128 0xc
 5419 00be 3C       		.uleb128 0x3c
 5420 00bf 0C       		.uleb128 0xc
 5421 00c0 00       		.byte	0
 5422 00c1 00       		.byte	0
 5423 00c2 0F       		.uleb128 0xf
 5424 00c3 13       		.uleb128 0x13
 5425 00c4 01       		.byte	0x1
 5426 00c5 03       		.uleb128 0x3
 5427 00c6 08       		.uleb128 0x8
 5428 00c7 0B       		.uleb128 0xb
 5429 00c8 0B       		.uleb128 0xb
 5430 00c9 3A       		.uleb128 0x3a
 5431 00ca 0B       		.uleb128 0xb
 5432 00cb 3B       		.uleb128 0x3b
 5433 00cc 0B       		.uleb128 0xb
 5434 00cd 39       		.uleb128 0x39
 5435 00ce 0B       		.uleb128 0xb
 5436 00cf 01       		.uleb128 0x1
 5437 00d0 13       		.uleb128 0x13
 5438 00d1 00       		.byte	0
 5439 00d2 00       		.byte	0
 5440 00d3 10       		.uleb128 0x10
 5441 00d4 21       		.uleb128 0x21
 5442 00d5 00       		.byte	0
 5443 00d6 00       		.byte	0
 5444 00d7 00       		.byte	0
 5445 00d8 11       		.uleb128 0x11
 5446 00d9 28       		.uleb128 0x28
 5447 00da 00       		.byte	0
 5448 00db 03       		.uleb128 0x3
 5449 00dc 08       		.uleb128 0x8
 5450 00dd 1C       		.uleb128 0x1c
 5451 00de 05       		.uleb128 0x5
 5452 00df 00       		.byte	0
 5453 00e0 00       		.byte	0
 5454 00e1 12       		.uleb128 0x12
 5455 00e2 34       		.uleb128 0x34
 5456 00e3 00       		.byte	0
 5457 00e4 03       		.uleb128 0x3
 5458 00e5 08       		.uleb128 0x8
 5459 00e6 3A       		.uleb128 0x3a
 5460 00e7 0B       		.uleb128 0xb
 5461 00e8 3B       		.uleb128 0x3b
 5462 00e9 0B       		.uleb128 0xb
 5463 00ea 39       		.uleb128 0x39
 5464 00eb 0B       		.uleb128 0xb
 5465 00ec 49       		.uleb128 0x49
 5466 00ed 13       		.uleb128 0x13
 5467 00ee 02       		.uleb128 0x2
GAS LISTING C:\Users\jisu8\AppData\Local\Temp\ccM43flq.s 			page 132


 5468 00ef 0A       		.uleb128 0xa
 5469 00f0 00       		.byte	0
 5470 00f1 00       		.byte	0
 5471 00f2 13       		.uleb128 0x13
 5472 00f3 2E       		.uleb128 0x2e
 5473 00f4 01       		.byte	0x1
 5474 00f5 3F       		.uleb128 0x3f
 5475 00f6 0C       		.uleb128 0xc
 5476 00f7 03       		.uleb128 0x3
 5477 00f8 08       		.uleb128 0x8
 5478 00f9 3A       		.uleb128 0x3a
 5479 00fa 0B       		.uleb128 0xb
 5480 00fb 3B       		.uleb128 0x3b
 5481 00fc 05       		.uleb128 0x5
 5482 00fd 39       		.uleb128 0x39
 5483 00fe 0B       		.uleb128 0xb
 5484 00ff 27       		.uleb128 0x27
 5485 0100 0C       		.uleb128 0xc
 5486 0101 11       		.uleb128 0x11
 5487 0102 01       		.uleb128 0x1
 5488 0103 12       		.uleb128 0x12
 5489 0104 01       		.uleb128 0x1
 5490 0105 40       		.uleb128 0x40
 5491 0106 06       		.uleb128 0x6
 5492 0107 9642     		.uleb128 0x2116
 5493 0109 0C       		.uleb128 0xc
 5494 010a 01       		.uleb128 0x1
 5495 010b 13       		.uleb128 0x13
 5496 010c 00       		.byte	0
 5497 010d 00       		.byte	0
 5498 010e 14       		.uleb128 0x14
 5499 010f 05       		.uleb128 0x5
 5500 0110 00       		.byte	0
 5501 0111 03       		.uleb128 0x3
 5502 0112 08       		.uleb128 0x8
 5503 0113 3A       		.uleb128 0x3a
 5504 0114 0B       		.uleb128 0xb
 5505 0115 3B       		.uleb128 0x3b
 5506 0116 05       		.uleb128 0x5
 5507 0117 39       		.uleb128 0x39
 5508 0118 0B       		.uleb128 0xb
 5509 0119 49       		.uleb128 0x49
 5510 011a 13       		.uleb128 0x13
 5511 011b 02       		.uleb128 0x2
 5512 011c 0A       		.uleb128 0xa
 5513 011d 00       		.byte	0
 5514 011e 00       		.byte	0
 5515 011f 15       		.uleb128 0x15
 5516 0120 05       		.uleb128 0x5
 5517 0121 00       		.byte	0
 5518 0122 03       		.uleb128 0x3
 5519 0123 0E       		.uleb128 0xe
 5520 0124 3A       		.uleb128 0x3a
 5521 0125 0B       		.uleb128 0xb
 5522 0126 3B       		.uleb128 0x3b
 5523 0127 05       		.uleb128 0x5
 5524 0128 39       		.uleb128 0x39
GAS LISTING C:\Users\jisu8\AppData\Local\Temp\ccM43flq.s 			page 133


 5525 0129 0B       		.uleb128 0xb
 5526 012a 49       		.uleb128 0x49
 5527 012b 13       		.uleb128 0x13
 5528 012c 02       		.uleb128 0x2
 5529 012d 0A       		.uleb128 0xa
 5530 012e 00       		.byte	0
 5531 012f 00       		.byte	0
 5532 0130 16       		.uleb128 0x16
 5533 0131 34       		.uleb128 0x34
 5534 0132 00       		.byte	0
 5535 0133 03       		.uleb128 0x3
 5536 0134 0E       		.uleb128 0xe
 5537 0135 3A       		.uleb128 0x3a
 5538 0136 0B       		.uleb128 0xb
 5539 0137 3B       		.uleb128 0x3b
 5540 0138 05       		.uleb128 0x5
 5541 0139 39       		.uleb128 0x39
 5542 013a 0B       		.uleb128 0xb
 5543 013b 49       		.uleb128 0x49
 5544 013c 13       		.uleb128 0x13
 5545 013d 02       		.uleb128 0x2
 5546 013e 0A       		.uleb128 0xa
 5547 013f 00       		.byte	0
 5548 0140 00       		.byte	0
 5549 0141 17       		.uleb128 0x17
 5550 0142 34       		.uleb128 0x34
 5551 0143 00       		.byte	0
 5552 0144 03       		.uleb128 0x3
 5553 0145 08       		.uleb128 0x8
 5554 0146 3A       		.uleb128 0x3a
 5555 0147 0B       		.uleb128 0xb
 5556 0148 3B       		.uleb128 0x3b
 5557 0149 05       		.uleb128 0x5
 5558 014a 39       		.uleb128 0x39
 5559 014b 0B       		.uleb128 0xb
 5560 014c 49       		.uleb128 0x49
 5561 014d 13       		.uleb128 0x13
 5562 014e 02       		.uleb128 0x2
 5563 014f 0A       		.uleb128 0xa
 5564 0150 00       		.byte	0
 5565 0151 00       		.byte	0
 5566 0152 18       		.uleb128 0x18
 5567 0153 0B       		.uleb128 0xb
 5568 0154 01       		.byte	0x1
 5569 0155 11       		.uleb128 0x11
 5570 0156 01       		.uleb128 0x1
 5571 0157 12       		.uleb128 0x12
 5572 0158 01       		.uleb128 0x1
 5573 0159 00       		.byte	0
 5574 015a 00       		.byte	0
 5575 015b 19       		.uleb128 0x19
 5576 015c 2E       		.uleb128 0x2e
 5577 015d 01       		.byte	0x1
 5578 015e 03       		.uleb128 0x3
 5579 015f 08       		.uleb128 0x8
 5580 0160 3A       		.uleb128 0x3a
 5581 0161 0B       		.uleb128 0xb
GAS LISTING C:\Users\jisu8\AppData\Local\Temp\ccM43flq.s 			page 134


 5582 0162 3B       		.uleb128 0x3b
 5583 0163 05       		.uleb128 0x5
 5584 0164 39       		.uleb128 0x39
 5585 0165 0B       		.uleb128 0xb
 5586 0166 27       		.uleb128 0x27
 5587 0167 0C       		.uleb128 0xc
 5588 0168 11       		.uleb128 0x11
 5589 0169 01       		.uleb128 0x1
 5590 016a 12       		.uleb128 0x12
 5591 016b 01       		.uleb128 0x1
 5592 016c 40       		.uleb128 0x40
 5593 016d 06       		.uleb128 0x6
 5594 016e 9742     		.uleb128 0x2117
 5595 0170 0C       		.uleb128 0xc
 5596 0171 01       		.uleb128 0x1
 5597 0172 13       		.uleb128 0x13
 5598 0173 00       		.byte	0
 5599 0174 00       		.byte	0
 5600 0175 1A       		.uleb128 0x1a
 5601 0176 2E       		.uleb128 0x2e
 5602 0177 01       		.byte	0x1
 5603 0178 3F       		.uleb128 0x3f
 5604 0179 0C       		.uleb128 0xc
 5605 017a 03       		.uleb128 0x3
 5606 017b 08       		.uleb128 0x8
 5607 017c 3A       		.uleb128 0x3a
 5608 017d 0B       		.uleb128 0xb
 5609 017e 3B       		.uleb128 0x3b
 5610 017f 05       		.uleb128 0x5
 5611 0180 39       		.uleb128 0x39
 5612 0181 0B       		.uleb128 0xb
 5613 0182 27       		.uleb128 0x27
 5614 0183 0C       		.uleb128 0xc
 5615 0184 49       		.uleb128 0x49
 5616 0185 13       		.uleb128 0x13
 5617 0186 11       		.uleb128 0x11
 5618 0187 01       		.uleb128 0x1
 5619 0188 12       		.uleb128 0x12
 5620 0189 01       		.uleb128 0x1
 5621 018a 40       		.uleb128 0x40
 5622 018b 06       		.uleb128 0x6
 5623 018c 9642     		.uleb128 0x2116
 5624 018e 0C       		.uleb128 0xc
 5625 018f 01       		.uleb128 0x1
 5626 0190 13       		.uleb128 0x13
 5627 0191 00       		.byte	0
 5628 0192 00       		.byte	0
 5629 0193 1B       		.uleb128 0x1b
 5630 0194 0B       		.uleb128 0xb
 5631 0195 01       		.byte	0x1
 5632 0196 11       		.uleb128 0x11
 5633 0197 01       		.uleb128 0x1
 5634 0198 12       		.uleb128 0x12
 5635 0199 01       		.uleb128 0x1
 5636 019a 01       		.uleb128 0x1
 5637 019b 13       		.uleb128 0x13
 5638 019c 00       		.byte	0
GAS LISTING C:\Users\jisu8\AppData\Local\Temp\ccM43flq.s 			page 135


 5639 019d 00       		.byte	0
 5640 019e 1C       		.uleb128 0x1c
 5641 019f 21       		.uleb128 0x21
 5642 01a0 00       		.byte	0
 5643 01a1 49       		.uleb128 0x49
 5644 01a2 13       		.uleb128 0x13
 5645 01a3 2F       		.uleb128 0x2f
 5646 01a4 0A       		.uleb128 0xa
 5647 01a5 00       		.byte	0
 5648 01a6 00       		.byte	0
 5649 01a7 1D       		.uleb128 0x1d
 5650 01a8 2E       		.uleb128 0x2e
 5651 01a9 01       		.byte	0x1
 5652 01aa 03       		.uleb128 0x3
 5653 01ab 08       		.uleb128 0x8
 5654 01ac 3A       		.uleb128 0x3a
 5655 01ad 0B       		.uleb128 0xb
 5656 01ae 3B       		.uleb128 0x3b
 5657 01af 05       		.uleb128 0x5
 5658 01b0 39       		.uleb128 0x39
 5659 01b1 0B       		.uleb128 0xb
 5660 01b2 27       		.uleb128 0x27
 5661 01b3 0C       		.uleb128 0xc
 5662 01b4 49       		.uleb128 0x49
 5663 01b5 13       		.uleb128 0x13
 5664 01b6 11       		.uleb128 0x11
 5665 01b7 01       		.uleb128 0x1
 5666 01b8 12       		.uleb128 0x12
 5667 01b9 01       		.uleb128 0x1
 5668 01ba 40       		.uleb128 0x40
 5669 01bb 06       		.uleb128 0x6
 5670 01bc 9642     		.uleb128 0x2116
 5671 01be 0C       		.uleb128 0xc
 5672 01bf 01       		.uleb128 0x1
 5673 01c0 13       		.uleb128 0x13
 5674 01c1 00       		.byte	0
 5675 01c2 00       		.byte	0
 5676 01c3 1E       		.uleb128 0x1e
 5677 01c4 2E       		.uleb128 0x2e
 5678 01c5 01       		.byte	0x1
 5679 01c6 03       		.uleb128 0x3
 5680 01c7 08       		.uleb128 0x8
 5681 01c8 3A       		.uleb128 0x3a
 5682 01c9 0B       		.uleb128 0xb
 5683 01ca 3B       		.uleb128 0x3b
 5684 01cb 05       		.uleb128 0x5
 5685 01cc 39       		.uleb128 0x39
 5686 01cd 0B       		.uleb128 0xb
 5687 01ce 27       		.uleb128 0x27
 5688 01cf 0C       		.uleb128 0xc
 5689 01d0 49       		.uleb128 0x49
 5690 01d1 13       		.uleb128 0x13
 5691 01d2 11       		.uleb128 0x11
 5692 01d3 01       		.uleb128 0x1
 5693 01d4 12       		.uleb128 0x12
 5694 01d5 01       		.uleb128 0x1
 5695 01d6 40       		.uleb128 0x40
GAS LISTING C:\Users\jisu8\AppData\Local\Temp\ccM43flq.s 			page 136


 5696 01d7 0A       		.uleb128 0xa
 5697 01d8 9742     		.uleb128 0x2117
 5698 01da 0C       		.uleb128 0xc
 5699 01db 01       		.uleb128 0x1
 5700 01dc 13       		.uleb128 0x13
 5701 01dd 00       		.byte	0
 5702 01de 00       		.byte	0
 5703 01df 1F       		.uleb128 0x1f
 5704 01e0 0B       		.uleb128 0xb
 5705 01e1 01       		.byte	0x1
 5706 01e2 55       		.uleb128 0x55
 5707 01e3 06       		.uleb128 0x6
 5708 01e4 00       		.byte	0
 5709 01e5 00       		.byte	0
 5710 01e6 20       		.uleb128 0x20
 5711 01e7 2E       		.uleb128 0x2e
 5712 01e8 01       		.byte	0x1
 5713 01e9 03       		.uleb128 0x3
 5714 01ea 08       		.uleb128 0x8
 5715 01eb 3A       		.uleb128 0x3a
 5716 01ec 0B       		.uleb128 0xb
 5717 01ed 3B       		.uleb128 0x3b
 5718 01ee 0B       		.uleb128 0xb
 5719 01ef 39       		.uleb128 0x39
 5720 01f0 0B       		.uleb128 0xb
 5721 01f1 27       		.uleb128 0x27
 5722 01f2 0C       		.uleb128 0xc
 5723 01f3 11       		.uleb128 0x11
 5724 01f4 01       		.uleb128 0x1
 5725 01f5 12       		.uleb128 0x12
 5726 01f6 01       		.uleb128 0x1
 5727 01f7 40       		.uleb128 0x40
 5728 01f8 06       		.uleb128 0x6
 5729 01f9 9642     		.uleb128 0x2116
 5730 01fb 0C       		.uleb128 0xc
 5731 01fc 01       		.uleb128 0x1
 5732 01fd 13       		.uleb128 0x13
 5733 01fe 00       		.byte	0
 5734 01ff 00       		.byte	0
 5735 0200 21       		.uleb128 0x21
 5736 0201 05       		.uleb128 0x5
 5737 0202 00       		.byte	0
 5738 0203 03       		.uleb128 0x3
 5739 0204 0E       		.uleb128 0xe
 5740 0205 3A       		.uleb128 0x3a
 5741 0206 0B       		.uleb128 0xb
 5742 0207 3B       		.uleb128 0x3b
 5743 0208 0B       		.uleb128 0xb
 5744 0209 39       		.uleb128 0x39
 5745 020a 0B       		.uleb128 0xb
 5746 020b 49       		.uleb128 0x49
 5747 020c 13       		.uleb128 0x13
 5748 020d 02       		.uleb128 0x2
 5749 020e 0A       		.uleb128 0xa
 5750 020f 00       		.byte	0
 5751 0210 00       		.byte	0
 5752 0211 22       		.uleb128 0x22
GAS LISTING C:\Users\jisu8\AppData\Local\Temp\ccM43flq.s 			page 137


 5753 0212 05       		.uleb128 0x5
 5754 0213 00       		.byte	0
 5755 0214 03       		.uleb128 0x3
 5756 0215 08       		.uleb128 0x8
 5757 0216 3A       		.uleb128 0x3a
 5758 0217 0B       		.uleb128 0xb
 5759 0218 3B       		.uleb128 0x3b
 5760 0219 0B       		.uleb128 0xb
 5761 021a 39       		.uleb128 0x39
 5762 021b 0B       		.uleb128 0xb
 5763 021c 49       		.uleb128 0x49
 5764 021d 13       		.uleb128 0x13
 5765 021e 02       		.uleb128 0x2
 5766 021f 0A       		.uleb128 0xa
 5767 0220 00       		.byte	0
 5768 0221 00       		.byte	0
 5769 0222 23       		.uleb128 0x23
 5770 0223 2E       		.uleb128 0x2e
 5771 0224 01       		.byte	0x1
 5772 0225 03       		.uleb128 0x3
 5773 0226 08       		.uleb128 0x8
 5774 0227 3A       		.uleb128 0x3a
 5775 0228 0B       		.uleb128 0xb
 5776 0229 3B       		.uleb128 0x3b
 5777 022a 0B       		.uleb128 0xb
 5778 022b 39       		.uleb128 0x39
 5779 022c 0B       		.uleb128 0xb
 5780 022d 27       		.uleb128 0x27
 5781 022e 0C       		.uleb128 0xc
 5782 022f 49       		.uleb128 0x49
 5783 0230 13       		.uleb128 0x13
 5784 0231 11       		.uleb128 0x11
 5785 0232 01       		.uleb128 0x1
 5786 0233 12       		.uleb128 0x12
 5787 0234 01       		.uleb128 0x1
 5788 0235 40       		.uleb128 0x40
 5789 0236 06       		.uleb128 0x6
 5790 0237 9642     		.uleb128 0x2116
 5791 0239 0C       		.uleb128 0xc
 5792 023a 01       		.uleb128 0x1
 5793 023b 13       		.uleb128 0x13
 5794 023c 00       		.byte	0
 5795 023d 00       		.byte	0
 5796 023e 24       		.uleb128 0x24
 5797 023f 2E       		.uleb128 0x2e
 5798 0240 01       		.byte	0x1
 5799 0241 03       		.uleb128 0x3
 5800 0242 08       		.uleb128 0x8
 5801 0243 3A       		.uleb128 0x3a
 5802 0244 0B       		.uleb128 0xb
 5803 0245 3B       		.uleb128 0x3b
 5804 0246 0B       		.uleb128 0xb
 5805 0247 39       		.uleb128 0x39
 5806 0248 0B       		.uleb128 0xb
 5807 0249 27       		.uleb128 0x27
 5808 024a 0C       		.uleb128 0xc
 5809 024b 49       		.uleb128 0x49
GAS LISTING C:\Users\jisu8\AppData\Local\Temp\ccM43flq.s 			page 138


 5810 024c 13       		.uleb128 0x13
 5811 024d 11       		.uleb128 0x11
 5812 024e 01       		.uleb128 0x1
 5813 024f 12       		.uleb128 0x12
 5814 0250 01       		.uleb128 0x1
 5815 0251 40       		.uleb128 0x40
 5816 0252 06       		.uleb128 0x6
 5817 0253 9742     		.uleb128 0x2117
 5818 0255 0C       		.uleb128 0xc
 5819 0256 00       		.byte	0
 5820 0257 00       		.byte	0
 5821 0258 00       		.byte	0
 5822              		.section	.debug_loc,"dr"
 5823              	Ldebug_loc0:
 5824              	LLST14:
 5825 0000 C7130000 		.long	LFB32-Ltext0
 5826 0004 C8130000 		.long	LCFI42-Ltext0
 5827 0008 0200     		.word	0x2
 5828 000a 74       		.byte	0x74
 5829 000b 04       		.sleb128 4
 5830 000c C8130000 		.long	LCFI42-Ltext0
 5831 0010 CA130000 		.long	LCFI43-Ltext0
 5832 0014 0200     		.word	0x2
 5833 0016 74       		.byte	0x74
 5834 0017 08       		.sleb128 8
 5835 0018 CA130000 		.long	LCFI43-Ltext0
 5836 001c F5170000 		.long	LCFI44-Ltext0
 5837 0020 0200     		.word	0x2
 5838 0022 75       		.byte	0x75
 5839 0023 08       		.sleb128 8
 5840 0024 F5170000 		.long	LCFI44-Ltext0
 5841 0028 F6170000 		.long	LFE32-Ltext0
 5842 002c 0200     		.word	0x2
 5843 002e 74       		.byte	0x74
 5844 002f 04       		.sleb128 4
 5845 0030 00000000 		.long	0
 5846 0034 00000000 		.long	0
 5847              	LLST13:
 5848 0038 A4130000 		.long	LFB31-Ltext0
 5849 003c A5130000 		.long	LCFI39-Ltext0
 5850 0040 0200     		.word	0x2
 5851 0042 74       		.byte	0x74
 5852 0043 04       		.sleb128 4
 5853 0044 A5130000 		.long	LCFI39-Ltext0
 5854 0048 A7130000 		.long	LCFI40-Ltext0
 5855 004c 0200     		.word	0x2
 5856 004e 74       		.byte	0x74
 5857 004f 08       		.sleb128 8
 5858 0050 A7130000 		.long	LCFI40-Ltext0
 5859 0054 C6130000 		.long	LCFI41-Ltext0
 5860 0058 0200     		.word	0x2
 5861 005a 75       		.byte	0x75
 5862 005b 08       		.sleb128 8
 5863 005c C6130000 		.long	LCFI41-Ltext0
 5864 0060 C7130000 		.long	LFE31-Ltext0
 5865 0064 0200     		.word	0x2
 5866 0066 74       		.byte	0x74
GAS LISTING C:\Users\jisu8\AppData\Local\Temp\ccM43flq.s 			page 139


 5867 0067 04       		.sleb128 4
 5868 0068 00000000 		.long	0
 5869 006c 00000000 		.long	0
 5870              	LLST12:
 5871 0070 26130000 		.long	LFB30-Ltext0
 5872 0074 27130000 		.long	LCFI36-Ltext0
 5873 0078 0200     		.word	0x2
 5874 007a 74       		.byte	0x74
 5875 007b 04       		.sleb128 4
 5876 007c 27130000 		.long	LCFI36-Ltext0
 5877 0080 29130000 		.long	LCFI37-Ltext0
 5878 0084 0200     		.word	0x2
 5879 0086 74       		.byte	0x74
 5880 0087 08       		.sleb128 8
 5881 0088 29130000 		.long	LCFI37-Ltext0
 5882 008c A3130000 		.long	LCFI38-Ltext0
 5883 0090 0200     		.word	0x2
 5884 0092 75       		.byte	0x75
 5885 0093 08       		.sleb128 8
 5886 0094 A3130000 		.long	LCFI38-Ltext0
 5887 0098 A4130000 		.long	LFE30-Ltext0
 5888 009c 0200     		.word	0x2
 5889 009e 74       		.byte	0x74
 5890 009f 04       		.sleb128 4
 5891 00a0 00000000 		.long	0
 5892 00a4 00000000 		.long	0
 5893              	LLST11:
 5894 00a8 CD0E0000 		.long	LFB29-Ltext0
 5895 00ac CE0E0000 		.long	LCFI33-Ltext0
 5896 00b0 0200     		.word	0x2
 5897 00b2 74       		.byte	0x74
 5898 00b3 04       		.sleb128 4
 5899 00b4 CE0E0000 		.long	LCFI33-Ltext0
 5900 00b8 D00E0000 		.long	LCFI34-Ltext0
 5901 00bc 0200     		.word	0x2
 5902 00be 74       		.byte	0x74
 5903 00bf 08       		.sleb128 8
 5904 00c0 D00E0000 		.long	LCFI34-Ltext0
 5905 00c4 25130000 		.long	LCFI35-Ltext0
 5906 00c8 0200     		.word	0x2
 5907 00ca 75       		.byte	0x75
 5908 00cb 08       		.sleb128 8
 5909 00cc 25130000 		.long	LCFI35-Ltext0
 5910 00d0 26130000 		.long	LFE29-Ltext0
 5911 00d4 0200     		.word	0x2
 5912 00d6 74       		.byte	0x74
 5913 00d7 04       		.sleb128 4
 5914 00d8 00000000 		.long	0
 5915 00dc 00000000 		.long	0
 5916              	LLST10:
 5917 00e0 F80D0000 		.long	LFB28-Ltext0
 5918 00e4 F90D0000 		.long	LCFI30-Ltext0
 5919 00e8 0200     		.word	0x2
 5920 00ea 74       		.byte	0x74
 5921 00eb 04       		.sleb128 4
 5922 00ec F90D0000 		.long	LCFI30-Ltext0
 5923 00f0 FB0D0000 		.long	LCFI31-Ltext0
GAS LISTING C:\Users\jisu8\AppData\Local\Temp\ccM43flq.s 			page 140


 5924 00f4 0200     		.word	0x2
 5925 00f6 74       		.byte	0x74
 5926 00f7 08       		.sleb128 8
 5927 00f8 FB0D0000 		.long	LCFI31-Ltext0
 5928 00fc CC0E0000 		.long	LCFI32-Ltext0
 5929 0100 0200     		.word	0x2
 5930 0102 75       		.byte	0x75
 5931 0103 08       		.sleb128 8
 5932 0104 CC0E0000 		.long	LCFI32-Ltext0
 5933 0108 CD0E0000 		.long	LFE28-Ltext0
 5934 010c 0200     		.word	0x2
 5935 010e 74       		.byte	0x74
 5936 010f 04       		.sleb128 4
 5937 0110 00000000 		.long	0
 5938 0114 00000000 		.long	0
 5939              	LLST9:
 5940 0118 5D0D0000 		.long	LFB27-Ltext0
 5941 011c 5E0D0000 		.long	LCFI27-Ltext0
 5942 0120 0200     		.word	0x2
 5943 0122 74       		.byte	0x74
 5944 0123 04       		.sleb128 4
 5945 0124 5E0D0000 		.long	LCFI27-Ltext0
 5946 0128 600D0000 		.long	LCFI28-Ltext0
 5947 012c 0200     		.word	0x2
 5948 012e 74       		.byte	0x74
 5949 012f 08       		.sleb128 8
 5950 0130 600D0000 		.long	LCFI28-Ltext0
 5951 0134 F70D0000 		.long	LCFI29-Ltext0
 5952 0138 0200     		.word	0x2
 5953 013a 75       		.byte	0x75
 5954 013b 08       		.sleb128 8
 5955 013c F70D0000 		.long	LCFI29-Ltext0
 5956 0140 F80D0000 		.long	LFE27-Ltext0
 5957 0144 0200     		.word	0x2
 5958 0146 74       		.byte	0x74
 5959 0147 04       		.sleb128 4
 5960 0148 00000000 		.long	0
 5961 014c 00000000 		.long	0
 5962              	LLST8:
 5963 0150 490B0000 		.long	LFB26-Ltext0
 5964 0154 4A0B0000 		.long	LCFI24-Ltext0
 5965 0158 0200     		.word	0x2
 5966 015a 74       		.byte	0x74
 5967 015b 04       		.sleb128 4
 5968 015c 4A0B0000 		.long	LCFI24-Ltext0
 5969 0160 4C0B0000 		.long	LCFI25-Ltext0
 5970 0164 0200     		.word	0x2
 5971 0166 74       		.byte	0x74
 5972 0167 08       		.sleb128 8
 5973 0168 4C0B0000 		.long	LCFI25-Ltext0
 5974 016c 5C0D0000 		.long	LCFI26-Ltext0
 5975 0170 0200     		.word	0x2
 5976 0172 75       		.byte	0x75
 5977 0173 08       		.sleb128 8
 5978 0174 5C0D0000 		.long	LCFI26-Ltext0
 5979 0178 5D0D0000 		.long	LFE26-Ltext0
 5980 017c 0200     		.word	0x2
GAS LISTING C:\Users\jisu8\AppData\Local\Temp\ccM43flq.s 			page 141


 5981 017e 74       		.byte	0x74
 5982 017f 04       		.sleb128 4
 5983 0180 00000000 		.long	0
 5984 0184 00000000 		.long	0
 5985              	LLST7:
 5986 0188 7E090000 		.long	LFB24-Ltext0
 5987 018c 7F090000 		.long	LCFI21-Ltext0
 5988 0190 0200     		.word	0x2
 5989 0192 74       		.byte	0x74
 5990 0193 04       		.sleb128 4
 5991 0194 7F090000 		.long	LCFI21-Ltext0
 5992 0198 81090000 		.long	LCFI22-Ltext0
 5993 019c 0200     		.word	0x2
 5994 019e 74       		.byte	0x74
 5995 019f 08       		.sleb128 8
 5996 01a0 81090000 		.long	LCFI22-Ltext0
 5997 01a4 420B0000 		.long	LCFI23-Ltext0
 5998 01a8 0200     		.word	0x2
 5999 01aa 75       		.byte	0x75
 6000 01ab 08       		.sleb128 8
 6001 01ac 420B0000 		.long	LCFI23-Ltext0
 6002 01b0 430B0000 		.long	LFE24-Ltext0
 6003 01b4 0200     		.word	0x2
 6004 01b6 74       		.byte	0x74
 6005 01b7 04       		.sleb128 4
 6006 01b8 00000000 		.long	0
 6007 01bc 00000000 		.long	0
 6008              	LLST6:
 6009 01c0 C8080000 		.long	LFB23-Ltext0
 6010 01c4 C9080000 		.long	LCFI18-Ltext0
 6011 01c8 0200     		.word	0x2
 6012 01ca 74       		.byte	0x74
 6013 01cb 04       		.sleb128 4
 6014 01cc C9080000 		.long	LCFI18-Ltext0
 6015 01d0 CB080000 		.long	LCFI19-Ltext0
 6016 01d4 0200     		.word	0x2
 6017 01d6 74       		.byte	0x74
 6018 01d7 08       		.sleb128 8
 6019 01d8 CB080000 		.long	LCFI19-Ltext0
 6020 01dc 7D090000 		.long	LCFI20-Ltext0
 6021 01e0 0200     		.word	0x2
 6022 01e2 75       		.byte	0x75
 6023 01e3 08       		.sleb128 8
 6024 01e4 7D090000 		.long	LCFI20-Ltext0
 6025 01e8 7E090000 		.long	LFE23-Ltext0
 6026 01ec 0200     		.word	0x2
 6027 01ee 74       		.byte	0x74
 6028 01ef 04       		.sleb128 4
 6029 01f0 00000000 		.long	0
 6030 01f4 00000000 		.long	0
 6031              	LLST5:
 6032 01f8 28070000 		.long	LFB22-Ltext0
 6033 01fc 29070000 		.long	LCFI15-Ltext0
 6034 0200 0200     		.word	0x2
 6035 0202 74       		.byte	0x74
 6036 0203 04       		.sleb128 4
 6037 0204 29070000 		.long	LCFI15-Ltext0
GAS LISTING C:\Users\jisu8\AppData\Local\Temp\ccM43flq.s 			page 142


 6038 0208 2B070000 		.long	LCFI16-Ltext0
 6039 020c 0200     		.word	0x2
 6040 020e 74       		.byte	0x74
 6041 020f 08       		.sleb128 8
 6042 0210 2B070000 		.long	LCFI16-Ltext0
 6043 0214 C7080000 		.long	LCFI17-Ltext0
 6044 0218 0200     		.word	0x2
 6045 021a 75       		.byte	0x75
 6046 021b 08       		.sleb128 8
 6047 021c C7080000 		.long	LCFI17-Ltext0
 6048 0220 C8080000 		.long	LFE22-Ltext0
 6049 0224 0200     		.word	0x2
 6050 0226 74       		.byte	0x74
 6051 0227 04       		.sleb128 4
 6052 0228 00000000 		.long	0
 6053 022c 00000000 		.long	0
 6054              	LLST4:
 6055 0230 97040000 		.long	LFB21-Ltext0
 6056 0234 98040000 		.long	LCFI12-Ltext0
 6057 0238 0200     		.word	0x2
 6058 023a 74       		.byte	0x74
 6059 023b 04       		.sleb128 4
 6060 023c 98040000 		.long	LCFI12-Ltext0
 6061 0240 9A040000 		.long	LCFI13-Ltext0
 6062 0244 0200     		.word	0x2
 6063 0246 74       		.byte	0x74
 6064 0247 08       		.sleb128 8
 6065 0248 9A040000 		.long	LCFI13-Ltext0
 6066 024c 27070000 		.long	LCFI14-Ltext0
 6067 0250 0200     		.word	0x2
 6068 0252 75       		.byte	0x75
 6069 0253 08       		.sleb128 8
 6070 0254 27070000 		.long	LCFI14-Ltext0
 6071 0258 28070000 		.long	LFE21-Ltext0
 6072 025c 0200     		.word	0x2
 6073 025e 74       		.byte	0x74
 6074 025f 04       		.sleb128 4
 6075 0260 00000000 		.long	0
 6076 0264 00000000 		.long	0
 6077              	LLST3:
 6078 0268 EB030000 		.long	LFB20-Ltext0
 6079 026c EC030000 		.long	LCFI9-Ltext0
 6080 0270 0200     		.word	0x2
 6081 0272 74       		.byte	0x74
 6082 0273 04       		.sleb128 4
 6083 0274 EC030000 		.long	LCFI9-Ltext0
 6084 0278 EE030000 		.long	LCFI10-Ltext0
 6085 027c 0200     		.word	0x2
 6086 027e 74       		.byte	0x74
 6087 027f 08       		.sleb128 8
 6088 0280 EE030000 		.long	LCFI10-Ltext0
 6089 0284 96040000 		.long	LCFI11-Ltext0
 6090 0288 0200     		.word	0x2
 6091 028a 75       		.byte	0x75
 6092 028b 08       		.sleb128 8
 6093 028c 96040000 		.long	LCFI11-Ltext0
 6094 0290 97040000 		.long	LFE20-Ltext0
GAS LISTING C:\Users\jisu8\AppData\Local\Temp\ccM43flq.s 			page 143


 6095 0294 0200     		.word	0x2
 6096 0296 74       		.byte	0x74
 6097 0297 04       		.sleb128 4
 6098 0298 00000000 		.long	0
 6099 029c 00000000 		.long	0
 6100              	LLST2:
 6101 02a0 79000000 		.long	LFB19-Ltext0
 6102 02a4 7A000000 		.long	LCFI6-Ltext0
 6103 02a8 0200     		.word	0x2
 6104 02aa 74       		.byte	0x74
 6105 02ab 04       		.sleb128 4
 6106 02ac 7A000000 		.long	LCFI6-Ltext0
 6107 02b0 7C000000 		.long	LCFI7-Ltext0
 6108 02b4 0200     		.word	0x2
 6109 02b6 74       		.byte	0x74
 6110 02b7 08       		.sleb128 8
 6111 02b8 7C000000 		.long	LCFI7-Ltext0
 6112 02bc EA030000 		.long	LCFI8-Ltext0
 6113 02c0 0200     		.word	0x2
 6114 02c2 75       		.byte	0x75
 6115 02c3 08       		.sleb128 8
 6116 02c4 EA030000 		.long	LCFI8-Ltext0
 6117 02c8 EB030000 		.long	LFE19-Ltext0
 6118 02cc 0200     		.word	0x2
 6119 02ce 74       		.byte	0x74
 6120 02cf 04       		.sleb128 4
 6121 02d0 00000000 		.long	0
 6122 02d4 00000000 		.long	0
 6123              	LLST1:
 6124 02d8 27000000 		.long	LFB18-Ltext0
 6125 02dc 28000000 		.long	LCFI3-Ltext0
 6126 02e0 0200     		.word	0x2
 6127 02e2 74       		.byte	0x74
 6128 02e3 04       		.sleb128 4
 6129 02e4 28000000 		.long	LCFI3-Ltext0
 6130 02e8 2A000000 		.long	LCFI4-Ltext0
 6131 02ec 0200     		.word	0x2
 6132 02ee 74       		.byte	0x74
 6133 02ef 08       		.sleb128 8
 6134 02f0 2A000000 		.long	LCFI4-Ltext0
 6135 02f4 78000000 		.long	LCFI5-Ltext0
 6136 02f8 0200     		.word	0x2
 6137 02fa 75       		.byte	0x75
 6138 02fb 08       		.sleb128 8
 6139 02fc 78000000 		.long	LCFI5-Ltext0
 6140 0300 79000000 		.long	LFE18-Ltext0
 6141 0304 0200     		.word	0x2
 6142 0306 74       		.byte	0x74
 6143 0307 04       		.sleb128 4
 6144 0308 00000000 		.long	0
 6145 030c 00000000 		.long	0
 6146              	LLST0:
 6147 0310 00000000 		.long	LFB17-Ltext0
 6148 0314 01000000 		.long	LCFI0-Ltext0
 6149 0318 0200     		.word	0x2
 6150 031a 74       		.byte	0x74
 6151 031b 04       		.sleb128 4
GAS LISTING C:\Users\jisu8\AppData\Local\Temp\ccM43flq.s 			page 144


 6152 031c 01000000 		.long	LCFI0-Ltext0
 6153 0320 03000000 		.long	LCFI1-Ltext0
 6154 0324 0200     		.word	0x2
 6155 0326 74       		.byte	0x74
 6156 0327 08       		.sleb128 8
 6157 0328 03000000 		.long	LCFI1-Ltext0
 6158 032c 26000000 		.long	LCFI2-Ltext0
 6159 0330 0200     		.word	0x2
 6160 0332 75       		.byte	0x75
 6161 0333 08       		.sleb128 8
 6162 0334 26000000 		.long	LCFI2-Ltext0
 6163 0338 27000000 		.long	LFE17-Ltext0
 6164 033c 0200     		.word	0x2
 6165 033e 74       		.byte	0x74
 6166 033f 04       		.sleb128 4
 6167 0340 00000000 		.long	0
 6168 0344 00000000 		.long	0
 6169              		.section	.debug_aranges,"dr"
 6170 0000 1C000000 		.long	0x1c
 6171 0004 0200     		.word	0x2
 6172 0006 00000000 		.secrel32	Ldebug_info0
 6173 000a 04       		.byte	0x4
 6174 000b 00       		.byte	0
 6175 000c 0000     		.word	0
 6176 000e 0000     		.word	0
 6177 0010 00000000 		.long	Ltext0
 6178 0014 F6170000 		.long	Letext0-Ltext0
 6179 0018 00000000 		.long	0
 6180 001c 00000000 		.long	0
 6181              		.section	.debug_ranges,"dr"
 6182              	Ldebug_ranges0:
 6183 0000 3A070000 		.long	LBB4-Ltext0
 6184 0004 F7070000 		.long	LBE4-Ltext0
 6185 0008 07080000 		.long	LBB5-Ltext0
 6186 000c 08080000 		.long	LBE5-Ltext0
 6187 0010 00000000 		.long	0
 6188 0014 00000000 		.long	0
 6189              		.section	.debug_line,"dr"
 6190              	Ldebug_line0:
 6191 0000 C8090000 		.section	.debug_str,"dr"
 6191      02001701 
 6191      00000101 
 6191      FB0E0D00 
 6191      01010101 
 6192              	LASF1:
 6193 0000 73746174 		.ascii "status\0"
 6193      757300
 6194              	LASF6:
 6195 0007 72657375 		.ascii "resultMetadata\0"
 6195      6C744D65 
 6195      74616461 
 6195      746100
 6196              	LASF2:
 6197 0016 636F6465 		.ascii "codewords\0"
 6197      776F7264 
 6197      7300
 6198              	LASF7:
GAS LISTING C:\Users\jisu8\AppData\Local\Temp\ccM43flq.s 			page 145


 6199 0020 636F6465 		.ascii "codeIndex\0"
 6199      496E6465 
 6199      7800
 6200              	LASF0:
 6201 002a 636F756E 		.ascii "count\0"
 6201      7400
 6202              	LASF8:
 6203 0030 636F6465 		.ascii "code\0"
 6203      00
 6204              	LASF9:
 6205 0035 74726169 		.ascii "trailingCount\0"
 6205      6C696E67 
 6205      436F756E 
 6205      7400
 6206              	LASF5:
 6207 0043 656E636F 		.ascii "encoding\0"
 6207      64696E67 
 6207      00
 6208              	LASF10:
 6209 004c 74657874 		.ascii "textCompactionData\0"
 6209      436F6D70 
 6209      61637469 
 6209      6F6E4461 
 6209      746100
 6210              	LASF4:
 6211 005f 72657375 		.ascii "result\0"
 6211      6C7400
 6212              	LASF3:
 6213 0066 72657375 		.ascii "resultEncoded\0"
 6213      6C74456E 
 6213      636F6465 
 6213      6400
 6214              		.ident	"GCC: (i686-posix-dwarf-rev0, Built by MinGW-W64 project) 8.1.0"
GAS LISTING C:\Users\jisu8\AppData\Local\Temp\ccM43flq.s 			page 146


DEFINED SYMBOLS
                            *ABS*:00000000 PDFDecodedBitStreamParser.c
C:\Users\jisu8\AppData\Local\Temp\ccM43flq.s:6      .rdata:00000000 _MAX_NUMERIC_CODEWORDS
C:\Users\jisu8\AppData\Local\Temp\ccM43flq.s:12     .data:00000000 _PUNCT_CHARS
C:\Users\jisu8\AppData\Local\Temp\ccM43flq.s:19     .data:00000004 _MIXED_CHARS
C:\Users\jisu8\AppData\Local\Temp\ccM43flq.s:23     .rdata:0000003c _NUMBER_OF_SEQUENCE_CODEWORDS
C:\Users\jisu8\AppData\Local\Temp\ccM43flq.s:27     .text:00000000 _TerminatesCompaction
C:\Users\jisu8\AppData\Local\Temp\ccM43flq.s:100    .text:00000027 _ProcessECI
C:\Users\jisu8\AppData\Local\Temp\ccM43flq.s:156    .text:00000079 _DecodeTextCompaction
C:\Users\jisu8\AppData\Local\Temp\ccM43flq.s:577    .text:000003eb _ProcessTextECI
C:\Users\jisu8\AppData\Local\Temp\ccM43flq.s:674    .text:00000497 _TextCompaction
C:\Users\jisu8\AppData\Local\Temp\ccM43flq.s:962    .text:00000728 _CountByteBatches
C:\Users\jisu8\AppData\Local\Temp\ccM43flq.s:1172   .text:000008c8 _ProcessByteECIs
C:\Users\jisu8\AppData\Local\Temp\ccM43flq.s:1264   .text:0000097e _ByteCompaction
C:\Users\jisu8\AppData\Local\Temp\ccM43flq.s:1479   .text:00000b43 _DecodeBase900toBase10
C:\Users\jisu8\AppData\Local\Temp\ccM43flq.s:1490   .text:00000b49 _NumericCompaction
C:\Users\jisu8\AppData\Local\Temp\ccM43flq.s:1731   .text:00000d5d _DecodeMacroOptionalTextField
C:\Users\jisu8\AppData\Local\Temp\ccM43flq.s:1803   .text:00000df8 _DecodeMacroOptionalNumericField
C:\Users\jisu8\AppData\Local\Temp\ccM43flq.s:1886   .text:00000ecd _DecodeMacroBlock
C:\Users\jisu8\AppData\Local\Temp\ccM43flq.s:2346   .text:00001326 _DecoderResultExtra_init
C:\Users\jisu8\AppData\Local\Temp\ccM43flq.s:2402   .text:000013a4 _StructuredAppendInfo_Init
C:\Users\jisu8\AppData\Local\Temp\ccM43flq.s:2433   .text:000013c7 _BitStreamDecode

UNDEFINED SYMBOLS
___chkstk_ms
_puts
_strlen
_fill
_Append
_strtol
