GAS LISTING C:\Users\jisu8\AppData\Local\Temp\cc5AG2CR.s 			page 1


   1              		.file	"PDFDetectionResultColumn.c"
   2              		.text
   3              	Ltext0:
   4              		.section .rdata,"dr"
   5              		.align 4
   6              	_MAX_NEARBY_DISTANCE:
   7 0000 05000000 		.long	5
   8              		.align 4
   9              	_MIN_ROWS_IN_BARCODE:
  10 0004 03000000 		.long	3
  11              		.align 4
  12              	_MAX_ROWS_IN_BARCODE:
  13 0008 5A000000 		.long	90
  14              		.comm	_codewords, 4000, 5
  15              	LC0:
  16 000c 496E7661 		.ascii "Invalid bounding box\0"
  16      6C696420 
  16      626F756E 
  16      64696E67 
  16      20626F78 
  17              		.text
  18              		.globl	_DetectionResultColumn
  20              	_DetectionResultColumn:
  21              	LFB4:
  22              		.file 1 "src/pdf417/PDFDetectionResultColumn.c"
   1:src/pdf417/PDFDetectionResultColumn.c **** /*
   2:src/pdf417/PDFDetectionResultColumn.c **** * Copyright 2016 Nu-book Inc.
   3:src/pdf417/PDFDetectionResultColumn.c **** * Copyright 2016 ZXing authors
   4:src/pdf417/PDFDetectionResultColumn.c **** *
   5:src/pdf417/PDFDetectionResultColumn.c **** * Licensed under the Apache License, Version 2.0 (the "License");
   6:src/pdf417/PDFDetectionResultColumn.c **** * you may not use this file except in compliance with the License.
   7:src/pdf417/PDFDetectionResultColumn.c **** * You may obtain a copy of the License at
   8:src/pdf417/PDFDetectionResultColumn.c **** *
   9:src/pdf417/PDFDetectionResultColumn.c **** *      http://www.apache.org/licenses/LICENSE-2.0
  10:src/pdf417/PDFDetectionResultColumn.c **** *
  11:src/pdf417/PDFDetectionResultColumn.c **** * Unless required by applicable law or agreed to in writing, software
  12:src/pdf417/PDFDetectionResultColumn.c **** * distributed under the License is distributed on an "AS IS" BASIS,
  13:src/pdf417/PDFDetectionResultColumn.c **** * WITHOUT WARRANTIES OR CONDITIONS OF ANY KIND, either express or implied.
  14:src/pdf417/PDFDetectionResultColumn.c **** * See the License for the specific language governing permissions and
  15:src/pdf417/PDFDetectionResultColumn.c **** * limitations under the License.
  16:src/pdf417/PDFDetectionResultColumn.c **** */
  17:src/pdf417/PDFDetectionResultColumn.c **** 
  18:src/pdf417/PDFDetectionResultColumn.c **** #include "PDFBarcodeMetadata.h"
  19:src/pdf417/PDFDetectionResultColumn.c **** #include "PDFBarcodeValue.h"
  20:src/pdf417/PDFDetectionResultColumn.c **** #include "PDFScanningDecoder.h"
  21:src/pdf417/PDFDetectionResultColumn.c **** #include <stdlib.h>
  22:src/pdf417/PDFDetectionResultColumn.c **** 
  23:src/pdf417/PDFDetectionResultColumn.c **** static const int MAX_NEARBY_DISTANCE = 5;
  24:src/pdf417/PDFDetectionResultColumn.c **** static const int MIN_ROWS_IN_BARCODE = 3;
  25:src/pdf417/PDFDetectionResultColumn.c **** static const int MAX_ROWS_IN_BARCODE = 90;
  26:src/pdf417/PDFDetectionResultColumn.c **** 
  27:src/pdf417/PDFDetectionResultColumn.c **** int codewords[1000];
  28:src/pdf417/PDFDetectionResultColumn.c **** 
  29:src/pdf417/PDFDetectionResultColumn.c **** void DetectionResultColumn(const BoundingBox_t * boundingBox, RowIndicator_t rowInd, DetectionResul
  30:src/pdf417/PDFDetectionResultColumn.c **** {
  23              		.loc 1 30 1
  24              		.cfi_startproc
GAS LISTING C:\Users\jisu8\AppData\Local\Temp\cc5AG2CR.s 			page 2


  25 0000 55       		pushl	%ebp
  26              	LCFI0:
  27              		.cfi_def_cfa_offset 8
  28              		.cfi_offset 5, -8
  29 0001 89E5     		movl	%esp, %ebp
  30              	LCFI1:
  31              		.cfi_def_cfa_register 5
  32 0003 83EC18   		subl	$24, %esp
  31:src/pdf417/PDFDetectionResultColumn.c **** 	RowIndicatorColumn->m_value._boundingBox.m_hasValue = 1;
  33              		.loc 1 31 54
  34 0006 8B4510   		movl	16(%ebp), %eax
  35 0009 C6400401 		movb	$1, 4(%eax)
  32:src/pdf417/PDFDetectionResultColumn.c **** 	RowIndicatorColumn->m_value._boundingBox.m_value._imgWidth = boundingBox->m_value._imgWidth;
  36              		.loc 1 32 83
  37 000d 8B4508   		movl	8(%ebp), %eax
  38 0010 8B5004   		movl	4(%eax), %edx
  39              		.loc 1 32 61
  40 0013 8B4510   		movl	16(%ebp), %eax
  41 0016 895008   		movl	%edx, 8(%eax)
  33:src/pdf417/PDFDetectionResultColumn.c **** 	RowIndicatorColumn->m_value._boundingBox.m_value._imgHeight = boundingBox->m_value._imgHeight;
  42              		.loc 1 33 84
  43 0019 8B4508   		movl	8(%ebp), %eax
  44 001c 8B5008   		movl	8(%eax), %edx
  45              		.loc 1 33 62
  46 001f 8B4510   		movl	16(%ebp), %eax
  47 0022 89500C   		movl	%edx, 12(%eax)
  34:src/pdf417/PDFDetectionResultColumn.c **** 	RowIndicatorColumn->m_value._boundingBox.m_value._topLeft = boundingBox->m_value._topLeft;
  48              		.loc 1 34 60
  49 0025 8B4510   		movl	16(%ebp), %eax
  50 0028 8B5508   		movl	8(%ebp), %edx
  51 002b 8B4A0C   		movl	12(%edx), %ecx
  52 002e 894810   		movl	%ecx, 16(%eax)
  53 0031 8B4A10   		movl	16(%edx), %ecx
  54 0034 894814   		movl	%ecx, 20(%eax)
  55 0037 8B5214   		movl	20(%edx), %edx
  56 003a 895018   		movl	%edx, 24(%eax)
  35:src/pdf417/PDFDetectionResultColumn.c **** 	RowIndicatorColumn->m_value._boundingBox.m_value._bottomLeft = boundingBox->m_value._bottomLeft;
  57              		.loc 1 35 63
  58 003d 8B4510   		movl	16(%ebp), %eax
  59 0040 8B5508   		movl	8(%ebp), %edx
  60 0043 8B4A18   		movl	24(%edx), %ecx
  61 0046 89481C   		movl	%ecx, 28(%eax)
  62 0049 8B4A1C   		movl	28(%edx), %ecx
  63 004c 894820   		movl	%ecx, 32(%eax)
  64 004f 8B5220   		movl	32(%edx), %edx
  65 0052 895024   		movl	%edx, 36(%eax)
  36:src/pdf417/PDFDetectionResultColumn.c **** 	RowIndicatorColumn->m_value._boundingBox.m_value._topRight = boundingBox->m_value._topRight;
  66              		.loc 1 36 61
  67 0055 8B4510   		movl	16(%ebp), %eax
  68 0058 8B5508   		movl	8(%ebp), %edx
  69 005b 8B4A24   		movl	36(%edx), %ecx
  70 005e 894828   		movl	%ecx, 40(%eax)
  71 0061 8B4A28   		movl	40(%edx), %ecx
  72 0064 89482C   		movl	%ecx, 44(%eax)
  73 0067 8B522C   		movl	44(%edx), %edx
  74 006a 895030   		movl	%edx, 48(%eax)
  37:src/pdf417/PDFDetectionResultColumn.c **** 	RowIndicatorColumn->m_value._boundingBox.m_value._bottomRight = boundingBox->m_value._bottomRight;
GAS LISTING C:\Users\jisu8\AppData\Local\Temp\cc5AG2CR.s 			page 3


  75              		.loc 1 37 64
  76 006d 8B4510   		movl	16(%ebp), %eax
  77 0070 8B5508   		movl	8(%ebp), %edx
  78 0073 8B4A30   		movl	48(%edx), %ecx
  79 0076 894834   		movl	%ecx, 52(%eax)
  80 0079 8B4A34   		movl	52(%edx), %ecx
  81 007c 894838   		movl	%ecx, 56(%eax)
  82 007f 8B5238   		movl	56(%edx), %edx
  83 0082 89503C   		movl	%edx, 60(%eax)
  38:src/pdf417/PDFDetectionResultColumn.c **** 	RowIndicatorColumn->m_value._boundingBox.m_value._minX = boundingBox->m_value._minX;
  84              		.loc 1 38 79
  85 0085 8B4508   		movl	8(%ebp), %eax
  86 0088 8B503C   		movl	60(%eax), %edx
  87              		.loc 1 38 57
  88 008b 8B4510   		movl	16(%ebp), %eax
  89 008e 895040   		movl	%edx, 64(%eax)
  39:src/pdf417/PDFDetectionResultColumn.c **** 	RowIndicatorColumn->m_value._boundingBox.m_value._maxX = boundingBox->m_value._maxX;
  90              		.loc 1 39 79
  91 0091 8B4508   		movl	8(%ebp), %eax
  92 0094 8B5040   		movl	64(%eax), %edx
  93              		.loc 1 39 57
  94 0097 8B4510   		movl	16(%ebp), %eax
  95 009a 895044   		movl	%edx, 68(%eax)
  40:src/pdf417/PDFDetectionResultColumn.c **** 	RowIndicatorColumn->m_value._boundingBox.m_value._minY = boundingBox->m_value._minY;
  96              		.loc 1 40 79
  97 009d 8B4508   		movl	8(%ebp), %eax
  98 00a0 8B5044   		movl	68(%eax), %edx
  99              		.loc 1 40 57
 100 00a3 8B4510   		movl	16(%ebp), %eax
 101 00a6 895048   		movl	%edx, 72(%eax)
  41:src/pdf417/PDFDetectionResultColumn.c **** 	RowIndicatorColumn->m_value._boundingBox.m_value._maxY = boundingBox->m_value._maxY;
 102              		.loc 1 41 79
 103 00a9 8B4508   		movl	8(%ebp), %eax
 104 00ac 8B5048   		movl	72(%eax), %edx
 105              		.loc 1 41 57
 106 00af 8B4510   		movl	16(%ebp), %eax
 107 00b2 89504C   		movl	%edx, 76(%eax)
  42:src/pdf417/PDFDetectionResultColumn.c **** 	RowIndicatorColumn->m_value._rowIndicator = rowInd;
 108              		.loc 1 42 44
 109 00b5 8B4510   		movl	16(%ebp), %eax
 110 00b8 8B550C   		movl	12(%ebp), %edx
 111 00bb 8990302F 		movl	%edx, 12080(%eax)
 111      0000
  43:src/pdf417/PDFDetectionResultColumn.c **** 	RowIndicatorColumn->m_hasValue = 1;
 112              		.loc 1 43 33
 113 00c1 8B4510   		movl	16(%ebp), %eax
 114 00c4 C60001   		movb	$1, (%eax)
  44:src/pdf417/PDFDetectionResultColumn.c **** 	
  45:src/pdf417/PDFDetectionResultColumn.c **** 	if (boundingBox->m_value._maxY < boundingBox->m_value._minY) 
 115              		.loc 1 45 26
 116 00c7 8B4508   		movl	8(%ebp), %eax
 117 00ca 8B5048   		movl	72(%eax), %edx
 118              		.loc 1 45 55
 119 00cd 8B4508   		movl	8(%ebp), %eax
 120 00d0 8B4044   		movl	68(%eax), %eax
 121              		.loc 1 45 5
 122 00d3 39C2     		cmpl	%eax, %edx
GAS LISTING C:\Users\jisu8\AppData\Local\Temp\cc5AG2CR.s 			page 4


 123 00d5 7D0C     		jge	L3
 124              	LBB2:
  46:src/pdf417/PDFDetectionResultColumn.c **** 	{
  47:src/pdf417/PDFDetectionResultColumn.c **** 		printf("Invalid bounding box");
 125              		.loc 1 47 3
 126 00d7 C704240C 		movl	$LC0, (%esp)
 126      000000
 127 00de E8000000 		call	_printf
 127      00
 128              	L3:
 129              	LBE2:
  48:src/pdf417/PDFDetectionResultColumn.c **** 	}
  49:src/pdf417/PDFDetectionResultColumn.c **** }
 130              		.loc 1 49 1
 131 00e3 90       		nop
 132 00e4 C9       		leave
 133              	LCFI2:
 134              		.cfi_restore 5
 135              		.cfi_def_cfa 4, 4
 136 00e5 C3       		ret
 137              		.cfi_endproc
 138              	LFE4:
 139              		.globl	_allCodewords
 141              	_allCodewords:
 142              	LFB5:
  50:src/pdf417/PDFDetectionResultColumn.c **** 
  51:src/pdf417/PDFDetectionResultColumn.c **** Codeword_t * allCodewords(DetectionResultColumn_t * RowIndicatorColumn) 
  52:src/pdf417/PDFDetectionResultColumn.c **** {
 143              		.loc 1 52 1
 144              		.cfi_startproc
 145 00e6 55       		pushl	%ebp
 146              	LCFI3:
 147              		.cfi_def_cfa_offset 8
 148              		.cfi_offset 5, -8
 149 00e7 89E5     		movl	%esp, %ebp
 150              	LCFI4:
 151              		.cfi_def_cfa_register 5
  53:src/pdf417/PDFDetectionResultColumn.c **** 	return RowIndicatorColumn->m_value._codewords;
 152              		.loc 1 53 9
 153 00e9 8B4508   		movl	8(%ebp), %eax
 154 00ec 83C050   		addl	$80, %eax
  54:src/pdf417/PDFDetectionResultColumn.c **** }
 155              		.loc 1 54 1
 156 00ef 5D       		popl	%ebp
 157              	LCFI5:
 158              		.cfi_restore 5
 159              		.cfi_def_cfa 4, 4
 160 00f0 C3       		ret
 161              		.cfi_endproc
 162              	LFE5:
 163              		.globl	_isRowIndicator
 165              	_isRowIndicator:
 166              	LFB6:
  55:src/pdf417/PDFDetectionResultColumn.c **** uint8_t isRowIndicator(DetectionResultColumn_t * RowIndicatorColumn)
  56:src/pdf417/PDFDetectionResultColumn.c **** {
 167              		.loc 1 56 1
 168              		.cfi_startproc
GAS LISTING C:\Users\jisu8\AppData\Local\Temp\cc5AG2CR.s 			page 5


 169 00f1 55       		pushl	%ebp
 170              	LCFI6:
 171              		.cfi_def_cfa_offset 8
 172              		.cfi_offset 5, -8
 173 00f2 89E5     		movl	%esp, %ebp
 174              	LCFI7:
 175              		.cfi_def_cfa_register 5
  57:src/pdf417/PDFDetectionResultColumn.c **** 	return RowIndicatorColumn->m_value._rowIndicator != None;
 176              		.loc 1 57 36
 177 00f4 8B4508   		movl	8(%ebp), %eax
 178 00f7 8B80302F 		movl	12080(%eax), %eax
 178      0000
 179              		.loc 1 57 51
 180 00fd 85C0     		testl	%eax, %eax
 181 00ff 0F95C0   		setne	%al
  58:src/pdf417/PDFDetectionResultColumn.c **** }
 182              		.loc 1 58 1
 183 0102 5D       		popl	%ebp
 184              	LCFI8:
 185              		.cfi_restore 5
 186              		.cfi_def_cfa 4, 4
 187 0103 C3       		ret
 188              		.cfi_endproc
 189              	LFE6:
 190              		.globl	_isLeftRowIndicator
 192              	_isLeftRowIndicator:
 193              	LFB7:
  59:src/pdf417/PDFDetectionResultColumn.c **** uint8_t isLeftRowIndicator(DetectionResultColumn_t * RowIndicatorColumn) 
  60:src/pdf417/PDFDetectionResultColumn.c **** {
 194              		.loc 1 60 1
 195              		.cfi_startproc
 196 0104 55       		pushl	%ebp
 197              	LCFI9:
 198              		.cfi_def_cfa_offset 8
 199              		.cfi_offset 5, -8
 200 0105 89E5     		movl	%esp, %ebp
 201              	LCFI10:
 202              		.cfi_def_cfa_register 5
  61:src/pdf417/PDFDetectionResultColumn.c **** 	return RowIndicatorColumn->m_value._rowIndicator == Left;
 203              		.loc 1 61 36
 204 0107 8B4508   		movl	8(%ebp), %eax
 205 010a 8B80302F 		movl	12080(%eax), %eax
 205      0000
 206              		.loc 1 61 51
 207 0110 83F801   		cmpl	$1, %eax
 208 0113 0F94C0   		sete	%al
  62:src/pdf417/PDFDetectionResultColumn.c **** }
 209              		.loc 1 62 1
 210 0116 5D       		popl	%ebp
 211              	LCFI11:
 212              		.cfi_restore 5
 213              		.cfi_def_cfa 4, 4
 214 0117 C3       		ret
 215              		.cfi_endproc
 216              	LFE7:
 217              		.globl	_codewordNearby
 219              	_codewordNearby:
GAS LISTING C:\Users\jisu8\AppData\Local\Temp\cc5AG2CR.s 			page 6


 220              	LFB8:
  63:src/pdf417/PDFDetectionResultColumn.c **** 
  64:src/pdf417/PDFDetectionResultColumn.c **** Codeword_t codewordNearby(DetectionResultColumn_t * RowIndicatorColumn,int imageRow,int size) 
  65:src/pdf417/PDFDetectionResultColumn.c **** {
 221              		.loc 1 65 1
 222              		.cfi_startproc
 223 0118 55       		pushl	%ebp
 224              	LCFI12:
 225              		.cfi_def_cfa_offset 8
 226              		.cfi_offset 5, -8
 227 0119 89E5     		movl	%esp, %ebp
 228              	LCFI13:
 229              		.cfi_def_cfa_register 5
 230 011b 53       		pushl	%ebx
 231 011c 83EC10   		subl	$16, %esp
 232              		.cfi_offset 3, -12
  66:src/pdf417/PDFDetectionResultColumn.c **** 	int index = imageRow - RowIndicatorColumn->m_value._boundingBox.m_value._minY;
 233              		.loc 1 66 73
 234 011f 8B450C   		movl	12(%ebp), %eax
 235 0122 8B4048   		movl	72(%eax), %eax
 236              		.loc 1 66 6
 237 0125 8B5510   		movl	16(%ebp), %edx
 238 0128 29C2     		subl	%eax, %edx
 239 012a 89D0     		movl	%edx, %eax
 240 012c 8945F4   		movl	%eax, -12(%ebp)
  67:src/pdf417/PDFDetectionResultColumn.c **** 	if (RowIndicatorColumn->m_value._codewords[index].m_hasValue != 0) 
 241              		.loc 1 67 51
 242 012f 8B4D0C   		movl	12(%ebp), %ecx
 243 0132 8B55F4   		movl	-12(%ebp), %edx
 244 0135 89D0     		movl	%edx, %eax
 245 0137 01C0     		addl	%eax, %eax
 246 0139 01D0     		addl	%edx, %eax
 247 013b C1E003   		sall	$3, %eax
 248 013e 01C8     		addl	%ecx, %eax
 249 0140 83C050   		addl	$80, %eax
 250 0143 0FB600   		movzbl	(%eax), %eax
 251              		.loc 1 67 5
 252 0146 84C0     		testb	%al, %al
 253 0148 743F     		je	L11
  68:src/pdf417/PDFDetectionResultColumn.c **** 	{
  69:src/pdf417/PDFDetectionResultColumn.c **** 		return RowIndicatorColumn->m_value._codewords[index];
 254              		.loc 1 69 48
 255 014a 8B5508   		movl	8(%ebp), %edx
 256 014d 8B5D0C   		movl	12(%ebp), %ebx
 257 0150 8B4DF4   		movl	-12(%ebp), %ecx
 258 0153 89C8     		movl	%ecx, %eax
 259 0155 01C0     		addl	%eax, %eax
 260 0157 01C8     		addl	%ecx, %eax
 261 0159 C1E003   		sall	$3, %eax
 262 015c 01D8     		addl	%ebx, %eax
 263 015e 83C040   		addl	$64, %eax
 264 0161 8B4810   		movl	16(%eax), %ecx
 265 0164 890A     		movl	%ecx, (%edx)
 266 0166 8B4814   		movl	20(%eax), %ecx
 267 0169 894A04   		movl	%ecx, 4(%edx)
 268 016c 8B4818   		movl	24(%eax), %ecx
 269 016f 894A08   		movl	%ecx, 8(%edx)
GAS LISTING C:\Users\jisu8\AppData\Local\Temp\cc5AG2CR.s 			page 7


 270 0172 8B481C   		movl	28(%eax), %ecx
 271 0175 894A0C   		movl	%ecx, 12(%edx)
 272 0178 8B4820   		movl	32(%eax), %ecx
 273 017b 894A10   		movl	%ecx, 16(%edx)
 274 017e 8B4024   		movl	36(%eax), %eax
 275 0181 894214   		movl	%eax, 20(%edx)
 276 0184 E93D0100 		jmp	L10
 276      00
 277              	L11:
 278              	LBB3:
  70:src/pdf417/PDFDetectionResultColumn.c **** 	}
  71:src/pdf417/PDFDetectionResultColumn.c **** 
  72:src/pdf417/PDFDetectionResultColumn.c **** 	for (int i = 1; i < MAX_NEARBY_DISTANCE; i++) 
 279              		.loc 1 72 11
 280 0189 C745F801 		movl	$1, -8(%ebp)
 280      000000
 281              		.loc 1 72 2
 282 0190 E9E90000 		jmp	L13
 282      00
 283              	L16:
 284              	LBB4:
  73:src/pdf417/PDFDetectionResultColumn.c **** 	{
  74:src/pdf417/PDFDetectionResultColumn.c **** 		int nearImageRow = imageRow - RowIndicatorColumn->m_value._boundingBox.m_value._minY - i;
 285              		.loc 1 74 81
 286 0195 8B450C   		movl	12(%ebp), %eax
 287 0198 8B4048   		movl	72(%eax), %eax
 288              		.loc 1 74 31
 289 019b 8B5510   		movl	16(%ebp), %edx
 290 019e 29C2     		subl	%eax, %edx
 291 01a0 89D0     		movl	%edx, %eax
 292              		.loc 1 74 7
 293 01a2 2B45F8   		subl	-8(%ebp), %eax
 294 01a5 8945F0   		movl	%eax, -16(%ebp)
  75:src/pdf417/PDFDetectionResultColumn.c **** 		if (nearImageRow >= 0) 
 295              		.loc 1 75 6
 296 01a8 837DF000 		cmpl	$0, -16(%ebp)
 297 01ac 785A     		js	L14
  76:src/pdf417/PDFDetectionResultColumn.c **** 		{
  77:src/pdf417/PDFDetectionResultColumn.c **** 			if (RowIndicatorColumn->m_value._codewords[nearImageRow].m_hasValue != 0) 
 298              		.loc 1 77 60
 299 01ae 8B4D0C   		movl	12(%ebp), %ecx
 300 01b1 8B55F0   		movl	-16(%ebp), %edx
 301 01b4 89D0     		movl	%edx, %eax
 302 01b6 01C0     		addl	%eax, %eax
 303 01b8 01D0     		addl	%edx, %eax
 304 01ba C1E003   		sall	$3, %eax
 305 01bd 01C8     		addl	%ecx, %eax
 306 01bf 83C050   		addl	$80, %eax
 307 01c2 0FB600   		movzbl	(%eax), %eax
 308              		.loc 1 77 7
 309 01c5 84C0     		testb	%al, %al
 310 01c7 743F     		je	L14
  78:src/pdf417/PDFDetectionResultColumn.c **** 			{
  79:src/pdf417/PDFDetectionResultColumn.c **** 				return RowIndicatorColumn->m_value._codewords[nearImageRow];
 311              		.loc 1 79 50
 312 01c9 8B5508   		movl	8(%ebp), %edx
 313 01cc 8B5D0C   		movl	12(%ebp), %ebx
GAS LISTING C:\Users\jisu8\AppData\Local\Temp\cc5AG2CR.s 			page 8


 314 01cf 8B4DF0   		movl	-16(%ebp), %ecx
 315 01d2 89C8     		movl	%ecx, %eax
 316 01d4 01C0     		addl	%eax, %eax
 317 01d6 01C8     		addl	%ecx, %eax
 318 01d8 C1E003   		sall	$3, %eax
 319 01db 01D8     		addl	%ebx, %eax
 320 01dd 83C040   		addl	$64, %eax
 321 01e0 8B4810   		movl	16(%eax), %ecx
 322 01e3 890A     		movl	%ecx, (%edx)
 323 01e5 8B4814   		movl	20(%eax), %ecx
 324 01e8 894A04   		movl	%ecx, 4(%edx)
 325 01eb 8B4818   		movl	24(%eax), %ecx
 326 01ee 894A08   		movl	%ecx, 8(%edx)
 327 01f1 8B481C   		movl	28(%eax), %ecx
 328 01f4 894A0C   		movl	%ecx, 12(%edx)
 329 01f7 8B4820   		movl	32(%eax), %ecx
 330 01fa 894A10   		movl	%ecx, 16(%edx)
 331 01fd 8B4024   		movl	36(%eax), %eax
 332 0200 894214   		movl	%eax, 20(%edx)
 333 0203 E9BE0000 		jmp	L10
 333      00
 334              	L14:
  80:src/pdf417/PDFDetectionResultColumn.c **** 			}
  81:src/pdf417/PDFDetectionResultColumn.c **** 		}
  82:src/pdf417/PDFDetectionResultColumn.c **** 		nearImageRow = imageRow - RowIndicatorColumn->m_value._boundingBox.m_value._minY + i;
 335              		.loc 1 82 77
 336 0208 8B450C   		movl	12(%ebp), %eax
 337 020b 8B4048   		movl	72(%eax), %eax
 338              		.loc 1 82 27
 339 020e 8B5510   		movl	16(%ebp), %edx
 340 0211 29C2     		subl	%eax, %edx
 341              		.loc 1 82 16
 342 0213 8B45F8   		movl	-8(%ebp), %eax
 343 0216 01D0     		addl	%edx, %eax
 344 0218 8945F0   		movl	%eax, -16(%ebp)
  83:src/pdf417/PDFDetectionResultColumn.c **** 		if (nearImageRow < size) 
 345              		.loc 1 83 6
 346 021b 8B45F0   		movl	-16(%ebp), %eax
 347 021e 3B4514   		cmpl	20(%ebp), %eax
 348 0221 7D57     		jge	L15
  84:src/pdf417/PDFDetectionResultColumn.c **** 		{
  85:src/pdf417/PDFDetectionResultColumn.c **** 			if (RowIndicatorColumn->m_value._codewords[nearImageRow].m_hasValue != 0) 
 349              		.loc 1 85 60
 350 0223 8B4D0C   		movl	12(%ebp), %ecx
 351 0226 8B55F0   		movl	-16(%ebp), %edx
 352 0229 89D0     		movl	%edx, %eax
 353 022b 01C0     		addl	%eax, %eax
 354 022d 01D0     		addl	%edx, %eax
 355 022f C1E003   		sall	$3, %eax
 356 0232 01C8     		addl	%ecx, %eax
 357 0234 83C050   		addl	$80, %eax
 358 0237 0FB600   		movzbl	(%eax), %eax
 359              		.loc 1 85 7
 360 023a 84C0     		testb	%al, %al
 361 023c 743C     		je	L15
  86:src/pdf417/PDFDetectionResultColumn.c **** 			{
  87:src/pdf417/PDFDetectionResultColumn.c **** 				return RowIndicatorColumn->m_value._codewords[nearImageRow];
GAS LISTING C:\Users\jisu8\AppData\Local\Temp\cc5AG2CR.s 			page 9


 362              		.loc 1 87 50
 363 023e 8B5508   		movl	8(%ebp), %edx
 364 0241 8B5D0C   		movl	12(%ebp), %ebx
 365 0244 8B4DF0   		movl	-16(%ebp), %ecx
 366 0247 89C8     		movl	%ecx, %eax
 367 0249 01C0     		addl	%eax, %eax
 368 024b 01C8     		addl	%ecx, %eax
 369 024d C1E003   		sall	$3, %eax
 370 0250 01D8     		addl	%ebx, %eax
 371 0252 83C040   		addl	$64, %eax
 372 0255 8B4810   		movl	16(%eax), %ecx
 373 0258 890A     		movl	%ecx, (%edx)
 374 025a 8B4814   		movl	20(%eax), %ecx
 375 025d 894A04   		movl	%ecx, 4(%edx)
 376 0260 8B4818   		movl	24(%eax), %ecx
 377 0263 894A08   		movl	%ecx, 8(%edx)
 378 0266 8B481C   		movl	28(%eax), %ecx
 379 0269 894A0C   		movl	%ecx, 12(%edx)
 380 026c 8B4820   		movl	32(%eax), %ecx
 381 026f 894A10   		movl	%ecx, 16(%edx)
 382 0272 8B4024   		movl	36(%eax), %eax
 383 0275 894214   		movl	%eax, 20(%edx)
 384 0278 EB4C     		jmp	L10
 385              	L15:
 386              	LBE4:
  72:src/pdf417/PDFDetectionResultColumn.c **** 	{
 387              		.loc 1 72 44 discriminator 2
 388 027a 8345F801 		addl	$1, -8(%ebp)
 389              	L13:
  72:src/pdf417/PDFDetectionResultColumn.c **** 	{
 390              		.loc 1 72 20 discriminator 1
 391 027e B8050000 		movl	$5, %eax
 391      00
  72:src/pdf417/PDFDetectionResultColumn.c **** 	{
 392              		.loc 1 72 2 discriminator 1
 393 0283 3945F8   		cmpl	%eax, -8(%ebp)
 394 0286 0F8C09FF 		jl	L16
 394      FFFF
 395              	LBE3:
  88:src/pdf417/PDFDetectionResultColumn.c **** 			}
  89:src/pdf417/PDFDetectionResultColumn.c **** 		}
  90:src/pdf417/PDFDetectionResultColumn.c **** 	}
  91:src/pdf417/PDFDetectionResultColumn.c **** 
  92:src/pdf417/PDFDetectionResultColumn.c **** 	return RowIndicatorColumn->m_value._codewords[index];
 396              		.loc 1 92 47
 397 028c 8B5508   		movl	8(%ebp), %edx
 398 028f 8B5D0C   		movl	12(%ebp), %ebx
 399 0292 8B4DF4   		movl	-12(%ebp), %ecx
 400 0295 89C8     		movl	%ecx, %eax
 401 0297 01C0     		addl	%eax, %eax
 402 0299 01C8     		addl	%ecx, %eax
 403 029b C1E003   		sall	$3, %eax
 404 029e 01D8     		addl	%ebx, %eax
 405 02a0 83C040   		addl	$64, %eax
 406 02a3 8B4810   		movl	16(%eax), %ecx
 407 02a6 890A     		movl	%ecx, (%edx)
 408 02a8 8B4814   		movl	20(%eax), %ecx
GAS LISTING C:\Users\jisu8\AppData\Local\Temp\cc5AG2CR.s 			page 10


 409 02ab 894A04   		movl	%ecx, 4(%edx)
 410 02ae 8B4818   		movl	24(%eax), %ecx
 411 02b1 894A08   		movl	%ecx, 8(%edx)
 412 02b4 8B481C   		movl	28(%eax), %ecx
 413 02b7 894A0C   		movl	%ecx, 12(%edx)
 414 02ba 8B4820   		movl	32(%eax), %ecx
 415 02bd 894A10   		movl	%ecx, 16(%edx)
 416 02c0 8B4024   		movl	36(%eax), %eax
 417 02c3 894214   		movl	%eax, 20(%edx)
 418              	L10:
  93:src/pdf417/PDFDetectionResultColumn.c **** }
 419              		.loc 1 93 1
 420 02c6 8B4508   		movl	8(%ebp), %eax
 421 02c9 83C410   		addl	$16, %esp
 422 02cc 5B       		popl	%ebx
 423              		.cfi_restore 3
 424 02cd 5D       		popl	%ebp
 425              	LCFI14:
 426              		.cfi_restore 5
 427              		.cfi_def_cfa 4, 4
 428 02ce C3       		ret
 429              		.cfi_endproc
 430              	LFE8:
 431              		.globl	_setRowNumbers
 433              	_setRowNumbers:
 434              	LFB9:
  94:src/pdf417/PDFDetectionResultColumn.c **** 
  95:src/pdf417/PDFDetectionResultColumn.c **** void setRowNumbers(Codeword_t * codewords,int size)
  96:src/pdf417/PDFDetectionResultColumn.c **** {
 435              		.loc 1 96 1
 436              		.cfi_startproc
 437 02cf 55       		pushl	%ebp
 438              	LCFI15:
 439              		.cfi_def_cfa_offset 8
 440              		.cfi_offset 5, -8
 441 02d0 89E5     		movl	%esp, %ebp
 442              	LCFI16:
 443              		.cfi_def_cfa_register 5
 444 02d2 83EC28   		subl	$40, %esp
 445              	LBB5:
  97:src/pdf417/PDFDetectionResultColumn.c **** 	for (int i = 0;i<size;i++) 
 446              		.loc 1 97 11
 447 02d5 C745F400 		movl	$0, -12(%ebp)
 447      000000
 448              		.loc 1 97 2
 449 02dc EB29     		jmp	L18
 450              	L20:
  98:src/pdf417/PDFDetectionResultColumn.c **** 	{
  99:src/pdf417/PDFDetectionResultColumn.c **** 		if (codewords->m_hasValue != 0) 
 451              		.loc 1 99 16
 452 02de 8B4508   		movl	8(%ebp), %eax
 453 02e1 0FB600   		movzbl	(%eax), %eax
 454              		.loc 1 99 6
 455 02e4 84C0     		testb	%al, %al
 456 02e6 741B     		je	L19
 457              	LBB6:
 100:src/pdf417/PDFDetectionResultColumn.c **** 		{
GAS LISTING C:\Users\jisu8\AppData\Local\Temp\cc5AG2CR.s 			page 11


 101:src/pdf417/PDFDetectionResultColumn.c **** 			setRowNumberAsRowIndicatorColumn(codewords+i);
 458              		.loc 1 101 46
 459 02e8 8B55F4   		movl	-12(%ebp), %edx
 460 02eb 89D0     		movl	%edx, %eax
 461 02ed 01C0     		addl	%eax, %eax
 462 02ef 01D0     		addl	%edx, %eax
 463 02f1 C1E003   		sall	$3, %eax
 464 02f4 89C2     		movl	%eax, %edx
 465              		.loc 1 101 4
 466 02f6 8B4508   		movl	8(%ebp), %eax
 467 02f9 01D0     		addl	%edx, %eax
 468 02fb 890424   		movl	%eax, (%esp)
 469 02fe E8930900 		call	_setRowNumberAsRowIndicatorColumn
 469      00
 470              	L19:
 471              	LBE6:
  97:src/pdf417/PDFDetectionResultColumn.c **** 	{
 472              		.loc 1 97 25 discriminator 2
 473 0303 8345F401 		addl	$1, -12(%ebp)
 474              	L18:
  97:src/pdf417/PDFDetectionResultColumn.c **** 	{
 475              		.loc 1 97 2 discriminator 1
 476 0307 8B45F4   		movl	-12(%ebp), %eax
 477 030a 3B450C   		cmpl	12(%ebp), %eax
 478 030d 7CCF     		jl	L20
 479              	LBE5:
 102:src/pdf417/PDFDetectionResultColumn.c **** 		}
 103:src/pdf417/PDFDetectionResultColumn.c **** 	}
 104:src/pdf417/PDFDetectionResultColumn.c **** }
 480              		.loc 1 104 1
 481 030f 90       		nop
 482 0310 C9       		leave
 483              	LCFI17:
 484              		.cfi_restore 5
 485              		.cfi_def_cfa 4, 4
 486 0311 C3       		ret
 487              		.cfi_endproc
 488              	LFE9:
 490              	_clear_var:
 491              	LFB10:
 105:src/pdf417/PDFDetectionResultColumn.c **** 
 106:src/pdf417/PDFDetectionResultColumn.c **** static void clear_var(Codeword_t * codewords)
 107:src/pdf417/PDFDetectionResultColumn.c **** {
 492              		.loc 1 107 1
 493              		.cfi_startproc
 494 0312 55       		pushl	%ebp
 495              	LCFI18:
 496              		.cfi_def_cfa_offset 8
 497              		.cfi_offset 5, -8
 498 0313 89E5     		movl	%esp, %ebp
 499              	LCFI19:
 500              		.cfi_def_cfa_register 5
 108:src/pdf417/PDFDetectionResultColumn.c **** 	codewords->m_hasValue = 0;
 501              		.loc 1 108 24
 502 0315 8B4508   		movl	8(%ebp), %eax
 503 0318 C60000   		movb	$0, (%eax)
 109:src/pdf417/PDFDetectionResultColumn.c **** 	codewords->m_value._startX = 0;
GAS LISTING C:\Users\jisu8\AppData\Local\Temp\cc5AG2CR.s 			page 12


 504              		.loc 1 109 29
 505 031b 8B4508   		movl	8(%ebp), %eax
 506 031e C7400400 		movl	$0, 4(%eax)
 506      000000
 110:src/pdf417/PDFDetectionResultColumn.c **** 	codewords->m_value._endX = 0;
 507              		.loc 1 110 27
 508 0325 8B4508   		movl	8(%ebp), %eax
 509 0328 C7400800 		movl	$0, 8(%eax)
 509      000000
 111:src/pdf417/PDFDetectionResultColumn.c **** 	codewords->m_value._bucket = 0;
 510              		.loc 1 111 29
 511 032f 8B4508   		movl	8(%ebp), %eax
 512 0332 C7400C00 		movl	$0, 12(%eax)
 512      000000
 112:src/pdf417/PDFDetectionResultColumn.c **** 	codewords->m_value._value = 0;
 513              		.loc 1 112 28
 514 0339 8B4508   		movl	8(%ebp), %eax
 515 033c C7401000 		movl	$0, 16(%eax)
 515      000000
 113:src/pdf417/PDFDetectionResultColumn.c **** 	codewords->m_value._rowNumber = -1;
 516              		.loc 1 113 32
 517 0343 8B4508   		movl	8(%ebp), %eax
 518 0346 C74014FF 		movl	$-1, 20(%eax)
 518      FFFFFF
 114:src/pdf417/PDFDetectionResultColumn.c **** }
 519              		.loc 1 114 1
 520 034d 90       		nop
 521 034e 5D       		popl	%ebp
 522              	LCFI20:
 523              		.cfi_restore 5
 524              		.cfi_def_cfa 4, 4
 525 034f C3       		ret
 526              		.cfi_endproc
 527              	LFE10:
 528              		.section .rdata,"dr"
 529              	LC1:
 530 0021 52656D6F 		.ascii "RemoveIncorrectCodewords: \0"
 530      7665496E 
 530      636F7272 
 530      65637443 
 530      6F646577 
 531              		.text
 533              	_RemoveIncorrectCodewords:
 534              	LFB11:
 115:src/pdf417/PDFDetectionResultColumn.c **** static void RemoveIncorrectCodewords(uint8_t isLeft, Codeword_t * codewords, const BarcodeMetadata_
 116:src/pdf417/PDFDetectionResultColumn.c **** {
 535              		.loc 1 116 1
 536              		.cfi_startproc
 537 0350 55       		pushl	%ebp
 538              	LCFI21:
 539              		.cfi_def_cfa_offset 8
 540              		.cfi_offset 5, -8
 541 0351 89E5     		movl	%esp, %ebp
 542              	LCFI22:
 543              		.cfi_def_cfa_register 5
 544 0353 83EC38   		subl	$56, %esp
 545 0356 8B4508   		movl	8(%ebp), %eax
GAS LISTING C:\Users\jisu8\AppData\Local\Temp\cc5AG2CR.s 			page 13


 546 0359 8845E4   		movb	%al, -28(%ebp)
 117:src/pdf417/PDFDetectionResultColumn.c **** 
 118:src/pdf417/PDFDetectionResultColumn.c **** 	printf("RemoveIncorrectCodewords: \n");
 547              		.loc 1 118 2
 548 035c C7042421 		movl	$LC1, (%esp)
 548      000000
 549 0363 E8000000 		call	_puts
 549      00
 550              	LBB7:
 119:src/pdf417/PDFDetectionResultColumn.c **** 
 120:src/pdf417/PDFDetectionResultColumn.c **** 	// Remove codewords which do not match the metadata
 121:src/pdf417/PDFDetectionResultColumn.c **** 	// TODO Maybe we should keep the incorrect codewords for the start and end positions?
 122:src/pdf417/PDFDetectionResultColumn.c **** 	for (int i=0;i<length;i++) 
 551              		.loc 1 122 11
 552 0368 C745F400 		movl	$0, -12(%ebp)
 552      000000
 553              		.loc 1 122 2
 554 036f E9BB0100 		jmp	L23
 554      00
 555              	L34:
 556              	LBB8:
 123:src/pdf417/PDFDetectionResultColumn.c **** 	{
 124:src/pdf417/PDFDetectionResultColumn.c **** 		if (codewords[i].m_hasValue == 0) 
 557              		.loc 1 124 16
 558 0374 8B55F4   		movl	-12(%ebp), %edx
 559 0377 89D0     		movl	%edx, %eax
 560 0379 01C0     		addl	%eax, %eax
 561 037b 01D0     		addl	%edx, %eax
 562 037d C1E003   		sall	$3, %eax
 563 0380 89C2     		movl	%eax, %edx
 564 0382 8B450C   		movl	12(%ebp), %eax
 565 0385 01D0     		addl	%edx, %eax
 566              		.loc 1 124 19
 567 0387 0FB600   		movzbl	(%eax), %eax
 568              		.loc 1 124 6
 569 038a 84C0     		testb	%al, %al
 570 038c 0F848F01 		je	L35
 570      0000
 125:src/pdf417/PDFDetectionResultColumn.c **** 		{
 126:src/pdf417/PDFDetectionResultColumn.c **** 			continue;
 127:src/pdf417/PDFDetectionResultColumn.c **** 		}
 128:src/pdf417/PDFDetectionResultColumn.c **** 
 129:src/pdf417/PDFDetectionResultColumn.c **** 		int rowIndicatorValue = codewords[i].m_value._value % 30;
 571              		.loc 1 129 36
 572 0392 8B55F4   		movl	-12(%ebp), %edx
 573 0395 89D0     		movl	%edx, %eax
 574 0397 01C0     		addl	%eax, %eax
 575 0399 01D0     		addl	%edx, %eax
 576 039b C1E003   		sall	$3, %eax
 577 039e 89C2     		movl	%eax, %edx
 578 03a0 8B450C   		movl	12(%ebp), %eax
 579 03a3 01D0     		addl	%edx, %eax
 580              		.loc 1 129 47
 581 03a5 8B4810   		movl	16(%eax), %ecx
 582              		.loc 1 129 7
 583 03a8 BA898888 		movl	$-2004318071, %edx
 583      88
GAS LISTING C:\Users\jisu8\AppData\Local\Temp\cc5AG2CR.s 			page 14


 584 03ad 89C8     		movl	%ecx, %eax
 585 03af F7EA     		imull	%edx
 586 03b1 8D040A   		leal	(%edx,%ecx), %eax
 587 03b4 C1F804   		sarl	$4, %eax
 588 03b7 89C2     		movl	%eax, %edx
 589 03b9 89C8     		movl	%ecx, %eax
 590 03bb C1F81F   		sarl	$31, %eax
 591 03be 29C2     		subl	%eax, %edx
 592 03c0 89D0     		movl	%edx, %eax
 593 03c2 8945EC   		movl	%eax, -20(%ebp)
 594 03c5 8B45EC   		movl	-20(%ebp), %eax
 595 03c8 6BC01E   		imull	$30, %eax, %eax
 596 03cb 29C1     		subl	%eax, %ecx
 597 03cd 89C8     		movl	%ecx, %eax
 598 03cf 8945EC   		movl	%eax, -20(%ebp)
 130:src/pdf417/PDFDetectionResultColumn.c **** 		int codewordRowNumber = codewords[i].m_value._rowNumber;
 599              		.loc 1 130 36
 600 03d2 8B55F4   		movl	-12(%ebp), %edx
 601 03d5 89D0     		movl	%edx, %eax
 602 03d7 01C0     		addl	%eax, %eax
 603 03d9 01D0     		addl	%edx, %eax
 604 03db C1E003   		sall	$3, %eax
 605 03de 89C2     		movl	%eax, %edx
 606 03e0 8B450C   		movl	12(%ebp), %eax
 607 03e3 01D0     		addl	%edx, %eax
 608              		.loc 1 130 7
 609 03e5 8B4014   		movl	20(%eax), %eax
 610 03e8 8945F0   		movl	%eax, -16(%ebp)
 131:src/pdf417/PDFDetectionResultColumn.c **** 		if (codewordRowNumber > rowCount(barcodeMetadata)) 
 611              		.loc 1 131 27
 612 03eb 8B4510   		movl	16(%ebp), %eax
 613 03ee 890424   		movl	%eax, (%esp)
 614 03f1 E8000000 		call	_rowCount
 614      00
 615              		.loc 1 131 6
 616 03f6 3945F0   		cmpl	%eax, -16(%ebp)
 617 03f9 7E20     		jle	L26
 132:src/pdf417/PDFDetectionResultColumn.c **** 		{
 133:src/pdf417/PDFDetectionResultColumn.c **** 			clear_var(codewords+i);
 618              		.loc 1 133 23
 619 03fb 8B55F4   		movl	-12(%ebp), %edx
 620 03fe 89D0     		movl	%edx, %eax
 621 0400 01C0     		addl	%eax, %eax
 622 0402 01D0     		addl	%edx, %eax
 623 0404 C1E003   		sall	$3, %eax
 624 0407 89C2     		movl	%eax, %edx
 625              		.loc 1 133 4
 626 0409 8B450C   		movl	12(%ebp), %eax
 627 040c 01D0     		addl	%edx, %eax
 628 040e 890424   		movl	%eax, (%esp)
 629 0411 E8FCFEFF 		call	_clear_var
 629      FF
 134:src/pdf417/PDFDetectionResultColumn.c **** 			continue;
 630              		.loc 1 134 4
 631 0416 E9100100 		jmp	L25
 631      00
 632              	L26:
GAS LISTING C:\Users\jisu8\AppData\Local\Temp\cc5AG2CR.s 			page 15


 135:src/pdf417/PDFDetectionResultColumn.c **** 		}
 136:src/pdf417/PDFDetectionResultColumn.c **** 
 137:src/pdf417/PDFDetectionResultColumn.c **** 		if (!isLeft) 
 633              		.loc 1 137 6
 634 041b 807DE400 		cmpb	$0, -28(%ebp)
 635 041f 7504     		jne	L27
 138:src/pdf417/PDFDetectionResultColumn.c **** 		{
 139:src/pdf417/PDFDetectionResultColumn.c **** 			codewordRowNumber += 2;
 636              		.loc 1 139 22
 637 0421 8345F002 		addl	$2, -16(%ebp)
 638              	L27:
 140:src/pdf417/PDFDetectionResultColumn.c **** 		}
 141:src/pdf417/PDFDetectionResultColumn.c **** 
 142:src/pdf417/PDFDetectionResultColumn.c **** 		switch (codewordRowNumber % 3) 
 639              		.loc 1 142 29
 640 0425 8B4DF0   		movl	-16(%ebp), %ecx
 641 0428 BA565555 		movl	$1431655766, %edx
 641      55
 642 042d 89C8     		movl	%ecx, %eax
 643 042f F7EA     		imull	%edx
 644 0431 89C8     		movl	%ecx, %eax
 645 0433 C1F81F   		sarl	$31, %eax
 646 0436 29C2     		subl	%eax, %edx
 647 0438 89D0     		movl	%edx, %eax
 648 043a 89C2     		movl	%eax, %edx
 649 043c 01D2     		addl	%edx, %edx
 650 043e 01C2     		addl	%eax, %edx
 651 0440 89C8     		movl	%ecx, %eax
 652 0442 29D0     		subl	%edx, %eax
 653 0444 83F801   		cmpl	$1, %eax
 654 0447 744B     		je	L28
 655 0449 83F802   		cmpl	$2, %eax
 656 044c 0F84A300 		je	L29
 656      0000
 657 0452 85C0     		testl	%eax, %eax
 658 0454 0F85D100 		jne	L25
 658      0000
 143:src/pdf417/PDFDetectionResultColumn.c **** 		{
 144:src/pdf417/PDFDetectionResultColumn.c **** 			case 0:
 145:src/pdf417/PDFDetectionResultColumn.c **** 			if (rowIndicatorValue * 3 + 1 != barcodeMetadata->_rowCountUpperPart) 
 659              		.loc 1 145 26
 660 045a 8B55EC   		movl	-20(%ebp), %edx
 661 045d 89D0     		movl	%edx, %eax
 662 045f 01C0     		addl	%eax, %eax
 663 0461 01D0     		addl	%edx, %eax
 664              		.loc 1 145 30
 665 0463 8D5001   		leal	1(%eax), %edx
 666              		.loc 1 145 52
 667 0466 8B4510   		movl	16(%ebp), %eax
 668 0469 8B4008   		movl	8(%eax), %eax
 669              		.loc 1 145 7
 670 046c 39C2     		cmpl	%eax, %edx
 671 046e 0F84B000 		je	L36
 671      0000
 146:src/pdf417/PDFDetectionResultColumn.c **** 			{
 147:src/pdf417/PDFDetectionResultColumn.c **** 				clear_var(codewords+i);
 672              		.loc 1 147 24
GAS LISTING C:\Users\jisu8\AppData\Local\Temp\cc5AG2CR.s 			page 16


 673 0474 8B55F4   		movl	-12(%ebp), %edx
 674 0477 89D0     		movl	%edx, %eax
 675 0479 01C0     		addl	%eax, %eax
 676 047b 01D0     		addl	%edx, %eax
 677 047d C1E003   		sall	$3, %eax
 678 0480 89C2     		movl	%eax, %edx
 679              		.loc 1 147 5
 680 0482 8B450C   		movl	12(%ebp), %eax
 681 0485 01D0     		addl	%edx, %eax
 682 0487 890424   		movl	%eax, (%esp)
 683 048a E883FEFF 		call	_clear_var
 683      FF
 148:src/pdf417/PDFDetectionResultColumn.c **** 			}
 149:src/pdf417/PDFDetectionResultColumn.c **** 			break;
 684              		.loc 1 149 4
 685 048f E9900000 		jmp	L36
 685      00
 686              	L28:
 150:src/pdf417/PDFDetectionResultColumn.c **** 			case 1:
 151:src/pdf417/PDFDetectionResultColumn.c **** 			if (rowIndicatorValue / 3 != barcodeMetadata->_errorCorrectionLevel ||
 687              		.loc 1 151 26
 688 0494 8B4DEC   		movl	-20(%ebp), %ecx
 689 0497 BA565555 		movl	$1431655766, %edx
 689      55
 690 049c 89C8     		movl	%ecx, %eax
 691 049e F7EA     		imull	%edx
 692 04a0 89C8     		movl	%ecx, %eax
 693 04a2 C1F81F   		sarl	$31, %eax
 694 04a5 29C2     		subl	%eax, %edx
 695              		.loc 1 151 48
 696 04a7 8B4510   		movl	16(%ebp), %eax
 697 04aa 8B4004   		movl	4(%eax), %eax
 698              		.loc 1 151 7
 699 04ad 39C2     		cmpl	%eax, %edx
 700 04af 7527     		jne	L31
 152:src/pdf417/PDFDetectionResultColumn.c **** 				rowIndicatorValue % 3 != barcodeMetadata->_rowCountLowerPart) 
 701              		.loc 1 152 23 discriminator 1
 702 04b1 8B4DEC   		movl	-20(%ebp), %ecx
 703 04b4 BA565555 		movl	$1431655766, %edx
 703      55
 704 04b9 89C8     		movl	%ecx, %eax
 705 04bb F7EA     		imull	%edx
 706 04bd 89C8     		movl	%ecx, %eax
 707 04bf C1F81F   		sarl	$31, %eax
 708 04c2 29C2     		subl	%eax, %edx
 709 04c4 89D0     		movl	%edx, %eax
 710 04c6 01C0     		addl	%eax, %eax
 711 04c8 01D0     		addl	%edx, %eax
 712 04ca 29C1     		subl	%eax, %ecx
 713 04cc 89CA     		movl	%ecx, %edx
 714              		.loc 1 152 45 discriminator 1
 715 04ce 8B4510   		movl	16(%ebp), %eax
 716 04d1 8B400C   		movl	12(%eax), %eax
 151:src/pdf417/PDFDetectionResultColumn.c **** 				rowIndicatorValue % 3 != barcodeMetadata->_rowCountLowerPart) 
 717              		.loc 1 151 72 discriminator 1
 718 04d4 39C2     		cmpl	%eax, %edx
 719 04d6 744F     		je	L37
GAS LISTING C:\Users\jisu8\AppData\Local\Temp\cc5AG2CR.s 			page 17


 720              	L31:
 153:src/pdf417/PDFDetectionResultColumn.c **** 			{
 154:src/pdf417/PDFDetectionResultColumn.c **** 				clear_var(codewords+i);
 721              		.loc 1 154 24
 722 04d8 8B55F4   		movl	-12(%ebp), %edx
 723 04db 89D0     		movl	%edx, %eax
 724 04dd 01C0     		addl	%eax, %eax
 725 04df 01D0     		addl	%edx, %eax
 726 04e1 C1E003   		sall	$3, %eax
 727 04e4 89C2     		movl	%eax, %edx
 728              		.loc 1 154 5
 729 04e6 8B450C   		movl	12(%ebp), %eax
 730 04e9 01D0     		addl	%edx, %eax
 731 04eb 890424   		movl	%eax, (%esp)
 732 04ee E81FFEFF 		call	_clear_var
 732      FF
 155:src/pdf417/PDFDetectionResultColumn.c **** 			}
 156:src/pdf417/PDFDetectionResultColumn.c **** 			break;
 733              		.loc 1 156 4
 734 04f3 EB32     		jmp	L37
 735              	L29:
 157:src/pdf417/PDFDetectionResultColumn.c **** 			case 2:
 158:src/pdf417/PDFDetectionResultColumn.c **** 			if (rowIndicatorValue + 1 != barcodeMetadata->_columnCount) 
 736              		.loc 1 158 26
 737 04f5 8B45EC   		movl	-20(%ebp), %eax
 738 04f8 8D5001   		leal	1(%eax), %edx
 739              		.loc 1 158 48
 740 04fb 8B4510   		movl	16(%ebp), %eax
 741 04fe 8B00     		movl	(%eax), %eax
 742              		.loc 1 158 7
 743 0500 39C2     		cmpl	%eax, %edx
 744 0502 7426     		je	L38
 159:src/pdf417/PDFDetectionResultColumn.c **** 			{
 160:src/pdf417/PDFDetectionResultColumn.c **** 				clear_var(codewords+i);
 745              		.loc 1 160 24
 746 0504 8B55F4   		movl	-12(%ebp), %edx
 747 0507 89D0     		movl	%edx, %eax
 748 0509 01C0     		addl	%eax, %eax
 749 050b 01D0     		addl	%edx, %eax
 750 050d C1E003   		sall	$3, %eax
 751 0510 89C2     		movl	%eax, %edx
 752              		.loc 1 160 5
 753 0512 8B450C   		movl	12(%ebp), %eax
 754 0515 01D0     		addl	%edx, %eax
 755 0517 890424   		movl	%eax, (%esp)
 756 051a E8F3FDFF 		call	_clear_var
 756      FF
 161:src/pdf417/PDFDetectionResultColumn.c **** 			}
 162:src/pdf417/PDFDetectionResultColumn.c **** 			break;
 757              		.loc 1 162 4
 758 051f EB09     		jmp	L38
 759              	L35:
 126:src/pdf417/PDFDetectionResultColumn.c **** 		}
 760              		.loc 1 126 4
 761 0521 90       		nop
 762 0522 EB07     		jmp	L25
 763              	L36:
GAS LISTING C:\Users\jisu8\AppData\Local\Temp\cc5AG2CR.s 			page 18


 149:src/pdf417/PDFDetectionResultColumn.c **** 			case 1:
 764              		.loc 1 149 4
 765 0524 90       		nop
 766 0525 EB04     		jmp	L25
 767              	L37:
 156:src/pdf417/PDFDetectionResultColumn.c **** 			case 2:
 768              		.loc 1 156 4
 769 0527 90       		nop
 770 0528 EB01     		jmp	L25
 771              	L38:
 772              		.loc 1 162 4
 773 052a 90       		nop
 774              	L25:
 775              	LBE8:
 122:src/pdf417/PDFDetectionResultColumn.c **** 	{
 776              		.loc 1 122 25 discriminator 2
 777 052b 8345F401 		addl	$1, -12(%ebp)
 778              	L23:
 122:src/pdf417/PDFDetectionResultColumn.c **** 	{
 779              		.loc 1 122 2 discriminator 1
 780 052f 8B45F4   		movl	-12(%ebp), %eax
 781 0532 3B4514   		cmpl	20(%ebp), %eax
 782 0535 0F8C39FE 		jl	L34
 782      FFFF
 783              	LBE7:
 163:src/pdf417/PDFDetectionResultColumn.c **** 		}
 164:src/pdf417/PDFDetectionResultColumn.c **** 	}
 165:src/pdf417/PDFDetectionResultColumn.c **** 
 166:src/pdf417/PDFDetectionResultColumn.c **** }
 784              		.loc 1 166 1
 785 053b 90       		nop
 786 053c C9       		leave
 787              	LCFI23:
 788              		.cfi_restore 5
 789              		.cfi_def_cfa 4, 4
 790 053d C3       		ret
 791              		.cfi_endproc
 792              	LFE11:
 793              		.section .rdata,"dr"
 794              		.align 4
 795              	LC2:
 796 003c 44657465 		.ascii "DetectionResultColumn::adjustCompleteIndicatorColumnRowNumbers: \0"
 796      6374696F 
 796      6E526573 
 796      756C7443 
 796      6F6C756D 
 797              		.text
 798              		.globl	_adjustCompleteIndicatorColumnRowNumbers
 800              	_adjustCompleteIndicatorColumnRowNumbers:
 801              	LFB12:
 167:src/pdf417/PDFDetectionResultColumn.c **** 
 168:src/pdf417/PDFDetectionResultColumn.c **** // TODO implement properly
 169:src/pdf417/PDFDetectionResultColumn.c **** // TODO maybe we should add missing codewords to store the correct row number to make
 170:src/pdf417/PDFDetectionResultColumn.c **** // finding row numbers for other columns easier
 171:src/pdf417/PDFDetectionResultColumn.c **** // use row height count to make detection of invalid row numbers more reliable
 172:src/pdf417/PDFDetectionResultColumn.c **** void adjustCompleteIndicatorColumnRowNumbers(DetectionResultColumn_t * detectionResultColumn,const 
 173:src/pdf417/PDFDetectionResultColumn.c **** {
GAS LISTING C:\Users\jisu8\AppData\Local\Temp\cc5AG2CR.s 			page 19


 802              		.loc 1 173 1
 803              		.cfi_startproc
 804 053e 55       		pushl	%ebp
 805              	LCFI24:
 806              		.cfi_def_cfa_offset 8
 807              		.cfi_offset 5, -8
 808 053f 89E5     		movl	%esp, %ebp
 809              	LCFI25:
 810              		.cfi_def_cfa_register 5
 811 0541 57       		pushl	%edi
 812 0542 56       		pushl	%esi
 813 0543 53       		pushl	%ebx
 814 0544 81ECDC00 		subl	$220, %esp
 814      0000
 815              		.cfi_offset 7, -12
 816              		.cfi_offset 6, -16
 817              		.cfi_offset 3, -20
 174:src/pdf417/PDFDetectionResultColumn.c **** 	printf("DetectionResultColumn::adjustCompleteIndicatorColumnRowNumbers: \n");
 818              		.loc 1 174 2
 819 054a C704243C 		movl	$LC2, (%esp)
 819      000000
 820 0551 E8000000 		call	_puts
 820      00
 175:src/pdf417/PDFDetectionResultColumn.c **** 	
 176:src/pdf417/PDFDetectionResultColumn.c **** 	if (!isRowIndicator(detectionResultColumn))
 821              		.loc 1 176 7
 822 0556 8B4508   		movl	8(%ebp), %eax
 823 0559 890424   		movl	%eax, (%esp)
 824 055c E890FBFF 		call	_isRowIndicator
 824      FF
 825              		.loc 1 176 5
 826 0561 84C0     		testb	%al, %al
 827 0563 0F845103 		je	L66
 827      0000
 177:src/pdf417/PDFDetectionResultColumn.c **** 	{
 178:src/pdf417/PDFDetectionResultColumn.c **** 		return;
 179:src/pdf417/PDFDetectionResultColumn.c **** 	}
 180:src/pdf417/PDFDetectionResultColumn.c **** 	int size = 137;
 828              		.loc 1 180 6
 829 0569 C745C489 		movl	$137, -60(%ebp)
 829      000000
 181:src/pdf417/PDFDetectionResultColumn.c **** 	Codeword_t * codewords = allCodewords(detectionResultColumn);
 830              		.loc 1 181 27
 831 0570 8B4508   		movl	8(%ebp), %eax
 832 0573 890424   		movl	%eax, (%esp)
 833 0576 E86BFBFF 		call	_allCodewords
 833      FF
 834 057b 8945C0   		movl	%eax, -64(%ebp)
 182:src/pdf417/PDFDetectionResultColumn.c **** 	setRowNumbers(codewords,size);
 835              		.loc 1 182 2
 836 057e 8B45C4   		movl	-60(%ebp), %eax
 837 0581 89442404 		movl	%eax, 4(%esp)
 838 0585 8B45C0   		movl	-64(%ebp), %eax
 839 0588 890424   		movl	%eax, (%esp)
 840 058b E83FFDFF 		call	_setRowNumbers
 840      FF
 183:src/pdf417/PDFDetectionResultColumn.c **** 	RemoveIncorrectCodewords(isLeftRowIndicator(detectionResultColumn), codewords, barcodeMetadata,siz
GAS LISTING C:\Users\jisu8\AppData\Local\Temp\cc5AG2CR.s 			page 20


 841              		.loc 1 183 27
 842 0590 8B4508   		movl	8(%ebp), %eax
 843 0593 890424   		movl	%eax, (%esp)
 844 0596 E869FBFF 		call	_isLeftRowIndicator
 844      FF
 845              		.loc 1 183 2
 846 059b 0FB6C0   		movzbl	%al, %eax
 847 059e 8B55C4   		movl	-60(%ebp), %edx
 848 05a1 8954240C 		movl	%edx, 12(%esp)
 849 05a5 8B550C   		movl	12(%ebp), %edx
 850 05a8 89542408 		movl	%edx, 8(%esp)
 851 05ac 8B55C0   		movl	-64(%ebp), %edx
 852 05af 89542404 		movl	%edx, 4(%esp)
 853 05b3 890424   		movl	%eax, (%esp)
 854 05b6 E895FDFF 		call	_RemoveIncorrectCodewords
 854      FF
 184:src/pdf417/PDFDetectionResultColumn.c **** 	const BoundingBox_t bb = detectionResultColumn->m_value._boundingBox;
 855              		.loc 1 184 22
 856 05bb 8B5508   		movl	8(%ebp), %edx
 857 05be 8D8568FF 		leal	-152(%ebp), %eax
 857      FFFF
 858 05c4 83C204   		addl	$4, %edx
 859 05c7 B9130000 		movl	$19, %ecx
 859      00
 860 05cc 89C7     		movl	%eax, %edi
 861 05ce 89D6     		movl	%edx, %esi
 862 05d0 F3A5     		rep movsl
 185:src/pdf417/PDFDetectionResultColumn.c **** 	ResultPoint_t top = isLeftRowIndicator(detectionResultColumn) ? topLeft(&bb) : topRight(&bb);
 863              		.loc 1 185 22
 864 05d2 8B4508   		movl	8(%ebp), %eax
 865 05d5 890424   		movl	%eax, (%esp)
 866 05d8 E827FBFF 		call	_isLeftRowIndicator
 866      FF
 867              		.loc 1 185 16
 868 05dd 84C0     		testb	%al, %al
 869 05df 741A     		je	L42
 870              		.loc 1 185 66 discriminator 1
 871 05e1 8D855CFF 		leal	-164(%ebp), %eax
 871      FFFF
 872 05e7 8D9568FF 		leal	-152(%ebp), %edx
 872      FFFF
 873 05ed 89542404 		movl	%edx, 4(%esp)
 874 05f1 890424   		movl	%eax, (%esp)
 875 05f4 E8000000 		call	_topLeft
 875      00
 876 05f9 EB18     		jmp	L43
 877              	L42:
 878              		.loc 1 185 81 discriminator 2
 879 05fb 8D855CFF 		leal	-164(%ebp), %eax
 879      FFFF
 880 0601 8D9568FF 		leal	-152(%ebp), %edx
 880      FFFF
 881 0607 89542404 		movl	%edx, 4(%esp)
 882 060b 890424   		movl	%eax, (%esp)
 883 060e E8000000 		call	_topRight
 883      00
 884              	L43:
GAS LISTING C:\Users\jisu8\AppData\Local\Temp\cc5AG2CR.s 			page 21


 186:src/pdf417/PDFDetectionResultColumn.c **** 	ResultPoint_t bottom = isLeftRowIndicator(detectionResultColumn) ? bottomLeft(&bb) : bottomRight(&
 885              		.loc 1 186 25
 886 0613 8B4508   		movl	8(%ebp), %eax
 887 0616 890424   		movl	%eax, (%esp)
 888 0619 E8E6FAFF 		call	_isLeftRowIndicator
 888      FF
 889              		.loc 1 186 16
 890 061e 84C0     		testb	%al, %al
 891 0620 741A     		je	L44
 892              		.loc 1 186 69 discriminator 1
 893 0622 8D8550FF 		leal	-176(%ebp), %eax
 893      FFFF
 894 0628 8D9568FF 		leal	-152(%ebp), %edx
 894      FFFF
 895 062e 89542404 		movl	%edx, 4(%esp)
 896 0632 890424   		movl	%eax, (%esp)
 897 0635 E8000000 		call	_bottomLeft
 897      00
 898 063a EB18     		jmp	L45
 899              	L44:
 900              		.loc 1 186 87 discriminator 2
 901 063c 8D8550FF 		leal	-176(%ebp), %eax
 901      FFFF
 902 0642 8D9568FF 		leal	-152(%ebp), %edx
 902      FFFF
 903 0648 89542404 		movl	%edx, 4(%esp)
 904 064c 890424   		movl	%eax, (%esp)
 905 064f E8000000 		call	_bottomRight
 905      00
 906              	L45:
 187:src/pdf417/PDFDetectionResultColumn.c **** 	int firstRow = (int)top.m_value.y - detectionResultColumn->m_value._boundingBox.m_value._minY;
 907              		.loc 1 187 33
 908 0654 D98564FF 		flds	-156(%ebp)
 908      FFFF
 909              		.loc 1 187 17
 910 065a D9BD36FF 		fnstcw	-202(%ebp)
 910      FFFF
 911 0660 0FB78536 		movzwl	-202(%ebp), %eax
 911      FFFFFF
 912 0667 80CC0C   		orb	$12, %ah
 913 066a 66898534 		movw	%ax, -204(%ebp)
 913      FFFFFF
 914 0671 D9AD34FF 		fldcw	-204(%ebp)
 914      FFFF
 915 0677 DB9D30FF 		fistpl	-208(%ebp)
 915      FFFF
 916 067d D9AD36FF 		fldcw	-202(%ebp)
 916      FFFF
 917 0683 8B9530FF 		movl	-208(%ebp), %edx
 917      FFFF
 918              		.loc 1 187 89
 919 0689 8B4508   		movl	8(%ebp), %eax
 920 068c 8B4048   		movl	72(%eax), %eax
 921              		.loc 1 187 6
 922 068f 29C2     		subl	%eax, %edx
 923 0691 89D0     		movl	%edx, %eax
 924 0693 8945BC   		movl	%eax, -68(%ebp)
GAS LISTING C:\Users\jisu8\AppData\Local\Temp\cc5AG2CR.s 			page 22


 188:src/pdf417/PDFDetectionResultColumn.c **** 	int lastRow = (int)bottom.m_value.y - detectionResultColumn->m_value._boundingBox.m_value._minY;
 925              		.loc 1 188 35
 926 0696 D98558FF 		flds	-168(%ebp)
 926      FFFF
 927              		.loc 1 188 16
 928 069c D9AD34FF 		fldcw	-204(%ebp)
 928      FFFF
 929 06a2 DB9D30FF 		fistpl	-208(%ebp)
 929      FFFF
 930 06a8 D9AD36FF 		fldcw	-202(%ebp)
 930      FFFF
 931 06ae 8B9530FF 		movl	-208(%ebp), %edx
 931      FFFF
 932              		.loc 1 188 91
 933 06b4 8B4508   		movl	8(%ebp), %eax
 934 06b7 8B4048   		movl	72(%eax), %eax
 935              		.loc 1 188 6
 936 06ba 29C2     		subl	%eax, %edx
 937 06bc 89D0     		movl	%edx, %eax
 938 06be 8945B8   		movl	%eax, -72(%ebp)
 189:src/pdf417/PDFDetectionResultColumn.c **** 	// We need to be careful using the average row height. Barcode could be skewed so that we have sma
 190:src/pdf417/PDFDetectionResultColumn.c **** 	// taller rows
 191:src/pdf417/PDFDetectionResultColumn.c **** 	int barcodeRow = -1;
 939              		.loc 1 191 6
 940 06c1 C745E4FF 		movl	$-1, -28(%ebp)
 940      FFFFFF
 192:src/pdf417/PDFDetectionResultColumn.c **** 	int maxRowHeight = 1;
 941              		.loc 1 192 6
 942 06c8 C745E001 		movl	$1, -32(%ebp)
 942      000000
 193:src/pdf417/PDFDetectionResultColumn.c **** 	int currentRowHeight = 0;
 943              		.loc 1 193 6
 944 06cf C745DC00 		movl	$0, -36(%ebp)
 944      000000
 194:src/pdf417/PDFDetectionResultColumn.c **** 	int increment = 1;
 945              		.loc 1 194 6
 946 06d6 C745D801 		movl	$1, -40(%ebp)
 946      000000
 947              	LBB9:
 195:src/pdf417/PDFDetectionResultColumn.c **** 	for (int codewordsRow = firstRow; codewordsRow < lastRow; codewordsRow++) 
 948              		.loc 1 195 11
 949 06dd 8B45BC   		movl	-68(%ebp), %eax
 950 06e0 8945D4   		movl	%eax, -44(%ebp)
 951              		.loc 1 195 2
 952 06e3 E9C40100 		jmp	L46
 952      00
 953              	L65:
 954              	LBB10:
 196:src/pdf417/PDFDetectionResultColumn.c **** 	{
 197:src/pdf417/PDFDetectionResultColumn.c **** 		if (codewords[codewordsRow].m_hasValue == 0) 
 955              		.loc 1 197 16
 956 06e8 8B55D4   		movl	-44(%ebp), %edx
 957 06eb 89D0     		movl	%edx, %eax
 958 06ed 01C0     		addl	%eax, %eax
 959 06ef 01D0     		addl	%edx, %eax
 960 06f1 C1E003   		sall	$3, %eax
 961 06f4 89C2     		movl	%eax, %edx
GAS LISTING C:\Users\jisu8\AppData\Local\Temp\cc5AG2CR.s 			page 23


 962 06f6 8B45C0   		movl	-64(%ebp), %eax
 963 06f9 01D0     		addl	%edx, %eax
 964              		.loc 1 197 30
 965 06fb 0FB600   		movzbl	(%eax), %eax
 966              		.loc 1 197 6
 967 06fe 84C0     		testb	%al, %al
 968 0700 0F84A101 		je	L67
 968      0000
 198:src/pdf417/PDFDetectionResultColumn.c **** 		{
 199:src/pdf417/PDFDetectionResultColumn.c **** 			continue;
 200:src/pdf417/PDFDetectionResultColumn.c **** 		}
 201:src/pdf417/PDFDetectionResultColumn.c **** 
 202:src/pdf417/PDFDetectionResultColumn.c **** 		Codeword_t codeword = codewords[codewordsRow];
 969              		.loc 1 202 34
 970 0706 8B55D4   		movl	-44(%ebp), %edx
 971 0709 89D0     		movl	%edx, %eax
 972 070b 01C0     		addl	%eax, %eax
 973 070d 01D0     		addl	%edx, %eax
 974 070f C1E003   		sall	$3, %eax
 975 0712 89C2     		movl	%eax, %edx
 976 0714 8B45C0   		movl	-64(%ebp), %eax
 977 0717 01D0     		addl	%edx, %eax
 978              		.loc 1 202 14
 979 0719 8B10     		movl	(%eax), %edx
 980 071b 899538FF 		movl	%edx, -200(%ebp)
 980      FFFF
 981 0721 8B5004   		movl	4(%eax), %edx
 982 0724 89953CFF 		movl	%edx, -196(%ebp)
 982      FFFF
 983 072a 8B5008   		movl	8(%eax), %edx
 984 072d 899540FF 		movl	%edx, -192(%ebp)
 984      FFFF
 985 0733 8B500C   		movl	12(%eax), %edx
 986 0736 899544FF 		movl	%edx, -188(%ebp)
 986      FFFF
 987 073c 8B5010   		movl	16(%eax), %edx
 988 073f 899548FF 		movl	%edx, -184(%ebp)
 988      FFFF
 989 0745 8B4014   		movl	20(%eax), %eax
 990 0748 89854CFF 		movl	%eax, -180(%ebp)
 990      FFFF
 203:src/pdf417/PDFDetectionResultColumn.c **** 		if (barcodeRow == -1 && codeword.m_value._rowNumber == rowCount(barcodeMetadata) - 1) 
 991              		.loc 1 203 6
 992 074e 837DE4FF 		cmpl	$-1, -28(%ebp)
 993 0752 752D     		jne	L49
 994              		.loc 1 203 43 discriminator 1
 995 0754 8B9D4CFF 		movl	-180(%ebp), %ebx
 995      FFFF
 996              		.loc 1 203 58 discriminator 1
 997 075a 8B450C   		movl	12(%ebp), %eax
 998 075d 890424   		movl	%eax, (%esp)
 999 0760 E8000000 		call	_rowCount
 999      00
 1000              		.loc 1 203 84 discriminator 1
 1001 0765 83E801   		subl	$1, %eax
 1002              		.loc 1 203 24 discriminator 1
 1003 0768 39C3     		cmpl	%eax, %ebx
GAS LISTING C:\Users\jisu8\AppData\Local\Temp\cc5AG2CR.s 			page 24


 1004 076a 7515     		jne	L49
 204:src/pdf417/PDFDetectionResultColumn.c **** 		{
 205:src/pdf417/PDFDetectionResultColumn.c **** 			increment = -1;
 1005              		.loc 1 205 14
 1006 076c C745D8FF 		movl	$-1, -40(%ebp)
 1006      FFFFFF
 206:src/pdf417/PDFDetectionResultColumn.c **** 			barcodeRow = rowCount(barcodeMetadata);
 1007              		.loc 1 206 17
 1008 0773 8B450C   		movl	12(%ebp), %eax
 1009 0776 890424   		movl	%eax, (%esp)
 1010 0779 E8000000 		call	_rowCount
 1010      00
 1011 077e 8945E4   		movl	%eax, -28(%ebp)
 1012              	L49:
 207:src/pdf417/PDFDetectionResultColumn.c **** 		}
 208:src/pdf417/PDFDetectionResultColumn.c **** 		//      float expectedRowNumber = (codewordsRow - firstRow) / averageRowHeight;
 209:src/pdf417/PDFDetectionResultColumn.c **** 		//      if (Math.abs(codeword.getRowNumber() - expectedRowNumber) > 2) {
 210:src/pdf417/PDFDetectionResultColumn.c **** 		//        SimpleLog.log(LEVEL.WARNING,
 211:src/pdf417/PDFDetectionResultColumn.c **** 		//            "Removing codeword, rowNumberSkew too high, codeword[" + codewordsRow + "]: Expecte
 212:src/pdf417/PDFDetectionResultColumn.c **** 		//                expectedRowNumber + ", RealRow: " + codeword.getRowNumber() + ", value: " + cod
 213:src/pdf417/PDFDetectionResultColumn.c **** 		//        codewords[codewordsRow] = null;
 214:src/pdf417/PDFDetectionResultColumn.c **** 		//      }
 215:src/pdf417/PDFDetectionResultColumn.c **** 
 216:src/pdf417/PDFDetectionResultColumn.c **** 		int rowDifference = codeword.m_value._rowNumber - barcodeRow;
 1013              		.loc 1 216 39
 1014 0781 8B854CFF 		movl	-180(%ebp), %eax
 1014      FFFF
 1015              		.loc 1 216 7
 1016 0787 2B45E4   		subl	-28(%ebp), %eax
 1017 078a 8945B4   		movl	%eax, -76(%ebp)
 217:src/pdf417/PDFDetectionResultColumn.c **** 
 218:src/pdf417/PDFDetectionResultColumn.c **** 		if (rowDifference == 0) 
 1018              		.loc 1 218 6
 1019 078d 837DB400 		cmpl	$0, -76(%ebp)
 1020 0791 7509     		jne	L50
 219:src/pdf417/PDFDetectionResultColumn.c **** 		{
 220:src/pdf417/PDFDetectionResultColumn.c **** 			currentRowHeight++;
 1021              		.loc 1 220 20
 1022 0793 8345DC01 		addl	$1, -36(%ebp)
 1023 0797 E90C0100 		jmp	L48
 1023      00
 1024              	L50:
 221:src/pdf417/PDFDetectionResultColumn.c **** 		}
 222:src/pdf417/PDFDetectionResultColumn.c **** 		else if (rowDifference == increment) 
 1025              		.loc 1 222 11
 1026 079c 8B45B4   		movl	-76(%ebp), %eax
 1027 079f 3B45D8   		cmpl	-40(%ebp), %eax
 1028 07a2 7522     		jne	L52
 223:src/pdf417/PDFDetectionResultColumn.c **** 		{
 224:src/pdf417/PDFDetectionResultColumn.c **** 			maxRowHeight = __max(maxRowHeight, currentRowHeight);
 1029              		.loc 1 224 17
 1030 07a4 8B45E0   		movl	-32(%ebp), %eax
 1031 07a7 3945DC   		cmpl	%eax, -36(%ebp)
 1032 07aa 0F4D45DC 		cmovge	-36(%ebp), %eax
 1033 07ae 8945E0   		movl	%eax, -32(%ebp)
 225:src/pdf417/PDFDetectionResultColumn.c **** 			currentRowHeight = 1;
 1034              		.loc 1 225 21
GAS LISTING C:\Users\jisu8\AppData\Local\Temp\cc5AG2CR.s 			page 25


 1035 07b1 C745DC01 		movl	$1, -36(%ebp)
 1035      000000
 226:src/pdf417/PDFDetectionResultColumn.c **** 			barcodeRow = codeword.m_value._rowNumber;
 1036              		.loc 1 226 15
 1037 07b8 8B854CFF 		movl	-180(%ebp), %eax
 1037      FFFF
 1038 07be 8945E4   		movl	%eax, -28(%ebp)
 1039 07c1 E9E20000 		jmp	L48
 1039      00
 1040              	L52:
 227:src/pdf417/PDFDetectionResultColumn.c **** 		}
 228:src/pdf417/PDFDetectionResultColumn.c **** 		else if (rowDifference < 0 || codeword.m_value._rowNumber >= rowCount(barcodeMetadata) ||
 1041              		.loc 1 228 11
 1042 07c6 837DB400 		cmpl	$0, -76(%ebp)
 1043 07ca 781D     		js	L53
 1044              		.loc 1 228 49 discriminator 1
 1045 07cc 8B9D4CFF 		movl	-180(%ebp), %ebx
 1045      FFFF
 1046              		.loc 1 228 64 discriminator 1
 1047 07d2 8B450C   		movl	12(%ebp), %eax
 1048 07d5 890424   		movl	%eax, (%esp)
 1049 07d8 E8000000 		call	_rowCount
 1049      00
 1050              		.loc 1 228 30 discriminator 1
 1051 07dd 39C3     		cmpl	%eax, %ebx
 1052 07df 7D08     		jge	L53
 1053              		.loc 1 228 90 discriminator 2
 1054 07e1 8B45B4   		movl	-76(%ebp), %eax
 1055 07e4 3B45D4   		cmpl	-44(%ebp), %eax
 1056 07e7 7E1B     		jle	L54
 1057              	L53:
 229:src/pdf417/PDFDetectionResultColumn.c **** 			rowDifference > codewordsRow) 
 230:src/pdf417/PDFDetectionResultColumn.c **** 		{
 231:src/pdf417/PDFDetectionResultColumn.c **** 			codewords[codewordsRow].m_hasValue = 0;
 1058              		.loc 1 231 13
 1059 07e9 8B55D4   		movl	-44(%ebp), %edx
 1060 07ec 89D0     		movl	%edx, %eax
 1061 07ee 01C0     		addl	%eax, %eax
 1062 07f0 01D0     		addl	%edx, %eax
 1063 07f2 C1E003   		sall	$3, %eax
 1064 07f5 89C2     		movl	%eax, %edx
 1065 07f7 8B45C0   		movl	-64(%ebp), %eax
 1066 07fa 01D0     		addl	%edx, %eax
 1067              		.loc 1 231 39
 1068 07fc C60000   		movb	$0, (%eax)
 1069 07ff E9A40000 		jmp	L48
 1069      00
 1070              	L54:
 1071              	LBB11:
 232:src/pdf417/PDFDetectionResultColumn.c **** 		}
 233:src/pdf417/PDFDetectionResultColumn.c **** 		else 
 234:src/pdf417/PDFDetectionResultColumn.c **** 		{
 235:src/pdf417/PDFDetectionResultColumn.c **** 			int checkedRows;
 236:src/pdf417/PDFDetectionResultColumn.c **** 			if (maxRowHeight > 2) 
 1072              		.loc 1 236 7
 1073 0804 837DE002 		cmpl	$2, -32(%ebp)
 1074 0808 7E11     		jle	L55
GAS LISTING C:\Users\jisu8\AppData\Local\Temp\cc5AG2CR.s 			page 26


 237:src/pdf417/PDFDetectionResultColumn.c **** 			{
 238:src/pdf417/PDFDetectionResultColumn.c **** 				checkedRows = (maxRowHeight - 2) * rowDifference;
 1075              		.loc 1 238 33
 1076 080a 8B45E0   		movl	-32(%ebp), %eax
 1077 080d 8D50FE   		leal	-2(%eax), %edx
 1078              		.loc 1 238 17
 1079 0810 8B45B4   		movl	-76(%ebp), %eax
 1080 0813 0FAFC2   		imull	%edx, %eax
 1081 0816 8945D0   		movl	%eax, -48(%ebp)
 1082 0819 EB06     		jmp	L56
 1083              	L55:
 239:src/pdf417/PDFDetectionResultColumn.c **** 			}
 240:src/pdf417/PDFDetectionResultColumn.c **** 			else 
 241:src/pdf417/PDFDetectionResultColumn.c **** 			{
 242:src/pdf417/PDFDetectionResultColumn.c **** 				checkedRows = rowDifference;
 1084              		.loc 1 242 17
 1085 081b 8B45B4   		movl	-76(%ebp), %eax
 1086 081e 8945D0   		movl	%eax, -48(%ebp)
 1087              	L56:
 243:src/pdf417/PDFDetectionResultColumn.c **** 			}
 244:src/pdf417/PDFDetectionResultColumn.c **** 
 245:src/pdf417/PDFDetectionResultColumn.c **** 			uint8_t closePreviousCodewordFound;
 246:src/pdf417/PDFDetectionResultColumn.c **** 			if(checkedRows >= codewordsRow)
 1088              		.loc 1 246 6
 1089 0821 8B45D0   		movl	-48(%ebp), %eax
 1090 0824 3B45D4   		cmpl	-44(%ebp), %eax
 1091 0827 7C06     		jl	L57
 247:src/pdf417/PDFDetectionResultColumn.c **** 			{
 248:src/pdf417/PDFDetectionResultColumn.c **** 				closePreviousCodewordFound = 1;
 1092              		.loc 1 248 32
 1093 0829 C645CF01 		movb	$1, -49(%ebp)
 1094 082d EB04     		jmp	L58
 1095              	L57:
 249:src/pdf417/PDFDetectionResultColumn.c **** 			}
 250:src/pdf417/PDFDetectionResultColumn.c **** 			else
 251:src/pdf417/PDFDetectionResultColumn.c **** 			{
 252:src/pdf417/PDFDetectionResultColumn.c **** 				closePreviousCodewordFound = 0;
 1096              		.loc 1 252 32
 1097 082f C645CF00 		movb	$0, -49(%ebp)
 1098              	L58:
 1099              	LBB12:
 253:src/pdf417/PDFDetectionResultColumn.c **** 			}
 254:src/pdf417/PDFDetectionResultColumn.c **** 			for (int i = 1; i <= checkedRows && !closePreviousCodewordFound; i++) 
 1100              		.loc 1 254 13
 1101 0833 C745C801 		movl	$1, -56(%ebp)
 1101      000000
 1102              		.loc 1 254 4
 1103 083a EB2D     		jmp	L59
 1104              	L63:
 255:src/pdf417/PDFDetectionResultColumn.c **** 			{
 256:src/pdf417/PDFDetectionResultColumn.c **** 				// there must be (height * rowDifference) number of codewords missing. For now we assume height
 257:src/pdf417/PDFDetectionResultColumn.c **** 				// This should hopefully get rid of most problems already.
 258:src/pdf417/PDFDetectionResultColumn.c **** 				if(codewords[codewordsRow - i].m_hasValue != 0)
 1105              		.loc 1 258 31
 1106 083c 8B45D4   		movl	-44(%ebp), %eax
 1107 083f 2B45C8   		subl	-56(%ebp), %eax
 1108 0842 89C2     		movl	%eax, %edx
GAS LISTING C:\Users\jisu8\AppData\Local\Temp\cc5AG2CR.s 			page 27


 1109              		.loc 1 258 17
 1110 0844 89D0     		movl	%edx, %eax
 1111 0846 01C0     		addl	%eax, %eax
 1112 0848 01D0     		addl	%edx, %eax
 1113 084a C1E003   		sall	$3, %eax
 1114 084d 89C2     		movl	%eax, %edx
 1115 084f 8B45C0   		movl	-64(%ebp), %eax
 1116 0852 01D0     		addl	%edx, %eax
 1117              		.loc 1 258 35
 1118 0854 0FB600   		movzbl	(%eax), %eax
 1119              		.loc 1 258 7
 1120 0857 84C0     		testb	%al, %al
 1121 0859 7406     		je	L60
 259:src/pdf417/PDFDetectionResultColumn.c **** 				{
 260:src/pdf417/PDFDetectionResultColumn.c **** 					closePreviousCodewordFound = 1;
 1122              		.loc 1 260 33
 1123 085b C645CF01 		movb	$1, -49(%ebp)
 1124 085f EB04     		jmp	L61
 1125              	L60:
 261:src/pdf417/PDFDetectionResultColumn.c **** 				}
 262:src/pdf417/PDFDetectionResultColumn.c **** 				else
 263:src/pdf417/PDFDetectionResultColumn.c **** 				{
 264:src/pdf417/PDFDetectionResultColumn.c **** 					closePreviousCodewordFound = 0;
 1126              		.loc 1 264 33
 1127 0861 C645CF00 		movb	$0, -49(%ebp)
 1128              	L61:
 254:src/pdf417/PDFDetectionResultColumn.c **** 			{
 1129              		.loc 1 254 70 discriminator 2
 1130 0865 8345C801 		addl	$1, -56(%ebp)
 1131              	L59:
 254:src/pdf417/PDFDetectionResultColumn.c **** 			{
 1132              		.loc 1 254 4 discriminator 1
 1133 0869 8B45C8   		movl	-56(%ebp), %eax
 1134 086c 3B45D0   		cmpl	-48(%ebp), %eax
 1135 086f 7F06     		jg	L62
 254:src/pdf417/PDFDetectionResultColumn.c **** 			{
 1136              		.loc 1 254 37 discriminator 3
 1137 0871 807DCF00 		cmpb	$0, -49(%ebp)
 1138 0875 74C5     		je	L63
 1139              	L62:
 1140              	LBE12:
 265:src/pdf417/PDFDetectionResultColumn.c **** 				}
 266:src/pdf417/PDFDetectionResultColumn.c **** 			}
 267:src/pdf417/PDFDetectionResultColumn.c **** 
 268:src/pdf417/PDFDetectionResultColumn.c **** 			if (closePreviousCodewordFound) 
 1141              		.loc 1 268 7
 1142 0877 807DCF00 		cmpb	$0, -49(%ebp)
 1143 087b 7418     		je	L64
 269:src/pdf417/PDFDetectionResultColumn.c **** 			{
 270:src/pdf417/PDFDetectionResultColumn.c **** 				codewords[codewordsRow].m_hasValue = 0;
 1144              		.loc 1 270 14
 1145 087d 8B55D4   		movl	-44(%ebp), %edx
 1146 0880 89D0     		movl	%edx, %eax
 1147 0882 01C0     		addl	%eax, %eax
 1148 0884 01D0     		addl	%edx, %eax
 1149 0886 C1E003   		sall	$3, %eax
 1150 0889 89C2     		movl	%eax, %edx
GAS LISTING C:\Users\jisu8\AppData\Local\Temp\cc5AG2CR.s 			page 28


 1151 088b 8B45C0   		movl	-64(%ebp), %eax
 1152 088e 01D0     		addl	%edx, %eax
 1153              		.loc 1 270 40
 1154 0890 C60000   		movb	$0, (%eax)
 1155 0893 EB13     		jmp	L48
 1156              	L64:
 271:src/pdf417/PDFDetectionResultColumn.c **** 			}
 272:src/pdf417/PDFDetectionResultColumn.c **** 			else 
 273:src/pdf417/PDFDetectionResultColumn.c **** 			{
 274:src/pdf417/PDFDetectionResultColumn.c **** 				barcodeRow = codeword.m_value._rowNumber;
 1157              		.loc 1 274 16
 1158 0895 8B854CFF 		movl	-180(%ebp), %eax
 1158      FFFF
 1159 089b 8945E4   		movl	%eax, -28(%ebp)
 275:src/pdf417/PDFDetectionResultColumn.c **** 				currentRowHeight = 1;
 1160              		.loc 1 275 22
 1161 089e C745DC01 		movl	$1, -36(%ebp)
 1161      000000
 1162 08a5 EB01     		jmp	L48
 1163              	L67:
 1164              	LBE11:
 199:src/pdf417/PDFDetectionResultColumn.c **** 		}
 1165              		.loc 1 199 4
 1166 08a7 90       		nop
 1167              	L48:
 1168              	LBE10:
 195:src/pdf417/PDFDetectionResultColumn.c **** 	{
 1169              		.loc 1 195 72 discriminator 2
 1170 08a8 8345D401 		addl	$1, -44(%ebp)
 1171              	L46:
 195:src/pdf417/PDFDetectionResultColumn.c **** 	{
 1172              		.loc 1 195 2 discriminator 1
 1173 08ac 8B45D4   		movl	-44(%ebp), %eax
 1174 08af 3B45B8   		cmpl	-72(%ebp), %eax
 1175 08b2 0F8C30FE 		jl	L65
 1175      FFFF
 1176 08b8 EB01     		jmp	L68
 1177              	L66:
 1178              	LBE9:
 178:src/pdf417/PDFDetectionResultColumn.c **** 	}
 1179              		.loc 1 178 3
 1180 08ba 90       		nop
 1181              	L68:
 276:src/pdf417/PDFDetectionResultColumn.c **** 			}
 277:src/pdf417/PDFDetectionResultColumn.c **** 		}
 278:src/pdf417/PDFDetectionResultColumn.c **** 	}
 279:src/pdf417/PDFDetectionResultColumn.c **** 
 280:src/pdf417/PDFDetectionResultColumn.c **** }
 1182              		.loc 1 280 1
 1183 08bb 81C4DC00 		addl	$220, %esp
 1183      0000
 1184 08c1 5B       		popl	%ebx
 1185              		.cfi_restore 3
 1186 08c2 5E       		popl	%esi
 1187              		.cfi_restore 6
 1188 08c3 5F       		popl	%edi
 1189              		.cfi_restore 7
GAS LISTING C:\Users\jisu8\AppData\Local\Temp\cc5AG2CR.s 			page 29


 1190 08c4 5D       		popl	%ebp
 1191              	LCFI26:
 1192              		.cfi_restore 5
 1193              		.cfi_def_cfa 4, 4
 1194 08c5 C3       		ret
 1195              		.cfi_endproc
 1196              	LFE12:
 1197              		.section .rdata,"dr"
 1198 007d 000000   		.align 4
 1199              	LC4:
 1200 0080 44657465 		.ascii "DetectionResultColumn::adjustIncompleteIndicatorColumnRowNumbers: \0"
 1200      6374696F 
 1200      6E526573 
 1200      756C7443 
 1200      6F6C756D 
 1201              		.text
 1202              		.globl	_adjustIncompleteIndicatorColumnRowNumbers
 1204              	_adjustIncompleteIndicatorColumnRowNumbers:
 1205              	LFB13:
 281:src/pdf417/PDFDetectionResultColumn.c **** 
 282:src/pdf417/PDFDetectionResultColumn.c **** // TODO maybe we should add missing codewords to store the correct row number to make
 283:src/pdf417/PDFDetectionResultColumn.c **** // finding row numbers for other columns easier
 284:src/pdf417/PDFDetectionResultColumn.c **** // use row height count to make detection of invalid row numbers more reliable
 285:src/pdf417/PDFDetectionResultColumn.c **** void adjustIncompleteIndicatorColumnRowNumbers(DetectionResultColumn_t * rowIndicatorColumn , const
 286:src/pdf417/PDFDetectionResultColumn.c **** {
 1206              		.loc 1 286 1
 1207              		.cfi_startproc
 1208 08c6 55       		pushl	%ebp
 1209              	LCFI27:
 1210              		.cfi_def_cfa_offset 8
 1211              		.cfi_offset 5, -8
 1212 08c7 89E5     		movl	%esp, %ebp
 1213              	LCFI28:
 1214              		.cfi_def_cfa_register 5
 1215 08c9 57       		pushl	%edi
 1216 08ca 56       		pushl	%esi
 1217 08cb 53       		pushl	%ebx
 1218 08cc 81ECBC00 		subl	$188, %esp
 1218      0000
 1219              		.cfi_offset 7, -12
 1220              		.cfi_offset 6, -16
 1221              		.cfi_offset 3, -20
 287:src/pdf417/PDFDetectionResultColumn.c **** 
 288:src/pdf417/PDFDetectionResultColumn.c **** 	printf("DetectionResultColumn::adjustIncompleteIndicatorColumnRowNumbers: \n");
 1222              		.loc 1 288 2
 1223 08d2 C7042480 		movl	$LC4, (%esp)
 1223      000000
 1224 08d9 E8000000 		call	_puts
 1224      00
 289:src/pdf417/PDFDetectionResultColumn.c **** 	
 290:src/pdf417/PDFDetectionResultColumn.c **** 	if (!isRowIndicator(rowIndicatorColumn))
 1225              		.loc 1 290 7
 1226 08de 8B4508   		movl	8(%ebp), %eax
 1227 08e1 890424   		movl	%eax, (%esp)
 1228 08e4 E808F8FF 		call	_isRowIndicator
 1228      FF
 1229              		.loc 1 290 5
GAS LISTING C:\Users\jisu8\AppData\Local\Temp\cc5AG2CR.s 			page 30


 1230 08e9 84C0     		testb	%al, %al
 1231 08eb 0F843402 		je	L83
 1231      0000
 291:src/pdf417/PDFDetectionResultColumn.c **** 	{
 292:src/pdf417/PDFDetectionResultColumn.c **** 		return;
 293:src/pdf417/PDFDetectionResultColumn.c **** 	}
 294:src/pdf417/PDFDetectionResultColumn.c **** 
 295:src/pdf417/PDFDetectionResultColumn.c **** 	const BoundingBox_t bb = rowIndicatorColumn->m_value._boundingBox;
 1232              		.loc 1 295 22
 1233 08f1 8B5508   		movl	8(%ebp), %edx
 1234 08f4 8D857CFF 		leal	-132(%ebp), %eax
 1234      FFFF
 1235 08fa 83C204   		addl	$4, %edx
 1236 08fd B9130000 		movl	$19, %ecx
 1236      00
 1237 0902 89C7     		movl	%eax, %edi
 1238 0904 89D6     		movl	%edx, %esi
 1239 0906 F3A5     		rep movsl
 296:src/pdf417/PDFDetectionResultColumn.c **** 	ResultPoint_t top = isLeftRowIndicator(rowIndicatorColumn) ? topLeft(&bb) : topRight(&bb);
 1240              		.loc 1 296 22
 1241 0908 8B4508   		movl	8(%ebp), %eax
 1242 090b 890424   		movl	%eax, (%esp)
 1243 090e E8F1F7FF 		call	_isLeftRowIndicator
 1243      FF
 1244              		.loc 1 296 16
 1245 0913 84C0     		testb	%al, %al
 1246 0915 741A     		je	L72
 1247              		.loc 1 296 63 discriminator 1
 1248 0917 8D8570FF 		leal	-144(%ebp), %eax
 1248      FFFF
 1249 091d 8D957CFF 		leal	-132(%ebp), %edx
 1249      FFFF
 1250 0923 89542404 		movl	%edx, 4(%esp)
 1251 0927 890424   		movl	%eax, (%esp)
 1252 092a E8000000 		call	_topLeft
 1252      00
 1253 092f EB18     		jmp	L73
 1254              	L72:
 1255              		.loc 1 296 78 discriminator 2
 1256 0931 8D8570FF 		leal	-144(%ebp), %eax
 1256      FFFF
 1257 0937 8D957CFF 		leal	-132(%ebp), %edx
 1257      FFFF
 1258 093d 89542404 		movl	%edx, 4(%esp)
 1259 0941 890424   		movl	%eax, (%esp)
 1260 0944 E8000000 		call	_topRight
 1260      00
 1261              	L73:
 297:src/pdf417/PDFDetectionResultColumn.c **** 	ResultPoint_t bottom = isLeftRowIndicator(rowIndicatorColumn) ? bottomLeft(&bb) : bottomRight(&bb)
 1262              		.loc 1 297 25
 1263 0949 8B4508   		movl	8(%ebp), %eax
 1264 094c 890424   		movl	%eax, (%esp)
 1265 094f E8B0F7FF 		call	_isLeftRowIndicator
 1265      FF
 1266              		.loc 1 297 16
 1267 0954 84C0     		testb	%al, %al
 1268 0956 741A     		je	L74
GAS LISTING C:\Users\jisu8\AppData\Local\Temp\cc5AG2CR.s 			page 31


 1269              		.loc 1 297 66 discriminator 1
 1270 0958 8D8564FF 		leal	-156(%ebp), %eax
 1270      FFFF
 1271 095e 8D957CFF 		leal	-132(%ebp), %edx
 1271      FFFF
 1272 0964 89542404 		movl	%edx, 4(%esp)
 1273 0968 890424   		movl	%eax, (%esp)
 1274 096b E8000000 		call	_bottomLeft
 1274      00
 1275 0970 EB18     		jmp	L75
 1276              	L74:
 1277              		.loc 1 297 84 discriminator 2
 1278 0972 8D8564FF 		leal	-156(%ebp), %eax
 1278      FFFF
 1279 0978 8D957CFF 		leal	-132(%ebp), %edx
 1279      FFFF
 1280 097e 89542404 		movl	%edx, 4(%esp)
 1281 0982 890424   		movl	%eax, (%esp)
 1282 0985 E8000000 		call	_bottomRight
 1282      00
 1283              	L75:
 298:src/pdf417/PDFDetectionResultColumn.c **** 	int firstRow = (int)top.m_value.y - bb.m_value._minY;
 1284              		.loc 1 298 33
 1285 098a D98578FF 		flds	-136(%ebp)
 1285      FFFF
 1286              		.loc 1 298 17
 1287 0990 D9BD56FF 		fnstcw	-170(%ebp)
 1287      FFFF
 1288 0996 0FB78556 		movzwl	-170(%ebp), %eax
 1288      FFFFFF
 1289 099d 80CC0C   		orb	$12, %ah
 1290 09a0 66898554 		movw	%ax, -172(%ebp)
 1290      FFFFFF
 1291 09a7 D9AD54FF 		fldcw	-172(%ebp)
 1291      FFFF
 1292 09ad DB9D50FF 		fistpl	-176(%ebp)
 1292      FFFF
 1293 09b3 D9AD56FF 		fldcw	-170(%ebp)
 1293      FFFF
 1294 09b9 8B9550FF 		movl	-176(%ebp), %edx
 1294      FFFF
 1295              		.loc 1 298 48
 1296 09bf 8B45C0   		movl	-64(%ebp), %eax
 1297              		.loc 1 298 6
 1298 09c2 29C2     		subl	%eax, %edx
 1299 09c4 89D0     		movl	%edx, %eax
 1300 09c6 8945D4   		movl	%eax, -44(%ebp)
 299:src/pdf417/PDFDetectionResultColumn.c **** 	int lastRow = (int)bottom.m_value.y - bb.m_value._minY;
 1301              		.loc 1 299 35
 1302 09c9 D9856CFF 		flds	-148(%ebp)
 1302      FFFF
 1303              		.loc 1 299 16
 1304 09cf D9AD54FF 		fldcw	-172(%ebp)
 1304      FFFF
 1305 09d5 DB9D50FF 		fistpl	-176(%ebp)
 1305      FFFF
 1306 09db D9AD56FF 		fldcw	-170(%ebp)
GAS LISTING C:\Users\jisu8\AppData\Local\Temp\cc5AG2CR.s 			page 32


 1306      FFFF
 1307 09e1 8B9550FF 		movl	-176(%ebp), %edx
 1307      FFFF
 1308              		.loc 1 299 50
 1309 09e7 8B45C0   		movl	-64(%ebp), %eax
 1310              		.loc 1 299 6
 1311 09ea 29C2     		subl	%eax, %edx
 1312 09ec 89D0     		movl	%edx, %eax
 1313 09ee 8945D0   		movl	%eax, -48(%ebp)
 300:src/pdf417/PDFDetectionResultColumn.c **** 	Codeword_t * codewords = rowIndicatorColumn->m_value._codewords;
 1314              		.loc 1 300 15
 1315 09f1 8B4508   		movl	8(%ebp), %eax
 1316 09f4 83C050   		addl	$80, %eax
 1317 09f7 8945CC   		movl	%eax, -52(%ebp)
 301:src/pdf417/PDFDetectionResultColumn.c **** 	int barcodeRow = -1;
 1318              		.loc 1 301 6
 1319 09fa C745E4FF 		movl	$-1, -28(%ebp)
 1319      FFFFFF
 302:src/pdf417/PDFDetectionResultColumn.c **** 	int maxRowHeight = 1;
 1320              		.loc 1 302 6
 1321 0a01 C745E001 		movl	$1, -32(%ebp)
 1321      000000
 303:src/pdf417/PDFDetectionResultColumn.c **** 	int currentRowHeight = 0;
 1322              		.loc 1 303 6
 1323 0a08 C745DC00 		movl	$0, -36(%ebp)
 1323      000000
 1324              	LBB13:
 304:src/pdf417/PDFDetectionResultColumn.c **** 	for (int codewordsRow = firstRow; codewordsRow < lastRow; codewordsRow++) 
 1325              		.loc 1 304 11
 1326 0a0f 8B45D4   		movl	-44(%ebp), %eax
 1327 0a12 8945D8   		movl	%eax, -40(%ebp)
 1328              		.loc 1 304 2
 1329 0a15 E9FD0000 		jmp	L76
 1329      00
 1330              	L82:
 1331              	LBB14:
 305:src/pdf417/PDFDetectionResultColumn.c **** 	{
 306:src/pdf417/PDFDetectionResultColumn.c **** 		if (codewords[codewordsRow].m_hasValue == 0) 
 1332              		.loc 1 306 16
 1333 0a1a 8B55D8   		movl	-40(%ebp), %edx
 1334 0a1d 89D0     		movl	%edx, %eax
 1335 0a1f 01C0     		addl	%eax, %eax
 1336 0a21 01D0     		addl	%edx, %eax
 1337 0a23 C1E003   		sall	$3, %eax
 1338 0a26 89C2     		movl	%eax, %edx
 1339 0a28 8B45CC   		movl	-52(%ebp), %eax
 1340 0a2b 01D0     		addl	%edx, %eax
 1341              		.loc 1 306 30
 1342 0a2d 0FB600   		movzbl	(%eax), %eax
 1343              		.loc 1 306 6
 1344 0a30 84C0     		testb	%al, %al
 1345 0a32 0F84DA00 		je	L84
 1345      0000
 307:src/pdf417/PDFDetectionResultColumn.c **** 		{
 308:src/pdf417/PDFDetectionResultColumn.c **** 			continue;
 309:src/pdf417/PDFDetectionResultColumn.c **** 		}
 310:src/pdf417/PDFDetectionResultColumn.c **** 
GAS LISTING C:\Users\jisu8\AppData\Local\Temp\cc5AG2CR.s 			page 33


 311:src/pdf417/PDFDetectionResultColumn.c **** 		setRowNumberAsRowIndicatorColumn(codewords+codewordsRow);
 1346              		.loc 1 311 45
 1347 0a38 8B55D8   		movl	-40(%ebp), %edx
 1348 0a3b 89D0     		movl	%edx, %eax
 1349 0a3d 01C0     		addl	%eax, %eax
 1350 0a3f 01D0     		addl	%edx, %eax
 1351 0a41 C1E003   		sall	$3, %eax
 1352 0a44 89C2     		movl	%eax, %edx
 1353              		.loc 1 311 3
 1354 0a46 8B45CC   		movl	-52(%ebp), %eax
 1355 0a49 01D0     		addl	%edx, %eax
 1356 0a4b 890424   		movl	%eax, (%esp)
 1357 0a4e E8430200 		call	_setRowNumberAsRowIndicatorColumn
 1357      00
 312:src/pdf417/PDFDetectionResultColumn.c **** 
 313:src/pdf417/PDFDetectionResultColumn.c **** 		int rowDifference = codewords[codewordsRow].m_value._rowNumber - barcodeRow;
 1358              		.loc 1 313 32
 1359 0a53 8B55D8   		movl	-40(%ebp), %edx
 1360 0a56 89D0     		movl	%edx, %eax
 1361 0a58 01C0     		addl	%eax, %eax
 1362 0a5a 01D0     		addl	%edx, %eax
 1363 0a5c C1E003   		sall	$3, %eax
 1364 0a5f 89C2     		movl	%eax, %edx
 1365 0a61 8B45CC   		movl	-52(%ebp), %eax
 1366 0a64 01D0     		addl	%edx, %eax
 1367              		.loc 1 313 54
 1368 0a66 8B4014   		movl	20(%eax), %eax
 1369              		.loc 1 313 7
 1370 0a69 2B45E4   		subl	-28(%ebp), %eax
 1371 0a6c 8945C8   		movl	%eax, -56(%ebp)
 314:src/pdf417/PDFDetectionResultColumn.c **** 
 315:src/pdf417/PDFDetectionResultColumn.c **** 		// TODO improve handling with case where first row indicator doesn't start with 0
 316:src/pdf417/PDFDetectionResultColumn.c **** 
 317:src/pdf417/PDFDetectionResultColumn.c **** 		if (rowDifference == 0) 
 1372              		.loc 1 317 6
 1373 0a6f 837DC800 		cmpl	$0, -56(%ebp)
 1374 0a73 7509     		jne	L79
 318:src/pdf417/PDFDetectionResultColumn.c **** 		{
 319:src/pdf417/PDFDetectionResultColumn.c **** 			currentRowHeight++;
 1375              		.loc 1 319 20
 1376 0a75 8345DC01 		addl	$1, -36(%ebp)
 1377 0a79 E9950000 		jmp	L78
 1377      00
 1378              	L79:
 320:src/pdf417/PDFDetectionResultColumn.c **** 		}
 321:src/pdf417/PDFDetectionResultColumn.c **** 		else if (rowDifference == 1) 
 1379              		.loc 1 321 11
 1380 0a7e 837DC801 		cmpl	$1, -56(%ebp)
 1381 0a82 752F     		jne	L80
 322:src/pdf417/PDFDetectionResultColumn.c **** 		{
 323:src/pdf417/PDFDetectionResultColumn.c **** 			maxRowHeight = __max(maxRowHeight, currentRowHeight);
 1382              		.loc 1 323 17
 1383 0a84 8B45E0   		movl	-32(%ebp), %eax
 1384 0a87 3945DC   		cmpl	%eax, -36(%ebp)
 1385 0a8a 0F4D45DC 		cmovge	-36(%ebp), %eax
 1386 0a8e 8945E0   		movl	%eax, -32(%ebp)
 324:src/pdf417/PDFDetectionResultColumn.c **** 			currentRowHeight = 1;
GAS LISTING C:\Users\jisu8\AppData\Local\Temp\cc5AG2CR.s 			page 34


 1387              		.loc 1 324 21
 1388 0a91 C745DC01 		movl	$1, -36(%ebp)
 1388      000000
 325:src/pdf417/PDFDetectionResultColumn.c **** 			barcodeRow = codewords[codewordsRow].m_value._rowNumber;
 1389              		.loc 1 325 26
 1390 0a98 8B55D8   		movl	-40(%ebp), %edx
 1391 0a9b 89D0     		movl	%edx, %eax
 1392 0a9d 01C0     		addl	%eax, %eax
 1393 0a9f 01D0     		addl	%edx, %eax
 1394 0aa1 C1E003   		sall	$3, %eax
 1395 0aa4 89C2     		movl	%eax, %edx
 1396 0aa6 8B45CC   		movl	-52(%ebp), %eax
 1397 0aa9 01D0     		addl	%edx, %eax
 1398              		.loc 1 325 15
 1399 0aab 8B4014   		movl	20(%eax), %eax
 1400 0aae 8945E4   		movl	%eax, -28(%ebp)
 1401 0ab1 EB60     		jmp	L78
 1402              	L80:
 326:src/pdf417/PDFDetectionResultColumn.c **** 		}
 327:src/pdf417/PDFDetectionResultColumn.c **** 		else if (codewords[codewordsRow].m_value._rowNumber >= rowCount(barcodeMetadata)) 
 1403              		.loc 1 327 21
 1404 0ab3 8B55D8   		movl	-40(%ebp), %edx
 1405 0ab6 89D0     		movl	%edx, %eax
 1406 0ab8 01C0     		addl	%eax, %eax
 1407 0aba 01D0     		addl	%edx, %eax
 1408 0abc C1E003   		sall	$3, %eax
 1409 0abf 89C2     		movl	%eax, %edx
 1410 0ac1 8B45CC   		movl	-52(%ebp), %eax
 1411 0ac4 01D0     		addl	%edx, %eax
 1412              		.loc 1 327 43
 1413 0ac6 8B5814   		movl	20(%eax), %ebx
 1414              		.loc 1 327 58
 1415 0ac9 8B450C   		movl	12(%ebp), %eax
 1416 0acc 890424   		movl	%eax, (%esp)
 1417 0acf E8000000 		call	_rowCount
 1417      00
 1418              		.loc 1 327 11
 1419 0ad4 39C3     		cmpl	%eax, %ebx
 1420 0ad6 7C18     		jl	L81
 328:src/pdf417/PDFDetectionResultColumn.c **** 		{
 329:src/pdf417/PDFDetectionResultColumn.c **** 			codewords[codewordsRow].m_hasValue = 0;
 1421              		.loc 1 329 13
 1422 0ad8 8B55D8   		movl	-40(%ebp), %edx
 1423 0adb 89D0     		movl	%edx, %eax
 1424 0add 01C0     		addl	%eax, %eax
 1425 0adf 01D0     		addl	%edx, %eax
 1426 0ae1 C1E003   		sall	$3, %eax
 1427 0ae4 89C2     		movl	%eax, %edx
 1428 0ae6 8B45CC   		movl	-52(%ebp), %eax
 1429 0ae9 01D0     		addl	%edx, %eax
 1430              		.loc 1 329 39
 1431 0aeb C60000   		movb	$0, (%eax)
 1432 0aee EB23     		jmp	L78
 1433              	L81:
 330:src/pdf417/PDFDetectionResultColumn.c **** 		}
 331:src/pdf417/PDFDetectionResultColumn.c **** 		else 
 332:src/pdf417/PDFDetectionResultColumn.c **** 		{
GAS LISTING C:\Users\jisu8\AppData\Local\Temp\cc5AG2CR.s 			page 35


 333:src/pdf417/PDFDetectionResultColumn.c **** 			barcodeRow = codewords[codewordsRow].m_value._rowNumber;
 1434              		.loc 1 333 26
 1435 0af0 8B55D8   		movl	-40(%ebp), %edx
 1436 0af3 89D0     		movl	%edx, %eax
 1437 0af5 01C0     		addl	%eax, %eax
 1438 0af7 01D0     		addl	%edx, %eax
 1439 0af9 C1E003   		sall	$3, %eax
 1440 0afc 89C2     		movl	%eax, %edx
 1441 0afe 8B45CC   		movl	-52(%ebp), %eax
 1442 0b01 01D0     		addl	%edx, %eax
 1443              		.loc 1 333 15
 1444 0b03 8B4014   		movl	20(%eax), %eax
 1445 0b06 8945E4   		movl	%eax, -28(%ebp)
 334:src/pdf417/PDFDetectionResultColumn.c **** 			currentRowHeight = 1;
 1446              		.loc 1 334 21
 1447 0b09 C745DC01 		movl	$1, -36(%ebp)
 1447      000000
 1448 0b10 EB01     		jmp	L78
 1449              	L84:
 308:src/pdf417/PDFDetectionResultColumn.c **** 		}
 1450              		.loc 1 308 4
 1451 0b12 90       		nop
 1452              	L78:
 1453              	LBE14:
 304:src/pdf417/PDFDetectionResultColumn.c **** 	{
 1454              		.loc 1 304 72 discriminator 2
 1455 0b13 8345D801 		addl	$1, -40(%ebp)
 1456              	L76:
 304:src/pdf417/PDFDetectionResultColumn.c **** 	{
 1457              		.loc 1 304 2 discriminator 1
 1458 0b17 8B45D8   		movl	-40(%ebp), %eax
 1459 0b1a 3B45D0   		cmpl	-48(%ebp), %eax
 1460 0b1d 0F8CF7FE 		jl	L82
 1460      FFFF
 1461 0b23 EB01     		jmp	L85
 1462              	L83:
 1463              	LBE13:
 292:src/pdf417/PDFDetectionResultColumn.c **** 	}
 1464              		.loc 1 292 3
 1465 0b25 90       		nop
 1466              	L85:
 335:src/pdf417/PDFDetectionResultColumn.c **** 		}
 336:src/pdf417/PDFDetectionResultColumn.c **** 	}
 337:src/pdf417/PDFDetectionResultColumn.c **** }
 1467              		.loc 1 337 1
 1468 0b26 81C4BC00 		addl	$188, %esp
 1468      0000
 1469 0b2c 5B       		popl	%ebx
 1470              		.cfi_restore 3
 1471 0b2d 5E       		popl	%esi
 1472              		.cfi_restore 6
 1473 0b2e 5F       		popl	%edi
 1474              		.cfi_restore 7
 1475 0b2f 5D       		popl	%ebp
 1476              	LCFI29:
 1477              		.cfi_restore 5
 1478              		.cfi_def_cfa 4, 4
GAS LISTING C:\Users\jisu8\AppData\Local\Temp\cc5AG2CR.s 			page 36


 1479 0b30 C3       		ret
 1480              		.cfi_endproc
 1481              	LFE13:
 1482              		.section .rdata,"dr"
 1483 00c3 00       		.align 4
 1484              	LC5:
 1485 00c4 44657465 		.ascii "DetectionResultColumn::getRowHeights : \0"
 1485      6374696F 
 1485      6E526573 
 1485      756C7443 
 1485      6F6C756D 
 1486              		.text
 1487              		.globl	_getRowHeights
 1489              	_getRowHeights:
 1490              	LFB14:
 338:src/pdf417/PDFDetectionResultColumn.c **** 
 339:src/pdf417/PDFDetectionResultColumn.c **** // This is example of bad design, a getter should not modify object's state
 340:src/pdf417/PDFDetectionResultColumn.c **** uint8_t getRowHeights(DetectionResultColumn_t * rowIndicatorColumn,int * result,int length,int * si
 341:src/pdf417/PDFDetectionResultColumn.c **** {
 1491              		.loc 1 341 1
 1492              		.cfi_startproc
 1493 0b31 55       		pushl	%ebp
 1494              	LCFI30:
 1495              		.cfi_def_cfa_offset 8
 1496              		.cfi_offset 5, -8
 1497 0b32 89E5     		movl	%esp, %ebp
 1498              	LCFI31:
 1499              		.cfi_def_cfa_register 5
 1500 0b34 53       		pushl	%ebx
 1501 0b35 83EC44   		subl	$68, %esp
 1502              		.cfi_offset 3, -12
 1503              		.loc 1 341 1
 1504 0b38 89E0     		movl	%esp, %eax
 1505 0b3a 89C3     		movl	%eax, %ebx
 342:src/pdf417/PDFDetectionResultColumn.c **** 
 343:src/pdf417/PDFDetectionResultColumn.c **** 	printf("DetectionResultColumn::getRowHeights : \n");
 1506              		.loc 1 343 2
 1507 0b3c C70424C4 		movl	$LC5, (%esp)
 1507      000000
 1508 0b43 E8000000 		call	_puts
 1508      00
 344:src/pdf417/PDFDetectionResultColumn.c **** 
 345:src/pdf417/PDFDetectionResultColumn.c **** 	BarcodeMetadata_t barcodeMetadata;
 346:src/pdf417/PDFDetectionResultColumn.c **** 
 347:src/pdf417/PDFDetectionResultColumn.c **** 	if (!getBarcodeMetadata(rowIndicatorColumn,&barcodeMetadata,length)) 
 1509              		.loc 1 347 7
 1510 0b48 8B4510   		movl	16(%ebp), %eax
 1511 0b4b 89442408 		movl	%eax, 8(%esp)
 1512 0b4f 8D45C8   		leal	-56(%ebp), %eax
 1513 0b52 89442404 		movl	%eax, 4(%esp)
 1514 0b56 8B4508   		movl	8(%ebp), %eax
 1515 0b59 890424   		movl	%eax, (%esp)
 1516 0b5c E8830100 		call	_getBarcodeMetadata
 1516      00
 1517              		.loc 1 347 5
 1518 0b61 84C0     		testb	%al, %al
 1519 0b63 750A     		jne	L87
GAS LISTING C:\Users\jisu8\AppData\Local\Temp\cc5AG2CR.s 			page 37


 348:src/pdf417/PDFDetectionResultColumn.c **** 	{
 349:src/pdf417/PDFDetectionResultColumn.c **** 		return 0;
 1520              		.loc 1 349 10
 1521 0b65 B8000000 		movl	$0, %eax
 1521      00
 1522 0b6a E9200100 		jmp	L88
 1522      00
 1523              	L87:
 350:src/pdf417/PDFDetectionResultColumn.c **** 	}
 351:src/pdf417/PDFDetectionResultColumn.c **** 
 352:src/pdf417/PDFDetectionResultColumn.c **** 	adjustIncompleteIndicatorColumnRowNumbers(rowIndicatorColumn,&barcodeMetadata);
 1524              		.loc 1 352 2
 1525 0b6f 8D45C8   		leal	-56(%ebp), %eax
 1526 0b72 89442404 		movl	%eax, 4(%esp)
 1527 0b76 8B4508   		movl	8(%ebp), %eax
 1528 0b79 890424   		movl	%eax, (%esp)
 1529 0b7c E845FDFF 		call	_adjustIncompleteIndicatorColumnRowNumbers
 1529      FF
 353:src/pdf417/PDFDetectionResultColumn.c **** 
 354:src/pdf417/PDFDetectionResultColumn.c **** 	int sizeRow = rowCount(&barcodeMetadata);
 1530              		.loc 1 354 16
 1531 0b81 8D45C8   		leal	-56(%ebp), %eax
 1532 0b84 890424   		movl	%eax, (%esp)
 1533 0b87 E8000000 		call	_rowCount
 1533      00
 1534 0b8c 8945EC   		movl	%eax, -20(%ebp)
 355:src/pdf417/PDFDetectionResultColumn.c **** 	int ret[sizeRow];
 1535              		.loc 1 355 2
 1536 0b8f 8B45EC   		movl	-20(%ebp), %eax
 1537              		.loc 1 355 6
 1538 0b92 8D50FF   		leal	-1(%eax), %edx
 1539 0b95 8955E8   		movl	%edx, -24(%ebp)
 1540 0b98 8D148500 		leal	0(,%eax,4), %edx
 1540      000000
 1541 0b9f B8100000 		movl	$16, %eax
 1541      00
 1542 0ba4 83E801   		subl	$1, %eax
 1543 0ba7 01D0     		addl	%edx, %eax
 1544 0ba9 B9100000 		movl	$16, %ecx
 1544      00
 1545 0bae BA000000 		movl	$0, %edx
 1545      00
 1546 0bb3 F7F1     		divl	%ecx
 1547 0bb5 6BC010   		imull	$16, %eax, %eax
 1548 0bb8 E8000000 		call	___chkstk_ms
 1548      00
 1549 0bbd 29C4     		subl	%eax, %esp
 1550 0bbf 8D44240C 		leal	12(%esp), %eax
 1551 0bc3 83C003   		addl	$3, %eax
 1552 0bc6 C1E802   		shrl	$2, %eax
 1553 0bc9 C1E002   		sall	$2, %eax
 1554 0bcc 8945E4   		movl	%eax, -28(%ebp)
 356:src/pdf417/PDFDetectionResultColumn.c **** 	fill(sizeRow,ret,0);
 1555              		.loc 1 356 2
 1556 0bcf 8B45E4   		movl	-28(%ebp), %eax
 1557 0bd2 C7442408 		movl	$0, 8(%esp)
 1557      00000000 
GAS LISTING C:\Users\jisu8\AppData\Local\Temp\cc5AG2CR.s 			page 38


 1558 0bda 89442404 		movl	%eax, 4(%esp)
 1559 0bde 8B45EC   		movl	-20(%ebp), %eax
 1560 0be1 890424   		movl	%eax, (%esp)
 1561 0be4 E8000000 		call	_fill
 1561      00
 1562              	LBB15:
 357:src/pdf417/PDFDetectionResultColumn.c **** 	for (int i=0;i<length;i++) 
 1563              		.loc 1 357 11
 1564 0be9 C745F000 		movl	$0, -16(%ebp)
 1564      000000
 1565              		.loc 1 357 2
 1566 0bf0 EB58     		jmp	L89
 1567              	L92:
 1568              	LBB16:
 358:src/pdf417/PDFDetectionResultColumn.c **** 	{
 359:src/pdf417/PDFDetectionResultColumn.c **** 		Codeword_t * item = (rowIndicatorColumn->m_value._codewords+i);
 1569              		.loc 1 359 24
 1570 0bf2 8B4508   		movl	8(%ebp), %eax
 1571 0bf5 8D4850   		leal	80(%eax), %ecx
 1572              		.loc 1 359 62
 1573 0bf8 8B55F0   		movl	-16(%ebp), %edx
 1574 0bfb 89D0     		movl	%edx, %eax
 1575 0bfd 01C0     		addl	%eax, %eax
 1576 0bff 01D0     		addl	%edx, %eax
 1577 0c01 C1E003   		sall	$3, %eax
 1578              		.loc 1 359 16
 1579 0c04 01C8     		addl	%ecx, %eax
 1580 0c06 8945E0   		movl	%eax, -32(%ebp)
 360:src/pdf417/PDFDetectionResultColumn.c **** 		if (item->m_hasValue != 0) 
 1581              		.loc 1 360 11
 1582 0c09 8B45E0   		movl	-32(%ebp), %eax
 1583 0c0c 0FB600   		movzbl	(%eax), %eax
 1584              		.loc 1 360 6
 1585 0c0f 84C0     		testb	%al, %al
 1586 0c11 7433     		je	L90
 1587              	LBB17:
 361:src/pdf417/PDFDetectionResultColumn.c **** 		{
 362:src/pdf417/PDFDetectionResultColumn.c **** 			uint64_t rowNumber = item->m_value._rowNumber;
 1588              		.loc 1 362 38
 1589 0c13 8B45E0   		movl	-32(%ebp), %eax
 1590 0c16 8B4014   		movl	20(%eax), %eax
 1591              		.loc 1 362 13
 1592 0c19 99       		cltd
 1593 0c1a 8945D8   		movl	%eax, -40(%ebp)
 1594 0c1d 8955DC   		movl	%edx, -36(%ebp)
 363:src/pdf417/PDFDetectionResultColumn.c **** 			if (rowNumber >= sizeRow) 
 1595              		.loc 1 363 18
 1596 0c20 8B45EC   		movl	-20(%ebp), %eax
 1597 0c23 99       		cltd
 1598              		.loc 1 363 7
 1599 0c24 8B4DDC   		movl	-36(%ebp), %ecx
 1600 0c27 3945D8   		cmpl	%eax, -40(%ebp)
 1601 0c2a 19D1     		sbbl	%edx, %ecx
 1602 0c2c 7317     		jnc	L96
 364:src/pdf417/PDFDetectionResultColumn.c **** 			{
 365:src/pdf417/PDFDetectionResultColumn.c **** 				// We have more rows than the barcode metadata allows for, ignore them.
 366:src/pdf417/PDFDetectionResultColumn.c **** 				continue;
GAS LISTING C:\Users\jisu8\AppData\Local\Temp\cc5AG2CR.s 			page 39


 367:src/pdf417/PDFDetectionResultColumn.c **** 			}
 368:src/pdf417/PDFDetectionResultColumn.c **** 			ret[rowNumber]++;
 1603              		.loc 1 368 7
 1604 0c2e 8B45E4   		movl	-28(%ebp), %eax
 1605 0c31 8B55D8   		movl	-40(%ebp), %edx
 1606 0c34 8B0490   		movl	(%eax,%edx,4), %eax
 1607              		.loc 1 368 18
 1608 0c37 8D4801   		leal	1(%eax), %ecx
 1609 0c3a 8B45E4   		movl	-28(%ebp), %eax
 1610 0c3d 8B55D8   		movl	-40(%ebp), %edx
 1611 0c40 890C90   		movl	%ecx, (%eax,%edx,4)
 1612 0c43 EB01     		jmp	L90
 1613              	L96:
 366:src/pdf417/PDFDetectionResultColumn.c **** 			}
 1614              		.loc 1 366 5
 1615 0c45 90       		nop
 1616              	L90:
 1617              	LBE17:
 1618              	LBE16:
 357:src/pdf417/PDFDetectionResultColumn.c **** 	{
 1619              		.loc 1 357 25 discriminator 2
 1620 0c46 8345F001 		addl	$1, -16(%ebp)
 1621              	L89:
 357:src/pdf417/PDFDetectionResultColumn.c **** 	{
 1622              		.loc 1 357 2 discriminator 1
 1623 0c4a 8B45F0   		movl	-16(%ebp), %eax
 1624 0c4d 3B4510   		cmpl	16(%ebp), %eax
 1625 0c50 7CA0     		jl	L92
 1626              	LBE15:
 1627              	LBB18:
 369:src/pdf417/PDFDetectionResultColumn.c **** 		} // else throw exception?
 370:src/pdf417/PDFDetectionResultColumn.c **** 	}
 371:src/pdf417/PDFDetectionResultColumn.c **** 
 372:src/pdf417/PDFDetectionResultColumn.c **** 	for(int i=0;i<sizeRow;i++)
 1628              		.loc 1 372 10
 1629 0c52 C745F400 		movl	$0, -12(%ebp)
 1629      000000
 1630              		.loc 1 372 2
 1631 0c59 EB1F     		jmp	L93
 1632              	L94:
 373:src/pdf417/PDFDetectionResultColumn.c **** 	{
 374:src/pdf417/PDFDetectionResultColumn.c **** 		result[i] = ret[i];
 1633              		.loc 1 374 9 discriminator 3
 1634 0c5b 8B45F4   		movl	-12(%ebp), %eax
 1635 0c5e 8D148500 		leal	0(,%eax,4), %edx
 1635      000000
 1636 0c65 8B450C   		movl	12(%ebp), %eax
 1637 0c68 8D0C02   		leal	(%edx,%eax), %ecx
 1638              		.loc 1 374 18 discriminator 3
 1639 0c6b 8B45E4   		movl	-28(%ebp), %eax
 1640 0c6e 8B55F4   		movl	-12(%ebp), %edx
 1641 0c71 8B0490   		movl	(%eax,%edx,4), %eax
 1642              		.loc 1 374 13 discriminator 3
 1643 0c74 8901     		movl	%eax, (%ecx)
 372:src/pdf417/PDFDetectionResultColumn.c **** 	{
 1644              		.loc 1 372 25 discriminator 3
 1645 0c76 8345F401 		addl	$1, -12(%ebp)
GAS LISTING C:\Users\jisu8\AppData\Local\Temp\cc5AG2CR.s 			page 40


 1646              	L93:
 372:src/pdf417/PDFDetectionResultColumn.c **** 	{
 1647              		.loc 1 372 2 discriminator 1
 1648 0c7a 8B45F4   		movl	-12(%ebp), %eax
 1649 0c7d 3B45EC   		cmpl	-20(%ebp), %eax
 1650 0c80 7CD9     		jl	L94
 1651              	LBE18:
 375:src/pdf417/PDFDetectionResultColumn.c **** 	}
 376:src/pdf417/PDFDetectionResultColumn.c **** 
 377:src/pdf417/PDFDetectionResultColumn.c **** 	*size = sizeRow;
 1652              		.loc 1 377 8
 1653 0c82 8B4514   		movl	20(%ebp), %eax
 1654 0c85 8B55EC   		movl	-20(%ebp), %edx
 1655 0c88 8910     		movl	%edx, (%eax)
 378:src/pdf417/PDFDetectionResultColumn.c **** 
 379:src/pdf417/PDFDetectionResultColumn.c **** 	return 1;
 1656              		.loc 1 379 9
 1657 0c8a B8010000 		movl	$1, %eax
 1657      00
 1658              	L88:
 1659 0c8f 89DC     		movl	%ebx, %esp
 380:src/pdf417/PDFDetectionResultColumn.c **** }
 1660              		.loc 1 380 1
 1661 0c91 8B5DFC   		movl	-4(%ebp), %ebx
 1662 0c94 C9       		leave
 1663              	LCFI32:
 1664              		.cfi_restore 5
 1665              		.cfi_restore 3
 1666              		.cfi_def_cfa 4, 4
 1667 0c95 C3       		ret
 1668              		.cfi_endproc
 1669              	LFE14:
 1670              		.globl	_setRowNumberAsRowIndicatorColumn
 1672              	_setRowNumberAsRowIndicatorColumn:
 1673              	LFB15:
 381:src/pdf417/PDFDetectionResultColumn.c **** 
 382:src/pdf417/PDFDetectionResultColumn.c **** void setRowNumberAsRowIndicatorColumn(Codeword_t * Codewords) 
 383:src/pdf417/PDFDetectionResultColumn.c **** {
 1674              		.loc 1 383 1
 1675              		.cfi_startproc
 1676 0c96 55       		pushl	%ebp
 1677              	LCFI33:
 1678              		.cfi_def_cfa_offset 8
 1679              		.cfi_offset 5, -8
 1680 0c97 89E5     		movl	%esp, %ebp
 1681              	LCFI34:
 1682              		.cfi_def_cfa_register 5
 1683 0c99 53       		pushl	%ebx
 1684              		.cfi_offset 3, -12
 384:src/pdf417/PDFDetectionResultColumn.c **** 	Codewords->m_value._rowNumber = (Codewords->m_value._value / 30) * 3 + Codewords->m_value._bucket 
 1685              		.loc 1 384 53
 1686 0c9a 8B4508   		movl	8(%ebp), %eax
 1687 0c9d 8B4810   		movl	16(%eax), %ecx
 1688              		.loc 1 384 61
 1689 0ca0 BA898888 		movl	$-2004318071, %edx
 1689      88
 1690 0ca5 89C8     		movl	%ecx, %eax
GAS LISTING C:\Users\jisu8\AppData\Local\Temp\cc5AG2CR.s 			page 41


 1691 0ca7 F7EA     		imull	%edx
 1692 0ca9 8D040A   		leal	(%edx,%ecx), %eax
 1693 0cac C1F804   		sarl	$4, %eax
 1694 0caf 89C2     		movl	%eax, %edx
 1695 0cb1 89C8     		movl	%ecx, %eax
 1696 0cb3 C1F81F   		sarl	$31, %eax
 1697 0cb6 29C2     		subl	%eax, %edx
 1698              		.loc 1 384 67
 1699 0cb8 89D0     		movl	%edx, %eax
 1700 0cba 01C0     		addl	%eax, %eax
 1701 0cbc 8D1C10   		leal	(%eax,%edx), %ebx
 1702              		.loc 1 384 91
 1703 0cbf 8B4508   		movl	8(%ebp), %eax
 1704 0cc2 8B480C   		movl	12(%eax), %ecx
 1705              		.loc 1 384 100
 1706 0cc5 BA565555 		movl	$1431655766, %edx
 1706      55
 1707 0cca 89C8     		movl	%ecx, %eax
 1708 0ccc F7EA     		imull	%edx
 1709 0cce 89C8     		movl	%ecx, %eax
 1710 0cd0 C1F81F   		sarl	$31, %eax
 1711 0cd3 29C2     		subl	%eax, %edx
 1712 0cd5 89D0     		movl	%edx, %eax
 1713              		.loc 1 384 71
 1714 0cd7 8D1403   		leal	(%ebx,%eax), %edx
 1715              		.loc 1 384 32
 1716 0cda 8B4508   		movl	8(%ebp), %eax
 1717 0cdd 895014   		movl	%edx, 20(%eax)
 385:src/pdf417/PDFDetectionResultColumn.c **** }
 1718              		.loc 1 385 1
 1719 0ce0 90       		nop
 1720 0ce1 5B       		popl	%ebx
 1721              		.cfi_restore 3
 1722 0ce2 5D       		popl	%ebp
 1723              	LCFI35:
 1724              		.cfi_restore 5
 1725              		.cfi_def_cfa 4, 4
 1726 0ce3 C3       		ret
 1727              		.cfi_endproc
 1728              	LFE15:
 1729              		.section .rdata,"dr"
 1730              		.align 4
 1731              	LC6:
 1732 00ec 44657465 		.ascii "DetectionResultColumn::getBarcodeMetadata : \0"
 1732      6374696F 
 1732      6E526573 
 1732      756C7443 
 1732      6F6C756D 
 1733 0119 000000   		.text
 1734              		.globl	_getBarcodeMetadata
 1736              	_getBarcodeMetadata:
 1737              	LFB16:
 386:src/pdf417/PDFDetectionResultColumn.c **** 
 387:src/pdf417/PDFDetectionResultColumn.c **** // This is example of bad design, a getter should not modify object's state
 388:src/pdf417/PDFDetectionResultColumn.c **** uint8_t getBarcodeMetadata(DetectionResultColumn_t * RowIndicatorColumn, BarcodeMetadata_t * result
 389:src/pdf417/PDFDetectionResultColumn.c **** {
 1738              		.loc 1 389 1
GAS LISTING C:\Users\jisu8\AppData\Local\Temp\cc5AG2CR.s 			page 42


 1739              		.cfi_startproc
 1740 0ce4 55       		pushl	%ebp
 1741              	LCFI36:
 1742              		.cfi_def_cfa_offset 8
 1743              		.cfi_offset 5, -8
 1744 0ce5 89E5     		movl	%esp, %ebp
 1745              	LCFI37:
 1746              		.cfi_def_cfa_register 5
 1747 0ce7 B8B83E00 		movl	$16056, %eax
 1747      00
 1748 0cec E8000000 		call	___chkstk_ms
 1748      00
 1749 0cf1 29C4     		subl	%eax, %esp
 390:src/pdf417/PDFDetectionResultColumn.c **** 	printf("DetectionResultColumn::getBarcodeMetadata : \n");
 1750              		.loc 1 390 2
 1751 0cf3 C70424EC 		movl	$LC6, (%esp)
 1751      000000
 1752 0cfa E8000000 		call	_puts
 1752      00
 391:src/pdf417/PDFDetectionResultColumn.c **** 
 392:src/pdf417/PDFDetectionResultColumn.c **** 	if (!isRowIndicator(RowIndicatorColumn))
 1753              		.loc 1 392 7
 1754 0cff 8B4508   		movl	8(%ebp), %eax
 1755 0d02 890424   		movl	%eax, (%esp)
 1756 0d05 E8E7F3FF 		call	_isRowIndicator
 1756      FF
 1757              		.loc 1 392 5
 1758 0d0a 84C0     		testb	%al, %al
 1759 0d0c 750A     		jne	L99
 393:src/pdf417/PDFDetectionResultColumn.c **** 	{
 394:src/pdf417/PDFDetectionResultColumn.c **** 		return 0;
 1760              		.loc 1 394 10
 1761 0d0e B8000000 		movl	$0, %eax
 1761      00
 1762 0d13 E9DE0200 		jmp	L112
 1762      00
 1763              	L99:
 395:src/pdf417/PDFDetectionResultColumn.c **** 	}
 396:src/pdf417/PDFDetectionResultColumn.c **** 
 397:src/pdf417/PDFDetectionResultColumn.c **** 	Codeword_t * codewords = allCodewords(RowIndicatorColumn);
 1764              		.loc 1 397 27
 1765 0d18 8B4508   		movl	8(%ebp), %eax
 1766 0d1b 890424   		movl	%eax, (%esp)
 1767 0d1e E8C3F3FF 		call	_allCodewords
 1767      FF
 1768 0d23 8945EC   		movl	%eax, -20(%ebp)
 1769              	LBB19:
 398:src/pdf417/PDFDetectionResultColumn.c **** 	BarcodeValue_t barcodeColumnCount;
 399:src/pdf417/PDFDetectionResultColumn.c **** 	BarcodeValue_t barcodeRowCountUpperPart;
 400:src/pdf417/PDFDetectionResultColumn.c **** 	BarcodeValue_t barcodeRowCountLowerPart;
 401:src/pdf417/PDFDetectionResultColumn.c **** 	BarcodeValue_t barcodeECLevel;
 402:src/pdf417/PDFDetectionResultColumn.c **** 	for (uint16_t i=0;i<length;i++)
 1770              		.loc 1 402 16
 1771 0d26 66C745F6 		movw	$0, -10(%ebp)
 1771      0000
 1772              		.loc 1 402 2
 1773 0d2c EB47     		jmp	L101
GAS LISTING C:\Users\jisu8\AppData\Local\Temp\cc5AG2CR.s 			page 43


 1774              	L102:
 403:src/pdf417/PDFDetectionResultColumn.c **** 	{
 404:src/pdf417/PDFDetectionResultColumn.c **** 		barcodeColumnCount._values[i] = 0;
 1775              		.loc 1 404 29 discriminator 3
 1776 0d2e 0FB745F6 		movzwl	-10(%ebp), %eax
 1777              		.loc 1 404 33 discriminator 3
 1778 0d32 C7848538 		movl	$0, -4040(%ebp,%eax,4)
 1778      F0FFFF00 
 1778      000000
 405:src/pdf417/PDFDetectionResultColumn.c **** 		barcodeRowCountUpperPart._values[i] = 0;
 1779              		.loc 1 405 35 discriminator 3
 1780 0d3d 0FB745F6 		movzwl	-10(%ebp), %eax
 1781              		.loc 1 405 39 discriminator 3
 1782 0d41 C7848598 		movl	$0, -8040(%ebp,%eax,4)
 1782      E0FFFF00 
 1782      000000
 406:src/pdf417/PDFDetectionResultColumn.c **** 		barcodeRowCountLowerPart._values[i] = 0;
 1783              		.loc 1 406 35 discriminator 3
 1784 0d4c 0FB745F6 		movzwl	-10(%ebp), %eax
 1785              		.loc 1 406 39 discriminator 3
 1786 0d50 C78485F8 		movl	$0, -12040(%ebp,%eax,4)
 1786      D0FFFF00 
 1786      000000
 407:src/pdf417/PDFDetectionResultColumn.c **** 		barcodeECLevel._values[i] = 0;
 1787              		.loc 1 407 25 discriminator 3
 1788 0d5b 0FB745F6 		movzwl	-10(%ebp), %eax
 1789              		.loc 1 407 29 discriminator 3
 1790 0d5f C7848558 		movl	$0, -16040(%ebp,%eax,4)
 1790      C1FFFF00 
 1790      000000
 402:src/pdf417/PDFDetectionResultColumn.c **** 	{
 1791              		.loc 1 402 30 discriminator 3
 1792 0d6a 0FB745F6 		movzwl	-10(%ebp), %eax
 1793 0d6e 83C001   		addl	$1, %eax
 1794 0d71 668945F6 		movw	%ax, -10(%ebp)
 1795              	L101:
 402:src/pdf417/PDFDetectionResultColumn.c **** 	{
 1796              		.loc 1 402 21 discriminator 1
 1797 0d75 0FB745F6 		movzwl	-10(%ebp), %eax
 402:src/pdf417/PDFDetectionResultColumn.c **** 	{
 1798              		.loc 1 402 2 discriminator 1
 1799 0d79 394510   		cmpl	%eax, 16(%ebp)
 1800 0d7c 7FB0     		jg	L102
 1801              	LBE19:
 1802              	LBB20:
 408:src/pdf417/PDFDetectionResultColumn.c **** 	}
 409:src/pdf417/PDFDetectionResultColumn.c **** 	for (uint16_t i=0;i<length;i++) 
 1803              		.loc 1 409 16
 1804 0d7e 66C745F4 		movw	$0, -12(%ebp)
 1804      0000
 1805              		.loc 1 409 2
 1806 0d84 E97E0100 		jmp	L103
 1806      00
 1807              	L109:
 1808              	LBB21:
 410:src/pdf417/PDFDetectionResultColumn.c **** 	{
 411:src/pdf417/PDFDetectionResultColumn.c **** 		if (codewords[i].m_hasValue == 0) 
GAS LISTING C:\Users\jisu8\AppData\Local\Temp\cc5AG2CR.s 			page 44


 1809              		.loc 1 411 16
 1810 0d89 0FB755F4 		movzwl	-12(%ebp), %edx
 1811 0d8d 89D0     		movl	%edx, %eax
 1812 0d8f 01C0     		addl	%eax, %eax
 1813 0d91 01D0     		addl	%edx, %eax
 1814 0d93 C1E003   		sall	$3, %eax
 1815 0d96 89C2     		movl	%eax, %edx
 1816 0d98 8B45EC   		movl	-20(%ebp), %eax
 1817 0d9b 01D0     		addl	%edx, %eax
 1818              		.loc 1 411 19
 1819 0d9d 0FB600   		movzbl	(%eax), %eax
 1820              		.loc 1 411 6
 1821 0da0 84C0     		testb	%al, %al
 1822 0da2 0F845301 		je	L113
 1822      0000
 412:src/pdf417/PDFDetectionResultColumn.c **** 		{
 413:src/pdf417/PDFDetectionResultColumn.c **** 			continue;
 414:src/pdf417/PDFDetectionResultColumn.c **** 		}
 415:src/pdf417/PDFDetectionResultColumn.c **** 
 416:src/pdf417/PDFDetectionResultColumn.c **** 		setRowNumberAsRowIndicatorColumn(codewords+i);
 1823              		.loc 1 416 45
 1824 0da8 0FB755F4 		movzwl	-12(%ebp), %edx
 1825 0dac 89D0     		movl	%edx, %eax
 1826 0dae 01C0     		addl	%eax, %eax
 1827 0db0 01D0     		addl	%edx, %eax
 1828 0db2 C1E003   		sall	$3, %eax
 1829 0db5 89C2     		movl	%eax, %edx
 1830              		.loc 1 416 3
 1831 0db7 8B45EC   		movl	-20(%ebp), %eax
 1832 0dba 01D0     		addl	%edx, %eax
 1833 0dbc 890424   		movl	%eax, (%esp)
 1834 0dbf E8D2FEFF 		call	_setRowNumberAsRowIndicatorColumn
 1834      FF
 417:src/pdf417/PDFDetectionResultColumn.c **** 		int rowIndicatorValue = codewords[i].m_value._value % 30;
 1835              		.loc 1 417 36
 1836 0dc4 0FB755F4 		movzwl	-12(%ebp), %edx
 1837 0dc8 89D0     		movl	%edx, %eax
 1838 0dca 01C0     		addl	%eax, %eax
 1839 0dcc 01D0     		addl	%edx, %eax
 1840 0dce C1E003   		sall	$3, %eax
 1841 0dd1 89C2     		movl	%eax, %edx
 1842 0dd3 8B45EC   		movl	-20(%ebp), %eax
 1843 0dd6 01D0     		addl	%edx, %eax
 1844              		.loc 1 417 47
 1845 0dd8 8B4810   		movl	16(%eax), %ecx
 1846              		.loc 1 417 7
 1847 0ddb BA898888 		movl	$-2004318071, %edx
 1847      88
 1848 0de0 89C8     		movl	%ecx, %eax
 1849 0de2 F7EA     		imull	%edx
 1850 0de4 8D040A   		leal	(%edx,%ecx), %eax
 1851 0de7 C1F804   		sarl	$4, %eax
 1852 0dea 89C2     		movl	%eax, %edx
 1853 0dec 89C8     		movl	%ecx, %eax
 1854 0dee C1F81F   		sarl	$31, %eax
 1855 0df1 29C2     		subl	%eax, %edx
 1856 0df3 89D0     		movl	%edx, %eax
GAS LISTING C:\Users\jisu8\AppData\Local\Temp\cc5AG2CR.s 			page 45


 1857 0df5 8945E8   		movl	%eax, -24(%ebp)
 1858 0df8 8B45E8   		movl	-24(%ebp), %eax
 1859 0dfb 6BC01E   		imull	$30, %eax, %eax
 1860 0dfe 29C1     		subl	%eax, %ecx
 1861 0e00 89C8     		movl	%ecx, %eax
 1862 0e02 8945E8   		movl	%eax, -24(%ebp)
 418:src/pdf417/PDFDetectionResultColumn.c **** 		int codewordRowNumber = codewords[i].m_value._rowNumber;
 1863              		.loc 1 418 36
 1864 0e05 0FB755F4 		movzwl	-12(%ebp), %edx
 1865 0e09 89D0     		movl	%edx, %eax
 1866 0e0b 01C0     		addl	%eax, %eax
 1867 0e0d 01D0     		addl	%edx, %eax
 1868 0e0f C1E003   		sall	$3, %eax
 1869 0e12 89C2     		movl	%eax, %edx
 1870 0e14 8B45EC   		movl	-20(%ebp), %eax
 1871 0e17 01D0     		addl	%edx, %eax
 1872              		.loc 1 418 7
 1873 0e19 8B4014   		movl	20(%eax), %eax
 1874 0e1c 8945F0   		movl	%eax, -16(%ebp)
 419:src/pdf417/PDFDetectionResultColumn.c **** 		if (!isLeftRowIndicator(RowIndicatorColumn)) 
 1875              		.loc 1 419 8
 1876 0e1f 8B4508   		movl	8(%ebp), %eax
 1877 0e22 890424   		movl	%eax, (%esp)
 1878 0e25 E8DAF2FF 		call	_isLeftRowIndicator
 1878      FF
 1879              		.loc 1 419 6
 1880 0e2a 84C0     		testb	%al, %al
 1881 0e2c 7504     		jne	L106
 420:src/pdf417/PDFDetectionResultColumn.c **** 		{
 421:src/pdf417/PDFDetectionResultColumn.c **** 			codewordRowNumber += 2;
 1882              		.loc 1 421 22
 1883 0e2e 8345F002 		addl	$2, -16(%ebp)
 1884              	L106:
 422:src/pdf417/PDFDetectionResultColumn.c **** 		}
 423:src/pdf417/PDFDetectionResultColumn.c **** 		switch (codewordRowNumber % 3) 
 1885              		.loc 1 423 29
 1886 0e32 8B4DF0   		movl	-16(%ebp), %ecx
 1887 0e35 BA565555 		movl	$1431655766, %edx
 1887      55
 1888 0e3a 89C8     		movl	%ecx, %eax
 1889 0e3c F7EA     		imull	%edx
 1890 0e3e 89C8     		movl	%ecx, %eax
 1891 0e40 C1F81F   		sarl	$31, %eax
 1892 0e43 29C2     		subl	%eax, %edx
 1893 0e45 89D0     		movl	%edx, %eax
 1894 0e47 89C2     		movl	%eax, %edx
 1895 0e49 01D2     		addl	%edx, %edx
 1896 0e4b 01C2     		addl	%eax, %edx
 1897 0e4d 89C8     		movl	%ecx, %eax
 1898 0e4f 29D0     		subl	%edx, %eax
 1899 0e51 83F801   		cmpl	$1, %eax
 1900 0e54 7431     		je	L107
 1901 0e56 83F802   		cmpl	$2, %eax
 1902 0e59 0F848200 		je	L108
 1902      0000
 1903 0e5f 85C0     		testl	%eax, %eax
 1904 0e61 0F859500 		jne	L105
GAS LISTING C:\Users\jisu8\AppData\Local\Temp\cc5AG2CR.s 			page 46


 1904      0000
 424:src/pdf417/PDFDetectionResultColumn.c **** 		{
 425:src/pdf417/PDFDetectionResultColumn.c **** 			case 0:
 426:src/pdf417/PDFDetectionResultColumn.c **** 			BarcodeSetValue(&barcodeRowCountUpperPart,rowIndicatorValue * 3 + 1);
 1905              		.loc 1 426 64
 1906 0e67 8B55E8   		movl	-24(%ebp), %edx
 1907 0e6a 89D0     		movl	%edx, %eax
 1908 0e6c 01C0     		addl	%eax, %eax
 1909 0e6e 01D0     		addl	%edx, %eax
 1910              		.loc 1 426 4
 1911 0e70 83C001   		addl	$1, %eax
 1912 0e73 89442404 		movl	%eax, 4(%esp)
 1913 0e77 8D8598E0 		leal	-8040(%ebp), %eax
 1913      FFFF
 1914 0e7d 890424   		movl	%eax, (%esp)
 1915 0e80 E8000000 		call	_BarcodeSetValue
 1915      00
 427:src/pdf417/PDFDetectionResultColumn.c **** 			break;
 1916              		.loc 1 427 4
 1917 0e85 EB75     		jmp	L105
 1918              	L107:
 428:src/pdf417/PDFDetectionResultColumn.c **** 			case 1:
 429:src/pdf417/PDFDetectionResultColumn.c **** 			BarcodeSetValue(&barcodeECLevel,rowIndicatorValue / 3);
 1919              		.loc 1 429 4
 1920 0e87 8B4DE8   		movl	-24(%ebp), %ecx
 1921 0e8a BA565555 		movl	$1431655766, %edx
 1921      55
 1922 0e8f 89C8     		movl	%ecx, %eax
 1923 0e91 F7EA     		imull	%edx
 1924 0e93 89C8     		movl	%ecx, %eax
 1925 0e95 C1F81F   		sarl	$31, %eax
 1926 0e98 29C2     		subl	%eax, %edx
 1927 0e9a 89D0     		movl	%edx, %eax
 1928 0e9c 89442404 		movl	%eax, 4(%esp)
 1929 0ea0 8D8558C1 		leal	-16040(%ebp), %eax
 1929      FFFF
 1930 0ea6 890424   		movl	%eax, (%esp)
 1931 0ea9 E8000000 		call	_BarcodeSetValue
 1931      00
 430:src/pdf417/PDFDetectionResultColumn.c **** 			BarcodeSetValue(&barcodeRowCountLowerPart,rowIndicatorValue % 3);
 1932              		.loc 1 430 4
 1933 0eae 8B4DE8   		movl	-24(%ebp), %ecx
 1934 0eb1 BA565555 		movl	$1431655766, %edx
 1934      55
 1935 0eb6 89C8     		movl	%ecx, %eax
 1936 0eb8 F7EA     		imull	%edx
 1937 0eba 89C8     		movl	%ecx, %eax
 1938 0ebc C1F81F   		sarl	$31, %eax
 1939 0ebf 29C2     		subl	%eax, %edx
 1940 0ec1 89D0     		movl	%edx, %eax
 1941 0ec3 89C2     		movl	%eax, %edx
 1942 0ec5 01D2     		addl	%edx, %edx
 1943 0ec7 01C2     		addl	%eax, %edx
 1944 0ec9 89C8     		movl	%ecx, %eax
 1945 0ecb 29D0     		subl	%edx, %eax
 1946 0ecd 89442404 		movl	%eax, 4(%esp)
 1947 0ed1 8D85F8D0 		leal	-12040(%ebp), %eax
GAS LISTING C:\Users\jisu8\AppData\Local\Temp\cc5AG2CR.s 			page 47


 1947      FFFF
 1948 0ed7 890424   		movl	%eax, (%esp)
 1949 0eda E8000000 		call	_BarcodeSetValue
 1949      00
 431:src/pdf417/PDFDetectionResultColumn.c **** 			break;
 1950              		.loc 1 431 4
 1951 0edf EB1B     		jmp	L105
 1952              	L108:
 432:src/pdf417/PDFDetectionResultColumn.c **** 			case 2:
 433:src/pdf417/PDFDetectionResultColumn.c **** 			BarcodeSetValue(&barcodeColumnCount,rowIndicatorValue + 1);
 1953              		.loc 1 433 4
 1954 0ee1 8B45E8   		movl	-24(%ebp), %eax
 1955 0ee4 83C001   		addl	$1, %eax
 1956 0ee7 89442404 		movl	%eax, 4(%esp)
 1957 0eeb 8D8538F0 		leal	-4040(%ebp), %eax
 1957      FFFF
 1958 0ef1 890424   		movl	%eax, (%esp)
 1959 0ef4 E8000000 		call	_BarcodeSetValue
 1959      00
 434:src/pdf417/PDFDetectionResultColumn.c **** 			break;
 1960              		.loc 1 434 4
 1961 0ef9 EB01     		jmp	L105
 1962              	L113:
 413:src/pdf417/PDFDetectionResultColumn.c **** 		}
 1963              		.loc 1 413 4
 1964 0efb 90       		nop
 1965              	L105:
 1966              	LBE21:
 409:src/pdf417/PDFDetectionResultColumn.c **** 	{
 1967              		.loc 1 409 30 discriminator 2
 1968 0efc 0FB745F4 		movzwl	-12(%ebp), %eax
 1969 0f00 83C001   		addl	$1, %eax
 1970 0f03 668945F4 		movw	%ax, -12(%ebp)
 1971              	L103:
 409:src/pdf417/PDFDetectionResultColumn.c **** 	{
 1972              		.loc 1 409 21 discriminator 1
 1973 0f07 0FB745F4 		movzwl	-12(%ebp), %eax
 409:src/pdf417/PDFDetectionResultColumn.c **** 	{
 1974              		.loc 1 409 2 discriminator 1
 1975 0f0b 394510   		cmpl	%eax, 16(%ebp)
 1976 0f0e 0F8F75FE 		jg	L109
 1976      FFFF
 1977              	LBE20:
 435:src/pdf417/PDFDetectionResultColumn.c **** 		}
 436:src/pdf417/PDFDetectionResultColumn.c **** 	}
 437:src/pdf417/PDFDetectionResultColumn.c **** 	// Maybe we should check if we have ambiguous values?
 438:src/pdf417/PDFDetectionResultColumn.c **** 	int cc = BarcodeValue(&barcodeColumnCount,length);
 1978              		.loc 1 438 11
 1979 0f14 8B4510   		movl	16(%ebp), %eax
 1980 0f17 89442404 		movl	%eax, 4(%esp)
 1981 0f1b 8D8538F0 		leal	-4040(%ebp), %eax
 1981      FFFF
 1982 0f21 890424   		movl	%eax, (%esp)
 1983 0f24 E8000000 		call	_BarcodeValue
 1983      00
 1984 0f29 8945E4   		movl	%eax, -28(%ebp)
 439:src/pdf417/PDFDetectionResultColumn.c **** 	int rcu = BarcodeValue(&barcodeRowCountUpperPart,length);
GAS LISTING C:\Users\jisu8\AppData\Local\Temp\cc5AG2CR.s 			page 48


 1985              		.loc 1 439 12
 1986 0f2c 8B4510   		movl	16(%ebp), %eax
 1987 0f2f 89442404 		movl	%eax, 4(%esp)
 1988 0f33 8D8598E0 		leal	-8040(%ebp), %eax
 1988      FFFF
 1989 0f39 890424   		movl	%eax, (%esp)
 1990 0f3c E8000000 		call	_BarcodeValue
 1990      00
 1991 0f41 8945E0   		movl	%eax, -32(%ebp)
 440:src/pdf417/PDFDetectionResultColumn.c **** 	int rcl = BarcodeValue(&barcodeRowCountLowerPart,length);
 1992              		.loc 1 440 12
 1993 0f44 8B4510   		movl	16(%ebp), %eax
 1994 0f47 89442404 		movl	%eax, 4(%esp)
 1995 0f4b 8D85F8D0 		leal	-12040(%ebp), %eax
 1995      FFFF
 1996 0f51 890424   		movl	%eax, (%esp)
 1997 0f54 E8000000 		call	_BarcodeValue
 1997      00
 1998 0f59 8945DC   		movl	%eax, -36(%ebp)
 441:src/pdf417/PDFDetectionResultColumn.c **** 	int ec = BarcodeValue(&barcodeECLevel,length);
 1999              		.loc 1 441 11
 2000 0f5c 8B4510   		movl	16(%ebp), %eax
 2001 0f5f 89442404 		movl	%eax, 4(%esp)
 2002 0f63 8D8558C1 		leal	-16040(%ebp), %eax
 2002      FFFF
 2003 0f69 890424   		movl	%eax, (%esp)
 2004 0f6c E8000000 		call	_BarcodeValue
 2004      00
 2005 0f71 8945D8   		movl	%eax, -40(%ebp)
 442:src/pdf417/PDFDetectionResultColumn.c **** 
 443:src/pdf417/PDFDetectionResultColumn.c **** 	if (cc < 1 || rcu + rcl < MIN_ROWS_IN_BARCODE || rcu + rcl > MAX_ROWS_IN_BARCODE) 
 2006              		.loc 1 443 5
 2007 0f74 837DE400 		cmpl	$0, -28(%ebp)
 2008 0f78 7E22     		jle	L110
 2009              		.loc 1 443 20 discriminator 1
 2010 0f7a 8B55E0   		movl	-32(%ebp), %edx
 2011 0f7d 8B45DC   		movl	-36(%ebp), %eax
 2012 0f80 01D0     		addl	%edx, %eax
 2013              		.loc 1 443 26 discriminator 1
 2014 0f82 BA030000 		movl	$3, %edx
 2014      00
 2015              		.loc 1 443 13 discriminator 1
 2016 0f87 39D0     		cmpl	%edx, %eax
 2017 0f89 7C11     		jl	L110
 2018              		.loc 1 443 55 discriminator 2
 2019 0f8b 8B55E0   		movl	-32(%ebp), %edx
 2020 0f8e 8B45DC   		movl	-36(%ebp), %eax
 2021 0f91 01D0     		addl	%edx, %eax
 2022              		.loc 1 443 61 discriminator 2
 2023 0f93 BA5A0000 		movl	$90, %edx
 2023      00
 2024              		.loc 1 443 48 discriminator 2
 2025 0f98 39D0     		cmpl	%edx, %eax
 2026 0f9a 7E07     		jle	L111
 2027              	L110:
 444:src/pdf417/PDFDetectionResultColumn.c **** 	{
 445:src/pdf417/PDFDetectionResultColumn.c **** 		return 0;
GAS LISTING C:\Users\jisu8\AppData\Local\Temp\cc5AG2CR.s 			page 49


 2028              		.loc 1 445 10
 2029 0f9c B8000000 		movl	$0, %eax
 2029      00
 2030 0fa1 EB53     		jmp	L112
 2031              	L111:
 446:src/pdf417/PDFDetectionResultColumn.c **** 	}
 447:src/pdf417/PDFDetectionResultColumn.c **** 
 448:src/pdf417/PDFDetectionResultColumn.c **** 	result->_columnCount = cc;
 2032              		.loc 1 448 23
 2033 0fa3 8B450C   		movl	12(%ebp), %eax
 2034 0fa6 8B55E4   		movl	-28(%ebp), %edx
 2035 0fa9 8910     		movl	%edx, (%eax)
 449:src/pdf417/PDFDetectionResultColumn.c **** 	result->_errorCorrectionLevel = ec;
 2036              		.loc 1 449 32
 2037 0fab 8B450C   		movl	12(%ebp), %eax
 2038 0fae 8B55D8   		movl	-40(%ebp), %edx
 2039 0fb1 895004   		movl	%edx, 4(%eax)
 450:src/pdf417/PDFDetectionResultColumn.c **** 	result->_rowCountUpperPart = rcu;
 2040              		.loc 1 450 29
 2041 0fb4 8B450C   		movl	12(%ebp), %eax
 2042 0fb7 8B55E0   		movl	-32(%ebp), %edx
 2043 0fba 895008   		movl	%edx, 8(%eax)
 451:src/pdf417/PDFDetectionResultColumn.c **** 	result->_rowCountLowerPart = rcl;
 2044              		.loc 1 451 29
 2045 0fbd 8B450C   		movl	12(%ebp), %eax
 2046 0fc0 8B55DC   		movl	-36(%ebp), %edx
 2047 0fc3 89500C   		movl	%edx, 12(%eax)
 452:src/pdf417/PDFDetectionResultColumn.c **** 	
 453:src/pdf417/PDFDetectionResultColumn.c **** 	RemoveIncorrectCodewords(isLeftRowIndicator(RowIndicatorColumn), codewords, result,length);
 2048              		.loc 1 453 27
 2049 0fc6 8B4508   		movl	8(%ebp), %eax
 2050 0fc9 890424   		movl	%eax, (%esp)
 2051 0fcc E833F1FF 		call	_isLeftRowIndicator
 2051      FF
 2052              		.loc 1 453 2
 2053 0fd1 0FB6C0   		movzbl	%al, %eax
 2054 0fd4 8B5510   		movl	16(%ebp), %edx
 2055 0fd7 8954240C 		movl	%edx, 12(%esp)
 2056 0fdb 8B550C   		movl	12(%ebp), %edx
 2057 0fde 89542408 		movl	%edx, 8(%esp)
 2058 0fe2 8B55EC   		movl	-20(%ebp), %edx
 2059 0fe5 89542404 		movl	%edx, 4(%esp)
 2060 0fe9 890424   		movl	%eax, (%esp)
 2061 0fec E85FF3FF 		call	_RemoveIncorrectCodewords
 2061      FF
 454:src/pdf417/PDFDetectionResultColumn.c **** 
 455:src/pdf417/PDFDetectionResultColumn.c **** 	return 1;
 2062              		.loc 1 455 9
 2063 0ff1 B8010000 		movl	$1, %eax
 2063      00
 2064              	L112:
 456:src/pdf417/PDFDetectionResultColumn.c **** }
 2065              		.loc 1 456 1 discriminator 1
 2066 0ff6 C9       		leave
 2067              	LCFI38:
 2068              		.cfi_restore 5
 2069              		.cfi_def_cfa 4, 4
GAS LISTING C:\Users\jisu8\AppData\Local\Temp\cc5AG2CR.s 			page 50


 2070 0ff7 C3       		ret
 2071              		.cfi_endproc
 2072              	LFE16:
 2073              	Letext0:
 2074              		.file 2 "src/pdf417/PDFBarcodeMetadata.h"
 2075              		.file 3 "src/pdf417/PDFBarcodeValue.h"
 2076              		.file 4 "D:/3.tools/mingw/mingw32/i686-w64-mingw32/include/crtdefs.h"
 2077              		.file 5 "D:/3.tools/mingw/mingw32/i686-w64-mingw32/include/stdint.h"
 2078              		.file 6 "src/ResultPoint.h"
 2079              		.file 7 "src/pdf417/PDFBoundingBox.h"
 2080              		.file 8 "src/pdf417/PDFCodeword.h"
 2081              		.file 9 "src/pdf417/PDFDetectionResultColumn.h"
 2082              		.file 10 "src/pdf417/PDFScanningDecoder.h"
 2083              		.file 11 "D:/3.tools/mingw/mingw32/i686-w64-mingw32/include/stdlib.h"
 2084              		.file 12 "D:/3.tools/mingw/mingw32/i686-w64-mingw32/include/malloc.h"
 2085              		.file 13 "<built-in>"
 2086              		.section	.debug_info,"dr"
 2087              	Ldebug_info0:
 2088 0000 72120000 		.long	0x1272
 2089 0004 0200     		.word	0x2
 2090 0006 00000000 		.secrel32	Ldebug_abbrev0
 2091 000a 04       		.byte	0x4
 2092 000b 01       		.uleb128 0x1
 2093 000c 474E5520 		.ascii "GNU C17 8.1.0 -mtune=generic -march=i686 -g -gdwarf-2 -O0\0"
 2093      43313720 
 2093      382E312E 
 2093      30202D6D 
 2093      74756E65 
 2094 0046 0C       		.byte	0xc
 2095 0047 7372632F 		.ascii "src/pdf417/PDFDetectionResultColumn.c\0"
 2095      70646634 
 2095      31372F50 
 2095      44464465 
 2095      74656374 
 2096 006d 443A5C31 		.ascii "D:\\1.Project_workspace\\PDF_BARCODE\0"
 2096      2E50726F 
 2096      6A656374 
 2096      5F776F72 
 2096      6B737061 
 2097 0090 00000000 		.long	Ltext0
 2098 0094 F80F0000 		.long	Letext0
 2099 0098 00000000 		.secrel32	Ldebug_line0
 2100 009c 02       		.uleb128 0x2
 2101 009d 10       		.byte	0x10
 2102 009e 02       		.byte	0x2
 2103 009f 07       		.byte	0x7
 2104 00a0 09       		.byte	0x9
 2105 00a1 1B010000 		.long	0x11b
 2106 00a5 03       		.uleb128 0x3
 2107 00a6 5F636F6C 		.ascii "_columnCount\0"
 2107      756D6E43 
 2107      6F756E74 
 2107      00
 2108 00b3 02       		.byte	0x2
 2109 00b4 09       		.byte	0x9
 2110 00b5 06       		.byte	0x6
 2111 00b6 1B010000 		.long	0x11b
GAS LISTING C:\Users\jisu8\AppData\Local\Temp\cc5AG2CR.s 			page 51


 2112 00ba 02       		.byte	0x2
 2113 00bb 23       		.byte	0x23
 2114 00bc 00       		.uleb128 0
 2115 00bd 03       		.uleb128 0x3
 2116 00be 5F657272 		.ascii "_errorCorrectionLevel\0"
 2116      6F72436F 
 2116      72726563 
 2116      74696F6E 
 2116      4C657665 
 2117 00d4 02       		.byte	0x2
 2118 00d5 0A       		.byte	0xa
 2119 00d6 06       		.byte	0x6
 2120 00d7 1B010000 		.long	0x11b
 2121 00db 02       		.byte	0x2
 2122 00dc 23       		.byte	0x23
 2123 00dd 04       		.uleb128 0x4
 2124 00de 03       		.uleb128 0x3
 2125 00df 5F726F77 		.ascii "_rowCountUpperPart\0"
 2125      436F756E 
 2125      74557070 
 2125      65725061 
 2125      727400
 2126 00f2 02       		.byte	0x2
 2127 00f3 0B       		.byte	0xb
 2128 00f4 06       		.byte	0x6
 2129 00f5 1B010000 		.long	0x11b
 2130 00f9 02       		.byte	0x2
 2131 00fa 23       		.byte	0x23
 2132 00fb 08       		.uleb128 0x8
 2133 00fc 03       		.uleb128 0x3
 2134 00fd 5F726F77 		.ascii "_rowCountLowerPart\0"
 2134      436F756E 
 2134      744C6F77 
 2134      65725061 
 2134      727400
 2135 0110 02       		.byte	0x2
 2136 0111 0C       		.byte	0xc
 2137 0112 06       		.byte	0x6
 2138 0113 1B010000 		.long	0x11b
 2139 0117 02       		.byte	0x2
 2140 0118 23       		.byte	0x23
 2141 0119 0C       		.uleb128 0xc
 2142 011a 00       		.byte	0
 2143 011b 04       		.uleb128 0x4
 2144 011c 04       		.byte	0x4
 2145 011d 05       		.byte	0x5
 2146 011e 696E7400 		.ascii "int\0"
 2147 0122 05       		.uleb128 0x5
 2148 0123 1B010000 		.long	0x11b
 2149 0127 06       		.uleb128 0x6
 2150 0128 42617263 		.ascii "BarcodeMetadata_t\0"
 2150      6F64654D 
 2150      65746164 
 2150      6174615F 
 2150      7400
 2151 013a 02       		.byte	0x2
 2152 013b 0D       		.byte	0xd
GAS LISTING C:\Users\jisu8\AppData\Local\Temp\cc5AG2CR.s 			page 52


 2153 013c 02       		.byte	0x2
 2154 013d 9C000000 		.long	0x9c
 2155 0141 05       		.uleb128 0x5
 2156 0142 27010000 		.long	0x127
 2157 0146 07       		.uleb128 0x7
 2158 0147 A00F     		.word	0xfa0
 2159 0149 03       		.byte	0x3
 2160 014a 04       		.byte	0x4
 2161 014b 09       		.byte	0x9
 2162 014c 64010000 		.long	0x164
 2163 0150 03       		.uleb128 0x3
 2164 0151 5F76616C 		.ascii "_values\0"
 2164      75657300 
 2165 0159 03       		.byte	0x3
 2166 015a 06       		.byte	0x6
 2167 015b 06       		.byte	0x6
 2168 015c 64010000 		.long	0x164
 2169 0160 02       		.byte	0x2
 2170 0161 23       		.byte	0x23
 2171 0162 00       		.uleb128 0
 2172 0163 00       		.byte	0
 2173 0164 08       		.uleb128 0x8
 2174 0165 1B010000 		.long	0x11b
 2175 0169 75010000 		.long	0x175
 2176 016d 09       		.uleb128 0x9
 2177 016e 75010000 		.long	0x175
 2178 0172 E703     		.word	0x3e7
 2179 0174 00       		.byte	0
 2180 0175 04       		.uleb128 0x4
 2181 0176 04       		.byte	0x4
 2182 0177 07       		.byte	0x7
 2183 0178 756E7369 		.ascii "unsigned int\0"
 2183      676E6564 
 2183      20696E74 
 2183      00
 2184 0185 06       		.uleb128 0x6
 2185 0186 42617263 		.ascii "BarcodeValue_t\0"
 2185      6F646556 
 2185      616C7565 
 2185      5F7400
 2186 0195 03       		.byte	0x3
 2187 0196 07       		.byte	0x7
 2188 0197 02       		.byte	0x2
 2189 0198 46010000 		.long	0x146
 2190 019c 0A       		.uleb128 0xa
 2191 019d 04       		.byte	0x4
 2192 019e A2010000 		.long	0x1a2
 2193 01a2 04       		.uleb128 0x4
 2194 01a3 01       		.byte	0x1
 2195 01a4 06       		.byte	0x6
 2196 01a5 63686172 		.ascii "char\0"
 2196      00
 2197 01aa 05       		.uleb128 0x5
 2198 01ab A2010000 		.long	0x1a2
 2199 01af 06       		.uleb128 0x6
 2200 01b0 77636861 		.ascii "wchar_t\0"
 2200      725F7400 
GAS LISTING C:\Users\jisu8\AppData\Local\Temp\cc5AG2CR.s 			page 53


 2201 01b8 04       		.byte	0x4
 2202 01b9 62       		.byte	0x62
 2203 01ba 18       		.byte	0x18
 2204 01bb BF010000 		.long	0x1bf
 2205 01bf 04       		.uleb128 0x4
 2206 01c0 02       		.byte	0x2
 2207 01c1 07       		.byte	0x7
 2208 01c2 73686F72 		.ascii "short unsigned int\0"
 2208      7420756E 
 2208      7369676E 
 2208      65642069 
 2208      6E7400
 2209 01d5 04       		.uleb128 0x4
 2210 01d6 04       		.byte	0x4
 2211 01d7 05       		.byte	0x5
 2212 01d8 6C6F6E67 		.ascii "long int\0"
 2212      20696E74 
 2212      00
 2213 01e1 04       		.uleb128 0x4
 2214 01e2 08       		.byte	0x8
 2215 01e3 05       		.byte	0x5
 2216 01e4 6C6F6E67 		.ascii "long long int\0"
 2216      206C6F6E 
 2216      6720696E 
 2216      7400
 2217 01f2 0A       		.uleb128 0xa
 2218 01f3 04       		.byte	0x4
 2219 01f4 AF010000 		.long	0x1af
 2220 01f8 0A       		.uleb128 0xa
 2221 01f9 04       		.byte	0x4
 2222 01fa 1B010000 		.long	0x11b
 2223 01fe 04       		.uleb128 0x4
 2224 01ff 04       		.byte	0x4
 2225 0200 07       		.byte	0x7
 2226 0201 6C6F6E67 		.ascii "long unsigned int\0"
 2226      20756E73 
 2226      69676E65 
 2226      6420696E 
 2226      7400
 2227 0213 04       		.uleb128 0x4
 2228 0214 01       		.byte	0x1
 2229 0215 08       		.byte	0x8
 2230 0216 756E7369 		.ascii "unsigned char\0"
 2230      676E6564 
 2230      20636861 
 2230      7200
 2231 0224 04       		.uleb128 0x4
 2232 0225 0C       		.byte	0xc
 2233 0226 04       		.byte	0x4
 2234 0227 6C6F6E67 		.ascii "long double\0"
 2234      20646F75 
 2234      626C6500 
 2235 0233 04       		.uleb128 0x4
 2236 0234 10       		.byte	0x10
 2237 0235 04       		.byte	0x4
 2238 0236 5F466C6F 		.ascii "_Float128\0"
 2238      61743132 
GAS LISTING C:\Users\jisu8\AppData\Local\Temp\cc5AG2CR.s 			page 54


 2238      3800
 2239 0240 04       		.uleb128 0x4
 2240 0241 01       		.byte	0x1
 2241 0242 06       		.byte	0x6
 2242 0243 7369676E 		.ascii "signed char\0"
 2242      65642063 
 2242      68617200 
 2243 024f 06       		.uleb128 0x6
 2244 0250 75696E74 		.ascii "uint8_t\0"
 2244      385F7400 
 2245 0258 05       		.byte	0x5
 2246 0259 24       		.byte	0x24
 2247 025a 19       		.byte	0x19
 2248 025b 13020000 		.long	0x213
 2249 025f 04       		.uleb128 0x4
 2250 0260 02       		.byte	0x2
 2251 0261 05       		.byte	0x5
 2252 0262 73686F72 		.ascii "short int\0"
 2252      7420696E 
 2252      7400
 2253 026c 06       		.uleb128 0x6
 2254 026d 75696E74 		.ascii "uint16_t\0"
 2254      31365F74 
 2254      00
 2255 0276 05       		.byte	0x5
 2256 0277 26       		.byte	0x26
 2257 0278 19       		.byte	0x19
 2258 0279 BF010000 		.long	0x1bf
 2259 027d 06       		.uleb128 0x6
 2260 027e 75696E74 		.ascii "uint64_t\0"
 2260      36345F74 
 2260      00
 2261 0287 05       		.byte	0x5
 2262 0288 2A       		.byte	0x2a
 2263 0289 30       		.byte	0x30
 2264 028a 8E020000 		.long	0x28e
 2265 028e 04       		.uleb128 0x4
 2266 028f 08       		.byte	0x8
 2267 0290 07       		.byte	0x7
 2268 0291 6C6F6E67 		.ascii "long long unsigned int\0"
 2268      206C6F6E 
 2268      6720756E 
 2268      7369676E 
 2268      65642069 
 2269 02a8 02       		.uleb128 0x2
 2270 02a9 08       		.byte	0x8
 2271 02aa 06       		.byte	0x6
 2272 02ab 14       		.byte	0x14
 2273 02ac 09       		.byte	0x9
 2274 02ad CC020000 		.long	0x2cc
 2275 02b1 03       		.uleb128 0x3
 2276 02b2 7800     		.ascii "x\0"
 2277 02b4 06       		.byte	0x6
 2278 02b5 16       		.byte	0x16
 2279 02b6 08       		.byte	0x8
 2280 02b7 CC020000 		.long	0x2cc
 2281 02bb 02       		.byte	0x2
GAS LISTING C:\Users\jisu8\AppData\Local\Temp\cc5AG2CR.s 			page 55


 2282 02bc 23       		.byte	0x23
 2283 02bd 00       		.uleb128 0
 2284 02be 03       		.uleb128 0x3
 2285 02bf 7900     		.ascii "y\0"
 2286 02c1 06       		.byte	0x6
 2287 02c2 17       		.byte	0x17
 2288 02c3 08       		.byte	0x8
 2289 02c4 CC020000 		.long	0x2cc
 2290 02c8 02       		.byte	0x2
 2291 02c9 23       		.byte	0x23
 2292 02ca 04       		.uleb128 0x4
 2293 02cb 00       		.byte	0
 2294 02cc 04       		.uleb128 0x4
 2295 02cd 04       		.byte	0x4
 2296 02ce 04       		.byte	0x4
 2297 02cf 666C6F61 		.ascii "float\0"
 2297      7400
 2298 02d5 06       		.uleb128 0x6
 2299 02d6 506F696E 		.ascii "PointT_t\0"
 2299      74545F74 
 2299      00
 2300 02df 06       		.byte	0x6
 2301 02e0 18       		.byte	0x18
 2302 02e1 02       		.byte	0x2
 2303 02e2 A8020000 		.long	0x2a8
 2304 02e6 02       		.uleb128 0x2
 2305 02e7 0C       		.byte	0xc
 2306 02e8 06       		.byte	0x6
 2307 02e9 1A       		.byte	0x1a
 2308 02ea 09       		.byte	0x9
 2309 02eb 0E030000 		.long	0x30e
 2310 02ef 0B       		.uleb128 0xb
 2311 02f0 41000000 		.secrel32	LASF0
 2312 02f4 06       		.byte	0x6
 2313 02f5 1C       		.byte	0x1c
 2314 02f6 0A       		.byte	0xa
 2315 02f7 4F020000 		.long	0x24f
 2316 02fb 02       		.byte	0x2
 2317 02fc 23       		.byte	0x23
 2318 02fd 00       		.uleb128 0
 2319 02fe 0B       		.uleb128 0xb
 2320 02ff EB000000 		.secrel32	LASF1
 2321 0303 06       		.byte	0x6
 2322 0304 1D       		.byte	0x1d
 2323 0305 0B       		.byte	0xb
 2324 0306 D5020000 		.long	0x2d5
 2325 030a 02       		.byte	0x2
 2326 030b 23       		.byte	0x23
 2327 030c 04       		.uleb128 0x4
 2328 030d 00       		.byte	0
 2329 030e 06       		.uleb128 0x6
 2330 030f 52657375 		.ascii "ResultPoint_t\0"
 2330      6C74506F 
 2330      696E745F 
 2330      7400
 2331 031d 06       		.byte	0x6
 2332 031e 1E       		.byte	0x1e
GAS LISTING C:\Users\jisu8\AppData\Local\Temp\cc5AG2CR.s 			page 56


 2333 031f 02       		.byte	0x2
 2334 0320 E6020000 		.long	0x2e6
 2335 0324 02       		.uleb128 0x2
 2336 0325 48       		.byte	0x48
 2337 0326 07       		.byte	0x7
 2338 0327 06       		.byte	0x6
 2339 0328 09       		.byte	0x9
 2340 0329 F5030000 		.long	0x3f5
 2341 032d 03       		.uleb128 0x3
 2342 032e 5F696D67 		.ascii "_imgWidth\0"
 2342      57696474 
 2342      6800
 2343 0338 07       		.byte	0x7
 2344 0339 08       		.byte	0x8
 2345 033a 06       		.byte	0x6
 2346 033b 1B010000 		.long	0x11b
 2347 033f 02       		.byte	0x2
 2348 0340 23       		.byte	0x23
 2349 0341 00       		.uleb128 0
 2350 0342 03       		.uleb128 0x3
 2351 0343 5F696D67 		.ascii "_imgHeight\0"
 2351      48656967 
 2351      687400
 2352 034e 07       		.byte	0x7
 2353 034f 09       		.byte	0x9
 2354 0350 06       		.byte	0x6
 2355 0351 1B010000 		.long	0x11b
 2356 0355 02       		.byte	0x2
 2357 0356 23       		.byte	0x23
 2358 0357 04       		.uleb128 0x4
 2359 0358 03       		.uleb128 0x3
 2360 0359 5F746F70 		.ascii "_topLeft\0"
 2360      4C656674 
 2360      00
 2361 0362 07       		.byte	0x7
 2362 0363 0A       		.byte	0xa
 2363 0364 10       		.byte	0x10
 2364 0365 0E030000 		.long	0x30e
 2365 0369 02       		.byte	0x2
 2366 036a 23       		.byte	0x23
 2367 036b 08       		.uleb128 0x8
 2368 036c 03       		.uleb128 0x3
 2369 036d 5F626F74 		.ascii "_bottomLeft\0"
 2369      746F6D4C 
 2369      65667400 
 2370 0379 07       		.byte	0x7
 2371 037a 0B       		.byte	0xb
 2372 037b 10       		.byte	0x10
 2373 037c 0E030000 		.long	0x30e
 2374 0380 02       		.byte	0x2
 2375 0381 23       		.byte	0x23
 2376 0382 14       		.uleb128 0x14
 2377 0383 03       		.uleb128 0x3
 2378 0384 5F746F70 		.ascii "_topRight\0"
 2378      52696768 
 2378      7400
 2379 038e 07       		.byte	0x7
GAS LISTING C:\Users\jisu8\AppData\Local\Temp\cc5AG2CR.s 			page 57


 2380 038f 0C       		.byte	0xc
 2381 0390 10       		.byte	0x10
 2382 0391 0E030000 		.long	0x30e
 2383 0395 02       		.byte	0x2
 2384 0396 23       		.byte	0x23
 2385 0397 20       		.uleb128 0x20
 2386 0398 03       		.uleb128 0x3
 2387 0399 5F626F74 		.ascii "_bottomRight\0"
 2387      746F6D52 
 2387      69676874 
 2387      00
 2388 03a6 07       		.byte	0x7
 2389 03a7 0D       		.byte	0xd
 2390 03a8 10       		.byte	0x10
 2391 03a9 0E030000 		.long	0x30e
 2392 03ad 02       		.byte	0x2
 2393 03ae 23       		.byte	0x23
 2394 03af 2C       		.uleb128 0x2c
 2395 03b0 03       		.uleb128 0x3
 2396 03b1 5F6D696E 		.ascii "_minX\0"
 2396      5800
 2397 03b7 07       		.byte	0x7
 2398 03b8 0E       		.byte	0xe
 2399 03b9 06       		.byte	0x6
 2400 03ba 1B010000 		.long	0x11b
 2401 03be 02       		.byte	0x2
 2402 03bf 23       		.byte	0x23
 2403 03c0 38       		.uleb128 0x38
 2404 03c1 03       		.uleb128 0x3
 2405 03c2 5F6D6178 		.ascii "_maxX\0"
 2405      5800
 2406 03c8 07       		.byte	0x7
 2407 03c9 0F       		.byte	0xf
 2408 03ca 06       		.byte	0x6
 2409 03cb 1B010000 		.long	0x11b
 2410 03cf 02       		.byte	0x2
 2411 03d0 23       		.byte	0x23
 2412 03d1 3C       		.uleb128 0x3c
 2413 03d2 03       		.uleb128 0x3
 2414 03d3 5F6D696E 		.ascii "_minY\0"
 2414      5900
 2415 03d9 07       		.byte	0x7
 2416 03da 10       		.byte	0x10
 2417 03db 06       		.byte	0x6
 2418 03dc 1B010000 		.long	0x11b
 2419 03e0 02       		.byte	0x2
 2420 03e1 23       		.byte	0x23
 2421 03e2 40       		.uleb128 0x40
 2422 03e3 03       		.uleb128 0x3
 2423 03e4 5F6D6178 		.ascii "_maxY\0"
 2423      5900
 2424 03ea 07       		.byte	0x7
 2425 03eb 11       		.byte	0x11
 2426 03ec 06       		.byte	0x6
 2427 03ed 1B010000 		.long	0x11b
 2428 03f1 02       		.byte	0x2
 2429 03f2 23       		.byte	0x23
GAS LISTING C:\Users\jisu8\AppData\Local\Temp\cc5AG2CR.s 			page 58


 2430 03f3 44       		.uleb128 0x44
 2431 03f4 00       		.byte	0
 2432 03f5 06       		.uleb128 0x6
 2433 03f6 426F756E 		.ascii "BoundingBox_val_t\0"
 2433      64696E67 
 2433      426F785F 
 2433      76616C5F 
 2433      7400
 2434 0408 07       		.byte	0x7
 2435 0409 12       		.byte	0x12
 2436 040a 02       		.byte	0x2
 2437 040b 24030000 		.long	0x324
 2438 040f 02       		.uleb128 0x2
 2439 0410 4C       		.byte	0x4c
 2440 0411 07       		.byte	0x7
 2441 0412 14       		.byte	0x14
 2442 0413 09       		.byte	0x9
 2443 0414 37040000 		.long	0x437
 2444 0418 0B       		.uleb128 0xb
 2445 0419 41000000 		.secrel32	LASF0
 2446 041d 07       		.byte	0x7
 2447 041e 16       		.byte	0x16
 2448 041f 0A       		.byte	0xa
 2449 0420 4F020000 		.long	0x24f
 2450 0424 02       		.byte	0x2
 2451 0425 23       		.byte	0x23
 2452 0426 00       		.uleb128 0
 2453 0427 0B       		.uleb128 0xb
 2454 0428 EB000000 		.secrel32	LASF1
 2455 042c 07       		.byte	0x7
 2456 042d 17       		.byte	0x17
 2457 042e 14       		.byte	0x14
 2458 042f F5030000 		.long	0x3f5
 2459 0433 02       		.byte	0x2
 2460 0434 23       		.byte	0x23
 2461 0435 04       		.uleb128 0x4
 2462 0436 00       		.byte	0
 2463 0437 06       		.uleb128 0x6
 2464 0438 426F756E 		.ascii "BoundingBox_t\0"
 2464      64696E67 
 2464      426F785F 
 2464      7400
 2465 0446 07       		.byte	0x7
 2466 0447 18       		.byte	0x18
 2467 0448 02       		.byte	0x2
 2468 0449 0F040000 		.long	0x40f
 2469 044d 05       		.uleb128 0x5
 2470 044e 37040000 		.long	0x437
 2471 0452 02       		.uleb128 0x2
 2472 0453 14       		.byte	0x14
 2473 0454 08       		.byte	0x8
 2474 0455 04       		.byte	0x4
 2475 0456 09       		.byte	0x9
 2476 0457 BB040000 		.long	0x4bb
 2477 045b 03       		.uleb128 0x3
 2478 045c 5F737461 		.ascii "_startX\0"
 2478      72745800 
GAS LISTING C:\Users\jisu8\AppData\Local\Temp\cc5AG2CR.s 			page 59


 2479 0464 08       		.byte	0x8
 2480 0465 06       		.byte	0x6
 2481 0466 06       		.byte	0x6
 2482 0467 1B010000 		.long	0x11b
 2483 046b 02       		.byte	0x2
 2484 046c 23       		.byte	0x23
 2485 046d 00       		.uleb128 0
 2486 046e 03       		.uleb128 0x3
 2487 046f 5F656E64 		.ascii "_endX\0"
 2487      5800
 2488 0475 08       		.byte	0x8
 2489 0476 07       		.byte	0x7
 2490 0477 06       		.byte	0x6
 2491 0478 1B010000 		.long	0x11b
 2492 047c 02       		.byte	0x2
 2493 047d 23       		.byte	0x23
 2494 047e 04       		.uleb128 0x4
 2495 047f 03       		.uleb128 0x3
 2496 0480 5F627563 		.ascii "_bucket\0"
 2496      6B657400 
 2497 0488 08       		.byte	0x8
 2498 0489 08       		.byte	0x8
 2499 048a 06       		.byte	0x6
 2500 048b 1B010000 		.long	0x11b
 2501 048f 02       		.byte	0x2
 2502 0490 23       		.byte	0x23
 2503 0491 08       		.uleb128 0x8
 2504 0492 03       		.uleb128 0x3
 2505 0493 5F76616C 		.ascii "_value\0"
 2505      756500
 2506 049a 08       		.byte	0x8
 2507 049b 09       		.byte	0x9
 2508 049c 06       		.byte	0x6
 2509 049d 1B010000 		.long	0x11b
 2510 04a1 02       		.byte	0x2
 2511 04a2 23       		.byte	0x23
 2512 04a3 0C       		.uleb128 0xc
 2513 04a4 03       		.uleb128 0x3
 2514 04a5 5F726F77 		.ascii "_rowNumber\0"
 2514      4E756D62 
 2514      657200
 2515 04b0 08       		.byte	0x8
 2516 04b1 0A       		.byte	0xa
 2517 04b2 06       		.byte	0x6
 2518 04b3 1B010000 		.long	0x11b
 2519 04b7 02       		.byte	0x2
 2520 04b8 23       		.byte	0x23
 2521 04b9 10       		.uleb128 0x10
 2522 04ba 00       		.byte	0
 2523 04bb 06       		.uleb128 0x6
 2524 04bc 436F6465 		.ascii "Codeword_val_t\0"
 2524      776F7264 
 2524      5F76616C 
 2524      5F7400
 2525 04cb 08       		.byte	0x8
 2526 04cc 0B       		.byte	0xb
 2527 04cd 02       		.byte	0x2
GAS LISTING C:\Users\jisu8\AppData\Local\Temp\cc5AG2CR.s 			page 60


 2528 04ce 52040000 		.long	0x452
 2529 04d2 02       		.uleb128 0x2
 2530 04d3 18       		.byte	0x18
 2531 04d4 08       		.byte	0x8
 2532 04d5 0C       		.byte	0xc
 2533 04d6 09       		.byte	0x9
 2534 04d7 FA040000 		.long	0x4fa
 2535 04db 0B       		.uleb128 0xb
 2536 04dc 41000000 		.secrel32	LASF0
 2537 04e0 08       		.byte	0x8
 2538 04e1 0E       		.byte	0xe
 2539 04e2 0A       		.byte	0xa
 2540 04e3 4F020000 		.long	0x24f
 2541 04e7 02       		.byte	0x2
 2542 04e8 23       		.byte	0x23
 2543 04e9 00       		.uleb128 0
 2544 04ea 0B       		.uleb128 0xb
 2545 04eb EB000000 		.secrel32	LASF1
 2546 04ef 08       		.byte	0x8
 2547 04f0 0F       		.byte	0xf
 2548 04f1 11       		.byte	0x11
 2549 04f2 BB040000 		.long	0x4bb
 2550 04f6 02       		.byte	0x2
 2551 04f7 23       		.byte	0x23
 2552 04f8 04       		.uleb128 0x4
 2553 04f9 00       		.byte	0
 2554 04fa 06       		.uleb128 0x6
 2555 04fb 436F6465 		.ascii "Codeword_t\0"
 2555      776F7264 
 2555      5F7400
 2556 0506 08       		.byte	0x8
 2557 0507 10       		.byte	0x10
 2558 0508 02       		.byte	0x2
 2559 0509 D2040000 		.long	0x4d2
 2560 050d 0C       		.uleb128 0xc
 2561 050e 07       		.byte	0x7
 2562 050f 04       		.byte	0x4
 2563 0510 75010000 		.long	0x175
 2564 0514 09       		.byte	0x9
 2565 0515 09       		.byte	0x9
 2566 0516 01       		.byte	0x1
 2567 0517 32050000 		.long	0x532
 2568 051b 0D       		.uleb128 0xd
 2569 051c 4E6F6E65 		.ascii "None\0"
 2569      00
 2570 0521 00       		.byte	0
 2571 0522 0D       		.uleb128 0xd
 2572 0523 4C656674 		.ascii "Left\0"
 2572      00
 2573 0528 01       		.byte	0x1
 2574 0529 0D       		.uleb128 0xd
 2575 052a 52696768 		.ascii "Right\0"
 2575      7400
 2576 0530 02       		.byte	0x2
 2577 0531 00       		.byte	0
 2578 0532 06       		.uleb128 0x6
 2579 0533 526F7749 		.ascii "RowIndicator_t\0"
GAS LISTING C:\Users\jisu8\AppData\Local\Temp\cc5AG2CR.s 			page 61


 2579      6E646963 
 2579      61746F72 
 2579      5F7400
 2580 0542 09       		.byte	0x9
 2581 0543 0D       		.byte	0xd
 2582 0544 02       		.byte	0x2
 2583 0545 0D050000 		.long	0x50d
 2584 0549 07       		.uleb128 0x7
 2585 054a 302F     		.word	0x2f30
 2586 054c 09       		.byte	0x9
 2587 054d 0F       		.byte	0xf
 2588 054e 09       		.byte	0x9
 2589 054f 9C050000 		.long	0x59c
 2590 0553 03       		.uleb128 0x3
 2591 0554 5F626F75 		.ascii "_boundingBox\0"
 2591      6E64696E 
 2591      67426F78 
 2591      00
 2592 0561 09       		.byte	0x9
 2593 0562 11       		.byte	0x11
 2594 0563 10       		.byte	0x10
 2595 0564 37040000 		.long	0x437
 2596 0568 02       		.byte	0x2
 2597 0569 23       		.byte	0x23
 2598 056a 00       		.uleb128 0
 2599 056b 03       		.uleb128 0x3
 2600 056c 5F636F64 		.ascii "_codewords\0"
 2600      65776F72 
 2600      647300
 2601 0577 09       		.byte	0x9
 2602 0578 12       		.byte	0x12
 2603 0579 0D       		.byte	0xd
 2604 057a 9C050000 		.long	0x59c
 2605 057e 02       		.byte	0x2
 2606 057f 23       		.byte	0x23
 2607 0580 4C       		.uleb128 0x4c
 2608 0581 03       		.uleb128 0x3
 2609 0582 5F726F77 		.ascii "_rowIndicator\0"
 2609      496E6469 
 2609      6361746F 
 2609      7200
 2610 0590 09       		.byte	0x9
 2611 0591 13       		.byte	0x13
 2612 0592 11       		.byte	0x11
 2613 0593 32050000 		.long	0x532
 2614 0597 03       		.byte	0x3
 2615 0598 23       		.byte	0x23
 2616 0599 AC5E     		.uleb128 0x2f2c
 2617 059b 00       		.byte	0
 2618 059c 08       		.uleb128 0x8
 2619 059d FA040000 		.long	0x4fa
 2620 05a1 AD050000 		.long	0x5ad
 2621 05a5 09       		.uleb128 0x9
 2622 05a6 75010000 		.long	0x175
 2623 05aa F301     		.word	0x1f3
 2624 05ac 00       		.byte	0
 2625 05ad 06       		.uleb128 0x6
GAS LISTING C:\Users\jisu8\AppData\Local\Temp\cc5AG2CR.s 			page 62


 2626 05ae 44657465 		.ascii "DetectionResultColumn_val_t\0"
 2626      6374696F 
 2626      6E526573 
 2626      756C7443 
 2626      6F6C756D 
 2627 05ca 09       		.byte	0x9
 2628 05cb 14       		.byte	0x14
 2629 05cc 02       		.byte	0x2
 2630 05cd 49050000 		.long	0x549
 2631 05d1 07       		.uleb128 0x7
 2632 05d2 342F     		.word	0x2f34
 2633 05d4 09       		.byte	0x9
 2634 05d5 15       		.byte	0x15
 2635 05d6 09       		.byte	0x9
 2636 05d7 FA050000 		.long	0x5fa
 2637 05db 0B       		.uleb128 0xb
 2638 05dc 41000000 		.secrel32	LASF0
 2639 05e0 09       		.byte	0x9
 2640 05e1 17       		.byte	0x17
 2641 05e2 0A       		.byte	0xa
 2642 05e3 4F020000 		.long	0x24f
 2643 05e7 02       		.byte	0x2
 2644 05e8 23       		.byte	0x23
 2645 05e9 00       		.uleb128 0
 2646 05ea 0B       		.uleb128 0xb
 2647 05eb EB000000 		.secrel32	LASF1
 2648 05ef 09       		.byte	0x9
 2649 05f0 18       		.byte	0x18
 2650 05f1 1E       		.byte	0x1e
 2651 05f2 AD050000 		.long	0x5ad
 2652 05f6 02       		.byte	0x2
 2653 05f7 23       		.byte	0x23
 2654 05f8 04       		.uleb128 0x4
 2655 05f9 00       		.byte	0
 2656 05fa 06       		.uleb128 0x6
 2657 05fb 44657465 		.ascii "DetectionResultColumn_t\0"
 2657      6374696F 
 2657      6E526573 
 2657      756C7443 
 2657      6F6C756D 
 2658 0613 09       		.byte	0x9
 2659 0614 19       		.byte	0x19
 2660 0615 02       		.byte	0x2
 2661 0616 D1050000 		.long	0x5d1
 2662 061a 0E       		.uleb128 0xe
 2663 061b 42415243 		.ascii "BARCODE_ROW_UNKNOWN\0"
 2663      4F44455F 
 2663      524F575F 
 2663      554E4B4E 
 2663      4F574E00 
 2664 062f 0A       		.byte	0xa
 2665 0630 09       		.byte	0x9
 2666 0631 12       		.byte	0x12
 2667 0632 22010000 		.long	0x122
 2668 0636 01       		.byte	0x1
 2669 0637 01       		.byte	0x1
 2670 0638 0F       		.uleb128 0xf
GAS LISTING C:\Users\jisu8\AppData\Local\Temp\cc5AG2CR.s 			page 63


 2671 0639 D8000000 		.secrel32	LASF2
 2672 063d 0A       		.byte	0xa
 2673 063e 0F       		.byte	0xf
 2674 063f 20       		.byte	0x20
 2675 0640 FA050000 		.long	0x5fa
 2676 0644 01       		.byte	0x1
 2677 0645 01       		.byte	0x1
 2678 0646 04       		.uleb128 0x4
 2679 0647 08       		.byte	0x8
 2680 0648 04       		.byte	0x4
 2681 0649 646F7562 		.ascii "double\0"
 2681      6C6500
 2682 0650 0E       		.uleb128 0xe
 2683 0651 5F696D70 		.ascii "_imp____mb_cur_max\0"
 2683      5F5F5F5F 
 2683      6D625F63 
 2683      75725F6D 
 2683      617800
 2684 0664 0B       		.byte	0xb
 2685 0665 73       		.byte	0x73
 2686 0666 10       		.byte	0x10
 2687 0667 F8010000 		.long	0x1f8
 2688 066b 01       		.byte	0x1
 2689 066c 01       		.byte	0x1
 2690 066d 08       		.uleb128 0x8
 2691 066e 9C010000 		.long	0x19c
 2692 0672 7D060000 		.long	0x67d
 2693 0676 10       		.uleb128 0x10
 2694 0677 75010000 		.long	0x175
 2695 067b 00       		.byte	0
 2696 067c 00       		.byte	0
 2697 067d 0E       		.uleb128 0xe
 2698 067e 5F737973 		.ascii "_sys_errlist\0"
 2698      5F657272 
 2698      6C697374 
 2698      00
 2699 068b 0B       		.byte	0xb
 2700 068c AC       		.byte	0xac
 2701 068d 26       		.byte	0x26
 2702 068e 6D060000 		.long	0x66d
 2703 0692 01       		.byte	0x1
 2704 0693 01       		.byte	0x1
 2705 0694 0E       		.uleb128 0xe
 2706 0695 5F737973 		.ascii "_sys_nerr\0"
 2706      5F6E6572 
 2706      7200
 2707 069f 0B       		.byte	0xb
 2708 06a0 AD       		.byte	0xad
 2709 06a1 24       		.byte	0x24
 2710 06a2 1B010000 		.long	0x11b
 2711 06a6 01       		.byte	0x1
 2712 06a7 01       		.byte	0x1
 2713 06a8 11       		.uleb128 0x11
 2714 06a9 5F696D70 		.ascii "_imp____argc\0"
 2714      5F5F5F5F 
 2714      61726763 
 2714      00
GAS LISTING C:\Users\jisu8\AppData\Local\Temp\cc5AG2CR.s 			page 64


 2715 06b6 0B       		.byte	0xb
 2716 06b7 1901     		.word	0x119
 2717 06b9 10       		.byte	0x10
 2718 06ba F8010000 		.long	0x1f8
 2719 06be 01       		.byte	0x1
 2720 06bf 01       		.byte	0x1
 2721 06c0 11       		.uleb128 0x11
 2722 06c1 5F696D70 		.ascii "_imp____argv\0"
 2722      5F5F5F5F 
 2722      61726776 
 2722      00
 2723 06ce 0B       		.byte	0xb
 2724 06cf 1D01     		.word	0x11d
 2725 06d1 13       		.byte	0x13
 2726 06d2 D8060000 		.long	0x6d8
 2727 06d6 01       		.byte	0x1
 2728 06d7 01       		.byte	0x1
 2729 06d8 0A       		.uleb128 0xa
 2730 06d9 04       		.byte	0x4
 2731 06da DE060000 		.long	0x6de
 2732 06de 0A       		.uleb128 0xa
 2733 06df 04       		.byte	0x4
 2734 06e0 9C010000 		.long	0x19c
 2735 06e4 11       		.uleb128 0x11
 2736 06e5 5F696D70 		.ascii "_imp____wargv\0"
 2736      5F5F5F5F 
 2736      77617267 
 2736      7600
 2737 06f3 0B       		.byte	0xb
 2738 06f4 2101     		.word	0x121
 2739 06f6 16       		.byte	0x16
 2740 06f7 FD060000 		.long	0x6fd
 2741 06fb 01       		.byte	0x1
 2742 06fc 01       		.byte	0x1
 2743 06fd 0A       		.uleb128 0xa
 2744 06fe 04       		.byte	0x4
 2745 06ff 03070000 		.long	0x703
 2746 0703 0A       		.uleb128 0xa
 2747 0704 04       		.byte	0x4
 2748 0705 F2010000 		.long	0x1f2
 2749 0709 11       		.uleb128 0x11
 2750 070a 5F696D70 		.ascii "_imp___environ\0"
 2750      5F5F5F65 
 2750      6E766972 
 2750      6F6E00
 2751 0719 0B       		.byte	0xb
 2752 071a 2701     		.word	0x127
 2753 071c 13       		.byte	0x13
 2754 071d D8060000 		.long	0x6d8
 2755 0721 01       		.byte	0x1
 2756 0722 01       		.byte	0x1
 2757 0723 11       		.uleb128 0x11
 2758 0724 5F696D70 		.ascii "_imp___wenviron\0"
 2758      5F5F5F77 
 2758      656E7669 
 2758      726F6E00 
 2759 0734 0B       		.byte	0xb
GAS LISTING C:\Users\jisu8\AppData\Local\Temp\cc5AG2CR.s 			page 65


 2760 0735 2C01     		.word	0x12c
 2761 0737 16       		.byte	0x16
 2762 0738 FD060000 		.long	0x6fd
 2763 073c 01       		.byte	0x1
 2764 073d 01       		.byte	0x1
 2765 073e 11       		.uleb128 0x11
 2766 073f 5F696D70 		.ascii "_imp___pgmptr\0"
 2766      5F5F5F70 
 2766      676D7074 
 2766      7200
 2767 074d 0B       		.byte	0xb
 2768 074e 3201     		.word	0x132
 2769 0750 12       		.byte	0x12
 2770 0751 DE060000 		.long	0x6de
 2771 0755 01       		.byte	0x1
 2772 0756 01       		.byte	0x1
 2773 0757 11       		.uleb128 0x11
 2774 0758 5F696D70 		.ascii "_imp___wpgmptr\0"
 2774      5F5F5F77 
 2774      70676D70 
 2774      747200
 2775 0767 0B       		.byte	0xb
 2776 0768 3701     		.word	0x137
 2777 076a 15       		.byte	0x15
 2778 076b 03070000 		.long	0x703
 2779 076f 01       		.byte	0x1
 2780 0770 01       		.byte	0x1
 2781 0771 11       		.uleb128 0x11
 2782 0772 5F696D70 		.ascii "_imp___osplatform\0"
 2782      5F5F5F6F 
 2782      73706C61 
 2782      74666F72 
 2782      6D00
 2783 0784 0B       		.byte	0xb
 2784 0785 3C01     		.word	0x13c
 2785 0787 19       		.byte	0x19
 2786 0788 8E070000 		.long	0x78e
 2787 078c 01       		.byte	0x1
 2788 078d 01       		.byte	0x1
 2789 078e 0A       		.uleb128 0xa
 2790 078f 04       		.byte	0x4
 2791 0790 75010000 		.long	0x175
 2792 0794 11       		.uleb128 0x11
 2793 0795 5F696D70 		.ascii "_imp___osver\0"
 2793      5F5F5F6F 
 2793      73766572 
 2793      00
 2794 07a2 0B       		.byte	0xb
 2795 07a3 4101     		.word	0x141
 2796 07a5 19       		.byte	0x19
 2797 07a6 8E070000 		.long	0x78e
 2798 07aa 01       		.byte	0x1
 2799 07ab 01       		.byte	0x1
 2800 07ac 11       		.uleb128 0x11
 2801 07ad 5F696D70 		.ascii "_imp___winver\0"
 2801      5F5F5F77 
 2801      696E7665 
GAS LISTING C:\Users\jisu8\AppData\Local\Temp\cc5AG2CR.s 			page 66


 2801      7200
 2802 07bb 0B       		.byte	0xb
 2803 07bc 4601     		.word	0x146
 2804 07be 19       		.byte	0x19
 2805 07bf 8E070000 		.long	0x78e
 2806 07c3 01       		.byte	0x1
 2807 07c4 01       		.byte	0x1
 2808 07c5 11       		.uleb128 0x11
 2809 07c6 5F696D70 		.ascii "_imp___winmajor\0"
 2809      5F5F5F77 
 2809      696E6D61 
 2809      6A6F7200 
 2810 07d6 0B       		.byte	0xb
 2811 07d7 4B01     		.word	0x14b
 2812 07d9 19       		.byte	0x19
 2813 07da 8E070000 		.long	0x78e
 2814 07de 01       		.byte	0x1
 2815 07df 01       		.byte	0x1
 2816 07e0 11       		.uleb128 0x11
 2817 07e1 5F696D70 		.ascii "_imp___winminor\0"
 2817      5F5F5F77 
 2817      696E6D69 
 2817      6E6F7200 
 2818 07f1 0B       		.byte	0xb
 2819 07f2 5001     		.word	0x150
 2820 07f4 19       		.byte	0x19
 2821 07f5 8E070000 		.long	0x78e
 2822 07f9 01       		.byte	0x1
 2823 07fa 01       		.byte	0x1
 2824 07fb 0E       		.uleb128 0xe
 2825 07fc 5F616D62 		.ascii "_amblksiz\0"
 2825      6C6B7369 
 2825      7A00
 2826 0806 0C       		.byte	0xc
 2827 0807 35       		.byte	0x35
 2828 0808 17       		.byte	0x17
 2829 0809 75010000 		.long	0x175
 2830 080d 01       		.byte	0x1
 2831 080e 01       		.byte	0x1
 2832 080f 12       		.uleb128 0x12
 2833 0810 4D41585F 		.ascii "MAX_NEARBY_DISTANCE\0"
 2833      4E454152 
 2833      42595F44 
 2833      49535441 
 2833      4E434500 
 2834 0824 01       		.byte	0x1
 2835 0825 17       		.byte	0x17
 2836 0826 12       		.byte	0x12
 2837 0827 22010000 		.long	0x122
 2838 082b 05       		.byte	0x5
 2839 082c 03       		.byte	0x3
 2840 082d 00000000 		.long	_MAX_NEARBY_DISTANCE
 2841 0831 12       		.uleb128 0x12
 2842 0832 4D494E5F 		.ascii "MIN_ROWS_IN_BARCODE\0"
 2842      524F5753 
 2842      5F494E5F 
 2842      42415243 
GAS LISTING C:\Users\jisu8\AppData\Local\Temp\cc5AG2CR.s 			page 67


 2842      4F444500 
 2843 0846 01       		.byte	0x1
 2844 0847 18       		.byte	0x18
 2845 0848 12       		.byte	0x12
 2846 0849 22010000 		.long	0x122
 2847 084d 05       		.byte	0x5
 2848 084e 03       		.byte	0x3
 2849 084f 04000000 		.long	_MIN_ROWS_IN_BARCODE
 2850 0853 12       		.uleb128 0x12
 2851 0854 4D41585F 		.ascii "MAX_ROWS_IN_BARCODE\0"
 2851      524F5753 
 2851      5F494E5F 
 2851      42415243 
 2851      4F444500 
 2852 0868 01       		.byte	0x1
 2853 0869 19       		.byte	0x19
 2854 086a 12       		.byte	0x12
 2855 086b 22010000 		.long	0x122
 2856 086f 05       		.byte	0x5
 2857 0870 03       		.byte	0x3
 2858 0871 08000000 		.long	_MAX_ROWS_IN_BARCODE
 2859 0875 13       		.uleb128 0x13
 2860 0876 81000000 		.secrel32	LASF3
 2861 087a 01       		.byte	0x1
 2862 087b 1B       		.byte	0x1b
 2863 087c 05       		.byte	0x5
 2864 087d 64010000 		.long	0x164
 2865 0881 01       		.byte	0x1
 2866 0882 05       		.byte	0x5
 2867 0883 03       		.byte	0x3
 2868 0884 00000000 		.long	_codewords
 2869 0888 14       		.uleb128 0x14
 2870 0889 01       		.byte	0x1
 2871 088a 67657442 		.ascii "getBarcodeMetadata\0"
 2871      6172636F 
 2871      64654D65 
 2871      74616461 
 2871      746100
 2872 089d 01       		.byte	0x1
 2873 089e 8401     		.word	0x184
 2874 08a0 09       		.byte	0x9
 2875 08a1 01       		.byte	0x1
 2876 08a2 4F020000 		.long	0x24f
 2877 08a6 E40C0000 		.long	LFB16
 2878 08aa F80F0000 		.long	LFE16
 2879 08ae 00000000 		.secrel32	LLST12
 2880 08b2 01       		.byte	0x1
 2881 08b3 3A0A0000 		.long	0xa3a
 2882 08b7 15       		.uleb128 0x15
 2883 08b8 C5000000 		.secrel32	LASF4
 2884 08bc 01       		.byte	0x1
 2885 08bd 8401     		.word	0x184
 2886 08bf 36       		.byte	0x36
 2887 08c0 3A0A0000 		.long	0xa3a
 2888 08c4 02       		.byte	0x2
 2889 08c5 91       		.byte	0x91
 2890 08c6 00       		.sleb128 0
GAS LISTING C:\Users\jisu8\AppData\Local\Temp\cc5AG2CR.s 			page 68


 2891 08c7 16       		.uleb128 0x16
 2892 08c8 72657375 		.ascii "result\0"
 2892      6C7400
 2893 08cf 01       		.byte	0x1
 2894 08d0 8401     		.word	0x184
 2895 08d2 5E       		.byte	0x5e
 2896 08d3 400A0000 		.long	0xa40
 2897 08d7 02       		.byte	0x2
 2898 08d8 91       		.byte	0x91
 2899 08d9 04       		.sleb128 4
 2900 08da 15       		.uleb128 0x15
 2901 08db 7A000000 		.secrel32	LASF5
 2902 08df 01       		.byte	0x1
 2903 08e0 8401     		.word	0x184
 2904 08e2 69       		.byte	0x69
 2905 08e3 1B010000 		.long	0x11b
 2906 08e7 02       		.byte	0x2
 2907 08e8 91       		.byte	0x91
 2908 08e9 08       		.sleb128 8
 2909 08ea 17       		.uleb128 0x17
 2910 08eb 01       		.byte	0x1
 2911 08ec 9D000000 		.secrel32	LASF8
 2912 08f0 0D       		.byte	0xd
 2913 08f1 00       		.byte	0
 2914 08f2 01       		.byte	0x1
 2915 08f3 1B010000 		.long	0x11b
 2916 08f7 01       		.byte	0x1
 2917 08f8 03090000 		.long	0x903
 2918 08fc 18       		.uleb128 0x18
 2919 08fd 460A0000 		.long	0xa46
 2920 0901 19       		.uleb128 0x19
 2921 0902 00       		.byte	0
 2922 0903 1A       		.uleb128 0x1a
 2923 0904 81000000 		.secrel32	LASF3
 2924 0908 01       		.byte	0x1
 2925 0909 8D01     		.word	0x18d
 2926 090b 0F       		.byte	0xf
 2927 090c 4C0A0000 		.long	0xa4c
 2928 0910 02       		.byte	0x2
 2929 0911 91       		.byte	0x91
 2930 0912 64       		.sleb128 -28
 2931 0913 1B       		.uleb128 0x1b
 2932 0914 62617263 		.ascii "barcodeColumnCount\0"
 2932      6F646543 
 2932      6F6C756D 
 2932      6E436F75 
 2932      6E7400
 2933 0927 01       		.byte	0x1
 2934 0928 8E01     		.word	0x18e
 2935 092a 11       		.byte	0x11
 2936 092b 85010000 		.long	0x185
 2937 092f 03       		.byte	0x3
 2938 0930 91       		.byte	0x91
 2939 0931 B060     		.sleb128 -4048
 2940 0933 1B       		.uleb128 0x1b
 2941 0934 62617263 		.ascii "barcodeRowCountUpperPart\0"
 2941      6F646552 
GAS LISTING C:\Users\jisu8\AppData\Local\Temp\cc5AG2CR.s 			page 69


 2941      6F77436F 
 2941      756E7455 
 2941      70706572 
 2942 094d 01       		.byte	0x1
 2943 094e 8F01     		.word	0x18f
 2944 0950 11       		.byte	0x11
 2945 0951 85010000 		.long	0x185
 2946 0955 03       		.byte	0x3
 2947 0956 91       		.byte	0x91
 2948 0957 9041     		.sleb128 -8048
 2949 0959 1B       		.uleb128 0x1b
 2950 095a 62617263 		.ascii "barcodeRowCountLowerPart\0"
 2950      6F646552 
 2950      6F77436F 
 2950      756E744C 
 2950      6F776572 
 2951 0973 01       		.byte	0x1
 2952 0974 9001     		.word	0x190
 2953 0976 11       		.byte	0x11
 2954 0977 85010000 		.long	0x185
 2955 097b 04       		.byte	0x4
 2956 097c 91       		.byte	0x91
 2957 097d F0A17F   		.sleb128 -12048
 2958 0980 1B       		.uleb128 0x1b
 2959 0981 62617263 		.ascii "barcodeECLevel\0"
 2959      6F646545 
 2959      434C6576 
 2959      656C00
 2960 0990 01       		.byte	0x1
 2961 0991 9101     		.word	0x191
 2962 0993 11       		.byte	0x11
 2963 0994 85010000 		.long	0x185
 2964 0998 04       		.byte	0x4
 2965 0999 91       		.byte	0x91
 2966 099a D0827F   		.sleb128 -16048
 2967 099d 1B       		.uleb128 0x1b
 2968 099e 636300   		.ascii "cc\0"
 2969 09a1 01       		.byte	0x1
 2970 09a2 B601     		.word	0x1b6
 2971 09a4 06       		.byte	0x6
 2972 09a5 1B010000 		.long	0x11b
 2973 09a9 02       		.byte	0x2
 2974 09aa 91       		.byte	0x91
 2975 09ab 5C       		.sleb128 -36
 2976 09ac 1B       		.uleb128 0x1b
 2977 09ad 72637500 		.ascii "rcu\0"
 2978 09b1 01       		.byte	0x1
 2979 09b2 B701     		.word	0x1b7
 2980 09b4 06       		.byte	0x6
 2981 09b5 1B010000 		.long	0x11b
 2982 09b9 02       		.byte	0x2
 2983 09ba 91       		.byte	0x91
 2984 09bb 58       		.sleb128 -40
 2985 09bc 1B       		.uleb128 0x1b
 2986 09bd 72636C00 		.ascii "rcl\0"
 2987 09c1 01       		.byte	0x1
 2988 09c2 B801     		.word	0x1b8
GAS LISTING C:\Users\jisu8\AppData\Local\Temp\cc5AG2CR.s 			page 70


 2989 09c4 06       		.byte	0x6
 2990 09c5 1B010000 		.long	0x11b
 2991 09c9 02       		.byte	0x2
 2992 09ca 91       		.byte	0x91
 2993 09cb 54       		.sleb128 -44
 2994 09cc 1B       		.uleb128 0x1b
 2995 09cd 656300   		.ascii "ec\0"
 2996 09d0 01       		.byte	0x1
 2997 09d1 B901     		.word	0x1b9
 2998 09d3 06       		.byte	0x6
 2999 09d4 1B010000 		.long	0x11b
 3000 09d8 02       		.byte	0x2
 3001 09d9 91       		.byte	0x91
 3002 09da 50       		.sleb128 -48
 3003 09db 1C       		.uleb128 0x1c
 3004 09dc 260D0000 		.long	LBB19
 3005 09e0 7E0D0000 		.long	LBE19
 3006 09e4 F7090000 		.long	0x9f7
 3007 09e8 1B       		.uleb128 0x1b
 3008 09e9 6900     		.ascii "i\0"
 3009 09eb 01       		.byte	0x1
 3010 09ec 9201     		.word	0x192
 3011 09ee 10       		.byte	0x10
 3012 09ef 6C020000 		.long	0x26c
 3013 09f3 02       		.byte	0x2
 3014 09f4 91       		.byte	0x91
 3015 09f5 6E       		.sleb128 -18
 3016 09f6 00       		.byte	0
 3017 09f7 1D       		.uleb128 0x1d
 3018 09f8 7E0D0000 		.long	LBB20
 3019 09fc 140F0000 		.long	LBE20
 3020 0a00 1B       		.uleb128 0x1b
 3021 0a01 6900     		.ascii "i\0"
 3022 0a03 01       		.byte	0x1
 3023 0a04 9901     		.word	0x199
 3024 0a06 10       		.byte	0x10
 3025 0a07 6C020000 		.long	0x26c
 3026 0a0b 02       		.byte	0x2
 3027 0a0c 91       		.byte	0x91
 3028 0a0d 6C       		.sleb128 -20
 3029 0a0e 1D       		.uleb128 0x1d
 3030 0a0f 890D0000 		.long	LBB21
 3031 0a13 FC0E0000 		.long	LBE21
 3032 0a17 1A       		.uleb128 0x1a
 3033 0a18 8B000000 		.secrel32	LASF6
 3034 0a1c 01       		.byte	0x1
 3035 0a1d A101     		.word	0x1a1
 3036 0a1f 07       		.byte	0x7
 3037 0a20 1B010000 		.long	0x11b
 3038 0a24 02       		.byte	0x2
 3039 0a25 91       		.byte	0x91
 3040 0a26 60       		.sleb128 -32
 3041 0a27 1A       		.uleb128 0x1a
 3042 0a28 26000000 		.secrel32	LASF7
 3043 0a2c 01       		.byte	0x1
 3044 0a2d A201     		.word	0x1a2
 3045 0a2f 07       		.byte	0x7
GAS LISTING C:\Users\jisu8\AppData\Local\Temp\cc5AG2CR.s 			page 71


 3046 0a30 1B010000 		.long	0x11b
 3047 0a34 02       		.byte	0x2
 3048 0a35 91       		.byte	0x91
 3049 0a36 68       		.sleb128 -24
 3050 0a37 00       		.byte	0
 3051 0a38 00       		.byte	0
 3052 0a39 00       		.byte	0
 3053 0a3a 0A       		.uleb128 0xa
 3054 0a3b 04       		.byte	0x4
 3055 0a3c FA050000 		.long	0x5fa
 3056 0a40 0A       		.uleb128 0xa
 3057 0a41 04       		.byte	0x4
 3058 0a42 27010000 		.long	0x127
 3059 0a46 0A       		.uleb128 0xa
 3060 0a47 04       		.byte	0x4
 3061 0a48 AA010000 		.long	0x1aa
 3062 0a4c 0A       		.uleb128 0xa
 3063 0a4d 04       		.byte	0x4
 3064 0a4e FA040000 		.long	0x4fa
 3065 0a52 1E       		.uleb128 0x1e
 3066 0a53 01       		.byte	0x1
 3067 0a54 A4000000 		.secrel32	LASF10
 3068 0a58 01       		.byte	0x1
 3069 0a59 7E01     		.word	0x17e
 3070 0a5b 06       		.byte	0x6
 3071 0a5c 01       		.byte	0x1
 3072 0a5d 960C0000 		.long	LFB15
 3073 0a61 E40C0000 		.long	LFE15
 3074 0a65 38000000 		.secrel32	LLST11
 3075 0a69 01       		.byte	0x1
 3076 0a6a 850A0000 		.long	0xa85
 3077 0a6e 16       		.uleb128 0x16
 3078 0a6f 436F6465 		.ascii "Codewords\0"
 3078      776F7264 
 3078      7300
 3079 0a79 01       		.byte	0x1
 3080 0a7a 7E01     		.word	0x17e
 3081 0a7c 34       		.byte	0x34
 3082 0a7d 4C0A0000 		.long	0xa4c
 3083 0a81 02       		.byte	0x2
 3084 0a82 91       		.byte	0x91
 3085 0a83 00       		.sleb128 0
 3086 0a84 00       		.byte	0
 3087 0a85 14       		.uleb128 0x14
 3088 0a86 01       		.byte	0x1
 3089 0a87 67657452 		.ascii "getRowHeights\0"
 3089      6F774865 
 3089      69676874 
 3089      7300
 3090 0a95 01       		.byte	0x1
 3091 0a96 5401     		.word	0x154
 3092 0a98 09       		.byte	0x9
 3093 0a99 01       		.byte	0x1
 3094 0a9a 4F020000 		.long	0x24f
 3095 0a9e 310B0000 		.long	LFB14
 3096 0aa2 960C0000 		.long	LFE14
 3097 0aa6 70000000 		.secrel32	LLST10
GAS LISTING C:\Users\jisu8\AppData\Local\Temp\cc5AG2CR.s 			page 72


 3098 0aaa 01       		.byte	0x1
 3099 0aab C70B0000 		.long	0xbc7
 3100 0aaf 15       		.uleb128 0x15
 3101 0ab0 D8000000 		.secrel32	LASF2
 3102 0ab4 01       		.byte	0x1
 3103 0ab5 5401     		.word	0x154
 3104 0ab7 31       		.byte	0x31
 3105 0ab8 3A0A0000 		.long	0xa3a
 3106 0abc 02       		.byte	0x2
 3107 0abd 91       		.byte	0x91
 3108 0abe 00       		.sleb128 0
 3109 0abf 16       		.uleb128 0x16
 3110 0ac0 72657375 		.ascii "result\0"
 3110      6C7400
 3111 0ac7 01       		.byte	0x1
 3112 0ac8 5401     		.word	0x154
 3113 0aca 4A       		.byte	0x4a
 3114 0acb F8010000 		.long	0x1f8
 3115 0acf 02       		.byte	0x2
 3116 0ad0 91       		.byte	0x91
 3117 0ad1 04       		.sleb128 4
 3118 0ad2 15       		.uleb128 0x15
 3119 0ad3 7A000000 		.secrel32	LASF5
 3120 0ad7 01       		.byte	0x1
 3121 0ad8 5401     		.word	0x154
 3122 0ada 55       		.byte	0x55
 3123 0adb 1B010000 		.long	0x11b
 3124 0adf 02       		.byte	0x2
 3125 0ae0 91       		.byte	0x91
 3126 0ae1 08       		.sleb128 8
 3127 0ae2 16       		.uleb128 0x16
 3128 0ae3 73697A65 		.ascii "size\0"
 3128      00
 3129 0ae8 01       		.byte	0x1
 3130 0ae9 5401     		.word	0x154
 3131 0aeb 62       		.byte	0x62
 3132 0aec F8010000 		.long	0x1f8
 3133 0af0 02       		.byte	0x2
 3134 0af1 91       		.byte	0x91
 3135 0af2 0C       		.sleb128 12
 3136 0af3 17       		.uleb128 0x17
 3137 0af4 01       		.byte	0x1
 3138 0af5 9D000000 		.secrel32	LASF8
 3139 0af9 0D       		.byte	0xd
 3140 0afa 00       		.byte	0
 3141 0afb 01       		.byte	0x1
 3142 0afc 1B010000 		.long	0x11b
 3143 0b00 01       		.byte	0x1
 3144 0b01 0C0B0000 		.long	0xb0c
 3145 0b05 18       		.uleb128 0x18
 3146 0b06 460A0000 		.long	0xa46
 3147 0b0a 19       		.uleb128 0x19
 3148 0b0b 00       		.byte	0
 3149 0b0c 1A       		.uleb128 0x1a
 3150 0b0d 6A000000 		.secrel32	LASF9
 3151 0b11 01       		.byte	0x1
 3152 0b12 5901     		.word	0x159
GAS LISTING C:\Users\jisu8\AppData\Local\Temp\cc5AG2CR.s 			page 73


 3153 0b14 14       		.byte	0x14
 3154 0b15 27010000 		.long	0x127
 3155 0b19 02       		.byte	0x2
 3156 0b1a 91       		.byte	0x91
 3157 0b1b 40       		.sleb128 -64
 3158 0b1c 1B       		.uleb128 0x1b
 3159 0b1d 73697A65 		.ascii "sizeRow\0"
 3159      526F7700 
 3160 0b25 01       		.byte	0x1
 3161 0b26 6201     		.word	0x162
 3162 0b28 06       		.byte	0x6
 3163 0b29 1B010000 		.long	0x11b
 3164 0b2d 02       		.byte	0x2
 3165 0b2e 91       		.byte	0x91
 3166 0b2f 64       		.sleb128 -28
 3167 0b30 1B       		.uleb128 0x1b
 3168 0b31 72657400 		.ascii "ret\0"
 3169 0b35 01       		.byte	0x1
 3170 0b36 6301     		.word	0x163
 3171 0b38 06       		.byte	0x6
 3172 0b39 C70B0000 		.long	0xbc7
 3173 0b3d 03       		.byte	0x3
 3174 0b3e 91       		.byte	0x91
 3175 0b3f 5C       		.sleb128 -36
 3176 0b40 06       		.byte	0x6
 3177 0b41 1F       		.uleb128 0x1f
 3178 0b42 01       		.byte	0x1
 3179 0b43 66696C6C 		.ascii "fill\0"
 3179      00
 3180 0b48 01       		.byte	0x1
 3181 0b49 6401     		.word	0x164
 3182 0b4b 02       		.byte	0x2
 3183 0b4c 1B010000 		.long	0x11b
 3184 0b50 01       		.byte	0x1
 3185 0b51 570B0000 		.long	0xb57
 3186 0b55 19       		.uleb128 0x19
 3187 0b56 00       		.byte	0
 3188 0b57 1C       		.uleb128 0x1c
 3189 0b58 E90B0000 		.long	LBB15
 3190 0b5c 520C0000 		.long	LBE15
 3191 0b60 AE0B0000 		.long	0xbae
 3192 0b64 1B       		.uleb128 0x1b
 3193 0b65 6900     		.ascii "i\0"
 3194 0b67 01       		.byte	0x1
 3195 0b68 6501     		.word	0x165
 3196 0b6a 0B       		.byte	0xb
 3197 0b6b 1B010000 		.long	0x11b
 3198 0b6f 02       		.byte	0x2
 3199 0b70 91       		.byte	0x91
 3200 0b71 68       		.sleb128 -24
 3201 0b72 1D       		.uleb128 0x1d
 3202 0b73 F20B0000 		.long	LBB16
 3203 0b77 460C0000 		.long	LBE16
 3204 0b7b 1B       		.uleb128 0x1b
 3205 0b7c 6974656D 		.ascii "item\0"
 3205      00
 3206 0b81 01       		.byte	0x1
GAS LISTING C:\Users\jisu8\AppData\Local\Temp\cc5AG2CR.s 			page 74


 3207 0b82 6701     		.word	0x167
 3208 0b84 10       		.byte	0x10
 3209 0b85 4C0A0000 		.long	0xa4c
 3210 0b89 02       		.byte	0x2
 3211 0b8a 91       		.byte	0x91
 3212 0b8b 58       		.sleb128 -40
 3213 0b8c 1D       		.uleb128 0x1d
 3214 0b8d 130C0000 		.long	LBB17
 3215 0b91 460C0000 		.long	LBE17
 3216 0b95 1B       		.uleb128 0x1b
 3217 0b96 726F774E 		.ascii "rowNumber\0"
 3217      756D6265 
 3217      7200
 3218 0ba0 01       		.byte	0x1
 3219 0ba1 6A01     		.word	0x16a
 3220 0ba3 0D       		.byte	0xd
 3221 0ba4 7D020000 		.long	0x27d
 3222 0ba8 02       		.byte	0x2
 3223 0ba9 91       		.byte	0x91
 3224 0baa 50       		.sleb128 -48
 3225 0bab 00       		.byte	0
 3226 0bac 00       		.byte	0
 3227 0bad 00       		.byte	0
 3228 0bae 1D       		.uleb128 0x1d
 3229 0baf 520C0000 		.long	LBB18
 3230 0bb3 820C0000 		.long	LBE18
 3231 0bb7 1B       		.uleb128 0x1b
 3232 0bb8 6900     		.ascii "i\0"
 3233 0bba 01       		.byte	0x1
 3234 0bbb 7401     		.word	0x174
 3235 0bbd 0A       		.byte	0xa
 3236 0bbe 1B010000 		.long	0x11b
 3237 0bc2 02       		.byte	0x2
 3238 0bc3 91       		.byte	0x91
 3239 0bc4 6C       		.sleb128 -20
 3240 0bc5 00       		.byte	0
 3241 0bc6 00       		.byte	0
 3242 0bc7 08       		.uleb128 0x8
 3243 0bc8 1B010000 		.long	0x11b
 3244 0bcc DA0B0000 		.long	0xbda
 3245 0bd0 20       		.uleb128 0x20
 3246 0bd1 75010000 		.long	0x175
 3247 0bd5 03       		.byte	0x3
 3248 0bd6 91       		.byte	0x91
 3249 0bd7 60       		.sleb128 -32
 3250 0bd8 06       		.byte	0x6
 3251 0bd9 00       		.byte	0
 3252 0bda 21       		.uleb128 0x21
 3253 0bdb 01       		.byte	0x1
 3254 0bdc 61646A75 		.ascii "adjustIncompleteIndicatorColumnRowNumbers\0"
 3254      7374496E 
 3254      636F6D70 
 3254      6C657465 
 3254      496E6469 
 3255 0c06 01       		.byte	0x1
 3256 0c07 1D01     		.word	0x11d
 3257 0c09 06       		.byte	0x6
GAS LISTING C:\Users\jisu8\AppData\Local\Temp\cc5AG2CR.s 			page 75


 3258 0c0a 01       		.byte	0x1
 3259 0c0b C6080000 		.long	LFB13
 3260 0c0f 310B0000 		.long	LFE13
 3261 0c13 A8000000 		.secrel32	LLST9
 3262 0c17 01       		.byte	0x1
 3263 0c18 370D0000 		.long	0xd37
 3264 0c1c 15       		.uleb128 0x15
 3265 0c1d D8000000 		.secrel32	LASF2
 3266 0c21 01       		.byte	0x1
 3267 0c22 1D01     		.word	0x11d
 3268 0c24 4A       		.byte	0x4a
 3269 0c25 3A0A0000 		.long	0xa3a
 3270 0c29 02       		.byte	0x2
 3271 0c2a 91       		.byte	0x91
 3272 0c2b 00       		.sleb128 0
 3273 0c2c 15       		.uleb128 0x15
 3274 0c2d 6A000000 		.secrel32	LASF9
 3275 0c31 01       		.byte	0x1
 3276 0c32 1D01     		.word	0x11d
 3277 0c34 79       		.byte	0x79
 3278 0c35 370D0000 		.long	0xd37
 3279 0c39 02       		.byte	0x2
 3280 0c3a 91       		.byte	0x91
 3281 0c3b 04       		.sleb128 4
 3282 0c3c 17       		.uleb128 0x17
 3283 0c3d 01       		.byte	0x1
 3284 0c3e 9D000000 		.secrel32	LASF8
 3285 0c42 0D       		.byte	0xd
 3286 0c43 00       		.byte	0
 3287 0c44 01       		.byte	0x1
 3288 0c45 1B010000 		.long	0x11b
 3289 0c49 01       		.byte	0x1
 3290 0c4a 550C0000 		.long	0xc55
 3291 0c4e 18       		.uleb128 0x18
 3292 0c4f 460A0000 		.long	0xa46
 3293 0c53 19       		.uleb128 0x19
 3294 0c54 00       		.byte	0
 3295 0c55 1B       		.uleb128 0x1b
 3296 0c56 626200   		.ascii "bb\0"
 3297 0c59 01       		.byte	0x1
 3298 0c5a 2701     		.word	0x127
 3299 0c5c 16       		.byte	0x16
 3300 0c5d 4D040000 		.long	0x44d
 3301 0c61 03       		.byte	0x3
 3302 0c62 91       		.byte	0x91
 3303 0c63 F47E     		.sleb128 -140
 3304 0c65 1B       		.uleb128 0x1b
 3305 0c66 746F7000 		.ascii "top\0"
 3306 0c6a 01       		.byte	0x1
 3307 0c6b 2801     		.word	0x128
 3308 0c6d 10       		.byte	0x10
 3309 0c6e 0E030000 		.long	0x30e
 3310 0c72 03       		.byte	0x3
 3311 0c73 91       		.byte	0x91
 3312 0c74 E87E     		.sleb128 -152
 3313 0c76 1B       		.uleb128 0x1b
 3314 0c77 626F7474 		.ascii "bottom\0"
GAS LISTING C:\Users\jisu8\AppData\Local\Temp\cc5AG2CR.s 			page 76


 3314      6F6D00
 3315 0c7e 01       		.byte	0x1
 3316 0c7f 2901     		.word	0x129
 3317 0c81 10       		.byte	0x10
 3318 0c82 0E030000 		.long	0x30e
 3319 0c86 03       		.byte	0x3
 3320 0c87 91       		.byte	0x91
 3321 0c88 DC7E     		.sleb128 -164
 3322 0c8a 1A       		.uleb128 0x1a
 3323 0c8b 38000000 		.secrel32	LASF11
 3324 0c8f 01       		.byte	0x1
 3325 0c90 2A01     		.word	0x12a
 3326 0c92 06       		.byte	0x6
 3327 0c93 1B010000 		.long	0x11b
 3328 0c97 02       		.byte	0x2
 3329 0c98 91       		.byte	0x91
 3330 0c99 4C       		.sleb128 -52
 3331 0c9a 1B       		.uleb128 0x1b
 3332 0c9b 6C617374 		.ascii "lastRow\0"
 3332      526F7700 
 3333 0ca3 01       		.byte	0x1
 3334 0ca4 2B01     		.word	0x12b
 3335 0ca6 06       		.byte	0x6
 3336 0ca7 1B010000 		.long	0x11b
 3337 0cab 02       		.byte	0x2
 3338 0cac 91       		.byte	0x91
 3339 0cad 48       		.sleb128 -56
 3340 0cae 1A       		.uleb128 0x1a
 3341 0caf 81000000 		.secrel32	LASF3
 3342 0cb3 01       		.byte	0x1
 3343 0cb4 2C01     		.word	0x12c
 3344 0cb6 0F       		.byte	0xf
 3345 0cb7 4C0A0000 		.long	0xa4c
 3346 0cbb 02       		.byte	0x2
 3347 0cbc 91       		.byte	0x91
 3348 0cbd 44       		.sleb128 -60
 3349 0cbe 1A       		.uleb128 0x1a
 3350 0cbf 00000000 		.secrel32	LASF12
 3351 0cc3 01       		.byte	0x1
 3352 0cc4 2D01     		.word	0x12d
 3353 0cc6 06       		.byte	0x6
 3354 0cc7 1B010000 		.long	0x11b
 3355 0ccb 02       		.byte	0x2
 3356 0ccc 91       		.byte	0x91
 3357 0ccd 5C       		.sleb128 -36
 3358 0cce 1A       		.uleb128 0x1a
 3359 0ccf 4C000000 		.secrel32	LASF13
 3360 0cd3 01       		.byte	0x1
 3361 0cd4 2E01     		.word	0x12e
 3362 0cd6 06       		.byte	0x6
 3363 0cd7 1B010000 		.long	0x11b
 3364 0cdb 02       		.byte	0x2
 3365 0cdc 91       		.byte	0x91
 3366 0cdd 58       		.sleb128 -40
 3367 0cde 1A       		.uleb128 0x1a
 3368 0cdf 59000000 		.secrel32	LASF14
 3369 0ce3 01       		.byte	0x1
GAS LISTING C:\Users\jisu8\AppData\Local\Temp\cc5AG2CR.s 			page 77


 3370 0ce4 2F01     		.word	0x12f
 3371 0ce6 06       		.byte	0x6
 3372 0ce7 1B010000 		.long	0x11b
 3373 0ceb 02       		.byte	0x2
 3374 0cec 91       		.byte	0x91
 3375 0ced 54       		.sleb128 -44
 3376 0cee 1D       		.uleb128 0x1d
 3377 0cef 0F0A0000 		.long	LBB13
 3378 0cf3 250B0000 		.long	LBE13
 3379 0cf7 1A       		.uleb128 0x1a
 3380 0cf8 0B000000 		.secrel32	LASF15
 3381 0cfc 01       		.byte	0x1
 3382 0cfd 3001     		.word	0x130
 3383 0cff 0B       		.byte	0xb
 3384 0d00 1B010000 		.long	0x11b
 3385 0d04 02       		.byte	0x2
 3386 0d05 91       		.byte	0x91
 3387 0d06 50       		.sleb128 -48
 3388 0d07 1D       		.uleb128 0x1d
 3389 0d08 1A0A0000 		.long	LBB14
 3390 0d0c 130B0000 		.long	LBE14
 3391 0d10 22       		.uleb128 0x22
 3392 0d11 01       		.byte	0x1
 3393 0d12 A4000000 		.secrel32	LASF10
 3394 0d16 01       		.byte	0x1
 3395 0d17 65       		.byte	0x65
 3396 0d18 04       		.byte	0x4
 3397 0d19 1B010000 		.long	0x11b
 3398 0d1d 01       		.byte	0x1
 3399 0d1e 240D0000 		.long	0xd24
 3400 0d22 19       		.uleb128 0x19
 3401 0d23 00       		.byte	0
 3402 0d24 1A       		.uleb128 0x1a
 3403 0d25 18000000 		.secrel32	LASF16
 3404 0d29 01       		.byte	0x1
 3405 0d2a 3901     		.word	0x139
 3406 0d2c 07       		.byte	0x7
 3407 0d2d 1B010000 		.long	0x11b
 3408 0d31 02       		.byte	0x2
 3409 0d32 91       		.byte	0x91
 3410 0d33 40       		.sleb128 -64
 3411 0d34 00       		.byte	0
 3412 0d35 00       		.byte	0
 3413 0d36 00       		.byte	0
 3414 0d37 0A       		.uleb128 0xa
 3415 0d38 04       		.byte	0x4
 3416 0d39 41010000 		.long	0x141
 3417 0d3d 23       		.uleb128 0x23
 3418 0d3e 01       		.byte	0x1
 3419 0d3f 61646A75 		.ascii "adjustCompleteIndicatorColumnRowNumbers\0"
 3419      7374436F 
 3419      6D706C65 
 3419      7465496E 
 3419      64696361 
 3420 0d67 01       		.byte	0x1
 3421 0d68 AC       		.byte	0xac
 3422 0d69 06       		.byte	0x6
GAS LISTING C:\Users\jisu8\AppData\Local\Temp\cc5AG2CR.s 			page 78


 3423 0d6a 01       		.byte	0x1
 3424 0d6b 3E050000 		.long	LFB12
 3425 0d6f C6080000 		.long	LFE12
 3426 0d73 E0000000 		.secrel32	LLST8
 3427 0d77 01       		.byte	0x1
 3428 0d78 250F0000 		.long	0xf25
 3429 0d7c 24       		.uleb128 0x24
 3430 0d7d 64657465 		.ascii "detectionResultColumn\0"
 3430      6374696F 
 3430      6E526573 
 3430      756C7443 
 3430      6F6C756D 
 3431 0d93 01       		.byte	0x1
 3432 0d94 AC       		.byte	0xac
 3433 0d95 48       		.byte	0x48
 3434 0d96 3A0A0000 		.long	0xa3a
 3435 0d9a 02       		.byte	0x2
 3436 0d9b 91       		.byte	0x91
 3437 0d9c 00       		.sleb128 0
 3438 0d9d 25       		.uleb128 0x25
 3439 0d9e 6A000000 		.secrel32	LASF9
 3440 0da2 01       		.byte	0x1
 3441 0da3 AC       		.byte	0xac
 3442 0da4 78       		.byte	0x78
 3443 0da5 370D0000 		.long	0xd37
 3444 0da9 02       		.byte	0x2
 3445 0daa 91       		.byte	0x91
 3446 0dab 04       		.sleb128 4
 3447 0dac 17       		.uleb128 0x17
 3448 0dad 01       		.byte	0x1
 3449 0dae 9D000000 		.secrel32	LASF8
 3450 0db2 0D       		.byte	0xd
 3451 0db3 00       		.byte	0
 3452 0db4 01       		.byte	0x1
 3453 0db5 1B010000 		.long	0x11b
 3454 0db9 01       		.byte	0x1
 3455 0dba C50D0000 		.long	0xdc5
 3456 0dbe 18       		.uleb128 0x18
 3457 0dbf 460A0000 		.long	0xa46
 3458 0dc3 19       		.uleb128 0x19
 3459 0dc4 00       		.byte	0
 3460 0dc5 12       		.uleb128 0x12
 3461 0dc6 73697A65 		.ascii "size\0"
 3461      00
 3462 0dcb 01       		.byte	0x1
 3463 0dcc B4       		.byte	0xb4
 3464 0dcd 06       		.byte	0x6
 3465 0dce 1B010000 		.long	0x11b
 3466 0dd2 03       		.byte	0x3
 3467 0dd3 91       		.byte	0x91
 3468 0dd4 BC7F     		.sleb128 -68
 3469 0dd6 26       		.uleb128 0x26
 3470 0dd7 81000000 		.secrel32	LASF3
 3471 0ddb 01       		.byte	0x1
 3472 0ddc B5       		.byte	0xb5
 3473 0ddd 0F       		.byte	0xf
 3474 0dde 4C0A0000 		.long	0xa4c
GAS LISTING C:\Users\jisu8\AppData\Local\Temp\cc5AG2CR.s 			page 79


 3475 0de2 03       		.byte	0x3
 3476 0de3 91       		.byte	0x91
 3477 0de4 B87F     		.sleb128 -72
 3478 0de6 12       		.uleb128 0x12
 3479 0de7 626200   		.ascii "bb\0"
 3480 0dea 01       		.byte	0x1
 3481 0deb B8       		.byte	0xb8
 3482 0dec 16       		.byte	0x16
 3483 0ded 4D040000 		.long	0x44d
 3484 0df1 03       		.byte	0x3
 3485 0df2 91       		.byte	0x91
 3486 0df3 E07E     		.sleb128 -160
 3487 0df5 12       		.uleb128 0x12
 3488 0df6 746F7000 		.ascii "top\0"
 3489 0dfa 01       		.byte	0x1
 3490 0dfb B9       		.byte	0xb9
 3491 0dfc 10       		.byte	0x10
 3492 0dfd 0E030000 		.long	0x30e
 3493 0e01 03       		.byte	0x3
 3494 0e02 91       		.byte	0x91
 3495 0e03 D47E     		.sleb128 -172
 3496 0e05 12       		.uleb128 0x12
 3497 0e06 626F7474 		.ascii "bottom\0"
 3497      6F6D00
 3498 0e0d 01       		.byte	0x1
 3499 0e0e BA       		.byte	0xba
 3500 0e0f 10       		.byte	0x10
 3501 0e10 0E030000 		.long	0x30e
 3502 0e14 03       		.byte	0x3
 3503 0e15 91       		.byte	0x91
 3504 0e16 C87E     		.sleb128 -184
 3505 0e18 26       		.uleb128 0x26
 3506 0e19 38000000 		.secrel32	LASF11
 3507 0e1d 01       		.byte	0x1
 3508 0e1e BB       		.byte	0xbb
 3509 0e1f 06       		.byte	0x6
 3510 0e20 1B010000 		.long	0x11b
 3511 0e24 03       		.byte	0x3
 3512 0e25 91       		.byte	0x91
 3513 0e26 B47F     		.sleb128 -76
 3514 0e28 12       		.uleb128 0x12
 3515 0e29 6C617374 		.ascii "lastRow\0"
 3515      526F7700 
 3516 0e31 01       		.byte	0x1
 3517 0e32 BC       		.byte	0xbc
 3518 0e33 06       		.byte	0x6
 3519 0e34 1B010000 		.long	0x11b
 3520 0e38 03       		.byte	0x3
 3521 0e39 91       		.byte	0x91
 3522 0e3a B07F     		.sleb128 -80
 3523 0e3c 26       		.uleb128 0x26
 3524 0e3d 00000000 		.secrel32	LASF12
 3525 0e41 01       		.byte	0x1
 3526 0e42 BF       		.byte	0xbf
 3527 0e43 06       		.byte	0x6
 3528 0e44 1B010000 		.long	0x11b
 3529 0e48 02       		.byte	0x2
GAS LISTING C:\Users\jisu8\AppData\Local\Temp\cc5AG2CR.s 			page 80


 3530 0e49 91       		.byte	0x91
 3531 0e4a 5C       		.sleb128 -36
 3532 0e4b 26       		.uleb128 0x26
 3533 0e4c 4C000000 		.secrel32	LASF13
 3534 0e50 01       		.byte	0x1
 3535 0e51 C0       		.byte	0xc0
 3536 0e52 06       		.byte	0x6
 3537 0e53 1B010000 		.long	0x11b
 3538 0e57 02       		.byte	0x2
 3539 0e58 91       		.byte	0x91
 3540 0e59 58       		.sleb128 -40
 3541 0e5a 26       		.uleb128 0x26
 3542 0e5b 59000000 		.secrel32	LASF14
 3543 0e5f 01       		.byte	0x1
 3544 0e60 C1       		.byte	0xc1
 3545 0e61 06       		.byte	0x6
 3546 0e62 1B010000 		.long	0x11b
 3547 0e66 02       		.byte	0x2
 3548 0e67 91       		.byte	0x91
 3549 0e68 54       		.sleb128 -44
 3550 0e69 12       		.uleb128 0x12
 3551 0e6a 696E6372 		.ascii "increment\0"
 3551      656D656E 
 3551      7400
 3552 0e74 01       		.byte	0x1
 3553 0e75 C2       		.byte	0xc2
 3554 0e76 06       		.byte	0x6
 3555 0e77 1B010000 		.long	0x11b
 3556 0e7b 02       		.byte	0x2
 3557 0e7c 91       		.byte	0x91
 3558 0e7d 50       		.sleb128 -48
 3559 0e7e 1D       		.uleb128 0x1d
 3560 0e7f DD060000 		.long	LBB9
 3561 0e83 BA080000 		.long	LBE9
 3562 0e87 26       		.uleb128 0x26
 3563 0e88 0B000000 		.secrel32	LASF15
 3564 0e8c 01       		.byte	0x1
 3565 0e8d C3       		.byte	0xc3
 3566 0e8e 0B       		.byte	0xb
 3567 0e8f 1B010000 		.long	0x11b
 3568 0e93 02       		.byte	0x2
 3569 0e94 91       		.byte	0x91
 3570 0e95 4C       		.sleb128 -52
 3571 0e96 1D       		.uleb128 0x1d
 3572 0e97 E8060000 		.long	LBB10
 3573 0e9b A8080000 		.long	LBE10
 3574 0e9f 12       		.uleb128 0x12
 3575 0ea0 636F6465 		.ascii "codeword\0"
 3575      776F7264 
 3575      00
 3576 0ea9 01       		.byte	0x1
 3577 0eaa CA       		.byte	0xca
 3578 0eab 0E       		.byte	0xe
 3579 0eac FA040000 		.long	0x4fa
 3580 0eb0 03       		.byte	0x3
 3581 0eb1 91       		.byte	0x91
 3582 0eb2 B07E     		.sleb128 -208
GAS LISTING C:\Users\jisu8\AppData\Local\Temp\cc5AG2CR.s 			page 81


 3583 0eb4 26       		.uleb128 0x26
 3584 0eb5 18000000 		.secrel32	LASF16
 3585 0eb9 01       		.byte	0x1
 3586 0eba D8       		.byte	0xd8
 3587 0ebb 07       		.byte	0x7
 3588 0ebc 1B010000 		.long	0x11b
 3589 0ec0 03       		.byte	0x3
 3590 0ec1 91       		.byte	0x91
 3591 0ec2 AC7F     		.sleb128 -84
 3592 0ec4 1D       		.uleb128 0x1d
 3593 0ec5 04080000 		.long	LBB11
 3594 0ec9 A7080000 		.long	LBE11
 3595 0ecd 12       		.uleb128 0x12
 3596 0ece 63686563 		.ascii "checkedRows\0"
 3596      6B656452 
 3596      6F777300 
 3597 0eda 01       		.byte	0x1
 3598 0edb EB       		.byte	0xeb
 3599 0edc 08       		.byte	0x8
 3600 0edd 1B010000 		.long	0x11b
 3601 0ee1 02       		.byte	0x2
 3602 0ee2 91       		.byte	0x91
 3603 0ee3 48       		.sleb128 -56
 3604 0ee4 12       		.uleb128 0x12
 3605 0ee5 636C6F73 		.ascii "closePreviousCodewordFound\0"
 3605      65507265 
 3605      76696F75 
 3605      73436F64 
 3605      65776F72 
 3606 0f00 01       		.byte	0x1
 3607 0f01 F5       		.byte	0xf5
 3608 0f02 0C       		.byte	0xc
 3609 0f03 4F020000 		.long	0x24f
 3610 0f07 02       		.byte	0x2
 3611 0f08 91       		.byte	0x91
 3612 0f09 47       		.sleb128 -57
 3613 0f0a 1D       		.uleb128 0x1d
 3614 0f0b 33080000 		.long	LBB12
 3615 0f0f 77080000 		.long	LBE12
 3616 0f13 12       		.uleb128 0x12
 3617 0f14 6900     		.ascii "i\0"
 3618 0f16 01       		.byte	0x1
 3619 0f17 FE       		.byte	0xfe
 3620 0f18 0D       		.byte	0xd
 3621 0f19 1B010000 		.long	0x11b
 3622 0f1d 02       		.byte	0x2
 3623 0f1e 91       		.byte	0x91
 3624 0f1f 40       		.sleb128 -64
 3625 0f20 00       		.byte	0
 3626 0f21 00       		.byte	0
 3627 0f22 00       		.byte	0
 3628 0f23 00       		.byte	0
 3629 0f24 00       		.byte	0
 3630 0f25 27       		.uleb128 0x27
 3631 0f26 52656D6F 		.ascii "RemoveIncorrectCodewords\0"
 3631      7665496E 
 3631      636F7272 
GAS LISTING C:\Users\jisu8\AppData\Local\Temp\cc5AG2CR.s 			page 82


 3631      65637443 
 3631      6F646577 
 3632 0f3f 01       		.byte	0x1
 3633 0f40 73       		.byte	0x73
 3634 0f41 0D       		.byte	0xd
 3635 0f42 01       		.byte	0x1
 3636 0f43 50030000 		.long	LFB11
 3637 0f47 3E050000 		.long	LFE11
 3638 0f4b 18010000 		.secrel32	LLST7
 3639 0f4f 01       		.byte	0x1
 3640 0f50 EC0F0000 		.long	0xfec
 3641 0f54 24       		.uleb128 0x24
 3642 0f55 69734C65 		.ascii "isLeft\0"
 3642      667400
 3643 0f5c 01       		.byte	0x1
 3644 0f5d 73       		.byte	0x73
 3645 0f5e 2E       		.byte	0x2e
 3646 0f5f 4F020000 		.long	0x24f
 3647 0f63 02       		.byte	0x2
 3648 0f64 91       		.byte	0x91
 3649 0f65 5C       		.sleb128 -36
 3650 0f66 25       		.uleb128 0x25
 3651 0f67 81000000 		.secrel32	LASF3
 3652 0f6b 01       		.byte	0x1
 3653 0f6c 73       		.byte	0x73
 3654 0f6d 43       		.byte	0x43
 3655 0f6e 4C0A0000 		.long	0xa4c
 3656 0f72 02       		.byte	0x2
 3657 0f73 91       		.byte	0x91
 3658 0f74 04       		.sleb128 4
 3659 0f75 25       		.uleb128 0x25
 3660 0f76 6A000000 		.secrel32	LASF9
 3661 0f7a 01       		.byte	0x1
 3662 0f7b 73       		.byte	0x73
 3663 0f7c 68       		.byte	0x68
 3664 0f7d 370D0000 		.long	0xd37
 3665 0f81 02       		.byte	0x2
 3666 0f82 91       		.byte	0x91
 3667 0f83 08       		.sleb128 8
 3668 0f84 25       		.uleb128 0x25
 3669 0f85 7A000000 		.secrel32	LASF5
 3670 0f89 01       		.byte	0x1
 3671 0f8a 73       		.byte	0x73
 3672 0f8b 7C       		.byte	0x7c
 3673 0f8c 1B010000 		.long	0x11b
 3674 0f90 02       		.byte	0x2
 3675 0f91 91       		.byte	0x91
 3676 0f92 0C       		.sleb128 12
 3677 0f93 17       		.uleb128 0x17
 3678 0f94 01       		.byte	0x1
 3679 0f95 9D000000 		.secrel32	LASF8
 3680 0f99 0D       		.byte	0xd
 3681 0f9a 00       		.byte	0
 3682 0f9b 01       		.byte	0x1
 3683 0f9c 1B010000 		.long	0x11b
 3684 0fa0 01       		.byte	0x1
 3685 0fa1 AC0F0000 		.long	0xfac
GAS LISTING C:\Users\jisu8\AppData\Local\Temp\cc5AG2CR.s 			page 83


 3686 0fa5 18       		.uleb128 0x18
 3687 0fa6 460A0000 		.long	0xa46
 3688 0faa 19       		.uleb128 0x19
 3689 0fab 00       		.byte	0
 3690 0fac 1D       		.uleb128 0x1d
 3691 0fad 68030000 		.long	LBB7
 3692 0fb1 3B050000 		.long	LBE7
 3693 0fb5 12       		.uleb128 0x12
 3694 0fb6 6900     		.ascii "i\0"
 3695 0fb8 01       		.byte	0x1
 3696 0fb9 7A       		.byte	0x7a
 3697 0fba 0B       		.byte	0xb
 3698 0fbb 1B010000 		.long	0x11b
 3699 0fbf 02       		.byte	0x2
 3700 0fc0 91       		.byte	0x91
 3701 0fc1 6C       		.sleb128 -20
 3702 0fc2 1D       		.uleb128 0x1d
 3703 0fc3 74030000 		.long	LBB8
 3704 0fc7 2B050000 		.long	LBE8
 3705 0fcb 26       		.uleb128 0x26
 3706 0fcc 8B000000 		.secrel32	LASF6
 3707 0fd0 01       		.byte	0x1
 3708 0fd1 81       		.byte	0x81
 3709 0fd2 07       		.byte	0x7
 3710 0fd3 1B010000 		.long	0x11b
 3711 0fd7 02       		.byte	0x2
 3712 0fd8 91       		.byte	0x91
 3713 0fd9 64       		.sleb128 -28
 3714 0fda 26       		.uleb128 0x26
 3715 0fdb 26000000 		.secrel32	LASF7
 3716 0fdf 01       		.byte	0x1
 3717 0fe0 82       		.byte	0x82
 3718 0fe1 07       		.byte	0x7
 3719 0fe2 1B010000 		.long	0x11b
 3720 0fe6 02       		.byte	0x2
 3721 0fe7 91       		.byte	0x91
 3722 0fe8 68       		.sleb128 -24
 3723 0fe9 00       		.byte	0
 3724 0fea 00       		.byte	0
 3725 0feb 00       		.byte	0
 3726 0fec 28       		.uleb128 0x28
 3727 0fed 636C6561 		.ascii "clear_var\0"
 3727      725F7661 
 3727      7200
 3728 0ff7 01       		.byte	0x1
 3729 0ff8 6A       		.byte	0x6a
 3730 0ff9 0D       		.byte	0xd
 3731 0ffa 01       		.byte	0x1
 3732 0ffb 12030000 		.long	LFB10
 3733 0fff 50030000 		.long	LFE10
 3734 1003 50010000 		.secrel32	LLST6
 3735 1007 01       		.byte	0x1
 3736 1008 1C100000 		.long	0x101c
 3737 100c 25       		.uleb128 0x25
 3738 100d 81000000 		.secrel32	LASF3
 3739 1011 01       		.byte	0x1
 3740 1012 6A       		.byte	0x6a
GAS LISTING C:\Users\jisu8\AppData\Local\Temp\cc5AG2CR.s 			page 84


 3741 1013 24       		.byte	0x24
 3742 1014 4C0A0000 		.long	0xa4c
 3743 1018 02       		.byte	0x2
 3744 1019 91       		.byte	0x91
 3745 101a 00       		.sleb128 0
 3746 101b 00       		.byte	0
 3747 101c 23       		.uleb128 0x23
 3748 101d 01       		.byte	0x1
 3749 101e 73657452 		.ascii "setRowNumbers\0"
 3749      6F774E75 
 3749      6D626572 
 3749      7300
 3750 102c 01       		.byte	0x1
 3751 102d 5F       		.byte	0x5f
 3752 102e 06       		.byte	0x6
 3753 102f 01       		.byte	0x1
 3754 1030 CF020000 		.long	LFB9
 3755 1034 12030000 		.long	LFE9
 3756 1038 88010000 		.secrel32	LLST5
 3757 103c 01       		.byte	0x1
 3758 103d 92100000 		.long	0x1092
 3759 1041 25       		.uleb128 0x25
 3760 1042 81000000 		.secrel32	LASF3
 3761 1046 01       		.byte	0x1
 3762 1047 5F       		.byte	0x5f
 3763 1048 21       		.byte	0x21
 3764 1049 4C0A0000 		.long	0xa4c
 3765 104d 02       		.byte	0x2
 3766 104e 91       		.byte	0x91
 3767 104f 00       		.sleb128 0
 3768 1050 24       		.uleb128 0x24
 3769 1051 73697A65 		.ascii "size\0"
 3769      00
 3770 1056 01       		.byte	0x1
 3771 1057 5F       		.byte	0x5f
 3772 1058 2F       		.byte	0x2f
 3773 1059 1B010000 		.long	0x11b
 3774 105d 02       		.byte	0x2
 3775 105e 91       		.byte	0x91
 3776 105f 04       		.sleb128 4
 3777 1060 1D       		.uleb128 0x1d
 3778 1061 D5020000 		.long	LBB5
 3779 1065 0F030000 		.long	LBE5
 3780 1069 12       		.uleb128 0x12
 3781 106a 6900     		.ascii "i\0"
 3782 106c 01       		.byte	0x1
 3783 106d 61       		.byte	0x61
 3784 106e 0B       		.byte	0xb
 3785 106f 1B010000 		.long	0x11b
 3786 1073 02       		.byte	0x2
 3787 1074 91       		.byte	0x91
 3788 1075 6C       		.sleb128 -20
 3789 1076 1D       		.uleb128 0x1d
 3790 1077 E8020000 		.long	LBB6
 3791 107b 03030000 		.long	LBE6
 3792 107f 29       		.uleb128 0x29
 3793 1080 01       		.byte	0x1
GAS LISTING C:\Users\jisu8\AppData\Local\Temp\cc5AG2CR.s 			page 85


 3794 1081 A4000000 		.secrel32	LASF10
 3795 1085 01       		.byte	0x1
 3796 1086 65       		.byte	0x65
 3797 1087 04       		.byte	0x4
 3798 1088 1B010000 		.long	0x11b
 3799 108c 01       		.byte	0x1
 3800 108d 19       		.uleb128 0x19
 3801 108e 00       		.byte	0
 3802 108f 00       		.byte	0
 3803 1090 00       		.byte	0
 3804 1091 00       		.byte	0
 3805 1092 2A       		.uleb128 0x2a
 3806 1093 01       		.byte	0x1
 3807 1094 636F6465 		.ascii "codewordNearby\0"
 3807      776F7264 
 3807      4E656172 
 3807      627900
 3808 10a3 01       		.byte	0x1
 3809 10a4 40       		.byte	0x40
 3810 10a5 0C       		.byte	0xc
 3811 10a6 01       		.byte	0x1
 3812 10a7 FA040000 		.long	0x4fa
 3813 10ab 18010000 		.long	LFB8
 3814 10af CF020000 		.long	LFE8
 3815 10b3 C0010000 		.secrel32	LLST4
 3816 10b7 01       		.byte	0x1
 3817 10b8 3A110000 		.long	0x113a
 3818 10bc 25       		.uleb128 0x25
 3819 10bd C5000000 		.secrel32	LASF4
 3820 10c1 01       		.byte	0x1
 3821 10c2 40       		.byte	0x40
 3822 10c3 35       		.byte	0x35
 3823 10c4 3A0A0000 		.long	0xa3a
 3824 10c8 02       		.byte	0x2
 3825 10c9 91       		.byte	0x91
 3826 10ca 04       		.sleb128 4
 3827 10cb 24       		.uleb128 0x24
 3828 10cc 696D6167 		.ascii "imageRow\0"
 3828      65526F77 
 3828      00
 3829 10d5 01       		.byte	0x1
 3830 10d6 40       		.byte	0x40
 3831 10d7 4C       		.byte	0x4c
 3832 10d8 1B010000 		.long	0x11b
 3833 10dc 02       		.byte	0x2
 3834 10dd 91       		.byte	0x91
 3835 10de 08       		.sleb128 8
 3836 10df 24       		.uleb128 0x24
 3837 10e0 73697A65 		.ascii "size\0"
 3837      00
 3838 10e5 01       		.byte	0x1
 3839 10e6 40       		.byte	0x40
 3840 10e7 59       		.byte	0x59
 3841 10e8 1B010000 		.long	0x11b
 3842 10ec 02       		.byte	0x2
 3843 10ed 91       		.byte	0x91
 3844 10ee 0C       		.sleb128 12
GAS LISTING C:\Users\jisu8\AppData\Local\Temp\cc5AG2CR.s 			page 86


 3845 10ef 12       		.uleb128 0x12
 3846 10f0 696E6465 		.ascii "index\0"
 3846      7800
 3847 10f6 01       		.byte	0x1
 3848 10f7 42       		.byte	0x42
 3849 10f8 06       		.byte	0x6
 3850 10f9 1B010000 		.long	0x11b
 3851 10fd 02       		.byte	0x2
 3852 10fe 91       		.byte	0x91
 3853 10ff 6C       		.sleb128 -20
 3854 1100 1D       		.uleb128 0x1d
 3855 1101 89010000 		.long	LBB3
 3856 1105 8C020000 		.long	LBE3
 3857 1109 12       		.uleb128 0x12
 3858 110a 6900     		.ascii "i\0"
 3859 110c 01       		.byte	0x1
 3860 110d 48       		.byte	0x48
 3861 110e 0B       		.byte	0xb
 3862 110f 1B010000 		.long	0x11b
 3863 1113 02       		.byte	0x2
 3864 1114 91       		.byte	0x91
 3865 1115 70       		.sleb128 -16
 3866 1116 1D       		.uleb128 0x1d
 3867 1117 95010000 		.long	LBB4
 3868 111b 7A020000 		.long	LBE4
 3869 111f 12       		.uleb128 0x12
 3870 1120 6E656172 		.ascii "nearImageRow\0"
 3870      496D6167 
 3870      65526F77 
 3870      00
 3871 112d 01       		.byte	0x1
 3872 112e 4A       		.byte	0x4a
 3873 112f 07       		.byte	0x7
 3874 1130 1B010000 		.long	0x11b
 3875 1134 02       		.byte	0x2
 3876 1135 91       		.byte	0x91
 3877 1136 68       		.sleb128 -24
 3878 1137 00       		.byte	0
 3879 1138 00       		.byte	0
 3880 1139 00       		.byte	0
 3881 113a 2A       		.uleb128 0x2a
 3882 113b 01       		.byte	0x1
 3883 113c 69734C65 		.ascii "isLeftRowIndicator\0"
 3883      6674526F 
 3883      77496E64 
 3883      69636174 
 3883      6F7200
 3884 114f 01       		.byte	0x1
 3885 1150 3B       		.byte	0x3b
 3886 1151 09       		.byte	0x9
 3887 1152 01       		.byte	0x1
 3888 1153 4F020000 		.long	0x24f
 3889 1157 04010000 		.long	LFB7
 3890 115b 18010000 		.long	LFE7
 3891 115f F8010000 		.secrel32	LLST3
 3892 1163 01       		.byte	0x1
 3893 1164 78110000 		.long	0x1178
GAS LISTING C:\Users\jisu8\AppData\Local\Temp\cc5AG2CR.s 			page 87


 3894 1168 25       		.uleb128 0x25
 3895 1169 C5000000 		.secrel32	LASF4
 3896 116d 01       		.byte	0x1
 3897 116e 3B       		.byte	0x3b
 3898 116f 36       		.byte	0x36
 3899 1170 3A0A0000 		.long	0xa3a
 3900 1174 02       		.byte	0x2
 3901 1175 91       		.byte	0x91
 3902 1176 00       		.sleb128 0
 3903 1177 00       		.byte	0
 3904 1178 2A       		.uleb128 0x2a
 3905 1179 01       		.byte	0x1
 3906 117a 6973526F 		.ascii "isRowIndicator\0"
 3906      77496E64 
 3906      69636174 
 3906      6F7200
 3907 1189 01       		.byte	0x1
 3908 118a 37       		.byte	0x37
 3909 118b 09       		.byte	0x9
 3910 118c 01       		.byte	0x1
 3911 118d 4F020000 		.long	0x24f
 3912 1191 F1000000 		.long	LFB6
 3913 1195 04010000 		.long	LFE6
 3914 1199 30020000 		.secrel32	LLST2
 3915 119d 01       		.byte	0x1
 3916 119e B2110000 		.long	0x11b2
 3917 11a2 25       		.uleb128 0x25
 3918 11a3 C5000000 		.secrel32	LASF4
 3919 11a7 01       		.byte	0x1
 3920 11a8 37       		.byte	0x37
 3921 11a9 32       		.byte	0x32
 3922 11aa 3A0A0000 		.long	0xa3a
 3923 11ae 02       		.byte	0x2
 3924 11af 91       		.byte	0x91
 3925 11b0 00       		.sleb128 0
 3926 11b1 00       		.byte	0
 3927 11b2 2A       		.uleb128 0x2a
 3928 11b3 01       		.byte	0x1
 3929 11b4 616C6C43 		.ascii "allCodewords\0"
 3929      6F646577 
 3929      6F726473 
 3929      00
 3930 11c1 01       		.byte	0x1
 3931 11c2 33       		.byte	0x33
 3932 11c3 0E       		.byte	0xe
 3933 11c4 01       		.byte	0x1
 3934 11c5 4C0A0000 		.long	0xa4c
 3935 11c9 E6000000 		.long	LFB5
 3936 11cd F1000000 		.long	LFE5
 3937 11d1 68020000 		.secrel32	LLST1
 3938 11d5 01       		.byte	0x1
 3939 11d6 EA110000 		.long	0x11ea
 3940 11da 25       		.uleb128 0x25
 3941 11db C5000000 		.secrel32	LASF4
 3942 11df 01       		.byte	0x1
 3943 11e0 33       		.byte	0x33
 3944 11e1 35       		.byte	0x35
GAS LISTING C:\Users\jisu8\AppData\Local\Temp\cc5AG2CR.s 			page 88


 3945 11e2 3A0A0000 		.long	0xa3a
 3946 11e6 02       		.byte	0x2
 3947 11e7 91       		.byte	0x91
 3948 11e8 00       		.sleb128 0
 3949 11e9 00       		.byte	0
 3950 11ea 23       		.uleb128 0x23
 3951 11eb 01       		.byte	0x1
 3952 11ec 44657465 		.ascii "DetectionResultColumn\0"
 3952      6374696F 
 3952      6E526573 
 3952      756C7443 
 3952      6F6C756D 
 3953 1202 01       		.byte	0x1
 3954 1203 1D       		.byte	0x1d
 3955 1204 06       		.byte	0x6
 3956 1205 01       		.byte	0x1
 3957 1206 00000000 		.long	LFB4
 3958 120a E6000000 		.long	LFE4
 3959 120e A0020000 		.secrel32	LLST0
 3960 1212 01       		.byte	0x1
 3961 1213 6F120000 		.long	0x126f
 3962 1217 24       		.uleb128 0x24
 3963 1218 626F756E 		.ascii "boundingBox\0"
 3963      64696E67 
 3963      426F7800 
 3964 1224 01       		.byte	0x1
 3965 1225 1D       		.byte	0x1d
 3966 1226 32       		.byte	0x32
 3967 1227 6F120000 		.long	0x126f
 3968 122b 02       		.byte	0x2
 3969 122c 91       		.byte	0x91
 3970 122d 00       		.sleb128 0
 3971 122e 24       		.uleb128 0x24
 3972 122f 726F7749 		.ascii "rowInd\0"
 3972      6E6400
 3973 1236 01       		.byte	0x1
 3974 1237 1D       		.byte	0x1d
 3975 1238 4E       		.byte	0x4e
 3976 1239 32050000 		.long	0x532
 3977 123d 02       		.byte	0x2
 3978 123e 91       		.byte	0x91
 3979 123f 04       		.sleb128 4
 3980 1240 25       		.uleb128 0x25
 3981 1241 C5000000 		.secrel32	LASF4
 3982 1245 01       		.byte	0x1
 3983 1246 1D       		.byte	0x1d
 3984 1247 70       		.byte	0x70
 3985 1248 3A0A0000 		.long	0xa3a
 3986 124c 02       		.byte	0x2
 3987 124d 91       		.byte	0x91
 3988 124e 08       		.sleb128 8
 3989 124f 1D       		.uleb128 0x1d
 3990 1250 D7000000 		.long	LBB2
 3991 1254 E3000000 		.long	LBE2
 3992 1258 2B       		.uleb128 0x2b
 3993 1259 01       		.byte	0x1
 3994 125a 9D000000 		.secrel32	LASF8
GAS LISTING C:\Users\jisu8\AppData\Local\Temp\cc5AG2CR.s 			page 89


 3995 125e 0D       		.byte	0xd
 3996 125f 00       		.byte	0
 3997 1260 01       		.byte	0x1
 3998 1261 1B010000 		.long	0x11b
 3999 1265 01       		.byte	0x1
 4000 1266 18       		.uleb128 0x18
 4001 1267 460A0000 		.long	0xa46
 4002 126b 19       		.uleb128 0x19
 4003 126c 00       		.byte	0
 4004 126d 00       		.byte	0
 4005 126e 00       		.byte	0
 4006 126f 0A       		.uleb128 0xa
 4007 1270 04       		.byte	0x4
 4008 1271 4D040000 		.long	0x44d
 4009 1275 00       		.byte	0
 4010              		.section	.debug_abbrev,"dr"
 4011              	Ldebug_abbrev0:
 4012 0000 01       		.uleb128 0x1
 4013 0001 11       		.uleb128 0x11
 4014 0002 01       		.byte	0x1
 4015 0003 25       		.uleb128 0x25
 4016 0004 08       		.uleb128 0x8
 4017 0005 13       		.uleb128 0x13
 4018 0006 0B       		.uleb128 0xb
 4019 0007 03       		.uleb128 0x3
 4020 0008 08       		.uleb128 0x8
 4021 0009 1B       		.uleb128 0x1b
 4022 000a 08       		.uleb128 0x8
 4023 000b 11       		.uleb128 0x11
 4024 000c 01       		.uleb128 0x1
 4025 000d 12       		.uleb128 0x12
 4026 000e 01       		.uleb128 0x1
 4027 000f 10       		.uleb128 0x10
 4028 0010 06       		.uleb128 0x6
 4029 0011 00       		.byte	0
 4030 0012 00       		.byte	0
 4031 0013 02       		.uleb128 0x2
 4032 0014 13       		.uleb128 0x13
 4033 0015 01       		.byte	0x1
 4034 0016 0B       		.uleb128 0xb
 4035 0017 0B       		.uleb128 0xb
 4036 0018 3A       		.uleb128 0x3a
 4037 0019 0B       		.uleb128 0xb
 4038 001a 3B       		.uleb128 0x3b
 4039 001b 0B       		.uleb128 0xb
 4040 001c 39       		.uleb128 0x39
 4041 001d 0B       		.uleb128 0xb
 4042 001e 01       		.uleb128 0x1
 4043 001f 13       		.uleb128 0x13
 4044 0020 00       		.byte	0
 4045 0021 00       		.byte	0
 4046 0022 03       		.uleb128 0x3
 4047 0023 0D       		.uleb128 0xd
 4048 0024 00       		.byte	0
 4049 0025 03       		.uleb128 0x3
 4050 0026 08       		.uleb128 0x8
 4051 0027 3A       		.uleb128 0x3a
GAS LISTING C:\Users\jisu8\AppData\Local\Temp\cc5AG2CR.s 			page 90


 4052 0028 0B       		.uleb128 0xb
 4053 0029 3B       		.uleb128 0x3b
 4054 002a 0B       		.uleb128 0xb
 4055 002b 39       		.uleb128 0x39
 4056 002c 0B       		.uleb128 0xb
 4057 002d 49       		.uleb128 0x49
 4058 002e 13       		.uleb128 0x13
 4059 002f 38       		.uleb128 0x38
 4060 0030 0A       		.uleb128 0xa
 4061 0031 00       		.byte	0
 4062 0032 00       		.byte	0
 4063 0033 04       		.uleb128 0x4
 4064 0034 24       		.uleb128 0x24
 4065 0035 00       		.byte	0
 4066 0036 0B       		.uleb128 0xb
 4067 0037 0B       		.uleb128 0xb
 4068 0038 3E       		.uleb128 0x3e
 4069 0039 0B       		.uleb128 0xb
 4070 003a 03       		.uleb128 0x3
 4071 003b 08       		.uleb128 0x8
 4072 003c 00       		.byte	0
 4073 003d 00       		.byte	0
 4074 003e 05       		.uleb128 0x5
 4075 003f 26       		.uleb128 0x26
 4076 0040 00       		.byte	0
 4077 0041 49       		.uleb128 0x49
 4078 0042 13       		.uleb128 0x13
 4079 0043 00       		.byte	0
 4080 0044 00       		.byte	0
 4081 0045 06       		.uleb128 0x6
 4082 0046 16       		.uleb128 0x16
 4083 0047 00       		.byte	0
 4084 0048 03       		.uleb128 0x3
 4085 0049 08       		.uleb128 0x8
 4086 004a 3A       		.uleb128 0x3a
 4087 004b 0B       		.uleb128 0xb
 4088 004c 3B       		.uleb128 0x3b
 4089 004d 0B       		.uleb128 0xb
 4090 004e 39       		.uleb128 0x39
 4091 004f 0B       		.uleb128 0xb
 4092 0050 49       		.uleb128 0x49
 4093 0051 13       		.uleb128 0x13
 4094 0052 00       		.byte	0
 4095 0053 00       		.byte	0
 4096 0054 07       		.uleb128 0x7
 4097 0055 13       		.uleb128 0x13
 4098 0056 01       		.byte	0x1
 4099 0057 0B       		.uleb128 0xb
 4100 0058 05       		.uleb128 0x5
 4101 0059 3A       		.uleb128 0x3a
 4102 005a 0B       		.uleb128 0xb
 4103 005b 3B       		.uleb128 0x3b
 4104 005c 0B       		.uleb128 0xb
 4105 005d 39       		.uleb128 0x39
 4106 005e 0B       		.uleb128 0xb
 4107 005f 01       		.uleb128 0x1
 4108 0060 13       		.uleb128 0x13
GAS LISTING C:\Users\jisu8\AppData\Local\Temp\cc5AG2CR.s 			page 91


 4109 0061 00       		.byte	0
 4110 0062 00       		.byte	0
 4111 0063 08       		.uleb128 0x8
 4112 0064 01       		.uleb128 0x1
 4113 0065 01       		.byte	0x1
 4114 0066 49       		.uleb128 0x49
 4115 0067 13       		.uleb128 0x13
 4116 0068 01       		.uleb128 0x1
 4117 0069 13       		.uleb128 0x13
 4118 006a 00       		.byte	0
 4119 006b 00       		.byte	0
 4120 006c 09       		.uleb128 0x9
 4121 006d 21       		.uleb128 0x21
 4122 006e 00       		.byte	0
 4123 006f 49       		.uleb128 0x49
 4124 0070 13       		.uleb128 0x13
 4125 0071 2F       		.uleb128 0x2f
 4126 0072 05       		.uleb128 0x5
 4127 0073 00       		.byte	0
 4128 0074 00       		.byte	0
 4129 0075 0A       		.uleb128 0xa
 4130 0076 0F       		.uleb128 0xf
 4131 0077 00       		.byte	0
 4132 0078 0B       		.uleb128 0xb
 4133 0079 0B       		.uleb128 0xb
 4134 007a 49       		.uleb128 0x49
 4135 007b 13       		.uleb128 0x13
 4136 007c 00       		.byte	0
 4137 007d 00       		.byte	0
 4138 007e 0B       		.uleb128 0xb
 4139 007f 0D       		.uleb128 0xd
 4140 0080 00       		.byte	0
 4141 0081 03       		.uleb128 0x3
 4142 0082 0E       		.uleb128 0xe
 4143 0083 3A       		.uleb128 0x3a
 4144 0084 0B       		.uleb128 0xb
 4145 0085 3B       		.uleb128 0x3b
 4146 0086 0B       		.uleb128 0xb
 4147 0087 39       		.uleb128 0x39
 4148 0088 0B       		.uleb128 0xb
 4149 0089 49       		.uleb128 0x49
 4150 008a 13       		.uleb128 0x13
 4151 008b 38       		.uleb128 0x38
 4152 008c 0A       		.uleb128 0xa
 4153 008d 00       		.byte	0
 4154 008e 00       		.byte	0
 4155 008f 0C       		.uleb128 0xc
 4156 0090 04       		.uleb128 0x4
 4157 0091 01       		.byte	0x1
 4158 0092 3E       		.uleb128 0x3e
 4159 0093 0B       		.uleb128 0xb
 4160 0094 0B       		.uleb128 0xb
 4161 0095 0B       		.uleb128 0xb
 4162 0096 49       		.uleb128 0x49
 4163 0097 13       		.uleb128 0x13
 4164 0098 3A       		.uleb128 0x3a
 4165 0099 0B       		.uleb128 0xb
GAS LISTING C:\Users\jisu8\AppData\Local\Temp\cc5AG2CR.s 			page 92


 4166 009a 3B       		.uleb128 0x3b
 4167 009b 0B       		.uleb128 0xb
 4168 009c 39       		.uleb128 0x39
 4169 009d 0B       		.uleb128 0xb
 4170 009e 01       		.uleb128 0x1
 4171 009f 13       		.uleb128 0x13
 4172 00a0 00       		.byte	0
 4173 00a1 00       		.byte	0
 4174 00a2 0D       		.uleb128 0xd
 4175 00a3 28       		.uleb128 0x28
 4176 00a4 00       		.byte	0
 4177 00a5 03       		.uleb128 0x3
 4178 00a6 08       		.uleb128 0x8
 4179 00a7 1C       		.uleb128 0x1c
 4180 00a8 0B       		.uleb128 0xb
 4181 00a9 00       		.byte	0
 4182 00aa 00       		.byte	0
 4183 00ab 0E       		.uleb128 0xe
 4184 00ac 34       		.uleb128 0x34
 4185 00ad 00       		.byte	0
 4186 00ae 03       		.uleb128 0x3
 4187 00af 08       		.uleb128 0x8
 4188 00b0 3A       		.uleb128 0x3a
 4189 00b1 0B       		.uleb128 0xb
 4190 00b2 3B       		.uleb128 0x3b
 4191 00b3 0B       		.uleb128 0xb
 4192 00b4 39       		.uleb128 0x39
 4193 00b5 0B       		.uleb128 0xb
 4194 00b6 49       		.uleb128 0x49
 4195 00b7 13       		.uleb128 0x13
 4196 00b8 3F       		.uleb128 0x3f
 4197 00b9 0C       		.uleb128 0xc
 4198 00ba 3C       		.uleb128 0x3c
 4199 00bb 0C       		.uleb128 0xc
 4200 00bc 00       		.byte	0
 4201 00bd 00       		.byte	0
 4202 00be 0F       		.uleb128 0xf
 4203 00bf 34       		.uleb128 0x34
 4204 00c0 00       		.byte	0
 4205 00c1 03       		.uleb128 0x3
 4206 00c2 0E       		.uleb128 0xe
 4207 00c3 3A       		.uleb128 0x3a
 4208 00c4 0B       		.uleb128 0xb
 4209 00c5 3B       		.uleb128 0x3b
 4210 00c6 0B       		.uleb128 0xb
 4211 00c7 39       		.uleb128 0x39
 4212 00c8 0B       		.uleb128 0xb
 4213 00c9 49       		.uleb128 0x49
 4214 00ca 13       		.uleb128 0x13
 4215 00cb 3F       		.uleb128 0x3f
 4216 00cc 0C       		.uleb128 0xc
 4217 00cd 3C       		.uleb128 0x3c
 4218 00ce 0C       		.uleb128 0xc
 4219 00cf 00       		.byte	0
 4220 00d0 00       		.byte	0
 4221 00d1 10       		.uleb128 0x10
 4222 00d2 21       		.uleb128 0x21
GAS LISTING C:\Users\jisu8\AppData\Local\Temp\cc5AG2CR.s 			page 93


 4223 00d3 00       		.byte	0
 4224 00d4 49       		.uleb128 0x49
 4225 00d5 13       		.uleb128 0x13
 4226 00d6 2F       		.uleb128 0x2f
 4227 00d7 0B       		.uleb128 0xb
 4228 00d8 00       		.byte	0
 4229 00d9 00       		.byte	0
 4230 00da 11       		.uleb128 0x11
 4231 00db 34       		.uleb128 0x34
 4232 00dc 00       		.byte	0
 4233 00dd 03       		.uleb128 0x3
 4234 00de 08       		.uleb128 0x8
 4235 00df 3A       		.uleb128 0x3a
 4236 00e0 0B       		.uleb128 0xb
 4237 00e1 3B       		.uleb128 0x3b
 4238 00e2 05       		.uleb128 0x5
 4239 00e3 39       		.uleb128 0x39
 4240 00e4 0B       		.uleb128 0xb
 4241 00e5 49       		.uleb128 0x49
 4242 00e6 13       		.uleb128 0x13
 4243 00e7 3F       		.uleb128 0x3f
 4244 00e8 0C       		.uleb128 0xc
 4245 00e9 3C       		.uleb128 0x3c
 4246 00ea 0C       		.uleb128 0xc
 4247 00eb 00       		.byte	0
 4248 00ec 00       		.byte	0
 4249 00ed 12       		.uleb128 0x12
 4250 00ee 34       		.uleb128 0x34
 4251 00ef 00       		.byte	0
 4252 00f0 03       		.uleb128 0x3
 4253 00f1 08       		.uleb128 0x8
 4254 00f2 3A       		.uleb128 0x3a
 4255 00f3 0B       		.uleb128 0xb
 4256 00f4 3B       		.uleb128 0x3b
 4257 00f5 0B       		.uleb128 0xb
 4258 00f6 39       		.uleb128 0x39
 4259 00f7 0B       		.uleb128 0xb
 4260 00f8 49       		.uleb128 0x49
 4261 00f9 13       		.uleb128 0x13
 4262 00fa 02       		.uleb128 0x2
 4263 00fb 0A       		.uleb128 0xa
 4264 00fc 00       		.byte	0
 4265 00fd 00       		.byte	0
 4266 00fe 13       		.uleb128 0x13
 4267 00ff 34       		.uleb128 0x34
 4268 0100 00       		.byte	0
 4269 0101 03       		.uleb128 0x3
 4270 0102 0E       		.uleb128 0xe
 4271 0103 3A       		.uleb128 0x3a
 4272 0104 0B       		.uleb128 0xb
 4273 0105 3B       		.uleb128 0x3b
 4274 0106 0B       		.uleb128 0xb
 4275 0107 39       		.uleb128 0x39
 4276 0108 0B       		.uleb128 0xb
 4277 0109 49       		.uleb128 0x49
 4278 010a 13       		.uleb128 0x13
 4279 010b 3F       		.uleb128 0x3f
GAS LISTING C:\Users\jisu8\AppData\Local\Temp\cc5AG2CR.s 			page 94


 4280 010c 0C       		.uleb128 0xc
 4281 010d 02       		.uleb128 0x2
 4282 010e 0A       		.uleb128 0xa
 4283 010f 00       		.byte	0
 4284 0110 00       		.byte	0
 4285 0111 14       		.uleb128 0x14
 4286 0112 2E       		.uleb128 0x2e
 4287 0113 01       		.byte	0x1
 4288 0114 3F       		.uleb128 0x3f
 4289 0115 0C       		.uleb128 0xc
 4290 0116 03       		.uleb128 0x3
 4291 0117 08       		.uleb128 0x8
 4292 0118 3A       		.uleb128 0x3a
 4293 0119 0B       		.uleb128 0xb
 4294 011a 3B       		.uleb128 0x3b
 4295 011b 05       		.uleb128 0x5
 4296 011c 39       		.uleb128 0x39
 4297 011d 0B       		.uleb128 0xb
 4298 011e 27       		.uleb128 0x27
 4299 011f 0C       		.uleb128 0xc
 4300 0120 49       		.uleb128 0x49
 4301 0121 13       		.uleb128 0x13
 4302 0122 11       		.uleb128 0x11
 4303 0123 01       		.uleb128 0x1
 4304 0124 12       		.uleb128 0x12
 4305 0125 01       		.uleb128 0x1
 4306 0126 40       		.uleb128 0x40
 4307 0127 06       		.uleb128 0x6
 4308 0128 9642     		.uleb128 0x2116
 4309 012a 0C       		.uleb128 0xc
 4310 012b 01       		.uleb128 0x1
 4311 012c 13       		.uleb128 0x13
 4312 012d 00       		.byte	0
 4313 012e 00       		.byte	0
 4314 012f 15       		.uleb128 0x15
 4315 0130 05       		.uleb128 0x5
 4316 0131 00       		.byte	0
 4317 0132 03       		.uleb128 0x3
 4318 0133 0E       		.uleb128 0xe
 4319 0134 3A       		.uleb128 0x3a
 4320 0135 0B       		.uleb128 0xb
 4321 0136 3B       		.uleb128 0x3b
 4322 0137 05       		.uleb128 0x5
 4323 0138 39       		.uleb128 0x39
 4324 0139 0B       		.uleb128 0xb
 4325 013a 49       		.uleb128 0x49
 4326 013b 13       		.uleb128 0x13
 4327 013c 02       		.uleb128 0x2
 4328 013d 0A       		.uleb128 0xa
 4329 013e 00       		.byte	0
 4330 013f 00       		.byte	0
 4331 0140 16       		.uleb128 0x16
 4332 0141 05       		.uleb128 0x5
 4333 0142 00       		.byte	0
 4334 0143 03       		.uleb128 0x3
 4335 0144 08       		.uleb128 0x8
 4336 0145 3A       		.uleb128 0x3a
GAS LISTING C:\Users\jisu8\AppData\Local\Temp\cc5AG2CR.s 			page 95


 4337 0146 0B       		.uleb128 0xb
 4338 0147 3B       		.uleb128 0x3b
 4339 0148 05       		.uleb128 0x5
 4340 0149 39       		.uleb128 0x39
 4341 014a 0B       		.uleb128 0xb
 4342 014b 49       		.uleb128 0x49
 4343 014c 13       		.uleb128 0x13
 4344 014d 02       		.uleb128 0x2
 4345 014e 0A       		.uleb128 0xa
 4346 014f 00       		.byte	0
 4347 0150 00       		.byte	0
 4348 0151 17       		.uleb128 0x17
 4349 0152 2E       		.uleb128 0x2e
 4350 0153 01       		.byte	0x1
 4351 0154 3F       		.uleb128 0x3f
 4352 0155 0C       		.uleb128 0xc
 4353 0156 03       		.uleb128 0x3
 4354 0157 0E       		.uleb128 0xe
 4355 0158 3A       		.uleb128 0x3a
 4356 0159 0B       		.uleb128 0xb
 4357 015a 3B       		.uleb128 0x3b
 4358 015b 0B       		.uleb128 0xb
 4359 015c 27       		.uleb128 0x27
 4360 015d 0C       		.uleb128 0xc
 4361 015e 49       		.uleb128 0x49
 4362 015f 13       		.uleb128 0x13
 4363 0160 3C       		.uleb128 0x3c
 4364 0161 0C       		.uleb128 0xc
 4365 0162 01       		.uleb128 0x1
 4366 0163 13       		.uleb128 0x13
 4367 0164 00       		.byte	0
 4368 0165 00       		.byte	0
 4369 0166 18       		.uleb128 0x18
 4370 0167 05       		.uleb128 0x5
 4371 0168 00       		.byte	0
 4372 0169 49       		.uleb128 0x49
 4373 016a 13       		.uleb128 0x13
 4374 016b 00       		.byte	0
 4375 016c 00       		.byte	0
 4376 016d 19       		.uleb128 0x19
 4377 016e 18       		.uleb128 0x18
 4378 016f 00       		.byte	0
 4379 0170 00       		.byte	0
 4380 0171 00       		.byte	0
 4381 0172 1A       		.uleb128 0x1a
 4382 0173 34       		.uleb128 0x34
 4383 0174 00       		.byte	0
 4384 0175 03       		.uleb128 0x3
 4385 0176 0E       		.uleb128 0xe
 4386 0177 3A       		.uleb128 0x3a
 4387 0178 0B       		.uleb128 0xb
 4388 0179 3B       		.uleb128 0x3b
 4389 017a 05       		.uleb128 0x5
 4390 017b 39       		.uleb128 0x39
 4391 017c 0B       		.uleb128 0xb
 4392 017d 49       		.uleb128 0x49
 4393 017e 13       		.uleb128 0x13
GAS LISTING C:\Users\jisu8\AppData\Local\Temp\cc5AG2CR.s 			page 96


 4394 017f 02       		.uleb128 0x2
 4395 0180 0A       		.uleb128 0xa
 4396 0181 00       		.byte	0
 4397 0182 00       		.byte	0
 4398 0183 1B       		.uleb128 0x1b
 4399 0184 34       		.uleb128 0x34
 4400 0185 00       		.byte	0
 4401 0186 03       		.uleb128 0x3
 4402 0187 08       		.uleb128 0x8
 4403 0188 3A       		.uleb128 0x3a
 4404 0189 0B       		.uleb128 0xb
 4405 018a 3B       		.uleb128 0x3b
 4406 018b 05       		.uleb128 0x5
 4407 018c 39       		.uleb128 0x39
 4408 018d 0B       		.uleb128 0xb
 4409 018e 49       		.uleb128 0x49
 4410 018f 13       		.uleb128 0x13
 4411 0190 02       		.uleb128 0x2
 4412 0191 0A       		.uleb128 0xa
 4413 0192 00       		.byte	0
 4414 0193 00       		.byte	0
 4415 0194 1C       		.uleb128 0x1c
 4416 0195 0B       		.uleb128 0xb
 4417 0196 01       		.byte	0x1
 4418 0197 11       		.uleb128 0x11
 4419 0198 01       		.uleb128 0x1
 4420 0199 12       		.uleb128 0x12
 4421 019a 01       		.uleb128 0x1
 4422 019b 01       		.uleb128 0x1
 4423 019c 13       		.uleb128 0x13
 4424 019d 00       		.byte	0
 4425 019e 00       		.byte	0
 4426 019f 1D       		.uleb128 0x1d
 4427 01a0 0B       		.uleb128 0xb
 4428 01a1 01       		.byte	0x1
 4429 01a2 11       		.uleb128 0x11
 4430 01a3 01       		.uleb128 0x1
 4431 01a4 12       		.uleb128 0x12
 4432 01a5 01       		.uleb128 0x1
 4433 01a6 00       		.byte	0
 4434 01a7 00       		.byte	0
 4435 01a8 1E       		.uleb128 0x1e
 4436 01a9 2E       		.uleb128 0x2e
 4437 01aa 01       		.byte	0x1
 4438 01ab 3F       		.uleb128 0x3f
 4439 01ac 0C       		.uleb128 0xc
 4440 01ad 03       		.uleb128 0x3
 4441 01ae 0E       		.uleb128 0xe
 4442 01af 3A       		.uleb128 0x3a
 4443 01b0 0B       		.uleb128 0xb
 4444 01b1 3B       		.uleb128 0x3b
 4445 01b2 05       		.uleb128 0x5
 4446 01b3 39       		.uleb128 0x39
 4447 01b4 0B       		.uleb128 0xb
 4448 01b5 27       		.uleb128 0x27
 4449 01b6 0C       		.uleb128 0xc
 4450 01b7 11       		.uleb128 0x11
GAS LISTING C:\Users\jisu8\AppData\Local\Temp\cc5AG2CR.s 			page 97


 4451 01b8 01       		.uleb128 0x1
 4452 01b9 12       		.uleb128 0x12
 4453 01ba 01       		.uleb128 0x1
 4454 01bb 40       		.uleb128 0x40
 4455 01bc 06       		.uleb128 0x6
 4456 01bd 9742     		.uleb128 0x2117
 4457 01bf 0C       		.uleb128 0xc
 4458 01c0 01       		.uleb128 0x1
 4459 01c1 13       		.uleb128 0x13
 4460 01c2 00       		.byte	0
 4461 01c3 00       		.byte	0
 4462 01c4 1F       		.uleb128 0x1f
 4463 01c5 2E       		.uleb128 0x2e
 4464 01c6 01       		.byte	0x1
 4465 01c7 3F       		.uleb128 0x3f
 4466 01c8 0C       		.uleb128 0xc
 4467 01c9 03       		.uleb128 0x3
 4468 01ca 08       		.uleb128 0x8
 4469 01cb 3A       		.uleb128 0x3a
 4470 01cc 0B       		.uleb128 0xb
 4471 01cd 3B       		.uleb128 0x3b
 4472 01ce 05       		.uleb128 0x5
 4473 01cf 39       		.uleb128 0x39
 4474 01d0 0B       		.uleb128 0xb
 4475 01d1 49       		.uleb128 0x49
 4476 01d2 13       		.uleb128 0x13
 4477 01d3 3C       		.uleb128 0x3c
 4478 01d4 0C       		.uleb128 0xc
 4479 01d5 01       		.uleb128 0x1
 4480 01d6 13       		.uleb128 0x13
 4481 01d7 00       		.byte	0
 4482 01d8 00       		.byte	0
 4483 01d9 20       		.uleb128 0x20
 4484 01da 21       		.uleb128 0x21
 4485 01db 00       		.byte	0
 4486 01dc 49       		.uleb128 0x49
 4487 01dd 13       		.uleb128 0x13
 4488 01de 2F       		.uleb128 0x2f
 4489 01df 0A       		.uleb128 0xa
 4490 01e0 00       		.byte	0
 4491 01e1 00       		.byte	0
 4492 01e2 21       		.uleb128 0x21
 4493 01e3 2E       		.uleb128 0x2e
 4494 01e4 01       		.byte	0x1
 4495 01e5 3F       		.uleb128 0x3f
 4496 01e6 0C       		.uleb128 0xc
 4497 01e7 03       		.uleb128 0x3
 4498 01e8 08       		.uleb128 0x8
 4499 01e9 3A       		.uleb128 0x3a
 4500 01ea 0B       		.uleb128 0xb
 4501 01eb 3B       		.uleb128 0x3b
 4502 01ec 05       		.uleb128 0x5
 4503 01ed 39       		.uleb128 0x39
 4504 01ee 0B       		.uleb128 0xb
 4505 01ef 27       		.uleb128 0x27
 4506 01f0 0C       		.uleb128 0xc
 4507 01f1 11       		.uleb128 0x11
GAS LISTING C:\Users\jisu8\AppData\Local\Temp\cc5AG2CR.s 			page 98


 4508 01f2 01       		.uleb128 0x1
 4509 01f3 12       		.uleb128 0x12
 4510 01f4 01       		.uleb128 0x1
 4511 01f5 40       		.uleb128 0x40
 4512 01f6 06       		.uleb128 0x6
 4513 01f7 9642     		.uleb128 0x2116
 4514 01f9 0C       		.uleb128 0xc
 4515 01fa 01       		.uleb128 0x1
 4516 01fb 13       		.uleb128 0x13
 4517 01fc 00       		.byte	0
 4518 01fd 00       		.byte	0
 4519 01fe 22       		.uleb128 0x22
 4520 01ff 2E       		.uleb128 0x2e
 4521 0200 01       		.byte	0x1
 4522 0201 3F       		.uleb128 0x3f
 4523 0202 0C       		.uleb128 0xc
 4524 0203 03       		.uleb128 0x3
 4525 0204 0E       		.uleb128 0xe
 4526 0205 3A       		.uleb128 0x3a
 4527 0206 0B       		.uleb128 0xb
 4528 0207 3B       		.uleb128 0x3b
 4529 0208 0B       		.uleb128 0xb
 4530 0209 39       		.uleb128 0x39
 4531 020a 0B       		.uleb128 0xb
 4532 020b 49       		.uleb128 0x49
 4533 020c 13       		.uleb128 0x13
 4534 020d 3C       		.uleb128 0x3c
 4535 020e 0C       		.uleb128 0xc
 4536 020f 01       		.uleb128 0x1
 4537 0210 13       		.uleb128 0x13
 4538 0211 00       		.byte	0
 4539 0212 00       		.byte	0
 4540 0213 23       		.uleb128 0x23
 4541 0214 2E       		.uleb128 0x2e
 4542 0215 01       		.byte	0x1
 4543 0216 3F       		.uleb128 0x3f
 4544 0217 0C       		.uleb128 0xc
 4545 0218 03       		.uleb128 0x3
 4546 0219 08       		.uleb128 0x8
 4547 021a 3A       		.uleb128 0x3a
 4548 021b 0B       		.uleb128 0xb
 4549 021c 3B       		.uleb128 0x3b
 4550 021d 0B       		.uleb128 0xb
 4551 021e 39       		.uleb128 0x39
 4552 021f 0B       		.uleb128 0xb
 4553 0220 27       		.uleb128 0x27
 4554 0221 0C       		.uleb128 0xc
 4555 0222 11       		.uleb128 0x11
 4556 0223 01       		.uleb128 0x1
 4557 0224 12       		.uleb128 0x12
 4558 0225 01       		.uleb128 0x1
 4559 0226 40       		.uleb128 0x40
 4560 0227 06       		.uleb128 0x6
 4561 0228 9642     		.uleb128 0x2116
 4562 022a 0C       		.uleb128 0xc
 4563 022b 01       		.uleb128 0x1
 4564 022c 13       		.uleb128 0x13
GAS LISTING C:\Users\jisu8\AppData\Local\Temp\cc5AG2CR.s 			page 99


 4565 022d 00       		.byte	0
 4566 022e 00       		.byte	0
 4567 022f 24       		.uleb128 0x24
 4568 0230 05       		.uleb128 0x5
 4569 0231 00       		.byte	0
 4570 0232 03       		.uleb128 0x3
 4571 0233 08       		.uleb128 0x8
 4572 0234 3A       		.uleb128 0x3a
 4573 0235 0B       		.uleb128 0xb
 4574 0236 3B       		.uleb128 0x3b
 4575 0237 0B       		.uleb128 0xb
 4576 0238 39       		.uleb128 0x39
 4577 0239 0B       		.uleb128 0xb
 4578 023a 49       		.uleb128 0x49
 4579 023b 13       		.uleb128 0x13
 4580 023c 02       		.uleb128 0x2
 4581 023d 0A       		.uleb128 0xa
 4582 023e 00       		.byte	0
 4583 023f 00       		.byte	0
 4584 0240 25       		.uleb128 0x25
 4585 0241 05       		.uleb128 0x5
 4586 0242 00       		.byte	0
 4587 0243 03       		.uleb128 0x3
 4588 0244 0E       		.uleb128 0xe
 4589 0245 3A       		.uleb128 0x3a
 4590 0246 0B       		.uleb128 0xb
 4591 0247 3B       		.uleb128 0x3b
 4592 0248 0B       		.uleb128 0xb
 4593 0249 39       		.uleb128 0x39
 4594 024a 0B       		.uleb128 0xb
 4595 024b 49       		.uleb128 0x49
 4596 024c 13       		.uleb128 0x13
 4597 024d 02       		.uleb128 0x2
 4598 024e 0A       		.uleb128 0xa
 4599 024f 00       		.byte	0
 4600 0250 00       		.byte	0
 4601 0251 26       		.uleb128 0x26
 4602 0252 34       		.uleb128 0x34
 4603 0253 00       		.byte	0
 4604 0254 03       		.uleb128 0x3
 4605 0255 0E       		.uleb128 0xe
 4606 0256 3A       		.uleb128 0x3a
 4607 0257 0B       		.uleb128 0xb
 4608 0258 3B       		.uleb128 0x3b
 4609 0259 0B       		.uleb128 0xb
 4610 025a 39       		.uleb128 0x39
 4611 025b 0B       		.uleb128 0xb
 4612 025c 49       		.uleb128 0x49
 4613 025d 13       		.uleb128 0x13
 4614 025e 02       		.uleb128 0x2
 4615 025f 0A       		.uleb128 0xa
 4616 0260 00       		.byte	0
 4617 0261 00       		.byte	0
 4618 0262 27       		.uleb128 0x27
 4619 0263 2E       		.uleb128 0x2e
 4620 0264 01       		.byte	0x1
 4621 0265 03       		.uleb128 0x3
GAS LISTING C:\Users\jisu8\AppData\Local\Temp\cc5AG2CR.s 			page 100


 4622 0266 08       		.uleb128 0x8
 4623 0267 3A       		.uleb128 0x3a
 4624 0268 0B       		.uleb128 0xb
 4625 0269 3B       		.uleb128 0x3b
 4626 026a 0B       		.uleb128 0xb
 4627 026b 39       		.uleb128 0x39
 4628 026c 0B       		.uleb128 0xb
 4629 026d 27       		.uleb128 0x27
 4630 026e 0C       		.uleb128 0xc
 4631 026f 11       		.uleb128 0x11
 4632 0270 01       		.uleb128 0x1
 4633 0271 12       		.uleb128 0x12
 4634 0272 01       		.uleb128 0x1
 4635 0273 40       		.uleb128 0x40
 4636 0274 06       		.uleb128 0x6
 4637 0275 9642     		.uleb128 0x2116
 4638 0277 0C       		.uleb128 0xc
 4639 0278 01       		.uleb128 0x1
 4640 0279 13       		.uleb128 0x13
 4641 027a 00       		.byte	0
 4642 027b 00       		.byte	0
 4643 027c 28       		.uleb128 0x28
 4644 027d 2E       		.uleb128 0x2e
 4645 027e 01       		.byte	0x1
 4646 027f 03       		.uleb128 0x3
 4647 0280 08       		.uleb128 0x8
 4648 0281 3A       		.uleb128 0x3a
 4649 0282 0B       		.uleb128 0xb
 4650 0283 3B       		.uleb128 0x3b
 4651 0284 0B       		.uleb128 0xb
 4652 0285 39       		.uleb128 0x39
 4653 0286 0B       		.uleb128 0xb
 4654 0287 27       		.uleb128 0x27
 4655 0288 0C       		.uleb128 0xc
 4656 0289 11       		.uleb128 0x11
 4657 028a 01       		.uleb128 0x1
 4658 028b 12       		.uleb128 0x12
 4659 028c 01       		.uleb128 0x1
 4660 028d 40       		.uleb128 0x40
 4661 028e 06       		.uleb128 0x6
 4662 028f 9742     		.uleb128 0x2117
 4663 0291 0C       		.uleb128 0xc
 4664 0292 01       		.uleb128 0x1
 4665 0293 13       		.uleb128 0x13
 4666 0294 00       		.byte	0
 4667 0295 00       		.byte	0
 4668 0296 29       		.uleb128 0x29
 4669 0297 2E       		.uleb128 0x2e
 4670 0298 01       		.byte	0x1
 4671 0299 3F       		.uleb128 0x3f
 4672 029a 0C       		.uleb128 0xc
 4673 029b 03       		.uleb128 0x3
 4674 029c 0E       		.uleb128 0xe
 4675 029d 3A       		.uleb128 0x3a
 4676 029e 0B       		.uleb128 0xb
 4677 029f 3B       		.uleb128 0x3b
 4678 02a0 0B       		.uleb128 0xb
GAS LISTING C:\Users\jisu8\AppData\Local\Temp\cc5AG2CR.s 			page 101


 4679 02a1 39       		.uleb128 0x39
 4680 02a2 0B       		.uleb128 0xb
 4681 02a3 49       		.uleb128 0x49
 4682 02a4 13       		.uleb128 0x13
 4683 02a5 3C       		.uleb128 0x3c
 4684 02a6 0C       		.uleb128 0xc
 4685 02a7 00       		.byte	0
 4686 02a8 00       		.byte	0
 4687 02a9 2A       		.uleb128 0x2a
 4688 02aa 2E       		.uleb128 0x2e
 4689 02ab 01       		.byte	0x1
 4690 02ac 3F       		.uleb128 0x3f
 4691 02ad 0C       		.uleb128 0xc
 4692 02ae 03       		.uleb128 0x3
 4693 02af 08       		.uleb128 0x8
 4694 02b0 3A       		.uleb128 0x3a
 4695 02b1 0B       		.uleb128 0xb
 4696 02b2 3B       		.uleb128 0x3b
 4697 02b3 0B       		.uleb128 0xb
 4698 02b4 39       		.uleb128 0x39
 4699 02b5 0B       		.uleb128 0xb
 4700 02b6 27       		.uleb128 0x27
 4701 02b7 0C       		.uleb128 0xc
 4702 02b8 49       		.uleb128 0x49
 4703 02b9 13       		.uleb128 0x13
 4704 02ba 11       		.uleb128 0x11
 4705 02bb 01       		.uleb128 0x1
 4706 02bc 12       		.uleb128 0x12
 4707 02bd 01       		.uleb128 0x1
 4708 02be 40       		.uleb128 0x40
 4709 02bf 06       		.uleb128 0x6
 4710 02c0 9742     		.uleb128 0x2117
 4711 02c2 0C       		.uleb128 0xc
 4712 02c3 01       		.uleb128 0x1
 4713 02c4 13       		.uleb128 0x13
 4714 02c5 00       		.byte	0
 4715 02c6 00       		.byte	0
 4716 02c7 2B       		.uleb128 0x2b
 4717 02c8 2E       		.uleb128 0x2e
 4718 02c9 01       		.byte	0x1
 4719 02ca 3F       		.uleb128 0x3f
 4720 02cb 0C       		.uleb128 0xc
 4721 02cc 03       		.uleb128 0x3
 4722 02cd 0E       		.uleb128 0xe
 4723 02ce 3A       		.uleb128 0x3a
 4724 02cf 0B       		.uleb128 0xb
 4725 02d0 3B       		.uleb128 0x3b
 4726 02d1 0B       		.uleb128 0xb
 4727 02d2 27       		.uleb128 0x27
 4728 02d3 0C       		.uleb128 0xc
 4729 02d4 49       		.uleb128 0x49
 4730 02d5 13       		.uleb128 0x13
 4731 02d6 3C       		.uleb128 0x3c
 4732 02d7 0C       		.uleb128 0xc
 4733 02d8 00       		.byte	0
 4734 02d9 00       		.byte	0
 4735 02da 00       		.byte	0
GAS LISTING C:\Users\jisu8\AppData\Local\Temp\cc5AG2CR.s 			page 102


 4736              		.section	.debug_loc,"dr"
 4737              	Ldebug_loc0:
 4738              	LLST12:
 4739 0000 E40C0000 		.long	LFB16-Ltext0
 4740 0004 E50C0000 		.long	LCFI36-Ltext0
 4741 0008 0200     		.word	0x2
 4742 000a 74       		.byte	0x74
 4743 000b 04       		.sleb128 4
 4744 000c E50C0000 		.long	LCFI36-Ltext0
 4745 0010 E70C0000 		.long	LCFI37-Ltext0
 4746 0014 0200     		.word	0x2
 4747 0016 74       		.byte	0x74
 4748 0017 08       		.sleb128 8
 4749 0018 E70C0000 		.long	LCFI37-Ltext0
 4750 001c F70F0000 		.long	LCFI38-Ltext0
 4751 0020 0200     		.word	0x2
 4752 0022 75       		.byte	0x75
 4753 0023 08       		.sleb128 8
 4754 0024 F70F0000 		.long	LCFI38-Ltext0
 4755 0028 F80F0000 		.long	LFE16-Ltext0
 4756 002c 0200     		.word	0x2
 4757 002e 74       		.byte	0x74
 4758 002f 04       		.sleb128 4
 4759 0030 00000000 		.long	0
 4760 0034 00000000 		.long	0
 4761              	LLST11:
 4762 0038 960C0000 		.long	LFB15-Ltext0
 4763 003c 970C0000 		.long	LCFI33-Ltext0
 4764 0040 0200     		.word	0x2
 4765 0042 74       		.byte	0x74
 4766 0043 04       		.sleb128 4
 4767 0044 970C0000 		.long	LCFI33-Ltext0
 4768 0048 990C0000 		.long	LCFI34-Ltext0
 4769 004c 0200     		.word	0x2
 4770 004e 74       		.byte	0x74
 4771 004f 08       		.sleb128 8
 4772 0050 990C0000 		.long	LCFI34-Ltext0
 4773 0054 E30C0000 		.long	LCFI35-Ltext0
 4774 0058 0200     		.word	0x2
 4775 005a 75       		.byte	0x75
 4776 005b 08       		.sleb128 8
 4777 005c E30C0000 		.long	LCFI35-Ltext0
 4778 0060 E40C0000 		.long	LFE15-Ltext0
 4779 0064 0200     		.word	0x2
 4780 0066 74       		.byte	0x74
 4781 0067 04       		.sleb128 4
 4782 0068 00000000 		.long	0
 4783 006c 00000000 		.long	0
 4784              	LLST10:
 4785 0070 310B0000 		.long	LFB14-Ltext0
 4786 0074 320B0000 		.long	LCFI30-Ltext0
 4787 0078 0200     		.word	0x2
 4788 007a 74       		.byte	0x74
 4789 007b 04       		.sleb128 4
 4790 007c 320B0000 		.long	LCFI30-Ltext0
 4791 0080 340B0000 		.long	LCFI31-Ltext0
 4792 0084 0200     		.word	0x2
GAS LISTING C:\Users\jisu8\AppData\Local\Temp\cc5AG2CR.s 			page 103


 4793 0086 74       		.byte	0x74
 4794 0087 08       		.sleb128 8
 4795 0088 340B0000 		.long	LCFI31-Ltext0
 4796 008c 950C0000 		.long	LCFI32-Ltext0
 4797 0090 0200     		.word	0x2
 4798 0092 75       		.byte	0x75
 4799 0093 08       		.sleb128 8
 4800 0094 950C0000 		.long	LCFI32-Ltext0
 4801 0098 960C0000 		.long	LFE14-Ltext0
 4802 009c 0200     		.word	0x2
 4803 009e 74       		.byte	0x74
 4804 009f 04       		.sleb128 4
 4805 00a0 00000000 		.long	0
 4806 00a4 00000000 		.long	0
 4807              	LLST9:
 4808 00a8 C6080000 		.long	LFB13-Ltext0
 4809 00ac C7080000 		.long	LCFI27-Ltext0
 4810 00b0 0200     		.word	0x2
 4811 00b2 74       		.byte	0x74
 4812 00b3 04       		.sleb128 4
 4813 00b4 C7080000 		.long	LCFI27-Ltext0
 4814 00b8 C9080000 		.long	LCFI28-Ltext0
 4815 00bc 0200     		.word	0x2
 4816 00be 74       		.byte	0x74
 4817 00bf 08       		.sleb128 8
 4818 00c0 C9080000 		.long	LCFI28-Ltext0
 4819 00c4 300B0000 		.long	LCFI29-Ltext0
 4820 00c8 0200     		.word	0x2
 4821 00ca 75       		.byte	0x75
 4822 00cb 08       		.sleb128 8
 4823 00cc 300B0000 		.long	LCFI29-Ltext0
 4824 00d0 310B0000 		.long	LFE13-Ltext0
 4825 00d4 0200     		.word	0x2
 4826 00d6 74       		.byte	0x74
 4827 00d7 04       		.sleb128 4
 4828 00d8 00000000 		.long	0
 4829 00dc 00000000 		.long	0
 4830              	LLST8:
 4831 00e0 3E050000 		.long	LFB12-Ltext0
 4832 00e4 3F050000 		.long	LCFI24-Ltext0
 4833 00e8 0200     		.word	0x2
 4834 00ea 74       		.byte	0x74
 4835 00eb 04       		.sleb128 4
 4836 00ec 3F050000 		.long	LCFI24-Ltext0
 4837 00f0 41050000 		.long	LCFI25-Ltext0
 4838 00f4 0200     		.word	0x2
 4839 00f6 74       		.byte	0x74
 4840 00f7 08       		.sleb128 8
 4841 00f8 41050000 		.long	LCFI25-Ltext0
 4842 00fc C5080000 		.long	LCFI26-Ltext0
 4843 0100 0200     		.word	0x2
 4844 0102 75       		.byte	0x75
 4845 0103 08       		.sleb128 8
 4846 0104 C5080000 		.long	LCFI26-Ltext0
 4847 0108 C6080000 		.long	LFE12-Ltext0
 4848 010c 0200     		.word	0x2
 4849 010e 74       		.byte	0x74
GAS LISTING C:\Users\jisu8\AppData\Local\Temp\cc5AG2CR.s 			page 104


 4850 010f 04       		.sleb128 4
 4851 0110 00000000 		.long	0
 4852 0114 00000000 		.long	0
 4853              	LLST7:
 4854 0118 50030000 		.long	LFB11-Ltext0
 4855 011c 51030000 		.long	LCFI21-Ltext0
 4856 0120 0200     		.word	0x2
 4857 0122 74       		.byte	0x74
 4858 0123 04       		.sleb128 4
 4859 0124 51030000 		.long	LCFI21-Ltext0
 4860 0128 53030000 		.long	LCFI22-Ltext0
 4861 012c 0200     		.word	0x2
 4862 012e 74       		.byte	0x74
 4863 012f 08       		.sleb128 8
 4864 0130 53030000 		.long	LCFI22-Ltext0
 4865 0134 3D050000 		.long	LCFI23-Ltext0
 4866 0138 0200     		.word	0x2
 4867 013a 75       		.byte	0x75
 4868 013b 08       		.sleb128 8
 4869 013c 3D050000 		.long	LCFI23-Ltext0
 4870 0140 3E050000 		.long	LFE11-Ltext0
 4871 0144 0200     		.word	0x2
 4872 0146 74       		.byte	0x74
 4873 0147 04       		.sleb128 4
 4874 0148 00000000 		.long	0
 4875 014c 00000000 		.long	0
 4876              	LLST6:
 4877 0150 12030000 		.long	LFB10-Ltext0
 4878 0154 13030000 		.long	LCFI18-Ltext0
 4879 0158 0200     		.word	0x2
 4880 015a 74       		.byte	0x74
 4881 015b 04       		.sleb128 4
 4882 015c 13030000 		.long	LCFI18-Ltext0
 4883 0160 15030000 		.long	LCFI19-Ltext0
 4884 0164 0200     		.word	0x2
 4885 0166 74       		.byte	0x74
 4886 0167 08       		.sleb128 8
 4887 0168 15030000 		.long	LCFI19-Ltext0
 4888 016c 4F030000 		.long	LCFI20-Ltext0
 4889 0170 0200     		.word	0x2
 4890 0172 75       		.byte	0x75
 4891 0173 08       		.sleb128 8
 4892 0174 4F030000 		.long	LCFI20-Ltext0
 4893 0178 50030000 		.long	LFE10-Ltext0
 4894 017c 0200     		.word	0x2
 4895 017e 74       		.byte	0x74
 4896 017f 04       		.sleb128 4
 4897 0180 00000000 		.long	0
 4898 0184 00000000 		.long	0
 4899              	LLST5:
 4900 0188 CF020000 		.long	LFB9-Ltext0
 4901 018c D0020000 		.long	LCFI15-Ltext0
 4902 0190 0200     		.word	0x2
 4903 0192 74       		.byte	0x74
 4904 0193 04       		.sleb128 4
 4905 0194 D0020000 		.long	LCFI15-Ltext0
 4906 0198 D2020000 		.long	LCFI16-Ltext0
GAS LISTING C:\Users\jisu8\AppData\Local\Temp\cc5AG2CR.s 			page 105


 4907 019c 0200     		.word	0x2
 4908 019e 74       		.byte	0x74
 4909 019f 08       		.sleb128 8
 4910 01a0 D2020000 		.long	LCFI16-Ltext0
 4911 01a4 11030000 		.long	LCFI17-Ltext0
 4912 01a8 0200     		.word	0x2
 4913 01aa 75       		.byte	0x75
 4914 01ab 08       		.sleb128 8
 4915 01ac 11030000 		.long	LCFI17-Ltext0
 4916 01b0 12030000 		.long	LFE9-Ltext0
 4917 01b4 0200     		.word	0x2
 4918 01b6 74       		.byte	0x74
 4919 01b7 04       		.sleb128 4
 4920 01b8 00000000 		.long	0
 4921 01bc 00000000 		.long	0
 4922              	LLST4:
 4923 01c0 18010000 		.long	LFB8-Ltext0
 4924 01c4 19010000 		.long	LCFI12-Ltext0
 4925 01c8 0200     		.word	0x2
 4926 01ca 74       		.byte	0x74
 4927 01cb 04       		.sleb128 4
 4928 01cc 19010000 		.long	LCFI12-Ltext0
 4929 01d0 1B010000 		.long	LCFI13-Ltext0
 4930 01d4 0200     		.word	0x2
 4931 01d6 74       		.byte	0x74
 4932 01d7 08       		.sleb128 8
 4933 01d8 1B010000 		.long	LCFI13-Ltext0
 4934 01dc CE020000 		.long	LCFI14-Ltext0
 4935 01e0 0200     		.word	0x2
 4936 01e2 75       		.byte	0x75
 4937 01e3 08       		.sleb128 8
 4938 01e4 CE020000 		.long	LCFI14-Ltext0
 4939 01e8 CF020000 		.long	LFE8-Ltext0
 4940 01ec 0200     		.word	0x2
 4941 01ee 74       		.byte	0x74
 4942 01ef 04       		.sleb128 4
 4943 01f0 00000000 		.long	0
 4944 01f4 00000000 		.long	0
 4945              	LLST3:
 4946 01f8 04010000 		.long	LFB7-Ltext0
 4947 01fc 05010000 		.long	LCFI9-Ltext0
 4948 0200 0200     		.word	0x2
 4949 0202 74       		.byte	0x74
 4950 0203 04       		.sleb128 4
 4951 0204 05010000 		.long	LCFI9-Ltext0
 4952 0208 07010000 		.long	LCFI10-Ltext0
 4953 020c 0200     		.word	0x2
 4954 020e 74       		.byte	0x74
 4955 020f 08       		.sleb128 8
 4956 0210 07010000 		.long	LCFI10-Ltext0
 4957 0214 17010000 		.long	LCFI11-Ltext0
 4958 0218 0200     		.word	0x2
 4959 021a 75       		.byte	0x75
 4960 021b 08       		.sleb128 8
 4961 021c 17010000 		.long	LCFI11-Ltext0
 4962 0220 18010000 		.long	LFE7-Ltext0
 4963 0224 0200     		.word	0x2
GAS LISTING C:\Users\jisu8\AppData\Local\Temp\cc5AG2CR.s 			page 106


 4964 0226 74       		.byte	0x74
 4965 0227 04       		.sleb128 4
 4966 0228 00000000 		.long	0
 4967 022c 00000000 		.long	0
 4968              	LLST2:
 4969 0230 F1000000 		.long	LFB6-Ltext0
 4970 0234 F2000000 		.long	LCFI6-Ltext0
 4971 0238 0200     		.word	0x2
 4972 023a 74       		.byte	0x74
 4973 023b 04       		.sleb128 4
 4974 023c F2000000 		.long	LCFI6-Ltext0
 4975 0240 F4000000 		.long	LCFI7-Ltext0
 4976 0244 0200     		.word	0x2
 4977 0246 74       		.byte	0x74
 4978 0247 08       		.sleb128 8
 4979 0248 F4000000 		.long	LCFI7-Ltext0
 4980 024c 03010000 		.long	LCFI8-Ltext0
 4981 0250 0200     		.word	0x2
 4982 0252 75       		.byte	0x75
 4983 0253 08       		.sleb128 8
 4984 0254 03010000 		.long	LCFI8-Ltext0
 4985 0258 04010000 		.long	LFE6-Ltext0
 4986 025c 0200     		.word	0x2
 4987 025e 74       		.byte	0x74
 4988 025f 04       		.sleb128 4
 4989 0260 00000000 		.long	0
 4990 0264 00000000 		.long	0
 4991              	LLST1:
 4992 0268 E6000000 		.long	LFB5-Ltext0
 4993 026c E7000000 		.long	LCFI3-Ltext0
 4994 0270 0200     		.word	0x2
 4995 0272 74       		.byte	0x74
 4996 0273 04       		.sleb128 4
 4997 0274 E7000000 		.long	LCFI3-Ltext0
 4998 0278 E9000000 		.long	LCFI4-Ltext0
 4999 027c 0200     		.word	0x2
 5000 027e 74       		.byte	0x74
 5001 027f 08       		.sleb128 8
 5002 0280 E9000000 		.long	LCFI4-Ltext0
 5003 0284 F0000000 		.long	LCFI5-Ltext0
 5004 0288 0200     		.word	0x2
 5005 028a 75       		.byte	0x75
 5006 028b 08       		.sleb128 8
 5007 028c F0000000 		.long	LCFI5-Ltext0
 5008 0290 F1000000 		.long	LFE5-Ltext0
 5009 0294 0200     		.word	0x2
 5010 0296 74       		.byte	0x74
 5011 0297 04       		.sleb128 4
 5012 0298 00000000 		.long	0
 5013 029c 00000000 		.long	0
 5014              	LLST0:
 5015 02a0 00000000 		.long	LFB4-Ltext0
 5016 02a4 01000000 		.long	LCFI0-Ltext0
 5017 02a8 0200     		.word	0x2
 5018 02aa 74       		.byte	0x74
 5019 02ab 04       		.sleb128 4
 5020 02ac 01000000 		.long	LCFI0-Ltext0
GAS LISTING C:\Users\jisu8\AppData\Local\Temp\cc5AG2CR.s 			page 107


 5021 02b0 03000000 		.long	LCFI1-Ltext0
 5022 02b4 0200     		.word	0x2
 5023 02b6 74       		.byte	0x74
 5024 02b7 08       		.sleb128 8
 5025 02b8 03000000 		.long	LCFI1-Ltext0
 5026 02bc E5000000 		.long	LCFI2-Ltext0
 5027 02c0 0200     		.word	0x2
 5028 02c2 75       		.byte	0x75
 5029 02c3 08       		.sleb128 8
 5030 02c4 E5000000 		.long	LCFI2-Ltext0
 5031 02c8 E6000000 		.long	LFE4-Ltext0
 5032 02cc 0200     		.word	0x2
 5033 02ce 74       		.byte	0x74
 5034 02cf 04       		.sleb128 4
 5035 02d0 00000000 		.long	0
 5036 02d4 00000000 		.long	0
 5037              		.section	.debug_aranges,"dr"
 5038 0000 1C000000 		.long	0x1c
 5039 0004 0200     		.word	0x2
 5040 0006 00000000 		.secrel32	Ldebug_info0
 5041 000a 04       		.byte	0x4
 5042 000b 00       		.byte	0
 5043 000c 0000     		.word	0
 5044 000e 0000     		.word	0
 5045 0010 00000000 		.long	Ltext0
 5046 0014 F80F0000 		.long	Letext0-Ltext0
 5047 0018 00000000 		.long	0
 5048 001c 00000000 		.long	0
 5049              		.section	.debug_line,"dr"
 5050              	Ldebug_line0:
 5051 0000 01070000 		.section	.debug_str,"dr"
 5051      02004A01 
 5051      00000101 
 5051      FB0E0D00 
 5051      01010101 
 5052              	LASF12:
 5053 0000 62617263 		.ascii "barcodeRow\0"
 5053      6F646552 
 5053      6F7700
 5054              	LASF15:
 5055 000b 636F6465 		.ascii "codewordsRow\0"
 5055      776F7264 
 5055      73526F77 
 5055      00
 5056              	LASF16:
 5057 0018 726F7744 		.ascii "rowDifference\0"
 5057      69666665 
 5057      72656E63 
 5057      6500
 5058              	LASF7:
 5059 0026 636F6465 		.ascii "codewordRowNumber\0"
 5059      776F7264 
 5059      526F774E 
 5059      756D6265 
 5059      7200
 5060              	LASF11:
 5061 0038 66697273 		.ascii "firstRow\0"
GAS LISTING C:\Users\jisu8\AppData\Local\Temp\cc5AG2CR.s 			page 108


 5061      74526F77 
 5061      00
 5062              	LASF0:
 5063 0041 6D5F6861 		.ascii "m_hasValue\0"
 5063      7356616C 
 5063      756500
 5064              	LASF13:
 5065 004c 6D617852 		.ascii "maxRowHeight\0"
 5065      6F774865 
 5065      69676874 
 5065      00
 5066              	LASF14:
 5067 0059 63757272 		.ascii "currentRowHeight\0"
 5067      656E7452 
 5067      6F774865 
 5067      69676874 
 5067      00
 5068              	LASF9:
 5069 006a 62617263 		.ascii "barcodeMetadata\0"
 5069      6F64654D 
 5069      65746164 
 5069      61746100 
 5070              	LASF5:
 5071 007a 6C656E67 		.ascii "length\0"
 5071      746800
 5072              	LASF3:
 5073 0081 636F6465 		.ascii "codewords\0"
 5073      776F7264 
 5073      7300
 5074              	LASF6:
 5075 008b 726F7749 		.ascii "rowIndicatorValue\0"
 5075      6E646963 
 5075      61746F72 
 5075      56616C75 
 5075      6500
 5076              	LASF8:
 5077 009d 7072696E 		.ascii "printf\0"
 5077      746600
 5078              	LASF10:
 5079 00a4 73657452 		.ascii "setRowNumberAsRowIndicatorColumn\0"
 5079      6F774E75 
 5079      6D626572 
 5079      4173526F 
 5079      77496E64 
 5080              	LASF4:
 5081 00c5 526F7749 		.ascii "RowIndicatorColumn\0"
 5081      6E646963 
 5081      61746F72 
 5081      436F6C75 
 5081      6D6E00
 5082              	LASF2:
 5083 00d8 726F7749 		.ascii "rowIndicatorColumn\0"
 5083      6E646963 
 5083      61746F72 
 5083      436F6C75 
 5083      6D6E00
 5084              	LASF1:
GAS LISTING C:\Users\jisu8\AppData\Local\Temp\cc5AG2CR.s 			page 109


 5085 00eb 6D5F7661 		.ascii "m_value\0"
 5085      6C756500 
 5086              		.ident	"GCC: (i686-posix-dwarf-rev0, Built by MinGW-W64 project) 8.1.0"
GAS LISTING C:\Users\jisu8\AppData\Local\Temp\cc5AG2CR.s 			page 110


DEFINED SYMBOLS
                            *ABS*:00000000 PDFDetectionResultColumn.c
C:\Users\jisu8\AppData\Local\Temp\cc5AG2CR.s:6      .rdata:00000000 _MAX_NEARBY_DISTANCE
C:\Users\jisu8\AppData\Local\Temp\cc5AG2CR.s:9      .rdata:00000004 _MIN_ROWS_IN_BARCODE
C:\Users\jisu8\AppData\Local\Temp\cc5AG2CR.s:12     .rdata:00000008 _MAX_ROWS_IN_BARCODE
                            *COM*:00000fa0 _codewords
C:\Users\jisu8\AppData\Local\Temp\cc5AG2CR.s:20     .text:00000000 _DetectionResultColumn
C:\Users\jisu8\AppData\Local\Temp\cc5AG2CR.s:141    .text:000000e6 _allCodewords
C:\Users\jisu8\AppData\Local\Temp\cc5AG2CR.s:165    .text:000000f1 _isRowIndicator
C:\Users\jisu8\AppData\Local\Temp\cc5AG2CR.s:192    .text:00000104 _isLeftRowIndicator
C:\Users\jisu8\AppData\Local\Temp\cc5AG2CR.s:219    .text:00000118 _codewordNearby
C:\Users\jisu8\AppData\Local\Temp\cc5AG2CR.s:433    .text:000002cf _setRowNumbers
C:\Users\jisu8\AppData\Local\Temp\cc5AG2CR.s:490    .text:00000312 _clear_var
C:\Users\jisu8\AppData\Local\Temp\cc5AG2CR.s:533    .text:00000350 _RemoveIncorrectCodewords
C:\Users\jisu8\AppData\Local\Temp\cc5AG2CR.s:800    .text:0000053e _adjustCompleteIndicatorColumnRowNumbers
C:\Users\jisu8\AppData\Local\Temp\cc5AG2CR.s:1204   .text:000008c6 _adjustIncompleteIndicatorColumnRowNumbers
C:\Users\jisu8\AppData\Local\Temp\cc5AG2CR.s:1489   .text:00000b31 _getRowHeights
C:\Users\jisu8\AppData\Local\Temp\cc5AG2CR.s:1672   .text:00000c96 _setRowNumberAsRowIndicatorColumn
C:\Users\jisu8\AppData\Local\Temp\cc5AG2CR.s:1736   .text:00000ce4 _getBarcodeMetadata

UNDEFINED SYMBOLS
___chkstk_ms
_printf
_puts
_rowCount
_topLeft
_topRight
_bottomLeft
_bottomRight
_fill
_BarcodeSetValue
_BarcodeValue
