GAS LISTING C:\Users\jisu8\AppData\Local\Temp\ccC0pYc9.s 			page 1


   1              		.file	"PDFDecodedBitStreamParser.c"
   2              		.text
   3              	Ltext0:
   4              		.section .rdata,"dr"
   5              		.align 4
   6              	_MAX_NUMERIC_CODEWORDS:
   7 0000 0F000000 		.long	15
   8              	LC0:
   9 0004 3B3C3E40 		.ascii ";<>@[\\]_`~!\15\11,:\12-.$/\"|*()?{}'\0"
   9      5B5C5D5F 
   9      607E210D 
   9      092C3A0A 
   9      2D2E242F 
  10              		.data
  11              		.align 4
  12              	_PUNCT_CHARS:
  13 0000 04000000 		.long	LC0
  14              		.section .rdata,"dr"
  15              	LC1:
  16 0022 30313233 		.ascii "0123456789&\15\11,:#-.$/+%*=^\0"
  16      34353637 
  16      3839260D 
  16      092C3A23 
  16      2D2E242F 
  17              		.data
  18              		.align 4
  19              	_MIXED_CHARS:
  20 0004 22000000 		.long	LC1
  21              		.section .rdata,"dr"
  22              		.align 4
  23              	_NUMBER_OF_SEQUENCE_CODEWORDS:
  24 003c 02000000 		.long	2
  25              		.text
  27              	_TerminatesCompaction:
  28              	LFB17:
  29              		.file 1 "src/pdf417/PDFDecodedBitStreamParser.c"
   1:src/pdf417/PDFDecodedBitStreamParser.c **** /*
   2:src/pdf417/PDFDecodedBitStreamParser.c **** * Copyright 2016 Nu-book Inc.
   3:src/pdf417/PDFDecodedBitStreamParser.c **** * Copyright 2016 ZXing authors
   4:src/pdf417/PDFDecodedBitStreamParser.c **** *
   5:src/pdf417/PDFDecodedBitStreamParser.c **** * Licensed under the Apache License, Version 2.0 (the "License");
   6:src/pdf417/PDFDecodedBitStreamParser.c **** * you may not use this file except in compliance with the License.
   7:src/pdf417/PDFDecodedBitStreamParser.c **** * You may obtain a copy of the License at
   8:src/pdf417/PDFDecodedBitStreamParser.c **** *
   9:src/pdf417/PDFDecodedBitStreamParser.c **** *      http://www.apache.org/licenses/LICENSE-2.0
  10:src/pdf417/PDFDecodedBitStreamParser.c **** *
  11:src/pdf417/PDFDecodedBitStreamParser.c **** * Unless required by applicable law or agreed to in writing, software
  12:src/pdf417/PDFDecodedBitStreamParser.c **** * distributed under the License is distributed on an "AS IS" BASIS,
  13:src/pdf417/PDFDecodedBitStreamParser.c **** * WITHOUT WARRANTIES OR CONDITIONS OF ANY KIND, either express or implied.
  14:src/pdf417/PDFDecodedBitStreamParser.c **** * See the License for the specific language governing permissions and
  15:src/pdf417/PDFDecodedBitStreamParser.c **** * limitations under the License.
  16:src/pdf417/PDFDecodedBitStreamParser.c **** */
  17:src/pdf417/PDFDecodedBitStreamParser.c **** 
  18:src/pdf417/PDFDecodedBitStreamParser.c **** #include "PDFDecodedBitStreamParser.h"
  19:src/pdf417/PDFDecodedBitStreamParser.c **** #include "PDFDecoderResultExtra.h"
  20:src/pdf417/PDFDecodedBitStreamParser.c **** #include "CharacterSet.h"
  21:src/pdf417/PDFDecodedBitStreamParser.c **** #include "TextDecoder.h"
GAS LISTING C:\Users\jisu8\AppData\Local\Temp\ccC0pYc9.s 			page 2


  22:src/pdf417/PDFDecodedBitStreamParser.c **** #include "Library.h"
  23:src/pdf417/PDFDecodedBitStreamParser.c **** #include <string.h>
  24:src/pdf417/PDFDecodedBitStreamParser.c **** #include <stdlib.h>
  25:src/pdf417/PDFDecodedBitStreamParser.c **** #include <stdio.h>
  26:src/pdf417/PDFDecodedBitStreamParser.c **** 
  27:src/pdf417/PDFDecodedBitStreamParser.c **** typedef enum 
  28:src/pdf417/PDFDecodedBitStreamParser.c **** {
  29:src/pdf417/PDFDecodedBitStreamParser.c **** 	ALPHA,
  30:src/pdf417/PDFDecodedBitStreamParser.c **** 	LOWER,
  31:src/pdf417/PDFDecodedBitStreamParser.c **** 	MIXED,
  32:src/pdf417/PDFDecodedBitStreamParser.c **** 	PUNCT,
  33:src/pdf417/PDFDecodedBitStreamParser.c **** 	ALPHA_SHIFT,
  34:src/pdf417/PDFDecodedBitStreamParser.c **** 	PUNCT_SHIFT
  35:src/pdf417/PDFDecodedBitStreamParser.c **** }Mode_t;
  36:src/pdf417/PDFDecodedBitStreamParser.c **** 
  37:src/pdf417/PDFDecodedBitStreamParser.c **** typedef enum
  38:src/pdf417/PDFDecodedBitStreamParser.c **** {
  39:src/pdf417/PDFDecodedBitStreamParser.c **** 	TEXT_COMPACTION_MODE_LATCH = 900,
  40:src/pdf417/PDFDecodedBitStreamParser.c **** 	BYTE_COMPACTION_MODE_LATCH = 901,
  41:src/pdf417/PDFDecodedBitStreamParser.c **** 	NUMERIC_COMPACTION_MODE_LATCH = 902,
  42:src/pdf417/PDFDecodedBitStreamParser.c **** 	// 903-912 reserved
  43:src/pdf417/PDFDecodedBitStreamParser.c **** 	MODE_SHIFT_TO_BYTE_COMPACTION_MODE = 913,
  44:src/pdf417/PDFDecodedBitStreamParser.c **** 	// 914-917 reserved
  45:src/pdf417/PDFDecodedBitStreamParser.c **** 	LINKAGE_OTHER = 918,
  46:src/pdf417/PDFDecodedBitStreamParser.c **** 	// 919 reserved
  47:src/pdf417/PDFDecodedBitStreamParser.c **** 	LINKAGE_EANUCC = 920, // GS1 Composite
  48:src/pdf417/PDFDecodedBitStreamParser.c **** 	READER_INIT = 921, // Reader Initialisation/Programming
  49:src/pdf417/PDFDecodedBitStreamParser.c **** 	MACRO_PDF417_TERMINATOR = 922,
  50:src/pdf417/PDFDecodedBitStreamParser.c **** 	BEGIN_MACRO_PDF417_OPTIONAL_FIELD = 923,
  51:src/pdf417/PDFDecodedBitStreamParser.c **** 	BYTE_COMPACTION_MODE_LATCH_6 = 924,
  52:src/pdf417/PDFDecodedBitStreamParser.c **** 	ECI_USER_DEFINED = 925, // 810900-811799 (1 codeword)
  53:src/pdf417/PDFDecodedBitStreamParser.c **** 	ECI_GENERAL_PURPOSE = 926, // 900-810899 (2 codewords)
  54:src/pdf417/PDFDecodedBitStreamParser.c **** 	ECI_CHARSET = 927, // 0-899 (1 codeword)
  55:src/pdf417/PDFDecodedBitStreamParser.c **** 	BEGIN_MACRO_PDF417_CONTROL_BLOCK = 928
  56:src/pdf417/PDFDecodedBitStreamParser.c **** }code_t;
  57:src/pdf417/PDFDecodedBitStreamParser.c **** 
  58:src/pdf417/PDFDecodedBitStreamParser.c **** 
  59:src/pdf417/PDFDecodedBitStreamParser.c **** static const int MAX_NUMERIC_CODEWORDS = 15;
  60:src/pdf417/PDFDecodedBitStreamParser.c **** typedef enum
  61:src/pdf417/PDFDecodedBitStreamParser.c **** {
  62:src/pdf417/PDFDecodedBitStreamParser.c **** 	MACRO_PDF417_OPTIONAL_FIELD_FILE_NAME = 0,
  63:src/pdf417/PDFDecodedBitStreamParser.c **** 	MACRO_PDF417_OPTIONAL_FIELD_SEGMENT_COUNT = 1,
  64:src/pdf417/PDFDecodedBitStreamParser.c **** 	MACRO_PDF417_OPTIONAL_FIELD_TIME_STAMP = 2,
  65:src/pdf417/PDFDecodedBitStreamParser.c **** 	MACRO_PDF417_OPTIONAL_FIELD_SENDER = 3,
  66:src/pdf417/PDFDecodedBitStreamParser.c **** 	MACRO_PDF417_OPTIONAL_FIELD_ADDRESSEE = 4,
  67:src/pdf417/PDFDecodedBitStreamParser.c **** 	MACRO_PDF417_OPTIONAL_FIELD_FILE_SIZE = 5,
  68:src/pdf417/PDFDecodedBitStreamParser.c **** 	MACRO_PDF417_OPTIONAL_FIELD_CHECKSUM = 6
  69:src/pdf417/PDFDecodedBitStreamParser.c **** }codeIndex_t;
  70:src/pdf417/PDFDecodedBitStreamParser.c **** 
  71:src/pdf417/PDFDecodedBitStreamParser.c **** 
  72:src/pdf417/PDFDecodedBitStreamParser.c **** static const char* PUNCT_CHARS = ";<>@[\\]_`~!\r\t,:\n-.$/\"|*()?{}'";
  73:src/pdf417/PDFDecodedBitStreamParser.c **** static const char* MIXED_CHARS = "0123456789&\r\t,:#-.$/+%*=^";
  74:src/pdf417/PDFDecodedBitStreamParser.c **** 
  75:src/pdf417/PDFDecodedBitStreamParser.c **** static const int NUMBER_OF_SEQUENCE_CODEWORDS = 2;
  76:src/pdf417/PDFDecodedBitStreamParser.c **** 
  77:src/pdf417/PDFDecodedBitStreamParser.c **** /**
  78:src/pdf417/PDFDecodedBitStreamParser.c **** * Whether a codeword terminates a Compaction mode.
GAS LISTING C:\Users\jisu8\AppData\Local\Temp\ccC0pYc9.s 			page 3


  79:src/pdf417/PDFDecodedBitStreamParser.c **** *
  80:src/pdf417/PDFDecodedBitStreamParser.c **** * See ISO/IEC 15438:2015 5.4.2.5 (Text), 5.4.3.4 (Byte), 5.4.4.3 (Numeric)
  81:src/pdf417/PDFDecodedBitStreamParser.c **** */
  82:src/pdf417/PDFDecodedBitStreamParser.c **** 
  83:src/pdf417/PDFDecodedBitStreamParser.c **** static uint8_t TerminatesCompaction(int code)
  84:src/pdf417/PDFDecodedBitStreamParser.c **** {
  30              		.loc 1 84 1
  31              		.cfi_startproc
  32 0000 55       		pushl	%ebp
  33              	LCFI0:
  34              		.cfi_def_cfa_offset 8
  35              		.cfi_offset 5, -8
  36 0001 89E5     		movl	%esp, %ebp
  37              	LCFI1:
  38              		.cfi_def_cfa_register 5
  85:src/pdf417/PDFDecodedBitStreamParser.c **** 	switch (code) 
  39              		.loc 1 85 2
  40 0003 8B4508   		movl	8(%ebp), %eax
  41 0006 2D840300 		subl	$900, %eax
  41      00
  42 000b 83F81C   		cmpl	$28, %eax
  43 000e 7710     		ja	L2
  44 0010 8B048540 		movl	L4(,%eax,4), %eax
  44      000000
  45 0017 FFE0     		jmp	*%eax
  46              		.section .rdata,"dr"
  47              		.align 4
  48              	L4:
  49 0040 19000000 		.long	L3
  50 0044 19000000 		.long	L3
  51 0048 19000000 		.long	L3
  52 004c 20000000 		.long	L2
  53 0050 20000000 		.long	L2
  54 0054 20000000 		.long	L2
  55 0058 20000000 		.long	L2
  56 005c 20000000 		.long	L2
  57 0060 20000000 		.long	L2
  58 0064 20000000 		.long	L2
  59 0068 20000000 		.long	L2
  60 006c 20000000 		.long	L2
  61 0070 20000000 		.long	L2
  62 0074 20000000 		.long	L2
  63 0078 20000000 		.long	L2
  64 007c 20000000 		.long	L2
  65 0080 20000000 		.long	L2
  66 0084 20000000 		.long	L2
  67 0088 20000000 		.long	L2
  68 008c 20000000 		.long	L2
  69 0090 20000000 		.long	L2
  70 0094 20000000 		.long	L2
  71 0098 19000000 		.long	L3
  72 009c 19000000 		.long	L3
  73 00a0 19000000 		.long	L3
  74 00a4 20000000 		.long	L2
  75 00a8 20000000 		.long	L2
  76 00ac 20000000 		.long	L2
  77 00b0 19000000 		.long	L3
GAS LISTING C:\Users\jisu8\AppData\Local\Temp\ccC0pYc9.s 			page 4


  78              		.text
  79              	L3:
  86:src/pdf417/PDFDecodedBitStreamParser.c **** 	{
  87:src/pdf417/PDFDecodedBitStreamParser.c **** 		case TEXT_COMPACTION_MODE_LATCH:
  88:src/pdf417/PDFDecodedBitStreamParser.c **** 		case BYTE_COMPACTION_MODE_LATCH:
  89:src/pdf417/PDFDecodedBitStreamParser.c **** 		case NUMERIC_COMPACTION_MODE_LATCH:
  90:src/pdf417/PDFDecodedBitStreamParser.c **** 		case BYTE_COMPACTION_MODE_LATCH_6:
  91:src/pdf417/PDFDecodedBitStreamParser.c **** 		case BEGIN_MACRO_PDF417_CONTROL_BLOCK:
  92:src/pdf417/PDFDecodedBitStreamParser.c **** 		case BEGIN_MACRO_PDF417_OPTIONAL_FIELD:
  93:src/pdf417/PDFDecodedBitStreamParser.c **** 		case MACRO_PDF417_TERMINATOR:
  94:src/pdf417/PDFDecodedBitStreamParser.c **** 			return 1;
  80              		.loc 1 94 11
  81 0019 B8010000 		movl	$1, %eax
  81      00
  82 001e EB05     		jmp	L5
  83              	L2:
  95:src/pdf417/PDFDecodedBitStreamParser.c **** 		break;
  96:src/pdf417/PDFDecodedBitStreamParser.c **** 	}
  97:src/pdf417/PDFDecodedBitStreamParser.c **** 
  98:src/pdf417/PDFDecodedBitStreamParser.c **** 	return 0;
  84              		.loc 1 98 9
  85 0020 B8000000 		movl	$0, %eax
  85      00
  86              	L5:
  99:src/pdf417/PDFDecodedBitStreamParser.c **** }
  87              		.loc 1 99 1
  88 0025 5D       		popl	%ebp
  89              	LCFI2:
  90              		.cfi_restore 5
  91              		.cfi_def_cfa 4, 4
  92 0026 C3       		ret
  93              		.cfi_endproc
  94              	LFE17:
  95              		.section .rdata,"dr"
  96              	LC2:
  97 00b4 50726F63 		.ascii "ProcessECI\0"
  97      65737345 
  97      434900
  98              		.text
 100              	_ProcessECI:
 101              	LFB18:
 100:src/pdf417/PDFDecodedBitStreamParser.c **** 
 101:src/pdf417/PDFDecodedBitStreamParser.c **** /**
 102:src/pdf417/PDFDecodedBitStreamParser.c **** * Helper to process ECIs.
 103:src/pdf417/PDFDecodedBitStreamParser.c **** **/
 104:src/pdf417/PDFDecodedBitStreamParser.c **** static int ProcessECI(const int * codewords, int codeIndex, const int length, const int code,
 105:src/pdf417/PDFDecodedBitStreamParser.c **** 					  unsigned char * resultEncoded, char * result, CharacterSet_t * encoding)
 106:src/pdf417/PDFDecodedBitStreamParser.c **** {
 102              		.loc 1 106 1
 103              		.cfi_startproc
 104 0027 55       		pushl	%ebp
 105              	LCFI3:
 106              		.cfi_def_cfa_offset 8
 107              		.cfi_offset 5, -8
 108 0028 89E5     		movl	%esp, %ebp
 109              	LCFI4:
 110              		.cfi_def_cfa_register 5
GAS LISTING C:\Users\jisu8\AppData\Local\Temp\ccC0pYc9.s 			page 5


 111 002a 83EC18   		subl	$24, %esp
 107:src/pdf417/PDFDecodedBitStreamParser.c **** 	printf("ProcessECI\n");
 112              		.loc 1 107 2
 113 002d C70424B4 		movl	$LC2, (%esp)
 113      000000
 114 0034 E8000000 		call	_puts
 114      00
 108:src/pdf417/PDFDecodedBitStreamParser.c **** 
 109:src/pdf417/PDFDecodedBitStreamParser.c **** 	if (codeIndex < length && code >= ECI_USER_DEFINED && code <= ECI_CHARSET) 
 115              		.loc 1 109 5
 116 0039 8B450C   		movl	12(%ebp), %eax
 117 003c 3B4510   		cmpl	16(%ebp), %eax
 118 003f 7D33     		jge	L7
 119              		.loc 1 109 25 discriminator 1
 120 0041 817D149C 		cmpl	$924, 20(%ebp)
 120      030000
 121 0048 7E2A     		jle	L7
 122              		.loc 1 109 53 discriminator 2
 123 004a 817D149F 		cmpl	$927, 20(%ebp)
 123      030000
 124 0051 7F21     		jg	L7
 110:src/pdf417/PDFDecodedBitStreamParser.c **** 	{
 111:src/pdf417/PDFDecodedBitStreamParser.c **** 		if (code == ECI_CHARSET) 
 125              		.loc 1 111 6
 126 0053 817D149F 		cmpl	$927, 20(%ebp)
 126      030000
 127 005a 7418     		je	L7
 112:src/pdf417/PDFDecodedBitStreamParser.c **** 		{
 113:src/pdf417/PDFDecodedBitStreamParser.c **** 			//encoding = OnChangeAppendReset(codewords[codeIndex++], resultEncoded, result, encoding);
 114:src/pdf417/PDFDecodedBitStreamParser.c **** 		}
 115:src/pdf417/PDFDecodedBitStreamParser.c **** 		else 
 116:src/pdf417/PDFDecodedBitStreamParser.c **** 		{
 117:src/pdf417/PDFDecodedBitStreamParser.c **** 			// Don't currently handle non-character set ECIs so just ignore
 118:src/pdf417/PDFDecodedBitStreamParser.c **** 			codeIndex += code == ECI_GENERAL_PURPOSE ? 2 : 1;
 128              		.loc 1 118 49
 129 005c 817D149E 		cmpl	$926, 20(%ebp)
 129      030000
 130 0063 7507     		jne	L8
 131              		.loc 1 118 49 is_stmt 0 discriminator 1
 132 0065 B8020000 		movl	$2, %eax
 132      00
 133 006a EB05     		jmp	L9
 134              	L8:
 135              		.loc 1 118 49 discriminator 2
 136 006c B8010000 		movl	$1, %eax
 136      00
 137              	L9:
 138              		.loc 1 118 14 is_stmt 1 discriminator 4
 139 0071 01450C   		addl	%eax, 12(%ebp)
 140              	L7:
 119:src/pdf417/PDFDecodedBitStreamParser.c **** 		}
 120:src/pdf417/PDFDecodedBitStreamParser.c **** 	}
 121:src/pdf417/PDFDecodedBitStreamParser.c **** 
 122:src/pdf417/PDFDecodedBitStreamParser.c **** 	return codeIndex;
 141              		.loc 1 122 9
 142 0074 8B450C   		movl	12(%ebp), %eax
 123:src/pdf417/PDFDecodedBitStreamParser.c **** }
GAS LISTING C:\Users\jisu8\AppData\Local\Temp\ccC0pYc9.s 			page 6


 143              		.loc 1 123 1
 144 0077 C9       		leave
 145              	LCFI5:
 146              		.cfi_restore 5
 147              		.cfi_def_cfa 4, 4
 148 0078 C3       		ret
 149              		.cfi_endproc
 150              	LFE18:
 151              		.section .rdata,"dr"
 152              	LC3:
 153 00bf 4465636F 		.ascii "DecodeTextCompaction\0"
 153      64655465 
 153      7874436F 
 153      6D706163 
 153      74696F6E 
 154              		.text
 156              	_DecodeTextCompaction:
 157              	LFB19:
 124:src/pdf417/PDFDecodedBitStreamParser.c **** 
 125:src/pdf417/PDFDecodedBitStreamParser.c **** /**
 126:src/pdf417/PDFDecodedBitStreamParser.c **** * The Text Compaction mode includes all the printable ASCII characters
 127:src/pdf417/PDFDecodedBitStreamParser.c **** * (i.e. values from 32 to 126) and three ASCII control characters: HT or tab
 128:src/pdf417/PDFDecodedBitStreamParser.c **** * (ASCII value 9), LF or line feed (ASCII value 10), and CR or carriage
 129:src/pdf417/PDFDecodedBitStreamParser.c **** * return (ASCII value 13). The Text Compaction mode also includes various latch
 130:src/pdf417/PDFDecodedBitStreamParser.c **** * and shift characters which are used exclusively within the mode. The Text
 131:src/pdf417/PDFDecodedBitStreamParser.c **** * Compaction mode encodes up to 2 characters per codeword. The compaction rules
 132:src/pdf417/PDFDecodedBitStreamParser.c **** * for converting data into PDF417 codewords are defined in 5.4.2.2. The sub-mode
 133:src/pdf417/PDFDecodedBitStreamParser.c **** * switches are defined in 5.4.2.3.
 134:src/pdf417/PDFDecodedBitStreamParser.c **** *
 135:src/pdf417/PDFDecodedBitStreamParser.c **** * @param textCompactionData The text compaction data.
 136:src/pdf417/PDFDecodedBitStreamParser.c **** * @param length             The size of the text compaction data.
 137:src/pdf417/PDFDecodedBitStreamParser.c **** * @param resultEncoded      The Unicode-encoded data.
 138:src/pdf417/PDFDecodedBitStreamParser.c **** * @param result             The data in the character set encoding.
 139:src/pdf417/PDFDecodedBitStreamParser.c **** * @param encoding           Currently active character encoding.
 140:src/pdf417/PDFDecodedBitStreamParser.c **** */
 141:src/pdf417/PDFDecodedBitStreamParser.c **** 
 142:src/pdf417/PDFDecodedBitStreamParser.c **** static void DecodeTextCompaction(const int * textCompactionData, int length, unsigned char * result
 143:src/pdf417/PDFDecodedBitStreamParser.c **** 								 char * result, CharacterSet_t * encoding)
 144:src/pdf417/PDFDecodedBitStreamParser.c **** {
 158              		.loc 1 144 1
 159              		.cfi_startproc
 160 0079 55       		pushl	%ebp
 161              	LCFI6:
 162              		.cfi_def_cfa_offset 8
 163              		.cfi_offset 5, -8
 164 007a 89E5     		movl	%esp, %ebp
 165              	LCFI7:
 166              		.cfi_def_cfa_register 5
 167 007c 83EC48   		subl	$72, %esp
 145:src/pdf417/PDFDecodedBitStreamParser.c **** 
 146:src/pdf417/PDFDecodedBitStreamParser.c **** 	printf("DecodeTextCompaction\n");
 168              		.loc 1 146 2
 169 007f C70424BF 		movl	$LC3, (%esp)
 169      000000
 170 0086 E8000000 		call	_puts
 170      00
 147:src/pdf417/PDFDecodedBitStreamParser.c **** 
GAS LISTING C:\Users\jisu8\AppData\Local\Temp\ccC0pYc9.s 			page 7


 148:src/pdf417/PDFDecodedBitStreamParser.c **** 	// Beginning from an initial state of the Alpha sub-mode
 149:src/pdf417/PDFDecodedBitStreamParser.c **** 	// The default compaction mode for PDF417 in effect at the start of each symbol shall always be Te
 150:src/pdf417/PDFDecodedBitStreamParser.c **** 	// Compaction mode Alpha sub-mode (uppercase alphabetic). A latch codeword from another mode to th
 151:src/pdf417/PDFDecodedBitStreamParser.c **** 	// Compaction mode shall always switch to the Text Compaction Alpha sub-mode.
 152:src/pdf417/PDFDecodedBitStreamParser.c **** 	Mode_t subMode = ALPHA;
 171              		.loc 1 152 9
 172 008b C745F400 		movl	$0, -12(%ebp)
 172      000000
 153:src/pdf417/PDFDecodedBitStreamParser.c **** 	Mode_t priorToShiftMode = ALPHA;
 173              		.loc 1 153 9
 174 0092 C745F000 		movl	$0, -16(%ebp)
 174      000000
 154:src/pdf417/PDFDecodedBitStreamParser.c **** 
 155:src/pdf417/PDFDecodedBitStreamParser.c **** 	int i = 0;
 175              		.loc 1 155 6
 176 0099 C745EC00 		movl	$0, -20(%ebp)
 176      000000
 156:src/pdf417/PDFDecodedBitStreamParser.c **** 	int character_idx = 0;
 177              		.loc 1 156 6
 178 00a0 C745E800 		movl	$0, -24(%ebp)
 178      000000
 157:src/pdf417/PDFDecodedBitStreamParser.c **** 	while (i < length) 
 179              		.loc 1 157 8
 180 00a7 E9290300 		jmp	L12
 180      00
 181              	L47:
 182              	LBB2:
 158:src/pdf417/PDFDecodedBitStreamParser.c **** 	{
 159:src/pdf417/PDFDecodedBitStreamParser.c **** 		int subModeCh = textCompactionData[i];
 183              		.loc 1 159 37
 184 00ac 8B45EC   		movl	-20(%ebp), %eax
 185 00af 8D148500 		leal	0(,%eax,4), %edx
 185      000000
 186 00b6 8B4508   		movl	8(%ebp), %eax
 187 00b9 01D0     		addl	%edx, %eax
 188              		.loc 1 159 7
 189 00bb 8B00     		movl	(%eax), %eax
 190 00bd 8945E0   		movl	%eax, -32(%ebp)
 160:src/pdf417/PDFDecodedBitStreamParser.c **** 
 161:src/pdf417/PDFDecodedBitStreamParser.c **** 		// Note only have ECI and MODE_SHIFT_TO_BYTE_COMPACTION_MODE function codewords in text compactio
 162:src/pdf417/PDFDecodedBitStreamParser.c **** 		if (subModeCh >= ECI_USER_DEFINED && subModeCh <= ECI_CHARSET) 
 191              		.loc 1 162 6
 192 00c0 817DE09C 		cmpl	$924, -32(%ebp)
 192      030000
 193 00c7 7E49     		jle	L13
 194              		.loc 1 162 37 discriminator 1
 195 00c9 817DE09F 		cmpl	$927, -32(%ebp)
 195      030000
 196 00d0 7F40     		jg	L13
 163:src/pdf417/PDFDecodedBitStreamParser.c **** 		{
 164:src/pdf417/PDFDecodedBitStreamParser.c **** 			i = ProcessECI(textCompactionData, i + 1, length, subModeCh, resultEncoded, result, encoding);
 197              		.loc 1 164 8
 198 00d2 8B45EC   		movl	-20(%ebp), %eax
 199 00d5 8D5001   		leal	1(%eax), %edx
 200 00d8 8B4518   		movl	24(%ebp), %eax
 201 00db 89442418 		movl	%eax, 24(%esp)
 202 00df 8B4514   		movl	20(%ebp), %eax
GAS LISTING C:\Users\jisu8\AppData\Local\Temp\ccC0pYc9.s 			page 8


 203 00e2 89442414 		movl	%eax, 20(%esp)
 204 00e6 8B4510   		movl	16(%ebp), %eax
 205 00e9 89442410 		movl	%eax, 16(%esp)
 206 00ed 8B45E0   		movl	-32(%ebp), %eax
 207 00f0 8944240C 		movl	%eax, 12(%esp)
 208 00f4 8B450C   		movl	12(%ebp), %eax
 209 00f7 89442408 		movl	%eax, 8(%esp)
 210 00fb 89542404 		movl	%edx, 4(%esp)
 211 00ff 8B4508   		movl	8(%ebp), %eax
 212 0102 890424   		movl	%eax, (%esp)
 213 0105 E81DFFFF 		call	_ProcessECI
 213      FF
 214 010a 8945EC   		movl	%eax, -20(%ebp)
 165:src/pdf417/PDFDecodedBitStreamParser.c **** 			continue;
 215              		.loc 1 165 4
 216 010d E9C30200 		jmp	L12
 216      00
 217              	L13:
 166:src/pdf417/PDFDecodedBitStreamParser.c **** 		}
 167:src/pdf417/PDFDecodedBitStreamParser.c **** 
 168:src/pdf417/PDFDecodedBitStreamParser.c **** 		if (subModeCh == MODE_SHIFT_TO_BYTE_COMPACTION_MODE) 
 218              		.loc 1 168 6
 219 0112 817DE091 		cmpl	$913, -32(%ebp)
 219      030000
 220 0119 0F85B400 		jne	L14
 220      0000
 169:src/pdf417/PDFDecodedBitStreamParser.c **** 		{
 170:src/pdf417/PDFDecodedBitStreamParser.c **** 			i++;
 221              		.loc 1 170 5
 222 011f 8345EC01 		addl	$1, -20(%ebp)
 171:src/pdf417/PDFDecodedBitStreamParser.c **** 			while (i < length && textCompactionData[i] >= ECI_USER_DEFINED && textCompactionData[i] <= ECI_C
 223              		.loc 1 171 10
 224 0123 EB49     		jmp	L15
 225              	L17:
 172:src/pdf417/PDFDecodedBitStreamParser.c **** 			{
 173:src/pdf417/PDFDecodedBitStreamParser.c **** 				i = ProcessECI(textCompactionData, i + 1, length, textCompactionData[i], resultEncoded, result,
 226              		.loc 1 173 73
 227 0125 8B45EC   		movl	-20(%ebp), %eax
 228 0128 8D148500 		leal	0(,%eax,4), %edx
 228      000000
 229 012f 8B4508   		movl	8(%ebp), %eax
 230 0132 01D0     		addl	%edx, %eax
 231              		.loc 1 173 9
 232 0134 8B00     		movl	(%eax), %eax
 233 0136 8B55EC   		movl	-20(%ebp), %edx
 234 0139 8D4A01   		leal	1(%edx), %ecx
 235 013c 8B5518   		movl	24(%ebp), %edx
 236 013f 89542418 		movl	%edx, 24(%esp)
 237 0143 8B5514   		movl	20(%ebp), %edx
 238 0146 89542414 		movl	%edx, 20(%esp)
 239 014a 8B5510   		movl	16(%ebp), %edx
 240 014d 89542410 		movl	%edx, 16(%esp)
 241 0151 8944240C 		movl	%eax, 12(%esp)
 242 0155 8B450C   		movl	12(%ebp), %eax
 243 0158 89442408 		movl	%eax, 8(%esp)
 244 015c 894C2404 		movl	%ecx, 4(%esp)
 245 0160 8B4508   		movl	8(%ebp), %eax
GAS LISTING C:\Users\jisu8\AppData\Local\Temp\ccC0pYc9.s 			page 9


 246 0163 890424   		movl	%eax, (%esp)
 247 0166 E8BCFEFF 		call	_ProcessECI
 247      FF
 248 016b 8945EC   		movl	%eax, -20(%ebp)
 249              	L15:
 171:src/pdf417/PDFDecodedBitStreamParser.c **** 			while (i < length && textCompactionData[i] >= ECI_USER_DEFINED && textCompactionData[i] <= ECI_C
 250              		.loc 1 171 10
 251 016e 8B45EC   		movl	-20(%ebp), %eax
 252 0171 3B450C   		cmpl	12(%ebp), %eax
 253 0174 7D34     		jge	L16
 171:src/pdf417/PDFDecodedBitStreamParser.c **** 			while (i < length && textCompactionData[i] >= ECI_USER_DEFINED && textCompactionData[i] <= ECI_C
 254              		.loc 1 171 43 discriminator 1
 255 0176 8B45EC   		movl	-20(%ebp), %eax
 256 0179 8D148500 		leal	0(,%eax,4), %edx
 256      000000
 257 0180 8B4508   		movl	8(%ebp), %eax
 258 0183 01D0     		addl	%edx, %eax
 259 0185 8B00     		movl	(%eax), %eax
 171:src/pdf417/PDFDecodedBitStreamParser.c **** 			while (i < length && textCompactionData[i] >= ECI_USER_DEFINED && textCompactionData[i] <= ECI_C
 260              		.loc 1 171 22 discriminator 1
 261 0187 3D9C0300 		cmpl	$924, %eax
 261      00
 262 018c 7E1C     		jle	L16
 171:src/pdf417/PDFDecodedBitStreamParser.c **** 			while (i < length && textCompactionData[i] >= ECI_USER_DEFINED && textCompactionData[i] <= ECI_C
 263              		.loc 1 171 88 discriminator 2
 264 018e 8B45EC   		movl	-20(%ebp), %eax
 265 0191 8D148500 		leal	0(,%eax,4), %edx
 265      000000
 266 0198 8B4508   		movl	8(%ebp), %eax
 267 019b 01D0     		addl	%edx, %eax
 268 019d 8B00     		movl	(%eax), %eax
 171:src/pdf417/PDFDecodedBitStreamParser.c **** 			while (i < length && textCompactionData[i] >= ECI_USER_DEFINED && textCompactionData[i] <= ECI_C
 269              		.loc 1 171 67 discriminator 2
 270 019f 3D9F0300 		cmpl	$927, %eax
 270      00
 271 01a4 0F8E7BFF 		jle	L17
 271      FFFF
 272              	L16:
 174:src/pdf417/PDFDecodedBitStreamParser.c **** 							   encoding);
 175:src/pdf417/PDFDecodedBitStreamParser.c **** 			}
 176:src/pdf417/PDFDecodedBitStreamParser.c **** 			if (i < length) 
 273              		.loc 1 176 7
 274 01aa 8B45EC   		movl	-20(%ebp), %eax
 275 01ad 3B450C   		cmpl	12(%ebp), %eax
 276 01b0 0F8D1F02 		jge	L12
 276      0000
 177:src/pdf417/PDFDecodedBitStreamParser.c **** 			{
 178:src/pdf417/PDFDecodedBitStreamParser.c **** 				result=textCompactionData[i];
 277              		.loc 1 178 30
 278 01b6 8B45EC   		movl	-20(%ebp), %eax
 279 01b9 8D148500 		leal	0(,%eax,4), %edx
 279      000000
 280 01c0 8B4508   		movl	8(%ebp), %eax
 281 01c3 01D0     		addl	%edx, %eax
 282 01c5 8B00     		movl	(%eax), %eax
 283              		.loc 1 178 11
 284 01c7 894514   		movl	%eax, 20(%ebp)
GAS LISTING C:\Users\jisu8\AppData\Local\Temp\ccC0pYc9.s 			page 10


 179:src/pdf417/PDFDecodedBitStreamParser.c **** 				i++;
 285              		.loc 1 179 6
 286 01ca 8345EC01 		addl	$1, -20(%ebp)
 180:src/pdf417/PDFDecodedBitStreamParser.c **** 			}
 181:src/pdf417/PDFDecodedBitStreamParser.c **** 			continue;
 287              		.loc 1 181 4
 288 01ce E9020200 		jmp	L12
 288      00
 289              	L14:
 182:src/pdf417/PDFDecodedBitStreamParser.c **** 		}
 183:src/pdf417/PDFDecodedBitStreamParser.c **** 
 184:src/pdf417/PDFDecodedBitStreamParser.c **** 		char ch = 0;
 290              		.loc 1 184 8
 291 01d3 C645E700 		movb	$0, -25(%ebp)
 185:src/pdf417/PDFDecodedBitStreamParser.c **** 		switch (subMode) 
 292              		.loc 1 185 3
 293 01d7 837DF405 		cmpl	$5, -12(%ebp)
 294 01db 0F87D801 		ja	L19
 294      0000
 295 01e1 8B45F4   		movl	-12(%ebp), %eax
 296 01e4 C1E002   		sall	$2, %eax
 297 01e7 05D40000 		addl	$L21, %eax
 297      00
 298 01ec 8B00     		movl	(%eax), %eax
 299 01ee FFE0     		jmp	*%eax
 300              		.section .rdata,"dr"
 301              		.align 4
 302              	L21:
 303 00d4 F0010000 		.long	L25
 304 00d8 F0010000 		.long	L25
 305 00dc AB020000 		.long	L24
 306 00e0 45030000 		.long	L23
 307 00e4 67030000 		.long	L22
 308 00e8 8A030000 		.long	L20
 309              		.text
 310              	L25:
 186:src/pdf417/PDFDecodedBitStreamParser.c **** 		{
 187:src/pdf417/PDFDecodedBitStreamParser.c **** 			case ALPHA:
 188:src/pdf417/PDFDecodedBitStreamParser.c **** 			case LOWER:
 189:src/pdf417/PDFDecodedBitStreamParser.c **** 				// Alpha (uppercase alphabetic) or Lower (lowercase alphabetic)
 190:src/pdf417/PDFDecodedBitStreamParser.c **** 				if (subModeCh < 26) 
 311              		.loc 1 190 8
 312 01f0 837DE019 		cmpl	$25, -32(%ebp)
 313 01f4 7F1F     		jg	L26
 191:src/pdf417/PDFDecodedBitStreamParser.c **** 				{
 192:src/pdf417/PDFDecodedBitStreamParser.c **** 					// Upper/lowercase character
 193:src/pdf417/PDFDecodedBitStreamParser.c **** 					ch = (char)((subMode == ALPHA ? 'A' : 'a') + subModeCh);
 314              		.loc 1 193 49
 315 01f6 837DF400 		cmpl	$0, -12(%ebp)
 316 01fa 7507     		jne	L27
 317              		.loc 1 193 49 is_stmt 0 discriminator 1
 318 01fc B8410000 		movl	$65, %eax
 318      00
 319 0201 EB05     		jmp	L28
 320              	L27:
 321              		.loc 1 193 49 discriminator 2
 322 0203 B8610000 		movl	$97, %eax
GAS LISTING C:\Users\jisu8\AppData\Local\Temp\ccC0pYc9.s 			page 11


 322      00
 323              	L28:
 324              		.loc 1 193 49 discriminator 4
 325 0208 8B55E0   		movl	-32(%ebp), %edx
 326 020b 01D0     		addl	%edx, %eax
 327              		.loc 1 193 9 is_stmt 1 discriminator 4
 328 020d 8845E7   		movb	%al, -25(%ebp)
 194:src/pdf417/PDFDecodedBitStreamParser.c **** 				}
 195:src/pdf417/PDFDecodedBitStreamParser.c **** 				else if (subModeCh == 26) 
 196:src/pdf417/PDFDecodedBitStreamParser.c **** 				{ // Space
 197:src/pdf417/PDFDecodedBitStreamParser.c **** 					ch = ' ';
 198:src/pdf417/PDFDecodedBitStreamParser.c **** 				}
 199:src/pdf417/PDFDecodedBitStreamParser.c **** 				else if (subModeCh == 27 && subMode == ALPHA) 
 200:src/pdf417/PDFDecodedBitStreamParser.c **** 				{ // LL
 201:src/pdf417/PDFDecodedBitStreamParser.c **** 					subMode = LOWER;
 202:src/pdf417/PDFDecodedBitStreamParser.c **** 				}
 203:src/pdf417/PDFDecodedBitStreamParser.c **** 				else if (subModeCh == 27 && subMode == LOWER) 
 204:src/pdf417/PDFDecodedBitStreamParser.c **** 				{ // AS
 205:src/pdf417/PDFDecodedBitStreamParser.c **** 					// Shift to alpha
 206:src/pdf417/PDFDecodedBitStreamParser.c **** 					priorToShiftMode = subMode;
 207:src/pdf417/PDFDecodedBitStreamParser.c **** 					subMode = ALPHA_SHIFT;
 208:src/pdf417/PDFDecodedBitStreamParser.c **** 				}
 209:src/pdf417/PDFDecodedBitStreamParser.c **** 				else if (subModeCh == 28) 
 210:src/pdf417/PDFDecodedBitStreamParser.c **** 				{ // ML
 211:src/pdf417/PDFDecodedBitStreamParser.c **** 					subMode = MIXED;
 212:src/pdf417/PDFDecodedBitStreamParser.c **** 				}
 213:src/pdf417/PDFDecodedBitStreamParser.c **** 				// 29 PS - ignore if last or followed by Shift to Byte, 5.4.2.4 (b) (1)
 214:src/pdf417/PDFDecodedBitStreamParser.c **** 				else if (i + 1 < length && textCompactionData[i + 1] != MODE_SHIFT_TO_BYTE_COMPACTION_MODE) 
 215:src/pdf417/PDFDecodedBitStreamParser.c **** 				{
 216:src/pdf417/PDFDecodedBitStreamParser.c **** 					// Shift to punctuation
 217:src/pdf417/PDFDecodedBitStreamParser.c **** 					priorToShiftMode = subMode;
 218:src/pdf417/PDFDecodedBitStreamParser.c **** 					subMode = PUNCT_SHIFT;
 219:src/pdf417/PDFDecodedBitStreamParser.c **** 				}
 220:src/pdf417/PDFDecodedBitStreamParser.c **** 			break;
 329              		.loc 1 220 4 discriminator 4
 330 0210 E99D0100 		jmp	L48
 330      00
 331              	L26:
 195:src/pdf417/PDFDecodedBitStreamParser.c **** 				{ // Space
 332              		.loc 1 195 13
 333 0215 837DE01A 		cmpl	$26, -32(%ebp)
 334 0219 7509     		jne	L30
 197:src/pdf417/PDFDecodedBitStreamParser.c **** 				}
 335              		.loc 1 197 9
 336 021b C645E720 		movb	$32, -25(%ebp)
 337              		.loc 1 220 4
 338 021f E98E0100 		jmp	L48
 338      00
 339              	L30:
 199:src/pdf417/PDFDecodedBitStreamParser.c **** 				{ // LL
 340              		.loc 1 199 13
 341 0224 837DE01B 		cmpl	$27, -32(%ebp)
 342 0228 750F     		jne	L31
 199:src/pdf417/PDFDecodedBitStreamParser.c **** 				{ // LL
 343              		.loc 1 199 30 discriminator 1
 344 022a 837DF400 		cmpl	$0, -12(%ebp)
 345 022e 7509     		jne	L31
GAS LISTING C:\Users\jisu8\AppData\Local\Temp\ccC0pYc9.s 			page 12


 201:src/pdf417/PDFDecodedBitStreamParser.c **** 				}
 346              		.loc 1 201 14
 347 0230 C745F401 		movl	$1, -12(%ebp)
 347      000000
 348 0237 EB6D     		jmp	L29
 349              	L31:
 203:src/pdf417/PDFDecodedBitStreamParser.c **** 				{ // AS
 350              		.loc 1 203 13
 351 0239 837DE01B 		cmpl	$27, -32(%ebp)
 352 023d 7515     		jne	L32
 203:src/pdf417/PDFDecodedBitStreamParser.c **** 				{ // AS
 353              		.loc 1 203 30 discriminator 1
 354 023f 837DF401 		cmpl	$1, -12(%ebp)
 355 0243 750F     		jne	L32
 206:src/pdf417/PDFDecodedBitStreamParser.c **** 					subMode = ALPHA_SHIFT;
 356              		.loc 1 206 23
 357 0245 8B45F4   		movl	-12(%ebp), %eax
 358 0248 8945F0   		movl	%eax, -16(%ebp)
 207:src/pdf417/PDFDecodedBitStreamParser.c **** 				}
 359              		.loc 1 207 14
 360 024b C745F404 		movl	$4, -12(%ebp)
 360      000000
 361 0252 EB52     		jmp	L29
 362              	L32:
 209:src/pdf417/PDFDecodedBitStreamParser.c **** 				{ // ML
 363              		.loc 1 209 13
 364 0254 837DE01C 		cmpl	$28, -32(%ebp)
 365 0258 750C     		jne	L33
 211:src/pdf417/PDFDecodedBitStreamParser.c **** 				}
 366              		.loc 1 211 14
 367 025a C745F402 		movl	$2, -12(%ebp)
 367      000000
 368              		.loc 1 220 4
 369 0261 E94C0100 		jmp	L48
 369      00
 370              	L33:
 214:src/pdf417/PDFDecodedBitStreamParser.c **** 				{
 371              		.loc 1 214 16
 372 0266 8B45EC   		movl	-20(%ebp), %eax
 373 0269 83C001   		addl	$1, %eax
 214:src/pdf417/PDFDecodedBitStreamParser.c **** 				{
 374              		.loc 1 214 13
 375 026c 39450C   		cmpl	%eax, 12(%ebp)
 376 026f 0F8E3D01 		jle	L48
 376      0000
 214:src/pdf417/PDFDecodedBitStreamParser.c **** 				{
 377              		.loc 1 214 50 discriminator 1
 378 0275 8B45EC   		movl	-20(%ebp), %eax
 379 0278 83C001   		addl	$1, %eax
 380 027b 8D148500 		leal	0(,%eax,4), %edx
 380      000000
 381 0282 8B4508   		movl	8(%ebp), %eax
 382 0285 01D0     		addl	%edx, %eax
 383 0287 8B00     		movl	(%eax), %eax
 214:src/pdf417/PDFDecodedBitStreamParser.c **** 				{
 384              		.loc 1 214 29 discriminator 1
 385 0289 3D910300 		cmpl	$913, %eax
GAS LISTING C:\Users\jisu8\AppData\Local\Temp\ccC0pYc9.s 			page 13


 385      00
 386 028e 0F841E01 		je	L48
 386      0000
 217:src/pdf417/PDFDecodedBitStreamParser.c **** 					subMode = PUNCT_SHIFT;
 387              		.loc 1 217 23
 388 0294 8B45F4   		movl	-12(%ebp), %eax
 389 0297 8945F0   		movl	%eax, -16(%ebp)
 218:src/pdf417/PDFDecodedBitStreamParser.c **** 				}
 390              		.loc 1 218 14
 391 029a C745F405 		movl	$5, -12(%ebp)
 391      000000
 392              		.loc 1 220 4
 393 02a1 E90C0100 		jmp	L48
 393      00
 394              	L29:
 395 02a6 E9070100 		jmp	L48
 395      00
 396              	L24:
 221:src/pdf417/PDFDecodedBitStreamParser.c **** 			case MIXED:
 222:src/pdf417/PDFDecodedBitStreamParser.c **** 				// Mixed (numeric and some punctuation)
 223:src/pdf417/PDFDecodedBitStreamParser.c **** 				if (subModeCh < 25) 
 397              		.loc 1 223 8
 398 02ab 837DE018 		cmpl	$24, -32(%ebp)
 399 02af 7F16     		jg	L34
 224:src/pdf417/PDFDecodedBitStreamParser.c **** 				{
 225:src/pdf417/PDFDecodedBitStreamParser.c **** 					ch = MIXED_CHARS[subModeCh];
 400              		.loc 1 225 22
 401 02b1 8B150400 		movl	_MIXED_CHARS, %edx
 401      0000
 402 02b7 8B45E0   		movl	-32(%ebp), %eax
 403 02ba 01D0     		addl	%edx, %eax
 404              		.loc 1 225 9
 405 02bc 0FB600   		movzbl	(%eax), %eax
 406 02bf 8845E7   		movb	%al, -25(%ebp)
 226:src/pdf417/PDFDecodedBitStreamParser.c **** 				}
 227:src/pdf417/PDFDecodedBitStreamParser.c **** 				else if (subModeCh == 25) 
 228:src/pdf417/PDFDecodedBitStreamParser.c **** 				{ // PL
 229:src/pdf417/PDFDecodedBitStreamParser.c **** 					subMode = PUNCT;
 230:src/pdf417/PDFDecodedBitStreamParser.c **** 				}
 231:src/pdf417/PDFDecodedBitStreamParser.c **** 				else if (subModeCh == 26) 
 232:src/pdf417/PDFDecodedBitStreamParser.c **** 				{ // Space
 233:src/pdf417/PDFDecodedBitStreamParser.c **** 					ch = ' ';
 234:src/pdf417/PDFDecodedBitStreamParser.c **** 				}
 235:src/pdf417/PDFDecodedBitStreamParser.c **** 				else
 236:src/pdf417/PDFDecodedBitStreamParser.c **** 				if (subModeCh == 27) 
 237:src/pdf417/PDFDecodedBitStreamParser.c **** 				{ // LL
 238:src/pdf417/PDFDecodedBitStreamParser.c **** 					subMode = LOWER;
 239:src/pdf417/PDFDecodedBitStreamParser.c **** 				}
 240:src/pdf417/PDFDecodedBitStreamParser.c **** 				else
 241:src/pdf417/PDFDecodedBitStreamParser.c **** 				if (subModeCh == 28) 
 242:src/pdf417/PDFDecodedBitStreamParser.c **** 				{ // AL
 243:src/pdf417/PDFDecodedBitStreamParser.c **** 					subMode = ALPHA;
 244:src/pdf417/PDFDecodedBitStreamParser.c **** 				}
 245:src/pdf417/PDFDecodedBitStreamParser.c **** 				// 29 PS - ignore if last or followed by Shift to Byte, 5.4.2.4 (b) (1)
 246:src/pdf417/PDFDecodedBitStreamParser.c **** 				else 
 247:src/pdf417/PDFDecodedBitStreamParser.c **** 				if (i + 1 < length && textCompactionData[i + 1] != MODE_SHIFT_TO_BYTE_COMPACTION_MODE) 
 248:src/pdf417/PDFDecodedBitStreamParser.c **** 				{
GAS LISTING C:\Users\jisu8\AppData\Local\Temp\ccC0pYc9.s 			page 14


 249:src/pdf417/PDFDecodedBitStreamParser.c **** 					// Shift to punctuation
 250:src/pdf417/PDFDecodedBitStreamParser.c **** 					priorToShiftMode = subMode;
 251:src/pdf417/PDFDecodedBitStreamParser.c **** 					subMode = PUNCT_SHIFT;
 252:src/pdf417/PDFDecodedBitStreamParser.c **** 				}
 253:src/pdf417/PDFDecodedBitStreamParser.c **** 			break;
 407              		.loc 1 253 4
 408 02c2 E9EE0000 		jmp	L49
 408      00
 409              	L34:
 227:src/pdf417/PDFDecodedBitStreamParser.c **** 				{ // PL
 410              		.loc 1 227 13
 411 02c7 837DE019 		cmpl	$25, -32(%ebp)
 412 02cb 750C     		jne	L36
 229:src/pdf417/PDFDecodedBitStreamParser.c **** 				}
 413              		.loc 1 229 14
 414 02cd C745F403 		movl	$3, -12(%ebp)
 414      000000
 415              		.loc 1 253 4
 416 02d4 E9DC0000 		jmp	L49
 416      00
 417              	L36:
 231:src/pdf417/PDFDecodedBitStreamParser.c **** 				{ // Space
 418              		.loc 1 231 13
 419 02d9 837DE01A 		cmpl	$26, -32(%ebp)
 420 02dd 7509     		jne	L37
 233:src/pdf417/PDFDecodedBitStreamParser.c **** 				}
 421              		.loc 1 233 9
 422 02df C645E720 		movb	$32, -25(%ebp)
 423              		.loc 1 253 4
 424 02e3 E9CD0000 		jmp	L49
 424      00
 425              	L37:
 236:src/pdf417/PDFDecodedBitStreamParser.c **** 				{ // LL
 426              		.loc 1 236 8
 427 02e8 837DE01B 		cmpl	$27, -32(%ebp)
 428 02ec 750C     		jne	L38
 238:src/pdf417/PDFDecodedBitStreamParser.c **** 				}
 429              		.loc 1 238 14
 430 02ee C745F401 		movl	$1, -12(%ebp)
 430      000000
 431              		.loc 1 253 4
 432 02f5 E9BB0000 		jmp	L49
 432      00
 433              	L38:
 241:src/pdf417/PDFDecodedBitStreamParser.c **** 				{ // AL
 434              		.loc 1 241 8
 435 02fa 837DE01C 		cmpl	$28, -32(%ebp)
 436 02fe 750C     		jne	L39
 243:src/pdf417/PDFDecodedBitStreamParser.c **** 				}
 437              		.loc 1 243 14
 438 0300 C745F400 		movl	$0, -12(%ebp)
 438      000000
 439              		.loc 1 253 4
 440 0307 E9A90000 		jmp	L49
 440      00
 441              	L39:
 247:src/pdf417/PDFDecodedBitStreamParser.c **** 				{
GAS LISTING C:\Users\jisu8\AppData\Local\Temp\ccC0pYc9.s 			page 15


 442              		.loc 1 247 11
 443 030c 8B45EC   		movl	-20(%ebp), %eax
 444 030f 83C001   		addl	$1, %eax
 247:src/pdf417/PDFDecodedBitStreamParser.c **** 				{
 445              		.loc 1 247 8
 446 0312 39450C   		cmpl	%eax, 12(%ebp)
 447 0315 0F8E9A00 		jle	L49
 447      0000
 247:src/pdf417/PDFDecodedBitStreamParser.c **** 				{
 448              		.loc 1 247 45 discriminator 1
 449 031b 8B45EC   		movl	-20(%ebp), %eax
 450 031e 83C001   		addl	$1, %eax
 451 0321 8D148500 		leal	0(,%eax,4), %edx
 451      000000
 452 0328 8B4508   		movl	8(%ebp), %eax
 453 032b 01D0     		addl	%edx, %eax
 454 032d 8B00     		movl	(%eax), %eax
 247:src/pdf417/PDFDecodedBitStreamParser.c **** 				{
 455              		.loc 1 247 24 discriminator 1
 456 032f 3D910300 		cmpl	$913, %eax
 456      00
 457 0334 747F     		je	L49
 250:src/pdf417/PDFDecodedBitStreamParser.c **** 					subMode = PUNCT_SHIFT;
 458              		.loc 1 250 23
 459 0336 8B45F4   		movl	-12(%ebp), %eax
 460 0339 8945F0   		movl	%eax, -16(%ebp)
 251:src/pdf417/PDFDecodedBitStreamParser.c **** 				}
 461              		.loc 1 251 14
 462 033c C745F405 		movl	$5, -12(%ebp)
 462      000000
 463              		.loc 1 253 4
 464 0343 EB70     		jmp	L49
 465              	L23:
 254:src/pdf417/PDFDecodedBitStreamParser.c **** 			case PUNCT:
 255:src/pdf417/PDFDecodedBitStreamParser.c **** 				// Punctuation
 256:src/pdf417/PDFDecodedBitStreamParser.c **** 				if (subModeCh < 29) {
 466              		.loc 1 256 8
 467 0345 837DE01C 		cmpl	$28, -32(%ebp)
 468 0349 7F13     		jg	L40
 257:src/pdf417/PDFDecodedBitStreamParser.c **** 					ch = PUNCT_CHARS[subModeCh];
 469              		.loc 1 257 22
 470 034b 8B150000 		movl	_PUNCT_CHARS, %edx
 470      0000
 471 0351 8B45E0   		movl	-32(%ebp), %eax
 472 0354 01D0     		addl	%edx, %eax
 473              		.loc 1 257 9
 474 0356 0FB600   		movzbl	(%eax), %eax
 475 0359 8845E7   		movb	%al, -25(%ebp)
 258:src/pdf417/PDFDecodedBitStreamParser.c **** 				}
 259:src/pdf417/PDFDecodedBitStreamParser.c **** 				else { // 29 AL - note not ignored if followed by Shift to Byte, 5.4.2.4 (b) (2)
 260:src/pdf417/PDFDecodedBitStreamParser.c **** 					subMode = ALPHA;
 261:src/pdf417/PDFDecodedBitStreamParser.c **** 				}
 262:src/pdf417/PDFDecodedBitStreamParser.c **** 			break;
 476              		.loc 1 262 4
 477 035c EB5B     		jmp	L19
 478              	L40:
 260:src/pdf417/PDFDecodedBitStreamParser.c **** 				}
GAS LISTING C:\Users\jisu8\AppData\Local\Temp\ccC0pYc9.s 			page 16


 479              		.loc 1 260 14
 480 035e C745F400 		movl	$0, -12(%ebp)
 480      000000
 481              		.loc 1 262 4
 482 0365 EB52     		jmp	L19
 483              	L22:
 263:src/pdf417/PDFDecodedBitStreamParser.c **** 				case ALPHA_SHIFT:
 264:src/pdf417/PDFDecodedBitStreamParser.c **** 				// Restore sub-mode
 265:src/pdf417/PDFDecodedBitStreamParser.c **** 				subMode = priorToShiftMode;
 484              		.loc 1 265 13
 485 0367 8B45F0   		movl	-16(%ebp), %eax
 486 036a 8945F4   		movl	%eax, -12(%ebp)
 266:src/pdf417/PDFDecodedBitStreamParser.c **** 				if (subModeCh < 26) 
 487              		.loc 1 266 8
 488 036d 837DE019 		cmpl	$25, -32(%ebp)
 489 0371 7F0B     		jg	L42
 267:src/pdf417/PDFDecodedBitStreamParser.c **** 				{
 268:src/pdf417/PDFDecodedBitStreamParser.c **** 					ch = (char)('A' + subModeCh);
 490              		.loc 1 268 22
 491 0373 8B45E0   		movl	-32(%ebp), %eax
 492 0376 83C041   		addl	$65, %eax
 493              		.loc 1 268 9
 494 0379 8845E7   		movb	%al, -25(%ebp)
 269:src/pdf417/PDFDecodedBitStreamParser.c **** 				}
 270:src/pdf417/PDFDecodedBitStreamParser.c **** 				else if (subModeCh == 26) 
 271:src/pdf417/PDFDecodedBitStreamParser.c **** 				{ // Space
 272:src/pdf417/PDFDecodedBitStreamParser.c **** 					ch = ' ';
 273:src/pdf417/PDFDecodedBitStreamParser.c **** 				}
 274:src/pdf417/PDFDecodedBitStreamParser.c **** 				// 27 LL, 28 ML, 29 PS used as padding
 275:src/pdf417/PDFDecodedBitStreamParser.c **** 			break;
 495              		.loc 1 275 4
 496 037c EB3A     		jmp	L50
 497              	L42:
 270:src/pdf417/PDFDecodedBitStreamParser.c **** 				{ // Space
 498              		.loc 1 270 13
 499 037e 837DE01A 		cmpl	$26, -32(%ebp)
 500 0382 7534     		jne	L50
 272:src/pdf417/PDFDecodedBitStreamParser.c **** 				}
 501              		.loc 1 272 9
 502 0384 C645E720 		movb	$32, -25(%ebp)
 503              		.loc 1 275 4
 504 0388 EB2E     		jmp	L50
 505              	L20:
 276:src/pdf417/PDFDecodedBitStreamParser.c **** 			case PUNCT_SHIFT:
 277:src/pdf417/PDFDecodedBitStreamParser.c **** 				// Restore sub-mode
 278:src/pdf417/PDFDecodedBitStreamParser.c **** 				subMode = priorToShiftMode;
 506              		.loc 1 278 13
 507 038a 8B45F0   		movl	-16(%ebp), %eax
 508 038d 8945F4   		movl	%eax, -12(%ebp)
 279:src/pdf417/PDFDecodedBitStreamParser.c **** 				if (subModeCh < 29) 
 509              		.loc 1 279 8
 510 0390 837DE01C 		cmpl	$28, -32(%ebp)
 511 0394 7F13     		jg	L44
 280:src/pdf417/PDFDecodedBitStreamParser.c **** 				{
 281:src/pdf417/PDFDecodedBitStreamParser.c **** 					ch = PUNCT_CHARS[subModeCh];
 512              		.loc 1 281 22
 513 0396 8B150000 		movl	_PUNCT_CHARS, %edx
GAS LISTING C:\Users\jisu8\AppData\Local\Temp\ccC0pYc9.s 			page 17


 513      0000
 514 039c 8B45E0   		movl	-32(%ebp), %eax
 515 039f 01D0     		addl	%edx, %eax
 516              		.loc 1 281 9
 517 03a1 0FB600   		movzbl	(%eax), %eax
 518 03a4 8845E7   		movb	%al, -25(%ebp)
 282:src/pdf417/PDFDecodedBitStreamParser.c **** 				}
 283:src/pdf417/PDFDecodedBitStreamParser.c **** 				else 
 284:src/pdf417/PDFDecodedBitStreamParser.c **** 				{ // 29 AL
 285:src/pdf417/PDFDecodedBitStreamParser.c **** 					subMode = ALPHA;
 286:src/pdf417/PDFDecodedBitStreamParser.c **** 				}
 287:src/pdf417/PDFDecodedBitStreamParser.c **** 			break;
 519              		.loc 1 287 4
 520 03a7 EB10     		jmp	L19
 521              	L44:
 285:src/pdf417/PDFDecodedBitStreamParser.c **** 				}
 522              		.loc 1 285 14
 523 03a9 C745F400 		movl	$0, -12(%ebp)
 523      000000
 524              		.loc 1 287 4
 525 03b0 EB07     		jmp	L19
 526              	L48:
 220:src/pdf417/PDFDecodedBitStreamParser.c **** 			case MIXED:
 527              		.loc 1 220 4
 528 03b2 90       		nop
 529 03b3 EB04     		jmp	L19
 530              	L49:
 253:src/pdf417/PDFDecodedBitStreamParser.c **** 			case PUNCT:
 531              		.loc 1 253 4
 532 03b5 90       		nop
 533 03b6 EB01     		jmp	L19
 534              	L50:
 275:src/pdf417/PDFDecodedBitStreamParser.c **** 			case PUNCT_SHIFT:
 535              		.loc 1 275 4
 536 03b8 90       		nop
 537              	L19:
 288:src/pdf417/PDFDecodedBitStreamParser.c **** 		}
 289:src/pdf417/PDFDecodedBitStreamParser.c **** 		if (ch != 0) 
 538              		.loc 1 289 6
 539 03b9 807DE700 		cmpb	$0, -25(%ebp)
 540 03bd 7412     		je	L46
 290:src/pdf417/PDFDecodedBitStreamParser.c **** 		{
 291:src/pdf417/PDFDecodedBitStreamParser.c **** 			// Append decoded character to result
 292:src/pdf417/PDFDecodedBitStreamParser.c **** 			result[character_idx] = ch;
 541              		.loc 1 292 10
 542 03bf 8B55E8   		movl	-24(%ebp), %edx
 543 03c2 8B4514   		movl	20(%ebp), %eax
 544 03c5 01C2     		addl	%eax, %edx
 545              		.loc 1 292 26
 546 03c7 0FB645E7 		movzbl	-25(%ebp), %eax
 547 03cb 8802     		movb	%al, (%edx)
 293:src/pdf417/PDFDecodedBitStreamParser.c **** 			character_idx++;
 548              		.loc 1 293 17
 549 03cd 8345E801 		addl	$1, -24(%ebp)
 550              	L46:
 294:src/pdf417/PDFDecodedBitStreamParser.c **** 		}
 295:src/pdf417/PDFDecodedBitStreamParser.c **** 		i++;
GAS LISTING C:\Users\jisu8\AppData\Local\Temp\ccC0pYc9.s 			page 18


 551              		.loc 1 295 4
 552 03d1 8345EC01 		addl	$1, -20(%ebp)
 553              	L12:
 554              	LBE2:
 157:src/pdf417/PDFDecodedBitStreamParser.c **** 	{
 555              		.loc 1 157 8
 556 03d5 8B45EC   		movl	-20(%ebp), %eax
 557 03d8 3B450C   		cmpl	12(%ebp), %eax
 558 03db 0F8CCBFC 		jl	L47
 558      FFFF
 296:src/pdf417/PDFDecodedBitStreamParser.c **** 	}
 297:src/pdf417/PDFDecodedBitStreamParser.c **** }
 559              		.loc 1 297 1
 560 03e1 90       		nop
 561 03e2 C9       		leave
 562              	LCFI8:
 563              		.cfi_restore 5
 564              		.cfi_def_cfa 4, 4
 565 03e3 C3       		ret
 566              		.cfi_endproc
 567              	LFE19:
 568              		.section .rdata,"dr"
 569              	LC4:
 570 00ec 50726F63 		.ascii "ProcessTextECI\0"
 570      65737354 
 570      65787445 
 570      434900
 571              		.text
 573              	_ProcessTextECI:
 574              	LFB20:
 298:src/pdf417/PDFDecodedBitStreamParser.c **** 
 299:src/pdf417/PDFDecodedBitStreamParser.c **** 
 300:src/pdf417/PDFDecodedBitStreamParser.c **** /*
 301:src/pdf417/PDFDecodedBitStreamParser.c **** * Helper to put ECI codewords into Text Compaction array.
 302:src/pdf417/PDFDecodedBitStreamParser.c **** */
 303:src/pdf417/PDFDecodedBitStreamParser.c **** static int ProcessTextECI(int * textCompactionData, int index,
 304:src/pdf417/PDFDecodedBitStreamParser.c **** 						  const int * codewords, int codeIndex, const int code) 
 305:src/pdf417/PDFDecodedBitStreamParser.c **** {
 575              		.loc 1 305 1
 576              		.cfi_startproc
 577 03e4 55       		pushl	%ebp
 578              	LCFI9:
 579              		.cfi_def_cfa_offset 8
 580              		.cfi_offset 5, -8
 581 03e5 89E5     		movl	%esp, %ebp
 582              	LCFI10:
 583              		.cfi_def_cfa_register 5
 584 03e7 83EC18   		subl	$24, %esp
 306:src/pdf417/PDFDecodedBitStreamParser.c **** 
 307:src/pdf417/PDFDecodedBitStreamParser.c **** 	printf("ProcessTextECI\n");
 585              		.loc 1 307 2
 586 03ea C70424EC 		movl	$LC4, (%esp)
 586      000000
 587 03f1 E8000000 		call	_puts
 587      00
 308:src/pdf417/PDFDecodedBitStreamParser.c **** 
 309:src/pdf417/PDFDecodedBitStreamParser.c **** 	textCompactionData[index++] = code;
GAS LISTING C:\Users\jisu8\AppData\Local\Temp\ccC0pYc9.s 			page 19


 588              		.loc 1 309 26
 589 03f6 8B450C   		movl	12(%ebp), %eax
 590 03f9 8D5001   		leal	1(%eax), %edx
 591 03fc 89550C   		movl	%edx, 12(%ebp)
 592              		.loc 1 309 20
 593 03ff 8D148500 		leal	0(,%eax,4), %edx
 593      000000
 594 0406 8B4508   		movl	8(%ebp), %eax
 595 0409 01C2     		addl	%eax, %edx
 596              		.loc 1 309 30
 597 040b 8B4518   		movl	24(%ebp), %eax
 598 040e 8902     		movl	%eax, (%edx)
 310:src/pdf417/PDFDecodedBitStreamParser.c **** 
 311:src/pdf417/PDFDecodedBitStreamParser.c **** 	if (codeIndex < codewords[0]) 
 599              		.loc 1 311 27
 600 0410 8B4510   		movl	16(%ebp), %eax
 601 0413 8B00     		movl	(%eax), %eax
 602              		.loc 1 311 5
 603 0415 394514   		cmpl	%eax, 20(%ebp)
 604 0418 7D71     		jge	L52
 312:src/pdf417/PDFDecodedBitStreamParser.c **** 	{
 313:src/pdf417/PDFDecodedBitStreamParser.c **** 		textCompactionData[index++] = codewords[codeIndex++];
 605              		.loc 1 313 52
 606 041a 8B4514   		movl	20(%ebp), %eax
 607 041d 8D5001   		leal	1(%eax), %edx
 608 0420 895514   		movl	%edx, 20(%ebp)
 609              		.loc 1 313 42
 610 0423 8D148500 		leal	0(,%eax,4), %edx
 610      000000
 611 042a 8B4510   		movl	16(%ebp), %eax
 612 042d 8D0C02   		leal	(%edx,%eax), %ecx
 613              		.loc 1 313 27
 614 0430 8B450C   		movl	12(%ebp), %eax
 615 0433 8D5001   		leal	1(%eax), %edx
 616 0436 89550C   		movl	%edx, 12(%ebp)
 617              		.loc 1 313 21
 618 0439 8D148500 		leal	0(,%eax,4), %edx
 618      000000
 619 0440 8B4508   		movl	8(%ebp), %eax
 620 0443 01C2     		addl	%eax, %edx
 621              		.loc 1 313 42
 622 0445 8B01     		movl	(%ecx), %eax
 623              		.loc 1 313 31
 624 0447 8902     		movl	%eax, (%edx)
 314:src/pdf417/PDFDecodedBitStreamParser.c **** 		if (codeIndex < codewords[0] && code == ECI_GENERAL_PURPOSE) 
 625              		.loc 1 314 28
 626 0449 8B4510   		movl	16(%ebp), %eax
 627 044c 8B00     		movl	(%eax), %eax
 628              		.loc 1 314 6
 629 044e 394514   		cmpl	%eax, 20(%ebp)
 630 0451 7D38     		jge	L52
 631              		.loc 1 314 32 discriminator 1
 632 0453 817D189E 		cmpl	$926, 24(%ebp)
 632      030000
 633 045a 752F     		jne	L52
 315:src/pdf417/PDFDecodedBitStreamParser.c **** 		{
 316:src/pdf417/PDFDecodedBitStreamParser.c **** 			textCompactionData[index++] = codewords[codeIndex++];
GAS LISTING C:\Users\jisu8\AppData\Local\Temp\ccC0pYc9.s 			page 20


 634              		.loc 1 316 53
 635 045c 8B4514   		movl	20(%ebp), %eax
 636 045f 8D5001   		leal	1(%eax), %edx
 637 0462 895514   		movl	%edx, 20(%ebp)
 638              		.loc 1 316 43
 639 0465 8D148500 		leal	0(,%eax,4), %edx
 639      000000
 640 046c 8B4510   		movl	16(%ebp), %eax
 641 046f 8D0C02   		leal	(%edx,%eax), %ecx
 642              		.loc 1 316 28
 643 0472 8B450C   		movl	12(%ebp), %eax
 644 0475 8D5001   		leal	1(%eax), %edx
 645 0478 89550C   		movl	%edx, 12(%ebp)
 646              		.loc 1 316 22
 647 047b 8D148500 		leal	0(,%eax,4), %edx
 647      000000
 648 0482 8B4508   		movl	8(%ebp), %eax
 649 0485 01C2     		addl	%eax, %edx
 650              		.loc 1 316 43
 651 0487 8B01     		movl	(%ecx), %eax
 652              		.loc 1 316 32
 653 0489 8902     		movl	%eax, (%edx)
 654              	L52:
 317:src/pdf417/PDFDecodedBitStreamParser.c **** 		}
 318:src/pdf417/PDFDecodedBitStreamParser.c **** 	}
 319:src/pdf417/PDFDecodedBitStreamParser.c **** 
 320:src/pdf417/PDFDecodedBitStreamParser.c **** 	return codeIndex;
 655              		.loc 1 320 9
 656 048b 8B4514   		movl	20(%ebp), %eax
 321:src/pdf417/PDFDecodedBitStreamParser.c **** }
 657              		.loc 1 321 1
 658 048e C9       		leave
 659              	LCFI11:
 660              		.cfi_restore 5
 661              		.cfi_def_cfa 4, 4
 662 048f C3       		ret
 663              		.cfi_endproc
 664              	LFE20:
 665              		.section .rdata,"dr"
 666              	LC5:
 667 00fb 54657874 		.ascii "TextCompaction\0"
 667      436F6D70 
 667      61637469 
 667      6F6E00
 668              		.text
 670              	_TextCompaction:
 671              	LFB21:
 322:src/pdf417/PDFDecodedBitStreamParser.c **** 
 323:src/pdf417/PDFDecodedBitStreamParser.c **** 
 324:src/pdf417/PDFDecodedBitStreamParser.c **** /**
 325:src/pdf417/PDFDecodedBitStreamParser.c **** * Text Compaction mode (see 5.4.1.5) permits all printable ASCII characters to be
 326:src/pdf417/PDFDecodedBitStreamParser.c **** * encoded, i.e. values 32 - 126 inclusive in accordance with ISO/IEC 646 (IRV), as
 327:src/pdf417/PDFDecodedBitStreamParser.c **** * well as selected control characters.
 328:src/pdf417/PDFDecodedBitStreamParser.c **** *
 329:src/pdf417/PDFDecodedBitStreamParser.c **** * @param codewords     The array of codewords (data + error)
 330:src/pdf417/PDFDecodedBitStreamParser.c **** * @param codeIndex     The current index into the codeword array.
 331:src/pdf417/PDFDecodedBitStreamParser.c **** * @param resultEncoded The Unicode-encoded data.
GAS LISTING C:\Users\jisu8\AppData\Local\Temp\ccC0pYc9.s 			page 21


 332:src/pdf417/PDFDecodedBitStreamParser.c **** * @param result        The data in the character set encoding.
 333:src/pdf417/PDFDecodedBitStreamParser.c **** * @param encoding      Currently active character encoding.
 334:src/pdf417/PDFDecodedBitStreamParser.c **** * @return The next index into the codeword array.
 335:src/pdf417/PDFDecodedBitStreamParser.c **** */
 336:src/pdf417/PDFDecodedBitStreamParser.c **** static int TextCompaction(DecodeStatus_t status, const int * codewords, int codeIndex,
 337:src/pdf417/PDFDecodedBitStreamParser.c **** 						  unsigned char * resultEncoded, char * result, CharacterSet_t * encoding)
 338:src/pdf417/PDFDecodedBitStreamParser.c **** {
 672              		.loc 1 338 1
 673              		.cfi_startproc
 674 0490 55       		pushl	%ebp
 675              	LCFI12:
 676              		.cfi_def_cfa_offset 8
 677              		.cfi_offset 5, -8
 678 0491 89E5     		movl	%esp, %ebp
 679              	LCFI13:
 680              		.cfi_def_cfa_register 5
 681 0493 56       		pushl	%esi
 682 0494 53       		pushl	%ebx
 683 0495 83EC40   		subl	$64, %esp
 684              		.cfi_offset 6, -12
 685              		.cfi_offset 3, -16
 686              		.loc 1 338 1
 687 0498 89E0     		movl	%esp, %eax
 688 049a 89C6     		movl	%eax, %esi
 339:src/pdf417/PDFDecodedBitStreamParser.c **** 
 340:src/pdf417/PDFDecodedBitStreamParser.c **** 	printf("TextCompaction\n");
 689              		.loc 1 340 2
 690 049c C70424FB 		movl	$LC5, (%esp)
 690      000000
 691 04a3 E8000000 		call	_puts
 691      00
 341:src/pdf417/PDFDecodedBitStreamParser.c **** 
 342:src/pdf417/PDFDecodedBitStreamParser.c **** 	// 2 characters per codeword
 343:src/pdf417/PDFDecodedBitStreamParser.c **** 	int size = (codewords[0] - codeIndex) * 2;
 692              		.loc 1 343 23
 693 04a8 8B450C   		movl	12(%ebp), %eax
 694 04ab 8B00     		movl	(%eax), %eax
 695              		.loc 1 343 27
 696 04ad 2B4510   		subl	16(%ebp), %eax
 697              		.loc 1 343 6
 698 04b0 01C0     		addl	%eax, %eax
 699 04b2 8945EC   		movl	%eax, -20(%ebp)
 344:src/pdf417/PDFDecodedBitStreamParser.c **** 	int textCompactionData[size];
 700              		.loc 1 344 2
 701 04b5 8B45EC   		movl	-20(%ebp), %eax
 702              		.loc 1 344 6
 703 04b8 8D50FF   		leal	-1(%eax), %edx
 704 04bb 8955E8   		movl	%edx, -24(%ebp)
 705 04be 8D148500 		leal	0(,%eax,4), %edx
 705      000000
 706 04c5 B8100000 		movl	$16, %eax
 706      00
 707 04ca 83E801   		subl	$1, %eax
 708 04cd 01D0     		addl	%edx, %eax
 709 04cf BB100000 		movl	$16, %ebx
 709      00
 710 04d4 BA000000 		movl	$0, %edx
GAS LISTING C:\Users\jisu8\AppData\Local\Temp\ccC0pYc9.s 			page 22


 710      00
 711 04d9 F7F3     		divl	%ebx
 712 04db 6BC010   		imull	$16, %eax, %eax
 713 04de E8000000 		call	___chkstk_ms
 713      00
 714 04e3 29C4     		subl	%eax, %esp
 715 04e5 8D442414 		leal	20(%esp), %eax
 716 04e9 83C003   		addl	$3, %eax
 717 04ec C1E802   		shrl	$2, %eax
 718 04ef C1E002   		sall	$2, %eax
 719 04f2 8945E4   		movl	%eax, -28(%ebp)
 345:src/pdf417/PDFDecodedBitStreamParser.c **** 	fill(size,textCompactionData,0);
 720              		.loc 1 345 2
 721 04f5 8B45E4   		movl	-28(%ebp), %eax
 722 04f8 C7442408 		movl	$0, 8(%esp)
 722      00000000 
 723 0500 89442404 		movl	%eax, 4(%esp)
 724 0504 8B45EC   		movl	-20(%ebp), %eax
 725 0507 890424   		movl	%eax, (%esp)
 726 050a E8000000 		call	_fill
 726      00
 346:src/pdf417/PDFDecodedBitStreamParser.c **** 
 347:src/pdf417/PDFDecodedBitStreamParser.c **** 	int index = 0;
 727              		.loc 1 347 6
 728 050f C745F400 		movl	$0, -12(%ebp)
 728      000000
 348:src/pdf417/PDFDecodedBitStreamParser.c **** 	uint8_t end = 0;
 729              		.loc 1 348 10
 730 0516 C645F300 		movb	$0, -13(%ebp)
 349:src/pdf417/PDFDecodedBitStreamParser.c **** 	while ((codeIndex < codewords[0]) && !end) 
 731              		.loc 1 349 8
 732 051a E9BB0100 		jmp	L55
 732      00
 733              	L67:
 734              	LBB3:
 350:src/pdf417/PDFDecodedBitStreamParser.c **** 	{
 351:src/pdf417/PDFDecodedBitStreamParser.c **** 		int code = codewords[codeIndex++];
 735              		.loc 1 351 33
 736 051f 8B4510   		movl	16(%ebp), %eax
 737 0522 8D5001   		leal	1(%eax), %edx
 738 0525 895510   		movl	%edx, 16(%ebp)
 739              		.loc 1 351 23
 740 0528 8D148500 		leal	0(,%eax,4), %edx
 740      000000
 741 052f 8B450C   		movl	12(%ebp), %eax
 742 0532 01D0     		addl	%edx, %eax
 743              		.loc 1 351 7
 744 0534 8B00     		movl	(%eax), %eax
 745 0536 8945E0   		movl	%eax, -32(%ebp)
 352:src/pdf417/PDFDecodedBitStreamParser.c **** 		if (code < TEXT_COMPACTION_MODE_LATCH) 
 746              		.loc 1 352 6
 747 0539 817DE083 		cmpl	$899, -32(%ebp)
 747      030000
 748 0540 7F5F     		jg	L56
 353:src/pdf417/PDFDecodedBitStreamParser.c **** 		{
 354:src/pdf417/PDFDecodedBitStreamParser.c **** 			textCompactionData[index] = code / 30;
 749              		.loc 1 354 37
GAS LISTING C:\Users\jisu8\AppData\Local\Temp\ccC0pYc9.s 			page 23


 750 0542 8B4DE0   		movl	-32(%ebp), %ecx
 751 0545 BA898888 		movl	$-2004318071, %edx
 751      88
 752 054a 89C8     		movl	%ecx, %eax
 753 054c F7EA     		imull	%edx
 754 054e 8D040A   		leal	(%edx,%ecx), %eax
 755 0551 C1F804   		sarl	$4, %eax
 756 0554 89C2     		movl	%eax, %edx
 757 0556 89C8     		movl	%ecx, %eax
 758 0558 C1F81F   		sarl	$31, %eax
 759 055b 89D1     		movl	%edx, %ecx
 760 055d 29C1     		subl	%eax, %ecx
 761              		.loc 1 354 30
 762 055f 8B45E4   		movl	-28(%ebp), %eax
 763 0562 8B55F4   		movl	-12(%ebp), %edx
 764 0565 890C90   		movl	%ecx, (%eax,%edx,4)
 355:src/pdf417/PDFDecodedBitStreamParser.c **** 			textCompactionData[index + 1] = code % 30;
 765              		.loc 1 355 29
 766 0568 8B45F4   		movl	-12(%ebp), %eax
 767 056b 8D5801   		leal	1(%eax), %ebx
 768              		.loc 1 355 41
 769 056e 8B4DE0   		movl	-32(%ebp), %ecx
 770 0571 BA898888 		movl	$-2004318071, %edx
 770      88
 771 0576 89C8     		movl	%ecx, %eax
 772 0578 F7EA     		imull	%edx
 773 057a 8D040A   		leal	(%edx,%ecx), %eax
 774 057d C1F804   		sarl	$4, %eax
 775 0580 89C2     		movl	%eax, %edx
 776 0582 89C8     		movl	%ecx, %eax
 777 0584 C1F81F   		sarl	$31, %eax
 778 0587 29C2     		subl	%eax, %edx
 779 0589 89D0     		movl	%edx, %eax
 780 058b 6BC01E   		imull	$30, %eax, %eax
 781 058e 29C1     		subl	%eax, %ecx
 782 0590 89C8     		movl	%ecx, %eax
 783              		.loc 1 355 34
 784 0592 8B55E4   		movl	-28(%ebp), %edx
 785 0595 89049A   		movl	%eax, (%edx,%ebx,4)
 356:src/pdf417/PDFDecodedBitStreamParser.c **** 			index += 2;
 786              		.loc 1 356 10
 787 0598 8345F402 		addl	$2, -12(%ebp)
 788 059c E9390100 		jmp	L55
 788      00
 789              	L56:
 790 05a1 817DE091 		cmpl	$913, -32(%ebp)
 790      030000
 791 05a8 7423     		je	L57
 792 05aa 817DE091 		cmpl	$913, -32(%ebp)
 792      030000
 793 05b1 0F8CFF00 		jl	L58
 793      0000
 794 05b7 8B45E0   		movl	-32(%ebp), %eax
 795 05ba 2D9D0300 		subl	$925, %eax
 795      00
 796 05bf 83F802   		cmpl	$2, %eax
 797 05c2 0F87EE00 		ja	L58
GAS LISTING C:\Users\jisu8\AppData\Local\Temp\ccC0pYc9.s 			page 24


 797      0000
 798 05c8 E9BD0000 		jmp	L69
 798      00
 799              	L57:
 357:src/pdf417/PDFDecodedBitStreamParser.c **** 		}
 358:src/pdf417/PDFDecodedBitStreamParser.c **** 		else 
 359:src/pdf417/PDFDecodedBitStreamParser.c **** 		{
 360:src/pdf417/PDFDecodedBitStreamParser.c **** 			switch (code) 
 361:src/pdf417/PDFDecodedBitStreamParser.c **** 			{
 362:src/pdf417/PDFDecodedBitStreamParser.c **** 				case MODE_SHIFT_TO_BYTE_COMPACTION_MODE:
 363:src/pdf417/PDFDecodedBitStreamParser.c **** 					// The Mode Shift codeword 913 shall cause a temporary
 364:src/pdf417/PDFDecodedBitStreamParser.c **** 					// switch from Text Compaction mode to Byte Compaction mode.
 365:src/pdf417/PDFDecodedBitStreamParser.c **** 					// This switch shall be in effect for only the next codeword,
 366:src/pdf417/PDFDecodedBitStreamParser.c **** 					// after which the mode shall revert to the prevailing sub-mode
 367:src/pdf417/PDFDecodedBitStreamParser.c **** 					// of the Text Compaction mode. Codeword 913 is only available
 368:src/pdf417/PDFDecodedBitStreamParser.c **** 					// in Text Compaction mode; its use is described in 5.4.2.4.
 369:src/pdf417/PDFDecodedBitStreamParser.c **** 					textCompactionData[index++] = MODE_SHIFT_TO_BYTE_COMPACTION_MODE;
 800              		.loc 1 369 30
 801 05cd 8B45F4   		movl	-12(%ebp), %eax
 802 05d0 8D5001   		leal	1(%eax), %edx
 803 05d3 8955F4   		movl	%edx, -12(%ebp)
 804              		.loc 1 369 34
 805 05d6 8B55E4   		movl	-28(%ebp), %edx
 806 05d9 C7048291 		movl	$913, (%edx,%eax,4)
 806      030000
 370:src/pdf417/PDFDecodedBitStreamParser.c **** 					// 5.5.3.1 allows ECIs anywhere in Text Compaction, including after a Shift to Byte
 371:src/pdf417/PDFDecodedBitStreamParser.c **** 					while (codeIndex < codewords[0] && codewords[codeIndex] >= ECI_USER_DEFINED
 807              		.loc 1 371 12
 808 05e0 EB3B     		jmp	L60
 809              	L62:
 372:src/pdf417/PDFDecodedBitStreamParser.c **** 							&& codewords[codeIndex] <= ECI_CHARSET) 
 373:src/pdf417/PDFDecodedBitStreamParser.c **** 					{
 374:src/pdf417/PDFDecodedBitStreamParser.c **** 						codeIndex = ProcessTextECI(textCompactionData, index, codewords, codeIndex + 1,
 375:src/pdf417/PDFDecodedBitStreamParser.c **** 												codewords[codeIndex]);
 810              		.loc 1 375 22
 811 05e2 8B4510   		movl	16(%ebp), %eax
 812 05e5 8D148500 		leal	0(,%eax,4), %edx
 812      000000
 813 05ec 8B450C   		movl	12(%ebp), %eax
 814 05ef 01D0     		addl	%edx, %eax
 374:src/pdf417/PDFDecodedBitStreamParser.c **** 												codewords[codeIndex]);
 815              		.loc 1 374 19
 816 05f1 8B10     		movl	(%eax), %edx
 817 05f3 8B4510   		movl	16(%ebp), %eax
 818 05f6 8D4801   		leal	1(%eax), %ecx
 819 05f9 8B45E4   		movl	-28(%ebp), %eax
 820 05fc 89542410 		movl	%edx, 16(%esp)
 821 0600 894C240C 		movl	%ecx, 12(%esp)
 822 0604 8B550C   		movl	12(%ebp), %edx
 823 0607 89542408 		movl	%edx, 8(%esp)
 824 060b 8B55F4   		movl	-12(%ebp), %edx
 825 060e 89542404 		movl	%edx, 4(%esp)
 826 0612 890424   		movl	%eax, (%esp)
 827 0615 E8CAFDFF 		call	_ProcessTextECI
 827      FF
 828 061a 894510   		movl	%eax, 16(%ebp)
 829              	L60:
GAS LISTING C:\Users\jisu8\AppData\Local\Temp\ccC0pYc9.s 			page 25


 371:src/pdf417/PDFDecodedBitStreamParser.c **** 							&& codewords[codeIndex] <= ECI_CHARSET) 
 830              		.loc 1 371 34
 831 061d 8B450C   		movl	12(%ebp), %eax
 832 0620 8B00     		movl	(%eax), %eax
 371:src/pdf417/PDFDecodedBitStreamParser.c **** 							&& codewords[codeIndex] <= ECI_CHARSET) 
 833              		.loc 1 371 12
 834 0622 394510   		cmpl	%eax, 16(%ebp)
 835 0625 7D30     		jge	L61
 371:src/pdf417/PDFDecodedBitStreamParser.c **** 							&& codewords[codeIndex] <= ECI_CHARSET) 
 836              		.loc 1 371 50 discriminator 1
 837 0627 8B4510   		movl	16(%ebp), %eax
 838 062a 8D148500 		leal	0(,%eax,4), %edx
 838      000000
 839 0631 8B450C   		movl	12(%ebp), %eax
 840 0634 01D0     		addl	%edx, %eax
 841 0636 8B00     		movl	(%eax), %eax
 371:src/pdf417/PDFDecodedBitStreamParser.c **** 							&& codewords[codeIndex] <= ECI_CHARSET) 
 842              		.loc 1 371 38 discriminator 1
 843 0638 3D9C0300 		cmpl	$924, %eax
 843      00
 844 063d 7E18     		jle	L61
 372:src/pdf417/PDFDecodedBitStreamParser.c **** 							&& codewords[codeIndex] <= ECI_CHARSET) 
 845              		.loc 1 372 20
 846 063f 8B4510   		movl	16(%ebp), %eax
 847 0642 8D148500 		leal	0(,%eax,4), %edx
 847      000000
 848 0649 8B450C   		movl	12(%ebp), %eax
 849 064c 01D0     		addl	%edx, %eax
 850 064e 8B00     		movl	(%eax), %eax
 372:src/pdf417/PDFDecodedBitStreamParser.c **** 							&& codewords[codeIndex] <= ECI_CHARSET) 
 851              		.loc 1 372 8
 852 0650 3D9F0300 		cmpl	$927, %eax
 852      00
 853 0655 7E8B     		jle	L62
 854              	L61:
 376:src/pdf417/PDFDecodedBitStreamParser.c **** 					}
 377:src/pdf417/PDFDecodedBitStreamParser.c **** 
 378:src/pdf417/PDFDecodedBitStreamParser.c **** 					if (codeIndex < codewords[0]) 
 855              		.loc 1 378 31
 856 0657 8B450C   		movl	12(%ebp), %eax
 857 065a 8B00     		movl	(%eax), %eax
 858              		.loc 1 378 9
 859 065c 394510   		cmpl	%eax, 16(%ebp)
 860 065f 7D79     		jge	L55
 379:src/pdf417/PDFDecodedBitStreamParser.c **** 					{
 380:src/pdf417/PDFDecodedBitStreamParser.c **** 						textCompactionData[index++] = codewords[codeIndex++]; // Byte to shift
 861              		.loc 1 380 56
 862 0661 8B4510   		movl	16(%ebp), %eax
 863 0664 8D5001   		leal	1(%eax), %edx
 864 0667 895510   		movl	%edx, 16(%ebp)
 865              		.loc 1 380 46
 866 066a 8D148500 		leal	0(,%eax,4), %edx
 866      000000
 867 0671 8B450C   		movl	12(%ebp), %eax
 868 0674 8D0C02   		leal	(%edx,%eax), %ecx
 869              		.loc 1 380 31
 870 0677 8B45F4   		movl	-12(%ebp), %eax
GAS LISTING C:\Users\jisu8\AppData\Local\Temp\ccC0pYc9.s 			page 26


 871 067a 8D5001   		leal	1(%eax), %edx
 872 067d 8955F4   		movl	%edx, -12(%ebp)
 873              		.loc 1 380 46
 874 0680 8B09     		movl	(%ecx), %ecx
 875              		.loc 1 380 35
 876 0682 8B55E4   		movl	-28(%ebp), %edx
 877 0685 890C82   		movl	%ecx, (%edx,%eax,4)
 381:src/pdf417/PDFDecodedBitStreamParser.c **** 					}
 382:src/pdf417/PDFDecodedBitStreamParser.c **** 				break;
 878              		.loc 1 382 5
 879 0688 EB50     		jmp	L55
 880              	L69:
 383:src/pdf417/PDFDecodedBitStreamParser.c **** 				case ECI_CHARSET:
 384:src/pdf417/PDFDecodedBitStreamParser.c **** 				case ECI_GENERAL_PURPOSE:
 385:src/pdf417/PDFDecodedBitStreamParser.c **** 				case ECI_USER_DEFINED:
 386:src/pdf417/PDFDecodedBitStreamParser.c **** 					codeIndex = ProcessTextECI(textCompactionData, index, codewords, codeIndex, code);
 881              		.loc 1 386 18
 882 068a 8B45E4   		movl	-28(%ebp), %eax
 883 068d 8B55E0   		movl	-32(%ebp), %edx
 884 0690 89542410 		movl	%edx, 16(%esp)
 885 0694 8B5510   		movl	16(%ebp), %edx
 886 0697 8954240C 		movl	%edx, 12(%esp)
 887 069b 8B550C   		movl	12(%ebp), %edx
 888 069e 89542408 		movl	%edx, 8(%esp)
 889 06a2 8B55F4   		movl	-12(%ebp), %edx
 890 06a5 89542404 		movl	%edx, 4(%esp)
 891 06a9 890424   		movl	%eax, (%esp)
 892 06ac E833FDFF 		call	_ProcessTextECI
 892      FF
 893 06b1 894510   		movl	%eax, 16(%ebp)
 387:src/pdf417/PDFDecodedBitStreamParser.c **** 				break;
 894              		.loc 1 387 5
 895 06b4 EB24     		jmp	L55
 896              	L58:
 388:src/pdf417/PDFDecodedBitStreamParser.c **** 				default:
 389:src/pdf417/PDFDecodedBitStreamParser.c **** 					if (!TerminatesCompaction(code)) 
 897              		.loc 1 389 11
 898 06b6 8B45E0   		movl	-32(%ebp), %eax
 899 06b9 890424   		movl	%eax, (%esp)
 900 06bc E83FF9FF 		call	_TerminatesCompaction
 900      FF
 901              		.loc 1 389 9
 902 06c1 84C0     		testb	%al, %al
 903 06c3 750C     		jne	L64
 390:src/pdf417/PDFDecodedBitStreamParser.c **** 					{
 391:src/pdf417/PDFDecodedBitStreamParser.c **** 						status = FormatError;
 904              		.loc 1 391 14
 905 06c5 C7450802 		movl	$2, 8(%ebp)
 905      000000
 392:src/pdf417/PDFDecodedBitStreamParser.c **** 						return codeIndex;
 906              		.loc 1 392 14
 907 06cc 8B4510   		movl	16(%ebp), %eax
 908 06cf EB47     		jmp	L65
 909              	L64:
 393:src/pdf417/PDFDecodedBitStreamParser.c **** 					}
 394:src/pdf417/PDFDecodedBitStreamParser.c **** 					codeIndex--;
 910              		.loc 1 394 15
GAS LISTING C:\Users\jisu8\AppData\Local\Temp\ccC0pYc9.s 			page 27


 911 06d1 836D1001 		subl	$1, 16(%ebp)
 395:src/pdf417/PDFDecodedBitStreamParser.c **** 					end = 1;
 912              		.loc 1 395 10
 913 06d5 C645F301 		movb	$1, -13(%ebp)
 396:src/pdf417/PDFDecodedBitStreamParser.c **** 				break;
 914              		.loc 1 396 5
 915 06d9 90       		nop
 916              	L55:
 917              	LBE3:
 349:src/pdf417/PDFDecodedBitStreamParser.c **** 	{
 918              		.loc 1 349 31
 919 06da 8B450C   		movl	12(%ebp), %eax
 920 06dd 8B00     		movl	(%eax), %eax
 349:src/pdf417/PDFDecodedBitStreamParser.c **** 	{
 921              		.loc 1 349 8
 922 06df 394510   		cmpl	%eax, 16(%ebp)
 923 06e2 7D0A     		jge	L66
 349:src/pdf417/PDFDecodedBitStreamParser.c **** 	{
 924              		.loc 1 349 36 discriminator 1
 925 06e4 807DF300 		cmpb	$0, -13(%ebp)
 926 06e8 0F8431FE 		je	L67
 926      FFFF
 927              	L66:
 397:src/pdf417/PDFDecodedBitStreamParser.c **** 			}
 398:src/pdf417/PDFDecodedBitStreamParser.c **** 		}
 399:src/pdf417/PDFDecodedBitStreamParser.c **** 	}
 400:src/pdf417/PDFDecodedBitStreamParser.c **** 
 401:src/pdf417/PDFDecodedBitStreamParser.c **** 	DecodeTextCompaction(textCompactionData, index, resultEncoded, result, encoding);
 928              		.loc 1 401 2
 929 06ee 8B45E4   		movl	-28(%ebp), %eax
 930 06f1 8B551C   		movl	28(%ebp), %edx
 931 06f4 89542410 		movl	%edx, 16(%esp)
 932 06f8 8B5518   		movl	24(%ebp), %edx
 933 06fb 8954240C 		movl	%edx, 12(%esp)
 934 06ff 8B5514   		movl	20(%ebp), %edx
 935 0702 89542408 		movl	%edx, 8(%esp)
 936 0706 8B55F4   		movl	-12(%ebp), %edx
 937 0709 89542404 		movl	%edx, 4(%esp)
 938 070d 890424   		movl	%eax, (%esp)
 939 0710 E864F9FF 		call	_DecodeTextCompaction
 939      FF
 402:src/pdf417/PDFDecodedBitStreamParser.c **** 	return codeIndex;
 940              		.loc 1 402 9
 941 0715 8B4510   		movl	16(%ebp), %eax
 942              	L65:
 943 0718 89F4     		movl	%esi, %esp
 403:src/pdf417/PDFDecodedBitStreamParser.c **** }
 944              		.loc 1 403 1
 945 071a 8D65F8   		leal	-8(%ebp), %esp
 946 071d 5B       		popl	%ebx
 947              		.cfi_restore 3
 948 071e 5E       		popl	%esi
 949              		.cfi_restore 6
 950 071f 5D       		popl	%ebp
 951              	LCFI14:
 952              		.cfi_restore 5
 953              		.cfi_def_cfa 4, 4
GAS LISTING C:\Users\jisu8\AppData\Local\Temp\ccC0pYc9.s 			page 28


 954 0720 C3       		ret
 955              		.cfi_endproc
 956              	LFE21:
 958              	_CountByteBatches:
 959              	LFB22:
 404:src/pdf417/PDFDecodedBitStreamParser.c **** 
 405:src/pdf417/PDFDecodedBitStreamParser.c **** 
 406:src/pdf417/PDFDecodedBitStreamParser.c **** /*
 407:src/pdf417/PDFDecodedBitStreamParser.c **** * Helper for Byte Compaction to look ahead and count 5-codeword batches and trailing bytes, with so
 408:src/pdf417/PDFDecodedBitStreamParser.c **** * format errors.
 409:src/pdf417/PDFDecodedBitStreamParser.c **** */
 410:src/pdf417/PDFDecodedBitStreamParser.c **** static int CountByteBatches(DecodeStatus_t status, int mode, const int * codewords, int codeIndex,
 411:src/pdf417/PDFDecodedBitStreamParser.c **** 							int * trailingCount)
 412:src/pdf417/PDFDecodedBitStreamParser.c **** {
 960              		.loc 1 412 1
 961              		.cfi_startproc
 962 0721 55       		pushl	%ebp
 963              	LCFI15:
 964              		.cfi_def_cfa_offset 8
 965              		.cfi_offset 5, -8
 966 0722 89E5     		movl	%esp, %ebp
 967              	LCFI16:
 968              		.cfi_def_cfa_register 5
 969 0724 83EC28   		subl	$40, %esp
 413:src/pdf417/PDFDecodedBitStreamParser.c **** 	int count = 0;
 970              		.loc 1 413 6
 971 0727 C745F400 		movl	$0, -12(%ebp)
 971      000000
 414:src/pdf417/PDFDecodedBitStreamParser.c **** 
 415:src/pdf417/PDFDecodedBitStreamParser.c **** 	while (codeIndex < codewords[0]) 
 972              		.loc 1 415 8
 973 072e E9BD0000 		jmp	L71
 973      00
 974              	L80:
 975              	LBB4:
 416:src/pdf417/PDFDecodedBitStreamParser.c **** 	{
 417:src/pdf417/PDFDecodedBitStreamParser.c **** 		int code = codewords[codeIndex++];
 976              		.loc 1 417 33
 977 0733 8B4514   		movl	20(%ebp), %eax
 978 0736 8D5001   		leal	1(%eax), %edx
 979 0739 895514   		movl	%edx, 20(%ebp)
 980              		.loc 1 417 23
 981 073c 8D148500 		leal	0(,%eax,4), %edx
 981      000000
 982 0743 8B4510   		movl	16(%ebp), %eax
 983 0746 01D0     		addl	%edx, %eax
 984              		.loc 1 417 7
 985 0748 8B00     		movl	(%eax), %eax
 986 074a 8945F0   		movl	%eax, -16(%ebp)
 418:src/pdf417/PDFDecodedBitStreamParser.c **** 		if (code >= TEXT_COMPACTION_MODE_LATCH) 
 987              		.loc 1 418 6
 988 074d 817DF083 		cmpl	$899, -16(%ebp)
 988      030000
 989 0754 0F8E9200 		jle	L72
 989      0000
 419:src/pdf417/PDFDecodedBitStreamParser.c **** 		{
 420:src/pdf417/PDFDecodedBitStreamParser.c **** 			if (mode == BYTE_COMPACTION_MODE_LATCH_6 && count && count % 5) 
GAS LISTING C:\Users\jisu8\AppData\Local\Temp\ccC0pYc9.s 			page 29


 990              		.loc 1 420 7
 991 075a 817D0C9C 		cmpl	$924, 12(%ebp)
 991      030000
 992 0761 753D     		jne	L73
 993              		.loc 1 420 45 discriminator 1
 994 0763 837DF400 		cmpl	$0, -12(%ebp)
 995 0767 7437     		je	L73
 996              		.loc 1 420 63 discriminator 2
 997 0769 8B4DF4   		movl	-12(%ebp), %ecx
 998 076c BA676666 		movl	$1717986919, %edx
 998      66
 999 0771 89C8     		movl	%ecx, %eax
 1000 0773 F7EA     		imull	%edx
 1001 0775 D1FA     		sarl	%edx
 1002 0777 89C8     		movl	%ecx, %eax
 1003 0779 C1F81F   		sarl	$31, %eax
 1004 077c 29C2     		subl	%eax, %edx
 1005 077e 89D0     		movl	%edx, %eax
 1006 0780 89C2     		movl	%eax, %edx
 1007 0782 C1E202   		sall	$2, %edx
 1008 0785 01C2     		addl	%eax, %edx
 1009 0787 89C8     		movl	%ecx, %eax
 1010 0789 29D0     		subl	%edx, %eax
 1011              		.loc 1 420 54 discriminator 2
 1012 078b 85C0     		testl	%eax, %eax
 1013 078d 7411     		je	L73
 421:src/pdf417/PDFDecodedBitStreamParser.c **** 			{
 422:src/pdf417/PDFDecodedBitStreamParser.c **** 				status = FormatError;
 1014              		.loc 1 422 12
 1015 078f C7450802 		movl	$2, 8(%ebp)
 1015      000000
 423:src/pdf417/PDFDecodedBitStreamParser.c **** 				return 0;
 1016              		.loc 1 423 12
 1017 0796 B8000000 		movl	$0, %eax
 1017      00
 1018 079b E91F0100 		jmp	L74
 1018      00
 1019              	L73:
 424:src/pdf417/PDFDecodedBitStreamParser.c **** 			}
 425:src/pdf417/PDFDecodedBitStreamParser.c **** 			if (code >= ECI_USER_DEFINED && code <= ECI_CHARSET) 
 1020              		.loc 1 425 7
 1021 07a0 817DF09C 		cmpl	$924, -16(%ebp)
 1021      030000
 1022 07a7 7E23     		jle	L75
 1023              		.loc 1 425 33 discriminator 1
 1024 07a9 817DF09F 		cmpl	$927, -16(%ebp)
 1024      030000
 1025 07b0 7F1A     		jg	L75
 426:src/pdf417/PDFDecodedBitStreamParser.c **** 			{
 427:src/pdf417/PDFDecodedBitStreamParser.c **** 				codeIndex += code == ECI_GENERAL_PURPOSE ? 2 : 1;
 1026              		.loc 1 427 50
 1027 07b2 817DF09E 		cmpl	$926, -16(%ebp)
 1027      030000
 1028 07b9 7507     		jne	L76
 1029              		.loc 1 427 50 is_stmt 0 discriminator 1
 1030 07bb B8020000 		movl	$2, %eax
 1030      00
GAS LISTING C:\Users\jisu8\AppData\Local\Temp\ccC0pYc9.s 			page 30


 1031 07c0 EB05     		jmp	L77
 1032              	L76:
 1033              		.loc 1 427 50 discriminator 2
 1034 07c2 B8010000 		movl	$1, %eax
 1034      00
 1035              	L77:
 1036              		.loc 1 427 15 is_stmt 1 discriminator 4
 1037 07c7 014514   		addl	%eax, 20(%ebp)
 428:src/pdf417/PDFDecodedBitStreamParser.c **** 				continue;
 1038              		.loc 1 428 5 discriminator 4
 1039 07ca EB24     		jmp	L71
 1040              	L75:
 429:src/pdf417/PDFDecodedBitStreamParser.c **** 			}
 430:src/pdf417/PDFDecodedBitStreamParser.c **** 			if (!TerminatesCompaction(code)) 
 1041              		.loc 1 430 9
 1042 07cc 8B45F0   		movl	-16(%ebp), %eax
 1043 07cf 890424   		movl	%eax, (%esp)
 1044 07d2 E829F8FF 		call	_TerminatesCompaction
 1044      FF
 1045              		.loc 1 430 7
 1046 07d7 84C0     		testb	%al, %al
 1047 07d9 7525     		jne	L86
 431:src/pdf417/PDFDecodedBitStreamParser.c **** 			{
 432:src/pdf417/PDFDecodedBitStreamParser.c **** 				status = FormatError;
 1048              		.loc 1 432 12
 1049 07db C7450802 		movl	$2, 8(%ebp)
 1049      000000
 433:src/pdf417/PDFDecodedBitStreamParser.c **** 				return 0;
 1050              		.loc 1 433 12
 1051 07e2 B8000000 		movl	$0, %eax
 1051      00
 1052 07e7 E9D30000 		jmp	L74
 1052      00
 1053              	L72:
 434:src/pdf417/PDFDecodedBitStreamParser.c **** 			}
 435:src/pdf417/PDFDecodedBitStreamParser.c **** 			break;
 436:src/pdf417/PDFDecodedBitStreamParser.c **** 		}
 437:src/pdf417/PDFDecodedBitStreamParser.c **** 		count++;
 1054              		.loc 1 437 8
 1055 07ec 8345F401 		addl	$1, -12(%ebp)
 1056              	L71:
 1057              	LBE4:
 415:src/pdf417/PDFDecodedBitStreamParser.c **** 	{
 1058              		.loc 1 415 30
 1059 07f0 8B4510   		movl	16(%ebp), %eax
 1060 07f3 8B00     		movl	(%eax), %eax
 415:src/pdf417/PDFDecodedBitStreamParser.c **** 	{
 1061              		.loc 1 415 8
 1062 07f5 394514   		cmpl	%eax, 20(%ebp)
 1063 07f8 0F8C35FF 		jl	L80
 1063      FFFF
 1064 07fe EB01     		jmp	L79
 1065              	L86:
 1066              	LBB5:
 435:src/pdf417/PDFDecodedBitStreamParser.c **** 		}
 1067              		.loc 1 435 4
 1068 0800 90       		nop
GAS LISTING C:\Users\jisu8\AppData\Local\Temp\ccC0pYc9.s 			page 31


 1069              	L79:
 1070              	LBE5:
 438:src/pdf417/PDFDecodedBitStreamParser.c **** 	}
 439:src/pdf417/PDFDecodedBitStreamParser.c **** 	if (codeIndex > codewords[0]) 
 1071              		.loc 1 439 27
 1072 0801 8B4510   		movl	16(%ebp), %eax
 1073 0804 8B00     		movl	(%eax), %eax
 1074              		.loc 1 439 5
 1075 0806 394514   		cmpl	%eax, 20(%ebp)
 1076 0809 7E11     		jle	L81
 440:src/pdf417/PDFDecodedBitStreamParser.c **** 	{
 441:src/pdf417/PDFDecodedBitStreamParser.c **** 		status = FormatError;
 1077              		.loc 1 441 10
 1078 080b C7450802 		movl	$2, 8(%ebp)
 1078      000000
 442:src/pdf417/PDFDecodedBitStreamParser.c **** 		return 0;
 1079              		.loc 1 442 10
 1080 0812 B8000000 		movl	$0, %eax
 1080      00
 1081 0817 E9A30000 		jmp	L74
 1081      00
 1082              	L81:
 443:src/pdf417/PDFDecodedBitStreamParser.c **** 	}
 444:src/pdf417/PDFDecodedBitStreamParser.c **** 	if (count == 0) {
 1083              		.loc 1 444 5
 1084 081c 837DF400 		cmpl	$0, -12(%ebp)
 1085 0820 750A     		jne	L82
 445:src/pdf417/PDFDecodedBitStreamParser.c **** 		return 0;
 1086              		.loc 1 445 10
 1087 0822 B8000000 		movl	$0, %eax
 1087      00
 1088 0827 E9930000 		jmp	L74
 1088      00
 1089              	L82:
 446:src/pdf417/PDFDecodedBitStreamParser.c **** 	}
 447:src/pdf417/PDFDecodedBitStreamParser.c **** 
 448:src/pdf417/PDFDecodedBitStreamParser.c **** 	if (mode == BYTE_COMPACTION_MODE_LATCH) 
 1090              		.loc 1 448 5
 1091 082c 817D0C85 		cmpl	$901, 12(%ebp)
 1091      030000
 1092 0833 753F     		jne	L83
 449:src/pdf417/PDFDecodedBitStreamParser.c **** 	{
 450:src/pdf417/PDFDecodedBitStreamParser.c **** 		*trailingCount = count % 5;
 1093              		.loc 1 450 26
 1094 0835 8B4DF4   		movl	-12(%ebp), %ecx
 1095 0838 BA676666 		movl	$1717986919, %edx
 1095      66
 1096 083d 89C8     		movl	%ecx, %eax
 1097 083f F7EA     		imull	%edx
 1098 0841 D1FA     		sarl	%edx
 1099 0843 89C8     		movl	%ecx, %eax
 1100 0845 C1F81F   		sarl	$31, %eax
 1101 0848 29C2     		subl	%eax, %edx
 1102 084a 89D0     		movl	%edx, %eax
 1103 084c 89C2     		movl	%eax, %edx
 1104 084e C1E202   		sall	$2, %edx
 1105 0851 01C2     		addl	%eax, %edx
GAS LISTING C:\Users\jisu8\AppData\Local\Temp\ccC0pYc9.s 			page 32


 1106 0853 89C8     		movl	%ecx, %eax
 1107 0855 29D0     		subl	%edx, %eax
 1108              		.loc 1 450 18
 1109 0857 8B5518   		movl	24(%ebp), %edx
 1110 085a 8902     		movl	%eax, (%edx)
 451:src/pdf417/PDFDecodedBitStreamParser.c **** 		if (*trailingCount == 0) 
 1111              		.loc 1 451 7
 1112 085c 8B4518   		movl	24(%ebp), %eax
 1113 085f 8B00     		movl	(%eax), %eax
 1114              		.loc 1 451 6
 1115 0861 85C0     		testl	%eax, %eax
 1116 0863 7543     		jne	L85
 452:src/pdf417/PDFDecodedBitStreamParser.c **** 		{
 453:src/pdf417/PDFDecodedBitStreamParser.c **** 			*trailingCount = 5;
 1117              		.loc 1 453 19
 1118 0865 8B4518   		movl	24(%ebp), %eax
 1119 0868 C7000500 		movl	$5, (%eax)
 1119      0000
 454:src/pdf417/PDFDecodedBitStreamParser.c **** 			count -= 5;
 1120              		.loc 1 454 10
 1121 086e 836DF405 		subl	$5, -12(%ebp)
 1122 0872 EB34     		jmp	L85
 1123              	L83:
 455:src/pdf417/PDFDecodedBitStreamParser.c **** 		}
 456:src/pdf417/PDFDecodedBitStreamParser.c **** 	}
 457:src/pdf417/PDFDecodedBitStreamParser.c **** 	else 
 458:src/pdf417/PDFDecodedBitStreamParser.c **** 	{ // BYTE_COMPACTION_MODE_LATCH_6
 459:src/pdf417/PDFDecodedBitStreamParser.c **** 		if (count % 5 != 0) 
 1124              		.loc 1 459 13
 1125 0874 8B4DF4   		movl	-12(%ebp), %ecx
 1126 0877 BA676666 		movl	$1717986919, %edx
 1126      66
 1127 087c 89C8     		movl	%ecx, %eax
 1128 087e F7EA     		imull	%edx
 1129 0880 D1FA     		sarl	%edx
 1130 0882 89C8     		movl	%ecx, %eax
 1131 0884 C1F81F   		sarl	$31, %eax
 1132 0887 29C2     		subl	%eax, %edx
 1133 0889 89D0     		movl	%edx, %eax
 1134 088b 89C2     		movl	%eax, %edx
 1135 088d C1E202   		sall	$2, %edx
 1136 0890 01C2     		addl	%eax, %edx
 1137 0892 89C8     		movl	%ecx, %eax
 1138 0894 29D0     		subl	%edx, %eax
 1139              		.loc 1 459 6
 1140 0896 85C0     		testl	%eax, %eax
 1141 0898 740E     		je	L85
 460:src/pdf417/PDFDecodedBitStreamParser.c **** 		{
 461:src/pdf417/PDFDecodedBitStreamParser.c **** 			status = FormatError;
 1142              		.loc 1 461 11
 1143 089a C7450802 		movl	$2, 8(%ebp)
 1143      000000
 462:src/pdf417/PDFDecodedBitStreamParser.c **** 			return 0;
 1144              		.loc 1 462 11
 1145 08a1 B8000000 		movl	$0, %eax
 1145      00
 1146 08a6 EB17     		jmp	L74
GAS LISTING C:\Users\jisu8\AppData\Local\Temp\ccC0pYc9.s 			page 33


 1147              	L85:
 463:src/pdf417/PDFDecodedBitStreamParser.c **** 		}
 464:src/pdf417/PDFDecodedBitStreamParser.c **** 	}
 465:src/pdf417/PDFDecodedBitStreamParser.c **** 
 466:src/pdf417/PDFDecodedBitStreamParser.c **** 	return count / 5;
 1148              		.loc 1 466 15
 1149 08a8 8B4DF4   		movl	-12(%ebp), %ecx
 1150 08ab BA676666 		movl	$1717986919, %edx
 1150      66
 1151 08b0 89C8     		movl	%ecx, %eax
 1152 08b2 F7EA     		imull	%edx
 1153 08b4 D1FA     		sarl	%edx
 1154 08b6 89C8     		movl	%ecx, %eax
 1155 08b8 C1F81F   		sarl	$31, %eax
 1156 08bb 29C2     		subl	%eax, %edx
 1157 08bd 89D0     		movl	%edx, %eax
 1158              	L74:
 467:src/pdf417/PDFDecodedBitStreamParser.c **** }
 1159              		.loc 1 467 1
 1160 08bf C9       		leave
 1161              	LCFI17:
 1162              		.cfi_restore 5
 1163              		.cfi_def_cfa 4, 4
 1164 08c0 C3       		ret
 1165              		.cfi_endproc
 1166              	LFE22:
 1168              	_ProcessByteECIs:
 1169              	LFB23:
 468:src/pdf417/PDFDecodedBitStreamParser.c **** 
 469:src/pdf417/PDFDecodedBitStreamParser.c **** 
 470:src/pdf417/PDFDecodedBitStreamParser.c **** /*
 471:src/pdf417/PDFDecodedBitStreamParser.c **** * Helper to handle Byte Compaction ECIs.
 472:src/pdf417/PDFDecodedBitStreamParser.c **** */
 473:src/pdf417/PDFDecodedBitStreamParser.c **** static int ProcessByteECIs(const int * codewords, int codeIndex,
 474:src/pdf417/PDFDecodedBitStreamParser.c **** 						   unsigned char * resultEncoded, char * result, CharacterSet_t * encoding)
 475:src/pdf417/PDFDecodedBitStreamParser.c **** {
 1170              		.loc 1 475 1
 1171              		.cfi_startproc
 1172 08c1 55       		pushl	%ebp
 1173              	LCFI18:
 1174              		.cfi_def_cfa_offset 8
 1175              		.cfi_offset 5, -8
 1176 08c2 89E5     		movl	%esp, %ebp
 1177              	LCFI19:
 1178              		.cfi_def_cfa_register 5
 1179 08c4 83EC38   		subl	$56, %esp
 476:src/pdf417/PDFDecodedBitStreamParser.c **** 	while (codeIndex < codewords[0] && codewords[codeIndex] >= TEXT_COMPACTION_MODE_LATCH
 1180              		.loc 1 476 8
 1181 08c7 EB66     		jmp	L88
 1182              	L90:
 1183              	LBB6:
 477:src/pdf417/PDFDecodedBitStreamParser.c **** 			&& !TerminatesCompaction(codewords[codeIndex])) 
 478:src/pdf417/PDFDecodedBitStreamParser.c **** 		{
 479:src/pdf417/PDFDecodedBitStreamParser.c **** 		int code = codewords[codeIndex++];
 1184              		.loc 1 479 33
 1185 08c9 8B450C   		movl	12(%ebp), %eax
 1186 08cc 8D5001   		leal	1(%eax), %edx
GAS LISTING C:\Users\jisu8\AppData\Local\Temp\ccC0pYc9.s 			page 34


 1187 08cf 89550C   		movl	%edx, 12(%ebp)
 1188              		.loc 1 479 23
 1189 08d2 8D148500 		leal	0(,%eax,4), %edx
 1189      000000
 1190 08d9 8B4508   		movl	8(%ebp), %eax
 1191 08dc 01D0     		addl	%edx, %eax
 1192              		.loc 1 479 7
 1193 08de 8B00     		movl	(%eax), %eax
 1194 08e0 8945F4   		movl	%eax, -12(%ebp)
 480:src/pdf417/PDFDecodedBitStreamParser.c **** 		if (code >= ECI_USER_DEFINED && code <= ECI_CHARSET) 
 1195              		.loc 1 480 6
 1196 08e3 817DF49C 		cmpl	$924, -12(%ebp)
 1196      030000
 1197 08ea 7E43     		jle	L88
 1198              		.loc 1 480 32 discriminator 1
 1199 08ec 817DF49F 		cmpl	$927, -12(%ebp)
 1199      030000
 1200 08f3 7F3A     		jg	L88
 481:src/pdf417/PDFDecodedBitStreamParser.c **** 		{
 482:src/pdf417/PDFDecodedBitStreamParser.c **** 			codeIndex = ProcessECI(codewords, codeIndex, codewords[0], code, resultEncoded, result, encoding
 1201              		.loc 1 482 16
 1202 08f5 8B4508   		movl	8(%ebp), %eax
 1203 08f8 8B00     		movl	(%eax), %eax
 1204 08fa 8B5518   		movl	24(%ebp), %edx
 1205 08fd 89542418 		movl	%edx, 24(%esp)
 1206 0901 8B5514   		movl	20(%ebp), %edx
 1207 0904 89542414 		movl	%edx, 20(%esp)
 1208 0908 8B5510   		movl	16(%ebp), %edx
 1209 090b 89542410 		movl	%edx, 16(%esp)
 1210 090f 8B55F4   		movl	-12(%ebp), %edx
 1211 0912 8954240C 		movl	%edx, 12(%esp)
 1212 0916 89442408 		movl	%eax, 8(%esp)
 1213 091a 8B450C   		movl	12(%ebp), %eax
 1214 091d 89442404 		movl	%eax, 4(%esp)
 1215 0921 8B4508   		movl	8(%ebp), %eax
 1216 0924 890424   		movl	%eax, (%esp)
 1217 0927 E8FBF6FF 		call	_ProcessECI
 1217      FF
 1218 092c 89450C   		movl	%eax, 12(%ebp)
 1219              	L88:
 1220              	LBE6:
 476:src/pdf417/PDFDecodedBitStreamParser.c **** 			&& !TerminatesCompaction(codewords[codeIndex])) 
 1221              		.loc 1 476 30
 1222 092f 8B4508   		movl	8(%ebp), %eax
 1223 0932 8B00     		movl	(%eax), %eax
 476:src/pdf417/PDFDecodedBitStreamParser.c **** 			&& !TerminatesCompaction(codewords[codeIndex])) 
 1224              		.loc 1 476 8
 1225 0934 39450C   		cmpl	%eax, 12(%ebp)
 1226 0937 7D39     		jge	L89
 476:src/pdf417/PDFDecodedBitStreamParser.c **** 			&& !TerminatesCompaction(codewords[codeIndex])) 
 1227              		.loc 1 476 46 discriminator 1
 1228 0939 8B450C   		movl	12(%ebp), %eax
 1229 093c 8D148500 		leal	0(,%eax,4), %edx
 1229      000000
 1230 0943 8B4508   		movl	8(%ebp), %eax
 1231 0946 01D0     		addl	%edx, %eax
 1232 0948 8B00     		movl	(%eax), %eax
GAS LISTING C:\Users\jisu8\AppData\Local\Temp\ccC0pYc9.s 			page 35


 476:src/pdf417/PDFDecodedBitStreamParser.c **** 			&& !TerminatesCompaction(codewords[codeIndex])) 
 1233              		.loc 1 476 34 discriminator 1
 1234 094a 3D830300 		cmpl	$899, %eax
 1234      00
 1235 094f 7E21     		jle	L89
 477:src/pdf417/PDFDecodedBitStreamParser.c **** 		{
 1236              		.loc 1 477 38
 1237 0951 8B450C   		movl	12(%ebp), %eax
 1238 0954 8D148500 		leal	0(,%eax,4), %edx
 1238      000000
 1239 095b 8B4508   		movl	8(%ebp), %eax
 1240 095e 01D0     		addl	%edx, %eax
 477:src/pdf417/PDFDecodedBitStreamParser.c **** 		{
 1241              		.loc 1 477 8
 1242 0960 8B00     		movl	(%eax), %eax
 1243 0962 890424   		movl	%eax, (%esp)
 1244 0965 E896F6FF 		call	_TerminatesCompaction
 1244      FF
 477:src/pdf417/PDFDecodedBitStreamParser.c **** 		{
 1245              		.loc 1 477 4
 1246 096a 84C0     		testb	%al, %al
 1247 096c 0F8457FF 		je	L90
 1247      FFFF
 1248              	L89:
 483:src/pdf417/PDFDecodedBitStreamParser.c **** 		}
 484:src/pdf417/PDFDecodedBitStreamParser.c **** 	}
 485:src/pdf417/PDFDecodedBitStreamParser.c **** 
 486:src/pdf417/PDFDecodedBitStreamParser.c **** 	return codeIndex;
 1249              		.loc 1 486 9
 1250 0972 8B450C   		movl	12(%ebp), %eax
 487:src/pdf417/PDFDecodedBitStreamParser.c **** }
 1251              		.loc 1 487 1
 1252 0975 C9       		leave
 1253              	LCFI20:
 1254              		.cfi_restore 5
 1255              		.cfi_def_cfa 4, 4
 1256 0976 C3       		ret
 1257              		.cfi_endproc
 1258              	LFE23:
 1260              	_ByteCompaction:
 1261              	LFB24:
 488:src/pdf417/PDFDecodedBitStreamParser.c **** 
 489:src/pdf417/PDFDecodedBitStreamParser.c **** /**
 490:src/pdf417/PDFDecodedBitStreamParser.c **** * Byte Compaction mode (see 5.4.3) permits all 256 possible 8-bit byte values to be encoded.
 491:src/pdf417/PDFDecodedBitStreamParser.c **** * This includes all ASCII characters value 0 to 127 inclusive and provides for international
 492:src/pdf417/PDFDecodedBitStreamParser.c **** * character set support.
 493:src/pdf417/PDFDecodedBitStreamParser.c **** *
 494:src/pdf417/PDFDecodedBitStreamParser.c **** * @param status        Set on format error.
 495:src/pdf417/PDFDecodedBitStreamParser.c **** * @param mode          The byte compaction mode i.e. 901 or 924
 496:src/pdf417/PDFDecodedBitStreamParser.c **** * @param codewords     The array of codewords (data + error)
 497:src/pdf417/PDFDecodedBitStreamParser.c **** * @param codeIndex     The current index into the codeword array.
 498:src/pdf417/PDFDecodedBitStreamParser.c **** * @param resultEncoded The Unicode-encoded data.
 499:src/pdf417/PDFDecodedBitStreamParser.c **** * @param result        The data in the character set encoding.
 500:src/pdf417/PDFDecodedBitStreamParser.c **** * @param encoding      Currently active character encoding.
 501:src/pdf417/PDFDecodedBitStreamParser.c **** * @return The next index into the codeword array.
 502:src/pdf417/PDFDecodedBitStreamParser.c **** */
 503:src/pdf417/PDFDecodedBitStreamParser.c **** 
GAS LISTING C:\Users\jisu8\AppData\Local\Temp\ccC0pYc9.s 			page 36


 504:src/pdf417/PDFDecodedBitStreamParser.c **** static int ByteCompaction(DecodeStatus_t status, int mode, const int * codewords, int codeIndex,
 505:src/pdf417/PDFDecodedBitStreamParser.c **** 						  unsigned char * resultEncoded, char * result, CharacterSet_t * encoding)
 506:src/pdf417/PDFDecodedBitStreamParser.c **** {
 1262              		.loc 1 506 1
 1263              		.cfi_startproc
 1264 0977 55       		pushl	%ebp
 1265              	LCFI21:
 1266              		.cfi_def_cfa_offset 8
 1267              		.cfi_offset 5, -8
 1268 0978 89E5     		movl	%esp, %ebp
 1269              	LCFI22:
 1270              		.cfi_def_cfa_register 5
 1271 097a 56       		pushl	%esi
 1272 097b 53       		pushl	%ebx
 1273 097c 83EC50   		subl	$80, %esp
 1274              		.cfi_offset 6, -12
 1275              		.cfi_offset 3, -16
 507:src/pdf417/PDFDecodedBitStreamParser.c **** 	// Count number of 5-codeword batches and trailing bytes
 508:src/pdf417/PDFDecodedBitStreamParser.c **** 	int trailingCount = 0;;
 1276              		.loc 1 508 6
 1277 097f C745D400 		movl	$0, -44(%ebp)
 1277      000000
 509:src/pdf417/PDFDecodedBitStreamParser.c **** 	int batches = CountByteBatches(status, mode, codewords, codeIndex, &trailingCount);
 1278              		.loc 1 509 16
 1279 0986 8D45D4   		leal	-44(%ebp), %eax
 1280 0989 89442410 		movl	%eax, 16(%esp)
 1281 098d 8B4514   		movl	20(%ebp), %eax
 1282 0990 8944240C 		movl	%eax, 12(%esp)
 1283 0994 8B4510   		movl	16(%ebp), %eax
 1284 0997 89442408 		movl	%eax, 8(%esp)
 1285 099b 8B450C   		movl	12(%ebp), %eax
 1286 099e 89442404 		movl	%eax, 4(%esp)
 1287 09a2 8B4508   		movl	8(%ebp), %eax
 1288 09a5 890424   		movl	%eax, (%esp)
 1289 09a8 E874FDFF 		call	_CountByteBatches
 1289      FF
 1290 09ad 8945D8   		movl	%eax, -40(%ebp)
 510:src/pdf417/PDFDecodedBitStreamParser.c **** 
 511:src/pdf417/PDFDecodedBitStreamParser.c **** 	if (StatusIsError(status)) 
 1291              		.loc 1 511 5
 1292 09b0 837D0800 		cmpl	$0, 8(%ebp)
 1293 09b4 7408     		je	L93
 512:src/pdf417/PDFDecodedBitStreamParser.c **** 	{
 513:src/pdf417/PDFDecodedBitStreamParser.c **** 		return codeIndex;
 1294              		.loc 1 513 10
 1295 09b6 8B4514   		movl	20(%ebp), %eax
 1296 09b9 E9770100 		jmp	L103
 1296      00
 1297              	L93:
 514:src/pdf417/PDFDecodedBitStreamParser.c **** 	}
 515:src/pdf417/PDFDecodedBitStreamParser.c **** 
 516:src/pdf417/PDFDecodedBitStreamParser.c **** 	// Deal with initial ECIs
 517:src/pdf417/PDFDecodedBitStreamParser.c **** 	codeIndex = ProcessByteECIs(codewords, codeIndex, resultEncoded, result, encoding);
 1298              		.loc 1 517 14
 1299 09be 8B4520   		movl	32(%ebp), %eax
 1300 09c1 89442410 		movl	%eax, 16(%esp)
 1301 09c5 8B451C   		movl	28(%ebp), %eax
GAS LISTING C:\Users\jisu8\AppData\Local\Temp\ccC0pYc9.s 			page 37


 1302 09c8 8944240C 		movl	%eax, 12(%esp)
 1303 09cc 8B4518   		movl	24(%ebp), %eax
 1304 09cf 89442408 		movl	%eax, 8(%esp)
 1305 09d3 8B4514   		movl	20(%ebp), %eax
 1306 09d6 89442404 		movl	%eax, 4(%esp)
 1307 09da 8B4510   		movl	16(%ebp), %eax
 1308 09dd 890424   		movl	%eax, (%esp)
 1309 09e0 E8DCFEFF 		call	_ProcessByteECIs
 1309      FF
 1310 09e5 894514   		movl	%eax, 20(%ebp)
 1311              	LBB7:
 518:src/pdf417/PDFDecodedBitStreamParser.c **** 
 519:src/pdf417/PDFDecodedBitStreamParser.c **** 	for (int batch = 0; batch < batches; batch++) 
 1312              		.loc 1 519 11
 1313 09e8 C745F400 		movl	$0, -12(%ebp)
 1313      000000
 1314              		.loc 1 519 2
 1315 09ef E9D60000 		jmp	L95
 1315      00
 1316              	L100:
 1317              	LBB8:
 520:src/pdf417/PDFDecodedBitStreamParser.c **** 	{
 521:src/pdf417/PDFDecodedBitStreamParser.c **** 		int64_t value = 0;
 1318              		.loc 1 521 11
 1319 09f4 C745E800 		movl	$0, -24(%ebp)
 1319      000000
 1320 09fb C745EC00 		movl	$0, -20(%ebp)
 1320      000000
 1321              	LBB9:
 522:src/pdf417/PDFDecodedBitStreamParser.c **** 		//int32_t value = 0;
 523:src/pdf417/PDFDecodedBitStreamParser.c **** 		for (int count = 0; count < 5; count++) 
 1322              		.loc 1 523 12
 1323 0a02 C745E400 		movl	$0, -28(%ebp)
 1323      000000
 1324              		.loc 1 523 3
 1325 0a09 EB48     		jmp	L96
 1326              	L97:
 524:src/pdf417/PDFDecodedBitStreamParser.c **** 		{
 525:src/pdf417/PDFDecodedBitStreamParser.c **** 			value = 900 * value + codewords[codeIndex++];
 1327              		.loc 1 525 16 discriminator 3
 1328 0a0b 8B45EC   		movl	-20(%ebp), %eax
 1329 0a0e 69D08403 		imull	$900, %eax, %edx
 1329      0000
 1330 0a14 8B45E8   		movl	-24(%ebp), %eax
 1331 0a17 6BC000   		imull	$0, %eax, %eax
 1332 0a1a 8D0C02   		leal	(%edx,%eax), %ecx
 1333 0a1d B8840300 		movl	$900, %eax
 1333      00
 1334 0a22 F765E8   		mull	-24(%ebp)
 1335 0a25 01D1     		addl	%edx, %ecx
 1336 0a27 89CA     		movl	%ecx, %edx
 1337              		.loc 1 525 45 discriminator 3
 1338 0a29 8B4D14   		movl	20(%ebp), %ecx
 1339 0a2c 8D5901   		leal	1(%ecx), %ebx
 1340 0a2f 895D14   		movl	%ebx, 20(%ebp)
 1341              		.loc 1 525 35 discriminator 3
 1342 0a32 8D1C8D00 		leal	0(,%ecx,4), %ebx
GAS LISTING C:\Users\jisu8\AppData\Local\Temp\ccC0pYc9.s 			page 38


 1342      000000
 1343 0a39 8B4D10   		movl	16(%ebp), %ecx
 1344 0a3c 01D9     		addl	%ebx, %ecx
 1345 0a3e 8B09     		movl	(%ecx), %ecx
 1346 0a40 89CB     		movl	%ecx, %ebx
 1347 0a42 C1FB1F   		sarl	$31, %ebx
 1348              		.loc 1 525 10 discriminator 3
 1349 0a45 01C8     		addl	%ecx, %eax
 1350 0a47 11DA     		adcl	%ebx, %edx
 1351 0a49 8945E8   		movl	%eax, -24(%ebp)
 1352 0a4c 8955EC   		movl	%edx, -20(%ebp)
 523:src/pdf417/PDFDecodedBitStreamParser.c **** 		{
 1353              		.loc 1 523 39 discriminator 3
 1354 0a4f 8345E401 		addl	$1, -28(%ebp)
 1355              	L96:
 523:src/pdf417/PDFDecodedBitStreamParser.c **** 		{
 1356              		.loc 1 523 3 discriminator 1
 1357 0a53 837DE404 		cmpl	$4, -28(%ebp)
 1358 0a57 7EB2     		jle	L97
 1359              	LBE9:
 1360              	LBB10:
 526:src/pdf417/PDFDecodedBitStreamParser.c **** 		}
 527:src/pdf417/PDFDecodedBitStreamParser.c **** 
 528:src/pdf417/PDFDecodedBitStreamParser.c **** 		for (int j = 0; j < 6; ++j) 
 1361              		.loc 1 528 12
 1362 0a59 C745E000 		movl	$0, -32(%ebp)
 1362      000000
 1363              		.loc 1 528 3
 1364 0a60 EB34     		jmp	L98
 1365              	L99:
 529:src/pdf417/PDFDecodedBitStreamParser.c **** 		{
 530:src/pdf417/PDFDecodedBitStreamParser.c **** 			result=(uint8_t)(value >> (8 * (5 - j)));
 1366              		.loc 1 530 38 discriminator 3
 1367 0a62 B8050000 		movl	$5, %eax
 1367      00
 1368 0a67 2B45E0   		subl	-32(%ebp), %eax
 1369              		.loc 1 530 33 discriminator 3
 1370 0a6a 8D0CC500 		leal	0(,%eax,8), %ecx
 1370      000000
 1371              		.loc 1 530 27 discriminator 3
 1372 0a71 8B45E8   		movl	-24(%ebp), %eax
 1373 0a74 8B55EC   		movl	-20(%ebp), %edx
 1374 0a77 0FADD0   		shrdl	%cl, %edx, %eax
 1375 0a7a D3FA     		sarl	%cl, %edx
 1376 0a7c F6C120   		testb	$32, %cl
 1377 0a7f 7405     		je	L104
 1378 0a81 89D0     		movl	%edx, %eax
 1379 0a83 C1FA1F   		sarl	$31, %edx
 1380              	L104:
 1381 0a86 89C3     		movl	%eax, %ebx
 1382 0a88 89D6     		movl	%edx, %esi
 1383              		.loc 1 530 11 discriminator 3
 1384 0a8a 89D8     		movl	%ebx, %eax
 1385 0a8c 0FB6C0   		movzbl	%al, %eax
 1386              		.loc 1 530 10 discriminator 3
 1387 0a8f 89451C   		movl	%eax, 28(%ebp)
 528:src/pdf417/PDFDecodedBitStreamParser.c **** 		{
GAS LISTING C:\Users\jisu8\AppData\Local\Temp\ccC0pYc9.s 			page 39


 1388              		.loc 1 528 26 discriminator 3
 1389 0a92 8345E001 		addl	$1, -32(%ebp)
 1390              	L98:
 528:src/pdf417/PDFDecodedBitStreamParser.c **** 		{
 1391              		.loc 1 528 3 discriminator 1
 1392 0a96 837DE005 		cmpl	$5, -32(%ebp)
 1393 0a9a 7EC6     		jle	L99
 1394              	LBE10:
 531:src/pdf417/PDFDecodedBitStreamParser.c **** 		}
 532:src/pdf417/PDFDecodedBitStreamParser.c **** 
 533:src/pdf417/PDFDecodedBitStreamParser.c **** 		// Deal with inter-batch ECIs
 534:src/pdf417/PDFDecodedBitStreamParser.c **** 		codeIndex = ProcessByteECIs(codewords, codeIndex, resultEncoded, result, encoding);
 1395              		.loc 1 534 15 discriminator 2
 1396 0a9c 8B4520   		movl	32(%ebp), %eax
 1397 0a9f 89442410 		movl	%eax, 16(%esp)
 1398 0aa3 8B451C   		movl	28(%ebp), %eax
 1399 0aa6 8944240C 		movl	%eax, 12(%esp)
 1400 0aaa 8B4518   		movl	24(%ebp), %eax
 1401 0aad 89442408 		movl	%eax, 8(%esp)
 1402 0ab1 8B4514   		movl	20(%ebp), %eax
 1403 0ab4 89442404 		movl	%eax, 4(%esp)
 1404 0ab8 8B4510   		movl	16(%ebp), %eax
 1405 0abb 890424   		movl	%eax, (%esp)
 1406 0abe E8FEFDFF 		call	_ProcessByteECIs
 1406      FF
 1407 0ac3 894514   		movl	%eax, 20(%ebp)
 1408              	LBE8:
 519:src/pdf417/PDFDecodedBitStreamParser.c **** 	{
 1409              		.loc 1 519 44 discriminator 2
 1410 0ac6 8345F401 		addl	$1, -12(%ebp)
 1411              	L95:
 519:src/pdf417/PDFDecodedBitStreamParser.c **** 	{
 1412              		.loc 1 519 2 discriminator 1
 1413 0aca 8B45F4   		movl	-12(%ebp), %eax
 1414 0acd 3B45D8   		cmpl	-40(%ebp), %eax
 1415 0ad0 0F8C1EFF 		jl	L100
 1415      FFFF
 1416              	LBE7:
 1417              	LBB11:
 535:src/pdf417/PDFDecodedBitStreamParser.c **** 	}
 536:src/pdf417/PDFDecodedBitStreamParser.c **** 
 537:src/pdf417/PDFDecodedBitStreamParser.c **** 	for (int i = 0; i < trailingCount; i++) 
 1418              		.loc 1 537 11
 1419 0ad6 C745DC00 		movl	$0, -36(%ebp)
 1419      000000
 1420              		.loc 1 537 2
 1421 0add EB4B     		jmp	L101
 1422              	L102:
 538:src/pdf417/PDFDecodedBitStreamParser.c **** 	{
 539:src/pdf417/PDFDecodedBitStreamParser.c **** 		result = (uint8_t)codewords[codeIndex++];
 1423              		.loc 1 539 40 discriminator 3
 1424 0adf 8B4514   		movl	20(%ebp), %eax
 1425 0ae2 8D5001   		leal	1(%eax), %edx
 1426 0ae5 895514   		movl	%edx, 20(%ebp)
 1427              		.loc 1 539 30 discriminator 3
 1428 0ae8 8D148500 		leal	0(,%eax,4), %edx
 1428      000000
GAS LISTING C:\Users\jisu8\AppData\Local\Temp\ccC0pYc9.s 			page 40


 1429 0aef 8B4510   		movl	16(%ebp), %eax
 1430 0af2 01D0     		addl	%edx, %eax
 1431 0af4 8B00     		movl	(%eax), %eax
 1432              		.loc 1 539 12 discriminator 3
 1433 0af6 0FB6C0   		movzbl	%al, %eax
 1434              		.loc 1 539 10 discriminator 3
 1435 0af9 89451C   		movl	%eax, 28(%ebp)
 540:src/pdf417/PDFDecodedBitStreamParser.c **** 		// Deal with inter-byte ECIs
 541:src/pdf417/PDFDecodedBitStreamParser.c **** 		codeIndex = ProcessByteECIs(codewords, codeIndex, resultEncoded, result, encoding);
 1436              		.loc 1 541 15 discriminator 3
 1437 0afc 8B4520   		movl	32(%ebp), %eax
 1438 0aff 89442410 		movl	%eax, 16(%esp)
 1439 0b03 8B451C   		movl	28(%ebp), %eax
 1440 0b06 8944240C 		movl	%eax, 12(%esp)
 1441 0b0a 8B4518   		movl	24(%ebp), %eax
 1442 0b0d 89442408 		movl	%eax, 8(%esp)
 1443 0b11 8B4514   		movl	20(%ebp), %eax
 1444 0b14 89442404 		movl	%eax, 4(%esp)
 1445 0b18 8B4510   		movl	16(%ebp), %eax
 1446 0b1b 890424   		movl	%eax, (%esp)
 1447 0b1e E89EFDFF 		call	_ProcessByteECIs
 1447      FF
 1448 0b23 894514   		movl	%eax, 20(%ebp)
 537:src/pdf417/PDFDecodedBitStreamParser.c **** 	{
 1449              		.loc 1 537 38 discriminator 3
 1450 0b26 8345DC01 		addl	$1, -36(%ebp)
 1451              	L101:
 537:src/pdf417/PDFDecodedBitStreamParser.c **** 	{
 1452              		.loc 1 537 20 discriminator 1
 1453 0b2a 8B45D4   		movl	-44(%ebp), %eax
 537:src/pdf417/PDFDecodedBitStreamParser.c **** 	{
 1454              		.loc 1 537 2 discriminator 1
 1455 0b2d 3945DC   		cmpl	%eax, -36(%ebp)
 1456 0b30 7CAD     		jl	L102
 1457              	LBE11:
 542:src/pdf417/PDFDecodedBitStreamParser.c **** 	}
 543:src/pdf417/PDFDecodedBitStreamParser.c **** 
 544:src/pdf417/PDFDecodedBitStreamParser.c **** 	return codeIndex;
 1458              		.loc 1 544 9
 1459 0b32 8B4514   		movl	20(%ebp), %eax
 1460              	L103:
 545:src/pdf417/PDFDecodedBitStreamParser.c **** }
 1461              		.loc 1 545 1 discriminator 1
 1462 0b35 83C450   		addl	$80, %esp
 1463 0b38 5B       		popl	%ebx
 1464              		.cfi_restore 3
 1465 0b39 5E       		popl	%esi
 1466              		.cfi_restore 6
 1467 0b3a 5D       		popl	%ebp
 1468              	LCFI23:
 1469              		.cfi_restore 5
 1470              		.cfi_def_cfa 4, 4
 1471 0b3b C3       		ret
 1472              		.cfi_endproc
 1473              	LFE24:
 1475              	_DecodeBase900toBase10:
 1476              	LFB25:
GAS LISTING C:\Users\jisu8\AppData\Local\Temp\ccC0pYc9.s 			page 41


 546:src/pdf417/PDFDecodedBitStreamParser.c **** 
 547:src/pdf417/PDFDecodedBitStreamParser.c **** 
 548:src/pdf417/PDFDecodedBitStreamParser.c **** /**
 549:src/pdf417/PDFDecodedBitStreamParser.c **** * Convert a list of Numeric Compacted codewords from Base 900 to Base 10.
 550:src/pdf417/PDFDecodedBitStreamParser.c **** *
 551:src/pdf417/PDFDecodedBitStreamParser.c **** * @param codewords The array of codewords
 552:src/pdf417/PDFDecodedBitStreamParser.c **** * @param count     The number of codewords
 553:src/pdf417/PDFDecodedBitStreamParser.c **** * @return The decoded string representing the Numeric data.
 554:src/pdf417/PDFDecodedBitStreamParser.c **** */
 555:src/pdf417/PDFDecodedBitStreamParser.c **** /*
 556:src/pdf417/PDFDecodedBitStreamParser.c **** EXAMPLE
 557:src/pdf417/PDFDecodedBitStreamParser.c **** Encode the fifteen digit numeric string 000213298174000
 558:src/pdf417/PDFDecodedBitStreamParser.c **** Prefix the numeric string with a 1 and set the initial value of
 559:src/pdf417/PDFDecodedBitStreamParser.c **** t = 1 000 213 298 174 000
 560:src/pdf417/PDFDecodedBitStreamParser.c **** Calculate codeword 0
 561:src/pdf417/PDFDecodedBitStreamParser.c **** d0 = 1 000 213 298 174 000 mod 900 = 200
 562:src/pdf417/PDFDecodedBitStreamParser.c **** 
 563:src/pdf417/PDFDecodedBitStreamParser.c **** t = 1 000 213 298 174 000 div 900 = 1 111 348 109 082
 564:src/pdf417/PDFDecodedBitStreamParser.c **** Calculate codeword 1
 565:src/pdf417/PDFDecodedBitStreamParser.c **** d1 = 1 111 348 109 082 mod 900 = 282
 566:src/pdf417/PDFDecodedBitStreamParser.c **** 
 567:src/pdf417/PDFDecodedBitStreamParser.c **** t = 1 111 348 109 082 div 900 = 1 234 831 232
 568:src/pdf417/PDFDecodedBitStreamParser.c **** Calculate codeword 2
 569:src/pdf417/PDFDecodedBitStreamParser.c **** d2 = 1 234 831 232 mod 900 = 632
 570:src/pdf417/PDFDecodedBitStreamParser.c **** 
 571:src/pdf417/PDFDecodedBitStreamParser.c **** t = 1 234 831 232 div 900 = 1 372 034
 572:src/pdf417/PDFDecodedBitStreamParser.c **** Calculate codeword 3
 573:src/pdf417/PDFDecodedBitStreamParser.c **** d3 = 1 372 034 mod 900 = 434
 574:src/pdf417/PDFDecodedBitStreamParser.c **** 
 575:src/pdf417/PDFDecodedBitStreamParser.c **** t = 1 372 034 div 900 = 1 524
 576:src/pdf417/PDFDecodedBitStreamParser.c **** Calculate codeword 4
 577:src/pdf417/PDFDecodedBitStreamParser.c **** d4 = 1 524 mod 900 = 624
 578:src/pdf417/PDFDecodedBitStreamParser.c **** 
 579:src/pdf417/PDFDecodedBitStreamParser.c **** t = 1 524 div 900 = 1
 580:src/pdf417/PDFDecodedBitStreamParser.c **** Calculate codeword 5
 581:src/pdf417/PDFDecodedBitStreamParser.c **** d5 = 1 mod 900 = 1
 582:src/pdf417/PDFDecodedBitStreamParser.c **** t = 1 div 900 = 0
 583:src/pdf417/PDFDecodedBitStreamParser.c **** Codeword sequence is: 1, 624, 434, 632, 282, 200
 584:src/pdf417/PDFDecodedBitStreamParser.c **** 
 585:src/pdf417/PDFDecodedBitStreamParser.c **** Decode the above codewords involves
 586:src/pdf417/PDFDecodedBitStreamParser.c **** 1 x 900 power of 5 + 624 x 900 power of 4 + 434 x 900 power of 3 +
 587:src/pdf417/PDFDecodedBitStreamParser.c **** 632 x 900 power of 2 + 282 x 900 power of 1 + 200 x 900 power of 0 = 1000213298174000
 588:src/pdf417/PDFDecodedBitStreamParser.c **** 
 589:src/pdf417/PDFDecodedBitStreamParser.c **** Remove leading 1 =>  Result is 000213298174000
 590:src/pdf417/PDFDecodedBitStreamParser.c **** */
 591:src/pdf417/PDFDecodedBitStreamParser.c **** 
 592:src/pdf417/PDFDecodedBitStreamParser.c **** static DecodeStatus_t DecodeBase900toBase10(const int * codewords, int count, char * resultString)
 593:src/pdf417/PDFDecodedBitStreamParser.c **** {
 1477              		.loc 1 593 1
 1478              		.cfi_startproc
 594:src/pdf417/PDFDecodedBitStreamParser.c **** 	// Table containing values for the exponent of 900.
 595:src/pdf417/PDFDecodedBitStreamParser.c **** 	#if 0
 596:src/pdf417/PDFDecodedBitStreamParser.c **** 	static const auto EXP900 = []() 
 597:src/pdf417/PDFDecodedBitStreamParser.c **** 	{
 598:src/pdf417/PDFDecodedBitStreamParser.c **** 		std::array<BigInteger, 16> table = {1, 900};
 599:src/pdf417/PDFDecodedBitStreamParser.c **** 		for (size_t i = 2; i < table.size(); ++i) {
 600:src/pdf417/PDFDecodedBitStreamParser.c **** 			table[i] = table[i - 1] * 900;
GAS LISTING C:\Users\jisu8\AppData\Local\Temp\ccC0pYc9.s 			page 42


 601:src/pdf417/PDFDecodedBitStreamParser.c **** 		}
 602:src/pdf417/PDFDecodedBitStreamParser.c **** 		return table;
 603:src/pdf417/PDFDecodedBitStreamParser.c **** 	}();
 604:src/pdf417/PDFDecodedBitStreamParser.c **** 
 605:src/pdf417/PDFDecodedBitStreamParser.c **** 	assert(count <= 16);
 606:src/pdf417/PDFDecodedBitStreamParser.c **** 
 607:src/pdf417/PDFDecodedBitStreamParser.c **** 	BigInteger result;
 608:src/pdf417/PDFDecodedBitStreamParser.c **** 	for (int i = 0; i < count; i++) 
 609:src/pdf417/PDFDecodedBitStreamParser.c **** 	{
 610:src/pdf417/PDFDecodedBitStreamParser.c **** 		result += EXP900[count - i - 1] * codewords[i];
 611:src/pdf417/PDFDecodedBitStreamParser.c **** 	}
 612:src/pdf417/PDFDecodedBitStreamParser.c **** 
 613:src/pdf417/PDFDecodedBitStreamParser.c **** 	resultString = result.toString();
 614:src/pdf417/PDFDecodedBitStreamParser.c **** 
 615:src/pdf417/PDFDecodedBitStreamParser.c **** 	if (!resultString.empty() && resultString.front() == '1') 
 616:src/pdf417/PDFDecodedBitStreamParser.c **** 	{
 617:src/pdf417/PDFDecodedBitStreamParser.c **** 		resultString = resultString.substr(1);
 618:src/pdf417/PDFDecodedBitStreamParser.c **** 		return NoError;
 619:src/pdf417/PDFDecodedBitStreamParser.c **** 	}
 620:src/pdf417/PDFDecodedBitStreamParser.c **** 	#endif
 621:src/pdf417/PDFDecodedBitStreamParser.c **** 	return FormatError;
 1479              		.loc 1 621 9
 1480 0b3c B8020000 		movl	$2, %eax
 1480      00
 622:src/pdf417/PDFDecodedBitStreamParser.c **** }
 1481              		.loc 1 622 1
 1482 0b41 C3       		ret
 1483              		.cfi_endproc
 1484              	LFE25:
 1486              	_NumericCompaction:
 1487              	LFB26:
 623:src/pdf417/PDFDecodedBitStreamParser.c **** 
 624:src/pdf417/PDFDecodedBitStreamParser.c **** 
 625:src/pdf417/PDFDecodedBitStreamParser.c **** /**
 626:src/pdf417/PDFDecodedBitStreamParser.c **** * Numeric Compaction mode (see 5.4.4) permits efficient encoding of numeric data strings.
 627:src/pdf417/PDFDecodedBitStreamParser.c **** *
 628:src/pdf417/PDFDecodedBitStreamParser.c **** * @param status    Set on format error.
 629:src/pdf417/PDFDecodedBitStreamParser.c **** * @param codewords The array of codewords (data + error)
 630:src/pdf417/PDFDecodedBitStreamParser.c **** * @param codeIndex The current index into the codeword array.
 631:src/pdf417/PDFDecodedBitStreamParser.c **** * @param result    The decoded data is appended to the result.
 632:src/pdf417/PDFDecodedBitStreamParser.c **** * @param encoding  Currently active character encoding.
 633:src/pdf417/PDFDecodedBitStreamParser.c **** * @return The next index into the codeword array.
 634:src/pdf417/PDFDecodedBitStreamParser.c **** */
 635:src/pdf417/PDFDecodedBitStreamParser.c **** static int NumericCompaction(DecodeStatus_t status, const int * codewords, int codeIndex,
 636:src/pdf417/PDFDecodedBitStreamParser.c **** 							 unsigned char * resultEncoded, char * result, CharacterSet_t * encoding)
 637:src/pdf417/PDFDecodedBitStreamParser.c **** {
 1488              		.loc 1 637 1
 1489              		.cfi_startproc
 1490 0b42 55       		pushl	%ebp
 1491              	LCFI24:
 1492              		.cfi_def_cfa_offset 8
 1493              		.cfi_offset 5, -8
 1494 0b43 89E5     		movl	%esp, %ebp
 1495              	LCFI25:
 1496              		.cfi_def_cfa_register 5
 1497 0b45 57       		pushl	%edi
 1498 0b46 53       		pushl	%ebx
GAS LISTING C:\Users\jisu8\AppData\Local\Temp\ccC0pYc9.s 			page 43


 1499 0b47 81ECA000 		subl	$160, %esp
 1499      0000
 1500              		.cfi_offset 7, -12
 1501              		.cfi_offset 3, -16
 1502              		.loc 1 637 1
 1503 0b4d 89E0     		movl	%esp, %eax
 1504 0b4f 89C3     		movl	%eax, %ebx
 638:src/pdf417/PDFDecodedBitStreamParser.c **** 	int count = 0;
 1505              		.loc 1 638 6
 1506 0b51 C745F400 		movl	$0, -12(%ebp)
 1506      000000
 639:src/pdf417/PDFDecodedBitStreamParser.c **** 	uint8_t end = 0;
 1507              		.loc 1 639 10
 1508 0b58 C645F300 		movb	$0, -13(%ebp)
 640:src/pdf417/PDFDecodedBitStreamParser.c **** 
 641:src/pdf417/PDFDecodedBitStreamParser.c **** 	int numericCodewords[MAX_NUMERIC_CODEWORDS];
 1509              		.loc 1 641 6
 1510 0b5c B80F0000 		movl	$15, %eax
 1510      00
 1511 0b61 83E801   		subl	$1, %eax
 1512 0b64 8945EC   		movl	%eax, -20(%ebp)
 1513 0b67 B80F0000 		movl	$15, %eax
 1513      00
 1514 0b6c 8D148500 		leal	0(,%eax,4), %edx
 1514      000000
 1515 0b73 B8100000 		movl	$16, %eax
 1515      00
 1516 0b78 83E801   		subl	$1, %eax
 1517 0b7b 01D0     		addl	%edx, %eax
 1518 0b7d BF100000 		movl	$16, %edi
 1518      00
 1519 0b82 BA000000 		movl	$0, %edx
 1519      00
 1520 0b87 F7F7     		divl	%edi
 1521 0b89 6BC010   		imull	$16, %eax, %eax
 1522 0b8c E8000000 		call	___chkstk_ms
 1522      00
 1523 0b91 29C4     		subl	%eax, %esp
 1524 0b93 8D44241C 		leal	28(%esp), %eax
 1525 0b97 83C003   		addl	$3, %eax
 1526 0b9a C1E802   		shrl	$2, %eax
 1527 0b9d C1E002   		sall	$2, %eax
 1528 0ba0 8945E8   		movl	%eax, -24(%ebp)
 642:src/pdf417/PDFDecodedBitStreamParser.c **** 
 643:src/pdf417/PDFDecodedBitStreamParser.c **** 	while (codeIndex < codewords[0] && !end) 
 1529              		.loc 1 643 8
 1530 0ba3 E98E0100 		jmp	L108
 1530      00
 1531              	L120:
 1532              	LBB12:
 644:src/pdf417/PDFDecodedBitStreamParser.c **** 	{
 645:src/pdf417/PDFDecodedBitStreamParser.c **** 		int code = codewords[codeIndex++];
 1533              		.loc 1 645 33
 1534 0ba8 8B4510   		movl	16(%ebp), %eax
 1535 0bab 8D5001   		leal	1(%eax), %edx
 1536 0bae 895510   		movl	%edx, 16(%ebp)
 1537              		.loc 1 645 23
GAS LISTING C:\Users\jisu8\AppData\Local\Temp\ccC0pYc9.s 			page 44


 1538 0bb1 8D148500 		leal	0(,%eax,4), %edx
 1538      000000
 1539 0bb8 8B450C   		movl	12(%ebp), %eax
 1540 0bbb 01D0     		addl	%edx, %eax
 1541              		.loc 1 645 7
 1542 0bbd 8B00     		movl	(%eax), %eax
 1543 0bbf 8945E4   		movl	%eax, -28(%ebp)
 646:src/pdf417/PDFDecodedBitStreamParser.c **** 		if (code >= TEXT_COMPACTION_MODE_LATCH) 
 1544              		.loc 1 646 6
 1545 0bc2 817DE483 		cmpl	$899, -28(%ebp)
 1545      030000
 1546 0bc9 0F8ED100 		jle	L109
 1546      0000
 647:src/pdf417/PDFDecodedBitStreamParser.c **** 		{
 648:src/pdf417/PDFDecodedBitStreamParser.c **** 			if (code >= ECI_USER_DEFINED && code <= ECI_CHARSET) 
 1547              		.loc 1 648 7
 1548 0bcf 817DE49C 		cmpl	$924, -28(%ebp)
 1548      030000
 1549 0bd6 0F8E9E00 		jle	L110
 1549      0000
 1550              		.loc 1 648 33 discriminator 1
 1551 0bdc 817DE49F 		cmpl	$927, -28(%ebp)
 1551      030000
 1552 0be3 0F8F9100 		jg	L110
 1552      0000
 649:src/pdf417/PDFDecodedBitStreamParser.c **** 			{
 650:src/pdf417/PDFDecodedBitStreamParser.c **** 				// As operating in Basic Channel Mode (i.e. not embedding backslashed ECIs and doubling backsla
 651:src/pdf417/PDFDecodedBitStreamParser.c **** 				// allow ECIs anywhere in Numeric Compaction (i.e. ISO/IEC 15438:2015 5.5.3.4 doesn't apply).
 652:src/pdf417/PDFDecodedBitStreamParser.c **** 				if (count > 0) 
 1553              		.loc 1 652 8
 1554 0be9 837DF400 		cmpl	$0, -12(%ebp)
 1555 0bed 7E4C     		jle	L111
 1556              	LBB13:
 653:src/pdf417/PDFDecodedBitStreamParser.c **** 				{
 654:src/pdf417/PDFDecodedBitStreamParser.c **** 					char tmp[100] = {0,};
 1557              		.loc 1 654 11
 1558 0bef 8D5580   		leal	-128(%ebp), %edx
 1559 0bf2 B8000000 		movl	$0, %eax
 1559      00
 1560 0bf7 B9190000 		movl	$25, %ecx
 1560      00
 1561 0bfc 89D7     		movl	%edx, %edi
 1562 0bfe F3AB     		rep stosl
 655:src/pdf417/PDFDecodedBitStreamParser.c **** 					status = DecodeBase900toBase10(numericCodewords, count, tmp);
 1563              		.loc 1 655 15
 1564 0c00 8B45E8   		movl	-24(%ebp), %eax
 1565 0c03 8D5580   		leal	-128(%ebp), %edx
 1566 0c06 89542408 		movl	%edx, 8(%esp)
 1567 0c0a 8B55F4   		movl	-12(%ebp), %edx
 1568 0c0d 89542404 		movl	%edx, 4(%esp)
 1569 0c11 890424   		movl	%eax, (%esp)
 1570 0c14 E823FFFF 		call	_DecodeBase900toBase10
 1570      FF
 1571 0c19 894508   		movl	%eax, 8(%ebp)
 656:src/pdf417/PDFDecodedBitStreamParser.c **** 					if (StatusIsError(status)) {
 1572              		.loc 1 656 9
 1573 0c1c 837D0800 		cmpl	$0, 8(%ebp)
GAS LISTING C:\Users\jisu8\AppData\Local\Temp\ccC0pYc9.s 			page 45


 1574 0c20 7408     		je	L112
 657:src/pdf417/PDFDecodedBitStreamParser.c **** 						return codeIndex;
 1575              		.loc 1 657 14
 1576 0c22 8B4510   		movl	16(%ebp), %eax
 1577 0c25 E9230100 		jmp	L113
 1577      00
 1578              	L112:
 658:src/pdf417/PDFDecodedBitStreamParser.c **** 					}
 659:src/pdf417/PDFDecodedBitStreamParser.c **** 					result += *tmp;
 1579              		.loc 1 659 16
 1580 0c2a 0FB64580 		movzbl	-128(%ebp), %eax
 1581 0c2e 0FBEC0   		movsbl	%al, %eax
 1582              		.loc 1 659 13
 1583 0c31 014518   		addl	%eax, 24(%ebp)
 660:src/pdf417/PDFDecodedBitStreamParser.c **** 					count = 0;
 1584              		.loc 1 660 12
 1585 0c34 C745F400 		movl	$0, -12(%ebp)
 1585      000000
 1586              	L111:
 1587              	LBE13:
 661:src/pdf417/PDFDecodedBitStreamParser.c **** 				}
 662:src/pdf417/PDFDecodedBitStreamParser.c **** 				codeIndex = ProcessECI(codewords, codeIndex, codewords[0], code, resultEncoded, result, encodin
 1588              		.loc 1 662 17
 1589 0c3b 8B450C   		movl	12(%ebp), %eax
 1590 0c3e 8B00     		movl	(%eax), %eax
 1591 0c40 8B551C   		movl	28(%ebp), %edx
 1592 0c43 89542418 		movl	%edx, 24(%esp)
 1593 0c47 8B5518   		movl	24(%ebp), %edx
 1594 0c4a 89542414 		movl	%edx, 20(%esp)
 1595 0c4e 8B5514   		movl	20(%ebp), %edx
 1596 0c51 89542410 		movl	%edx, 16(%esp)
 1597 0c55 8B55E4   		movl	-28(%ebp), %edx
 1598 0c58 8954240C 		movl	%edx, 12(%esp)
 1599 0c5c 89442408 		movl	%eax, 8(%esp)
 1600 0c60 8B4510   		movl	16(%ebp), %eax
 1601 0c63 89442404 		movl	%eax, 4(%esp)
 1602 0c67 8B450C   		movl	12(%ebp), %eax
 1603 0c6a 890424   		movl	%eax, (%esp)
 1604 0c6d E8B5F3FF 		call	_ProcessECI
 1604      FF
 1605 0c72 894510   		movl	%eax, 16(%ebp)
 663:src/pdf417/PDFDecodedBitStreamParser.c **** 				continue;
 1606              		.loc 1 663 5
 1607 0c75 E9BC0000 		jmp	L108
 1607      00
 1608              	L110:
 664:src/pdf417/PDFDecodedBitStreamParser.c **** 			}
 665:src/pdf417/PDFDecodedBitStreamParser.c **** 			if (!TerminatesCompaction(code)) 
 1609              		.loc 1 665 9
 1610 0c7a 8B45E4   		movl	-28(%ebp), %eax
 1611 0c7d 890424   		movl	%eax, (%esp)
 1612 0c80 E87BF3FF 		call	_TerminatesCompaction
 1612      FF
 1613              		.loc 1 665 7
 1614 0c85 84C0     		testb	%al, %al
 1615 0c87 750F     		jne	L114
 666:src/pdf417/PDFDecodedBitStreamParser.c **** 			{
GAS LISTING C:\Users\jisu8\AppData\Local\Temp\ccC0pYc9.s 			page 46


 667:src/pdf417/PDFDecodedBitStreamParser.c **** 				status = FormatError;
 1616              		.loc 1 667 12
 1617 0c89 C7450802 		movl	$2, 8(%ebp)
 1617      000000
 668:src/pdf417/PDFDecodedBitStreamParser.c **** 				return codeIndex;
 1618              		.loc 1 668 12
 1619 0c90 8B4510   		movl	16(%ebp), %eax
 1620 0c93 E9B50000 		jmp	L113
 1620      00
 1621              	L114:
 669:src/pdf417/PDFDecodedBitStreamParser.c **** 			}
 670:src/pdf417/PDFDecodedBitStreamParser.c **** 			codeIndex--;
 1622              		.loc 1 670 13
 1623 0c98 836D1001 		subl	$1, 16(%ebp)
 671:src/pdf417/PDFDecodedBitStreamParser.c **** 			end = 1;
 1624              		.loc 1 671 8
 1625 0c9c C645F301 		movb	$1, -13(%ebp)
 1626              	L109:
 672:src/pdf417/PDFDecodedBitStreamParser.c **** 		}
 673:src/pdf417/PDFDecodedBitStreamParser.c **** 		if (codeIndex == codewords[0]) {
 1627              		.loc 1 673 29
 1628 0ca0 8B450C   		movl	12(%ebp), %eax
 1629 0ca3 8B00     		movl	(%eax), %eax
 1630              		.loc 1 673 6
 1631 0ca5 394510   		cmpl	%eax, 16(%ebp)
 1632 0ca8 7504     		jne	L115
 674:src/pdf417/PDFDecodedBitStreamParser.c **** 			end = 1;
 1633              		.loc 1 674 8
 1634 0caa C645F301 		movb	$1, -13(%ebp)
 1635              	L115:
 675:src/pdf417/PDFDecodedBitStreamParser.c **** 		}
 676:src/pdf417/PDFDecodedBitStreamParser.c **** 		if (code < TEXT_COMPACTION_MODE_LATCH) 
 1636              		.loc 1 676 6
 1637 0cae 817DE483 		cmpl	$899, -28(%ebp)
 1637      030000
 1638 0cb5 7F10     		jg	L116
 677:src/pdf417/PDFDecodedBitStreamParser.c **** 		{
 678:src/pdf417/PDFDecodedBitStreamParser.c **** 			numericCodewords[count] = code;
 1639              		.loc 1 678 28
 1640 0cb7 8B45E8   		movl	-24(%ebp), %eax
 1641 0cba 8B55F4   		movl	-12(%ebp), %edx
 1642 0cbd 8B4DE4   		movl	-28(%ebp), %ecx
 1643 0cc0 890C90   		movl	%ecx, (%eax,%edx,4)
 679:src/pdf417/PDFDecodedBitStreamParser.c **** 			count++;
 1644              		.loc 1 679 9
 1645 0cc3 8345F401 		addl	$1, -12(%ebp)
 1646              	L116:
 680:src/pdf417/PDFDecodedBitStreamParser.c **** 		}
 681:src/pdf417/PDFDecodedBitStreamParser.c **** 		if (count % MAX_NUMERIC_CODEWORDS == 0 || code == NUMERIC_COMPACTION_MODE_LATCH || end) 
 1647              		.loc 1 681 13
 1648 0cc7 B90F0000 		movl	$15, %ecx
 1648      00
 1649 0ccc 8B45F4   		movl	-12(%ebp), %eax
 1650 0ccf 99       		cltd
 1651 0cd0 F7F9     		idivl	%ecx
 1652 0cd2 89D0     		movl	%edx, %eax
 1653              		.loc 1 681 6
GAS LISTING C:\Users\jisu8\AppData\Local\Temp\ccC0pYc9.s 			page 47


 1654 0cd4 85C0     		testl	%eax, %eax
 1655 0cd6 740F     		je	L117
 1656              		.loc 1 681 42 discriminator 1
 1657 0cd8 817DE486 		cmpl	$902, -28(%ebp)
 1657      030000
 1658 0cdf 7406     		je	L117
 1659              		.loc 1 681 83 discriminator 2
 1660 0ce1 807DF300 		cmpb	$0, -13(%ebp)
 1661 0ce5 744F     		je	L108
 1662              	L117:
 682:src/pdf417/PDFDecodedBitStreamParser.c **** 		{
 683:src/pdf417/PDFDecodedBitStreamParser.c **** 			// Re-invoking Numeric Compaction mode (by using codeword 902
 684:src/pdf417/PDFDecodedBitStreamParser.c **** 			// while in Numeric Compaction mode) serves  to terminate the
 685:src/pdf417/PDFDecodedBitStreamParser.c **** 			// current Numeric Compaction mode grouping as described in 5.4.4.2,
 686:src/pdf417/PDFDecodedBitStreamParser.c **** 			// and then to start a new one grouping.
 687:src/pdf417/PDFDecodedBitStreamParser.c **** 			if (count > 0) 
 1663              		.loc 1 687 7
 1664 0ce7 837DF400 		cmpl	$0, -12(%ebp)
 1665 0ceb 7E49     		jle	L108
 1666              	LBB14:
 688:src/pdf417/PDFDecodedBitStreamParser.c **** 			{
 689:src/pdf417/PDFDecodedBitStreamParser.c **** 				char tmp[100] = {0,};
 1667              		.loc 1 689 10
 1668 0ced 8D5580   		leal	-128(%ebp), %edx
 1669 0cf0 B8000000 		movl	$0, %eax
 1669      00
 1670 0cf5 B9190000 		movl	$25, %ecx
 1670      00
 1671 0cfa 89D7     		movl	%edx, %edi
 1672 0cfc F3AB     		rep stosl
 690:src/pdf417/PDFDecodedBitStreamParser.c **** 				status = DecodeBase900toBase10(numericCodewords, count, tmp);
 1673              		.loc 1 690 14
 1674 0cfe 8B45E8   		movl	-24(%ebp), %eax
 1675 0d01 8D5580   		leal	-128(%ebp), %edx
 1676 0d04 89542408 		movl	%edx, 8(%esp)
 1677 0d08 8B55F4   		movl	-12(%ebp), %edx
 1678 0d0b 89542404 		movl	%edx, 4(%esp)
 1679 0d0f 890424   		movl	%eax, (%esp)
 1680 0d12 E825FEFF 		call	_DecodeBase900toBase10
 1680      FF
 1681 0d17 894508   		movl	%eax, 8(%ebp)
 691:src/pdf417/PDFDecodedBitStreamParser.c **** 				if (StatusIsError(status)) 
 1682              		.loc 1 691 8
 1683 0d1a 837D0800 		cmpl	$0, 8(%ebp)
 1684 0d1e 7405     		je	L118
 692:src/pdf417/PDFDecodedBitStreamParser.c **** 				{
 693:src/pdf417/PDFDecodedBitStreamParser.c **** 					return codeIndex;
 1685              		.loc 1 693 13
 1686 0d20 8B4510   		movl	16(%ebp), %eax
 1687 0d23 EB28     		jmp	L113
 1688              	L118:
 694:src/pdf417/PDFDecodedBitStreamParser.c **** 				}
 695:src/pdf417/PDFDecodedBitStreamParser.c **** 				result += *tmp;
 1689              		.loc 1 695 15
 1690 0d25 0FB64580 		movzbl	-128(%ebp), %eax
 1691 0d29 0FBEC0   		movsbl	%al, %eax
 1692              		.loc 1 695 12
GAS LISTING C:\Users\jisu8\AppData\Local\Temp\ccC0pYc9.s 			page 48


 1693 0d2c 014518   		addl	%eax, 24(%ebp)
 696:src/pdf417/PDFDecodedBitStreamParser.c **** 				count = 0;
 1694              		.loc 1 696 11
 1695 0d2f C745F400 		movl	$0, -12(%ebp)
 1695      000000
 1696              	L108:
 1697              	LBE14:
 1698              	LBE12:
 643:src/pdf417/PDFDecodedBitStreamParser.c **** 	{
 1699              		.loc 1 643 30
 1700 0d36 8B450C   		movl	12(%ebp), %eax
 1701 0d39 8B00     		movl	(%eax), %eax
 643:src/pdf417/PDFDecodedBitStreamParser.c **** 	{
 1702              		.loc 1 643 8
 1703 0d3b 394510   		cmpl	%eax, 16(%ebp)
 1704 0d3e 7D0A     		jge	L119
 643:src/pdf417/PDFDecodedBitStreamParser.c **** 	{
 1705              		.loc 1 643 34 discriminator 1
 1706 0d40 807DF300 		cmpb	$0, -13(%ebp)
 1707 0d44 0F845EFE 		je	L120
 1707      FFFF
 1708              	L119:
 697:src/pdf417/PDFDecodedBitStreamParser.c **** 			}
 698:src/pdf417/PDFDecodedBitStreamParser.c **** 		}
 699:src/pdf417/PDFDecodedBitStreamParser.c **** 	}
 700:src/pdf417/PDFDecodedBitStreamParser.c **** 	return codeIndex;
 1709              		.loc 1 700 9
 1710 0d4a 8B4510   		movl	16(%ebp), %eax
 1711              	L113:
 1712 0d4d 89DC     		movl	%ebx, %esp
 701:src/pdf417/PDFDecodedBitStreamParser.c **** }
 1713              		.loc 1 701 1
 1714 0d4f 8D65F8   		leal	-8(%ebp), %esp
 1715 0d52 5B       		popl	%ebx
 1716              		.cfi_restore 3
 1717 0d53 5F       		popl	%edi
 1718              		.cfi_restore 7
 1719 0d54 5D       		popl	%ebp
 1720              	LCFI26:
 1721              		.cfi_restore 5
 1722              		.cfi_def_cfa 4, 4
 1723 0d55 C3       		ret
 1724              		.cfi_endproc
 1725              	LFE26:
 1727              	_DecodeMacroOptionalTextField:
 1728              	LFB27:
 702:src/pdf417/PDFDecodedBitStreamParser.c **** 
 703:src/pdf417/PDFDecodedBitStreamParser.c **** 
 704:src/pdf417/PDFDecodedBitStreamParser.c **** /*
 705:src/pdf417/PDFDecodedBitStreamParser.c **** * Helper to deal with optional text fields in Macros.
 706:src/pdf417/PDFDecodedBitStreamParser.c **** */
 707:src/pdf417/PDFDecodedBitStreamParser.c **** static int DecodeMacroOptionalTextField(DecodeStatus_t status, const int * codewords, int codeIndex
 708:src/pdf417/PDFDecodedBitStreamParser.c **** 										char * field)
 709:src/pdf417/PDFDecodedBitStreamParser.c **** {
 1729              		.loc 1 709 1
 1730              		.cfi_startproc
 1731 0d56 55       		pushl	%ebp
GAS LISTING C:\Users\jisu8\AppData\Local\Temp\ccC0pYc9.s 			page 49


 1732              	LCFI27:
 1733              		.cfi_def_cfa_offset 8
 1734              		.cfi_offset 5, -8
 1735 0d57 89E5     		movl	%esp, %ebp
 1736              	LCFI28:
 1737              		.cfi_def_cfa_register 5
 1738 0d59 57       		pushl	%edi
 1739 0d5a 53       		pushl	%ebx
 1740 0d5b 81ECF000 		subl	$240, %esp
 1740      0000
 1741              		.cfi_offset 7, -12
 1742              		.cfi_offset 3, -16
 710:src/pdf417/PDFDecodedBitStreamParser.c **** 	unsigned char resultEncoded[100] = {0,};
 1743              		.loc 1 710 16
 1744 0d61 8D5594   		leal	-108(%ebp), %edx
 1745 0d64 B8000000 		movl	$0, %eax
 1745      00
 1746 0d69 B9190000 		movl	$25, %ecx
 1746      00
 1747 0d6e 89D7     		movl	%edx, %edi
 1748 0d70 F3AB     		rep stosl
 711:src/pdf417/PDFDecodedBitStreamParser.c **** 	char result[100];
 712:src/pdf417/PDFDecodedBitStreamParser.c **** 	// Each optional field begins with an implied reset to ECI 2 (Annex H.2.3). ECI 2 is ASCII for 0-1
 713:src/pdf417/PDFDecodedBitStreamParser.c **** 	// for non-ASCII (128-255). Text optional fields can contain ECIs.
 714:src/pdf417/PDFDecodedBitStreamParser.c **** 	CharacterSet_t encoding = Cp437;
 1749              		.loc 1 714 17
 1750 0d72 C7852CFF 		movl	$3, -212(%ebp)
 1750      FFFF0300 
 1750      0000
 715:src/pdf417/PDFDecodedBitStreamParser.c **** 
 716:src/pdf417/PDFDecodedBitStreamParser.c **** 	codeIndex = TextCompaction(status, codewords, codeIndex, resultEncoded, &result, &encoding);
 1751              		.loc 1 716 14
 1752 0d7c 8D852CFF 		leal	-212(%ebp), %eax
 1752      FFFF
 1753 0d82 89442414 		movl	%eax, 20(%esp)
 1754 0d86 8D8530FF 		leal	-208(%ebp), %eax
 1754      FFFF
 1755 0d8c 89442410 		movl	%eax, 16(%esp)
 1756 0d90 8D4594   		leal	-108(%ebp), %eax
 1757 0d93 8944240C 		movl	%eax, 12(%esp)
 1758 0d97 8B4510   		movl	16(%ebp), %eax
 1759 0d9a 89442408 		movl	%eax, 8(%esp)
 1760 0d9e 8B450C   		movl	12(%ebp), %eax
 1761 0da1 89442404 		movl	%eax, 4(%esp)
 1762 0da5 8B4508   		movl	8(%ebp), %eax
 1763 0da8 890424   		movl	%eax, (%esp)
 1764 0dab E8E0F6FF 		call	_TextCompaction
 1764      FF
 1765 0db0 894510   		movl	%eax, 16(%ebp)
 717:src/pdf417/PDFDecodedBitStreamParser.c **** 	Append(resultEncoded, (const uint8_t*)(result), strlen(result), encoding); 
 1766              		.loc 1 717 2
 1767 0db3 8B9D2CFF 		movl	-212(%ebp), %ebx
 1767      FFFF
 1768 0db9 8D8530FF 		leal	-208(%ebp), %eax
 1768      FFFF
 1769 0dbf 890424   		movl	%eax, (%esp)
 1770 0dc2 E8000000 		call	_strlen
GAS LISTING C:\Users\jisu8\AppData\Local\Temp\ccC0pYc9.s 			page 50


 1770      00
 1771 0dc7 895C240C 		movl	%ebx, 12(%esp)
 1772 0dcb 89442408 		movl	%eax, 8(%esp)
 1773 0dcf 8D8530FF 		leal	-208(%ebp), %eax
 1773      FFFF
 1774 0dd5 89442404 		movl	%eax, 4(%esp)
 1775 0dd9 8D4594   		leal	-108(%ebp), %eax
 1776 0ddc 890424   		movl	%eax, (%esp)
 1777 0ddf E8000000 		call	_Append
 1777      00
 718:src/pdf417/PDFDecodedBitStreamParser.c **** 
 719:src/pdf417/PDFDecodedBitStreamParser.c **** 	return codeIndex;
 1778              		.loc 1 719 9
 1779 0de4 8B4510   		movl	16(%ebp), %eax
 720:src/pdf417/PDFDecodedBitStreamParser.c **** }
 1780              		.loc 1 720 1
 1781 0de7 81C4F000 		addl	$240, %esp
 1781      0000
 1782 0ded 5B       		popl	%ebx
 1783              		.cfi_restore 3
 1784 0dee 5F       		popl	%edi
 1785              		.cfi_restore 7
 1786 0def 5D       		popl	%ebp
 1787              	LCFI29:
 1788              		.cfi_restore 5
 1789              		.cfi_def_cfa 4, 4
 1790 0df0 C3       		ret
 1791              		.cfi_endproc
 1792              	LFE27:
 1793              		.section .rdata,"dr"
 1794 010a 0000     		.align 4
 1795              	LC6:
 1796 010c 4465636F 		.ascii "DecodeMacroOptionalNumericField\0"
 1796      64654D61 
 1796      63726F4F 
 1796      7074696F 
 1796      6E616C4E 
 1797              		.text
 1799              	_DecodeMacroOptionalNumericField:
 1800              	LFB28:
 721:src/pdf417/PDFDecodedBitStreamParser.c **** 
 722:src/pdf417/PDFDecodedBitStreamParser.c **** 
 723:src/pdf417/PDFDecodedBitStreamParser.c **** /*
 724:src/pdf417/PDFDecodedBitStreamParser.c **** * Helper to deal with optional numeric fields in Macros.
 725:src/pdf417/PDFDecodedBitStreamParser.c **** */
 726:src/pdf417/PDFDecodedBitStreamParser.c **** static int DecodeMacroOptionalNumericField(DecodeStatus_t status, const int * codewords, int codeIn
 727:src/pdf417/PDFDecodedBitStreamParser.c **** 										   uint64_t field)
 728:src/pdf417/PDFDecodedBitStreamParser.c **** {
 1801              		.loc 1 728 1
 1802              		.cfi_startproc
 1803 0df1 55       		pushl	%ebp
 1804              	LCFI30:
 1805              		.cfi_def_cfa_offset 8
 1806              		.cfi_offset 5, -8
 1807 0df2 89E5     		movl	%esp, %ebp
 1808              	LCFI31:
 1809              		.cfi_def_cfa_register 5
GAS LISTING C:\Users\jisu8\AppData\Local\Temp\ccC0pYc9.s 			page 51


 1810 0df4 53       		pushl	%ebx
 1811 0df5 81EC0401 		subl	$260, %esp
 1811      0000
 1812              		.cfi_offset 3, -12
 1813 0dfb 8B4514   		movl	20(%ebp), %eax
 1814 0dfe 898520FF 		movl	%eax, -224(%ebp)
 1814      FFFF
 1815 0e04 8B4518   		movl	24(%ebp), %eax
 1816 0e07 898524FF 		movl	%eax, -220(%ebp)
 1816      FFFF
 729:src/pdf417/PDFDecodedBitStreamParser.c **** 
 730:src/pdf417/PDFDecodedBitStreamParser.c **** 	printf("DecodeMacroOptionalNumericField\n");
 1817              		.loc 1 730 2
 1818 0e0d C704240C 		movl	$LC6, (%esp)
 1818      010000
 1819 0e14 E8000000 		call	_puts
 1819      00
 731:src/pdf417/PDFDecodedBitStreamParser.c **** 
 732:src/pdf417/PDFDecodedBitStreamParser.c **** 	
 733:src/pdf417/PDFDecodedBitStreamParser.c **** 	unsigned char resultEncoded[100];
 734:src/pdf417/PDFDecodedBitStreamParser.c **** 	char result[100];
 735:src/pdf417/PDFDecodedBitStreamParser.c **** 	// Each optional field begins with an implied reset to ECI 2 (Annex H.2.3).
 736:src/pdf417/PDFDecodedBitStreamParser.c **** 	// Numeric optional fields should not contain ECIs, but processed anyway.
 737:src/pdf417/PDFDecodedBitStreamParser.c **** 	CharacterSet_t encoding = Cp437;
 1820              		.loc 1 737 17
 1821 0e19 C7852CFF 		movl	$3, -212(%ebp)
 1821      FFFF0300 
 1821      0000
 738:src/pdf417/PDFDecodedBitStreamParser.c **** 
 739:src/pdf417/PDFDecodedBitStreamParser.c **** 	codeIndex = NumericCompaction(status, codewords, codeIndex, resultEncoded, result, &encoding);
 1822              		.loc 1 739 14
 1823 0e23 8D852CFF 		leal	-212(%ebp), %eax
 1823      FFFF
 1824 0e29 89442414 		movl	%eax, 20(%esp)
 1825 0e2d 8D8530FF 		leal	-208(%ebp), %eax
 1825      FFFF
 1826 0e33 89442410 		movl	%eax, 16(%esp)
 1827 0e37 8D4594   		leal	-108(%ebp), %eax
 1828 0e3a 8944240C 		movl	%eax, 12(%esp)
 1829 0e3e 8B4510   		movl	16(%ebp), %eax
 1830 0e41 89442408 		movl	%eax, 8(%esp)
 1831 0e45 8B450C   		movl	12(%ebp), %eax
 1832 0e48 89442404 		movl	%eax, 4(%esp)
 1833 0e4c 8B4508   		movl	8(%ebp), %eax
 1834 0e4f 890424   		movl	%eax, (%esp)
 1835 0e52 E8EBFCFF 		call	_NumericCompaction
 1835      FF
 1836 0e57 894510   		movl	%eax, 16(%ebp)
 740:src/pdf417/PDFDecodedBitStreamParser.c **** 	Append(resultEncoded, (const uint8_t*)(result), strlen(result), encoding); 
 1837              		.loc 1 740 2
 1838 0e5a 8B9D2CFF 		movl	-212(%ebp), %ebx
 1838      FFFF
 1839 0e60 8D8530FF 		leal	-208(%ebp), %eax
 1839      FFFF
 1840 0e66 890424   		movl	%eax, (%esp)
 1841 0e69 E8000000 		call	_strlen
 1841      00
GAS LISTING C:\Users\jisu8\AppData\Local\Temp\ccC0pYc9.s 			page 52


 1842 0e6e 895C240C 		movl	%ebx, 12(%esp)
 1843 0e72 89442408 		movl	%eax, 8(%esp)
 1844 0e76 8D8530FF 		leal	-208(%ebp), %eax
 1844      FFFF
 1845 0e7c 89442404 		movl	%eax, 4(%esp)
 1846 0e80 8D4594   		leal	-108(%ebp), %eax
 1847 0e83 890424   		movl	%eax, (%esp)
 1848 0e86 E8000000 		call	_Append
 1848      00
 741:src/pdf417/PDFDecodedBitStreamParser.c **** 
 742:src/pdf417/PDFDecodedBitStreamParser.c **** 	field = strtol(resultEncoded,strlen(resultEncoded),10);
 1849              		.loc 1 742 31
 1850 0e8b 8D4594   		leal	-108(%ebp), %eax
 1851 0e8e 890424   		movl	%eax, (%esp)
 1852 0e91 E8000000 		call	_strlen
 1852      00
 1853              		.loc 1 742 10
 1854 0e96 C7442408 		movl	$10, 8(%esp)
 1854      0A000000 
 1855 0e9e 89442404 		movl	%eax, 4(%esp)
 1856 0ea2 8D4594   		leal	-108(%ebp), %eax
 1857 0ea5 890424   		movl	%eax, (%esp)
 1858 0ea8 E8000000 		call	_strtol
 1858      00
 1859              		.loc 1 742 8
 1860 0ead 99       		cltd
 1861 0eae 898520FF 		movl	%eax, -224(%ebp)
 1861      FFFF
 1862 0eb4 899524FF 		movl	%edx, -220(%ebp)
 1862      FFFF
 743:src/pdf417/PDFDecodedBitStreamParser.c **** 
 744:src/pdf417/PDFDecodedBitStreamParser.c **** 	return codeIndex;
 1863              		.loc 1 744 9
 1864 0eba 8B4510   		movl	16(%ebp), %eax
 745:src/pdf417/PDFDecodedBitStreamParser.c **** }
 1865              		.loc 1 745 1
 1866 0ebd 81C40401 		addl	$260, %esp
 1866      0000
 1867 0ec3 5B       		popl	%ebx
 1868              		.cfi_restore 3
 1869 0ec4 5D       		popl	%ebp
 1870              	LCFI32:
 1871              		.cfi_restore 5
 1872              		.cfi_def_cfa 4, 4
 1873 0ec5 C3       		ret
 1874              		.cfi_endproc
 1875              	LFE28:
 1876              		.section .rdata,"dr"
 1877              	LC7:
 1878 012c 4465636F 		.ascii "DecodeMacroBlock  \0"
 1878      64654D61 
 1878      63726F42 
 1878      6C6F636B 
 1878      202000
 1879              		.text
 1880              		.globl	_DecodeMacroBlock
 1882              	_DecodeMacroBlock:
GAS LISTING C:\Users\jisu8\AppData\Local\Temp\ccC0pYc9.s 			page 53


 1883              	LFB29:
 746:src/pdf417/PDFDecodedBitStreamParser.c **** 
 747:src/pdf417/PDFDecodedBitStreamParser.c **** 
 748:src/pdf417/PDFDecodedBitStreamParser.c **** DecodeStatus_t DecodeMacroBlock(const int * codewords, int codeIndex, DecoderResultExtra_t * result
 749:src/pdf417/PDFDecodedBitStreamParser.c **** 							  int next)
 750:src/pdf417/PDFDecodedBitStreamParser.c **** {
 1884              		.loc 1 750 1
 1885              		.cfi_startproc
 1886 0ec6 55       		pushl	%ebp
 1887              	LCFI33:
 1888              		.cfi_def_cfa_offset 8
 1889              		.cfi_offset 5, -8
 1890 0ec7 89E5     		movl	%esp, %ebp
 1891              	LCFI34:
 1892              		.cfi_def_cfa_register 5
 1893 0ec9 57       		pushl	%edi
 1894 0eca 53       		pushl	%ebx
 1895 0ecb 81EC3001 		subl	$304, %esp
 1895      0000
 1896              		.cfi_offset 7, -12
 1897              		.cfi_offset 3, -16
 1898              		.loc 1 750 1
 1899 0ed1 89E0     		movl	%esp, %eax
 1900 0ed3 89C3     		movl	%eax, %ebx
 751:src/pdf417/PDFDecodedBitStreamParser.c **** 
 752:src/pdf417/PDFDecodedBitStreamParser.c **** 	printf("DecodeMacroBlock  \n");
 1901              		.loc 1 752 2
 1902 0ed5 C704242C 		movl	$LC7, (%esp)
 1902      010000
 1903 0edc E8000000 		call	_puts
 1903      00
 753:src/pdf417/PDFDecodedBitStreamParser.c **** 	
 754:src/pdf417/PDFDecodedBitStreamParser.c **** 	if (codeIndex + NUMBER_OF_SEQUENCE_CODEWORDS > codewords[0])
 1904              		.loc 1 754 16
 1905 0ee1 BA020000 		movl	$2, %edx
 1905      00
 1906 0ee6 8B450C   		movl	12(%ebp), %eax
 1907 0ee9 01C2     		addl	%eax, %edx
 1908              		.loc 1 754 58
 1909 0eeb 8B4508   		movl	8(%ebp), %eax
 1910 0eee 8B00     		movl	(%eax), %eax
 1911              		.loc 1 754 5
 1912 0ef0 39C2     		cmpl	%eax, %edx
 1913 0ef2 7E0A     		jle	L127
 755:src/pdf417/PDFDecodedBitStreamParser.c **** 	{
 756:src/pdf417/PDFDecodedBitStreamParser.c **** 		// we must have at least two bytes left for the segment index
 757:src/pdf417/PDFDecodedBitStreamParser.c **** 		return FormatError;
 1914              		.loc 1 757 10
 1915 0ef4 B8020000 		movl	$2, %eax
 1915      00
 1916 0ef9 E9180400 		jmp	L128
 1916      00
 1917              	L127:
 758:src/pdf417/PDFDecodedBitStreamParser.c **** 	}
 759:src/pdf417/PDFDecodedBitStreamParser.c **** 
 760:src/pdf417/PDFDecodedBitStreamParser.c **** 	int segmentIndexArray[NUMBER_OF_SEQUENCE_CODEWORDS];
 1918              		.loc 1 760 6
GAS LISTING C:\Users\jisu8\AppData\Local\Temp\ccC0pYc9.s 			page 54


 1919 0efe B8020000 		movl	$2, %eax
 1919      00
 1920 0f03 83E801   		subl	$1, %eax
 1921 0f06 8945E8   		movl	%eax, -24(%ebp)
 1922 0f09 B8020000 		movl	$2, %eax
 1922      00
 1923 0f0e 8D148500 		leal	0(,%eax,4), %edx
 1923      000000
 1924 0f15 B8100000 		movl	$16, %eax
 1924      00
 1925 0f1a 83E801   		subl	$1, %eax
 1926 0f1d 01D0     		addl	%edx, %eax
 1927 0f1f BF100000 		movl	$16, %edi
 1927      00
 1928 0f24 BA000000 		movl	$0, %edx
 1928      00
 1929 0f29 F7F7     		divl	%edi
 1930 0f2b 6BC010   		imull	$16, %eax, %eax
 1931 0f2e E8000000 		call	___chkstk_ms
 1931      00
 1932 0f33 29C4     		subl	%eax, %esp
 1933 0f35 8D442414 		leal	20(%esp), %eax
 1934 0f39 83C003   		addl	$3, %eax
 1935 0f3c C1E802   		shrl	$2, %eax
 1936 0f3f C1E002   		sall	$2, %eax
 1937 0f42 8945E4   		movl	%eax, -28(%ebp)
 1938              	LBB15:
 761:src/pdf417/PDFDecodedBitStreamParser.c **** 	for (int i = 0; i < NUMBER_OF_SEQUENCE_CODEWORDS; i++, codeIndex++) 
 1939              		.loc 1 761 11
 1940 0f45 C745F400 		movl	$0, -12(%ebp)
 1940      000000
 1941              		.loc 1 761 2
 1942 0f4c EB22     		jmp	L129
 1943              	L130:
 762:src/pdf417/PDFDecodedBitStreamParser.c **** 	{
 763:src/pdf417/PDFDecodedBitStreamParser.c **** 		segmentIndexArray[i] = codewords[codeIndex];
 1944              		.loc 1 763 35 discriminator 3
 1945 0f4e 8B450C   		movl	12(%ebp), %eax
 1946 0f51 8D148500 		leal	0(,%eax,4), %edx
 1946      000000
 1947 0f58 8B4508   		movl	8(%ebp), %eax
 1948 0f5b 01D0     		addl	%edx, %eax
 1949 0f5d 8B08     		movl	(%eax), %ecx
 1950              		.loc 1 763 24 discriminator 3
 1951 0f5f 8B45E4   		movl	-28(%ebp), %eax
 1952 0f62 8B55F4   		movl	-12(%ebp), %edx
 1953 0f65 890C90   		movl	%ecx, (%eax,%edx,4)
 761:src/pdf417/PDFDecodedBitStreamParser.c **** 	for (int i = 0; i < NUMBER_OF_SEQUENCE_CODEWORDS; i++, codeIndex++) 
 1954              		.loc 1 761 53 discriminator 3
 1955 0f68 8345F401 		addl	$1, -12(%ebp)
 761:src/pdf417/PDFDecodedBitStreamParser.c **** 	for (int i = 0; i < NUMBER_OF_SEQUENCE_CODEWORDS; i++, codeIndex++) 
 1956              		.loc 1 761 66 discriminator 3
 1957 0f6c 83450C01 		addl	$1, 12(%ebp)
 1958              	L129:
 761:src/pdf417/PDFDecodedBitStreamParser.c **** 	for (int i = 0; i < NUMBER_OF_SEQUENCE_CODEWORDS; i++, codeIndex++) 
 1959              		.loc 1 761 20 discriminator 1
 1960 0f70 B8020000 		movl	$2, %eax
GAS LISTING C:\Users\jisu8\AppData\Local\Temp\ccC0pYc9.s 			page 55


 1960      00
 761:src/pdf417/PDFDecodedBitStreamParser.c **** 	for (int i = 0; i < NUMBER_OF_SEQUENCE_CODEWORDS; i++, codeIndex++) 
 1961              		.loc 1 761 2 discriminator 1
 1962 0f75 3945F4   		cmpl	%eax, -12(%ebp)
 1963 0f78 7CD4     		jl	L130
 1964              	LBE15:
 764:src/pdf417/PDFDecodedBitStreamParser.c **** 	}
 765:src/pdf417/PDFDecodedBitStreamParser.c **** 
 766:src/pdf417/PDFDecodedBitStreamParser.c **** 	char strBuf[100] = {0,};
 1965              		.loc 1 766 7
 1966 0f7a 8D9558FF 		leal	-168(%ebp), %edx
 1966      FFFF
 1967 0f80 B8000000 		movl	$0, %eax
 1967      00
 1968 0f85 B9190000 		movl	$25, %ecx
 1968      00
 1969 0f8a 89D7     		movl	%edx, %edi
 1970 0f8c F3AB     		rep stosl
 767:src/pdf417/PDFDecodedBitStreamParser.c **** 	DecodeStatus_t status = DecodeBase900toBase10(segmentIndexArray, NUMBER_OF_SEQUENCE_CODEWORDS, str
 1971              		.loc 1 767 26
 1972 0f8e B9020000 		movl	$2, %ecx
 1972      00
 1973 0f93 8B45E4   		movl	-28(%ebp), %eax
 1974 0f96 8D9558FF 		leal	-168(%ebp), %edx
 1974      FFFF
 1975 0f9c 89542408 		movl	%edx, 8(%esp)
 1976 0fa0 894C2404 		movl	%ecx, 4(%esp)
 1977 0fa4 890424   		movl	%eax, (%esp)
 1978 0fa7 E890FBFF 		call	_DecodeBase900toBase10
 1978      FF
 1979 0fac 8945F0   		movl	%eax, -16(%ebp)
 768:src/pdf417/PDFDecodedBitStreamParser.c **** 	if (StatusIsError(status)) 
 1980              		.loc 1 768 5
 1981 0faf 837DF000 		cmpl	$0, -16(%ebp)
 1982 0fb3 7408     		je	L131
 769:src/pdf417/PDFDecodedBitStreamParser.c **** 	{
 770:src/pdf417/PDFDecodedBitStreamParser.c **** 		return status;
 1983              		.loc 1 770 10
 1984 0fb5 8B45F0   		movl	-16(%ebp), %eax
 1985 0fb8 E9590300 		jmp	L128
 1985      00
 1986              	L131:
 771:src/pdf417/PDFDecodedBitStreamParser.c **** 	}
 772:src/pdf417/PDFDecodedBitStreamParser.c **** 
 773:src/pdf417/PDFDecodedBitStreamParser.c **** 	resultMetadata->_segmentIndex = strtol(strBuf,strlen(strBuf),10);
 1987              		.loc 1 773 48
 1988 0fbd 8D8558FF 		leal	-168(%ebp), %eax
 1988      FFFF
 1989 0fc3 890424   		movl	%eax, (%esp)
 1990 0fc6 E8000000 		call	_strlen
 1990      00
 1991              		.loc 1 773 34
 1992 0fcb C7442408 		movl	$10, 8(%esp)
 1992      0A000000 
 1993 0fd3 89442404 		movl	%eax, 4(%esp)
 1994 0fd7 8D8558FF 		leal	-168(%ebp), %eax
 1994      FFFF
GAS LISTING C:\Users\jisu8\AppData\Local\Temp\ccC0pYc9.s 			page 56


 1995 0fdd 890424   		movl	%eax, (%esp)
 1996 0fe0 E8000000 		call	_strtol
 1996      00
 1997 0fe5 89C2     		movl	%eax, %edx
 1998              		.loc 1 773 32
 1999 0fe7 8B4510   		movl	16(%ebp), %eax
 2000 0fea 8910     		movl	%edx, (%eax)
 774:src/pdf417/PDFDecodedBitStreamParser.c **** 
 775:src/pdf417/PDFDecodedBitStreamParser.c **** 	// Decoding the fileId codewords as 0-899 numbers, each 0-filled to width 3. This follows the spec
 776:src/pdf417/PDFDecodedBitStreamParser.c **** 	// (See ISO/IEC 15438:2015 Annex H.6) and preserves all info, but some generators (e.g. TEC-IT) wr
 777:src/pdf417/PDFDecodedBitStreamParser.c **** 	// the fileId using text compaction, so in those cases the fileId will appear mangled.
 778:src/pdf417/PDFDecodedBitStreamParser.c **** 	#if 0
 779:src/pdf417/PDFDecodedBitStreamParser.c **** 	std::ostringstream fileId;
 780:src/pdf417/PDFDecodedBitStreamParser.c **** 	fileId.fill('0');
 781:src/pdf417/PDFDecodedBitStreamParser.c **** 	for (int i = 0; codeIndex < codewords[0] && codewords[codeIndex] != MACRO_PDF417_TERMINATOR
 782:src/pdf417/PDFDecodedBitStreamParser.c **** 			&& codewords[codeIndex] != BEGIN_MACRO_PDF417_OPTIONAL_FIELD; i++, codeIndex++) 
 783:src/pdf417/PDFDecodedBitStreamParser.c **** 	{
 784:src/pdf417/PDFDecodedBitStreamParser.c **** 		fileId << std::setw(3) << codewords[codeIndex];
 785:src/pdf417/PDFDecodedBitStreamParser.c **** 	}
 786:src/pdf417/PDFDecodedBitStreamParser.c **** 
 787:src/pdf417/PDFDecodedBitStreamParser.c **** 	resultMetadata.setFileId(fileId.str());
 788:src/pdf417/PDFDecodedBitStreamParser.c **** 	#endif //os stream  
 789:src/pdf417/PDFDecodedBitStreamParser.c **** 	int optionalFieldsStart = -1;
 2001              		.loc 1 789 6
 2002 0fec C745ECFF 		movl	$-1, -20(%ebp)
 2002      FFFFFF
 790:src/pdf417/PDFDecodedBitStreamParser.c **** 	if (codeIndex < codewords[0] && codewords[codeIndex] == BEGIN_MACRO_PDF417_OPTIONAL_FIELD) 
 2003              		.loc 1 790 27
 2004 0ff3 8B4508   		movl	8(%ebp), %eax
 2005 0ff6 8B00     		movl	(%eax), %eax
 2006              		.loc 1 790 5
 2007 0ff8 39450C   		cmpl	%eax, 12(%ebp)
 2008 0ffb 0F8DC902 		jge	L133
 2008      0000
 2009              		.loc 1 790 43 discriminator 1
 2010 1001 8B450C   		movl	12(%ebp), %eax
 2011 1004 8D148500 		leal	0(,%eax,4), %edx
 2011      000000
 2012 100b 8B4508   		movl	8(%ebp), %eax
 2013 100e 01D0     		addl	%edx, %eax
 2014 1010 8B00     		movl	(%eax), %eax
 2015              		.loc 1 790 31 discriminator 1
 2016 1012 3D9B0300 		cmpl	$923, %eax
 2016      00
 2017 1017 0F85AD02 		jne	L133
 2017      0000
 791:src/pdf417/PDFDecodedBitStreamParser.c **** 	{
 792:src/pdf417/PDFDecodedBitStreamParser.c **** 		optionalFieldsStart = codeIndex + 1;
 2018              		.loc 1 792 23
 2019 101d 8B450C   		movl	12(%ebp), %eax
 2020 1020 83C001   		addl	$1, %eax
 2021 1023 8945EC   		movl	%eax, -20(%ebp)
 793:src/pdf417/PDFDecodedBitStreamParser.c **** 	}
 794:src/pdf417/PDFDecodedBitStreamParser.c **** 
 795:src/pdf417/PDFDecodedBitStreamParser.c **** 	while (codeIndex < codewords[0]) 
 2022              		.loc 1 795 8
 2023 1026 E99F0200 		jmp	L133
GAS LISTING C:\Users\jisu8\AppData\Local\Temp\ccC0pYc9.s 			page 57


 2023      00
 2024              	L148:
 796:src/pdf417/PDFDecodedBitStreamParser.c **** 	{
 797:src/pdf417/PDFDecodedBitStreamParser.c **** 		switch (codewords[codeIndex]) 
 2025              		.loc 1 797 20
 2026 102b 8B450C   		movl	12(%ebp), %eax
 2027 102e 8D148500 		leal	0(,%eax,4), %edx
 2027      000000
 2028 1035 8B4508   		movl	8(%ebp), %eax
 2029 1038 01D0     		addl	%edx, %eax
 2030 103a 8B00     		movl	(%eax), %eax
 2031 103c 3D9A0300 		cmpl	$922, %eax
 2031      00
 2032 1041 0F846102 		je	L134
 2032      0000
 2033 1047 3D9B0300 		cmpl	$923, %eax
 2033      00
 2034 104c 0F856302 		jne	L135
 2034      0000
 798:src/pdf417/PDFDecodedBitStreamParser.c **** 		{
 799:src/pdf417/PDFDecodedBitStreamParser.c **** 			case BEGIN_MACRO_PDF417_OPTIONAL_FIELD: 
 800:src/pdf417/PDFDecodedBitStreamParser.c **** 			{
 801:src/pdf417/PDFDecodedBitStreamParser.c **** 				codeIndex++;
 2035              		.loc 1 801 14
 2036 1052 83450C01 		addl	$1, 12(%ebp)
 802:src/pdf417/PDFDecodedBitStreamParser.c **** 				if (codeIndex >= codewords[0]) 
 2037              		.loc 1 802 31
 2038 1056 8B4508   		movl	8(%ebp), %eax
 2039 1059 8B00     		movl	(%eax), %eax
 2040              		.loc 1 802 8
 2041 105b 39450C   		cmpl	%eax, 12(%ebp)
 2042 105e 0F8D5A02 		jge	L152
 2042      0000
 803:src/pdf417/PDFDecodedBitStreamParser.c **** 				{
 804:src/pdf417/PDFDecodedBitStreamParser.c **** 					break;
 805:src/pdf417/PDFDecodedBitStreamParser.c **** 				}
 806:src/pdf417/PDFDecodedBitStreamParser.c **** 
 807:src/pdf417/PDFDecodedBitStreamParser.c **** 				switch (codewords[codeIndex]) 
 2043              		.loc 1 807 22
 2044 1064 8B450C   		movl	12(%ebp), %eax
 2045 1067 8D148500 		leal	0(,%eax,4), %edx
 2045      000000
 2046 106e 8B4508   		movl	8(%ebp), %eax
 2047 1071 01D0     		addl	%edx, %eax
 2048 1073 8B00     		movl	(%eax), %eax
 2049 1075 83F806   		cmpl	$6, %eax
 2050 1078 0F872002 		ja	L138
 2050      0000
 2051 107e 8B048540 		movl	L140(,%eax,4), %eax
 2051      010000
 2052 1085 FFE0     		jmp	*%eax
 2053              		.section .rdata,"dr"
 2054 013f 00       		.align 4
 2055              	L140:
 2056 0140 87100000 		.long	L146
 2057 0144 74110000 		.long	L145
 2058 0148 BD110000 		.long	L144
GAS LISTING C:\Users\jisu8\AppData\Local\Temp\ccC0pYc9.s 			page 58


 2059 014c D6100000 		.long	L143
 2060 0150 25110000 		.long	L142
 2061 0154 52120000 		.long	L141
 2062 0158 0C120000 		.long	L139
 2063              		.text
 2064              	L146:
 2065              	LBB16:
 808:src/pdf417/PDFDecodedBitStreamParser.c **** 				{
 809:src/pdf417/PDFDecodedBitStreamParser.c **** 					case MACRO_PDF417_OPTIONAL_FIELD_FILE_NAME: 
 810:src/pdf417/PDFDecodedBitStreamParser.c **** 					{
 811:src/pdf417/PDFDecodedBitStreamParser.c **** 						char fileName[100] = {0,};
 2066              		.loc 1 811 12
 2067 1087 8D95F4FE 		leal	-268(%ebp), %edx
 2067      FFFF
 2068 108d B8000000 		movl	$0, %eax
 2068      00
 2069 1092 B9190000 		movl	$25, %ecx
 2069      00
 2070 1097 89D7     		movl	%edx, %edi
 2071 1099 F3AB     		rep stosl
 812:src/pdf417/PDFDecodedBitStreamParser.c **** 						codeIndex = DecodeMacroOptionalTextField(status, codewords, codeIndex + 1, fileName);
 2072              		.loc 1 812 19
 2073 109b 8B450C   		movl	12(%ebp), %eax
 2074 109e 8D5001   		leal	1(%eax), %edx
 2075 10a1 8D85F4FE 		leal	-268(%ebp), %eax
 2075      FFFF
 2076 10a7 8944240C 		movl	%eax, 12(%esp)
 2077 10ab 89542408 		movl	%edx, 8(%esp)
 2078 10af 8B4508   		movl	8(%ebp), %eax
 2079 10b2 89442404 		movl	%eax, 4(%esp)
 2080 10b6 8B45F0   		movl	-16(%ebp), %eax
 2081 10b9 890424   		movl	%eax, (%esp)
 2082 10bc E895FCFF 		call	_DecodeMacroOptionalTextField
 2082      FF
 2083 10c1 89450C   		movl	%eax, 12(%ebp)
 813:src/pdf417/PDFDecodedBitStreamParser.c **** 						resultMetadata->_fileName = (fileName);
 2084              		.loc 1 813 33
 2085 10c4 8B4510   		movl	16(%ebp), %eax
 2086 10c7 8D95F4FE 		leal	-268(%ebp), %edx
 2086      FFFF
 2087 10cd 89501C   		movl	%edx, 28(%eax)
 814:src/pdf417/PDFDecodedBitStreamParser.c **** 						break;
 2088              		.loc 1 814 7
 2089 10d0 90       		nop
 2090 10d1 E9D00100 		jmp	L147
 2090      00
 2091              	L143:
 2092              	LBE16:
 2093              	LBB17:
 815:src/pdf417/PDFDecodedBitStreamParser.c **** 					}
 816:src/pdf417/PDFDecodedBitStreamParser.c **** 
 817:src/pdf417/PDFDecodedBitStreamParser.c **** 					case MACRO_PDF417_OPTIONAL_FIELD_SENDER: 
 818:src/pdf417/PDFDecodedBitStreamParser.c **** 					{
 819:src/pdf417/PDFDecodedBitStreamParser.c **** 						char sender[100] = {0,};
 2094              		.loc 1 819 12
 2095 10d6 8D95F4FE 		leal	-268(%ebp), %edx
 2095      FFFF
GAS LISTING C:\Users\jisu8\AppData\Local\Temp\ccC0pYc9.s 			page 59


 2096 10dc B8000000 		movl	$0, %eax
 2096      00
 2097 10e1 B9190000 		movl	$25, %ecx
 2097      00
 2098 10e6 89D7     		movl	%edx, %edi
 2099 10e8 F3AB     		rep stosl
 820:src/pdf417/PDFDecodedBitStreamParser.c **** 						codeIndex = DecodeMacroOptionalTextField(status, codewords, codeIndex + 1, sender);
 2100              		.loc 1 820 19
 2101 10ea 8B450C   		movl	12(%ebp), %eax
 2102 10ed 8D5001   		leal	1(%eax), %edx
 2103 10f0 8D85F4FE 		leal	-268(%ebp), %eax
 2103      FFFF
 2104 10f6 8944240C 		movl	%eax, 12(%esp)
 2105 10fa 89542408 		movl	%edx, 8(%esp)
 2106 10fe 8B4508   		movl	8(%ebp), %eax
 2107 1101 89442404 		movl	%eax, 4(%esp)
 2108 1105 8B45F0   		movl	-16(%ebp), %eax
 2109 1108 890424   		movl	%eax, (%esp)
 2110 110b E846FCFF 		call	_DecodeMacroOptionalTextField
 2110      FF
 2111 1110 89450C   		movl	%eax, 12(%ebp)
 821:src/pdf417/PDFDecodedBitStreamParser.c **** 						resultMetadata->_sender = (sender);
 2112              		.loc 1 821 31
 2113 1113 8B4510   		movl	16(%ebp), %eax
 2114 1116 8D95F4FE 		leal	-268(%ebp), %edx
 2114      FFFF
 2115 111c 895014   		movl	%edx, 20(%eax)
 822:src/pdf417/PDFDecodedBitStreamParser.c **** 						break;
 2116              		.loc 1 822 7
 2117 111f 90       		nop
 2118 1120 E9810100 		jmp	L147
 2118      00
 2119              	L142:
 2120              	LBE17:
 2121              	LBB18:
 823:src/pdf417/PDFDecodedBitStreamParser.c **** 					}
 824:src/pdf417/PDFDecodedBitStreamParser.c **** 
 825:src/pdf417/PDFDecodedBitStreamParser.c **** 					case MACRO_PDF417_OPTIONAL_FIELD_ADDRESSEE: 
 826:src/pdf417/PDFDecodedBitStreamParser.c **** 					{
 827:src/pdf417/PDFDecodedBitStreamParser.c **** 						char addressee[100] = {0,};
 2122              		.loc 1 827 12
 2123 1125 8D95F4FE 		leal	-268(%ebp), %edx
 2123      FFFF
 2124 112b B8000000 		movl	$0, %eax
 2124      00
 2125 1130 B9190000 		movl	$25, %ecx
 2125      00
 2126 1135 89D7     		movl	%edx, %edi
 2127 1137 F3AB     		rep stosl
 828:src/pdf417/PDFDecodedBitStreamParser.c **** 						codeIndex = DecodeMacroOptionalTextField(status, codewords, codeIndex + 1, addressee);
 2128              		.loc 1 828 19
 2129 1139 8B450C   		movl	12(%ebp), %eax
 2130 113c 8D5001   		leal	1(%eax), %edx
 2131 113f 8D85F4FE 		leal	-268(%ebp), %eax
 2131      FFFF
 2132 1145 8944240C 		movl	%eax, 12(%esp)
 2133 1149 89542408 		movl	%edx, 8(%esp)
GAS LISTING C:\Users\jisu8\AppData\Local\Temp\ccC0pYc9.s 			page 60


 2134 114d 8B4508   		movl	8(%ebp), %eax
 2135 1150 89442404 		movl	%eax, 4(%esp)
 2136 1154 8B45F0   		movl	-16(%ebp), %eax
 2137 1157 890424   		movl	%eax, (%esp)
 2138 115a E8F7FBFF 		call	_DecodeMacroOptionalTextField
 2138      FF
 2139 115f 89450C   		movl	%eax, 12(%ebp)
 829:src/pdf417/PDFDecodedBitStreamParser.c **** 						resultMetadata->_addressee = (addressee);
 2140              		.loc 1 829 34
 2141 1162 8B4510   		movl	16(%ebp), %eax
 2142 1165 8D95F4FE 		leal	-268(%ebp), %edx
 2142      FFFF
 2143 116b 895018   		movl	%edx, 24(%eax)
 830:src/pdf417/PDFDecodedBitStreamParser.c **** 						break;
 2144              		.loc 1 830 7
 2145 116e 90       		nop
 2146 116f E9320100 		jmp	L147
 2146      00
 2147              	L145:
 2148              	LBE18:
 2149              	LBB19:
 831:src/pdf417/PDFDecodedBitStreamParser.c **** 					}
 832:src/pdf417/PDFDecodedBitStreamParser.c **** 					case MACRO_PDF417_OPTIONAL_FIELD_SEGMENT_COUNT: 
 833:src/pdf417/PDFDecodedBitStreamParser.c **** 					{
 834:src/pdf417/PDFDecodedBitStreamParser.c **** 						uint64_t segmentCount = 0;
 2150              		.loc 1 834 16
 2151 1174 C745D800 		movl	$0, -40(%ebp)
 2151      000000
 2152 117b C745DC00 		movl	$0, -36(%ebp)
 2152      000000
 835:src/pdf417/PDFDecodedBitStreamParser.c **** 						codeIndex = DecodeMacroOptionalNumericField(status, codewords, codeIndex + 1, segmentCount);
 2153              		.loc 1 835 19
 2154 1182 8B450C   		movl	12(%ebp), %eax
 2155 1185 8D4801   		leal	1(%eax), %ecx
 2156 1188 8B45D8   		movl	-40(%ebp), %eax
 2157 118b 8B55DC   		movl	-36(%ebp), %edx
 2158 118e 8944240C 		movl	%eax, 12(%esp)
 2159 1192 89542410 		movl	%edx, 16(%esp)
 2160 1196 894C2408 		movl	%ecx, 8(%esp)
 2161 119a 8B4508   		movl	8(%ebp), %eax
 2162 119d 89442404 		movl	%eax, 4(%esp)
 2163 11a1 8B45F0   		movl	-16(%ebp), %eax
 2164 11a4 890424   		movl	%eax, (%esp)
 2165 11a7 E845FCFF 		call	_DecodeMacroOptionalNumericField
 2165      FF
 2166 11ac 89450C   		movl	%eax, 12(%ebp)
 836:src/pdf417/PDFDecodedBitStreamParser.c **** 						resultMetadata->_segmentCount = (segmentCount);
 2167              		.loc 1 836 37
 2168 11af 8B55D8   		movl	-40(%ebp), %edx
 2169 11b2 8B4510   		movl	16(%ebp), %eax
 2170 11b5 895010   		movl	%edx, 16(%eax)
 837:src/pdf417/PDFDecodedBitStreamParser.c **** 						break;
 2171              		.loc 1 837 7
 2172 11b8 E9E90000 		jmp	L147
 2172      00
 2173              	L144:
 2174              	LBE19:
GAS LISTING C:\Users\jisu8\AppData\Local\Temp\ccC0pYc9.s 			page 61


 2175              	LBB20:
 838:src/pdf417/PDFDecodedBitStreamParser.c **** 					}
 839:src/pdf417/PDFDecodedBitStreamParser.c **** 
 840:src/pdf417/PDFDecodedBitStreamParser.c **** 					case MACRO_PDF417_OPTIONAL_FIELD_TIME_STAMP: 
 841:src/pdf417/PDFDecodedBitStreamParser.c **** 					{
 842:src/pdf417/PDFDecodedBitStreamParser.c **** 						uint64_t timestamp = 0;;
 2176              		.loc 1 842 16
 2177 11bd C745D000 		movl	$0, -48(%ebp)
 2177      000000
 2178 11c4 C745D400 		movl	$0, -44(%ebp)
 2178      000000
 843:src/pdf417/PDFDecodedBitStreamParser.c **** 						codeIndex = DecodeMacroOptionalNumericField(status, codewords, codeIndex + 1, timestamp);
 2179              		.loc 1 843 19
 2180 11cb 8B450C   		movl	12(%ebp), %eax
 2181 11ce 8D4801   		leal	1(%eax), %ecx
 2182 11d1 8B45D0   		movl	-48(%ebp), %eax
 2183 11d4 8B55D4   		movl	-44(%ebp), %edx
 2184 11d7 8944240C 		movl	%eax, 12(%esp)
 2185 11db 89542410 		movl	%edx, 16(%esp)
 2186 11df 894C2408 		movl	%ecx, 8(%esp)
 2187 11e3 8B4508   		movl	8(%ebp), %eax
 2188 11e6 89442404 		movl	%eax, 4(%esp)
 2189 11ea 8B45F0   		movl	-16(%ebp), %eax
 2190 11ed 890424   		movl	%eax, (%esp)
 2191 11f0 E8FCFBFF 		call	_DecodeMacroOptionalNumericField
 2191      FF
 2192 11f5 89450C   		movl	%eax, 12(%ebp)
 844:src/pdf417/PDFDecodedBitStreamParser.c **** 						resultMetadata->_timestamp = (timestamp);
 2193              		.loc 1 844 34
 2194 11f8 8B45D0   		movl	-48(%ebp), %eax
 2195 11fb 8B55D4   		movl	-44(%ebp), %edx
 2196 11fe 8B4D10   		movl	16(%ebp), %ecx
 2197 1201 894128   		movl	%eax, 40(%ecx)
 2198 1204 89512C   		movl	%edx, 44(%ecx)
 845:src/pdf417/PDFDecodedBitStreamParser.c **** 						break;
 2199              		.loc 1 845 7
 2200 1207 E99A0000 		jmp	L147
 2200      00
 2201              	L139:
 2202              	LBE20:
 2203              	LBB21:
 846:src/pdf417/PDFDecodedBitStreamParser.c **** 					}
 847:src/pdf417/PDFDecodedBitStreamParser.c **** 
 848:src/pdf417/PDFDecodedBitStreamParser.c **** 					case MACRO_PDF417_OPTIONAL_FIELD_CHECKSUM: 
 849:src/pdf417/PDFDecodedBitStreamParser.c **** 					{
 850:src/pdf417/PDFDecodedBitStreamParser.c **** 						uint64_t checksum = 0;;
 2204              		.loc 1 850 16
 2205 120c C745C800 		movl	$0, -56(%ebp)
 2205      000000
 2206 1213 C745CC00 		movl	$0, -52(%ebp)
 2206      000000
 851:src/pdf417/PDFDecodedBitStreamParser.c **** 						codeIndex = DecodeMacroOptionalNumericField(status, codewords, codeIndex + 1, checksum);
 2207              		.loc 1 851 19
 2208 121a 8B450C   		movl	12(%ebp), %eax
 2209 121d 8D4801   		leal	1(%eax), %ecx
 2210 1220 8B45C8   		movl	-56(%ebp), %eax
 2211 1223 8B55CC   		movl	-52(%ebp), %edx
GAS LISTING C:\Users\jisu8\AppData\Local\Temp\ccC0pYc9.s 			page 62


 2212 1226 8944240C 		movl	%eax, 12(%esp)
 2213 122a 89542410 		movl	%edx, 16(%esp)
 2214 122e 894C2408 		movl	%ecx, 8(%esp)
 2215 1232 8B4508   		movl	8(%ebp), %eax
 2216 1235 89442404 		movl	%eax, 4(%esp)
 2217 1239 8B45F0   		movl	-16(%ebp), %eax
 2218 123c 890424   		movl	%eax, (%esp)
 2219 123f E8ADFBFF 		call	_DecodeMacroOptionalNumericField
 2219      FF
 2220 1244 89450C   		movl	%eax, 12(%ebp)
 852:src/pdf417/PDFDecodedBitStreamParser.c **** 						resultMetadata->_checksum = (checksum);
 2221              		.loc 1 852 33
 2222 1247 8B55C8   		movl	-56(%ebp), %edx
 2223 124a 8B4510   		movl	16(%ebp), %eax
 2224 124d 895030   		movl	%edx, 48(%eax)
 853:src/pdf417/PDFDecodedBitStreamParser.c **** 						break;
 2225              		.loc 1 853 7
 2226 1250 EB54     		jmp	L147
 2227              	L141:
 2228              	LBE21:
 2229              	LBB22:
 854:src/pdf417/PDFDecodedBitStreamParser.c **** 					}
 855:src/pdf417/PDFDecodedBitStreamParser.c **** 
 856:src/pdf417/PDFDecodedBitStreamParser.c **** 					case MACRO_PDF417_OPTIONAL_FIELD_FILE_SIZE: 
 857:src/pdf417/PDFDecodedBitStreamParser.c **** 					{
 858:src/pdf417/PDFDecodedBitStreamParser.c **** 						uint64_t fileSize = 0;;
 2230              		.loc 1 858 16
 2231 1252 C745C000 		movl	$0, -64(%ebp)
 2231      000000
 2232 1259 C745C400 		movl	$0, -60(%ebp)
 2232      000000
 859:src/pdf417/PDFDecodedBitStreamParser.c **** 						codeIndex = DecodeMacroOptionalNumericField(status, codewords, codeIndex + 1, fileSize);
 2233              		.loc 1 859 19
 2234 1260 8B450C   		movl	12(%ebp), %eax
 2235 1263 8D4801   		leal	1(%eax), %ecx
 2236 1266 8B45C0   		movl	-64(%ebp), %eax
 2237 1269 8B55C4   		movl	-60(%ebp), %edx
 2238 126c 8944240C 		movl	%eax, 12(%esp)
 2239 1270 89542410 		movl	%edx, 16(%esp)
 2240 1274 894C2408 		movl	%ecx, 8(%esp)
 2241 1278 8B4508   		movl	8(%ebp), %eax
 2242 127b 89442404 		movl	%eax, 4(%esp)
 2243 127f 8B45F0   		movl	-16(%ebp), %eax
 2244 1282 890424   		movl	%eax, (%esp)
 2245 1285 E867FBFF 		call	_DecodeMacroOptionalNumericField
 2245      FF
 2246 128a 89450C   		movl	%eax, 12(%ebp)
 860:src/pdf417/PDFDecodedBitStreamParser.c **** 						resultMetadata->_fileSize = (fileSize);
 2247              		.loc 1 860 33
 2248 128d 8B45C0   		movl	-64(%ebp), %eax
 2249 1290 8B55C4   		movl	-60(%ebp), %edx
 2250 1293 8B4D10   		movl	16(%ebp), %ecx
 2251 1296 894120   		movl	%eax, 32(%ecx)
 2252 1299 895124   		movl	%edx, 36(%ecx)
 861:src/pdf417/PDFDecodedBitStreamParser.c **** 						break;
 2253              		.loc 1 861 7
 2254 129c EB08     		jmp	L147
GAS LISTING C:\Users\jisu8\AppData\Local\Temp\ccC0pYc9.s 			page 63


 2255              	L138:
 2256              	LBE22:
 862:src/pdf417/PDFDecodedBitStreamParser.c **** 					}
 863:src/pdf417/PDFDecodedBitStreamParser.c **** 
 864:src/pdf417/PDFDecodedBitStreamParser.c **** 					default: 
 865:src/pdf417/PDFDecodedBitStreamParser.c **** 					{
 866:src/pdf417/PDFDecodedBitStreamParser.c **** 						status = FormatError;
 2257              		.loc 1 866 14
 2258 129e C745F002 		movl	$2, -16(%ebp)
 2258      000000
 867:src/pdf417/PDFDecodedBitStreamParser.c **** 						break;
 2259              		.loc 1 867 7
 2260 12a5 90       		nop
 2261              	L147:
 868:src/pdf417/PDFDecodedBitStreamParser.c **** 					}
 869:src/pdf417/PDFDecodedBitStreamParser.c **** 				}
 870:src/pdf417/PDFDecodedBitStreamParser.c **** 
 871:src/pdf417/PDFDecodedBitStreamParser.c **** 				break;
 2262              		.loc 1 871 5
 2263 12a6 EB17     		jmp	L137
 2264              	L134:
 872:src/pdf417/PDFDecodedBitStreamParser.c **** 			}
 873:src/pdf417/PDFDecodedBitStreamParser.c **** 
 874:src/pdf417/PDFDecodedBitStreamParser.c **** 			case MACRO_PDF417_TERMINATOR: 
 875:src/pdf417/PDFDecodedBitStreamParser.c **** 			{
 876:src/pdf417/PDFDecodedBitStreamParser.c **** 				codeIndex++;
 2265              		.loc 1 876 14
 2266 12a8 83450C01 		addl	$1, 12(%ebp)
 877:src/pdf417/PDFDecodedBitStreamParser.c **** 				resultMetadata->_lastSegment = 1;
 2267              		.loc 1 877 34
 2268 12ac 8B4510   		movl	16(%ebp), %eax
 2269 12af C6400C01 		movb	$1, 12(%eax)
 878:src/pdf417/PDFDecodedBitStreamParser.c **** 				break;
 2270              		.loc 1 878 5
 2271 12b3 EB0A     		jmp	L137
 2272              	L135:
 879:src/pdf417/PDFDecodedBitStreamParser.c **** 			}
 880:src/pdf417/PDFDecodedBitStreamParser.c **** 
 881:src/pdf417/PDFDecodedBitStreamParser.c **** 			default: 
 882:src/pdf417/PDFDecodedBitStreamParser.c **** 			{
 883:src/pdf417/PDFDecodedBitStreamParser.c **** 				status = FormatError;
 2273              		.loc 1 883 12
 2274 12b5 C745F002 		movl	$2, -16(%ebp)
 2274      000000
 884:src/pdf417/PDFDecodedBitStreamParser.c **** 				break;
 2275              		.loc 1 884 5
 2276 12bc EB01     		jmp	L137
 2277              	L152:
 804:src/pdf417/PDFDecodedBitStreamParser.c **** 				}
 2278              		.loc 1 804 6
 2279 12be 90       		nop
 2280              	L137:
 885:src/pdf417/PDFDecodedBitStreamParser.c **** 			}
 886:src/pdf417/PDFDecodedBitStreamParser.c **** 		}
 887:src/pdf417/PDFDecodedBitStreamParser.c **** 
 888:src/pdf417/PDFDecodedBitStreamParser.c **** 		if (StatusIsError(status)) 
 2281              		.loc 1 888 6
GAS LISTING C:\Users\jisu8\AppData\Local\Temp\ccC0pYc9.s 			page 64


 2282 12bf 837DF000 		cmpl	$0, -16(%ebp)
 2283 12c3 7405     		je	L133
 889:src/pdf417/PDFDecodedBitStreamParser.c **** 		{
 890:src/pdf417/PDFDecodedBitStreamParser.c **** 			return status;
 2284              		.loc 1 890 11
 2285 12c5 8B45F0   		movl	-16(%ebp), %eax
 2286 12c8 EB4C     		jmp	L128
 2287              	L133:
 795:src/pdf417/PDFDecodedBitStreamParser.c **** 	{
 2288              		.loc 1 795 30
 2289 12ca 8B4508   		movl	8(%ebp), %eax
 2290 12cd 8B00     		movl	(%eax), %eax
 795:src/pdf417/PDFDecodedBitStreamParser.c **** 	{
 2291              		.loc 1 795 8
 2292 12cf 39450C   		cmpl	%eax, 12(%ebp)
 2293 12d2 0F8C53FD 		jl	L148
 2293      FFFF
 891:src/pdf417/PDFDecodedBitStreamParser.c **** 		}
 892:src/pdf417/PDFDecodedBitStreamParser.c **** 	}
 893:src/pdf417/PDFDecodedBitStreamParser.c **** 
 894:src/pdf417/PDFDecodedBitStreamParser.c **** 	// copy optional fields to additional options
 895:src/pdf417/PDFDecodedBitStreamParser.c **** 	if (optionalFieldsStart != -1) {
 2294              		.loc 1 895 5
 2295 12d8 837DECFF 		cmpl	$-1, -20(%ebp)
 2296 12dc 742D     		je	L149
 2297              	LBB23:
 896:src/pdf417/PDFDecodedBitStreamParser.c **** 		int optionalFieldsLength = codeIndex - optionalFieldsStart;
 2298              		.loc 1 896 7
 2299 12de 8B450C   		movl	12(%ebp), %eax
 2300 12e1 2B45EC   		subl	-20(%ebp), %eax
 2301 12e4 8945BC   		movl	%eax, -68(%ebp)
 897:src/pdf417/PDFDecodedBitStreamParser.c **** 		if (resultMetadata->_lastSegment) 
 2302              		.loc 1 897 21
 2303 12e7 8B4510   		movl	16(%ebp), %eax
 2304 12ea 0FB6400C 		movzbl	12(%eax), %eax
 2305              		.loc 1 897 6
 2306 12ee 84C0     		testb	%al, %al
 2307 12f0 7404     		je	L150
 898:src/pdf417/PDFDecodedBitStreamParser.c **** 		{
 899:src/pdf417/PDFDecodedBitStreamParser.c **** 			// do not include terminator
 900:src/pdf417/PDFDecodedBitStreamParser.c **** 			optionalFieldsLength--;
 2308              		.loc 1 900 24
 2309 12f2 836DBC01 		subl	$1, -68(%ebp)
 2310              	L150:
 901:src/pdf417/PDFDecodedBitStreamParser.c **** 		}
 902:src/pdf417/PDFDecodedBitStreamParser.c **** 		resultMetadata->_optionalData = codewords + optionalFieldsStart;
 2311              		.loc 1 902 45
 2312 12f6 8B45EC   		movl	-20(%ebp), %eax
 2313 12f9 8D148500 		leal	0(,%eax,4), %edx
 2313      000000
 2314 1300 8B4508   		movl	8(%ebp), %eax
 2315 1303 01C2     		addl	%eax, %edx
 2316              		.loc 1 902 33
 2317 1305 8B4510   		movl	16(%ebp), %eax
 2318 1308 895008   		movl	%edx, 8(%eax)
 2319              	L149:
 2320              	LBE23:
GAS LISTING C:\Users\jisu8\AppData\Local\Temp\ccC0pYc9.s 			page 65


 903:src/pdf417/PDFDecodedBitStreamParser.c **** 	}
 904:src/pdf417/PDFDecodedBitStreamParser.c **** 
 905:src/pdf417/PDFDecodedBitStreamParser.c **** 	next = codeIndex;
 2321              		.loc 1 905 7
 2322 130b 8B450C   		movl	12(%ebp), %eax
 2323 130e 894514   		movl	%eax, 20(%ebp)
 906:src/pdf417/PDFDecodedBitStreamParser.c **** 	return NoError;
 2324              		.loc 1 906 9
 2325 1311 B8000000 		movl	$0, %eax
 2325      00
 2326              	L128:
 2327 1316 89DC     		movl	%ebx, %esp
 907:src/pdf417/PDFDecodedBitStreamParser.c **** }
 2328              		.loc 1 907 1
 2329 1318 8D65F8   		leal	-8(%ebp), %esp
 2330 131b 5B       		popl	%ebx
 2331              		.cfi_restore 3
 2332 131c 5F       		popl	%edi
 2333              		.cfi_restore 7
 2334 131d 5D       		popl	%ebp
 2335              	LCFI35:
 2336              		.cfi_restore 5
 2337              		.cfi_def_cfa 4, 4
 2338 131e C3       		ret
 2339              		.cfi_endproc
 2340              	LFE29:
 2342              	_DecoderResultExtra_init:
 2343              	LFB30:
 908:src/pdf417/PDFDecodedBitStreamParser.c **** 
 909:src/pdf417/PDFDecodedBitStreamParser.c **** static void DecoderResultExtra_init(DecoderResultExtra_t * result)
 910:src/pdf417/PDFDecodedBitStreamParser.c **** {
 2344              		.loc 1 910 1
 2345              		.cfi_startproc
 2346 131f 55       		pushl	%ebp
 2347              	LCFI36:
 2348              		.cfi_def_cfa_offset 8
 2349              		.cfi_offset 5, -8
 2350 1320 89E5     		movl	%esp, %ebp
 2351              	LCFI37:
 2352              		.cfi_def_cfa_register 5
 911:src/pdf417/PDFDecodedBitStreamParser.c **** 	result->_segmentIndex = -1;
 2353              		.loc 1 911 24
 2354 1322 8B4508   		movl	8(%ebp), %eax
 2355 1325 C700FFFF 		movl	$-1, (%eax)
 2355      FFFF
 912:src/pdf417/PDFDecodedBitStreamParser.c **** 	result->_fileId = NULL;
 2356              		.loc 1 912 18
 2357 132b 8B4508   		movl	8(%ebp), %eax
 2358 132e C7400400 		movl	$0, 4(%eax)
 2358      000000
 913:src/pdf417/PDFDecodedBitStreamParser.c **** 	result->_optionalData = NULL;
 2359              		.loc 1 913 24
 2360 1335 8B4508   		movl	8(%ebp), %eax
 2361 1338 C7400800 		movl	$0, 8(%eax)
 2361      000000
 914:src/pdf417/PDFDecodedBitStreamParser.c **** 	result->_lastSegment = 0;
 2362              		.loc 1 914 23
GAS LISTING C:\Users\jisu8\AppData\Local\Temp\ccC0pYc9.s 			page 66


 2363 133f 8B4508   		movl	8(%ebp), %eax
 2364 1342 C6400C00 		movb	$0, 12(%eax)
 915:src/pdf417/PDFDecodedBitStreamParser.c **** 	result->_segmentCount = -1;
 2365              		.loc 1 915 24
 2366 1346 8B4508   		movl	8(%ebp), %eax
 2367 1349 C74010FF 		movl	$-1, 16(%eax)
 2367      FFFFFF
 916:src/pdf417/PDFDecodedBitStreamParser.c **** 	result->_sender = NULL;
 2368              		.loc 1 916 18
 2369 1350 8B4508   		movl	8(%ebp), %eax
 2370 1353 C7401400 		movl	$0, 20(%eax)
 2370      000000
 917:src/pdf417/PDFDecodedBitStreamParser.c **** 	result->_addressee = NULL;
 2371              		.loc 1 917 21
 2372 135a 8B4508   		movl	8(%ebp), %eax
 2373 135d C7401800 		movl	$0, 24(%eax)
 2373      000000
 918:src/pdf417/PDFDecodedBitStreamParser.c **** 	result->_fileName = NULL;
 2374              		.loc 1 918 20
 2375 1364 8B4508   		movl	8(%ebp), %eax
 2376 1367 C7401C00 		movl	$0, 28(%eax)
 2376      000000
 919:src/pdf417/PDFDecodedBitStreamParser.c **** 	result->_fileSize = -1;
 2377              		.loc 1 919 20
 2378 136e 8B4508   		movl	8(%ebp), %eax
 2379 1371 C74020FF 		movl	$-1, 32(%eax)
 2379      FFFFFF
 2380 1378 C74024FF 		movl	$-1, 36(%eax)
 2380      FFFFFF
 920:src/pdf417/PDFDecodedBitStreamParser.c **** 	result->_timestamp = -1;
 2381              		.loc 1 920 21
 2382 137f 8B4508   		movl	8(%ebp), %eax
 2383 1382 C74028FF 		movl	$-1, 40(%eax)
 2383      FFFFFF
 2384 1389 C7402CFF 		movl	$-1, 44(%eax)
 2384      FFFFFF
 921:src/pdf417/PDFDecodedBitStreamParser.c **** 	result->_checksum = -1;
 2385              		.loc 1 921 20
 2386 1390 8B4508   		movl	8(%ebp), %eax
 2387 1393 C74030FF 		movl	$-1, 48(%eax)
 2387      FFFFFF
 922:src/pdf417/PDFDecodedBitStreamParser.c **** }
 2388              		.loc 1 922 1
 2389 139a 90       		nop
 2390 139b 5D       		popl	%ebp
 2391              	LCFI38:
 2392              		.cfi_restore 5
 2393              		.cfi_def_cfa 4, 4
 2394 139c C3       		ret
 2395              		.cfi_endproc
 2396              	LFE30:
 2398              	_StructuredAppendInfo_Init:
 2399              	LFB31:
 923:src/pdf417/PDFDecodedBitStreamParser.c **** static void StructuredAppendInfo_Init(StructuredAppendInfo_t * sai)
 924:src/pdf417/PDFDecodedBitStreamParser.c **** {
 2400              		.loc 1 924 1
 2401              		.cfi_startproc
GAS LISTING C:\Users\jisu8\AppData\Local\Temp\ccC0pYc9.s 			page 67


 2402 139d 55       		pushl	%ebp
 2403              	LCFI39:
 2404              		.cfi_def_cfa_offset 8
 2405              		.cfi_offset 5, -8
 2406 139e 89E5     		movl	%esp, %ebp
 2407              	LCFI40:
 2408              		.cfi_def_cfa_register 5
 925:src/pdf417/PDFDecodedBitStreamParser.c **** 	sai->index = -1;
 2409              		.loc 1 925 13
 2410 13a0 8B4508   		movl	8(%ebp), %eax
 2411 13a3 C700FFFF 		movl	$-1, (%eax)
 2411      FFFF
 926:src/pdf417/PDFDecodedBitStreamParser.c **** 	sai->count = -1;
 2412              		.loc 1 926 13
 2413 13a9 8B4508   		movl	8(%ebp), %eax
 2414 13ac C74004FF 		movl	$-1, 4(%eax)
 2414      FFFFFF
 927:src/pdf417/PDFDecodedBitStreamParser.c **** 	sai->id = NULL;
 2415              		.loc 1 927 10
 2416 13b3 8B4508   		movl	8(%ebp), %eax
 2417 13b6 C7400800 		movl	$0, 8(%eax)
 2417      000000
 928:src/pdf417/PDFDecodedBitStreamParser.c **** }
 2418              		.loc 1 928 1
 2419 13bd 90       		nop
 2420 13be 5D       		popl	%ebp
 2421              	LCFI41:
 2422              		.cfi_restore 5
 2423              		.cfi_def_cfa 4, 4
 2424 13bf C3       		ret
 2425              		.cfi_endproc
 2426              	LFE31:
 2427              		.globl	_BitStreamDecode
 2429              	_BitStreamDecode:
 2430              	LFB32:
 929:src/pdf417/PDFDecodedBitStreamParser.c **** 
 930:src/pdf417/PDFDecodedBitStreamParser.c **** void BitStreamDecode(DecoderResult_t * DecoderResult, const int * codewords, int ecLevel, const uns
 931:src/pdf417/PDFDecodedBitStreamParser.c **** {
 2431              		.loc 1 931 1
 2432              		.cfi_startproc
 2433 13c0 55       		pushl	%ebp
 2434              	LCFI42:
 2435              		.cfi_def_cfa_offset 8
 2436              		.cfi_offset 5, -8
 2437 13c1 89E5     		movl	%esp, %ebp
 2438              	LCFI43:
 2439              		.cfi_def_cfa_register 5
 2440 13c3 57       		pushl	%edi
 2441 13c4 53       		pushl	%ebx
 2442 13c5 81EC5001 		subl	$336, %esp
 2442      0000
 2443              		.cfi_offset 7, -12
 2444              		.cfi_offset 3, -16
 932:src/pdf417/PDFDecodedBitStreamParser.c **** 	unsigned char resultEncoded[100] = {0,};
 2445              		.loc 1 932 16
 2446 13cb 8D5584   		leal	-124(%ebp), %edx
 2447 13ce B8000000 		movl	$0, %eax
GAS LISTING C:\Users\jisu8\AppData\Local\Temp\ccC0pYc9.s 			page 68


 2447      00
 2448 13d3 B9190000 		movl	$25, %ecx
 2448      00
 2449 13d8 89D7     		movl	%edx, %edi
 2450 13da F3AB     		rep stosl
 933:src/pdf417/PDFDecodedBitStreamParser.c **** 	unsigned char result[100] = {0,};
 2451              		.loc 1 933 16
 2452 13dc 8D9520FF 		leal	-224(%ebp), %edx
 2452      FFFF
 2453 13e2 B8000000 		movl	$0, %eax
 2453      00
 2454 13e7 B9190000 		movl	$25, %ecx
 2454      00
 2455 13ec 89D7     		movl	%edx, %edi
 2456 13ee F3AB     		rep stosl
 934:src/pdf417/PDFDecodedBitStreamParser.c **** 	CharacterSet_t encoding = ISO8859_1; //= CharacterSetECI::InitEncoding(characterSet);
 2457              		.loc 1 934 17
 2458 13f0 C7851CFF 		movl	$2, -228(%ebp)
 2458      FFFF0200 
 2458      0000
 935:src/pdf417/PDFDecodedBitStreamParser.c **** 	uint8_t readerInit = 0;
 2459              		.loc 1 935 10
 2460 13fa C645F700 		movb	$0, -9(%ebp)
 936:src/pdf417/PDFDecodedBitStreamParser.c **** 	DecoderResultExtra_t resultMetadata;
 937:src/pdf417/PDFDecodedBitStreamParser.c **** 	DecoderResultExtra_init(&resultMetadata);
 2461              		.loc 1 937 2
 2462 13fe 8D85E0FE 		leal	-288(%ebp), %eax
 2462      FFFF
 2463 1404 890424   		movl	%eax, (%esp)
 2464 1407 E813FFFF 		call	_DecoderResultExtra_init
 2464      FF
 938:src/pdf417/PDFDecodedBitStreamParser.c **** 	int codeIndex = 1;
 2465              		.loc 1 938 6
 2466 140c C745F001 		movl	$1, -16(%ebp)
 2466      000000
 939:src/pdf417/PDFDecodedBitStreamParser.c **** 	DecodeStatus_t status = NoError;
 2467              		.loc 1 939 17
 2468 1413 C745EC00 		movl	$0, -20(%ebp)
 2468      000000
 940:src/pdf417/PDFDecodedBitStreamParser.c **** 
 941:src/pdf417/PDFDecodedBitStreamParser.c **** 	while (codeIndex < codewords[0] && status == NoError) 
 2469              		.loc 1 941 8
 2470 141a E9210200 		jmp	L156
 2470      00
 2471              	L175:
 2472              	LBB24:
 942:src/pdf417/PDFDecodedBitStreamParser.c **** 	{
 943:src/pdf417/PDFDecodedBitStreamParser.c **** 		int code = codewords[codeIndex++];
 2473              		.loc 1 943 33
 2474 141f 8B45F0   		movl	-16(%ebp), %eax
 2475 1422 8D5001   		leal	1(%eax), %edx
 2476 1425 8955F0   		movl	%edx, -16(%ebp)
 2477              		.loc 1 943 23
 2478 1428 8D148500 		leal	0(,%eax,4), %edx
 2478      000000
 2479 142f 8B450C   		movl	12(%ebp), %eax
 2480 1432 01D0     		addl	%edx, %eax
GAS LISTING C:\Users\jisu8\AppData\Local\Temp\ccC0pYc9.s 			page 69


 2481              		.loc 1 943 7
 2482 1434 8B00     		movl	(%eax), %eax
 2483 1436 8945E8   		movl	%eax, -24(%ebp)
 944:src/pdf417/PDFDecodedBitStreamParser.c **** 		switch (code) 
 2484              		.loc 1 944 3
 2485 1439 8B45E8   		movl	-24(%ebp), %eax
 2486 143c 2D840300 		subl	$900, %eax
 2486      00
 2487 1441 83F81C   		cmpl	$28, %eax
 2488 1444 0F87A901 		ja	L157
 2488      0000
 2489 144a 8B04855C 		movl	L159(,%eax,4), %eax
 2489      010000
 2490 1451 FFE0     		jmp	*%eax
 2491              		.section .rdata,"dr"
 2492              		.align 4
 2493              	L159:
 2494 015c 53140000 		.long	L168
 2495 0160 CE140000 		.long	L161
 2496 0164 11150000 		.long	L167
 2497 0168 F3150000 		.long	L157
 2498 016c F3150000 		.long	L157
 2499 0170 F3150000 		.long	L157
 2500 0174 F3150000 		.long	L157
 2501 0178 F3150000 		.long	L157
 2502 017c F3150000 		.long	L157
 2503 0180 F3150000 		.long	L157
 2504 0184 F3150000 		.long	L157
 2505 0188 F3150000 		.long	L157
 2506 018c F3150000 		.long	L157
 2507 0190 8F140000 		.long	L166
 2508 0194 F3150000 		.long	L157
 2509 0198 F3150000 		.long	L157
 2510 019c F3150000 		.long	L157
 2511 01a0 F3150000 		.long	L157
 2512 01a4 EA150000 		.long	L165
 2513 01a8 F3150000 		.long	L157
 2514 01ac DB150000 		.long	L164
 2515 01b0 C6150000 		.long	L163
 2516 01b4 BD150000 		.long	L162
 2517 01b8 BD150000 		.long	L162
 2518 01bc CE140000 		.long	L161
 2519 01c0 4D150000 		.long	L160
 2520 01c4 4D150000 		.long	L160
 2521 01c8 4D150000 		.long	L160
 2522 01cc 92150000 		.long	L158
 2523              		.text
 2524              	L168:
 945:src/pdf417/PDFDecodedBitStreamParser.c **** 		{
 946:src/pdf417/PDFDecodedBitStreamParser.c **** 			case TEXT_COMPACTION_MODE_LATCH:
 947:src/pdf417/PDFDecodedBitStreamParser.c **** 				codeIndex = TextCompaction(status, codewords, codeIndex, resultEncoded, result, &encoding);
 2525              		.loc 1 947 17
 2526 1453 8D851CFF 		leal	-228(%ebp), %eax
 2526      FFFF
 2527 1459 89442414 		movl	%eax, 20(%esp)
 2528 145d 8D8520FF 		leal	-224(%ebp), %eax
 2528      FFFF
GAS LISTING C:\Users\jisu8\AppData\Local\Temp\ccC0pYc9.s 			page 70


 2529 1463 89442410 		movl	%eax, 16(%esp)
 2530 1467 8D4584   		leal	-124(%ebp), %eax
 2531 146a 8944240C 		movl	%eax, 12(%esp)
 2532 146e 8B45F0   		movl	-16(%ebp), %eax
 2533 1471 89442408 		movl	%eax, 8(%esp)
 2534 1475 8B450C   		movl	12(%ebp), %eax
 2535 1478 89442404 		movl	%eax, 4(%esp)
 2536 147c 8B45EC   		movl	-20(%ebp), %eax
 2537 147f 890424   		movl	%eax, (%esp)
 2538 1482 E809F0FF 		call	_TextCompaction
 2538      FF
 2539 1487 8945F0   		movl	%eax, -16(%ebp)
 948:src/pdf417/PDFDecodedBitStreamParser.c **** 			break;
 2540              		.loc 1 948 4
 2541 148a E9B10100 		jmp	L156
 2541      00
 2542              	L166:
 949:src/pdf417/PDFDecodedBitStreamParser.c **** 			case MODE_SHIFT_TO_BYTE_COMPACTION_MODE:
 950:src/pdf417/PDFDecodedBitStreamParser.c **** 				// This should only be encountered once in this loop, when default Text Compaction mode applies
 951:src/pdf417/PDFDecodedBitStreamParser.c **** 				// (see default case below)
 952:src/pdf417/PDFDecodedBitStreamParser.c **** 				codeIndex = TextCompaction(status, codewords, codeIndex - 1, resultEncoded, result, &encoding);
 2543              		.loc 1 952 17
 2544 148f 8B45F0   		movl	-16(%ebp), %eax
 2545 1492 8D50FF   		leal	-1(%eax), %edx
 2546 1495 8D851CFF 		leal	-228(%ebp), %eax
 2546      FFFF
 2547 149b 89442414 		movl	%eax, 20(%esp)
 2548 149f 8D8520FF 		leal	-224(%ebp), %eax
 2548      FFFF
 2549 14a5 89442410 		movl	%eax, 16(%esp)
 2550 14a9 8D4584   		leal	-124(%ebp), %eax
 2551 14ac 8944240C 		movl	%eax, 12(%esp)
 2552 14b0 89542408 		movl	%edx, 8(%esp)
 2553 14b4 8B450C   		movl	12(%ebp), %eax
 2554 14b7 89442404 		movl	%eax, 4(%esp)
 2555 14bb 8B45EC   		movl	-20(%ebp), %eax
 2556 14be 890424   		movl	%eax, (%esp)
 2557 14c1 E8CAEFFF 		call	_TextCompaction
 2557      FF
 2558 14c6 8945F0   		movl	%eax, -16(%ebp)
 953:src/pdf417/PDFDecodedBitStreamParser.c **** 			break;
 2559              		.loc 1 953 4
 2560 14c9 E9720100 		jmp	L156
 2560      00
 2561              	L161:
 954:src/pdf417/PDFDecodedBitStreamParser.c **** 			case BYTE_COMPACTION_MODE_LATCH:
 955:src/pdf417/PDFDecodedBitStreamParser.c **** 			case BYTE_COMPACTION_MODE_LATCH_6:
 956:src/pdf417/PDFDecodedBitStreamParser.c **** 				codeIndex = ByteCompaction(status, code, codewords, codeIndex, resultEncoded, result, &encoding
 2562              		.loc 1 956 17
 2563 14ce 8D851CFF 		leal	-228(%ebp), %eax
 2563      FFFF
 2564 14d4 89442418 		movl	%eax, 24(%esp)
 2565 14d8 8D8520FF 		leal	-224(%ebp), %eax
 2565      FFFF
 2566 14de 89442414 		movl	%eax, 20(%esp)
 2567 14e2 8D4584   		leal	-124(%ebp), %eax
 2568 14e5 89442410 		movl	%eax, 16(%esp)
GAS LISTING C:\Users\jisu8\AppData\Local\Temp\ccC0pYc9.s 			page 71


 2569 14e9 8B45F0   		movl	-16(%ebp), %eax
 2570 14ec 8944240C 		movl	%eax, 12(%esp)
 2571 14f0 8B450C   		movl	12(%ebp), %eax
 2572 14f3 89442408 		movl	%eax, 8(%esp)
 2573 14f7 8B45E8   		movl	-24(%ebp), %eax
 2574 14fa 89442404 		movl	%eax, 4(%esp)
 2575 14fe 8B45EC   		movl	-20(%ebp), %eax
 2576 1501 890424   		movl	%eax, (%esp)
 2577 1504 E86EF4FF 		call	_ByteCompaction
 2577      FF
 2578 1509 8945F0   		movl	%eax, -16(%ebp)
 957:src/pdf417/PDFDecodedBitStreamParser.c **** 			break;
 2579              		.loc 1 957 4
 2580 150c E92F0100 		jmp	L156
 2580      00
 2581              	L167:
 958:src/pdf417/PDFDecodedBitStreamParser.c **** 			case NUMERIC_COMPACTION_MODE_LATCH:
 959:src/pdf417/PDFDecodedBitStreamParser.c **** 				codeIndex = NumericCompaction(status, codewords, codeIndex, resultEncoded, result, &encoding);
 2582              		.loc 1 959 17
 2583 1511 8D851CFF 		leal	-228(%ebp), %eax
 2583      FFFF
 2584 1517 89442414 		movl	%eax, 20(%esp)
 2585 151b 8D8520FF 		leal	-224(%ebp), %eax
 2585      FFFF
 2586 1521 89442410 		movl	%eax, 16(%esp)
 2587 1525 8D4584   		leal	-124(%ebp), %eax
 2588 1528 8944240C 		movl	%eax, 12(%esp)
 2589 152c 8B45F0   		movl	-16(%ebp), %eax
 2590 152f 89442408 		movl	%eax, 8(%esp)
 2591 1533 8B450C   		movl	12(%ebp), %eax
 2592 1536 89442404 		movl	%eax, 4(%esp)
 2593 153a 8B45EC   		movl	-20(%ebp), %eax
 2594 153d 890424   		movl	%eax, (%esp)
 2595 1540 E8FDF5FF 		call	_NumericCompaction
 2595      FF
 2596 1545 8945F0   		movl	%eax, -16(%ebp)
 960:src/pdf417/PDFDecodedBitStreamParser.c **** 			break;
 2597              		.loc 1 960 4
 2598 1548 E9F30000 		jmp	L156
 2598      00
 2599              	L160:
 961:src/pdf417/PDFDecodedBitStreamParser.c **** 			case ECI_CHARSET:
 962:src/pdf417/PDFDecodedBitStreamParser.c **** 			case ECI_GENERAL_PURPOSE:
 963:src/pdf417/PDFDecodedBitStreamParser.c **** 			case ECI_USER_DEFINED:
 964:src/pdf417/PDFDecodedBitStreamParser.c **** 				codeIndex = ProcessECI(codewords, codeIndex, codewords[0], code, resultEncoded, result, &encodi
 2600              		.loc 1 964 17
 2601 154d 8B450C   		movl	12(%ebp), %eax
 2602 1550 8B00     		movl	(%eax), %eax
 2603 1552 8D951CFF 		leal	-228(%ebp), %edx
 2603      FFFF
 2604 1558 89542418 		movl	%edx, 24(%esp)
 2605 155c 8D9520FF 		leal	-224(%ebp), %edx
 2605      FFFF
 2606 1562 89542414 		movl	%edx, 20(%esp)
 2607 1566 8D5584   		leal	-124(%ebp), %edx
 2608 1569 89542410 		movl	%edx, 16(%esp)
 2609 156d 8B55E8   		movl	-24(%ebp), %edx
GAS LISTING C:\Users\jisu8\AppData\Local\Temp\ccC0pYc9.s 			page 72


 2610 1570 8954240C 		movl	%edx, 12(%esp)
 2611 1574 89442408 		movl	%eax, 8(%esp)
 2612 1578 8B45F0   		movl	-16(%ebp), %eax
 2613 157b 89442404 		movl	%eax, 4(%esp)
 2614 157f 8B450C   		movl	12(%ebp), %eax
 2615 1582 890424   		movl	%eax, (%esp)
 2616 1585 E89DEAFF 		call	_ProcessECI
 2616      FF
 2617 158a 8945F0   		movl	%eax, -16(%ebp)
 965:src/pdf417/PDFDecodedBitStreamParser.c **** 			break;
 2618              		.loc 1 965 4
 2619 158d E9AE0000 		jmp	L156
 2619      00
 2620              	L158:
 966:src/pdf417/PDFDecodedBitStreamParser.c **** 			case BEGIN_MACRO_PDF417_CONTROL_BLOCK:
 967:src/pdf417/PDFDecodedBitStreamParser.c **** 				status = DecodeMacroBlock(codewords, codeIndex, &resultMetadata, codeIndex);
 2621              		.loc 1 967 14
 2622 1592 8B45F0   		movl	-16(%ebp), %eax
 2623 1595 8944240C 		movl	%eax, 12(%esp)
 2624 1599 8D85E0FE 		leal	-288(%ebp), %eax
 2624      FFFF
 2625 159f 89442408 		movl	%eax, 8(%esp)
 2626 15a3 8B45F0   		movl	-16(%ebp), %eax
 2627 15a6 89442404 		movl	%eax, 4(%esp)
 2628 15aa 8B450C   		movl	12(%ebp), %eax
 2629 15ad 890424   		movl	%eax, (%esp)
 2630 15b0 E811F9FF 		call	_DecodeMacroBlock
 2630      FF
 2631 15b5 8945EC   		movl	%eax, -20(%ebp)
 968:src/pdf417/PDFDecodedBitStreamParser.c **** 			break;
 2632              		.loc 1 968 4
 2633 15b8 E9830000 		jmp	L156
 2633      00
 2634              	L162:
 969:src/pdf417/PDFDecodedBitStreamParser.c **** 			case BEGIN_MACRO_PDF417_OPTIONAL_FIELD:
 970:src/pdf417/PDFDecodedBitStreamParser.c **** 			case MACRO_PDF417_TERMINATOR:
 971:src/pdf417/PDFDecodedBitStreamParser.c **** 				// Should not see these outside a macro block
 972:src/pdf417/PDFDecodedBitStreamParser.c **** 				status = FormatError;
 2635              		.loc 1 972 12
 2636 15bd C745EC02 		movl	$2, -20(%ebp)
 2636      000000
 973:src/pdf417/PDFDecodedBitStreamParser.c **** 			break;
 2637              		.loc 1 973 4
 2638 15c4 EB7A     		jmp	L156
 2639              	L163:
 974:src/pdf417/PDFDecodedBitStreamParser.c **** 			case READER_INIT:
 975:src/pdf417/PDFDecodedBitStreamParser.c **** 				if (codeIndex != 2) 
 2640              		.loc 1 975 8
 2641 15c6 837DF002 		cmpl	$2, -16(%ebp)
 2642 15ca 7409     		je	L169
 976:src/pdf417/PDFDecodedBitStreamParser.c **** 				{ // Must be first codeword after symbol length (ISO/IEC 15438:2015 5.4.1.4)
 977:src/pdf417/PDFDecodedBitStreamParser.c **** 					status = FormatError;
 2643              		.loc 1 977 13
 2644 15cc C745EC02 		movl	$2, -20(%ebp)
 2644      000000
 2645 15d3 EB6B     		jmp	L156
 2646              	L169:
GAS LISTING C:\Users\jisu8\AppData\Local\Temp\ccC0pYc9.s 			page 73


 978:src/pdf417/PDFDecodedBitStreamParser.c **** 				}
 979:src/pdf417/PDFDecodedBitStreamParser.c **** 				else 
 980:src/pdf417/PDFDecodedBitStreamParser.c **** 				{
 981:src/pdf417/PDFDecodedBitStreamParser.c **** 					readerInit = 1;
 2647              		.loc 1 981 17
 2648 15d5 C645F701 		movb	$1, -9(%ebp)
 982:src/pdf417/PDFDecodedBitStreamParser.c **** 				}
 983:src/pdf417/PDFDecodedBitStreamParser.c **** 			break;
 2649              		.loc 1 983 4
 2650 15d9 EB65     		jmp	L156
 2651              	L164:
 984:src/pdf417/PDFDecodedBitStreamParser.c **** 			case LINKAGE_EANUCC:
 985:src/pdf417/PDFDecodedBitStreamParser.c **** 				if (codeIndex != 2) 
 2652              		.loc 1 985 8
 2653 15db 837DF002 		cmpl	$2, -16(%ebp)
 2654 15df 745F     		je	L156
 986:src/pdf417/PDFDecodedBitStreamParser.c **** 				{ // Must be first codeword after symbol length (GS1 Composite ISO/IEC 24723:2010 4.3)
 987:src/pdf417/PDFDecodedBitStreamParser.c **** 					status = FormatError;
 2655              		.loc 1 987 13
 2656 15e1 C745EC02 		movl	$2, -20(%ebp)
 2656      000000
 988:src/pdf417/PDFDecodedBitStreamParser.c **** 				}
 989:src/pdf417/PDFDecodedBitStreamParser.c **** 				else 
 990:src/pdf417/PDFDecodedBitStreamParser.c **** 				{
 991:src/pdf417/PDFDecodedBitStreamParser.c **** 					// TODO: handle
 992:src/pdf417/PDFDecodedBitStreamParser.c **** 				}
 993:src/pdf417/PDFDecodedBitStreamParser.c **** 			break;
 2657              		.loc 1 993 4
 2658 15e8 EB56     		jmp	L156
 2659              	L165:
 994:src/pdf417/PDFDecodedBitStreamParser.c **** 			case LINKAGE_OTHER:
 995:src/pdf417/PDFDecodedBitStreamParser.c **** 				// Allowed to treat as invalid by ISO/IEC 24723:2010 5.4.1.5 and 5.4.6.1 when in Basic Channel 
 996:src/pdf417/PDFDecodedBitStreamParser.c **** 				status = FormatError; // TODO: add NotSupported error
 2660              		.loc 1 996 12
 2661 15ea C745EC02 		movl	$2, -20(%ebp)
 2661      000000
 997:src/pdf417/PDFDecodedBitStreamParser.c **** 			break;
 2662              		.loc 1 997 4
 2663 15f1 EB4D     		jmp	L156
 2664              	L157:
 998:src/pdf417/PDFDecodedBitStreamParser.c **** 			default:
 999:src/pdf417/PDFDecodedBitStreamParser.c **** 				if (code >= TEXT_COMPACTION_MODE_LATCH) 
 2665              		.loc 1 999 8
 2666 15f3 817DE883 		cmpl	$899, -24(%ebp)
 2666      030000
 2667 15fa 7E09     		jle	L172
1000:src/pdf417/PDFDecodedBitStreamParser.c **** 				{ // Reserved codewords (all others in switch)
1001:src/pdf417/PDFDecodedBitStreamParser.c **** 					// Allowed to treat as invalid by ISO/IEC 24723:2010 5.4.6.1 when in Basic Channel Mode
1002:src/pdf417/PDFDecodedBitStreamParser.c **** 					status = FormatError; // TODO: add NotSupported error
 2668              		.loc 1 1002 13
 2669 15fc C745EC02 		movl	$2, -20(%ebp)
 2669      000000
 2670 1603 EB3A     		jmp	L185
 2671              	L172:
1003:src/pdf417/PDFDecodedBitStreamParser.c **** 				}
1004:src/pdf417/PDFDecodedBitStreamParser.c **** 				else 
1005:src/pdf417/PDFDecodedBitStreamParser.c **** 				{
GAS LISTING C:\Users\jisu8\AppData\Local\Temp\ccC0pYc9.s 			page 74


1006:src/pdf417/PDFDecodedBitStreamParser.c **** 					// Default mode is Text Compaction mode Alpha sub-mode (ISO/IEC 15438:2015 5.4.2.1)
1007:src/pdf417/PDFDecodedBitStreamParser.c **** 					codeIndex = TextCompaction(status, codewords, codeIndex - 1, resultEncoded, result, &encoding)
 2672              		.loc 1 1007 18
 2673 1605 8B45F0   		movl	-16(%ebp), %eax
 2674 1608 8D50FF   		leal	-1(%eax), %edx
 2675 160b 8D851CFF 		leal	-228(%ebp), %eax
 2675      FFFF
 2676 1611 89442414 		movl	%eax, 20(%esp)
 2677 1615 8D8520FF 		leal	-224(%ebp), %eax
 2677      FFFF
 2678 161b 89442410 		movl	%eax, 16(%esp)
 2679 161f 8D4584   		leal	-124(%ebp), %eax
 2680 1622 8944240C 		movl	%eax, 12(%esp)
 2681 1626 89542408 		movl	%edx, 8(%esp)
 2682 162a 8B450C   		movl	12(%ebp), %eax
 2683 162d 89442404 		movl	%eax, 4(%esp)
 2684 1631 8B45EC   		movl	-20(%ebp), %eax
 2685 1634 890424   		movl	%eax, (%esp)
 2686 1637 E854EEFF 		call	_TextCompaction
 2686      FF
 2687 163c 8945F0   		movl	%eax, -16(%ebp)
 2688              	L185:
1008:src/pdf417/PDFDecodedBitStreamParser.c **** 				}
1009:src/pdf417/PDFDecodedBitStreamParser.c **** 			break;
 2689              		.loc 1 1009 4
 2690 163f 90       		nop
 2691              	L156:
 2692              	LBE24:
 941:src/pdf417/PDFDecodedBitStreamParser.c **** 	{
 2693              		.loc 1 941 30
 2694 1640 8B450C   		movl	12(%ebp), %eax
 2695 1643 8B00     		movl	(%eax), %eax
 941:src/pdf417/PDFDecodedBitStreamParser.c **** 	{
 2696              		.loc 1 941 8
 2697 1645 3945F0   		cmpl	%eax, -16(%ebp)
 2698 1648 7D0A     		jge	L174
 941:src/pdf417/PDFDecodedBitStreamParser.c **** 	{
 2699              		.loc 1 941 34 discriminator 1
 2700 164a 837DEC00 		cmpl	$0, -20(%ebp)
 2701 164e 0F84CBFD 		je	L175
 2701      FFFF
 2702              	L174:
1010:src/pdf417/PDFDecodedBitStreamParser.c **** 		}
1011:src/pdf417/PDFDecodedBitStreamParser.c **** 	}
1012:src/pdf417/PDFDecodedBitStreamParser.c **** 
1013:src/pdf417/PDFDecodedBitStreamParser.c **** 	Append(resultEncoded, (const uint8_t*)(result), strlen(result), encoding);
 2703              		.loc 1 1013 2
 2704 1654 8B9D1CFF 		movl	-228(%ebp), %ebx
 2704      FFFF
 2705 165a 8D8520FF 		leal	-224(%ebp), %eax
 2705      FFFF
 2706 1660 890424   		movl	%eax, (%esp)
 2707 1663 E8000000 		call	_strlen
 2707      00
 2708 1668 895C240C 		movl	%ebx, 12(%esp)
 2709 166c 89442408 		movl	%eax, 8(%esp)
 2710 1670 8D8520FF 		leal	-224(%ebp), %eax
GAS LISTING C:\Users\jisu8\AppData\Local\Temp\ccC0pYc9.s 			page 75


 2710      FFFF
 2711 1676 89442404 		movl	%eax, 4(%esp)
 2712 167a 8D4584   		leal	-124(%ebp), %eax
 2713 167d 890424   		movl	%eax, (%esp)
 2714 1680 E8000000 		call	_Append
 2714      00
1014:src/pdf417/PDFDecodedBitStreamParser.c **** 
1015:src/pdf417/PDFDecodedBitStreamParser.c **** 	if ((strlen(resultEncoded) == 0) && (resultMetadata._segmentIndex == -1))
 2715              		.loc 1 1015 14
 2716 1685 8D4584   		leal	-124(%ebp), %eax
 2717              		.loc 1 1015 29
 2718 1688 0FB600   		movzbl	(%eax), %eax
 2719              		.loc 1 1015 5
 2720 168b 84C0     		testb	%al, %al
 2721 168d 7514     		jne	L176
 2722              		.loc 1 1015 53 discriminator 1
 2723 168f 8B85E0FE 		movl	-288(%ebp), %eax
 2723      FFFF
 2724              		.loc 1 1015 35 discriminator 1
 2725 1695 83F8FF   		cmpl	$-1, %eax
 2726 1698 7509     		jne	L176
1016:src/pdf417/PDFDecodedBitStreamParser.c **** 	{
1017:src/pdf417/PDFDecodedBitStreamParser.c **** 		DecoderResult->status = FormatError;
 2727              		.loc 1 1017 25
 2728 169a 8B4508   		movl	8(%ebp), %eax
 2729 169d C7000200 		movl	$2, (%eax)
 2729      0000
 2730              	L176:
1018:src/pdf417/PDFDecodedBitStreamParser.c **** 	}
1019:src/pdf417/PDFDecodedBitStreamParser.c **** 
1020:src/pdf417/PDFDecodedBitStreamParser.c **** 
1021:src/pdf417/PDFDecodedBitStreamParser.c **** 	if (StatusIsError(status))
 2731              		.loc 1 1021 5
 2732 16a3 837DEC00 		cmpl	$0, -20(%ebp)
 2733 16a7 7408     		je	L177
1022:src/pdf417/PDFDecodedBitStreamParser.c **** 	{
1023:src/pdf417/PDFDecodedBitStreamParser.c **** 		DecoderResult->status = status;
 2734              		.loc 1 1023 25
 2735 16a9 8B4508   		movl	8(%ebp), %eax
 2736 16ac 8B55EC   		movl	-20(%ebp), %edx
 2737 16af 8910     		movl	%edx, (%eax)
 2738              	L177:
1024:src/pdf417/PDFDecodedBitStreamParser.c **** 	}
1025:src/pdf417/PDFDecodedBitStreamParser.c **** 
1026:src/pdf417/PDFDecodedBitStreamParser.c **** 
1027:src/pdf417/PDFDecodedBitStreamParser.c **** 	StructuredAppendInfo_t sai;
1028:src/pdf417/PDFDecodedBitStreamParser.c **** 	StructuredAppendInfo_Init(&sai);
 2739              		.loc 1 1028 2
 2740 16b1 8D85D4FE 		leal	-300(%ebp), %eax
 2740      FFFF
 2741 16b7 890424   		movl	%eax, (%esp)
 2742 16ba E8DEFCFF 		call	_StructuredAppendInfo_Init
 2742      FF
1029:src/pdf417/PDFDecodedBitStreamParser.c **** 	if (resultMetadata._segmentIndex > -1) 
 2743              		.loc 1 1029 20
 2744 16bf 8B85E0FE 		movl	-288(%ebp), %eax
 2744      FFFF
GAS LISTING C:\Users\jisu8\AppData\Local\Temp\ccC0pYc9.s 			page 76


 2745              		.loc 1 1029 5
 2746 16c5 85C0     		testl	%eax, %eax
 2747 16c7 784C     		js	L178
1030:src/pdf417/PDFDecodedBitStreamParser.c **** 	{
1031:src/pdf417/PDFDecodedBitStreamParser.c **** 		sai.count = resultMetadata._segmentCount != -1
 2748              		.loc 1 1031 29
 2749 16c9 8B85F0FE 		movl	-272(%ebp), %eax
 2749      FFFF
1032:src/pdf417/PDFDecodedBitStreamParser.c **** 						? resultMetadata._segmentCount
1033:src/pdf417/PDFDecodedBitStreamParser.c **** 						: (resultMetadata._lastSegment ? resultMetadata._segmentIndex + 1 : 0);
 2750              		.loc 1 1033 7
 2751 16cf 83F8FF   		cmpl	$-1, %eax
 2752 16d2 7408     		je	L179
 2753              		.loc 1 1033 7 is_stmt 0 discriminator 1
 2754 16d4 8B85F0FE 		movl	-272(%ebp), %eax
 2754      FFFF
 2755 16da EB1B     		jmp	L180
 2756              	L179:
 2757              		.loc 1 1033 24 is_stmt 1 discriminator 2
 2758 16dc 0FB685EC 		movzbl	-276(%ebp), %eax
 2758      FEFFFF
 2759              		.loc 1 1033 73 discriminator 2
 2760 16e3 84C0     		testb	%al, %al
 2761 16e5 740B     		je	L181
 2762              		.loc 1 1033 54 discriminator 3
 2763 16e7 8B85E0FE 		movl	-288(%ebp), %eax
 2763      FFFF
 2764              		.loc 1 1033 73 discriminator 3
 2765 16ed 83C001   		addl	$1, %eax
 2766 16f0 EB05     		jmp	L180
 2767              	L181:
 2768              		.loc 1 1033 73 is_stmt 0 discriminator 4
 2769 16f2 B8000000 		movl	$0, %eax
 2769      00
 2770              	L180:
1031:src/pdf417/PDFDecodedBitStreamParser.c **** 						? resultMetadata._segmentCount
 2771              		.loc 1 1031 13 is_stmt 1
 2772 16f7 8985D8FE 		movl	%eax, -296(%ebp)
 2772      FFFF
1034:src/pdf417/PDFDecodedBitStreamParser.c **** 		sai.index = resultMetadata._segmentIndex;
 2773              		.loc 1 1034 29
 2774 16fd 8B85E0FE 		movl	-288(%ebp), %eax
 2774      FFFF
 2775              		.loc 1 1034 13
 2776 1703 8985D4FE 		movl	%eax, -300(%ebp)
 2776      FFFF
1035:src/pdf417/PDFDecodedBitStreamParser.c **** 		sai.id    = resultMetadata._fileId;
 2777              		.loc 1 1035 29
 2778 1709 8B85E4FE 		movl	-284(%ebp), %eax
 2778      FFFF
 2779              		.loc 1 1035 13
 2780 170f 8985DCFE 		movl	%eax, -292(%ebp)
 2780      FFFF
 2781              	L178:
1036:src/pdf417/PDFDecodedBitStreamParser.c **** 	}
1037:src/pdf417/PDFDecodedBitStreamParser.c **** 
1038:src/pdf417/PDFDecodedBitStreamParser.c **** 	int ecLevelChar[2];
GAS LISTING C:\Users\jisu8\AppData\Local\Temp\ccC0pYc9.s 			page 77


1039:src/pdf417/PDFDecodedBitStreamParser.c **** 	if(ecLevel<10)
 2782              		.loc 1 1039 4
 2783 1715 837D1009 		cmpl	$9, 16(%ebp)
 2784 1719 7F0E     		jg	L183
1040:src/pdf417/PDFDecodedBitStreamParser.c **** 	{
1041:src/pdf417/PDFDecodedBitStreamParser.c **** 		ecLevelChar[0] = ecLevel+48;
 2785              		.loc 1 1041 27
 2786 171b 8B4510   		movl	16(%ebp), %eax
 2787 171e 83C030   		addl	$48, %eax
 2788              		.loc 1 1041 18
 2789 1721 8985CCFE 		movl	%eax, -308(%ebp)
 2789      FFFF
 2790 1727 EB6F     		jmp	L184
 2791              	L183:
1042:src/pdf417/PDFDecodedBitStreamParser.c **** 	}
1043:src/pdf417/PDFDecodedBitStreamParser.c **** 	else if(ecLevel<100)
 2792              		.loc 1 1043 9
 2793 1729 837D1063 		cmpl	$99, 16(%ebp)
 2794 172d 7F69     		jg	L184
1044:src/pdf417/PDFDecodedBitStreamParser.c **** 	{
1045:src/pdf417/PDFDecodedBitStreamParser.c **** 		
1046:src/pdf417/PDFDecodedBitStreamParser.c **** 		ecLevelChar[0] = (ecLevel%10)+48;
 2795              		.loc 1 1046 28
 2796 172f 8B4D10   		movl	16(%ebp), %ecx
 2797 1732 BA676666 		movl	$1717986919, %edx
 2797      66
 2798 1737 89C8     		movl	%ecx, %eax
 2799 1739 F7EA     		imull	%edx
 2800 173b C1FA02   		sarl	$2, %edx
 2801 173e 89C8     		movl	%ecx, %eax
 2802 1740 C1F81F   		sarl	$31, %eax
 2803 1743 29C2     		subl	%eax, %edx
 2804 1745 89D0     		movl	%edx, %eax
 2805 1747 C1E002   		sall	$2, %eax
 2806 174a 01D0     		addl	%edx, %eax
 2807 174c 01C0     		addl	%eax, %eax
 2808 174e 29C1     		subl	%eax, %ecx
 2809 1750 89CA     		movl	%ecx, %edx
 2810              		.loc 1 1046 32
 2811 1752 8D4230   		leal	48(%edx), %eax
 2812              		.loc 1 1046 18
 2813 1755 8985CCFE 		movl	%eax, -308(%ebp)
 2813      FFFF
1047:src/pdf417/PDFDecodedBitStreamParser.c **** 		ecLevelChar[1] = (ecLevel%100)/10+48;	
 2814              		.loc 1 1047 28
 2815 175b 8B5D10   		movl	16(%ebp), %ebx
 2816 175e BA1F85EB 		movl	$1374389535, %edx
 2816      51
 2817 1763 89D8     		movl	%ebx, %eax
 2818 1765 F7EA     		imull	%edx
 2819 1767 C1FA05   		sarl	$5, %edx
 2820 176a 89D8     		movl	%ebx, %eax
 2821 176c C1F81F   		sarl	$31, %eax
 2822 176f 89D1     		movl	%edx, %ecx
 2823 1771 29C1     		subl	%eax, %ecx
 2824 1773 6BC164   		imull	$100, %ecx, %eax
 2825 1776 29C3     		subl	%eax, %ebx
GAS LISTING C:\Users\jisu8\AppData\Local\Temp\ccC0pYc9.s 			page 78


 2826 1778 89D9     		movl	%ebx, %ecx
 2827              		.loc 1 1047 33
 2828 177a BA676666 		movl	$1717986919, %edx
 2828      66
 2829 177f 89C8     		movl	%ecx, %eax
 2830 1781 F7EA     		imull	%edx
 2831 1783 C1FA02   		sarl	$2, %edx
 2832 1786 89C8     		movl	%ecx, %eax
 2833 1788 C1F81F   		sarl	$31, %eax
 2834 178b 29C2     		subl	%eax, %edx
 2835 178d 89D0     		movl	%edx, %eax
 2836              		.loc 1 1047 36
 2837 178f 83C030   		addl	$48, %eax
 2838              		.loc 1 1047 18
 2839 1792 8985D0FE 		movl	%eax, -304(%ebp)
 2839      FFFF
 2840              	L184:
1048:src/pdf417/PDFDecodedBitStreamParser.c **** 	}
1049:src/pdf417/PDFDecodedBitStreamParser.c **** 	else{}
1050:src/pdf417/PDFDecodedBitStreamParser.c **** 
1051:src/pdf417/PDFDecodedBitStreamParser.c **** 	//DecoderResult->_rawBytes = ;
1052:src/pdf417/PDFDecodedBitStreamParser.c **** 	//DecoderResult->_numBits;
1053:src/pdf417/PDFDecodedBitStreamParser.c **** 	DecoderResult->_text = result;
 2841              		.loc 1 1053 23
 2842 1798 8B4508   		movl	8(%ebp), %eax
 2843 179b 8D9520FF 		leal	-224(%ebp), %edx
 2843      FFFF
 2844 17a1 89500C   		movl	%edx, 12(%eax)
1054:src/pdf417/PDFDecodedBitStreamParser.c **** 	DecoderResult->_ecLevel = ecLevelChar;
 2845              		.loc 1 1054 26
 2846 17a4 8B4508   		movl	8(%ebp), %eax
 2847 17a7 8D95CCFE 		leal	-308(%ebp), %edx
 2847      FFFF
 2848 17ad 895010   		movl	%edx, 16(%eax)
1055:src/pdf417/PDFDecodedBitStreamParser.c **** 	DecoderResult->_structuredAppend = sai;
 2849              		.loc 1 1055 35
 2850 17b0 8B4508   		movl	8(%ebp), %eax
 2851 17b3 8B95D4FE 		movl	-300(%ebp), %edx
 2851      FFFF
 2852 17b9 89501C   		movl	%edx, 28(%eax)
 2853 17bc 8B95D8FE 		movl	-296(%ebp), %edx
 2853      FFFF
 2854 17c2 895020   		movl	%edx, 32(%eax)
 2855 17c5 8B95DCFE 		movl	-292(%ebp), %edx
 2855      FFFF
 2856 17cb 895024   		movl	%edx, 36(%eax)
1056:src/pdf417/PDFDecodedBitStreamParser.c **** 	DecoderResult->_readerInit = readerInit;
 2857              		.loc 1 1056 29
 2858 17ce 8B4508   		movl	8(%ebp), %eax
 2859 17d1 0FB655F7 		movzbl	-9(%ebp), %edx
 2860 17d5 885028   		movb	%dl, 40(%eax)
1057:src/pdf417/PDFDecodedBitStreamParser.c **** 	DecoderResult->_extra = &resultMetadata;
 2861              		.loc 1 1057 24
 2862 17d8 8B4508   		movl	8(%ebp), %eax
 2863 17db 8D95E0FE 		leal	-288(%ebp), %edx
 2863      FFFF
 2864 17e1 89502C   		movl	%edx, 44(%eax)
GAS LISTING C:\Users\jisu8\AppData\Local\Temp\ccC0pYc9.s 			page 79


1058:src/pdf417/PDFDecodedBitStreamParser.c **** 
1059:src/pdf417/PDFDecodedBitStreamParser.c **** }
 2865              		.loc 1 1059 1
 2866 17e4 90       		nop
 2867 17e5 81C45001 		addl	$336, %esp
 2867      0000
 2868 17eb 5B       		popl	%ebx
 2869              		.cfi_restore 3
 2870 17ec 5F       		popl	%edi
 2871              		.cfi_restore 7
 2872 17ed 5D       		popl	%ebp
 2873              	LCFI44:
 2874              		.cfi_restore 5
 2875              		.cfi_def_cfa 4, 4
 2876 17ee C3       		ret
 2877              		.cfi_endproc
 2878              	LFE32:
 2879              	Letext0:
 2880              		.file 2 "src/StructuredAppend.h"
 2881              		.file 3 "src/decodestatus.h"
 2882              		.file 4 "D:/3.tools/mingw/mingw32/i686-w64-mingw32/include/crtdefs.h"
 2883              		.file 5 "D:/3.tools/mingw/mingw32/i686-w64-mingw32/include/stdint.h"
 2884              		.file 6 "src/DecoderResult.h"
 2885              		.file 7 "src/pdf417/PDFDecoderResultExtra.h"
 2886              		.file 8 "src/CharacterSet.h"
 2887              		.file 9 "D:/3.tools/mingw/mingw32/i686-w64-mingw32/include/stdlib.h"
 2888              		.file 10 "D:/3.tools/mingw/mingw32/i686-w64-mingw32/include/malloc.h"
 2889              		.file 11 "D:/3.tools/mingw/mingw32/i686-w64-mingw32/include/stdio.h"