GAS LISTING C:\Users\jisu8\AppData\Local\Temp\ccIUpqyy.s 			page 1


   1              		.file	"PDFDetectionResultColumn.c"
   2              		.text
   3              	Ltext0:
   4              		.section .rdata,"dr"
   5              		.align 4
   6              	_MAX_NEARBY_DISTANCE:
   7 0000 05000000 		.long	5
   8              		.align 4
   9              	_MIN_ROWS_IN_BARCODE:
  10 0004 03000000 		.long	3
  11              		.align 4
  12              	_MAX_ROWS_IN_BARCODE:
  13 0008 5A000000 		.long	90
  14              		.comm	_codewords, 4000, 5
  15              	LC0:
  16 000c 496E7661 		.ascii "Invalid bounding box\0"
  16      6C696420 
  16      626F756E 
  16      64696E67 
  16      20626F78 
  17              		.text
  18              		.globl	_DetectionResultColumn
  20              	_DetectionResultColumn:
  21              	LFB4:
  22              		.file 1 "src/pdf417/PDFDetectionResultColumn.c"
   1:src/pdf417/PDFDetectionResultColumn.c **** /*
   2:src/pdf417/PDFDetectionResultColumn.c **** * Copyright 2016 Nu-book Inc.
   3:src/pdf417/PDFDetectionResultColumn.c **** * Copyright 2016 ZXing authors
   4:src/pdf417/PDFDetectionResultColumn.c **** *
   5:src/pdf417/PDFDetectionResultColumn.c **** * Licensed under the Apache License, Version 2.0 (the "License");
   6:src/pdf417/PDFDetectionResultColumn.c **** * you may not use this file except in compliance with the License.
   7:src/pdf417/PDFDetectionResultColumn.c **** * You may obtain a copy of the License at
   8:src/pdf417/PDFDetectionResultColumn.c **** *
   9:src/pdf417/PDFDetectionResultColumn.c **** *      http://www.apache.org/licenses/LICENSE-2.0
  10:src/pdf417/PDFDetectionResultColumn.c **** *
  11:src/pdf417/PDFDetectionResultColumn.c **** * Unless required by applicable law or agreed to in writing, software
  12:src/pdf417/PDFDetectionResultColumn.c **** * distributed under the License is distributed on an "AS IS" BASIS,
  13:src/pdf417/PDFDetectionResultColumn.c **** * WITHOUT WARRANTIES OR CONDITIONS OF ANY KIND, either express or implied.
  14:src/pdf417/PDFDetectionResultColumn.c **** * See the License for the specific language governing permissions and
  15:src/pdf417/PDFDetectionResultColumn.c **** * limitations under the License.
  16:src/pdf417/PDFDetectionResultColumn.c **** */
  17:src/pdf417/PDFDetectionResultColumn.c **** 
  18:src/pdf417/PDFDetectionResultColumn.c **** #include "PDFBarcodeMetadata.h"
  19:src/pdf417/PDFDetectionResultColumn.c **** #include "PDFBarcodeValue.h"
  20:src/pdf417/PDFDetectionResultColumn.c **** #include "PDFScanningDecoder.h"
  21:src/pdf417/PDFDetectionResultColumn.c **** #include <stdlib.h>
  22:src/pdf417/PDFDetectionResultColumn.c **** 
  23:src/pdf417/PDFDetectionResultColumn.c **** static const int MAX_NEARBY_DISTANCE = 5;
  24:src/pdf417/PDFDetectionResultColumn.c **** static const int MIN_ROWS_IN_BARCODE = 3;
  25:src/pdf417/PDFDetectionResultColumn.c **** static const int MAX_ROWS_IN_BARCODE = 90;
  26:src/pdf417/PDFDetectionResultColumn.c **** 
  27:src/pdf417/PDFDetectionResultColumn.c **** int codewords[1000];
  28:src/pdf417/PDFDetectionResultColumn.c **** 
  29:src/pdf417/PDFDetectionResultColumn.c **** void DetectionResultColumn(const BoundingBox_t * boundingBox, RowIndicator_t rowInd, DetectionResul
  30:src/pdf417/PDFDetectionResultColumn.c **** {
  23              		.loc 1 30 1
  24              		.cfi_startproc
GAS LISTING C:\Users\jisu8\AppData\Local\Temp\ccIUpqyy.s 			page 2


  25 0000 55       		pushl	%ebp
  26              	LCFI0:
  27              		.cfi_def_cfa_offset 8
  28              		.cfi_offset 5, -8
  29 0001 89E5     		movl	%esp, %ebp
  30              	LCFI1:
  31              		.cfi_def_cfa_register 5
  32 0003 83EC18   		subl	$24, %esp
  31:src/pdf417/PDFDetectionResultColumn.c **** 	RowIndicatorColumn->m_value._boundingBox.m_hasValue = 1;
  33              		.loc 1 31 54
  34 0006 8B4510   		movl	16(%ebp), %eax
  35 0009 C6400401 		movb	$1, 4(%eax)
  32:src/pdf417/PDFDetectionResultColumn.c **** 	RowIndicatorColumn->m_value._boundingBox.m_value._imgWidth = boundingBox->m_value._imgWidth;
  36              		.loc 1 32 83
  37 000d 8B4508   		movl	8(%ebp), %eax
  38 0010 8B5004   		movl	4(%eax), %edx
  39              		.loc 1 32 61
  40 0013 8B4510   		movl	16(%ebp), %eax
  41 0016 895008   		movl	%edx, 8(%eax)
  33:src/pdf417/PDFDetectionResultColumn.c **** 	RowIndicatorColumn->m_value._boundingBox.m_value._imgHeight = boundingBox->m_value._imgHeight;
  42              		.loc 1 33 84
  43 0019 8B4508   		movl	8(%ebp), %eax
  44 001c 8B5008   		movl	8(%eax), %edx
  45              		.loc 1 33 62
  46 001f 8B4510   		movl	16(%ebp), %eax
  47 0022 89500C   		movl	%edx, 12(%eax)
  34:src/pdf417/PDFDetectionResultColumn.c **** 	RowIndicatorColumn->m_value._boundingBox.m_value._topLeft = boundingBox->m_value._topLeft;
  48              		.loc 1 34 60
  49 0025 8B4510   		movl	16(%ebp), %eax
  50 0028 8B5508   		movl	8(%ebp), %edx
  51 002b 8B4A0C   		movl	12(%edx), %ecx
  52 002e 894810   		movl	%ecx, 16(%eax)
  53 0031 8B4A10   		movl	16(%edx), %ecx
  54 0034 894814   		movl	%ecx, 20(%eax)
  55 0037 8B5214   		movl	20(%edx), %edx
  56 003a 895018   		movl	%edx, 24(%eax)
  35:src/pdf417/PDFDetectionResultColumn.c **** 	RowIndicatorColumn->m_value._boundingBox.m_value._bottomLeft = boundingBox->m_value._bottomLeft;
  57              		.loc 1 35 63
  58 003d 8B4510   		movl	16(%ebp), %eax
  59 0040 8B5508   		movl	8(%ebp), %edx
  60 0043 8B4A18   		movl	24(%edx), %ecx
  61 0046 89481C   		movl	%ecx, 28(%eax)
  62 0049 8B4A1C   		movl	28(%edx), %ecx
  63 004c 894820   		movl	%ecx, 32(%eax)
  64 004f 8B5220   		movl	32(%edx), %edx
  65 0052 895024   		movl	%edx, 36(%eax)
  36:src/pdf417/PDFDetectionResultColumn.c **** 	RowIndicatorColumn->m_value._boundingBox.m_value._topRight = boundingBox->m_value._topRight;
  66              		.loc 1 36 61
  67 0055 8B4510   		movl	16(%ebp), %eax
  68 0058 8B5508   		movl	8(%ebp), %edx
  69 005b 8B4A24   		movl	36(%edx), %ecx
  70 005e 894828   		movl	%ecx, 40(%eax)
  71 0061 8B4A28   		movl	40(%edx), %ecx
  72 0064 89482C   		movl	%ecx, 44(%eax)
  73 0067 8B522C   		movl	44(%edx), %edx
  74 006a 895030   		movl	%edx, 48(%eax)
  37:src/pdf417/PDFDetectionResultColumn.c **** 	RowIndicatorColumn->m_value._boundingBox.m_value._bottomRight = boundingBox->m_value._bottomRight;
GAS LISTING C:\Users\jisu8\AppData\Local\Temp\ccIUpqyy.s 			page 3


  75              		.loc 1 37 64
  76 006d 8B4510   		movl	16(%ebp), %eax
  77 0070 8B5508   		movl	8(%ebp), %edx
  78 0073 8B4A30   		movl	48(%edx), %ecx
  79 0076 894834   		movl	%ecx, 52(%eax)
  80 0079 8B4A34   		movl	52(%edx), %ecx
  81 007c 894838   		movl	%ecx, 56(%eax)
  82 007f 8B5238   		movl	56(%edx), %edx
  83 0082 89503C   		movl	%edx, 60(%eax)
  38:src/pdf417/PDFDetectionResultColumn.c **** 	RowIndicatorColumn->m_value._boundingBox.m_value._minX = boundingBox->m_value._minX;
  84              		.loc 1 38 79
  85 0085 8B4508   		movl	8(%ebp), %eax
  86 0088 8B503C   		movl	60(%eax), %edx
  87              		.loc 1 38 57
  88 008b 8B4510   		movl	16(%ebp), %eax
  89 008e 895040   		movl	%edx, 64(%eax)
  39:src/pdf417/PDFDetectionResultColumn.c **** 	RowIndicatorColumn->m_value._boundingBox.m_value._maxX = boundingBox->m_value._maxX;
  90              		.loc 1 39 79
  91 0091 8B4508   		movl	8(%ebp), %eax
  92 0094 8B5040   		movl	64(%eax), %edx
  93              		.loc 1 39 57
  94 0097 8B4510   		movl	16(%ebp), %eax
  95 009a 895044   		movl	%edx, 68(%eax)
  40:src/pdf417/PDFDetectionResultColumn.c **** 	RowIndicatorColumn->m_value._boundingBox.m_value._minY = boundingBox->m_value._minY;
  96              		.loc 1 40 79
  97 009d 8B4508   		movl	8(%ebp), %eax
  98 00a0 8B5044   		movl	68(%eax), %edx
  99              		.loc 1 40 57
 100 00a3 8B4510   		movl	16(%ebp), %eax
 101 00a6 895048   		movl	%edx, 72(%eax)
  41:src/pdf417/PDFDetectionResultColumn.c **** 	RowIndicatorColumn->m_value._boundingBox.m_value._maxY = boundingBox->m_value._maxY;
 102              		.loc 1 41 79
 103 00a9 8B4508   		movl	8(%ebp), %eax
 104 00ac 8B5048   		movl	72(%eax), %edx
 105              		.loc 1 41 57
 106 00af 8B4510   		movl	16(%ebp), %eax
 107 00b2 89504C   		movl	%edx, 76(%eax)
  42:src/pdf417/PDFDetectionResultColumn.c **** 	RowIndicatorColumn->m_value._rowIndicator = rowInd;
 108              		.loc 1 42 44
 109 00b5 8B4510   		movl	16(%ebp), %eax
 110 00b8 8B550C   		movl	12(%ebp), %edx
 111 00bb 8990302F 		movl	%edx, 12080(%eax)
 111      0000
  43:src/pdf417/PDFDetectionResultColumn.c **** 	RowIndicatorColumn->m_hasValue = 1;
 112              		.loc 1 43 33
 113 00c1 8B4510   		movl	16(%ebp), %eax
 114 00c4 C60001   		movb	$1, (%eax)
  44:src/pdf417/PDFDetectionResultColumn.c **** 	
  45:src/pdf417/PDFDetectionResultColumn.c **** 	if (boundingBox->m_value._maxY < boundingBox->m_value._minY) 
 115              		.loc 1 45 26
 116 00c7 8B4508   		movl	8(%ebp), %eax
 117 00ca 8B5048   		movl	72(%eax), %edx
 118              		.loc 1 45 55
 119 00cd 8B4508   		movl	8(%ebp), %eax
 120 00d0 8B4044   		movl	68(%eax), %eax
 121              		.loc 1 45 5
 122 00d3 39C2     		cmpl	%eax, %edx
GAS LISTING C:\Users\jisu8\AppData\Local\Temp\ccIUpqyy.s 			page 4


 123 00d5 7D0C     		jge	L3
 124              	LBB2:
  46:src/pdf417/PDFDetectionResultColumn.c **** 	{
  47:src/pdf417/PDFDetectionResultColumn.c **** 		printf("Invalid bounding box");
 125              		.loc 1 47 3
 126 00d7 C704240C 		movl	$LC0, (%esp)
 126      000000
 127 00de E8000000 		call	_printf
 127      00
 128              	L3:
 129              	LBE2:
  48:src/pdf417/PDFDetectionResultColumn.c **** 	}
  49:src/pdf417/PDFDetectionResultColumn.c **** }
 130              		.loc 1 49 1
 131 00e3 90       		nop
 132 00e4 C9       		leave
 133              	LCFI2:
 134              		.cfi_restore 5
 135              		.cfi_def_cfa 4, 4
 136 00e5 C3       		ret
 137              		.cfi_endproc
 138              	LFE4:
 139              		.globl	_allCodewords
 141              	_allCodewords:
 142              	LFB5:
  50:src/pdf417/PDFDetectionResultColumn.c **** 
  51:src/pdf417/PDFDetectionResultColumn.c **** Codeword_t * allCodewords(DetectionResultColumn_t * RowIndicatorColumn) 
  52:src/pdf417/PDFDetectionResultColumn.c **** {
 143              		.loc 1 52 1
 144              		.cfi_startproc
 145 00e6 55       		pushl	%ebp
 146              	LCFI3:
 147              		.cfi_def_cfa_offset 8
 148              		.cfi_offset 5, -8
 149 00e7 89E5     		movl	%esp, %ebp
 150              	LCFI4:
 151              		.cfi_def_cfa_register 5
  53:src/pdf417/PDFDetectionResultColumn.c **** 	return RowIndicatorColumn->m_value._codewords;
 152              		.loc 1 53 9
 153 00e9 8B4508   		movl	8(%ebp), %eax
 154 00ec 83C050   		addl	$80, %eax
  54:src/pdf417/PDFDetectionResultColumn.c **** }
 155              		.loc 1 54 1
 156 00ef 5D       		popl	%ebp
 157              	LCFI5:
 158              		.cfi_restore 5
 159              		.cfi_def_cfa 4, 4
 160 00f0 C3       		ret
 161              		.cfi_endproc
 162              	LFE5:
 163              		.globl	_isRowIndicator
 165              	_isRowIndicator:
 166              	LFB6:
  55:src/pdf417/PDFDetectionResultColumn.c **** uint8_t isRowIndicator(DetectionResultColumn_t * RowIndicatorColumn)
  56:src/pdf417/PDFDetectionResultColumn.c **** {
 167              		.loc 1 56 1
 168              		.cfi_startproc
GAS LISTING C:\Users\jisu8\AppData\Local\Temp\ccIUpqyy.s 			page 5


 169 00f1 55       		pushl	%ebp
 170              	LCFI6:
 171              		.cfi_def_cfa_offset 8
 172              		.cfi_offset 5, -8
 173 00f2 89E5     		movl	%esp, %ebp
 174              	LCFI7:
 175              		.cfi_def_cfa_register 5
  57:src/pdf417/PDFDetectionResultColumn.c **** 	return RowIndicatorColumn->m_value._rowIndicator != None;
 176              		.loc 1 57 36
 177 00f4 8B4508   		movl	8(%ebp), %eax
 178 00f7 8B80302F 		movl	12080(%eax), %eax
 178      0000
 179              		.loc 1 57 51
 180 00fd 85C0     		testl	%eax, %eax
 181 00ff 0F95C0   		setne	%al
  58:src/pdf417/PDFDetectionResultColumn.c **** }
 182              		.loc 1 58 1
 183 0102 5D       		popl	%ebp
 184              	LCFI8:
 185              		.cfi_restore 5
 186              		.cfi_def_cfa 4, 4
 187 0103 C3       		ret
 188              		.cfi_endproc
 189              	LFE6:
 190              		.globl	_isLeftRowIndicator
 192              	_isLeftRowIndicator:
 193              	LFB7:
  59:src/pdf417/PDFDetectionResultColumn.c **** uint8_t isLeftRowIndicator(DetectionResultColumn_t * RowIndicatorColumn) 
  60:src/pdf417/PDFDetectionResultColumn.c **** {
 194              		.loc 1 60 1
 195              		.cfi_startproc
 196 0104 55       		pushl	%ebp
 197              	LCFI9:
 198              		.cfi_def_cfa_offset 8
 199              		.cfi_offset 5, -8
 200 0105 89E5     		movl	%esp, %ebp
 201              	LCFI10:
 202              		.cfi_def_cfa_register 5
  61:src/pdf417/PDFDetectionResultColumn.c **** 	return RowIndicatorColumn->m_value._rowIndicator == Left;
 203              		.loc 1 61 36
 204 0107 8B4508   		movl	8(%ebp), %eax
 205 010a 8B80302F 		movl	12080(%eax), %eax
 205      0000
 206              		.loc 1 61 51
 207 0110 83F801   		cmpl	$1, %eax
 208 0113 0F94C0   		sete	%al
  62:src/pdf417/PDFDetectionResultColumn.c **** }
 209              		.loc 1 62 1
 210 0116 5D       		popl	%ebp
 211              	LCFI11:
 212              		.cfi_restore 5
 213              		.cfi_def_cfa 4, 4
 214 0117 C3       		ret
 215              		.cfi_endproc
 216              	LFE7:
 218              	_clear_var:
 219              	LFB8:
GAS LISTING C:\Users\jisu8\AppData\Local\Temp\ccIUpqyy.s 			page 6


  63:src/pdf417/PDFDetectionResultColumn.c **** #if 0
  64:src/pdf417/PDFDetectionResultColumn.c **** Nullable<Codeword>
  65:src/pdf417/PDFDetectionResultColumn.c **** DetectionResultColumn::codewordNearby(int imageRow) const
  66:src/pdf417/PDFDetectionResultColumn.c **** {
  67:src/pdf417/PDFDetectionResultColumn.c **** 	int index = imageRowToCodewordIndex(imageRow);
  68:src/pdf417/PDFDetectionResultColumn.c **** 	if (_codewords[index] != nullptr) 
  69:src/pdf417/PDFDetectionResultColumn.c **** 	{
  70:src/pdf417/PDFDetectionResultColumn.c **** 		return _codewords[index];
  71:src/pdf417/PDFDetectionResultColumn.c **** 	}
  72:src/pdf417/PDFDetectionResultColumn.c **** 
  73:src/pdf417/PDFDetectionResultColumn.c **** 	for (int i = 1; i < MAX_NEARBY_DISTANCE; i++) 
  74:src/pdf417/PDFDetectionResultColumn.c **** 	{
  75:src/pdf417/PDFDetectionResultColumn.c **** 		int nearImageRow = imageRowToCodewordIndex(imageRow) - i;
  76:src/pdf417/PDFDetectionResultColumn.c **** 		if (nearImageRow >= 0) 
  77:src/pdf417/PDFDetectionResultColumn.c **** 		{
  78:src/pdf417/PDFDetectionResultColumn.c **** 			if (_codewords[nearImageRow] != nullptr) 
  79:src/pdf417/PDFDetectionResultColumn.c **** 			{
  80:src/pdf417/PDFDetectionResultColumn.c **** 				return _codewords[nearImageRow];
  81:src/pdf417/PDFDetectionResultColumn.c **** 			}
  82:src/pdf417/PDFDetectionResultColumn.c **** 		}
  83:src/pdf417/PDFDetectionResultColumn.c **** 		nearImageRow = imageRowToCodewordIndex(imageRow) + i;
  84:src/pdf417/PDFDetectionResultColumn.c **** 		if (nearImageRow < Size(_codewords)) 
  85:src/pdf417/PDFDetectionResultColumn.c **** 		{
  86:src/pdf417/PDFDetectionResultColumn.c **** 			if (_codewords[nearImageRow] != nullptr) 
  87:src/pdf417/PDFDetectionResultColumn.c **** 			{
  88:src/pdf417/PDFDetectionResultColumn.c **** 				return _codewords[nearImageRow];
  89:src/pdf417/PDFDetectionResultColumn.c **** 			}
  90:src/pdf417/PDFDetectionResultColumn.c **** 		}
  91:src/pdf417/PDFDetectionResultColumn.c **** 	}
  92:src/pdf417/PDFDetectionResultColumn.c **** 
  93:src/pdf417/PDFDetectionResultColumn.c **** 	return nullptr;
  94:src/pdf417/PDFDetectionResultColumn.c **** }
  95:src/pdf417/PDFDetectionResultColumn.c **** 
  96:src/pdf417/PDFDetectionResultColumn.c **** void
  97:src/pdf417/PDFDetectionResultColumn.c **** DetectionResultColumn::setRowNumbers()
  98:src/pdf417/PDFDetectionResultColumn.c **** {
  99:src/pdf417/PDFDetectionResultColumn.c **** 	for (auto& codeword : allCodewords()) 
 100:src/pdf417/PDFDetectionResultColumn.c **** 	{
 101:src/pdf417/PDFDetectionResultColumn.c **** 		if (codeword != nullptr) 
 102:src/pdf417/PDFDetectionResultColumn.c **** 		{
 103:src/pdf417/PDFDetectionResultColumn.c **** 			codeword.value().setRowNumberAsRowIndicatorColumn();
 104:src/pdf417/PDFDetectionResultColumn.c **** 		}
 105:src/pdf417/PDFDetectionResultColumn.c **** 	}
 106:src/pdf417/PDFDetectionResultColumn.c **** }
 107:src/pdf417/PDFDetectionResultColumn.c **** #endif
 108:src/pdf417/PDFDetectionResultColumn.c **** static void clear_var(Codeword_t * codewords)
 109:src/pdf417/PDFDetectionResultColumn.c **** {
 220              		.loc 1 109 1
 221              		.cfi_startproc
 222 0118 55       		pushl	%ebp
 223              	LCFI12:
 224              		.cfi_def_cfa_offset 8
 225              		.cfi_offset 5, -8
 226 0119 89E5     		movl	%esp, %ebp
 227              	LCFI13:
 228              		.cfi_def_cfa_register 5
 110:src/pdf417/PDFDetectionResultColumn.c **** 	codewords->m_hasValue = 0;
GAS LISTING C:\Users\jisu8\AppData\Local\Temp\ccIUpqyy.s 			page 7


 229              		.loc 1 110 24
 230 011b 8B4508   		movl	8(%ebp), %eax
 231 011e C60000   		movb	$0, (%eax)
 111:src/pdf417/PDFDetectionResultColumn.c **** 	codewords->m_value._startX = 0;
 232              		.loc 1 111 29
 233 0121 8B4508   		movl	8(%ebp), %eax
 234 0124 C7400400 		movl	$0, 4(%eax)
 234      000000
 112:src/pdf417/PDFDetectionResultColumn.c **** 	codewords->m_value._endX = 0;
 235              		.loc 1 112 27
 236 012b 8B4508   		movl	8(%ebp), %eax
 237 012e C7400800 		movl	$0, 8(%eax)
 237      000000
 113:src/pdf417/PDFDetectionResultColumn.c **** 	codewords->m_value._bucket = 0;
 238              		.loc 1 113 29
 239 0135 8B4508   		movl	8(%ebp), %eax
 240 0138 C7400C00 		movl	$0, 12(%eax)
 240      000000
 114:src/pdf417/PDFDetectionResultColumn.c **** 	codewords->m_value._value = 0;
 241              		.loc 1 114 28
 242 013f 8B4508   		movl	8(%ebp), %eax
 243 0142 C7401000 		movl	$0, 16(%eax)
 243      000000
 115:src/pdf417/PDFDetectionResultColumn.c **** 	codewords->m_value._rowNumber = -1;
 244              		.loc 1 115 32
 245 0149 8B4508   		movl	8(%ebp), %eax
 246 014c C74014FF 		movl	$-1, 20(%eax)
 246      FFFFFF
 116:src/pdf417/PDFDetectionResultColumn.c **** }
 247              		.loc 1 116 1
 248 0153 90       		nop
 249 0154 5D       		popl	%ebp
 250              	LCFI14:
 251              		.cfi_restore 5
 252              		.cfi_def_cfa 4, 4
 253 0155 C3       		ret
 254              		.cfi_endproc
 255              	LFE8:
 256              		.section .rdata,"dr"
 257              	LC1:
 258 0021 52656D6F 		.ascii "RemoveIncorrectCodewords: \0"
 258      7665496E 
 258      636F7272 
 258      65637443 
 258      6F646577 
 259              		.text
 261              	_RemoveIncorrectCodewords:
 262              	LFB9:
 117:src/pdf417/PDFDetectionResultColumn.c **** static void RemoveIncorrectCodewords(uint8_t isLeft, Codeword_t * codewords, const BarcodeMetadata_
 118:src/pdf417/PDFDetectionResultColumn.c **** {
 263              		.loc 1 118 1
 264              		.cfi_startproc
 265 0156 55       		pushl	%ebp
 266              	LCFI15:
 267              		.cfi_def_cfa_offset 8
 268              		.cfi_offset 5, -8
 269 0157 89E5     		movl	%esp, %ebp
GAS LISTING C:\Users\jisu8\AppData\Local\Temp\ccIUpqyy.s 			page 8


 270              	LCFI16:
 271              		.cfi_def_cfa_register 5
 272 0159 83EC38   		subl	$56, %esp
 273 015c 8B4508   		movl	8(%ebp), %eax
 274 015f 8845E4   		movb	%al, -28(%ebp)
 119:src/pdf417/PDFDetectionResultColumn.c **** 
 120:src/pdf417/PDFDetectionResultColumn.c **** 	printf("RemoveIncorrectCodewords: \n");
 275              		.loc 1 120 2
 276 0162 C7042421 		movl	$LC1, (%esp)
 276      000000
 277 0169 E8000000 		call	_puts
 277      00
 278              	LBB3:
 121:src/pdf417/PDFDetectionResultColumn.c **** 
 122:src/pdf417/PDFDetectionResultColumn.c **** 	// Remove codewords which do not match the metadata
 123:src/pdf417/PDFDetectionResultColumn.c **** 	// TODO Maybe we should keep the incorrect codewords for the start and end positions?
 124:src/pdf417/PDFDetectionResultColumn.c **** 	for (int i=0;i<length;i++) 
 279              		.loc 1 124 11
 280 016e C745F400 		movl	$0, -12(%ebp)
 280      000000
 281              		.loc 1 124 2
 282 0175 E9BB0100 		jmp	L12
 282      00
 283              	L23:
 284              	LBB4:
 125:src/pdf417/PDFDetectionResultColumn.c **** 	{
 126:src/pdf417/PDFDetectionResultColumn.c **** 		if (codewords[i].m_hasValue == 0) 
 285              		.loc 1 126 16
 286 017a 8B55F4   		movl	-12(%ebp), %edx
 287 017d 89D0     		movl	%edx, %eax
 288 017f 01C0     		addl	%eax, %eax
 289 0181 01D0     		addl	%edx, %eax
 290 0183 C1E003   		sall	$3, %eax
 291 0186 89C2     		movl	%eax, %edx
 292 0188 8B450C   		movl	12(%ebp), %eax
 293 018b 01D0     		addl	%edx, %eax
 294              		.loc 1 126 19
 295 018d 0FB600   		movzbl	(%eax), %eax
 296              		.loc 1 126 6
 297 0190 84C0     		testb	%al, %al
 298 0192 0F848F01 		je	L24
 298      0000
 127:src/pdf417/PDFDetectionResultColumn.c **** 		{
 128:src/pdf417/PDFDetectionResultColumn.c **** 			continue;
 129:src/pdf417/PDFDetectionResultColumn.c **** 		}
 130:src/pdf417/PDFDetectionResultColumn.c **** 
 131:src/pdf417/PDFDetectionResultColumn.c **** 		int rowIndicatorValue = codewords[i].m_value._value % 30;
 299              		.loc 1 131 36
 300 0198 8B55F4   		movl	-12(%ebp), %edx
 301 019b 89D0     		movl	%edx, %eax
 302 019d 01C0     		addl	%eax, %eax
 303 019f 01D0     		addl	%edx, %eax
 304 01a1 C1E003   		sall	$3, %eax
 305 01a4 89C2     		movl	%eax, %edx
 306 01a6 8B450C   		movl	12(%ebp), %eax
 307 01a9 01D0     		addl	%edx, %eax
 308              		.loc 1 131 47
GAS LISTING C:\Users\jisu8\AppData\Local\Temp\ccIUpqyy.s 			page 9


 309 01ab 8B4810   		movl	16(%eax), %ecx
 310              		.loc 1 131 7
 311 01ae BA898888 		movl	$-2004318071, %edx
 311      88
 312 01b3 89C8     		movl	%ecx, %eax
 313 01b5 F7EA     		imull	%edx
 314 01b7 8D040A   		leal	(%edx,%ecx), %eax
 315 01ba C1F804   		sarl	$4, %eax
 316 01bd 89C2     		movl	%eax, %edx
 317 01bf 89C8     		movl	%ecx, %eax
 318 01c1 C1F81F   		sarl	$31, %eax
 319 01c4 29C2     		subl	%eax, %edx
 320 01c6 89D0     		movl	%edx, %eax
 321 01c8 8945EC   		movl	%eax, -20(%ebp)
 322 01cb 8B45EC   		movl	-20(%ebp), %eax
 323 01ce 6BC01E   		imull	$30, %eax, %eax
 324 01d1 29C1     		subl	%eax, %ecx
 325 01d3 89C8     		movl	%ecx, %eax
 326 01d5 8945EC   		movl	%eax, -20(%ebp)
 132:src/pdf417/PDFDetectionResultColumn.c **** 		int codewordRowNumber = codewords[i].m_value._rowNumber;
 327              		.loc 1 132 36
 328 01d8 8B55F4   		movl	-12(%ebp), %edx
 329 01db 89D0     		movl	%edx, %eax
 330 01dd 01C0     		addl	%eax, %eax
 331 01df 01D0     		addl	%edx, %eax
 332 01e1 C1E003   		sall	$3, %eax
 333 01e4 89C2     		movl	%eax, %edx
 334 01e6 8B450C   		movl	12(%ebp), %eax
 335 01e9 01D0     		addl	%edx, %eax
 336              		.loc 1 132 7
 337 01eb 8B4014   		movl	20(%eax), %eax
 338 01ee 8945F0   		movl	%eax, -16(%ebp)
 133:src/pdf417/PDFDetectionResultColumn.c **** 		if (codewordRowNumber > rowCount(barcodeMetadata)) 
 339              		.loc 1 133 27
 340 01f1 8B4510   		movl	16(%ebp), %eax
 341 01f4 890424   		movl	%eax, (%esp)
 342 01f7 E8000000 		call	_rowCount
 342      00
 343              		.loc 1 133 6
 344 01fc 3945F0   		cmpl	%eax, -16(%ebp)
 345 01ff 7E20     		jle	L15
 134:src/pdf417/PDFDetectionResultColumn.c **** 		{
 135:src/pdf417/PDFDetectionResultColumn.c **** 			clear_var(codewords+i);
 346              		.loc 1 135 23
 347 0201 8B55F4   		movl	-12(%ebp), %edx
 348 0204 89D0     		movl	%edx, %eax
 349 0206 01C0     		addl	%eax, %eax
 350 0208 01D0     		addl	%edx, %eax
 351 020a C1E003   		sall	$3, %eax
 352 020d 89C2     		movl	%eax, %edx
 353              		.loc 1 135 4
 354 020f 8B450C   		movl	12(%ebp), %eax
 355 0212 01D0     		addl	%edx, %eax
 356 0214 890424   		movl	%eax, (%esp)
 357 0217 E8FCFEFF 		call	_clear_var
 357      FF
 136:src/pdf417/PDFDetectionResultColumn.c **** 			continue;
GAS LISTING C:\Users\jisu8\AppData\Local\Temp\ccIUpqyy.s 			page 10


 358              		.loc 1 136 4
 359 021c E9100100 		jmp	L14
 359      00
 360              	L15:
 137:src/pdf417/PDFDetectionResultColumn.c **** 		}
 138:src/pdf417/PDFDetectionResultColumn.c **** 
 139:src/pdf417/PDFDetectionResultColumn.c **** 		if (!isLeft) 
 361              		.loc 1 139 6
 362 0221 807DE400 		cmpb	$0, -28(%ebp)
 363 0225 7504     		jne	L16
 140:src/pdf417/PDFDetectionResultColumn.c **** 		{
 141:src/pdf417/PDFDetectionResultColumn.c **** 			codewordRowNumber += 2;
 364              		.loc 1 141 22
 365 0227 8345F002 		addl	$2, -16(%ebp)
 366              	L16:
 142:src/pdf417/PDFDetectionResultColumn.c **** 		}
 143:src/pdf417/PDFDetectionResultColumn.c **** 
 144:src/pdf417/PDFDetectionResultColumn.c **** 		switch (codewordRowNumber % 3) 
 367              		.loc 1 144 29
 368 022b 8B4DF0   		movl	-16(%ebp), %ecx
 369 022e BA565555 		movl	$1431655766, %edx
 369      55
 370 0233 89C8     		movl	%ecx, %eax
 371 0235 F7EA     		imull	%edx
 372 0237 89C8     		movl	%ecx, %eax
 373 0239 C1F81F   		sarl	$31, %eax
 374 023c 29C2     		subl	%eax, %edx
 375 023e 89D0     		movl	%edx, %eax
 376 0240 89C2     		movl	%eax, %edx
 377 0242 01D2     		addl	%edx, %edx
 378 0244 01C2     		addl	%eax, %edx
 379 0246 89C8     		movl	%ecx, %eax
 380 0248 29D0     		subl	%edx, %eax
 381 024a 83F801   		cmpl	$1, %eax
 382 024d 744B     		je	L17
 383 024f 83F802   		cmpl	$2, %eax
 384 0252 0F84A300 		je	L18
 384      0000
 385 0258 85C0     		testl	%eax, %eax
 386 025a 0F85D100 		jne	L14
 386      0000
 145:src/pdf417/PDFDetectionResultColumn.c **** 		{
 146:src/pdf417/PDFDetectionResultColumn.c **** 			case 0:
 147:src/pdf417/PDFDetectionResultColumn.c **** 			if (rowIndicatorValue * 3 + 1 != barcodeMetadata->_rowCountUpperPart) 
 387              		.loc 1 147 26
 388 0260 8B55EC   		movl	-20(%ebp), %edx
 389 0263 89D0     		movl	%edx, %eax
 390 0265 01C0     		addl	%eax, %eax
 391 0267 01D0     		addl	%edx, %eax
 392              		.loc 1 147 30
 393 0269 8D5001   		leal	1(%eax), %edx
 394              		.loc 1 147 52
 395 026c 8B4510   		movl	16(%ebp), %eax
 396 026f 8B4008   		movl	8(%eax), %eax
 397              		.loc 1 147 7
 398 0272 39C2     		cmpl	%eax, %edx
 399 0274 0F84B000 		je	L25
GAS LISTING C:\Users\jisu8\AppData\Local\Temp\ccIUpqyy.s 			page 11


 399      0000
 148:src/pdf417/PDFDetectionResultColumn.c **** 			{
 149:src/pdf417/PDFDetectionResultColumn.c **** 				clear_var(codewords+i);
 400              		.loc 1 149 24
 401 027a 8B55F4   		movl	-12(%ebp), %edx
 402 027d 89D0     		movl	%edx, %eax
 403 027f 01C0     		addl	%eax, %eax
 404 0281 01D0     		addl	%edx, %eax
 405 0283 C1E003   		sall	$3, %eax
 406 0286 89C2     		movl	%eax, %edx
 407              		.loc 1 149 5
 408 0288 8B450C   		movl	12(%ebp), %eax
 409 028b 01D0     		addl	%edx, %eax
 410 028d 890424   		movl	%eax, (%esp)
 411 0290 E883FEFF 		call	_clear_var
 411      FF
 150:src/pdf417/PDFDetectionResultColumn.c **** 			}
 151:src/pdf417/PDFDetectionResultColumn.c **** 			break;
 412              		.loc 1 151 4
 413 0295 E9900000 		jmp	L25
 413      00
 414              	L17:
 152:src/pdf417/PDFDetectionResultColumn.c **** 			case 1:
 153:src/pdf417/PDFDetectionResultColumn.c **** 			if (rowIndicatorValue / 3 != barcodeMetadata->_errorCorrectionLevel ||
 415              		.loc 1 153 26
 416 029a 8B4DEC   		movl	-20(%ebp), %ecx
 417 029d BA565555 		movl	$1431655766, %edx
 417      55
 418 02a2 89C8     		movl	%ecx, %eax
 419 02a4 F7EA     		imull	%edx
 420 02a6 89C8     		movl	%ecx, %eax
 421 02a8 C1F81F   		sarl	$31, %eax
 422 02ab 29C2     		subl	%eax, %edx
 423              		.loc 1 153 48
 424 02ad 8B4510   		movl	16(%ebp), %eax
 425 02b0 8B4004   		movl	4(%eax), %eax
 426              		.loc 1 153 7
 427 02b3 39C2     		cmpl	%eax, %edx
 428 02b5 7527     		jne	L20
 154:src/pdf417/PDFDetectionResultColumn.c **** 				rowIndicatorValue % 3 != barcodeMetadata->_rowCountLowerPart) 
 429              		.loc 1 154 23 discriminator 1
 430 02b7 8B4DEC   		movl	-20(%ebp), %ecx
 431 02ba BA565555 		movl	$1431655766, %edx
 431      55
 432 02bf 89C8     		movl	%ecx, %eax
 433 02c1 F7EA     		imull	%edx
 434 02c3 89C8     		movl	%ecx, %eax
 435 02c5 C1F81F   		sarl	$31, %eax
 436 02c8 29C2     		subl	%eax, %edx
 437 02ca 89D0     		movl	%edx, %eax
 438 02cc 01C0     		addl	%eax, %eax
 439 02ce 01D0     		addl	%edx, %eax
 440 02d0 29C1     		subl	%eax, %ecx
 441 02d2 89CA     		movl	%ecx, %edx
 442              		.loc 1 154 45 discriminator 1
 443 02d4 8B4510   		movl	16(%ebp), %eax
 444 02d7 8B400C   		movl	12(%eax), %eax
GAS LISTING C:\Users\jisu8\AppData\Local\Temp\ccIUpqyy.s 			page 12


 153:src/pdf417/PDFDetectionResultColumn.c **** 				rowIndicatorValue % 3 != barcodeMetadata->_rowCountLowerPart) 
 445              		.loc 1 153 72 discriminator 1
 446 02da 39C2     		cmpl	%eax, %edx
 447 02dc 744F     		je	L26
 448              	L20:
 155:src/pdf417/PDFDetectionResultColumn.c **** 			{
 156:src/pdf417/PDFDetectionResultColumn.c **** 				clear_var(codewords+i);
 449              		.loc 1 156 24
 450 02de 8B55F4   		movl	-12(%ebp), %edx
 451 02e1 89D0     		movl	%edx, %eax
 452 02e3 01C0     		addl	%eax, %eax
 453 02e5 01D0     		addl	%edx, %eax
 454 02e7 C1E003   		sall	$3, %eax
 455 02ea 89C2     		movl	%eax, %edx
 456              		.loc 1 156 5
 457 02ec 8B450C   		movl	12(%ebp), %eax
 458 02ef 01D0     		addl	%edx, %eax
 459 02f1 890424   		movl	%eax, (%esp)
 460 02f4 E81FFEFF 		call	_clear_var
 460      FF
 157:src/pdf417/PDFDetectionResultColumn.c **** 			}
 158:src/pdf417/PDFDetectionResultColumn.c **** 			break;
 461              		.loc 1 158 4
 462 02f9 EB32     		jmp	L26
 463              	L18:
 159:src/pdf417/PDFDetectionResultColumn.c **** 			case 2:
 160:src/pdf417/PDFDetectionResultColumn.c **** 			if (rowIndicatorValue + 1 != barcodeMetadata->_columnCount) 
 464              		.loc 1 160 26
 465 02fb 8B45EC   		movl	-20(%ebp), %eax
 466 02fe 8D5001   		leal	1(%eax), %edx
 467              		.loc 1 160 48
 468 0301 8B4510   		movl	16(%ebp), %eax
 469 0304 8B00     		movl	(%eax), %eax
 470              		.loc 1 160 7
 471 0306 39C2     		cmpl	%eax, %edx
 472 0308 7426     		je	L27
 161:src/pdf417/PDFDetectionResultColumn.c **** 			{
 162:src/pdf417/PDFDetectionResultColumn.c **** 				clear_var(codewords+i);
 473              		.loc 1 162 24
 474 030a 8B55F4   		movl	-12(%ebp), %edx
 475 030d 89D0     		movl	%edx, %eax
 476 030f 01C0     		addl	%eax, %eax
 477 0311 01D0     		addl	%edx, %eax
 478 0313 C1E003   		sall	$3, %eax
 479 0316 89C2     		movl	%eax, %edx
 480              		.loc 1 162 5
 481 0318 8B450C   		movl	12(%ebp), %eax
 482 031b 01D0     		addl	%edx, %eax
 483 031d 890424   		movl	%eax, (%esp)
 484 0320 E8F3FDFF 		call	_clear_var
 484      FF
 163:src/pdf417/PDFDetectionResultColumn.c **** 			}
 164:src/pdf417/PDFDetectionResultColumn.c **** 			break;
 485              		.loc 1 164 4
 486 0325 EB09     		jmp	L27
 487              	L24:
 128:src/pdf417/PDFDetectionResultColumn.c **** 		}
GAS LISTING C:\Users\jisu8\AppData\Local\Temp\ccIUpqyy.s 			page 13


 488              		.loc 1 128 4
 489 0327 90       		nop
 490 0328 EB07     		jmp	L14
 491              	L25:
 151:src/pdf417/PDFDetectionResultColumn.c **** 			case 1:
 492              		.loc 1 151 4
 493 032a 90       		nop
 494 032b EB04     		jmp	L14
 495              	L26:
 158:src/pdf417/PDFDetectionResultColumn.c **** 			case 2:
 496              		.loc 1 158 4
 497 032d 90       		nop
 498 032e EB01     		jmp	L14
 499              	L27:
 500              		.loc 1 164 4
 501 0330 90       		nop
 502              	L14:
 503              	LBE4:
 124:src/pdf417/PDFDetectionResultColumn.c **** 	{
 504              		.loc 1 124 25 discriminator 2
 505 0331 8345F401 		addl	$1, -12(%ebp)
 506              	L12:
 124:src/pdf417/PDFDetectionResultColumn.c **** 	{
 507              		.loc 1 124 2 discriminator 1
 508 0335 8B45F4   		movl	-12(%ebp), %eax
 509 0338 3B4514   		cmpl	20(%ebp), %eax
 510 033b 0F8C39FE 		jl	L23
 510      FFFF
 511              	LBE3:
 165:src/pdf417/PDFDetectionResultColumn.c **** 		}
 166:src/pdf417/PDFDetectionResultColumn.c **** 	}
 167:src/pdf417/PDFDetectionResultColumn.c **** 
 168:src/pdf417/PDFDetectionResultColumn.c **** }
 512              		.loc 1 168 1
 513 0341 90       		nop
 514 0342 C9       		leave
 515              	LCFI17:
 516              		.cfi_restore 5
 517              		.cfi_def_cfa 4, 4
 518 0343 C3       		ret
 519              		.cfi_endproc
 520              	LFE9:
 521              		.section .rdata,"dr"
 522              		.align 4
 523              	LC2:
 524 003c 44657465 		.ascii "DetectionResultColumn::adjustIncompleteIndicatorColumnRowNumbers: \0"
 524      6374696F 
 524      6E526573 
 524      756C7443 
 524      6F6C756D 
 525              		.text
 526              		.globl	_adjustIncompleteIndicatorColumnRowNumbers
 528              	_adjustIncompleteIndicatorColumnRowNumbers:
 529              	LFB10:
 169:src/pdf417/PDFDetectionResultColumn.c **** #if 0
 170:src/pdf417/PDFDetectionResultColumn.c **** // TODO implement properly
 171:src/pdf417/PDFDetectionResultColumn.c **** // TODO maybe we should add missing codewords to store the correct row number to make
GAS LISTING C:\Users\jisu8\AppData\Local\Temp\ccIUpqyy.s 			page 14


 172:src/pdf417/PDFDetectionResultColumn.c **** // finding row numbers for other columns easier
 173:src/pdf417/PDFDetectionResultColumn.c **** // use row height count to make detection of invalid row numbers more reliable
 174:src/pdf417/PDFDetectionResultColumn.c **** void
 175:src/pdf417/PDFDetectionResultColumn.c **** DetectionResultColumn::adjustCompleteIndicatorColumnRowNumbers(const BarcodeMetadata& barcodeMetada
 176:src/pdf417/PDFDetectionResultColumn.c **** {
 177:src/pdf417/PDFDetectionResultColumn.c **** #ifdef HK_DEBUG
 178:src/pdf417/PDFDetectionResultColumn.c **** 	printf("DetectionResultColumn::adjustCompleteIndicatorColumnRowNumbers: \n");
 179:src/pdf417/PDFDetectionResultColumn.c **** #endif
 180:src/pdf417/PDFDetectionResultColumn.c **** 	
 181:src/pdf417/PDFDetectionResultColumn.c **** 	if (!isRowIndicator())
 182:src/pdf417/PDFDetectionResultColumn.c **** 	{
 183:src/pdf417/PDFDetectionResultColumn.c **** 		return;
 184:src/pdf417/PDFDetectionResultColumn.c **** 	}
 185:src/pdf417/PDFDetectionResultColumn.c **** 
 186:src/pdf417/PDFDetectionResultColumn.c **** 	auto& codewords = allCodewords();
 187:src/pdf417/PDFDetectionResultColumn.c **** 	setRowNumbers();
 188:src/pdf417/PDFDetectionResultColumn.c **** 	RemoveIncorrectCodewords(isLeftRowIndicator(), codewords, barcodeMetadata);
 189:src/pdf417/PDFDetectionResultColumn.c **** 	const auto& bb = boundingBox();
 190:src/pdf417/PDFDetectionResultColumn.c **** 	auto top = isLeftRowIndicator() ? bb.topLeft() : bb.topRight();
 191:src/pdf417/PDFDetectionResultColumn.c **** 	auto bottom = isLeftRowIndicator() ? bb.bottomLeft() : bb.bottomRight();
 192:src/pdf417/PDFDetectionResultColumn.c **** 	int firstRow = imageRowToCodewordIndex((int)top.value().y());
 193:src/pdf417/PDFDetectionResultColumn.c **** 	int lastRow = imageRowToCodewordIndex((int)bottom.value().y());
 194:src/pdf417/PDFDetectionResultColumn.c **** 	// We need to be careful using the average row height. Barcode could be skewed so that we have sma
 195:src/pdf417/PDFDetectionResultColumn.c **** 	// taller rows
 196:src/pdf417/PDFDetectionResultColumn.c **** 	//float averageRowHeight = (lastRow - firstRow) / (float)barcodeMetadata.rowCount();
 197:src/pdf417/PDFDetectionResultColumn.c **** 	int barcodeRow = -1;
 198:src/pdf417/PDFDetectionResultColumn.c **** 	int maxRowHeight = 1;
 199:src/pdf417/PDFDetectionResultColumn.c **** 	int currentRowHeight = 0;
 200:src/pdf417/PDFDetectionResultColumn.c **** 	int increment = 1;
 201:src/pdf417/PDFDetectionResultColumn.c **** 	for (int codewordsRow = firstRow; codewordsRow < lastRow; codewordsRow++) 
 202:src/pdf417/PDFDetectionResultColumn.c **** 	{
 203:src/pdf417/PDFDetectionResultColumn.c **** 		if (codewords[codewordsRow] == nullptr) 
 204:src/pdf417/PDFDetectionResultColumn.c **** 		{
 205:src/pdf417/PDFDetectionResultColumn.c **** 			continue;
 206:src/pdf417/PDFDetectionResultColumn.c **** 		}
 207:src/pdf417/PDFDetectionResultColumn.c **** 
 208:src/pdf417/PDFDetectionResultColumn.c **** 		Codeword codeword = codewords[codewordsRow];
 209:src/pdf417/PDFDetectionResultColumn.c **** 		if (barcodeRow == -1 && codeword.rowNumber() == barcodeMetadata.rowCount() - 1) 
 210:src/pdf417/PDFDetectionResultColumn.c **** 		{
 211:src/pdf417/PDFDetectionResultColumn.c **** 			increment = -1;
 212:src/pdf417/PDFDetectionResultColumn.c **** 			barcodeRow = barcodeMetadata.rowCount();
 213:src/pdf417/PDFDetectionResultColumn.c **** 		}
 214:src/pdf417/PDFDetectionResultColumn.c **** 		//      float expectedRowNumber = (codewordsRow - firstRow) / averageRowHeight;
 215:src/pdf417/PDFDetectionResultColumn.c **** 		//      if (Math.abs(codeword.getRowNumber() - expectedRowNumber) > 2) {
 216:src/pdf417/PDFDetectionResultColumn.c **** 		//        SimpleLog.log(LEVEL.WARNING,
 217:src/pdf417/PDFDetectionResultColumn.c **** 		//            "Removing codeword, rowNumberSkew too high, codeword[" + codewordsRow + "]: Expecte
 218:src/pdf417/PDFDetectionResultColumn.c **** 		//                expectedRowNumber + ", RealRow: " + codeword.getRowNumber() + ", value: " + cod
 219:src/pdf417/PDFDetectionResultColumn.c **** 		//        codewords[codewordsRow] = null;
 220:src/pdf417/PDFDetectionResultColumn.c **** 		//      }
 221:src/pdf417/PDFDetectionResultColumn.c **** 
 222:src/pdf417/PDFDetectionResultColumn.c **** 		int rowDifference = codeword.rowNumber() - barcodeRow;
 223:src/pdf417/PDFDetectionResultColumn.c **** 
 224:src/pdf417/PDFDetectionResultColumn.c **** 		if (rowDifference == 0) 
 225:src/pdf417/PDFDetectionResultColumn.c **** 		{
 226:src/pdf417/PDFDetectionResultColumn.c **** 			currentRowHeight++;
 227:src/pdf417/PDFDetectionResultColumn.c **** 		}
 228:src/pdf417/PDFDetectionResultColumn.c **** 		else 
GAS LISTING C:\Users\jisu8\AppData\Local\Temp\ccIUpqyy.s 			page 15


 229:src/pdf417/PDFDetectionResultColumn.c **** 		if (rowDifference == increment) 
 230:src/pdf417/PDFDetectionResultColumn.c **** 		{
 231:src/pdf417/PDFDetectionResultColumn.c **** 			maxRowHeight = std::max(maxRowHeight, currentRowHeight);
 232:src/pdf417/PDFDetectionResultColumn.c **** 			currentRowHeight = 1;
 233:src/pdf417/PDFDetectionResultColumn.c **** 			barcodeRow = codeword.rowNumber();
 234:src/pdf417/PDFDetectionResultColumn.c **** 		}
 235:src/pdf417/PDFDetectionResultColumn.c **** 		else 
 236:src/pdf417/PDFDetectionResultColumn.c **** 		if (rowDifference < 0 || codeword.rowNumber() >= barcodeMetadata.rowCount() ||
 237:src/pdf417/PDFDetectionResultColumn.c **** 			rowDifference > codewordsRow) 
 238:src/pdf417/PDFDetectionResultColumn.c **** 		{
 239:src/pdf417/PDFDetectionResultColumn.c **** 			codewords[codewordsRow] = nullptr;
 240:src/pdf417/PDFDetectionResultColumn.c **** 		}
 241:src/pdf417/PDFDetectionResultColumn.c **** 		else 
 242:src/pdf417/PDFDetectionResultColumn.c **** 		{
 243:src/pdf417/PDFDetectionResultColumn.c **** 			int checkedRows;
 244:src/pdf417/PDFDetectionResultColumn.c **** 			if (maxRowHeight > 2) 
 245:src/pdf417/PDFDetectionResultColumn.c **** 			{
 246:src/pdf417/PDFDetectionResultColumn.c **** 				checkedRows = (maxRowHeight - 2) * rowDifference;
 247:src/pdf417/PDFDetectionResultColumn.c **** 			}
 248:src/pdf417/PDFDetectionResultColumn.c **** 			else 
 249:src/pdf417/PDFDetectionResultColumn.c **** 			{
 250:src/pdf417/PDFDetectionResultColumn.c **** 				checkedRows = rowDifference;
 251:src/pdf417/PDFDetectionResultColumn.c **** 			}
 252:src/pdf417/PDFDetectionResultColumn.c **** 
 253:src/pdf417/PDFDetectionResultColumn.c **** 			bool closePreviousCodewordFound = checkedRows >= codewordsRow;
 254:src/pdf417/PDFDetectionResultColumn.c **** 			for (int i = 1; i <= checkedRows && !closePreviousCodewordFound; i++) 
 255:src/pdf417/PDFDetectionResultColumn.c **** 			{
 256:src/pdf417/PDFDetectionResultColumn.c **** 				// there must be (height * rowDifference) number of codewords missing. For now we assume height
 257:src/pdf417/PDFDetectionResultColumn.c **** 				// This should hopefully get rid of most problems already.
 258:src/pdf417/PDFDetectionResultColumn.c **** 				closePreviousCodewordFound = codewords[codewordsRow - i] != nullptr;
 259:src/pdf417/PDFDetectionResultColumn.c **** 			}
 260:src/pdf417/PDFDetectionResultColumn.c **** 
 261:src/pdf417/PDFDetectionResultColumn.c **** 			if (closePreviousCodewordFound) 
 262:src/pdf417/PDFDetectionResultColumn.c **** 			{
 263:src/pdf417/PDFDetectionResultColumn.c **** 				codewords[codewordsRow] = nullptr;
 264:src/pdf417/PDFDetectionResultColumn.c **** 			}
 265:src/pdf417/PDFDetectionResultColumn.c **** 			else 
 266:src/pdf417/PDFDetectionResultColumn.c **** 			{
 267:src/pdf417/PDFDetectionResultColumn.c **** 				barcodeRow = codeword.rowNumber();
 268:src/pdf417/PDFDetectionResultColumn.c **** 				currentRowHeight = 1;
 269:src/pdf417/PDFDetectionResultColumn.c **** 			}
 270:src/pdf417/PDFDetectionResultColumn.c **** 		}
 271:src/pdf417/PDFDetectionResultColumn.c **** 	}
 272:src/pdf417/PDFDetectionResultColumn.c **** 	//return static_cast<int>(averageRowHeight + 0.5);
 273:src/pdf417/PDFDetectionResultColumn.c **** }
 274:src/pdf417/PDFDetectionResultColumn.c **** 
 275:src/pdf417/PDFDetectionResultColumn.c **** #endif
 276:src/pdf417/PDFDetectionResultColumn.c **** // TODO maybe we should add missing codewords to store the correct row number to make
 277:src/pdf417/PDFDetectionResultColumn.c **** // finding row numbers for other columns easier
 278:src/pdf417/PDFDetectionResultColumn.c **** // use row height count to make detection of invalid row numbers more reliable
 279:src/pdf417/PDFDetectionResultColumn.c **** void adjustIncompleteIndicatorColumnRowNumbers(DetectionResultColumn_t * rowIndicatorColumn , const
 280:src/pdf417/PDFDetectionResultColumn.c **** {
 530              		.loc 1 280 1
 531              		.cfi_startproc
 532 0344 55       		pushl	%ebp
 533              	LCFI18:
 534              		.cfi_def_cfa_offset 8
GAS LISTING C:\Users\jisu8\AppData\Local\Temp\ccIUpqyy.s 			page 16


 535              		.cfi_offset 5, -8
 536 0345 89E5     		movl	%esp, %ebp
 537              	LCFI19:
 538              		.cfi_def_cfa_register 5
 539 0347 57       		pushl	%edi
 540 0348 56       		pushl	%esi
 541 0349 53       		pushl	%ebx
 542 034a 81ECBC00 		subl	$188, %esp
 542      0000
 543              		.cfi_offset 7, -12
 544              		.cfi_offset 6, -16
 545              		.cfi_offset 3, -20
 281:src/pdf417/PDFDetectionResultColumn.c **** 
 282:src/pdf417/PDFDetectionResultColumn.c **** 	printf("DetectionResultColumn::adjustIncompleteIndicatorColumnRowNumbers: \n");
 546              		.loc 1 282 2
 547 0350 C704243C 		movl	$LC2, (%esp)
 547      000000
 548 0357 E8000000 		call	_puts
 548      00
 283:src/pdf417/PDFDetectionResultColumn.c **** 	
 284:src/pdf417/PDFDetectionResultColumn.c **** 	if (!isRowIndicator(rowIndicatorColumn))
 549              		.loc 1 284 7
 550 035c 8B4508   		movl	8(%ebp), %eax
 551 035f 890424   		movl	%eax, (%esp)
 552 0362 E88AFDFF 		call	_isRowIndicator
 552      FF
 553              		.loc 1 284 5
 554 0367 84C0     		testb	%al, %al
 555 0369 0F843402 		je	L42
 555      0000
 285:src/pdf417/PDFDetectionResultColumn.c **** 	{
 286:src/pdf417/PDFDetectionResultColumn.c **** 		return;
 287:src/pdf417/PDFDetectionResultColumn.c **** 	}
 288:src/pdf417/PDFDetectionResultColumn.c **** 
 289:src/pdf417/PDFDetectionResultColumn.c **** 	const BoundingBox_t bb = rowIndicatorColumn->m_value._boundingBox;
 556              		.loc 1 289 22
 557 036f 8B5508   		movl	8(%ebp), %edx
 558 0372 8D857CFF 		leal	-132(%ebp), %eax
 558      FFFF
 559 0378 83C204   		addl	$4, %edx
 560 037b B9130000 		movl	$19, %ecx
 560      00
 561 0380 89C7     		movl	%eax, %edi
 562 0382 89D6     		movl	%edx, %esi
 563 0384 F3A5     		rep movsl
 290:src/pdf417/PDFDetectionResultColumn.c **** 	ResultPoint_t top = isLeftRowIndicator(rowIndicatorColumn) ? topLeft(&bb) : topRight(&bb);
 564              		.loc 1 290 22
 565 0386 8B4508   		movl	8(%ebp), %eax
 566 0389 890424   		movl	%eax, (%esp)
 567 038c E873FDFF 		call	_isLeftRowIndicator
 567      FF
 568              		.loc 1 290 16
 569 0391 84C0     		testb	%al, %al
 570 0393 741A     		je	L31
 571              		.loc 1 290 63 discriminator 1
 572 0395 8D8570FF 		leal	-144(%ebp), %eax
 572      FFFF
GAS LISTING C:\Users\jisu8\AppData\Local\Temp\ccIUpqyy.s 			page 17


 573 039b 8D957CFF 		leal	-132(%ebp), %edx
 573      FFFF
 574 03a1 89542404 		movl	%edx, 4(%esp)
 575 03a5 890424   		movl	%eax, (%esp)
 576 03a8 E8000000 		call	_topLeft
 576      00
 577 03ad EB18     		jmp	L32
 578              	L31:
 579              		.loc 1 290 78 discriminator 2
 580 03af 8D8570FF 		leal	-144(%ebp), %eax
 580      FFFF
 581 03b5 8D957CFF 		leal	-132(%ebp), %edx
 581      FFFF
 582 03bb 89542404 		movl	%edx, 4(%esp)
 583 03bf 890424   		movl	%eax, (%esp)
 584 03c2 E8000000 		call	_topRight
 584      00
 585              	L32:
 291:src/pdf417/PDFDetectionResultColumn.c **** 	ResultPoint_t bottom = isLeftRowIndicator(rowIndicatorColumn) ? bottomLeft(&bb) : bottomRight(&bb)
 586              		.loc 1 291 25
 587 03c7 8B4508   		movl	8(%ebp), %eax
 588 03ca 890424   		movl	%eax, (%esp)
 589 03cd E832FDFF 		call	_isLeftRowIndicator
 589      FF
 590              		.loc 1 291 16
 591 03d2 84C0     		testb	%al, %al
 592 03d4 741A     		je	L33
 593              		.loc 1 291 66 discriminator 1
 594 03d6 8D8564FF 		leal	-156(%ebp), %eax
 594      FFFF
 595 03dc 8D957CFF 		leal	-132(%ebp), %edx
 595      FFFF
 596 03e2 89542404 		movl	%edx, 4(%esp)
 597 03e6 890424   		movl	%eax, (%esp)
 598 03e9 E8000000 		call	_bottomLeft
 598      00
 599 03ee EB18     		jmp	L34
 600              	L33:
 601              		.loc 1 291 84 discriminator 2
 602 03f0 8D8564FF 		leal	-156(%ebp), %eax
 602      FFFF
 603 03f6 8D957CFF 		leal	-132(%ebp), %edx
 603      FFFF
 604 03fc 89542404 		movl	%edx, 4(%esp)
 605 0400 890424   		movl	%eax, (%esp)
 606 0403 E8000000 		call	_bottomRight
 606      00
 607              	L34:
 292:src/pdf417/PDFDetectionResultColumn.c **** 	int firstRow = (int)top.m_value.y - bb.m_value._minY;
 608              		.loc 1 292 33
 609 0408 D98578FF 		flds	-136(%ebp)
 609      FFFF
 610              		.loc 1 292 17
 611 040e D9BD56FF 		fnstcw	-170(%ebp)
 611      FFFF
 612 0414 0FB78556 		movzwl	-170(%ebp), %eax
 612      FFFFFF
GAS LISTING C:\Users\jisu8\AppData\Local\Temp\ccIUpqyy.s 			page 18


 613 041b 80CC0C   		orb	$12, %ah
 614 041e 66898554 		movw	%ax, -172(%ebp)
 614      FFFFFF
 615 0425 D9AD54FF 		fldcw	-172(%ebp)
 615      FFFF
 616 042b DB9D50FF 		fistpl	-176(%ebp)
 616      FFFF
 617 0431 D9AD56FF 		fldcw	-170(%ebp)
 617      FFFF
 618 0437 8B9550FF 		movl	-176(%ebp), %edx
 618      FFFF
 619              		.loc 1 292 48
 620 043d 8B45C0   		movl	-64(%ebp), %eax
 621              		.loc 1 292 6
 622 0440 29C2     		subl	%eax, %edx
 623 0442 89D0     		movl	%edx, %eax
 624 0444 8945D4   		movl	%eax, -44(%ebp)
 293:src/pdf417/PDFDetectionResultColumn.c **** 	int lastRow = (int)bottom.m_value.y - bb.m_value._minY;
 625              		.loc 1 293 35
 626 0447 D9856CFF 		flds	-148(%ebp)
 626      FFFF
 627              		.loc 1 293 16
 628 044d D9AD54FF 		fldcw	-172(%ebp)
 628      FFFF
 629 0453 DB9D50FF 		fistpl	-176(%ebp)
 629      FFFF
 630 0459 D9AD56FF 		fldcw	-170(%ebp)
 630      FFFF
 631 045f 8B9550FF 		movl	-176(%ebp), %edx
 631      FFFF
 632              		.loc 1 293 50
 633 0465 8B45C0   		movl	-64(%ebp), %eax
 634              		.loc 1 293 6
 635 0468 29C2     		subl	%eax, %edx
 636 046a 89D0     		movl	%edx, %eax
 637 046c 8945D0   		movl	%eax, -48(%ebp)
 294:src/pdf417/PDFDetectionResultColumn.c **** 	Codeword_t * codewords = rowIndicatorColumn->m_value._codewords;
 638              		.loc 1 294 15
 639 046f 8B4508   		movl	8(%ebp), %eax
 640 0472 83C050   		addl	$80, %eax
 641 0475 8945CC   		movl	%eax, -52(%ebp)
 295:src/pdf417/PDFDetectionResultColumn.c **** 	int barcodeRow = -1;
 642              		.loc 1 295 6
 643 0478 C745E4FF 		movl	$-1, -28(%ebp)
 643      FFFFFF
 296:src/pdf417/PDFDetectionResultColumn.c **** 	int maxRowHeight = 1;
 644              		.loc 1 296 6
 645 047f C745E001 		movl	$1, -32(%ebp)
 645      000000
 297:src/pdf417/PDFDetectionResultColumn.c **** 	int currentRowHeight = 0;
 646              		.loc 1 297 6
 647 0486 C745DC00 		movl	$0, -36(%ebp)
 647      000000
 648              	LBB5:
 298:src/pdf417/PDFDetectionResultColumn.c **** 	for (int codewordsRow = firstRow; codewordsRow < lastRow; codewordsRow++) 
 649              		.loc 1 298 11
 650 048d 8B45D4   		movl	-44(%ebp), %eax
GAS LISTING C:\Users\jisu8\AppData\Local\Temp\ccIUpqyy.s 			page 19


 651 0490 8945D8   		movl	%eax, -40(%ebp)
 652              		.loc 1 298 2
 653 0493 E9FD0000 		jmp	L35
 653      00
 654              	L41:
 655              	LBB6:
 299:src/pdf417/PDFDetectionResultColumn.c **** 	{
 300:src/pdf417/PDFDetectionResultColumn.c **** 		if (codewords[codewordsRow].m_hasValue == 0) 
 656              		.loc 1 300 16
 657 0498 8B55D8   		movl	-40(%ebp), %edx
 658 049b 89D0     		movl	%edx, %eax
 659 049d 01C0     		addl	%eax, %eax
 660 049f 01D0     		addl	%edx, %eax
 661 04a1 C1E003   		sall	$3, %eax
 662 04a4 89C2     		movl	%eax, %edx
 663 04a6 8B45CC   		movl	-52(%ebp), %eax
 664 04a9 01D0     		addl	%edx, %eax
 665              		.loc 1 300 30
 666 04ab 0FB600   		movzbl	(%eax), %eax
 667              		.loc 1 300 6
 668 04ae 84C0     		testb	%al, %al
 669 04b0 0F84DA00 		je	L43
 669      0000
 301:src/pdf417/PDFDetectionResultColumn.c **** 		{
 302:src/pdf417/PDFDetectionResultColumn.c **** 			continue;
 303:src/pdf417/PDFDetectionResultColumn.c **** 		}
 304:src/pdf417/PDFDetectionResultColumn.c **** 
 305:src/pdf417/PDFDetectionResultColumn.c **** 		setRowNumberAsRowIndicatorColumn(codewords+codewordsRow);
 670              		.loc 1 305 45
 671 04b6 8B55D8   		movl	-40(%ebp), %edx
 672 04b9 89D0     		movl	%edx, %eax
 673 04bb 01C0     		addl	%eax, %eax
 674 04bd 01D0     		addl	%edx, %eax
 675 04bf C1E003   		sall	$3, %eax
 676 04c2 89C2     		movl	%eax, %edx
 677              		.loc 1 305 3
 678 04c4 8B45CC   		movl	-52(%ebp), %eax
 679 04c7 01D0     		addl	%edx, %eax
 680 04c9 890424   		movl	%eax, (%esp)
 681 04cc E8430200 		call	_setRowNumberAsRowIndicatorColumn
 681      00
 306:src/pdf417/PDFDetectionResultColumn.c **** 
 307:src/pdf417/PDFDetectionResultColumn.c **** 		int rowDifference = codewords[codewordsRow].m_value._rowNumber - barcodeRow;
 682              		.loc 1 307 32
 683 04d1 8B55D8   		movl	-40(%ebp), %edx
 684 04d4 89D0     		movl	%edx, %eax
 685 04d6 01C0     		addl	%eax, %eax
 686 04d8 01D0     		addl	%edx, %eax
 687 04da C1E003   		sall	$3, %eax
 688 04dd 89C2     		movl	%eax, %edx
 689 04df 8B45CC   		movl	-52(%ebp), %eax
 690 04e2 01D0     		addl	%edx, %eax
 691              		.loc 1 307 54
 692 04e4 8B4014   		movl	20(%eax), %eax
 693              		.loc 1 307 7
 694 04e7 2B45E4   		subl	-28(%ebp), %eax
 695 04ea 8945C8   		movl	%eax, -56(%ebp)
GAS LISTING C:\Users\jisu8\AppData\Local\Temp\ccIUpqyy.s 			page 20


 308:src/pdf417/PDFDetectionResultColumn.c **** 
 309:src/pdf417/PDFDetectionResultColumn.c **** 		// TODO improve handling with case where first row indicator doesn't start with 0
 310:src/pdf417/PDFDetectionResultColumn.c **** 
 311:src/pdf417/PDFDetectionResultColumn.c **** 		if (rowDifference == 0) 
 696              		.loc 1 311 6
 697 04ed 837DC800 		cmpl	$0, -56(%ebp)
 698 04f1 7509     		jne	L38
 312:src/pdf417/PDFDetectionResultColumn.c **** 		{
 313:src/pdf417/PDFDetectionResultColumn.c **** 			currentRowHeight++;
 699              		.loc 1 313 20
 700 04f3 8345DC01 		addl	$1, -36(%ebp)
 701 04f7 E9950000 		jmp	L37
 701      00
 702              	L38:
 314:src/pdf417/PDFDetectionResultColumn.c **** 		}
 315:src/pdf417/PDFDetectionResultColumn.c **** 		else if (rowDifference == 1) 
 703              		.loc 1 315 11
 704 04fc 837DC801 		cmpl	$1, -56(%ebp)
 705 0500 752F     		jne	L39
 316:src/pdf417/PDFDetectionResultColumn.c **** 		{
 317:src/pdf417/PDFDetectionResultColumn.c **** 			maxRowHeight = __max(maxRowHeight, currentRowHeight);
 706              		.loc 1 317 17
 707 0502 8B45E0   		movl	-32(%ebp), %eax
 708 0505 3945DC   		cmpl	%eax, -36(%ebp)
 709 0508 0F4D45DC 		cmovge	-36(%ebp), %eax
 710 050c 8945E0   		movl	%eax, -32(%ebp)
 318:src/pdf417/PDFDetectionResultColumn.c **** 			currentRowHeight = 1;
 711              		.loc 1 318 21
 712 050f C745DC01 		movl	$1, -36(%ebp)
 712      000000
 319:src/pdf417/PDFDetectionResultColumn.c **** 			barcodeRow = codewords[codewordsRow].m_value._rowNumber;
 713              		.loc 1 319 26
 714 0516 8B55D8   		movl	-40(%ebp), %edx
 715 0519 89D0     		movl	%edx, %eax
 716 051b 01C0     		addl	%eax, %eax
 717 051d 01D0     		addl	%edx, %eax
 718 051f C1E003   		sall	$3, %eax
 719 0522 89C2     		movl	%eax, %edx
 720 0524 8B45CC   		movl	-52(%ebp), %eax
 721 0527 01D0     		addl	%edx, %eax
 722              		.loc 1 319 15
 723 0529 8B4014   		movl	20(%eax), %eax
 724 052c 8945E4   		movl	%eax, -28(%ebp)
 725 052f EB60     		jmp	L37
 726              	L39:
 320:src/pdf417/PDFDetectionResultColumn.c **** 		}
 321:src/pdf417/PDFDetectionResultColumn.c **** 		else if (codewords[codewordsRow].m_value._rowNumber >= rowCount(barcodeMetadata)) 
 727              		.loc 1 321 21
 728 0531 8B55D8   		movl	-40(%ebp), %edx
 729 0534 89D0     		movl	%edx, %eax
 730 0536 01C0     		addl	%eax, %eax
 731 0538 01D0     		addl	%edx, %eax
 732 053a C1E003   		sall	$3, %eax
 733 053d 89C2     		movl	%eax, %edx
 734 053f 8B45CC   		movl	-52(%ebp), %eax
 735 0542 01D0     		addl	%edx, %eax
 736              		.loc 1 321 43
GAS LISTING C:\Users\jisu8\AppData\Local\Temp\ccIUpqyy.s 			page 21


 737 0544 8B5814   		movl	20(%eax), %ebx
 738              		.loc 1 321 58
 739 0547 8B450C   		movl	12(%ebp), %eax
 740 054a 890424   		movl	%eax, (%esp)
 741 054d E8000000 		call	_rowCount
 741      00
 742              		.loc 1 321 11
 743 0552 39C3     		cmpl	%eax, %ebx
 744 0554 7C18     		jl	L40
 322:src/pdf417/PDFDetectionResultColumn.c **** 		{
 323:src/pdf417/PDFDetectionResultColumn.c **** 			codewords[codewordsRow].m_hasValue = 0;
 745              		.loc 1 323 13
 746 0556 8B55D8   		movl	-40(%ebp), %edx
 747 0559 89D0     		movl	%edx, %eax
 748 055b 01C0     		addl	%eax, %eax
 749 055d 01D0     		addl	%edx, %eax
 750 055f C1E003   		sall	$3, %eax
 751 0562 89C2     		movl	%eax, %edx
 752 0564 8B45CC   		movl	-52(%ebp), %eax
 753 0567 01D0     		addl	%edx, %eax
 754              		.loc 1 323 39
 755 0569 C60000   		movb	$0, (%eax)
 756 056c EB23     		jmp	L37
 757              	L40:
 324:src/pdf417/PDFDetectionResultColumn.c **** 		}
 325:src/pdf417/PDFDetectionResultColumn.c **** 		else 
 326:src/pdf417/PDFDetectionResultColumn.c **** 		{
 327:src/pdf417/PDFDetectionResultColumn.c **** 			barcodeRow = codewords[codewordsRow].m_value._rowNumber;
 758              		.loc 1 327 26
 759 056e 8B55D8   		movl	-40(%ebp), %edx
 760 0571 89D0     		movl	%edx, %eax
 761 0573 01C0     		addl	%eax, %eax
 762 0575 01D0     		addl	%edx, %eax
 763 0577 C1E003   		sall	$3, %eax
 764 057a 89C2     		movl	%eax, %edx
 765 057c 8B45CC   		movl	-52(%ebp), %eax
 766 057f 01D0     		addl	%edx, %eax
 767              		.loc 1 327 15
 768 0581 8B4014   		movl	20(%eax), %eax
 769 0584 8945E4   		movl	%eax, -28(%ebp)
 328:src/pdf417/PDFDetectionResultColumn.c **** 			currentRowHeight = 1;
 770              		.loc 1 328 21
 771 0587 C745DC01 		movl	$1, -36(%ebp)
 771      000000
 772 058e EB01     		jmp	L37
 773              	L43:
 302:src/pdf417/PDFDetectionResultColumn.c **** 		}
 774              		.loc 1 302 4
 775 0590 90       		nop
 776              	L37:
 777              	LBE6:
 298:src/pdf417/PDFDetectionResultColumn.c **** 	{
 778              		.loc 1 298 72 discriminator 2
 779 0591 8345D801 		addl	$1, -40(%ebp)
 780              	L35:
 298:src/pdf417/PDFDetectionResultColumn.c **** 	{
 781              		.loc 1 298 2 discriminator 1
GAS LISTING C:\Users\jisu8\AppData\Local\Temp\ccIUpqyy.s 			page 22


 782 0595 8B45D8   		movl	-40(%ebp), %eax
 783 0598 3B45D0   		cmpl	-48(%ebp), %eax
 784 059b 0F8CF7FE 		jl	L41
 784      FFFF
 785 05a1 EB01     		jmp	L44
 786              	L42:
 787              	LBE5:
 286:src/pdf417/PDFDetectionResultColumn.c **** 	}
 788              		.loc 1 286 3
 789 05a3 90       		nop
 790              	L44:
 329:src/pdf417/PDFDetectionResultColumn.c **** 		}
 330:src/pdf417/PDFDetectionResultColumn.c **** 	}
 331:src/pdf417/PDFDetectionResultColumn.c **** }
 791              		.loc 1 331 1
 792 05a4 81C4BC00 		addl	$188, %esp
 792      0000
 793 05aa 5B       		popl	%ebx
 794              		.cfi_restore 3
 795 05ab 5E       		popl	%esi
 796              		.cfi_restore 6
 797 05ac 5F       		popl	%edi
 798              		.cfi_restore 7
 799 05ad 5D       		popl	%ebp
 800              	LCFI20:
 801              		.cfi_restore 5
 802              		.cfi_def_cfa 4, 4
 803 05ae C3       		ret
 804              		.cfi_endproc
 805              	LFE10:
 806              		.section .rdata,"dr"
 807 007f 00       		.align 4
 808              	LC4:
 809 0080 44657465 		.ascii "DetectionResultColumn::getRowHeights : \0"
 809      6374696F 
 809      6E526573 
 809      756C7443 
 809      6F6C756D 
 810              		.text
 811              		.globl	_getRowHeights
 813              	_getRowHeights:
 814              	LFB11:
 332:src/pdf417/PDFDetectionResultColumn.c **** 
 333:src/pdf417/PDFDetectionResultColumn.c **** // This is example of bad design, a getter should not modify object's state
 334:src/pdf417/PDFDetectionResultColumn.c **** uint8_t getRowHeights(DetectionResultColumn_t * rowIndicatorColumn,int * result,int length,int * si
 335:src/pdf417/PDFDetectionResultColumn.c **** {
 815              		.loc 1 335 1
 816              		.cfi_startproc
 817 05af 55       		pushl	%ebp
 818              	LCFI21:
 819              		.cfi_def_cfa_offset 8
 820              		.cfi_offset 5, -8
 821 05b0 89E5     		movl	%esp, %ebp
 822              	LCFI22:
 823              		.cfi_def_cfa_register 5
 824 05b2 53       		pushl	%ebx
 825 05b3 83EC44   		subl	$68, %esp
GAS LISTING C:\Users\jisu8\AppData\Local\Temp\ccIUpqyy.s 			page 23


 826              		.cfi_offset 3, -12
 827              		.loc 1 335 1
 828 05b6 89E0     		movl	%esp, %eax
 829 05b8 89C3     		movl	%eax, %ebx
 336:src/pdf417/PDFDetectionResultColumn.c **** 
 337:src/pdf417/PDFDetectionResultColumn.c **** 	printf("DetectionResultColumn::getRowHeights : \n");
 830              		.loc 1 337 2
 831 05ba C7042480 		movl	$LC4, (%esp)
 831      000000
 832 05c1 E8000000 		call	_puts
 832      00
 338:src/pdf417/PDFDetectionResultColumn.c **** 
 339:src/pdf417/PDFDetectionResultColumn.c **** 	BarcodeMetadata_t barcodeMetadata;
 340:src/pdf417/PDFDetectionResultColumn.c **** 
 341:src/pdf417/PDFDetectionResultColumn.c **** 	if (!getBarcodeMetadata(rowIndicatorColumn,&barcodeMetadata,length)) 
 833              		.loc 1 341 7
 834 05c6 8B4510   		movl	16(%ebp), %eax
 835 05c9 89442408 		movl	%eax, 8(%esp)
 836 05cd 8D45C8   		leal	-56(%ebp), %eax
 837 05d0 89442404 		movl	%eax, 4(%esp)
 838 05d4 8B4508   		movl	8(%ebp), %eax
 839 05d7 890424   		movl	%eax, (%esp)
 840 05da E8830100 		call	_getBarcodeMetadata
 840      00
 841              		.loc 1 341 5
 842 05df 84C0     		testb	%al, %al
 843 05e1 750A     		jne	L46
 342:src/pdf417/PDFDetectionResultColumn.c **** 	{
 343:src/pdf417/PDFDetectionResultColumn.c **** 		return 0;
 844              		.loc 1 343 10
 845 05e3 B8000000 		movl	$0, %eax
 845      00
 846 05e8 E9200100 		jmp	L47
 846      00
 847              	L46:
 344:src/pdf417/PDFDetectionResultColumn.c **** 	}
 345:src/pdf417/PDFDetectionResultColumn.c **** 
 346:src/pdf417/PDFDetectionResultColumn.c **** 	adjustIncompleteIndicatorColumnRowNumbers(rowIndicatorColumn,&barcodeMetadata);
 848              		.loc 1 346 2
 849 05ed 8D45C8   		leal	-56(%ebp), %eax
 850 05f0 89442404 		movl	%eax, 4(%esp)
 851 05f4 8B4508   		movl	8(%ebp), %eax
 852 05f7 890424   		movl	%eax, (%esp)
 853 05fa E845FDFF 		call	_adjustIncompleteIndicatorColumnRowNumbers
 853      FF
 347:src/pdf417/PDFDetectionResultColumn.c **** 
 348:src/pdf417/PDFDetectionResultColumn.c **** 	int sizeRow = rowCount(&barcodeMetadata);
 854              		.loc 1 348 16
 855 05ff 8D45C8   		leal	-56(%ebp), %eax
 856 0602 890424   		movl	%eax, (%esp)
 857 0605 E8000000 		call	_rowCount
 857      00
 858 060a 8945EC   		movl	%eax, -20(%ebp)
 349:src/pdf417/PDFDetectionResultColumn.c **** 	int ret[sizeRow];
 859              		.loc 1 349 2
 860 060d 8B45EC   		movl	-20(%ebp), %eax
 861              		.loc 1 349 6
GAS LISTING C:\Users\jisu8\AppData\Local\Temp\ccIUpqyy.s 			page 24


 862 0610 8D50FF   		leal	-1(%eax), %edx
 863 0613 8955E8   		movl	%edx, -24(%ebp)
 864 0616 8D148500 		leal	0(,%eax,4), %edx
 864      000000
 865 061d B8100000 		movl	$16, %eax
 865      00
 866 0622 83E801   		subl	$1, %eax
 867 0625 01D0     		addl	%edx, %eax
 868 0627 B9100000 		movl	$16, %ecx
 868      00
 869 062c BA000000 		movl	$0, %edx
 869      00
 870 0631 F7F1     		divl	%ecx
 871 0633 6BC010   		imull	$16, %eax, %eax
 872 0636 E8000000 		call	___chkstk_ms
 872      00
 873 063b 29C4     		subl	%eax, %esp
 874 063d 8D44240C 		leal	12(%esp), %eax
 875 0641 83C003   		addl	$3, %eax
 876 0644 C1E802   		shrl	$2, %eax
 877 0647 C1E002   		sall	$2, %eax
 878 064a 8945E4   		movl	%eax, -28(%ebp)
 350:src/pdf417/PDFDetectionResultColumn.c **** 	fill(sizeRow,ret,0);
 879              		.loc 1 350 2
 880 064d 8B45E4   		movl	-28(%ebp), %eax
 881 0650 C7442408 		movl	$0, 8(%esp)
 881      00000000 
 882 0658 89442404 		movl	%eax, 4(%esp)
 883 065c 8B45EC   		movl	-20(%ebp), %eax
 884 065f 890424   		movl	%eax, (%esp)
 885 0662 E8000000 		call	_fill
 885      00
 886              	LBB7:
 351:src/pdf417/PDFDetectionResultColumn.c **** 	for (int i=0;i<length;i++) 
 887              		.loc 1 351 11
 888 0667 C745F000 		movl	$0, -16(%ebp)
 888      000000
 889              		.loc 1 351 2
 890 066e EB58     		jmp	L48
 891              	L51:
 892              	LBB8:
 352:src/pdf417/PDFDetectionResultColumn.c **** 	{
 353:src/pdf417/PDFDetectionResultColumn.c **** 		Codeword_t * item = (rowIndicatorColumn->m_value._codewords+i);
 893              		.loc 1 353 24
 894 0670 8B4508   		movl	8(%ebp), %eax
 895 0673 8D4850   		leal	80(%eax), %ecx
 896              		.loc 1 353 62
 897 0676 8B55F0   		movl	-16(%ebp), %edx
 898 0679 89D0     		movl	%edx, %eax
 899 067b 01C0     		addl	%eax, %eax
 900 067d 01D0     		addl	%edx, %eax
 901 067f C1E003   		sall	$3, %eax
 902              		.loc 1 353 16
 903 0682 01C8     		addl	%ecx, %eax
 904 0684 8945E0   		movl	%eax, -32(%ebp)
 354:src/pdf417/PDFDetectionResultColumn.c **** 		if (item->m_hasValue != 0) 
 905              		.loc 1 354 11
GAS LISTING C:\Users\jisu8\AppData\Local\Temp\ccIUpqyy.s 			page 25


 906 0687 8B45E0   		movl	-32(%ebp), %eax
 907 068a 0FB600   		movzbl	(%eax), %eax
 908              		.loc 1 354 6
 909 068d 84C0     		testb	%al, %al
 910 068f 7433     		je	L49
 911              	LBB9:
 355:src/pdf417/PDFDetectionResultColumn.c **** 		{
 356:src/pdf417/PDFDetectionResultColumn.c **** 			uint64_t rowNumber = item->m_value._rowNumber;
 912              		.loc 1 356 38
 913 0691 8B45E0   		movl	-32(%ebp), %eax
 914 0694 8B4014   		movl	20(%eax), %eax
 915              		.loc 1 356 13
 916 0697 99       		cltd
 917 0698 8945D8   		movl	%eax, -40(%ebp)
 918 069b 8955DC   		movl	%edx, -36(%ebp)
 357:src/pdf417/PDFDetectionResultColumn.c **** 			if (rowNumber >= sizeRow) 
 919              		.loc 1 357 18
 920 069e 8B45EC   		movl	-20(%ebp), %eax
 921 06a1 99       		cltd
 922              		.loc 1 357 7
 923 06a2 8B4DDC   		movl	-36(%ebp), %ecx
 924 06a5 3945D8   		cmpl	%eax, -40(%ebp)
 925 06a8 19D1     		sbbl	%edx, %ecx
 926 06aa 7317     		jnc	L55
 358:src/pdf417/PDFDetectionResultColumn.c **** 			{
 359:src/pdf417/PDFDetectionResultColumn.c **** 				// We have more rows than the barcode metadata allows for, ignore them.
 360:src/pdf417/PDFDetectionResultColumn.c **** 				continue;
 361:src/pdf417/PDFDetectionResultColumn.c **** 			}
 362:src/pdf417/PDFDetectionResultColumn.c **** 			ret[rowNumber]++;
 927              		.loc 1 362 7
 928 06ac 8B45E4   		movl	-28(%ebp), %eax
 929 06af 8B55D8   		movl	-40(%ebp), %edx
 930 06b2 8B0490   		movl	(%eax,%edx,4), %eax
 931              		.loc 1 362 18
 932 06b5 8D4801   		leal	1(%eax), %ecx
 933 06b8 8B45E4   		movl	-28(%ebp), %eax
 934 06bb 8B55D8   		movl	-40(%ebp), %edx
 935 06be 890C90   		movl	%ecx, (%eax,%edx,4)
 936 06c1 EB01     		jmp	L49
 937              	L55:
 360:src/pdf417/PDFDetectionResultColumn.c **** 			}
 938              		.loc 1 360 5
 939 06c3 90       		nop
 940              	L49:
 941              	LBE9:
 942              	LBE8:
 351:src/pdf417/PDFDetectionResultColumn.c **** 	{
 943              		.loc 1 351 25 discriminator 2
 944 06c4 8345F001 		addl	$1, -16(%ebp)
 945              	L48:
 351:src/pdf417/PDFDetectionResultColumn.c **** 	{
 946              		.loc 1 351 2 discriminator 1
 947 06c8 8B45F0   		movl	-16(%ebp), %eax
 948 06cb 3B4510   		cmpl	16(%ebp), %eax
 949 06ce 7CA0     		jl	L51
 950              	LBE7:
 951              	LBB10:
GAS LISTING C:\Users\jisu8\AppData\Local\Temp\ccIUpqyy.s 			page 26


 363:src/pdf417/PDFDetectionResultColumn.c **** 		} // else throw exception?
 364:src/pdf417/PDFDetectionResultColumn.c **** 	}
 365:src/pdf417/PDFDetectionResultColumn.c **** 
 366:src/pdf417/PDFDetectionResultColumn.c **** 	for(int i=0;i<sizeRow;i++)
 952              		.loc 1 366 10
 953 06d0 C745F400 		movl	$0, -12(%ebp)
 953      000000
 954              		.loc 1 366 2
 955 06d7 EB1F     		jmp	L52
 956              	L53:
 367:src/pdf417/PDFDetectionResultColumn.c **** 	{
 368:src/pdf417/PDFDetectionResultColumn.c **** 		result[i] = ret[i];
 957              		.loc 1 368 9 discriminator 3
 958 06d9 8B45F4   		movl	-12(%ebp), %eax
 959 06dc 8D148500 		leal	0(,%eax,4), %edx
 959      000000
 960 06e3 8B450C   		movl	12(%ebp), %eax
 961 06e6 8D0C02   		leal	(%edx,%eax), %ecx
 962              		.loc 1 368 18 discriminator 3
 963 06e9 8B45E4   		movl	-28(%ebp), %eax
 964 06ec 8B55F4   		movl	-12(%ebp), %edx
 965 06ef 8B0490   		movl	(%eax,%edx,4), %eax
 966              		.loc 1 368 13 discriminator 3
 967 06f2 8901     		movl	%eax, (%ecx)
 366:src/pdf417/PDFDetectionResultColumn.c **** 	{
 968              		.loc 1 366 25 discriminator 3
 969 06f4 8345F401 		addl	$1, -12(%ebp)
 970              	L52:
 366:src/pdf417/PDFDetectionResultColumn.c **** 	{
 971              		.loc 1 366 2 discriminator 1
 972 06f8 8B45F4   		movl	-12(%ebp), %eax
 973 06fb 3B45EC   		cmpl	-20(%ebp), %eax
 974 06fe 7CD9     		jl	L53
 975              	LBE10:
 369:src/pdf417/PDFDetectionResultColumn.c **** 	}
 370:src/pdf417/PDFDetectionResultColumn.c **** 
 371:src/pdf417/PDFDetectionResultColumn.c **** 	*size = sizeRow;
 976              		.loc 1 371 8
 977 0700 8B4514   		movl	20(%ebp), %eax
 978 0703 8B55EC   		movl	-20(%ebp), %edx
 979 0706 8910     		movl	%edx, (%eax)
 372:src/pdf417/PDFDetectionResultColumn.c **** 
 373:src/pdf417/PDFDetectionResultColumn.c **** 	return 1;
 980              		.loc 1 373 9
 981 0708 B8010000 		movl	$1, %eax
 981      00
 982              	L47:
 983 070d 89DC     		movl	%ebx, %esp
 374:src/pdf417/PDFDetectionResultColumn.c **** }
 984              		.loc 1 374 1
 985 070f 8B5DFC   		movl	-4(%ebp), %ebx
 986 0712 C9       		leave
 987              	LCFI23:
 988              		.cfi_restore 5
 989              		.cfi_restore 3
 990              		.cfi_def_cfa 4, 4
 991 0713 C3       		ret
GAS LISTING C:\Users\jisu8\AppData\Local\Temp\ccIUpqyy.s 			page 27


 992              		.cfi_endproc
 993              	LFE11:
 994              		.globl	_setRowNumberAsRowIndicatorColumn
 996              	_setRowNumberAsRowIndicatorColumn:
 997              	LFB12:
 375:src/pdf417/PDFDetectionResultColumn.c **** 
 376:src/pdf417/PDFDetectionResultColumn.c **** void setRowNumberAsRowIndicatorColumn(Codeword_t * Codewords) 
 377:src/pdf417/PDFDetectionResultColumn.c **** {
 998              		.loc 1 377 1
 999              		.cfi_startproc
 1000 0714 55       		pushl	%ebp
 1001              	LCFI24:
 1002              		.cfi_def_cfa_offset 8
 1003              		.cfi_offset 5, -8
 1004 0715 89E5     		movl	%esp, %ebp
 1005              	LCFI25:
 1006              		.cfi_def_cfa_register 5
 1007 0717 53       		pushl	%ebx
 1008              		.cfi_offset 3, -12
 378:src/pdf417/PDFDetectionResultColumn.c **** 	Codewords->m_value._rowNumber = (Codewords->m_value._value / 30) * 3 + Codewords->m_value._bucket 
 1009              		.loc 1 378 53
 1010 0718 8B4508   		movl	8(%ebp), %eax
 1011 071b 8B4810   		movl	16(%eax), %ecx
 1012              		.loc 1 378 61
 1013 071e BA898888 		movl	$-2004318071, %edx
 1013      88
 1014 0723 89C8     		movl	%ecx, %eax
 1015 0725 F7EA     		imull	%edx
 1016 0727 8D040A   		leal	(%edx,%ecx), %eax
 1017 072a C1F804   		sarl	$4, %eax
 1018 072d 89C2     		movl	%eax, %edx
 1019 072f 89C8     		movl	%ecx, %eax
 1020 0731 C1F81F   		sarl	$31, %eax
 1021 0734 29C2     		subl	%eax, %edx
 1022              		.loc 1 378 67
 1023 0736 89D0     		movl	%edx, %eax
 1024 0738 01C0     		addl	%eax, %eax
 1025 073a 8D1C10   		leal	(%eax,%edx), %ebx
 1026              		.loc 1 378 91
 1027 073d 8B4508   		movl	8(%ebp), %eax
 1028 0740 8B480C   		movl	12(%eax), %ecx
 1029              		.loc 1 378 100
 1030 0743 BA565555 		movl	$1431655766, %edx
 1030      55
 1031 0748 89C8     		movl	%ecx, %eax
 1032 074a F7EA     		imull	%edx
 1033 074c 89C8     		movl	%ecx, %eax
 1034 074e C1F81F   		sarl	$31, %eax
 1035 0751 29C2     		subl	%eax, %edx
 1036 0753 89D0     		movl	%edx, %eax
 1037              		.loc 1 378 71
 1038 0755 8D1403   		leal	(%ebx,%eax), %edx
 1039              		.loc 1 378 32
 1040 0758 8B4508   		movl	8(%ebp), %eax
 1041 075b 895014   		movl	%edx, 20(%eax)
 379:src/pdf417/PDFDetectionResultColumn.c **** }
 1042              		.loc 1 379 1
GAS LISTING C:\Users\jisu8\AppData\Local\Temp\ccIUpqyy.s 			page 28


 1043 075e 90       		nop
 1044 075f 5B       		popl	%ebx
 1045              		.cfi_restore 3
 1046 0760 5D       		popl	%ebp
 1047              	LCFI26:
 1048              		.cfi_restore 5
 1049              		.cfi_def_cfa 4, 4
 1050 0761 C3       		ret
 1051              		.cfi_endproc
 1052              	LFE12:
 1053              		.section .rdata,"dr"
 1054              		.align 4
 1055              	LC5:
 1056 00a8 44657465 		.ascii "DetectionResultColumn::getBarcodeMetadata : \0"
 1056      6374696F 
 1056      6E526573 
 1056      756C7443 
 1056      6F6C756D 
 1057 00d5 000000   		.text
 1058              		.globl	_getBarcodeMetadata
 1060              	_getBarcodeMetadata:
 1061              	LFB13:
 380:src/pdf417/PDFDetectionResultColumn.c **** 
 381:src/pdf417/PDFDetectionResultColumn.c **** // This is example of bad design, a getter should not modify object's state
 382:src/pdf417/PDFDetectionResultColumn.c **** uint8_t getBarcodeMetadata(DetectionResultColumn_t * RowIndicatorColumn, BarcodeMetadata_t * result
 383:src/pdf417/PDFDetectionResultColumn.c **** {
 1062              		.loc 1 383 1
 1063              		.cfi_startproc
 1064 0762 55       		pushl	%ebp
 1065              	LCFI27:
 1066              		.cfi_def_cfa_offset 8
 1067              		.cfi_offset 5, -8
 1068 0763 89E5     		movl	%esp, %ebp
 1069              	LCFI28:
 1070              		.cfi_def_cfa_register 5
 1071 0765 B8781F00 		movl	$8056, %eax
 1071      00
 1072 076a E8000000 		call	___chkstk_ms
 1072      00
 1073 076f 29C4     		subl	%eax, %esp
 384:src/pdf417/PDFDetectionResultColumn.c **** 	printf("DetectionResultColumn::getBarcodeMetadata : \n");
 1074              		.loc 1 384 2
 1075 0771 C70424A8 		movl	$LC5, (%esp)
 1075      000000
 1076 0778 E8000000 		call	_puts
 1076      00
 385:src/pdf417/PDFDetectionResultColumn.c **** 
 386:src/pdf417/PDFDetectionResultColumn.c **** 	if (!isRowIndicator(RowIndicatorColumn))
 1077              		.loc 1 386 7
 1078 077d 8B4508   		movl	8(%ebp), %eax
 1079 0780 890424   		movl	%eax, (%esp)
 1080 0783 E869F9FF 		call	_isRowIndicator
 1080      FF
 1081              		.loc 1 386 5
 1082 0788 84C0     		testb	%al, %al
 1083 078a 750A     		jne	L58
 387:src/pdf417/PDFDetectionResultColumn.c **** 	{
GAS LISTING C:\Users\jisu8\AppData\Local\Temp\ccIUpqyy.s 			page 29


 388:src/pdf417/PDFDetectionResultColumn.c **** 		return 0;
 1084              		.loc 1 388 10
 1085 078c B8000000 		movl	$0, %eax
 1085      00
 1086 0791 E9DE0200 		jmp	L71
 1086      00
 1087              	L58:
 389:src/pdf417/PDFDetectionResultColumn.c **** 	}
 390:src/pdf417/PDFDetectionResultColumn.c **** 
 391:src/pdf417/PDFDetectionResultColumn.c **** 	Codeword_t * codewords = allCodewords(RowIndicatorColumn);
 1088              		.loc 1 391 27
 1089 0796 8B4508   		movl	8(%ebp), %eax
 1090 0799 890424   		movl	%eax, (%esp)
 1091 079c E845F9FF 		call	_allCodewords
 1091      FF
 1092 07a1 8945EC   		movl	%eax, -20(%ebp)
 1093              	LBB11:
 392:src/pdf417/PDFDetectionResultColumn.c **** 	BarcodeValue_t barcodeColumnCount;
 393:src/pdf417/PDFDetectionResultColumn.c **** 	BarcodeValue_t barcodeRowCountUpperPart;
 394:src/pdf417/PDFDetectionResultColumn.c **** 	BarcodeValue_t barcodeRowCountLowerPart;
 395:src/pdf417/PDFDetectionResultColumn.c **** 	BarcodeValue_t barcodeECLevel;
 396:src/pdf417/PDFDetectionResultColumn.c **** 	for (uint16_t i=0;i<length;i++)
 1094              		.loc 1 396 16
 1095 07a4 66C745F6 		movw	$0, -10(%ebp)
 1095      0000
 1096              		.loc 1 396 2
 1097 07aa EB47     		jmp	L60
 1098              	L61:
 397:src/pdf417/PDFDetectionResultColumn.c **** 	{
 398:src/pdf417/PDFDetectionResultColumn.c **** 		barcodeColumnCount._values[i] = 0;
 1099              		.loc 1 398 29 discriminator 3
 1100 07ac 0FB745F6 		movzwl	-10(%ebp), %eax
 1101              		.loc 1 398 33 discriminator 3
 1102 07b0 C7848508 		movl	$0, -2040(%ebp,%eax,4)
 1102      F8FFFF00 
 1102      000000
 399:src/pdf417/PDFDetectionResultColumn.c **** 		barcodeRowCountUpperPart._values[i] = 0;
 1103              		.loc 1 399 35 discriminator 3
 1104 07bb 0FB745F6 		movzwl	-10(%ebp), %eax
 1105              		.loc 1 399 39 discriminator 3
 1106 07bf C7848538 		movl	$0, -4040(%ebp,%eax,4)
 1106      F0FFFF00 
 1106      000000
 400:src/pdf417/PDFDetectionResultColumn.c **** 		barcodeRowCountLowerPart._values[i] = 0;
 1107              		.loc 1 400 35 discriminator 3
 1108 07ca 0FB745F6 		movzwl	-10(%ebp), %eax
 1109              		.loc 1 400 39 discriminator 3
 1110 07ce C7848568 		movl	$0, -6040(%ebp,%eax,4)
 1110      E8FFFF00 
 1110      000000
 401:src/pdf417/PDFDetectionResultColumn.c **** 		barcodeECLevel._values[i] = 0;
 1111              		.loc 1 401 25 discriminator 3
 1112 07d9 0FB745F6 		movzwl	-10(%ebp), %eax
 1113              		.loc 1 401 29 discriminator 3
 1114 07dd C7848598 		movl	$0, -8040(%ebp,%eax,4)
 1114      E0FFFF00 
 1114      000000
GAS LISTING C:\Users\jisu8\AppData\Local\Temp\ccIUpqyy.s 			page 30


 396:src/pdf417/PDFDetectionResultColumn.c **** 	{
 1115              		.loc 1 396 30 discriminator 3
 1116 07e8 0FB745F6 		movzwl	-10(%ebp), %eax
 1117 07ec 83C001   		addl	$1, %eax
 1118 07ef 668945F6 		movw	%ax, -10(%ebp)
 1119              	L60:
 396:src/pdf417/PDFDetectionResultColumn.c **** 	{
 1120              		.loc 1 396 21 discriminator 1
 1121 07f3 0FB745F6 		movzwl	-10(%ebp), %eax
 396:src/pdf417/PDFDetectionResultColumn.c **** 	{
 1122              		.loc 1 396 2 discriminator 1
 1123 07f7 394510   		cmpl	%eax, 16(%ebp)
 1124 07fa 7FB0     		jg	L61
 1125              	LBE11:
 1126              	LBB12:
 402:src/pdf417/PDFDetectionResultColumn.c **** 	}
 403:src/pdf417/PDFDetectionResultColumn.c **** 	for (uint16_t i=0;i<length;i++) 
 1127              		.loc 1 403 16
 1128 07fc 66C745F4 		movw	$0, -12(%ebp)
 1128      0000
 1129              		.loc 1 403 2
 1130 0802 E97E0100 		jmp	L62
 1130      00
 1131              	L68:
 1132              	LBB13:
 404:src/pdf417/PDFDetectionResultColumn.c **** 	{
 405:src/pdf417/PDFDetectionResultColumn.c **** 		if (codewords[i].m_hasValue == 0) 
 1133              		.loc 1 405 16
 1134 0807 0FB755F4 		movzwl	-12(%ebp), %edx
 1135 080b 89D0     		movl	%edx, %eax
 1136 080d 01C0     		addl	%eax, %eax
 1137 080f 01D0     		addl	%edx, %eax
 1138 0811 C1E003   		sall	$3, %eax
 1139 0814 89C2     		movl	%eax, %edx
 1140 0816 8B45EC   		movl	-20(%ebp), %eax
 1141 0819 01D0     		addl	%edx, %eax
 1142              		.loc 1 405 19
 1143 081b 0FB600   		movzbl	(%eax), %eax
 1144              		.loc 1 405 6
 1145 081e 84C0     		testb	%al, %al
 1146 0820 0F845301 		je	L72
 1146      0000
 406:src/pdf417/PDFDetectionResultColumn.c **** 		{
 407:src/pdf417/PDFDetectionResultColumn.c **** 			continue;
 408:src/pdf417/PDFDetectionResultColumn.c **** 		}
 409:src/pdf417/PDFDetectionResultColumn.c **** 
 410:src/pdf417/PDFDetectionResultColumn.c **** 		setRowNumberAsRowIndicatorColumn(codewords+i);
 1147              		.loc 1 410 45
 1148 0826 0FB755F4 		movzwl	-12(%ebp), %edx
 1149 082a 89D0     		movl	%edx, %eax
 1150 082c 01C0     		addl	%eax, %eax
 1151 082e 01D0     		addl	%edx, %eax
 1152 0830 C1E003   		sall	$3, %eax
 1153 0833 89C2     		movl	%eax, %edx
 1154              		.loc 1 410 3
 1155 0835 8B45EC   		movl	-20(%ebp), %eax
 1156 0838 01D0     		addl	%edx, %eax
GAS LISTING C:\Users\jisu8\AppData\Local\Temp\ccIUpqyy.s 			page 31


 1157 083a 890424   		movl	%eax, (%esp)
 1158 083d E8D2FEFF 		call	_setRowNumberAsRowIndicatorColumn
 1158      FF
 411:src/pdf417/PDFDetectionResultColumn.c **** 		int rowIndicatorValue = codewords[i].m_value._value % 30;
 1159              		.loc 1 411 36
 1160 0842 0FB755F4 		movzwl	-12(%ebp), %edx
 1161 0846 89D0     		movl	%edx, %eax
 1162 0848 01C0     		addl	%eax, %eax
 1163 084a 01D0     		addl	%edx, %eax
 1164 084c C1E003   		sall	$3, %eax
 1165 084f 89C2     		movl	%eax, %edx
 1166 0851 8B45EC   		movl	-20(%ebp), %eax
 1167 0854 01D0     		addl	%edx, %eax
 1168              		.loc 1 411 47
 1169 0856 8B4810   		movl	16(%eax), %ecx
 1170              		.loc 1 411 7
 1171 0859 BA898888 		movl	$-2004318071, %edx
 1171      88
 1172 085e 89C8     		movl	%ecx, %eax
 1173 0860 F7EA     		imull	%edx
 1174 0862 8D040A   		leal	(%edx,%ecx), %eax
 1175 0865 C1F804   		sarl	$4, %eax
 1176 0868 89C2     		movl	%eax, %edx
 1177 086a 89C8     		movl	%ecx, %eax
 1178 086c C1F81F   		sarl	$31, %eax
 1179 086f 29C2     		subl	%eax, %edx
 1180 0871 89D0     		movl	%edx, %eax
 1181 0873 8945E8   		movl	%eax, -24(%ebp)
 1182 0876 8B45E8   		movl	-24(%ebp), %eax
 1183 0879 6BC01E   		imull	$30, %eax, %eax
 1184 087c 29C1     		subl	%eax, %ecx
 1185 087e 89C8     		movl	%ecx, %eax
 1186 0880 8945E8   		movl	%eax, -24(%ebp)
 412:src/pdf417/PDFDetectionResultColumn.c **** 		int codewordRowNumber = codewords[i].m_value._rowNumber;
 1187              		.loc 1 412 36
 1188 0883 0FB755F4 		movzwl	-12(%ebp), %edx
 1189 0887 89D0     		movl	%edx, %eax
 1190 0889 01C0     		addl	%eax, %eax
 1191 088b 01D0     		addl	%edx, %eax
 1192 088d C1E003   		sall	$3, %eax
 1193 0890 89C2     		movl	%eax, %edx
 1194 0892 8B45EC   		movl	-20(%ebp), %eax
 1195 0895 01D0     		addl	%edx, %eax
 1196              		.loc 1 412 7
 1197 0897 8B4014   		movl	20(%eax), %eax
 1198 089a 8945F0   		movl	%eax, -16(%ebp)
 413:src/pdf417/PDFDetectionResultColumn.c **** 		if (!isLeftRowIndicator(RowIndicatorColumn)) 
 1199              		.loc 1 413 8
 1200 089d 8B4508   		movl	8(%ebp), %eax
 1201 08a0 890424   		movl	%eax, (%esp)
 1202 08a3 E85CF8FF 		call	_isLeftRowIndicator
 1202      FF
 1203              		.loc 1 413 6
 1204 08a8 84C0     		testb	%al, %al
 1205 08aa 7504     		jne	L65
 414:src/pdf417/PDFDetectionResultColumn.c **** 		{
 415:src/pdf417/PDFDetectionResultColumn.c **** 			codewordRowNumber += 2;
GAS LISTING C:\Users\jisu8\AppData\Local\Temp\ccIUpqyy.s 			page 32


 1206              		.loc 1 415 22
 1207 08ac 8345F002 		addl	$2, -16(%ebp)
 1208              	L65:
 416:src/pdf417/PDFDetectionResultColumn.c **** 		}
 417:src/pdf417/PDFDetectionResultColumn.c **** 		switch (codewordRowNumber % 3) 
 1209              		.loc 1 417 29
 1210 08b0 8B4DF0   		movl	-16(%ebp), %ecx
 1211 08b3 BA565555 		movl	$1431655766, %edx
 1211      55
 1212 08b8 89C8     		movl	%ecx, %eax
 1213 08ba F7EA     		imull	%edx
 1214 08bc 89C8     		movl	%ecx, %eax
 1215 08be C1F81F   		sarl	$31, %eax
 1216 08c1 29C2     		subl	%eax, %edx
 1217 08c3 89D0     		movl	%edx, %eax
 1218 08c5 89C2     		movl	%eax, %edx
 1219 08c7 01D2     		addl	%edx, %edx
 1220 08c9 01C2     		addl	%eax, %edx
 1221 08cb 89C8     		movl	%ecx, %eax
 1222 08cd 29D0     		subl	%edx, %eax
 1223 08cf 83F801   		cmpl	$1, %eax
 1224 08d2 7431     		je	L66
 1225 08d4 83F802   		cmpl	$2, %eax
 1226 08d7 0F848200 		je	L67
 1226      0000
 1227 08dd 85C0     		testl	%eax, %eax
 1228 08df 0F859500 		jne	L64
 1228      0000
 418:src/pdf417/PDFDetectionResultColumn.c **** 		{
 419:src/pdf417/PDFDetectionResultColumn.c **** 			case 0:
 420:src/pdf417/PDFDetectionResultColumn.c **** 			BarcodeSetValue(&barcodeRowCountUpperPart,rowIndicatorValue * 3 + 1);
 1229              		.loc 1 420 64
 1230 08e5 8B55E8   		movl	-24(%ebp), %edx
 1231 08e8 89D0     		movl	%edx, %eax
 1232 08ea 01C0     		addl	%eax, %eax
 1233 08ec 01D0     		addl	%edx, %eax
 1234              		.loc 1 420 4
 1235 08ee 83C001   		addl	$1, %eax
 1236 08f1 89442404 		movl	%eax, 4(%esp)
 1237 08f5 8D8538F0 		leal	-4040(%ebp), %eax
 1237      FFFF
 1238 08fb 890424   		movl	%eax, (%esp)
 1239 08fe E8000000 		call	_BarcodeSetValue
 1239      00
 421:src/pdf417/PDFDetectionResultColumn.c **** 			break;
 1240              		.loc 1 421 4
 1241 0903 EB75     		jmp	L64
 1242              	L66:
 422:src/pdf417/PDFDetectionResultColumn.c **** 			case 1:
 423:src/pdf417/PDFDetectionResultColumn.c **** 			BarcodeSetValue(&barcodeECLevel,rowIndicatorValue / 3);
 1243              		.loc 1 423 4
 1244 0905 8B4DE8   		movl	-24(%ebp), %ecx
 1245 0908 BA565555 		movl	$1431655766, %edx
 1245      55
 1246 090d 89C8     		movl	%ecx, %eax
 1247 090f F7EA     		imull	%edx
 1248 0911 89C8     		movl	%ecx, %eax
GAS LISTING C:\Users\jisu8\AppData\Local\Temp\ccIUpqyy.s 			page 33


 1249 0913 C1F81F   		sarl	$31, %eax
 1250 0916 29C2     		subl	%eax, %edx
 1251 0918 89D0     		movl	%edx, %eax
 1252 091a 89442404 		movl	%eax, 4(%esp)
 1253 091e 8D8598E0 		leal	-8040(%ebp), %eax
 1253      FFFF
 1254 0924 890424   		movl	%eax, (%esp)
 1255 0927 E8000000 		call	_BarcodeSetValue
 1255      00
 424:src/pdf417/PDFDetectionResultColumn.c **** 			BarcodeSetValue(&barcodeRowCountLowerPart,rowIndicatorValue % 3);
 1256              		.loc 1 424 4
 1257 092c 8B4DE8   		movl	-24(%ebp), %ecx
 1258 092f BA565555 		movl	$1431655766, %edx
 1258      55
 1259 0934 89C8     		movl	%ecx, %eax
 1260 0936 F7EA     		imull	%edx
 1261 0938 89C8     		movl	%ecx, %eax
 1262 093a C1F81F   		sarl	$31, %eax
 1263 093d 29C2     		subl	%eax, %edx
 1264 093f 89D0     		movl	%edx, %eax
 1265 0941 89C2     		movl	%eax, %edx
 1266 0943 01D2     		addl	%edx, %edx
 1267 0945 01C2     		addl	%eax, %edx
 1268 0947 89C8     		movl	%ecx, %eax
 1269 0949 29D0     		subl	%edx, %eax
 1270 094b 89442404 		movl	%eax, 4(%esp)
 1271 094f 8D8568E8 		leal	-6040(%ebp), %eax
 1271      FFFF
 1272 0955 890424   		movl	%eax, (%esp)
 1273 0958 E8000000 		call	_BarcodeSetValue
 1273      00
 425:src/pdf417/PDFDetectionResultColumn.c **** 			break;
 1274              		.loc 1 425 4
 1275 095d EB1B     		jmp	L64
 1276              	L67:
 426:src/pdf417/PDFDetectionResultColumn.c **** 			case 2:
 427:src/pdf417/PDFDetectionResultColumn.c **** 			BarcodeSetValue(&barcodeColumnCount,rowIndicatorValue + 1);
 1277              		.loc 1 427 4
 1278 095f 8B45E8   		movl	-24(%ebp), %eax
 1279 0962 83C001   		addl	$1, %eax
 1280 0965 89442404 		movl	%eax, 4(%esp)
 1281 0969 8D8508F8 		leal	-2040(%ebp), %eax
 1281      FFFF
 1282 096f 890424   		movl	%eax, (%esp)
 1283 0972 E8000000 		call	_BarcodeSetValue
 1283      00
 428:src/pdf417/PDFDetectionResultColumn.c **** 			break;
 1284              		.loc 1 428 4
 1285 0977 EB01     		jmp	L64
 1286              	L72:
 407:src/pdf417/PDFDetectionResultColumn.c **** 		}
 1287              		.loc 1 407 4
 1288 0979 90       		nop
 1289              	L64:
 1290              	LBE13:
 403:src/pdf417/PDFDetectionResultColumn.c **** 	{
 1291              		.loc 1 403 30 discriminator 2
GAS LISTING C:\Users\jisu8\AppData\Local\Temp\ccIUpqyy.s 			page 34


 1292 097a 0FB745F4 		movzwl	-12(%ebp), %eax
 1293 097e 83C001   		addl	$1, %eax
 1294 0981 668945F4 		movw	%ax, -12(%ebp)
 1295              	L62:
 403:src/pdf417/PDFDetectionResultColumn.c **** 	{
 1296              		.loc 1 403 21 discriminator 1
 1297 0985 0FB745F4 		movzwl	-12(%ebp), %eax
 403:src/pdf417/PDFDetectionResultColumn.c **** 	{
 1298              		.loc 1 403 2 discriminator 1
 1299 0989 394510   		cmpl	%eax, 16(%ebp)
 1300 098c 0F8F75FE 		jg	L68
 1300      FFFF
 1301              	LBE12:
 429:src/pdf417/PDFDetectionResultColumn.c **** 		}
 430:src/pdf417/PDFDetectionResultColumn.c **** 	}
 431:src/pdf417/PDFDetectionResultColumn.c **** 	// Maybe we should check if we have ambiguous values?
 432:src/pdf417/PDFDetectionResultColumn.c **** 	int cc = BarcodeValue(&barcodeColumnCount,length);
 1302              		.loc 1 432 11
 1303 0992 8B4510   		movl	16(%ebp), %eax
 1304 0995 89442404 		movl	%eax, 4(%esp)
 1305 0999 8D8508F8 		leal	-2040(%ebp), %eax
 1305      FFFF
 1306 099f 890424   		movl	%eax, (%esp)
 1307 09a2 E8000000 		call	_BarcodeValue
 1307      00
 1308 09a7 8945E4   		movl	%eax, -28(%ebp)
 433:src/pdf417/PDFDetectionResultColumn.c **** 	int rcu = BarcodeValue(&barcodeRowCountUpperPart,length);
 1309              		.loc 1 433 12
 1310 09aa 8B4510   		movl	16(%ebp), %eax
 1311 09ad 89442404 		movl	%eax, 4(%esp)
 1312 09b1 8D8538F0 		leal	-4040(%ebp), %eax
 1312      FFFF
 1313 09b7 890424   		movl	%eax, (%esp)
 1314 09ba E8000000 		call	_BarcodeValue
 1314      00
 1315 09bf 8945E0   		movl	%eax, -32(%ebp)
 434:src/pdf417/PDFDetectionResultColumn.c **** 	int rcl = BarcodeValue(&barcodeRowCountLowerPart,length);
 1316              		.loc 1 434 12
 1317 09c2 8B4510   		movl	16(%ebp), %eax
 1318 09c5 89442404 		movl	%eax, 4(%esp)
 1319 09c9 8D8568E8 		leal	-6040(%ebp), %eax
 1319      FFFF
 1320 09cf 890424   		movl	%eax, (%esp)
 1321 09d2 E8000000 		call	_BarcodeValue
 1321      00
 1322 09d7 8945DC   		movl	%eax, -36(%ebp)
 435:src/pdf417/PDFDetectionResultColumn.c **** 	int ec = BarcodeValue(&barcodeECLevel,length);
 1323              		.loc 1 435 11
 1324 09da 8B4510   		movl	16(%ebp), %eax
 1325 09dd 89442404 		movl	%eax, 4(%esp)
 1326 09e1 8D8598E0 		leal	-8040(%ebp), %eax
 1326      FFFF
 1327 09e7 890424   		movl	%eax, (%esp)
 1328 09ea E8000000 		call	_BarcodeValue
 1328      00
 1329 09ef 8945D8   		movl	%eax, -40(%ebp)
 436:src/pdf417/PDFDetectionResultColumn.c **** 
GAS LISTING C:\Users\jisu8\AppData\Local\Temp\ccIUpqyy.s 			page 35


 437:src/pdf417/PDFDetectionResultColumn.c **** 	if (cc < 1 || rcu + rcl < MIN_ROWS_IN_BARCODE || rcu + rcl > MAX_ROWS_IN_BARCODE) 
 1330              		.loc 1 437 5
 1331 09f2 837DE400 		cmpl	$0, -28(%ebp)
 1332 09f6 7E22     		jle	L69
 1333              		.loc 1 437 20 discriminator 1
 1334 09f8 8B55E0   		movl	-32(%ebp), %edx
 1335 09fb 8B45DC   		movl	-36(%ebp), %eax
 1336 09fe 01D0     		addl	%edx, %eax
 1337              		.loc 1 437 26 discriminator 1
 1338 0a00 BA030000 		movl	$3, %edx
 1338      00
 1339              		.loc 1 437 13 discriminator 1
 1340 0a05 39D0     		cmpl	%edx, %eax
 1341 0a07 7C11     		jl	L69
 1342              		.loc 1 437 55 discriminator 2
 1343 0a09 8B55E0   		movl	-32(%ebp), %edx
 1344 0a0c 8B45DC   		movl	-36(%ebp), %eax
 1345 0a0f 01D0     		addl	%edx, %eax
 1346              		.loc 1 437 61 discriminator 2
 1347 0a11 BA5A0000 		movl	$90, %edx
 1347      00
 1348              		.loc 1 437 48 discriminator 2
 1349 0a16 39D0     		cmpl	%edx, %eax
 1350 0a18 7E07     		jle	L70
 1351              	L69:
 438:src/pdf417/PDFDetectionResultColumn.c **** 	{
 439:src/pdf417/PDFDetectionResultColumn.c **** 		return 0;
 1352              		.loc 1 439 10
 1353 0a1a B8000000 		movl	$0, %eax
 1353      00
 1354 0a1f EB53     		jmp	L71
 1355              	L70:
 440:src/pdf417/PDFDetectionResultColumn.c **** 	}
 441:src/pdf417/PDFDetectionResultColumn.c **** 
 442:src/pdf417/PDFDetectionResultColumn.c **** 	result->_columnCount = cc;
 1356              		.loc 1 442 23
 1357 0a21 8B450C   		movl	12(%ebp), %eax
 1358 0a24 8B55E4   		movl	-28(%ebp), %edx
 1359 0a27 8910     		movl	%edx, (%eax)
 443:src/pdf417/PDFDetectionResultColumn.c **** 	result->_errorCorrectionLevel = ec;
 1360              		.loc 1 443 32
 1361 0a29 8B450C   		movl	12(%ebp), %eax
 1362 0a2c 8B55D8   		movl	-40(%ebp), %edx
 1363 0a2f 895004   		movl	%edx, 4(%eax)
 444:src/pdf417/PDFDetectionResultColumn.c **** 	result->_rowCountUpperPart = rcu;
 1364              		.loc 1 444 29
 1365 0a32 8B450C   		movl	12(%ebp), %eax
 1366 0a35 8B55E0   		movl	-32(%ebp), %edx
 1367 0a38 895008   		movl	%edx, 8(%eax)
 445:src/pdf417/PDFDetectionResultColumn.c **** 	result->_rowCountLowerPart = rcl;
 1368              		.loc 1 445 29
 1369 0a3b 8B450C   		movl	12(%ebp), %eax
 1370 0a3e 8B55DC   		movl	-36(%ebp), %edx
 1371 0a41 89500C   		movl	%edx, 12(%eax)
 446:src/pdf417/PDFDetectionResultColumn.c **** 	
 447:src/pdf417/PDFDetectionResultColumn.c **** 	RemoveIncorrectCodewords(isLeftRowIndicator(RowIndicatorColumn), codewords, result,length);
 1372              		.loc 1 447 27
GAS LISTING C:\Users\jisu8\AppData\Local\Temp\ccIUpqyy.s 			page 36


 1373 0a44 8B4508   		movl	8(%ebp), %eax
 1374 0a47 890424   		movl	%eax, (%esp)
 1375 0a4a E8B5F6FF 		call	_isLeftRowIndicator
 1375      FF
 1376              		.loc 1 447 2
 1377 0a4f 0FB6C0   		movzbl	%al, %eax
 1378 0a52 8B5510   		movl	16(%ebp), %edx
 1379 0a55 8954240C 		movl	%edx, 12(%esp)
 1380 0a59 8B550C   		movl	12(%ebp), %edx
 1381 0a5c 89542408 		movl	%edx, 8(%esp)
 1382 0a60 8B55EC   		movl	-20(%ebp), %edx
 1383 0a63 89542404 		movl	%edx, 4(%esp)
 1384 0a67 890424   		movl	%eax, (%esp)
 1385 0a6a E8E7F6FF 		call	_RemoveIncorrectCodewords
 1385      FF
 448:src/pdf417/PDFDetectionResultColumn.c **** 
 449:src/pdf417/PDFDetectionResultColumn.c **** 	return 1;
 1386              		.loc 1 449 9
 1387 0a6f B8010000 		movl	$1, %eax
 1387      00
 1388              	L71:
 450:src/pdf417/PDFDetectionResultColumn.c **** }
 1389              		.loc 1 450 1 discriminator 1
 1390 0a74 C9       		leave
 1391              	LCFI29:
 1392              		.cfi_restore 5
 1393              		.cfi_def_cfa 4, 4
 1394 0a75 C3       		ret
 1395              		.cfi_endproc
 1396              	LFE13:
 1397              	Letext0:
 1398              		.file 2 "src/pdf417/PDFBarcodeMetadata.h"
 1399              		.file 3 "src/pdf417/PDFBarcodeValue.h"
 1400              		.file 4 "D:/3.tools/mingw/mingw32/i686-w64-mingw32/include/crtdefs.h"
 1401              		.file 5 "D:/3.tools/mingw/mingw32/i686-w64-mingw32/include/stdint.h"
 1402              		.file 6 "src/ResultPoint.h"
 1403              		.file 7 "src/pdf417/PDFBoundingBox.h"
 1404              		.file 8 "src/pdf417/PDFCodeword.h"
 1405              		.file 9 "src/pdf417/PDFDetectionResultColumn.h"
 1406              		.file 10 "D:/3.tools/mingw/mingw32/i686-w64-mingw32/include/stdlib.h"
 1407              		.file 11 "D:/3.tools/mingw/mingw32/i686-w64-mingw32/include/malloc.h"
 1408              		.file 12 "src/pdf417/PDFScanningDecoder.h"
 1409              		.file 13 "<built-in>"
 1410 0a76 9090     		.section	.debug_info,"dr"
 1411              	Ldebug_info0:
 1412 0000 930F0000 		.long	0xf93
 1413 0004 0200     		.word	0x2
 1414 0006 00000000 		.secrel32	Ldebug_abbrev0
 1415 000a 04       		.byte	0x4
 1416 000b 01       		.uleb128 0x1
 1417 000c 474E5520 		.ascii "GNU C17 8.1.0 -mtune=generic -march=i686 -g -gdwarf-2 -O0\0"
 1417      43313720 
 1417      382E312E 
 1417      30202D6D 
 1417      74756E65 
 1418 0046 0C       		.byte	0xc
 1419 0047 7372632F 		.ascii "src/pdf417/PDFDetectionResultColumn.c\0"
GAS LISTING C:\Users\jisu8\AppData\Local\Temp\ccIUpqyy.s 			page 37


 1419      70646634 
 1419      31372F50 
 1419      44464465 
 1419      74656374 
 1420 006d 443A5C31 		.ascii "D:\\1.Project_workspace\\PDF_BARCODE\0"
 1420      2E50726F 
 1420      6A656374 
 1420      5F776F72 
 1420      6B737061 
 1421 0090 00000000 		.long	Ltext0
 1422 0094 760A0000 		.long	Letext0
 1423 0098 00000000 		.secrel32	Ldebug_line0
 1424 009c 02       		.uleb128 0x2
 1425 009d 10       		.byte	0x10
 1426 009e 02       		.byte	0x2
 1427 009f 07       		.byte	0x7
 1428 00a0 09       		.byte	0x9
 1429 00a1 1B010000 		.long	0x11b
 1430 00a5 03       		.uleb128 0x3
 1431 00a6 5F636F6C 		.ascii "_columnCount\0"
 1431      756D6E43 
 1431      6F756E74 
 1431      00
 1432 00b3 02       		.byte	0x2
 1433 00b4 09       		.byte	0x9
 1434 00b5 06       		.byte	0x6
 1435 00b6 1B010000 		.long	0x11b
 1436 00ba 02       		.byte	0x2
 1437 00bb 23       		.byte	0x23
 1438 00bc 00       		.uleb128 0
 1439 00bd 03       		.uleb128 0x3
 1440 00be 5F657272 		.ascii "_errorCorrectionLevel\0"
 1440      6F72436F 
 1440      72726563 
 1440      74696F6E 
 1440      4C657665 
 1441 00d4 02       		.byte	0x2
 1442 00d5 0A       		.byte	0xa
 1443 00d6 06       		.byte	0x6
 1444 00d7 1B010000 		.long	0x11b
 1445 00db 02       		.byte	0x2
 1446 00dc 23       		.byte	0x23
 1447 00dd 04       		.uleb128 0x4
 1448 00de 03       		.uleb128 0x3
 1449 00df 5F726F77 		.ascii "_rowCountUpperPart\0"
 1449      436F756E 
 1449      74557070 
 1449      65725061 
 1449      727400
 1450 00f2 02       		.byte	0x2
 1451 00f3 0B       		.byte	0xb
 1452 00f4 06       		.byte	0x6
 1453 00f5 1B010000 		.long	0x11b
 1454 00f9 02       		.byte	0x2
 1455 00fa 23       		.byte	0x23
 1456 00fb 08       		.uleb128 0x8
 1457 00fc 03       		.uleb128 0x3
GAS LISTING C:\Users\jisu8\AppData\Local\Temp\ccIUpqyy.s 			page 38


 1458 00fd 5F726F77 		.ascii "_rowCountLowerPart\0"
 1458      436F756E 
 1458      744C6F77 
 1458      65725061 
 1458      727400
 1459 0110 02       		.byte	0x2
 1460 0111 0C       		.byte	0xc
 1461 0112 06       		.byte	0x6
 1462 0113 1B010000 		.long	0x11b
 1463 0117 02       		.byte	0x2
 1464 0118 23       		.byte	0x23
 1465 0119 0C       		.uleb128 0xc
 1466 011a 00       		.byte	0
 1467 011b 04       		.uleb128 0x4
 1468 011c 04       		.byte	0x4
 1469 011d 05       		.byte	0x5
 1470 011e 696E7400 		.ascii "int\0"
 1471 0122 05       		.uleb128 0x5
 1472 0123 1B010000 		.long	0x11b
 1473 0127 06       		.uleb128 0x6
 1474 0128 42617263 		.ascii "BarcodeMetadata_t\0"
 1474      6F64654D 
 1474      65746164 
 1474      6174615F 
 1474      7400
 1475 013a 02       		.byte	0x2
 1476 013b 0D       		.byte	0xd
 1477 013c 02       		.byte	0x2
 1478 013d 9C000000 		.long	0x9c
 1479 0141 05       		.uleb128 0x5
 1480 0142 27010000 		.long	0x127
 1481 0146 07       		.uleb128 0x7
 1482 0147 D007     		.word	0x7d0
 1483 0149 03       		.byte	0x3
 1484 014a 04       		.byte	0x4
 1485 014b 09       		.byte	0x9
 1486 014c 64010000 		.long	0x164
 1487 0150 03       		.uleb128 0x3
 1488 0151 5F76616C 		.ascii "_values\0"
 1488      75657300 
 1489 0159 03       		.byte	0x3
 1490 015a 06       		.byte	0x6
 1491 015b 06       		.byte	0x6
 1492 015c 64010000 		.long	0x164
 1493 0160 02       		.byte	0x2
 1494 0161 23       		.byte	0x23
 1495 0162 00       		.uleb128 0
 1496 0163 00       		.byte	0
 1497 0164 08       		.uleb128 0x8
 1498 0165 1B010000 		.long	0x11b
 1499 0169 75010000 		.long	0x175
 1500 016d 09       		.uleb128 0x9
 1501 016e 75010000 		.long	0x175
 1502 0172 F301     		.word	0x1f3
 1503 0174 00       		.byte	0
 1504 0175 04       		.uleb128 0x4
 1505 0176 04       		.byte	0x4
GAS LISTING C:\Users\jisu8\AppData\Local\Temp\ccIUpqyy.s 			page 39


 1506 0177 07       		.byte	0x7
 1507 0178 756E7369 		.ascii "unsigned int\0"
 1507      676E6564 
 1507      20696E74 
 1507      00
 1508 0185 06       		.uleb128 0x6
 1509 0186 42617263 		.ascii "BarcodeValue_t\0"
 1509      6F646556 
 1509      616C7565 
 1509      5F7400
 1510 0195 03       		.byte	0x3
 1511 0196 07       		.byte	0x7
 1512 0197 02       		.byte	0x2
 1513 0198 46010000 		.long	0x146
 1514 019c 0A       		.uleb128 0xa
 1515 019d 04       		.byte	0x4
 1516 019e A2010000 		.long	0x1a2
 1517 01a2 04       		.uleb128 0x4
 1518 01a3 01       		.byte	0x1
 1519 01a4 06       		.byte	0x6
 1520 01a5 63686172 		.ascii "char\0"
 1520      00
 1521 01aa 05       		.uleb128 0x5
 1522 01ab A2010000 		.long	0x1a2
 1523 01af 06       		.uleb128 0x6
 1524 01b0 77636861 		.ascii "wchar_t\0"
 1524      725F7400 
 1525 01b8 04       		.byte	0x4
 1526 01b9 62       		.byte	0x62
 1527 01ba 18       		.byte	0x18
 1528 01bb BF010000 		.long	0x1bf
 1529 01bf 04       		.uleb128 0x4
 1530 01c0 02       		.byte	0x2
 1531 01c1 07       		.byte	0x7
 1532 01c2 73686F72 		.ascii "short unsigned int\0"
 1532      7420756E 
 1532      7369676E 
 1532      65642069 
 1532      6E7400
 1533 01d5 04       		.uleb128 0x4
 1534 01d6 04       		.byte	0x4
 1535 01d7 05       		.byte	0x5
 1536 01d8 6C6F6E67 		.ascii "long int\0"
 1536      20696E74 
 1536      00
 1537 01e1 04       		.uleb128 0x4
 1538 01e2 08       		.byte	0x8
 1539 01e3 05       		.byte	0x5
 1540 01e4 6C6F6E67 		.ascii "long long int\0"
 1540      206C6F6E 
 1540      6720696E 
 1540      7400
 1541 01f2 0A       		.uleb128 0xa
 1542 01f3 04       		.byte	0x4
 1543 01f4 AF010000 		.long	0x1af
 1544 01f8 0A       		.uleb128 0xa
 1545 01f9 04       		.byte	0x4
GAS LISTING C:\Users\jisu8\AppData\Local\Temp\ccIUpqyy.s 			page 40


 1546 01fa 1B010000 		.long	0x11b
 1547 01fe 04       		.uleb128 0x4
 1548 01ff 04       		.byte	0x4
 1549 0200 07       		.byte	0x7
 1550 0201 6C6F6E67 		.ascii "long unsigned int\0"
 1550      20756E73 
 1550      69676E65 
 1550      6420696E 
 1550      7400
 1551 0213 04       		.uleb128 0x4
 1552 0214 01       		.byte	0x1
 1553 0215 08       		.byte	0x8
 1554 0216 756E7369 		.ascii "unsigned char\0"
 1554      676E6564 
 1554      20636861 
 1554      7200
 1555 0224 04       		.uleb128 0x4
 1556 0225 0C       		.byte	0xc
 1557 0226 04       		.byte	0x4
 1558 0227 6C6F6E67 		.ascii "long double\0"
 1558      20646F75 
 1558      626C6500 
 1559 0233 04       		.uleb128 0x4
 1560 0234 10       		.byte	0x10
 1561 0235 04       		.byte	0x4
 1562 0236 5F466C6F 		.ascii "_Float128\0"
 1562      61743132 
 1562      3800
 1563 0240 04       		.uleb128 0x4
 1564 0241 01       		.byte	0x1
 1565 0242 06       		.byte	0x6
 1566 0243 7369676E 		.ascii "signed char\0"
 1566      65642063 
 1566      68617200 
 1567 024f 06       		.uleb128 0x6
 1568 0250 75696E74 		.ascii "uint8_t\0"
 1568      385F7400 
 1569 0258 05       		.byte	0x5
 1570 0259 24       		.byte	0x24
 1571 025a 19       		.byte	0x19
 1572 025b 13020000 		.long	0x213
 1573 025f 04       		.uleb128 0x4
 1574 0260 02       		.byte	0x2
 1575 0261 05       		.byte	0x5
 1576 0262 73686F72 		.ascii "short int\0"
 1576      7420696E 
 1576      7400
 1577 026c 06       		.uleb128 0x6
 1578 026d 75696E74 		.ascii "uint16_t\0"
 1578      31365F74 
 1578      00
 1579 0276 05       		.byte	0x5
 1580 0277 26       		.byte	0x26
 1581 0278 19       		.byte	0x19
 1582 0279 BF010000 		.long	0x1bf
 1583 027d 06       		.uleb128 0x6
 1584 027e 75696E74 		.ascii "uint64_t\0"
GAS LISTING C:\Users\jisu8\AppData\Local\Temp\ccIUpqyy.s 			page 41


 1584      36345F74 
 1584      00
 1585 0287 05       		.byte	0x5
 1586 0288 2A       		.byte	0x2a
 1587 0289 30       		.byte	0x30
 1588 028a 8E020000 		.long	0x28e
 1589 028e 04       		.uleb128 0x4
 1590 028f 08       		.byte	0x8
 1591 0290 07       		.byte	0x7
 1592 0291 6C6F6E67 		.ascii "long long unsigned int\0"
 1592      206C6F6E 
 1592      6720756E 
 1592      7369676E 
 1592      65642069 
 1593 02a8 02       		.uleb128 0x2
 1594 02a9 08       		.byte	0x8
 1595 02aa 06       		.byte	0x6
 1596 02ab 14       		.byte	0x14
 1597 02ac 09       		.byte	0x9
 1598 02ad CC020000 		.long	0x2cc
 1599 02b1 03       		.uleb128 0x3
 1600 02b2 7800     		.ascii "x\0"
 1601 02b4 06       		.byte	0x6
 1602 02b5 16       		.byte	0x16
 1603 02b6 08       		.byte	0x8
 1604 02b7 CC020000 		.long	0x2cc
 1605 02bb 02       		.byte	0x2
 1606 02bc 23       		.byte	0x23
 1607 02bd 00       		.uleb128 0
 1608 02be 03       		.uleb128 0x3
 1609 02bf 7900     		.ascii "y\0"
 1610 02c1 06       		.byte	0x6
 1611 02c2 17       		.byte	0x17
 1612 02c3 08       		.byte	0x8
 1613 02c4 CC020000 		.long	0x2cc
 1614 02c8 02       		.byte	0x2
 1615 02c9 23       		.byte	0x23
 1616 02ca 04       		.uleb128 0x4
 1617 02cb 00       		.byte	0
 1618 02cc 04       		.uleb128 0x4
 1619 02cd 04       		.byte	0x4
 1620 02ce 04       		.byte	0x4
 1621 02cf 666C6F61 		.ascii "float\0"
 1621      7400
 1622 02d5 06       		.uleb128 0x6
 1623 02d6 506F696E 		.ascii "PointT_t\0"
 1623      74545F74 
 1623      00
 1624 02df 06       		.byte	0x6
 1625 02e0 18       		.byte	0x18
 1626 02e1 02       		.byte	0x2
 1627 02e2 A8020000 		.long	0x2a8
 1628 02e6 02       		.uleb128 0x2
 1629 02e7 0C       		.byte	0xc
 1630 02e8 06       		.byte	0x6
 1631 02e9 1A       		.byte	0x1a
 1632 02ea 09       		.byte	0x9
GAS LISTING C:\Users\jisu8\AppData\Local\Temp\ccIUpqyy.s 			page 42


 1633 02eb 0E030000 		.long	0x30e
 1634 02ef 0B       		.uleb128 0xb
 1635 02f0 00000000 		.secrel32	LASF0
 1636 02f4 06       		.byte	0x6
 1637 02f5 1C       		.byte	0x1c
 1638 02f6 0A       		.byte	0xa
 1639 02f7 4F020000 		.long	0x24f
 1640 02fb 02       		.byte	0x2
 1641 02fc 23       		.byte	0x23
 1642 02fd 00       		.uleb128 0
 1643 02fe 0B       		.uleb128 0xb
 1644 02ff 64000000 		.secrel32	LASF1
 1645 0303 06       		.byte	0x6
 1646 0304 1D       		.byte	0x1d
 1647 0305 0B       		.byte	0xb
 1648 0306 D5020000 		.long	0x2d5
 1649 030a 02       		.byte	0x2
 1650 030b 23       		.byte	0x23
 1651 030c 04       		.uleb128 0x4
 1652 030d 00       		.byte	0
 1653 030e 06       		.uleb128 0x6
 1654 030f 52657375 		.ascii "ResultPoint_t\0"
 1654      6C74506F 
 1654      696E745F 
 1654      7400
 1655 031d 06       		.byte	0x6
 1656 031e 1E       		.byte	0x1e
 1657 031f 02       		.byte	0x2
 1658 0320 E6020000 		.long	0x2e6
 1659 0324 02       		.uleb128 0x2
 1660 0325 48       		.byte	0x48
 1661 0326 07       		.byte	0x7
 1662 0327 06       		.byte	0x6
 1663 0328 09       		.byte	0x9
 1664 0329 F5030000 		.long	0x3f5
 1665 032d 03       		.uleb128 0x3
 1666 032e 5F696D67 		.ascii "_imgWidth\0"
 1666      57696474 
 1666      6800
 1667 0338 07       		.byte	0x7
 1668 0339 08       		.byte	0x8
 1669 033a 06       		.byte	0x6
 1670 033b 1B010000 		.long	0x11b
 1671 033f 02       		.byte	0x2
 1672 0340 23       		.byte	0x23
 1673 0341 00       		.uleb128 0
 1674 0342 03       		.uleb128 0x3
 1675 0343 5F696D67 		.ascii "_imgHeight\0"
 1675      48656967 
 1675      687400
 1676 034e 07       		.byte	0x7
 1677 034f 09       		.byte	0x9
 1678 0350 06       		.byte	0x6
 1679 0351 1B010000 		.long	0x11b
 1680 0355 02       		.byte	0x2
 1681 0356 23       		.byte	0x23
 1682 0357 04       		.uleb128 0x4
GAS LISTING C:\Users\jisu8\AppData\Local\Temp\ccIUpqyy.s 			page 43


 1683 0358 03       		.uleb128 0x3
 1684 0359 5F746F70 		.ascii "_topLeft\0"
 1684      4C656674 
 1684      00
 1685 0362 07       		.byte	0x7
 1686 0363 0A       		.byte	0xa
 1687 0364 10       		.byte	0x10
 1688 0365 0E030000 		.long	0x30e
 1689 0369 02       		.byte	0x2
 1690 036a 23       		.byte	0x23
 1691 036b 08       		.uleb128 0x8
 1692 036c 03       		.uleb128 0x3
 1693 036d 5F626F74 		.ascii "_bottomLeft\0"
 1693      746F6D4C 
 1693      65667400 
 1694 0379 07       		.byte	0x7
 1695 037a 0B       		.byte	0xb
 1696 037b 10       		.byte	0x10
 1697 037c 0E030000 		.long	0x30e
 1698 0380 02       		.byte	0x2
 1699 0381 23       		.byte	0x23
 1700 0382 14       		.uleb128 0x14
 1701 0383 03       		.uleb128 0x3
 1702 0384 5F746F70 		.ascii "_topRight\0"
 1702      52696768 
 1702      7400
 1703 038e 07       		.byte	0x7
 1704 038f 0C       		.byte	0xc
 1705 0390 10       		.byte	0x10
 1706 0391 0E030000 		.long	0x30e
 1707 0395 02       		.byte	0x2
 1708 0396 23       		.byte	0x23
 1709 0397 20       		.uleb128 0x20
 1710 0398 03       		.uleb128 0x3
 1711 0399 5F626F74 		.ascii "_bottomRight\0"
 1711      746F6D52 
 1711      69676874 
 1711      00
 1712 03a6 07       		.byte	0x7
 1713 03a7 0D       		.byte	0xd
 1714 03a8 10       		.byte	0x10
 1715 03a9 0E030000 		.long	0x30e
 1716 03ad 02       		.byte	0x2
 1717 03ae 23       		.byte	0x23
 1718 03af 2C       		.uleb128 0x2c
 1719 03b0 03       		.uleb128 0x3
 1720 03b1 5F6D696E 		.ascii "_minX\0"
 1720      5800
 1721 03b7 07       		.byte	0x7
 1722 03b8 0E       		.byte	0xe
 1723 03b9 06       		.byte	0x6
 1724 03ba 1B010000 		.long	0x11b
 1725 03be 02       		.byte	0x2
 1726 03bf 23       		.byte	0x23
 1727 03c0 38       		.uleb128 0x38
 1728 03c1 03       		.uleb128 0x3
 1729 03c2 5F6D6178 		.ascii "_maxX\0"
GAS LISTING C:\Users\jisu8\AppData\Local\Temp\ccIUpqyy.s 			page 44


 1729      5800
 1730 03c8 07       		.byte	0x7
 1731 03c9 0F       		.byte	0xf
 1732 03ca 06       		.byte	0x6
 1733 03cb 1B010000 		.long	0x11b
 1734 03cf 02       		.byte	0x2
 1735 03d0 23       		.byte	0x23
 1736 03d1 3C       		.uleb128 0x3c
 1737 03d2 03       		.uleb128 0x3
 1738 03d3 5F6D696E 		.ascii "_minY\0"
 1738      5900
 1739 03d9 07       		.byte	0x7
 1740 03da 10       		.byte	0x10
 1741 03db 06       		.byte	0x6
 1742 03dc 1B010000 		.long	0x11b
 1743 03e0 02       		.byte	0x2
 1744 03e1 23       		.byte	0x23
 1745 03e2 40       		.uleb128 0x40
 1746 03e3 03       		.uleb128 0x3
 1747 03e4 5F6D6178 		.ascii "_maxY\0"
 1747      5900
 1748 03ea 07       		.byte	0x7
 1749 03eb 11       		.byte	0x11
 1750 03ec 06       		.byte	0x6
 1751 03ed 1B010000 		.long	0x11b
 1752 03f1 02       		.byte	0x2
 1753 03f2 23       		.byte	0x23
 1754 03f3 44       		.uleb128 0x44
 1755 03f4 00       		.byte	0
 1756 03f5 06       		.uleb128 0x6
 1757 03f6 426F756E 		.ascii "BoundingBox_val_t\0"
 1757      64696E67 
 1757      426F785F 
 1757      76616C5F 
 1757      7400
 1758 0408 07       		.byte	0x7
 1759 0409 12       		.byte	0x12
 1760 040a 02       		.byte	0x2
 1761 040b 24030000 		.long	0x324
 1762 040f 02       		.uleb128 0x2
 1763 0410 4C       		.byte	0x4c
 1764 0411 07       		.byte	0x7
 1765 0412 14       		.byte	0x14
 1766 0413 09       		.byte	0x9
 1767 0414 37040000 		.long	0x437
 1768 0418 0B       		.uleb128 0xb
 1769 0419 00000000 		.secrel32	LASF0
 1770 041d 07       		.byte	0x7
 1771 041e 16       		.byte	0x16
 1772 041f 0A       		.byte	0xa
 1773 0420 4F020000 		.long	0x24f
 1774 0424 02       		.byte	0x2
 1775 0425 23       		.byte	0x23
 1776 0426 00       		.uleb128 0
 1777 0427 0B       		.uleb128 0xb
 1778 0428 64000000 		.secrel32	LASF1
 1779 042c 07       		.byte	0x7
GAS LISTING C:\Users\jisu8\AppData\Local\Temp\ccIUpqyy.s 			page 45


 1780 042d 17       		.byte	0x17
 1781 042e 14       		.byte	0x14
 1782 042f F5030000 		.long	0x3f5
 1783 0433 02       		.byte	0x2
 1784 0434 23       		.byte	0x23
 1785 0435 04       		.uleb128 0x4
 1786 0436 00       		.byte	0
 1787 0437 06       		.uleb128 0x6
 1788 0438 426F756E 		.ascii "BoundingBox_t\0"
 1788      64696E67 
 1788      426F785F 
 1788      7400
 1789 0446 07       		.byte	0x7
 1790 0447 18       		.byte	0x18
 1791 0448 02       		.byte	0x2
 1792 0449 0F040000 		.long	0x40f
 1793 044d 05       		.uleb128 0x5
 1794 044e 37040000 		.long	0x437
 1795 0452 02       		.uleb128 0x2
 1796 0453 14       		.byte	0x14
 1797 0454 08       		.byte	0x8
 1798 0455 04       		.byte	0x4
 1799 0456 09       		.byte	0x9
 1800 0457 BB040000 		.long	0x4bb
 1801 045b 03       		.uleb128 0x3
 1802 045c 5F737461 		.ascii "_startX\0"
 1802      72745800 
 1803 0464 08       		.byte	0x8
 1804 0465 06       		.byte	0x6
 1805 0466 06       		.byte	0x6
 1806 0467 1B010000 		.long	0x11b
 1807 046b 02       		.byte	0x2
 1808 046c 23       		.byte	0x23
 1809 046d 00       		.uleb128 0
 1810 046e 03       		.uleb128 0x3
 1811 046f 5F656E64 		.ascii "_endX\0"
 1811      5800
 1812 0475 08       		.byte	0x8
 1813 0476 07       		.byte	0x7
 1814 0477 06       		.byte	0x6
 1815 0478 1B010000 		.long	0x11b
 1816 047c 02       		.byte	0x2
 1817 047d 23       		.byte	0x23
 1818 047e 04       		.uleb128 0x4
 1819 047f 03       		.uleb128 0x3
 1820 0480 5F627563 		.ascii "_bucket\0"
 1820      6B657400 
 1821 0488 08       		.byte	0x8
 1822 0489 08       		.byte	0x8
 1823 048a 06       		.byte	0x6
 1824 048b 1B010000 		.long	0x11b
 1825 048f 02       		.byte	0x2
 1826 0490 23       		.byte	0x23
 1827 0491 08       		.uleb128 0x8
 1828 0492 03       		.uleb128 0x3
 1829 0493 5F76616C 		.ascii "_value\0"
 1829      756500
GAS LISTING C:\Users\jisu8\AppData\Local\Temp\ccIUpqyy.s 			page 46


 1830 049a 08       		.byte	0x8
 1831 049b 09       		.byte	0x9
 1832 049c 06       		.byte	0x6
 1833 049d 1B010000 		.long	0x11b
 1834 04a1 02       		.byte	0x2
 1835 04a2 23       		.byte	0x23
 1836 04a3 0C       		.uleb128 0xc
 1837 04a4 03       		.uleb128 0x3
 1838 04a5 5F726F77 		.ascii "_rowNumber\0"
 1838      4E756D62 
 1838      657200
 1839 04b0 08       		.byte	0x8
 1840 04b1 0A       		.byte	0xa
 1841 04b2 06       		.byte	0x6
 1842 04b3 1B010000 		.long	0x11b
 1843 04b7 02       		.byte	0x2
 1844 04b8 23       		.byte	0x23
 1845 04b9 10       		.uleb128 0x10
 1846 04ba 00       		.byte	0
 1847 04bb 06       		.uleb128 0x6
 1848 04bc 436F6465 		.ascii "Codeword_val_t\0"
 1848      776F7264 
 1848      5F76616C 
 1848      5F7400
 1849 04cb 08       		.byte	0x8
 1850 04cc 0B       		.byte	0xb
 1851 04cd 02       		.byte	0x2
 1852 04ce 52040000 		.long	0x452
 1853 04d2 02       		.uleb128 0x2
 1854 04d3 18       		.byte	0x18
 1855 04d4 08       		.byte	0x8
 1856 04d5 0C       		.byte	0xc
 1857 04d6 09       		.byte	0x9
 1858 04d7 FA040000 		.long	0x4fa
 1859 04db 0B       		.uleb128 0xb
 1860 04dc 00000000 		.secrel32	LASF0
 1861 04e0 08       		.byte	0x8
 1862 04e1 0E       		.byte	0xe
 1863 04e2 0A       		.byte	0xa
 1864 04e3 4F020000 		.long	0x24f
 1865 04e7 02       		.byte	0x2
 1866 04e8 23       		.byte	0x23
 1867 04e9 00       		.uleb128 0
 1868 04ea 0B       		.uleb128 0xb
 1869 04eb 64000000 		.secrel32	LASF1
 1870 04ef 08       		.byte	0x8
 1871 04f0 0F       		.byte	0xf
 1872 04f1 11       		.byte	0x11
 1873 04f2 BB040000 		.long	0x4bb
 1874 04f6 02       		.byte	0x2
 1875 04f7 23       		.byte	0x23
 1876 04f8 04       		.uleb128 0x4
 1877 04f9 00       		.byte	0
 1878 04fa 06       		.uleb128 0x6
 1879 04fb 436F6465 		.ascii "Codeword_t\0"
 1879      776F7264 
 1879      5F7400
GAS LISTING C:\Users\jisu8\AppData\Local\Temp\ccIUpqyy.s 			page 47


 1880 0506 08       		.byte	0x8
 1881 0507 10       		.byte	0x10
 1882 0508 02       		.byte	0x2
 1883 0509 D2040000 		.long	0x4d2
 1884 050d 0C       		.uleb128 0xc
 1885 050e 07       		.byte	0x7
 1886 050f 04       		.byte	0x4
 1887 0510 75010000 		.long	0x175
 1888 0514 09       		.byte	0x9
 1889 0515 09       		.byte	0x9
 1890 0516 01       		.byte	0x1
 1891 0517 32050000 		.long	0x532
 1892 051b 0D       		.uleb128 0xd
 1893 051c 4E6F6E65 		.ascii "None\0"
 1893      00
 1894 0521 00       		.byte	0
 1895 0522 0D       		.uleb128 0xd
 1896 0523 4C656674 		.ascii "Left\0"
 1896      00
 1897 0528 01       		.byte	0x1
 1898 0529 0D       		.uleb128 0xd
 1899 052a 52696768 		.ascii "Right\0"
 1899      7400
 1900 0530 02       		.byte	0x2
 1901 0531 00       		.byte	0
 1902 0532 06       		.uleb128 0x6
 1903 0533 526F7749 		.ascii "RowIndicator_t\0"
 1903      6E646963 
 1903      61746F72 
 1903      5F7400
 1904 0542 09       		.byte	0x9
 1905 0543 0D       		.byte	0xd
 1906 0544 02       		.byte	0x2
 1907 0545 0D050000 		.long	0x50d
 1908 0549 07       		.uleb128 0x7
 1909 054a 302F     		.word	0x2f30
 1910 054c 09       		.byte	0x9
 1911 054d 0F       		.byte	0xf
 1912 054e 09       		.byte	0x9
 1913 054f 9C050000 		.long	0x59c
 1914 0553 03       		.uleb128 0x3
 1915 0554 5F626F75 		.ascii "_boundingBox\0"
 1915      6E64696E 
 1915      67426F78 
 1915      00
 1916 0561 09       		.byte	0x9
 1917 0562 11       		.byte	0x11
 1918 0563 10       		.byte	0x10
 1919 0564 37040000 		.long	0x437
 1920 0568 02       		.byte	0x2
 1921 0569 23       		.byte	0x23
 1922 056a 00       		.uleb128 0
 1923 056b 03       		.uleb128 0x3
 1924 056c 5F636F64 		.ascii "_codewords\0"
 1924      65776F72 
 1924      647300
 1925 0577 09       		.byte	0x9
GAS LISTING C:\Users\jisu8\AppData\Local\Temp\ccIUpqyy.s 			page 48


 1926 0578 12       		.byte	0x12
 1927 0579 0D       		.byte	0xd
 1928 057a 9C050000 		.long	0x59c
 1929 057e 02       		.byte	0x2
 1930 057f 23       		.byte	0x23
 1931 0580 4C       		.uleb128 0x4c
 1932 0581 03       		.uleb128 0x3
 1933 0582 5F726F77 		.ascii "_rowIndicator\0"
 1933      496E6469 
 1933      6361746F 
 1933      7200
 1934 0590 09       		.byte	0x9
 1935 0591 13       		.byte	0x13
 1936 0592 11       		.byte	0x11
 1937 0593 32050000 		.long	0x532
 1938 0597 03       		.byte	0x3
 1939 0598 23       		.byte	0x23
 1940 0599 AC5E     		.uleb128 0x2f2c
 1941 059b 00       		.byte	0
 1942 059c 08       		.uleb128 0x8
 1943 059d FA040000 		.long	0x4fa
 1944 05a1 AD050000 		.long	0x5ad
 1945 05a5 09       		.uleb128 0x9
 1946 05a6 75010000 		.long	0x175
 1947 05aa F301     		.word	0x1f3
 1948 05ac 00       		.byte	0
 1949 05ad 06       		.uleb128 0x6
 1950 05ae 44657465 		.ascii "DetectionResultColumn_val_t\0"
 1950      6374696F 
 1950      6E526573 
 1950      756C7443 
 1950      6F6C756D 
 1951 05ca 09       		.byte	0x9
 1952 05cb 14       		.byte	0x14
 1953 05cc 02       		.byte	0x2
 1954 05cd 49050000 		.long	0x549
 1955 05d1 07       		.uleb128 0x7
 1956 05d2 342F     		.word	0x2f34
 1957 05d4 09       		.byte	0x9
 1958 05d5 15       		.byte	0x15
 1959 05d6 09       		.byte	0x9
 1960 05d7 FA050000 		.long	0x5fa
 1961 05db 0B       		.uleb128 0xb
 1962 05dc 00000000 		.secrel32	LASF0
 1963 05e0 09       		.byte	0x9
 1964 05e1 17       		.byte	0x17
 1965 05e2 0A       		.byte	0xa
 1966 05e3 4F020000 		.long	0x24f
 1967 05e7 02       		.byte	0x2
 1968 05e8 23       		.byte	0x23
 1969 05e9 00       		.uleb128 0
 1970 05ea 0B       		.uleb128 0xb
 1971 05eb 64000000 		.secrel32	LASF1
 1972 05ef 09       		.byte	0x9
 1973 05f0 18       		.byte	0x18
 1974 05f1 1E       		.byte	0x1e
 1975 05f2 AD050000 		.long	0x5ad
GAS LISTING C:\Users\jisu8\AppData\Local\Temp\ccIUpqyy.s 			page 49


 1976 05f6 02       		.byte	0x2
 1977 05f7 23       		.byte	0x23
 1978 05f8 04       		.uleb128 0x4
 1979 05f9 00       		.byte	0
 1980 05fa 06       		.uleb128 0x6
 1981 05fb 44657465 		.ascii "DetectionResultColumn_t\0"
 1981      6374696F 
 1981      6E526573 
 1981      756C7443 
 1981      6F6C756D 
 1982 0613 09       		.byte	0x9
 1983 0614 19       		.byte	0x19
 1984 0615 02       		.byte	0x2
 1985 0616 D1050000 		.long	0x5d1
 1986 061a 0E       		.uleb128 0xe
 1987 061b 0B000000 		.secrel32	LASF2
 1988 061f 0C       		.byte	0xc
 1989 0620 0D       		.byte	0xd
 1990 0621 20       		.byte	0x20
 1991 0622 FA050000 		.long	0x5fa
 1992 0626 01       		.byte	0x1
 1993 0627 01       		.byte	0x1
 1994 0628 04       		.uleb128 0x4
 1995 0629 08       		.byte	0x8
 1996 062a 04       		.byte	0x4
 1997 062b 646F7562 		.ascii "double\0"
 1997      6C6500
 1998 0632 0F       		.uleb128 0xf
 1999 0633 5F696D70 		.ascii "_imp____mb_cur_max\0"
 1999      5F5F5F5F 
 1999      6D625F63 
 1999      75725F6D 
 1999      617800
 2000 0646 0A       		.byte	0xa
 2001 0647 73       		.byte	0x73
 2002 0648 10       		.byte	0x10
 2003 0649 F8010000 		.long	0x1f8
 2004 064d 01       		.byte	0x1
 2005 064e 01       		.byte	0x1
 2006 064f 08       		.uleb128 0x8
 2007 0650 9C010000 		.long	0x19c
 2008 0654 5F060000 		.long	0x65f
 2009 0658 10       		.uleb128 0x10
 2010 0659 75010000 		.long	0x175
 2011 065d 00       		.byte	0
 2012 065e 00       		.byte	0
 2013 065f 0F       		.uleb128 0xf
 2014 0660 5F737973 		.ascii "_sys_errlist\0"
 2014      5F657272 
 2014      6C697374 
 2014      00
 2015 066d 0A       		.byte	0xa
 2016 066e AC       		.byte	0xac
 2017 066f 26       		.byte	0x26
 2018 0670 4F060000 		.long	0x64f
 2019 0674 01       		.byte	0x1
 2020 0675 01       		.byte	0x1
GAS LISTING C:\Users\jisu8\AppData\Local\Temp\ccIUpqyy.s 			page 50


 2021 0676 0F       		.uleb128 0xf
 2022 0677 5F737973 		.ascii "_sys_nerr\0"
 2022      5F6E6572 
 2022      7200
 2023 0681 0A       		.byte	0xa
 2024 0682 AD       		.byte	0xad
 2025 0683 24       		.byte	0x24
 2026 0684 1B010000 		.long	0x11b
 2027 0688 01       		.byte	0x1
 2028 0689 01       		.byte	0x1
 2029 068a 11       		.uleb128 0x11
 2030 068b 5F696D70 		.ascii "_imp____argc\0"
 2030      5F5F5F5F 
 2030      61726763 
 2030      00
 2031 0698 0A       		.byte	0xa
 2032 0699 1901     		.word	0x119
 2033 069b 10       		.byte	0x10
 2034 069c F8010000 		.long	0x1f8
 2035 06a0 01       		.byte	0x1
 2036 06a1 01       		.byte	0x1
 2037 06a2 11       		.uleb128 0x11
 2038 06a3 5F696D70 		.ascii "_imp____argv\0"
 2038      5F5F5F5F 
 2038      61726776 
 2038      00
 2039 06b0 0A       		.byte	0xa
 2040 06b1 1D01     		.word	0x11d
 2041 06b3 13       		.byte	0x13
 2042 06b4 BA060000 		.long	0x6ba
 2043 06b8 01       		.byte	0x1
 2044 06b9 01       		.byte	0x1
 2045 06ba 0A       		.uleb128 0xa
 2046 06bb 04       		.byte	0x4
 2047 06bc C0060000 		.long	0x6c0
 2048 06c0 0A       		.uleb128 0xa
 2049 06c1 04       		.byte	0x4
 2050 06c2 9C010000 		.long	0x19c
 2051 06c6 11       		.uleb128 0x11
 2052 06c7 5F696D70 		.ascii "_imp____wargv\0"
 2052      5F5F5F5F 
 2052      77617267 
 2052      7600
 2053 06d5 0A       		.byte	0xa
 2054 06d6 2101     		.word	0x121
 2055 06d8 16       		.byte	0x16
 2056 06d9 DF060000 		.long	0x6df
 2057 06dd 01       		.byte	0x1
 2058 06de 01       		.byte	0x1
 2059 06df 0A       		.uleb128 0xa
 2060 06e0 04       		.byte	0x4
 2061 06e1 E5060000 		.long	0x6e5
 2062 06e5 0A       		.uleb128 0xa
 2063 06e6 04       		.byte	0x4
 2064 06e7 F2010000 		.long	0x1f2
 2065 06eb 11       		.uleb128 0x11
 2066 06ec 5F696D70 		.ascii "_imp___environ\0"
GAS LISTING C:\Users\jisu8\AppData\Local\Temp\ccIUpqyy.s 			page 51


 2066      5F5F5F65 
 2066      6E766972 
 2066      6F6E00
 2067 06fb 0A       		.byte	0xa
 2068 06fc 2701     		.word	0x127
 2069 06fe 13       		.byte	0x13
 2070 06ff BA060000 		.long	0x6ba
 2071 0703 01       		.byte	0x1
 2072 0704 01       		.byte	0x1
 2073 0705 11       		.uleb128 0x11
 2074 0706 5F696D70 		.ascii "_imp___wenviron\0"
 2074      5F5F5F77 
 2074      656E7669 
 2074      726F6E00 
 2075 0716 0A       		.byte	0xa
 2076 0717 2C01     		.word	0x12c
 2077 0719 16       		.byte	0x16
 2078 071a DF060000 		.long	0x6df
 2079 071e 01       		.byte	0x1
 2080 071f 01       		.byte	0x1
 2081 0720 11       		.uleb128 0x11
 2082 0721 5F696D70 		.ascii "_imp___pgmptr\0"
 2082      5F5F5F70 
 2082      676D7074 
 2082      7200
 2083 072f 0A       		.byte	0xa
 2084 0730 3201     		.word	0x132
 2085 0732 12       		.byte	0x12
 2086 0733 C0060000 		.long	0x6c0
 2087 0737 01       		.byte	0x1
 2088 0738 01       		.byte	0x1
 2089 0739 11       		.uleb128 0x11
 2090 073a 5F696D70 		.ascii "_imp___wpgmptr\0"
 2090      5F5F5F77 
 2090      70676D70 
 2090      747200
 2091 0749 0A       		.byte	0xa
 2092 074a 3701     		.word	0x137
 2093 074c 15       		.byte	0x15
 2094 074d E5060000 		.long	0x6e5
 2095 0751 01       		.byte	0x1
 2096 0752 01       		.byte	0x1
 2097 0753 11       		.uleb128 0x11
 2098 0754 5F696D70 		.ascii "_imp___osplatform\0"
 2098      5F5F5F6F 
 2098      73706C61 
 2098      74666F72 
 2098      6D00
 2099 0766 0A       		.byte	0xa
 2100 0767 3C01     		.word	0x13c
 2101 0769 19       		.byte	0x19
 2102 076a 70070000 		.long	0x770
 2103 076e 01       		.byte	0x1
 2104 076f 01       		.byte	0x1
 2105 0770 0A       		.uleb128 0xa
 2106 0771 04       		.byte	0x4
 2107 0772 75010000 		.long	0x175
GAS LISTING C:\Users\jisu8\AppData\Local\Temp\ccIUpqyy.s 			page 52


 2108 0776 11       		.uleb128 0x11
 2109 0777 5F696D70 		.ascii "_imp___osver\0"
 2109      5F5F5F6F 
 2109      73766572 
 2109      00
 2110 0784 0A       		.byte	0xa
 2111 0785 4101     		.word	0x141
 2112 0787 19       		.byte	0x19
 2113 0788 70070000 		.long	0x770
 2114 078c 01       		.byte	0x1
 2115 078d 01       		.byte	0x1
 2116 078e 11       		.uleb128 0x11
 2117 078f 5F696D70 		.ascii "_imp___winver\0"
 2117      5F5F5F77 
 2117      696E7665 
 2117      7200
 2118 079d 0A       		.byte	0xa
 2119 079e 4601     		.word	0x146
 2120 07a0 19       		.byte	0x19
 2121 07a1 70070000 		.long	0x770
 2122 07a5 01       		.byte	0x1
 2123 07a6 01       		.byte	0x1
 2124 07a7 11       		.uleb128 0x11
 2125 07a8 5F696D70 		.ascii "_imp___winmajor\0"
 2125      5F5F5F77 
 2125      696E6D61 
 2125      6A6F7200 
 2126 07b8 0A       		.byte	0xa
 2127 07b9 4B01     		.word	0x14b
 2128 07bb 19       		.byte	0x19
 2129 07bc 70070000 		.long	0x770
 2130 07c0 01       		.byte	0x1
 2131 07c1 01       		.byte	0x1
 2132 07c2 11       		.uleb128 0x11
 2133 07c3 5F696D70 		.ascii "_imp___winminor\0"
 2133      5F5F5F77 
 2133      696E6D69 
 2133      6E6F7200 
 2134 07d3 0A       		.byte	0xa
 2135 07d4 5001     		.word	0x150
 2136 07d6 19       		.byte	0x19
 2137 07d7 70070000 		.long	0x770
 2138 07db 01       		.byte	0x1
 2139 07dc 01       		.byte	0x1
 2140 07dd 0F       		.uleb128 0xf
 2141 07de 5F616D62 		.ascii "_amblksiz\0"
 2141      6C6B7369 
 2141      7A00
 2142 07e8 0B       		.byte	0xb
 2143 07e9 35       		.byte	0x35
 2144 07ea 17       		.byte	0x17
 2145 07eb 75010000 		.long	0x175
 2146 07ef 01       		.byte	0x1
 2147 07f0 01       		.byte	0x1
 2148 07f1 12       		.uleb128 0x12
 2149 07f2 4D41585F 		.ascii "MAX_NEARBY_DISTANCE\0"
 2149      4E454152 
GAS LISTING C:\Users\jisu8\AppData\Local\Temp\ccIUpqyy.s 			page 53


 2149      42595F44 
 2149      49535441 
 2149      4E434500 
 2150 0806 01       		.byte	0x1
 2151 0807 17       		.byte	0x17
 2152 0808 12       		.byte	0x12
 2153 0809 22010000 		.long	0x122
 2154 080d 05       		.byte	0x5
 2155 080e 03       		.byte	0x3
 2156 080f 00000000 		.long	_MAX_NEARBY_DISTANCE
 2157 0813 12       		.uleb128 0x12
 2158 0814 4D494E5F 		.ascii "MIN_ROWS_IN_BARCODE\0"
 2158      524F5753 
 2158      5F494E5F 
 2158      42415243 
 2158      4F444500 
 2159 0828 01       		.byte	0x1
 2160 0829 18       		.byte	0x18
 2161 082a 12       		.byte	0x12
 2162 082b 22010000 		.long	0x122
 2163 082f 05       		.byte	0x5
 2164 0830 03       		.byte	0x3
 2165 0831 04000000 		.long	_MIN_ROWS_IN_BARCODE
 2166 0835 12       		.uleb128 0x12
 2167 0836 4D41585F 		.ascii "MAX_ROWS_IN_BARCODE\0"
 2167      524F5753 
 2167      5F494E5F 
 2167      42415243 
 2167      4F444500 
 2168 084a 01       		.byte	0x1
 2169 084b 19       		.byte	0x19
 2170 084c 12       		.byte	0x12
 2171 084d 22010000 		.long	0x122
 2172 0851 05       		.byte	0x5
 2173 0852 03       		.byte	0x3
 2174 0853 08000000 		.long	_MAX_ROWS_IN_BARCODE
 2175 0857 08       		.uleb128 0x8
 2176 0858 1B010000 		.long	0x11b
 2177 085c 68080000 		.long	0x868
 2178 0860 09       		.uleb128 0x9
 2179 0861 75010000 		.long	0x175
 2180 0865 E703     		.word	0x3e7
 2181 0867 00       		.byte	0
 2182 0868 13       		.uleb128 0x13
 2183 0869 43000000 		.secrel32	LASF3
 2184 086d 01       		.byte	0x1
 2185 086e 1B       		.byte	0x1b
 2186 086f 05       		.byte	0x5
 2187 0870 57080000 		.long	0x857
 2188 0874 01       		.byte	0x1
 2189 0875 05       		.byte	0x5
 2190 0876 03       		.byte	0x3
 2191 0877 00000000 		.long	_codewords
 2192 087b 14       		.uleb128 0x14
 2193 087c 01       		.byte	0x1
 2194 087d 67657442 		.ascii "getBarcodeMetadata\0"
 2194      6172636F 
GAS LISTING C:\Users\jisu8\AppData\Local\Temp\ccIUpqyy.s 			page 54


 2194      64654D65 
 2194      74616461 
 2194      746100
 2195 0890 01       		.byte	0x1
 2196 0891 7E01     		.word	0x17e
 2197 0893 09       		.byte	0x9
 2198 0894 01       		.byte	0x1
 2199 0895 4F020000 		.long	0x24f
 2200 0899 62070000 		.long	LFB13
 2201 089d 760A0000 		.long	LFE13
 2202 08a1 00000000 		.secrel32	LLST9
 2203 08a5 01       		.byte	0x1
 2204 08a6 2B0A0000 		.long	0xa2b
 2205 08aa 15       		.uleb128 0x15
 2206 08ab 1E000000 		.secrel32	LASF4
 2207 08af 01       		.byte	0x1
 2208 08b0 7E01     		.word	0x17e
 2209 08b2 36       		.byte	0x36
 2210 08b3 2B0A0000 		.long	0xa2b
 2211 08b7 02       		.byte	0x2
 2212 08b8 91       		.byte	0x91
 2213 08b9 00       		.sleb128 0
 2214 08ba 16       		.uleb128 0x16
 2215 08bb 72657375 		.ascii "result\0"
 2215      6C7400
 2216 08c2 01       		.byte	0x1
 2217 08c3 7E01     		.word	0x17e
 2218 08c5 5E       		.byte	0x5e
 2219 08c6 310A0000 		.long	0xa31
 2220 08ca 02       		.byte	0x2
 2221 08cb 91       		.byte	0x91
 2222 08cc 04       		.sleb128 4
 2223 08cd 15       		.uleb128 0x15
 2224 08ce 4D000000 		.secrel32	LASF5
 2225 08d2 01       		.byte	0x1
 2226 08d3 7E01     		.word	0x17e
 2227 08d5 69       		.byte	0x69
 2228 08d6 1B010000 		.long	0x11b
 2229 08da 02       		.byte	0x2
 2230 08db 91       		.byte	0x91
 2231 08dc 08       		.sleb128 8
 2232 08dd 17       		.uleb128 0x17
 2233 08de 01       		.byte	0x1
 2234 08df 9F000000 		.secrel32	LASF8
 2235 08e3 0D       		.byte	0xd
 2236 08e4 00       		.byte	0
 2237 08e5 01       		.byte	0x1
 2238 08e6 1B010000 		.long	0x11b
 2239 08ea 01       		.byte	0x1
 2240 08eb F6080000 		.long	0x8f6
 2241 08ef 18       		.uleb128 0x18
 2242 08f0 370A0000 		.long	0xa37
 2243 08f4 19       		.uleb128 0x19
 2244 08f5 00       		.byte	0
 2245 08f6 1A       		.uleb128 0x1a
 2246 08f7 43000000 		.secrel32	LASF3
 2247 08fb 01       		.byte	0x1
GAS LISTING C:\Users\jisu8\AppData\Local\Temp\ccIUpqyy.s 			page 55


 2248 08fc 8701     		.word	0x187
 2249 08fe 0F       		.byte	0xf
 2250 08ff 3D0A0000 		.long	0xa3d
 2251 0903 02       		.byte	0x2
 2252 0904 91       		.byte	0x91
 2253 0905 64       		.sleb128 -28
 2254 0906 1B       		.uleb128 0x1b
 2255 0907 62617263 		.ascii "barcodeColumnCount\0"
 2255      6F646543 
 2255      6F6C756D 
 2255      6E436F75 
 2255      6E7400
 2256 091a 01       		.byte	0x1
 2257 091b 8801     		.word	0x188
 2258 091d 11       		.byte	0x11
 2259 091e 85010000 		.long	0x185
 2260 0922 03       		.byte	0x3
 2261 0923 91       		.byte	0x91
 2262 0924 8070     		.sleb128 -2048
 2263 0926 1B       		.uleb128 0x1b
 2264 0927 62617263 		.ascii "barcodeRowCountUpperPart\0"
 2264      6F646552 
 2264      6F77436F 
 2264      756E7455 
 2264      70706572 
 2265 0940 01       		.byte	0x1
 2266 0941 8901     		.word	0x189
 2267 0943 11       		.byte	0x11
 2268 0944 85010000 		.long	0x185
 2269 0948 03       		.byte	0x3
 2270 0949 91       		.byte	0x91
 2271 094a B060     		.sleb128 -4048
 2272 094c 1B       		.uleb128 0x1b
 2273 094d 62617263 		.ascii "barcodeRowCountLowerPart\0"
 2273      6F646552 
 2273      6F77436F 
 2273      756E744C 
 2273      6F776572 
 2274 0966 01       		.byte	0x1
 2275 0967 8A01     		.word	0x18a
 2276 0969 11       		.byte	0x11
 2277 096a 85010000 		.long	0x185
 2278 096e 03       		.byte	0x3
 2279 096f 91       		.byte	0x91
 2280 0970 E050     		.sleb128 -6048
 2281 0972 1B       		.uleb128 0x1b
 2282 0973 62617263 		.ascii "barcodeECLevel\0"
 2282      6F646545 
 2282      434C6576 
 2282      656C00
 2283 0982 01       		.byte	0x1
 2284 0983 8B01     		.word	0x18b
 2285 0985 11       		.byte	0x11
 2286 0986 85010000 		.long	0x185
 2287 098a 03       		.byte	0x3
 2288 098b 91       		.byte	0x91
 2289 098c 9041     		.sleb128 -8048
GAS LISTING C:\Users\jisu8\AppData\Local\Temp\ccIUpqyy.s 			page 56


 2290 098e 1B       		.uleb128 0x1b
 2291 098f 636300   		.ascii "cc\0"
 2292 0992 01       		.byte	0x1
 2293 0993 B001     		.word	0x1b0
 2294 0995 06       		.byte	0x6
 2295 0996 1B010000 		.long	0x11b
 2296 099a 02       		.byte	0x2
 2297 099b 91       		.byte	0x91
 2298 099c 5C       		.sleb128 -36
 2299 099d 1B       		.uleb128 0x1b
 2300 099e 72637500 		.ascii "rcu\0"
 2301 09a2 01       		.byte	0x1
 2302 09a3 B101     		.word	0x1b1
 2303 09a5 06       		.byte	0x6
 2304 09a6 1B010000 		.long	0x11b
 2305 09aa 02       		.byte	0x2
 2306 09ab 91       		.byte	0x91
 2307 09ac 58       		.sleb128 -40
 2308 09ad 1B       		.uleb128 0x1b
 2309 09ae 72636C00 		.ascii "rcl\0"
 2310 09b2 01       		.byte	0x1
 2311 09b3 B201     		.word	0x1b2
 2312 09b5 06       		.byte	0x6
 2313 09b6 1B010000 		.long	0x11b
 2314 09ba 02       		.byte	0x2
 2315 09bb 91       		.byte	0x91
 2316 09bc 54       		.sleb128 -44
 2317 09bd 1B       		.uleb128 0x1b
 2318 09be 656300   		.ascii "ec\0"
 2319 09c1 01       		.byte	0x1
 2320 09c2 B301     		.word	0x1b3
 2321 09c4 06       		.byte	0x6
 2322 09c5 1B010000 		.long	0x11b
 2323 09c9 02       		.byte	0x2
 2324 09ca 91       		.byte	0x91
 2325 09cb 50       		.sleb128 -48
 2326 09cc 1C       		.uleb128 0x1c
 2327 09cd A4070000 		.long	LBB11
 2328 09d1 FC070000 		.long	LBE11
 2329 09d5 E8090000 		.long	0x9e8
 2330 09d9 1B       		.uleb128 0x1b
 2331 09da 6900     		.ascii "i\0"
 2332 09dc 01       		.byte	0x1
 2333 09dd 8C01     		.word	0x18c
 2334 09df 10       		.byte	0x10
 2335 09e0 6C020000 		.long	0x26c
 2336 09e4 02       		.byte	0x2
 2337 09e5 91       		.byte	0x91
 2338 09e6 6E       		.sleb128 -18
 2339 09e7 00       		.byte	0
 2340 09e8 1D       		.uleb128 0x1d
 2341 09e9 FC070000 		.long	LBB12
 2342 09ed 92090000 		.long	LBE12
 2343 09f1 1B       		.uleb128 0x1b
 2344 09f2 6900     		.ascii "i\0"
 2345 09f4 01       		.byte	0x1
 2346 09f5 9301     		.word	0x193
GAS LISTING C:\Users\jisu8\AppData\Local\Temp\ccIUpqyy.s 			page 57


 2347 09f7 10       		.byte	0x10
 2348 09f8 6C020000 		.long	0x26c
 2349 09fc 02       		.byte	0x2
 2350 09fd 91       		.byte	0x91
 2351 09fe 6C       		.sleb128 -20
 2352 09ff 1D       		.uleb128 0x1d
 2353 0a00 07080000 		.long	LBB13
 2354 0a04 7A090000 		.long	LBE13
 2355 0a08 1A       		.uleb128 0x1a
 2356 0a09 8D000000 		.secrel32	LASF6
 2357 0a0d 01       		.byte	0x1
 2358 0a0e 9B01     		.word	0x19b
 2359 0a10 07       		.byte	0x7
 2360 0a11 1B010000 		.long	0x11b
 2361 0a15 02       		.byte	0x2
 2362 0a16 91       		.byte	0x91
 2363 0a17 60       		.sleb128 -32
 2364 0a18 1A       		.uleb128 0x1a
 2365 0a19 31000000 		.secrel32	LASF7
 2366 0a1d 01       		.byte	0x1
 2367 0a1e 9C01     		.word	0x19c
 2368 0a20 07       		.byte	0x7
 2369 0a21 1B010000 		.long	0x11b
 2370 0a25 02       		.byte	0x2
 2371 0a26 91       		.byte	0x91
 2372 0a27 68       		.sleb128 -24
 2373 0a28 00       		.byte	0
 2374 0a29 00       		.byte	0
 2375 0a2a 00       		.byte	0
 2376 0a2b 0A       		.uleb128 0xa
 2377 0a2c 04       		.byte	0x4
 2378 0a2d FA050000 		.long	0x5fa
 2379 0a31 0A       		.uleb128 0xa
 2380 0a32 04       		.byte	0x4
 2381 0a33 27010000 		.long	0x127
 2382 0a37 0A       		.uleb128 0xa
 2383 0a38 04       		.byte	0x4
 2384 0a39 AA010000 		.long	0x1aa
 2385 0a3d 0A       		.uleb128 0xa
 2386 0a3e 04       		.byte	0x4
 2387 0a3f FA040000 		.long	0x4fa
 2388 0a43 1E       		.uleb128 0x1e
 2389 0a44 01       		.byte	0x1
 2390 0a45 6C000000 		.secrel32	LASF10
 2391 0a49 01       		.byte	0x1
 2392 0a4a 7801     		.word	0x178
 2393 0a4c 06       		.byte	0x6
 2394 0a4d 01       		.byte	0x1
 2395 0a4e 14070000 		.long	LFB12
 2396 0a52 62070000 		.long	LFE12
 2397 0a56 38000000 		.secrel32	LLST8
 2398 0a5a 01       		.byte	0x1
 2399 0a5b 760A0000 		.long	0xa76
 2400 0a5f 16       		.uleb128 0x16
 2401 0a60 436F6465 		.ascii "Codewords\0"
 2401      776F7264 
 2401      7300
GAS LISTING C:\Users\jisu8\AppData\Local\Temp\ccIUpqyy.s 			page 58


 2402 0a6a 01       		.byte	0x1
 2403 0a6b 7801     		.word	0x178
 2404 0a6d 34       		.byte	0x34
 2405 0a6e 3D0A0000 		.long	0xa3d
 2406 0a72 02       		.byte	0x2
 2407 0a73 91       		.byte	0x91
 2408 0a74 00       		.sleb128 0
 2409 0a75 00       		.byte	0
 2410 0a76 14       		.uleb128 0x14
 2411 0a77 01       		.byte	0x1
 2412 0a78 67657452 		.ascii "getRowHeights\0"
 2412      6F774865 
 2412      69676874 
 2412      7300
 2413 0a86 01       		.byte	0x1
 2414 0a87 4E01     		.word	0x14e
 2415 0a89 09       		.byte	0x9
 2416 0a8a 01       		.byte	0x1
 2417 0a8b 4F020000 		.long	0x24f
 2418 0a8f AF050000 		.long	LFB11
 2419 0a93 14070000 		.long	LFE11
 2420 0a97 70000000 		.secrel32	LLST7
 2421 0a9b 01       		.byte	0x1
 2422 0a9c B80B0000 		.long	0xbb8
 2423 0aa0 15       		.uleb128 0x15
 2424 0aa1 0B000000 		.secrel32	LASF2
 2425 0aa5 01       		.byte	0x1
 2426 0aa6 4E01     		.word	0x14e
 2427 0aa8 31       		.byte	0x31
 2428 0aa9 2B0A0000 		.long	0xa2b
 2429 0aad 02       		.byte	0x2
 2430 0aae 91       		.byte	0x91
 2431 0aaf 00       		.sleb128 0
 2432 0ab0 16       		.uleb128 0x16
 2433 0ab1 72657375 		.ascii "result\0"
 2433      6C7400
 2434 0ab8 01       		.byte	0x1
 2435 0ab9 4E01     		.word	0x14e
 2436 0abb 4A       		.byte	0x4a
 2437 0abc F8010000 		.long	0x1f8
 2438 0ac0 02       		.byte	0x2
 2439 0ac1 91       		.byte	0x91
 2440 0ac2 04       		.sleb128 4
 2441 0ac3 15       		.uleb128 0x15
 2442 0ac4 4D000000 		.secrel32	LASF5
 2443 0ac8 01       		.byte	0x1
 2444 0ac9 4E01     		.word	0x14e
 2445 0acb 55       		.byte	0x55
 2446 0acc 1B010000 		.long	0x11b
 2447 0ad0 02       		.byte	0x2
 2448 0ad1 91       		.byte	0x91
 2449 0ad2 08       		.sleb128 8
 2450 0ad3 16       		.uleb128 0x16
 2451 0ad4 73697A65 		.ascii "size\0"
 2451      00
 2452 0ad9 01       		.byte	0x1
 2453 0ada 4E01     		.word	0x14e
GAS LISTING C:\Users\jisu8\AppData\Local\Temp\ccIUpqyy.s 			page 59


 2454 0adc 62       		.byte	0x62
 2455 0add F8010000 		.long	0x1f8
 2456 0ae1 02       		.byte	0x2
 2457 0ae2 91       		.byte	0x91
 2458 0ae3 0C       		.sleb128 12
 2459 0ae4 17       		.uleb128 0x17
 2460 0ae5 01       		.byte	0x1
 2461 0ae6 9F000000 		.secrel32	LASF8
 2462 0aea 0D       		.byte	0xd
 2463 0aeb 00       		.byte	0
 2464 0aec 01       		.byte	0x1
 2465 0aed 1B010000 		.long	0x11b
 2466 0af1 01       		.byte	0x1
 2467 0af2 FD0A0000 		.long	0xafd
 2468 0af6 18       		.uleb128 0x18
 2469 0af7 370A0000 		.long	0xa37
 2470 0afb 19       		.uleb128 0x19
 2471 0afc 00       		.byte	0
 2472 0afd 1A       		.uleb128 0x1a
 2473 0afe 54000000 		.secrel32	LASF9
 2474 0b02 01       		.byte	0x1
 2475 0b03 5301     		.word	0x153
 2476 0b05 14       		.byte	0x14
 2477 0b06 27010000 		.long	0x127
 2478 0b0a 02       		.byte	0x2
 2479 0b0b 91       		.byte	0x91
 2480 0b0c 40       		.sleb128 -64
 2481 0b0d 1B       		.uleb128 0x1b
 2482 0b0e 73697A65 		.ascii "sizeRow\0"
 2482      526F7700 
 2483 0b16 01       		.byte	0x1
 2484 0b17 5C01     		.word	0x15c
 2485 0b19 06       		.byte	0x6
 2486 0b1a 1B010000 		.long	0x11b
 2487 0b1e 02       		.byte	0x2
 2488 0b1f 91       		.byte	0x91
 2489 0b20 64       		.sleb128 -28
 2490 0b21 1B       		.uleb128 0x1b
 2491 0b22 72657400 		.ascii "ret\0"
 2492 0b26 01       		.byte	0x1
 2493 0b27 5D01     		.word	0x15d
 2494 0b29 06       		.byte	0x6
 2495 0b2a B80B0000 		.long	0xbb8
 2496 0b2e 03       		.byte	0x3
 2497 0b2f 91       		.byte	0x91
 2498 0b30 5C       		.sleb128 -36
 2499 0b31 06       		.byte	0x6
 2500 0b32 1F       		.uleb128 0x1f
 2501 0b33 01       		.byte	0x1
 2502 0b34 66696C6C 		.ascii "fill\0"
 2502      00
 2503 0b39 01       		.byte	0x1
 2504 0b3a 5E01     		.word	0x15e
 2505 0b3c 02       		.byte	0x2
 2506 0b3d 1B010000 		.long	0x11b
 2507 0b41 01       		.byte	0x1
 2508 0b42 480B0000 		.long	0xb48
GAS LISTING C:\Users\jisu8\AppData\Local\Temp\ccIUpqyy.s 			page 60


 2509 0b46 19       		.uleb128 0x19
 2510 0b47 00       		.byte	0
 2511 0b48 1C       		.uleb128 0x1c
 2512 0b49 67060000 		.long	LBB7
 2513 0b4d D0060000 		.long	LBE7
 2514 0b51 9F0B0000 		.long	0xb9f
 2515 0b55 1B       		.uleb128 0x1b
 2516 0b56 6900     		.ascii "i\0"
 2517 0b58 01       		.byte	0x1
 2518 0b59 5F01     		.word	0x15f
 2519 0b5b 0B       		.byte	0xb
 2520 0b5c 1B010000 		.long	0x11b
 2521 0b60 02       		.byte	0x2
 2522 0b61 91       		.byte	0x91
 2523 0b62 68       		.sleb128 -24
 2524 0b63 1D       		.uleb128 0x1d
 2525 0b64 70060000 		.long	LBB8
 2526 0b68 C4060000 		.long	LBE8
 2527 0b6c 1B       		.uleb128 0x1b
 2528 0b6d 6974656D 		.ascii "item\0"
 2528      00
 2529 0b72 01       		.byte	0x1
 2530 0b73 6101     		.word	0x161
 2531 0b75 10       		.byte	0x10
 2532 0b76 3D0A0000 		.long	0xa3d
 2533 0b7a 02       		.byte	0x2
 2534 0b7b 91       		.byte	0x91
 2535 0b7c 58       		.sleb128 -40
 2536 0b7d 1D       		.uleb128 0x1d
 2537 0b7e 91060000 		.long	LBB9
 2538 0b82 C4060000 		.long	LBE9
 2539 0b86 1B       		.uleb128 0x1b
 2540 0b87 726F774E 		.ascii "rowNumber\0"
 2540      756D6265 
 2540      7200
 2541 0b91 01       		.byte	0x1
 2542 0b92 6401     		.word	0x164
 2543 0b94 0D       		.byte	0xd
 2544 0b95 7D020000 		.long	0x27d
 2545 0b99 02       		.byte	0x2
 2546 0b9a 91       		.byte	0x91
 2547 0b9b 50       		.sleb128 -48
 2548 0b9c 00       		.byte	0
 2549 0b9d 00       		.byte	0
 2550 0b9e 00       		.byte	0
 2551 0b9f 1D       		.uleb128 0x1d
 2552 0ba0 D0060000 		.long	LBB10
 2553 0ba4 00070000 		.long	LBE10
 2554 0ba8 1B       		.uleb128 0x1b
 2555 0ba9 6900     		.ascii "i\0"
 2556 0bab 01       		.byte	0x1
 2557 0bac 6E01     		.word	0x16e
 2558 0bae 0A       		.byte	0xa
 2559 0baf 1B010000 		.long	0x11b
 2560 0bb3 02       		.byte	0x2
 2561 0bb4 91       		.byte	0x91
 2562 0bb5 6C       		.sleb128 -20
GAS LISTING C:\Users\jisu8\AppData\Local\Temp\ccIUpqyy.s 			page 61


 2563 0bb6 00       		.byte	0
 2564 0bb7 00       		.byte	0
 2565 0bb8 08       		.uleb128 0x8
 2566 0bb9 1B010000 		.long	0x11b
 2567 0bbd CB0B0000 		.long	0xbcb
 2568 0bc1 20       		.uleb128 0x20
 2569 0bc2 75010000 		.long	0x175
 2570 0bc6 03       		.byte	0x3
 2571 0bc7 91       		.byte	0x91
 2572 0bc8 60       		.sleb128 -32
 2573 0bc9 06       		.byte	0x6
 2574 0bca 00       		.byte	0
 2575 0bcb 21       		.uleb128 0x21
 2576 0bcc 01       		.byte	0x1
 2577 0bcd 61646A75 		.ascii "adjustIncompleteIndicatorColumnRowNumbers\0"
 2577      7374496E 
 2577      636F6D70 
 2577      6C657465 
 2577      496E6469 
 2578 0bf7 01       		.byte	0x1
 2579 0bf8 1701     		.word	0x117
 2580 0bfa 06       		.byte	0x6
 2581 0bfb 01       		.byte	0x1
 2582 0bfc 44030000 		.long	LFB10
 2583 0c00 AF050000 		.long	LFE10
 2584 0c04 A8000000 		.secrel32	LLST6
 2585 0c08 01       		.byte	0x1
 2586 0c09 5E0D0000 		.long	0xd5e
 2587 0c0d 15       		.uleb128 0x15
 2588 0c0e 0B000000 		.secrel32	LASF2
 2589 0c12 01       		.byte	0x1
 2590 0c13 1701     		.word	0x117
 2591 0c15 4A       		.byte	0x4a
 2592 0c16 2B0A0000 		.long	0xa2b
 2593 0c1a 02       		.byte	0x2
 2594 0c1b 91       		.byte	0x91
 2595 0c1c 00       		.sleb128 0
 2596 0c1d 15       		.uleb128 0x15
 2597 0c1e 54000000 		.secrel32	LASF9
 2598 0c22 01       		.byte	0x1
 2599 0c23 1701     		.word	0x117
 2600 0c25 79       		.byte	0x79
 2601 0c26 5E0D0000 		.long	0xd5e
 2602 0c2a 02       		.byte	0x2
 2603 0c2b 91       		.byte	0x91
 2604 0c2c 04       		.sleb128 4
 2605 0c2d 17       		.uleb128 0x17
 2606 0c2e 01       		.byte	0x1
 2607 0c2f 9F000000 		.secrel32	LASF8
 2608 0c33 0D       		.byte	0xd
 2609 0c34 00       		.byte	0
 2610 0c35 01       		.byte	0x1
 2611 0c36 1B010000 		.long	0x11b
 2612 0c3a 01       		.byte	0x1
 2613 0c3b 460C0000 		.long	0xc46
 2614 0c3f 18       		.uleb128 0x18
 2615 0c40 370A0000 		.long	0xa37
GAS LISTING C:\Users\jisu8\AppData\Local\Temp\ccIUpqyy.s 			page 62


 2616 0c44 19       		.uleb128 0x19
 2617 0c45 00       		.byte	0
 2618 0c46 1B       		.uleb128 0x1b
 2619 0c47 626200   		.ascii "bb\0"
 2620 0c4a 01       		.byte	0x1
 2621 0c4b 2101     		.word	0x121
 2622 0c4d 16       		.byte	0x16
 2623 0c4e 4D040000 		.long	0x44d
 2624 0c52 03       		.byte	0x3
 2625 0c53 91       		.byte	0x91
 2626 0c54 F47E     		.sleb128 -140
 2627 0c56 1B       		.uleb128 0x1b
 2628 0c57 746F7000 		.ascii "top\0"
 2629 0c5b 01       		.byte	0x1
 2630 0c5c 2201     		.word	0x122
 2631 0c5e 10       		.byte	0x10
 2632 0c5f 0E030000 		.long	0x30e
 2633 0c63 03       		.byte	0x3
 2634 0c64 91       		.byte	0x91
 2635 0c65 E87E     		.sleb128 -152
 2636 0c67 1B       		.uleb128 0x1b
 2637 0c68 626F7474 		.ascii "bottom\0"
 2637      6F6D00
 2638 0c6f 01       		.byte	0x1
 2639 0c70 2301     		.word	0x123
 2640 0c72 10       		.byte	0x10
 2641 0c73 0E030000 		.long	0x30e
 2642 0c77 03       		.byte	0x3
 2643 0c78 91       		.byte	0x91
 2644 0c79 DC7E     		.sleb128 -164
 2645 0c7b 1B       		.uleb128 0x1b
 2646 0c7c 66697273 		.ascii "firstRow\0"
 2646      74526F77 
 2646      00
 2647 0c85 01       		.byte	0x1
 2648 0c86 2401     		.word	0x124
 2649 0c88 06       		.byte	0x6
 2650 0c89 1B010000 		.long	0x11b
 2651 0c8d 02       		.byte	0x2
 2652 0c8e 91       		.byte	0x91
 2653 0c8f 4C       		.sleb128 -52
 2654 0c90 1B       		.uleb128 0x1b
 2655 0c91 6C617374 		.ascii "lastRow\0"
 2655      526F7700 
 2656 0c99 01       		.byte	0x1
 2657 0c9a 2501     		.word	0x125
 2658 0c9c 06       		.byte	0x6
 2659 0c9d 1B010000 		.long	0x11b
 2660 0ca1 02       		.byte	0x2
 2661 0ca2 91       		.byte	0x91
 2662 0ca3 48       		.sleb128 -56
 2663 0ca4 1A       		.uleb128 0x1a
 2664 0ca5 43000000 		.secrel32	LASF3
 2665 0ca9 01       		.byte	0x1
 2666 0caa 2601     		.word	0x126
 2667 0cac 0F       		.byte	0xf
 2668 0cad 3D0A0000 		.long	0xa3d
GAS LISTING C:\Users\jisu8\AppData\Local\Temp\ccIUpqyy.s 			page 63


 2669 0cb1 02       		.byte	0x2
 2670 0cb2 91       		.byte	0x91
 2671 0cb3 44       		.sleb128 -60
 2672 0cb4 1B       		.uleb128 0x1b
 2673 0cb5 62617263 		.ascii "barcodeRow\0"
 2673      6F646552 
 2673      6F7700
 2674 0cc0 01       		.byte	0x1
 2675 0cc1 2701     		.word	0x127
 2676 0cc3 06       		.byte	0x6
 2677 0cc4 1B010000 		.long	0x11b
 2678 0cc8 02       		.byte	0x2
 2679 0cc9 91       		.byte	0x91
 2680 0cca 5C       		.sleb128 -36
 2681 0ccb 1B       		.uleb128 0x1b
 2682 0ccc 6D617852 		.ascii "maxRowHeight\0"
 2682      6F774865 
 2682      69676874 
 2682      00
 2683 0cd9 01       		.byte	0x1
 2684 0cda 2801     		.word	0x128
 2685 0cdc 06       		.byte	0x6
 2686 0cdd 1B010000 		.long	0x11b
 2687 0ce1 02       		.byte	0x2
 2688 0ce2 91       		.byte	0x91
 2689 0ce3 58       		.sleb128 -40
 2690 0ce4 1B       		.uleb128 0x1b
 2691 0ce5 63757272 		.ascii "currentRowHeight\0"
 2691      656E7452 
 2691      6F774865 
 2691      69676874 
 2691      00
 2692 0cf6 01       		.byte	0x1
 2693 0cf7 2901     		.word	0x129
 2694 0cf9 06       		.byte	0x6
 2695 0cfa 1B010000 		.long	0x11b
 2696 0cfe 02       		.byte	0x2
 2697 0cff 91       		.byte	0x91
 2698 0d00 54       		.sleb128 -44
 2699 0d01 1D       		.uleb128 0x1d
 2700 0d02 8D040000 		.long	LBB5
 2701 0d06 A3050000 		.long	LBE5
 2702 0d0a 1B       		.uleb128 0x1b
 2703 0d0b 636F6465 		.ascii "codewordsRow\0"
 2703      776F7264 
 2703      73526F77 
 2703      00
 2704 0d18 01       		.byte	0x1
 2705 0d19 2A01     		.word	0x12a
 2706 0d1b 0B       		.byte	0xb
 2707 0d1c 1B010000 		.long	0x11b
 2708 0d20 02       		.byte	0x2
 2709 0d21 91       		.byte	0x91
 2710 0d22 50       		.sleb128 -48
 2711 0d23 1D       		.uleb128 0x1d
 2712 0d24 98040000 		.long	LBB6
 2713 0d28 91050000 		.long	LBE6
GAS LISTING C:\Users\jisu8\AppData\Local\Temp\ccIUpqyy.s 			page 64


 2714 0d2c 22       		.uleb128 0x22
 2715 0d2d 01       		.byte	0x1
 2716 0d2e 6C000000 		.secrel32	LASF10
 2717 0d32 01       		.byte	0x1
 2718 0d33 3101     		.word	0x131
 2719 0d35 03       		.byte	0x3
 2720 0d36 1B010000 		.long	0x11b
 2721 0d3a 01       		.byte	0x1
 2722 0d3b 410D0000 		.long	0xd41
 2723 0d3f 19       		.uleb128 0x19
 2724 0d40 00       		.byte	0
 2725 0d41 1B       		.uleb128 0x1b
 2726 0d42 726F7744 		.ascii "rowDifference\0"
 2726      69666665 
 2726      72656E63 
 2726      6500
 2727 0d50 01       		.byte	0x1
 2728 0d51 3301     		.word	0x133
 2729 0d53 07       		.byte	0x7
 2730 0d54 1B010000 		.long	0x11b
 2731 0d58 02       		.byte	0x2
 2732 0d59 91       		.byte	0x91
 2733 0d5a 40       		.sleb128 -64
 2734 0d5b 00       		.byte	0
 2735 0d5c 00       		.byte	0
 2736 0d5d 00       		.byte	0
 2737 0d5e 0A       		.uleb128 0xa
 2738 0d5f 04       		.byte	0x4
 2739 0d60 41010000 		.long	0x141
 2740 0d64 23       		.uleb128 0x23
 2741 0d65 52656D6F 		.ascii "RemoveIncorrectCodewords\0"
 2741      7665496E 
 2741      636F7272 
 2741      65637443 
 2741      6F646577 
 2742 0d7e 01       		.byte	0x1
 2743 0d7f 75       		.byte	0x75
 2744 0d80 0D       		.byte	0xd
 2745 0d81 01       		.byte	0x1
 2746 0d82 56010000 		.long	LFB9
 2747 0d86 44030000 		.long	LFE9
 2748 0d8a E0000000 		.secrel32	LLST5
 2749 0d8e 01       		.byte	0x1
 2750 0d8f 2B0E0000 		.long	0xe2b
 2751 0d93 24       		.uleb128 0x24
 2752 0d94 69734C65 		.ascii "isLeft\0"
 2752      667400
 2753 0d9b 01       		.byte	0x1
 2754 0d9c 75       		.byte	0x75
 2755 0d9d 2E       		.byte	0x2e
 2756 0d9e 4F020000 		.long	0x24f
 2757 0da2 02       		.byte	0x2
 2758 0da3 91       		.byte	0x91
 2759 0da4 5C       		.sleb128 -36
 2760 0da5 25       		.uleb128 0x25
 2761 0da6 43000000 		.secrel32	LASF3
 2762 0daa 01       		.byte	0x1
GAS LISTING C:\Users\jisu8\AppData\Local\Temp\ccIUpqyy.s 			page 65


 2763 0dab 75       		.byte	0x75
 2764 0dac 43       		.byte	0x43
 2765 0dad 3D0A0000 		.long	0xa3d
 2766 0db1 02       		.byte	0x2
 2767 0db2 91       		.byte	0x91
 2768 0db3 04       		.sleb128 4
 2769 0db4 25       		.uleb128 0x25
 2770 0db5 54000000 		.secrel32	LASF9
 2771 0db9 01       		.byte	0x1
 2772 0dba 75       		.byte	0x75
 2773 0dbb 68       		.byte	0x68
 2774 0dbc 5E0D0000 		.long	0xd5e
 2775 0dc0 02       		.byte	0x2
 2776 0dc1 91       		.byte	0x91
 2777 0dc2 08       		.sleb128 8
 2778 0dc3 25       		.uleb128 0x25
 2779 0dc4 4D000000 		.secrel32	LASF5
 2780 0dc8 01       		.byte	0x1
 2781 0dc9 75       		.byte	0x75
 2782 0dca 7C       		.byte	0x7c
 2783 0dcb 1B010000 		.long	0x11b
 2784 0dcf 02       		.byte	0x2
 2785 0dd0 91       		.byte	0x91
 2786 0dd1 0C       		.sleb128 12
 2787 0dd2 17       		.uleb128 0x17
 2788 0dd3 01       		.byte	0x1
 2789 0dd4 9F000000 		.secrel32	LASF8
 2790 0dd8 0D       		.byte	0xd
 2791 0dd9 00       		.byte	0
 2792 0dda 01       		.byte	0x1
 2793 0ddb 1B010000 		.long	0x11b
 2794 0ddf 01       		.byte	0x1
 2795 0de0 EB0D0000 		.long	0xdeb
 2796 0de4 18       		.uleb128 0x18
 2797 0de5 370A0000 		.long	0xa37
 2798 0de9 19       		.uleb128 0x19
 2799 0dea 00       		.byte	0
 2800 0deb 1D       		.uleb128 0x1d
 2801 0dec 6E010000 		.long	LBB3
 2802 0df0 41030000 		.long	LBE3
 2803 0df4 12       		.uleb128 0x12
 2804 0df5 6900     		.ascii "i\0"
 2805 0df7 01       		.byte	0x1
 2806 0df8 7C       		.byte	0x7c
 2807 0df9 0B       		.byte	0xb
 2808 0dfa 1B010000 		.long	0x11b
 2809 0dfe 02       		.byte	0x2
 2810 0dff 91       		.byte	0x91
 2811 0e00 6C       		.sleb128 -20
 2812 0e01 1D       		.uleb128 0x1d
 2813 0e02 7A010000 		.long	LBB4
 2814 0e06 31030000 		.long	LBE4
 2815 0e0a 26       		.uleb128 0x26
 2816 0e0b 8D000000 		.secrel32	LASF6
 2817 0e0f 01       		.byte	0x1
 2818 0e10 83       		.byte	0x83
 2819 0e11 07       		.byte	0x7
GAS LISTING C:\Users\jisu8\AppData\Local\Temp\ccIUpqyy.s 			page 66


 2820 0e12 1B010000 		.long	0x11b
 2821 0e16 02       		.byte	0x2
 2822 0e17 91       		.byte	0x91
 2823 0e18 64       		.sleb128 -28
 2824 0e19 26       		.uleb128 0x26
 2825 0e1a 31000000 		.secrel32	LASF7
 2826 0e1e 01       		.byte	0x1
 2827 0e1f 84       		.byte	0x84
 2828 0e20 07       		.byte	0x7
 2829 0e21 1B010000 		.long	0x11b
 2830 0e25 02       		.byte	0x2
 2831 0e26 91       		.byte	0x91
 2832 0e27 68       		.sleb128 -24
 2833 0e28 00       		.byte	0
 2834 0e29 00       		.byte	0
 2835 0e2a 00       		.byte	0
 2836 0e2b 27       		.uleb128 0x27
 2837 0e2c 636C6561 		.ascii "clear_var\0"
 2837      725F7661 
 2837      7200
 2838 0e36 01       		.byte	0x1
 2839 0e37 6C       		.byte	0x6c
 2840 0e38 0D       		.byte	0xd
 2841 0e39 01       		.byte	0x1
 2842 0e3a 18010000 		.long	LFB8
 2843 0e3e 56010000 		.long	LFE8
 2844 0e42 18010000 		.secrel32	LLST4
 2845 0e46 01       		.byte	0x1
 2846 0e47 5B0E0000 		.long	0xe5b
 2847 0e4b 25       		.uleb128 0x25
 2848 0e4c 43000000 		.secrel32	LASF3
 2849 0e50 01       		.byte	0x1
 2850 0e51 6C       		.byte	0x6c
 2851 0e52 24       		.byte	0x24
 2852 0e53 3D0A0000 		.long	0xa3d
 2853 0e57 02       		.byte	0x2
 2854 0e58 91       		.byte	0x91
 2855 0e59 00       		.sleb128 0
 2856 0e5a 00       		.byte	0
 2857 0e5b 28       		.uleb128 0x28
 2858 0e5c 01       		.byte	0x1
 2859 0e5d 69734C65 		.ascii "isLeftRowIndicator\0"
 2859      6674526F 
 2859      77496E64 
 2859      69636174 
 2859      6F7200
 2860 0e70 01       		.byte	0x1
 2861 0e71 3B       		.byte	0x3b
 2862 0e72 09       		.byte	0x9
 2863 0e73 01       		.byte	0x1
 2864 0e74 4F020000 		.long	0x24f
 2865 0e78 04010000 		.long	LFB7
 2866 0e7c 18010000 		.long	LFE7
 2867 0e80 50010000 		.secrel32	LLST3
 2868 0e84 01       		.byte	0x1
 2869 0e85 990E0000 		.long	0xe99
 2870 0e89 25       		.uleb128 0x25
GAS LISTING C:\Users\jisu8\AppData\Local\Temp\ccIUpqyy.s 			page 67


 2871 0e8a 1E000000 		.secrel32	LASF4
 2872 0e8e 01       		.byte	0x1
 2873 0e8f 3B       		.byte	0x3b
 2874 0e90 36       		.byte	0x36
 2875 0e91 2B0A0000 		.long	0xa2b
 2876 0e95 02       		.byte	0x2
 2877 0e96 91       		.byte	0x91
 2878 0e97 00       		.sleb128 0
 2879 0e98 00       		.byte	0
 2880 0e99 28       		.uleb128 0x28
 2881 0e9a 01       		.byte	0x1
 2882 0e9b 6973526F 		.ascii "isRowIndicator\0"
 2882      77496E64 
 2882      69636174 
 2882      6F7200
 2883 0eaa 01       		.byte	0x1
 2884 0eab 37       		.byte	0x37
 2885 0eac 09       		.byte	0x9
 2886 0ead 01       		.byte	0x1
 2887 0eae 4F020000 		.long	0x24f
 2888 0eb2 F1000000 		.long	LFB6
 2889 0eb6 04010000 		.long	LFE6
 2890 0eba 88010000 		.secrel32	LLST2
 2891 0ebe 01       		.byte	0x1
 2892 0ebf D30E0000 		.long	0xed3
 2893 0ec3 25       		.uleb128 0x25
 2894 0ec4 1E000000 		.secrel32	LASF4
 2895 0ec8 01       		.byte	0x1
 2896 0ec9 37       		.byte	0x37
 2897 0eca 32       		.byte	0x32
 2898 0ecb 2B0A0000 		.long	0xa2b
 2899 0ecf 02       		.byte	0x2
 2900 0ed0 91       		.byte	0x91
 2901 0ed1 00       		.sleb128 0
 2902 0ed2 00       		.byte	0
 2903 0ed3 28       		.uleb128 0x28
 2904 0ed4 01       		.byte	0x1
 2905 0ed5 616C6C43 		.ascii "allCodewords\0"
 2905      6F646577 
 2905      6F726473 
 2905      00
 2906 0ee2 01       		.byte	0x1
 2907 0ee3 33       		.byte	0x33
 2908 0ee4 0E       		.byte	0xe
 2909 0ee5 01       		.byte	0x1
 2910 0ee6 3D0A0000 		.long	0xa3d
 2911 0eea E6000000 		.long	LFB5
 2912 0eee F1000000 		.long	LFE5
 2913 0ef2 C0010000 		.secrel32	LLST1
 2914 0ef6 01       		.byte	0x1
 2915 0ef7 0B0F0000 		.long	0xf0b
 2916 0efb 25       		.uleb128 0x25
 2917 0efc 1E000000 		.secrel32	LASF4
 2918 0f00 01       		.byte	0x1
 2919 0f01 33       		.byte	0x33
 2920 0f02 35       		.byte	0x35
 2921 0f03 2B0A0000 		.long	0xa2b
GAS LISTING C:\Users\jisu8\AppData\Local\Temp\ccIUpqyy.s 			page 68


 2922 0f07 02       		.byte	0x2
 2923 0f08 91       		.byte	0x91
 2924 0f09 00       		.sleb128 0
 2925 0f0a 00       		.byte	0
 2926 0f0b 29       		.uleb128 0x29
 2927 0f0c 01       		.byte	0x1
 2928 0f0d 44657465 		.ascii "DetectionResultColumn\0"
 2928      6374696F 
 2928      6E526573 
 2928      756C7443 
 2928      6F6C756D 
 2929 0f23 01       		.byte	0x1
 2930 0f24 1D       		.byte	0x1d
 2931 0f25 06       		.byte	0x6
 2932 0f26 01       		.byte	0x1
 2933 0f27 00000000 		.long	LFB4
 2934 0f2b E6000000 		.long	LFE4
 2935 0f2f F8010000 		.secrel32	LLST0
 2936 0f33 01       		.byte	0x1
 2937 0f34 900F0000 		.long	0xf90
 2938 0f38 24       		.uleb128 0x24
 2939 0f39 626F756E 		.ascii "boundingBox\0"
 2939      64696E67 
 2939      426F7800 
 2940 0f45 01       		.byte	0x1
 2941 0f46 1D       		.byte	0x1d
 2942 0f47 32       		.byte	0x32
 2943 0f48 900F0000 		.long	0xf90
 2944 0f4c 02       		.byte	0x2
 2945 0f4d 91       		.byte	0x91
 2946 0f4e 00       		.sleb128 0
 2947 0f4f 24       		.uleb128 0x24
 2948 0f50 726F7749 		.ascii "rowInd\0"
 2948      6E6400
 2949 0f57 01       		.byte	0x1
 2950 0f58 1D       		.byte	0x1d
 2951 0f59 4E       		.byte	0x4e
 2952 0f5a 32050000 		.long	0x532
 2953 0f5e 02       		.byte	0x2
 2954 0f5f 91       		.byte	0x91
 2955 0f60 04       		.sleb128 4
 2956 0f61 25       		.uleb128 0x25
 2957 0f62 1E000000 		.secrel32	LASF4
 2958 0f66 01       		.byte	0x1
 2959 0f67 1D       		.byte	0x1d
 2960 0f68 70       		.byte	0x70
 2961 0f69 2B0A0000 		.long	0xa2b
 2962 0f6d 02       		.byte	0x2
 2963 0f6e 91       		.byte	0x91
 2964 0f6f 08       		.sleb128 8
 2965 0f70 1D       		.uleb128 0x1d
 2966 0f71 D7000000 		.long	LBB2
 2967 0f75 E3000000 		.long	LBE2
 2968 0f79 2A       		.uleb128 0x2a
 2969 0f7a 01       		.byte	0x1
 2970 0f7b 9F000000 		.secrel32	LASF8
 2971 0f7f 0D       		.byte	0xd
GAS LISTING C:\Users\jisu8\AppData\Local\Temp\ccIUpqyy.s 			page 69


 2972 0f80 00       		.byte	0
 2973 0f81 01       		.byte	0x1
 2974 0f82 1B010000 		.long	0x11b
 2975 0f86 01       		.byte	0x1
 2976 0f87 18       		.uleb128 0x18
 2977 0f88 370A0000 		.long	0xa37
 2978 0f8c 19       		.uleb128 0x19
 2979 0f8d 00       		.byte	0
 2980 0f8e 00       		.byte	0
 2981 0f8f 00       		.byte	0
 2982 0f90 0A       		.uleb128 0xa
 2983 0f91 04       		.byte	0x4
 2984 0f92 4D040000 		.long	0x44d
 2985 0f96 00       		.byte	0
 2986              		.section	.debug_abbrev,"dr"
 2987              	Ldebug_abbrev0:
 2988 0000 01       		.uleb128 0x1
 2989 0001 11       		.uleb128 0x11
 2990 0002 01       		.byte	0x1
 2991 0003 25       		.uleb128 0x25
 2992 0004 08       		.uleb128 0x8
 2993 0005 13       		.uleb128 0x13
 2994 0006 0B       		.uleb128 0xb
 2995 0007 03       		.uleb128 0x3
 2996 0008 08       		.uleb128 0x8
 2997 0009 1B       		.uleb128 0x1b
 2998 000a 08       		.uleb128 0x8
 2999 000b 11       		.uleb128 0x11
 3000 000c 01       		.uleb128 0x1
 3001 000d 12       		.uleb128 0x12
 3002 000e 01       		.uleb128 0x1
 3003 000f 10       		.uleb128 0x10
 3004 0010 06       		.uleb128 0x6
 3005 0011 00       		.byte	0
 3006 0012 00       		.byte	0
 3007 0013 02       		.uleb128 0x2
 3008 0014 13       		.uleb128 0x13
 3009 0015 01       		.byte	0x1
 3010 0016 0B       		.uleb128 0xb
 3011 0017 0B       		.uleb128 0xb
 3012 0018 3A       		.uleb128 0x3a
 3013 0019 0B       		.uleb128 0xb
 3014 001a 3B       		.uleb128 0x3b
 3015 001b 0B       		.uleb128 0xb
 3016 001c 39       		.uleb128 0x39
 3017 001d 0B       		.uleb128 0xb
 3018 001e 01       		.uleb128 0x1
 3019 001f 13       		.uleb128 0x13
 3020 0020 00       		.byte	0
 3021 0021 00       		.byte	0
 3022 0022 03       		.uleb128 0x3
 3023 0023 0D       		.uleb128 0xd
 3024 0024 00       		.byte	0
 3025 0025 03       		.uleb128 0x3
 3026 0026 08       		.uleb128 0x8
 3027 0027 3A       		.uleb128 0x3a
 3028 0028 0B       		.uleb128 0xb
GAS LISTING C:\Users\jisu8\AppData\Local\Temp\ccIUpqyy.s 			page 70


 3029 0029 3B       		.uleb128 0x3b
 3030 002a 0B       		.uleb128 0xb
 3031 002b 39       		.uleb128 0x39
 3032 002c 0B       		.uleb128 0xb
 3033 002d 49       		.uleb128 0x49
 3034 002e 13       		.uleb128 0x13
 3035 002f 38       		.uleb128 0x38
 3036 0030 0A       		.uleb128 0xa
 3037 0031 00       		.byte	0
 3038 0032 00       		.byte	0
 3039 0033 04       		.uleb128 0x4
 3040 0034 24       		.uleb128 0x24
 3041 0035 00       		.byte	0
 3042 0036 0B       		.uleb128 0xb
 3043 0037 0B       		.uleb128 0xb
 3044 0038 3E       		.uleb128 0x3e
 3045 0039 0B       		.uleb128 0xb
 3046 003a 03       		.uleb128 0x3
 3047 003b 08       		.uleb128 0x8
 3048 003c 00       		.byte	0
 3049 003d 00       		.byte	0
 3050 003e 05       		.uleb128 0x5
 3051 003f 26       		.uleb128 0x26
 3052 0040 00       		.byte	0
 3053 0041 49       		.uleb128 0x49
 3054 0042 13       		.uleb128 0x13
 3055 0043 00       		.byte	0
 3056 0044 00       		.byte	0
 3057 0045 06       		.uleb128 0x6
 3058 0046 16       		.uleb128 0x16
 3059 0047 00       		.byte	0
 3060 0048 03       		.uleb128 0x3
 3061 0049 08       		.uleb128 0x8
 3062 004a 3A       		.uleb128 0x3a
 3063 004b 0B       		.uleb128 0xb
 3064 004c 3B       		.uleb128 0x3b
 3065 004d 0B       		.uleb128 0xb
 3066 004e 39       		.uleb128 0x39
 3067 004f 0B       		.uleb128 0xb
 3068 0050 49       		.uleb128 0x49
 3069 0051 13       		.uleb128 0x13
 3070 0052 00       		.byte	0
 3071 0053 00       		.byte	0
 3072 0054 07       		.uleb128 0x7
 3073 0055 13       		.uleb128 0x13
 3074 0056 01       		.byte	0x1
 3075 0057 0B       		.uleb128 0xb
 3076 0058 05       		.uleb128 0x5
 3077 0059 3A       		.uleb128 0x3a
 3078 005a 0B       		.uleb128 0xb
 3079 005b 3B       		.uleb128 0x3b
 3080 005c 0B       		.uleb128 0xb
 3081 005d 39       		.uleb128 0x39
 3082 005e 0B       		.uleb128 0xb
 3083 005f 01       		.uleb128 0x1
 3084 0060 13       		.uleb128 0x13
 3085 0061 00       		.byte	0
GAS LISTING C:\Users\jisu8\AppData\Local\Temp\ccIUpqyy.s 			page 71


 3086 0062 00       		.byte	0
 3087 0063 08       		.uleb128 0x8
 3088 0064 01       		.uleb128 0x1
 3089 0065 01       		.byte	0x1
 3090 0066 49       		.uleb128 0x49
 3091 0067 13       		.uleb128 0x13
 3092 0068 01       		.uleb128 0x1
 3093 0069 13       		.uleb128 0x13
 3094 006a 00       		.byte	0
 3095 006b 00       		.byte	0
 3096 006c 09       		.uleb128 0x9
 3097 006d 21       		.uleb128 0x21
 3098 006e 00       		.byte	0
 3099 006f 49       		.uleb128 0x49
 3100 0070 13       		.uleb128 0x13
 3101 0071 2F       		.uleb128 0x2f
 3102 0072 05       		.uleb128 0x5
 3103 0073 00       		.byte	0
 3104 0074 00       		.byte	0
 3105 0075 0A       		.uleb128 0xa
 3106 0076 0F       		.uleb128 0xf
 3107 0077 00       		.byte	0
 3108 0078 0B       		.uleb128 0xb
 3109 0079 0B       		.uleb128 0xb
 3110 007a 49       		.uleb128 0x49
 3111 007b 13       		.uleb128 0x13
 3112 007c 00       		.byte	0
 3113 007d 00       		.byte	0
 3114 007e 0B       		.uleb128 0xb
 3115 007f 0D       		.uleb128 0xd
 3116 0080 00       		.byte	0
 3117 0081 03       		.uleb128 0x3
 3118 0082 0E       		.uleb128 0xe
 3119 0083 3A       		.uleb128 0x3a
 3120 0084 0B       		.uleb128 0xb
 3121 0085 3B       		.uleb128 0x3b
 3122 0086 0B       		.uleb128 0xb
 3123 0087 39       		.uleb128 0x39
 3124 0088 0B       		.uleb128 0xb
 3125 0089 49       		.uleb128 0x49
 3126 008a 13       		.uleb128 0x13
 3127 008b 38       		.uleb128 0x38
 3128 008c 0A       		.uleb128 0xa
 3129 008d 00       		.byte	0
 3130 008e 00       		.byte	0
 3131 008f 0C       		.uleb128 0xc
 3132 0090 04       		.uleb128 0x4
 3133 0091 01       		.byte	0x1
 3134 0092 3E       		.uleb128 0x3e
 3135 0093 0B       		.uleb128 0xb
 3136 0094 0B       		.uleb128 0xb
 3137 0095 0B       		.uleb128 0xb
 3138 0096 49       		.uleb128 0x49
 3139 0097 13       		.uleb128 0x13
 3140 0098 3A       		.uleb128 0x3a
 3141 0099 0B       		.uleb128 0xb
 3142 009a 3B       		.uleb128 0x3b
GAS LISTING C:\Users\jisu8\AppData\Local\Temp\ccIUpqyy.s 			page 72


 3143 009b 0B       		.uleb128 0xb
 3144 009c 39       		.uleb128 0x39
 3145 009d 0B       		.uleb128 0xb
 3146 009e 01       		.uleb128 0x1
 3147 009f 13       		.uleb128 0x13
 3148 00a0 00       		.byte	0
 3149 00a1 00       		.byte	0
 3150 00a2 0D       		.uleb128 0xd
 3151 00a3 28       		.uleb128 0x28
 3152 00a4 00       		.byte	0
 3153 00a5 03       		.uleb128 0x3
 3154 00a6 08       		.uleb128 0x8
 3155 00a7 1C       		.uleb128 0x1c
 3156 00a8 0B       		.uleb128 0xb
 3157 00a9 00       		.byte	0
 3158 00aa 00       		.byte	0
 3159 00ab 0E       		.uleb128 0xe
 3160 00ac 34       		.uleb128 0x34
 3161 00ad 00       		.byte	0
 3162 00ae 03       		.uleb128 0x3
 3163 00af 0E       		.uleb128 0xe
 3164 00b0 3A       		.uleb128 0x3a
 3165 00b1 0B       		.uleb128 0xb
 3166 00b2 3B       		.uleb128 0x3b
 3167 00b3 0B       		.uleb128 0xb
 3168 00b4 39       		.uleb128 0x39
 3169 00b5 0B       		.uleb128 0xb
 3170 00b6 49       		.uleb128 0x49
 3171 00b7 13       		.uleb128 0x13
 3172 00b8 3F       		.uleb128 0x3f
 3173 00b9 0C       		.uleb128 0xc
 3174 00ba 3C       		.uleb128 0x3c
 3175 00bb 0C       		.uleb128 0xc
 3176 00bc 00       		.byte	0
 3177 00bd 00       		.byte	0
 3178 00be 0F       		.uleb128 0xf
 3179 00bf 34       		.uleb128 0x34
 3180 00c0 00       		.byte	0
 3181 00c1 03       		.uleb128 0x3
 3182 00c2 08       		.uleb128 0x8
 3183 00c3 3A       		.uleb128 0x3a
 3184 00c4 0B       		.uleb128 0xb
 3185 00c5 3B       		.uleb128 0x3b
 3186 00c6 0B       		.uleb128 0xb
 3187 00c7 39       		.uleb128 0x39
 3188 00c8 0B       		.uleb128 0xb
 3189 00c9 49       		.uleb128 0x49
 3190 00ca 13       		.uleb128 0x13
 3191 00cb 3F       		.uleb128 0x3f
 3192 00cc 0C       		.uleb128 0xc
 3193 00cd 3C       		.uleb128 0x3c
 3194 00ce 0C       		.uleb128 0xc
 3195 00cf 00       		.byte	0
 3196 00d0 00       		.byte	0
 3197 00d1 10       		.uleb128 0x10
 3198 00d2 21       		.uleb128 0x21
 3199 00d3 00       		.byte	0
GAS LISTING C:\Users\jisu8\AppData\Local\Temp\ccIUpqyy.s 			page 73


 3200 00d4 49       		.uleb128 0x49
 3201 00d5 13       		.uleb128 0x13
 3202 00d6 2F       		.uleb128 0x2f
 3203 00d7 0B       		.uleb128 0xb
 3204 00d8 00       		.byte	0
 3205 00d9 00       		.byte	0
 3206 00da 11       		.uleb128 0x11
 3207 00db 34       		.uleb128 0x34
 3208 00dc 00       		.byte	0
 3209 00dd 03       		.uleb128 0x3
 3210 00de 08       		.uleb128 0x8
 3211 00df 3A       		.uleb128 0x3a
 3212 00e0 0B       		.uleb128 0xb
 3213 00e1 3B       		.uleb128 0x3b
 3214 00e2 05       		.uleb128 0x5
 3215 00e3 39       		.uleb128 0x39
 3216 00e4 0B       		.uleb128 0xb
 3217 00e5 49       		.uleb128 0x49
 3218 00e6 13       		.uleb128 0x13
 3219 00e7 3F       		.uleb128 0x3f
 3220 00e8 0C       		.uleb128 0xc
 3221 00e9 3C       		.uleb128 0x3c
 3222 00ea 0C       		.uleb128 0xc
 3223 00eb 00       		.byte	0
 3224 00ec 00       		.byte	0
 3225 00ed 12       		.uleb128 0x12
 3226 00ee 34       		.uleb128 0x34
 3227 00ef 00       		.byte	0
 3228 00f0 03       		.uleb128 0x3
 3229 00f1 08       		.uleb128 0x8
 3230 00f2 3A       		.uleb128 0x3a
 3231 00f3 0B       		.uleb128 0xb
 3232 00f4 3B       		.uleb128 0x3b
 3233 00f5 0B       		.uleb128 0xb
 3234 00f6 39       		.uleb128 0x39
 3235 00f7 0B       		.uleb128 0xb
 3236 00f8 49       		.uleb128 0x49
 3237 00f9 13       		.uleb128 0x13
 3238 00fa 02       		.uleb128 0x2
 3239 00fb 0A       		.uleb128 0xa
 3240 00fc 00       		.byte	0
 3241 00fd 00       		.byte	0
 3242 00fe 13       		.uleb128 0x13
 3243 00ff 34       		.uleb128 0x34
 3244 0100 00       		.byte	0
 3245 0101 03       		.uleb128 0x3
 3246 0102 0E       		.uleb128 0xe
 3247 0103 3A       		.uleb128 0x3a
 3248 0104 0B       		.uleb128 0xb
 3249 0105 3B       		.uleb128 0x3b
 3250 0106 0B       		.uleb128 0xb
 3251 0107 39       		.uleb128 0x39
 3252 0108 0B       		.uleb128 0xb
 3253 0109 49       		.uleb128 0x49
 3254 010a 13       		.uleb128 0x13
 3255 010b 3F       		.uleb128 0x3f
 3256 010c 0C       		.uleb128 0xc
GAS LISTING C:\Users\jisu8\AppData\Local\Temp\ccIUpqyy.s 			page 74


 3257 010d 02       		.uleb128 0x2
 3258 010e 0A       		.uleb128 0xa
 3259 010f 00       		.byte	0
 3260 0110 00       		.byte	0
 3261 0111 14       		.uleb128 0x14
 3262 0112 2E       		.uleb128 0x2e
 3263 0113 01       		.byte	0x1
 3264 0114 3F       		.uleb128 0x3f
 3265 0115 0C       		.uleb128 0xc
 3266 0116 03       		.uleb128 0x3
 3267 0117 08       		.uleb128 0x8
 3268 0118 3A       		.uleb128 0x3a
 3269 0119 0B       		.uleb128 0xb
 3270 011a 3B       		.uleb128 0x3b
 3271 011b 05       		.uleb128 0x5
 3272 011c 39       		.uleb128 0x39
 3273 011d 0B       		.uleb128 0xb
 3274 011e 27       		.uleb128 0x27
 3275 011f 0C       		.uleb128 0xc
 3276 0120 49       		.uleb128 0x49
 3277 0121 13       		.uleb128 0x13
 3278 0122 11       		.uleb128 0x11
 3279 0123 01       		.uleb128 0x1
 3280 0124 12       		.uleb128 0x12
 3281 0125 01       		.uleb128 0x1
 3282 0126 40       		.uleb128 0x40
 3283 0127 06       		.uleb128 0x6
 3284 0128 9642     		.uleb128 0x2116
 3285 012a 0C       		.uleb128 0xc
 3286 012b 01       		.uleb128 0x1
 3287 012c 13       		.uleb128 0x13
 3288 012d 00       		.byte	0
 3289 012e 00       		.byte	0
 3290 012f 15       		.uleb128 0x15
 3291 0130 05       		.uleb128 0x5
 3292 0131 00       		.byte	0
 3293 0132 03       		.uleb128 0x3
 3294 0133 0E       		.uleb128 0xe
 3295 0134 3A       		.uleb128 0x3a
 3296 0135 0B       		.uleb128 0xb
 3297 0136 3B       		.uleb128 0x3b
 3298 0137 05       		.uleb128 0x5
 3299 0138 39       		.uleb128 0x39
 3300 0139 0B       		.uleb128 0xb
 3301 013a 49       		.uleb128 0x49
 3302 013b 13       		.uleb128 0x13
 3303 013c 02       		.uleb128 0x2
 3304 013d 0A       		.uleb128 0xa
 3305 013e 00       		.byte	0
 3306 013f 00       		.byte	0
 3307 0140 16       		.uleb128 0x16
 3308 0141 05       		.uleb128 0x5
 3309 0142 00       		.byte	0
 3310 0143 03       		.uleb128 0x3
 3311 0144 08       		.uleb128 0x8
 3312 0145 3A       		.uleb128 0x3a
 3313 0146 0B       		.uleb128 0xb
GAS LISTING C:\Users\jisu8\AppData\Local\Temp\ccIUpqyy.s 			page 75


 3314 0147 3B       		.uleb128 0x3b
 3315 0148 05       		.uleb128 0x5
 3316 0149 39       		.uleb128 0x39
 3317 014a 0B       		.uleb128 0xb
 3318 014b 49       		.uleb128 0x49
 3319 014c 13       		.uleb128 0x13
 3320 014d 02       		.uleb128 0x2
 3321 014e 0A       		.uleb128 0xa
 3322 014f 00       		.byte	0
 3323 0150 00       		.byte	0
 3324 0151 17       		.uleb128 0x17
 3325 0152 2E       		.uleb128 0x2e
 3326 0153 01       		.byte	0x1
 3327 0154 3F       		.uleb128 0x3f
 3328 0155 0C       		.uleb128 0xc
 3329 0156 03       		.uleb128 0x3
 3330 0157 0E       		.uleb128 0xe
 3331 0158 3A       		.uleb128 0x3a
 3332 0159 0B       		.uleb128 0xb
 3333 015a 3B       		.uleb128 0x3b
 3334 015b 0B       		.uleb128 0xb
 3335 015c 27       		.uleb128 0x27
 3336 015d 0C       		.uleb128 0xc
 3337 015e 49       		.uleb128 0x49
 3338 015f 13       		.uleb128 0x13
 3339 0160 3C       		.uleb128 0x3c
 3340 0161 0C       		.uleb128 0xc
 3341 0162 01       		.uleb128 0x1
 3342 0163 13       		.uleb128 0x13
 3343 0164 00       		.byte	0
 3344 0165 00       		.byte	0
 3345 0166 18       		.uleb128 0x18
 3346 0167 05       		.uleb128 0x5
 3347 0168 00       		.byte	0
 3348 0169 49       		.uleb128 0x49
 3349 016a 13       		.uleb128 0x13
 3350 016b 00       		.byte	0
 3351 016c 00       		.byte	0
 3352 016d 19       		.uleb128 0x19
 3353 016e 18       		.uleb128 0x18
 3354 016f 00       		.byte	0
 3355 0170 00       		.byte	0
 3356 0171 00       		.byte	0
 3357 0172 1A       		.uleb128 0x1a
 3358 0173 34       		.uleb128 0x34
 3359 0174 00       		.byte	0
 3360 0175 03       		.uleb128 0x3
 3361 0176 0E       		.uleb128 0xe
 3362 0177 3A       		.uleb128 0x3a
 3363 0178 0B       		.uleb128 0xb
 3364 0179 3B       		.uleb128 0x3b
 3365 017a 05       		.uleb128 0x5
 3366 017b 39       		.uleb128 0x39
 3367 017c 0B       		.uleb128 0xb
 3368 017d 49       		.uleb128 0x49
 3369 017e 13       		.uleb128 0x13
 3370 017f 02       		.uleb128 0x2
GAS LISTING C:\Users\jisu8\AppData\Local\Temp\ccIUpqyy.s 			page 76


 3371 0180 0A       		.uleb128 0xa
 3372 0181 00       		.byte	0
 3373 0182 00       		.byte	0
 3374 0183 1B       		.uleb128 0x1b
 3375 0184 34       		.uleb128 0x34
 3376 0185 00       		.byte	0
 3377 0186 03       		.uleb128 0x3
 3378 0187 08       		.uleb128 0x8
 3379 0188 3A       		.uleb128 0x3a
 3380 0189 0B       		.uleb128 0xb
 3381 018a 3B       		.uleb128 0x3b
 3382 018b 05       		.uleb128 0x5
 3383 018c 39       		.uleb128 0x39
 3384 018d 0B       		.uleb128 0xb
 3385 018e 49       		.uleb128 0x49
 3386 018f 13       		.uleb128 0x13
 3387 0190 02       		.uleb128 0x2
 3388 0191 0A       		.uleb128 0xa
 3389 0192 00       		.byte	0
 3390 0193 00       		.byte	0
 3391 0194 1C       		.uleb128 0x1c
 3392 0195 0B       		.uleb128 0xb
 3393 0196 01       		.byte	0x1
 3394 0197 11       		.uleb128 0x11
 3395 0198 01       		.uleb128 0x1
 3396 0199 12       		.uleb128 0x12
 3397 019a 01       		.uleb128 0x1
 3398 019b 01       		.uleb128 0x1
 3399 019c 13       		.uleb128 0x13
 3400 019d 00       		.byte	0
 3401 019e 00       		.byte	0
 3402 019f 1D       		.uleb128 0x1d
 3403 01a0 0B       		.uleb128 0xb
 3404 01a1 01       		.byte	0x1
 3405 01a2 11       		.uleb128 0x11
 3406 01a3 01       		.uleb128 0x1
 3407 01a4 12       		.uleb128 0x12
 3408 01a5 01       		.uleb128 0x1
 3409 01a6 00       		.byte	0
 3410 01a7 00       		.byte	0
 3411 01a8 1E       		.uleb128 0x1e
 3412 01a9 2E       		.uleb128 0x2e
 3413 01aa 01       		.byte	0x1
 3414 01ab 3F       		.uleb128 0x3f
 3415 01ac 0C       		.uleb128 0xc
 3416 01ad 03       		.uleb128 0x3
 3417 01ae 0E       		.uleb128 0xe
 3418 01af 3A       		.uleb128 0x3a
 3419 01b0 0B       		.uleb128 0xb
 3420 01b1 3B       		.uleb128 0x3b
 3421 01b2 05       		.uleb128 0x5
 3422 01b3 39       		.uleb128 0x39
 3423 01b4 0B       		.uleb128 0xb
 3424 01b5 27       		.uleb128 0x27
 3425 01b6 0C       		.uleb128 0xc
 3426 01b7 11       		.uleb128 0x11
 3427 01b8 01       		.uleb128 0x1
GAS LISTING C:\Users\jisu8\AppData\Local\Temp\ccIUpqyy.s 			page 77


 3428 01b9 12       		.uleb128 0x12
 3429 01ba 01       		.uleb128 0x1
 3430 01bb 40       		.uleb128 0x40
 3431 01bc 06       		.uleb128 0x6
 3432 01bd 9742     		.uleb128 0x2117
 3433 01bf 0C       		.uleb128 0xc
 3434 01c0 01       		.uleb128 0x1
 3435 01c1 13       		.uleb128 0x13
 3436 01c2 00       		.byte	0
 3437 01c3 00       		.byte	0
 3438 01c4 1F       		.uleb128 0x1f
 3439 01c5 2E       		.uleb128 0x2e
 3440 01c6 01       		.byte	0x1
 3441 01c7 3F       		.uleb128 0x3f
 3442 01c8 0C       		.uleb128 0xc
 3443 01c9 03       		.uleb128 0x3
 3444 01ca 08       		.uleb128 0x8
 3445 01cb 3A       		.uleb128 0x3a
 3446 01cc 0B       		.uleb128 0xb
 3447 01cd 3B       		.uleb128 0x3b
 3448 01ce 05       		.uleb128 0x5
 3449 01cf 39       		.uleb128 0x39
 3450 01d0 0B       		.uleb128 0xb
 3451 01d1 49       		.uleb128 0x49
 3452 01d2 13       		.uleb128 0x13
 3453 01d3 3C       		.uleb128 0x3c
 3454 01d4 0C       		.uleb128 0xc
 3455 01d5 01       		.uleb128 0x1
 3456 01d6 13       		.uleb128 0x13
 3457 01d7 00       		.byte	0
 3458 01d8 00       		.byte	0
 3459 01d9 20       		.uleb128 0x20
 3460 01da 21       		.uleb128 0x21
 3461 01db 00       		.byte	0
 3462 01dc 49       		.uleb128 0x49
 3463 01dd 13       		.uleb128 0x13
 3464 01de 2F       		.uleb128 0x2f
 3465 01df 0A       		.uleb128 0xa
 3466 01e0 00       		.byte	0
 3467 01e1 00       		.byte	0
 3468 01e2 21       		.uleb128 0x21
 3469 01e3 2E       		.uleb128 0x2e
 3470 01e4 01       		.byte	0x1
 3471 01e5 3F       		.uleb128 0x3f
 3472 01e6 0C       		.uleb128 0xc
 3473 01e7 03       		.uleb128 0x3
 3474 01e8 08       		.uleb128 0x8
 3475 01e9 3A       		.uleb128 0x3a
 3476 01ea 0B       		.uleb128 0xb
 3477 01eb 3B       		.uleb128 0x3b
 3478 01ec 05       		.uleb128 0x5
 3479 01ed 39       		.uleb128 0x39
 3480 01ee 0B       		.uleb128 0xb
 3481 01ef 27       		.uleb128 0x27
 3482 01f0 0C       		.uleb128 0xc
 3483 01f1 11       		.uleb128 0x11
 3484 01f2 01       		.uleb128 0x1
GAS LISTING C:\Users\jisu8\AppData\Local\Temp\ccIUpqyy.s 			page 78


 3485 01f3 12       		.uleb128 0x12
 3486 01f4 01       		.uleb128 0x1
 3487 01f5 40       		.uleb128 0x40
 3488 01f6 06       		.uleb128 0x6
 3489 01f7 9642     		.uleb128 0x2116
 3490 01f9 0C       		.uleb128 0xc
 3491 01fa 01       		.uleb128 0x1
 3492 01fb 13       		.uleb128 0x13
 3493 01fc 00       		.byte	0
 3494 01fd 00       		.byte	0
 3495 01fe 22       		.uleb128 0x22
 3496 01ff 2E       		.uleb128 0x2e
 3497 0200 01       		.byte	0x1
 3498 0201 3F       		.uleb128 0x3f
 3499 0202 0C       		.uleb128 0xc
 3500 0203 03       		.uleb128 0x3
 3501 0204 0E       		.uleb128 0xe
 3502 0205 3A       		.uleb128 0x3a
 3503 0206 0B       		.uleb128 0xb
 3504 0207 3B       		.uleb128 0x3b
 3505 0208 05       		.uleb128 0x5
 3506 0209 39       		.uleb128 0x39
 3507 020a 0B       		.uleb128 0xb
 3508 020b 49       		.uleb128 0x49
 3509 020c 13       		.uleb128 0x13
 3510 020d 3C       		.uleb128 0x3c
 3511 020e 0C       		.uleb128 0xc
 3512 020f 01       		.uleb128 0x1
 3513 0210 13       		.uleb128 0x13
 3514 0211 00       		.byte	0
 3515 0212 00       		.byte	0
 3516 0213 23       		.uleb128 0x23
 3517 0214 2E       		.uleb128 0x2e
 3518 0215 01       		.byte	0x1
 3519 0216 03       		.uleb128 0x3
 3520 0217 08       		.uleb128 0x8
 3521 0218 3A       		.uleb128 0x3a
 3522 0219 0B       		.uleb128 0xb
 3523 021a 3B       		.uleb128 0x3b
 3524 021b 0B       		.uleb128 0xb
 3525 021c 39       		.uleb128 0x39
 3526 021d 0B       		.uleb128 0xb
 3527 021e 27       		.uleb128 0x27
 3528 021f 0C       		.uleb128 0xc
 3529 0220 11       		.uleb128 0x11
 3530 0221 01       		.uleb128 0x1
 3531 0222 12       		.uleb128 0x12
 3532 0223 01       		.uleb128 0x1
 3533 0224 40       		.uleb128 0x40
 3534 0225 06       		.uleb128 0x6
 3535 0226 9642     		.uleb128 0x2116
 3536 0228 0C       		.uleb128 0xc
 3537 0229 01       		.uleb128 0x1
 3538 022a 13       		.uleb128 0x13
 3539 022b 00       		.byte	0
 3540 022c 00       		.byte	0
 3541 022d 24       		.uleb128 0x24
GAS LISTING C:\Users\jisu8\AppData\Local\Temp\ccIUpqyy.s 			page 79


 3542 022e 05       		.uleb128 0x5
 3543 022f 00       		.byte	0
 3544 0230 03       		.uleb128 0x3
 3545 0231 08       		.uleb128 0x8
 3546 0232 3A       		.uleb128 0x3a
 3547 0233 0B       		.uleb128 0xb
 3548 0234 3B       		.uleb128 0x3b
 3549 0235 0B       		.uleb128 0xb
 3550 0236 39       		.uleb128 0x39
 3551 0237 0B       		.uleb128 0xb
 3552 0238 49       		.uleb128 0x49
 3553 0239 13       		.uleb128 0x13
 3554 023a 02       		.uleb128 0x2
 3555 023b 0A       		.uleb128 0xa
 3556 023c 00       		.byte	0
 3557 023d 00       		.byte	0
 3558 023e 25       		.uleb128 0x25
 3559 023f 05       		.uleb128 0x5
 3560 0240 00       		.byte	0
 3561 0241 03       		.uleb128 0x3
 3562 0242 0E       		.uleb128 0xe
 3563 0243 3A       		.uleb128 0x3a
 3564 0244 0B       		.uleb128 0xb
 3565 0245 3B       		.uleb128 0x3b
 3566 0246 0B       		.uleb128 0xb
 3567 0247 39       		.uleb128 0x39
 3568 0248 0B       		.uleb128 0xb
 3569 0249 49       		.uleb128 0x49
 3570 024a 13       		.uleb128 0x13
 3571 024b 02       		.uleb128 0x2
 3572 024c 0A       		.uleb128 0xa
 3573 024d 00       		.byte	0
 3574 024e 00       		.byte	0
 3575 024f 26       		.uleb128 0x26
 3576 0250 34       		.uleb128 0x34
 3577 0251 00       		.byte	0
 3578 0252 03       		.uleb128 0x3
 3579 0253 0E       		.uleb128 0xe
 3580 0254 3A       		.uleb128 0x3a
 3581 0255 0B       		.uleb128 0xb
 3582 0256 3B       		.uleb128 0x3b
 3583 0257 0B       		.uleb128 0xb
 3584 0258 39       		.uleb128 0x39
 3585 0259 0B       		.uleb128 0xb
 3586 025a 49       		.uleb128 0x49
 3587 025b 13       		.uleb128 0x13
 3588 025c 02       		.uleb128 0x2
 3589 025d 0A       		.uleb128 0xa
 3590 025e 00       		.byte	0
 3591 025f 00       		.byte	0
 3592 0260 27       		.uleb128 0x27
 3593 0261 2E       		.uleb128 0x2e
 3594 0262 01       		.byte	0x1
 3595 0263 03       		.uleb128 0x3
 3596 0264 08       		.uleb128 0x8
 3597 0265 3A       		.uleb128 0x3a
 3598 0266 0B       		.uleb128 0xb
GAS LISTING C:\Users\jisu8\AppData\Local\Temp\ccIUpqyy.s 			page 80


 3599 0267 3B       		.uleb128 0x3b
 3600 0268 0B       		.uleb128 0xb
 3601 0269 39       		.uleb128 0x39
 3602 026a 0B       		.uleb128 0xb
 3603 026b 27       		.uleb128 0x27
 3604 026c 0C       		.uleb128 0xc
 3605 026d 11       		.uleb128 0x11
 3606 026e 01       		.uleb128 0x1
 3607 026f 12       		.uleb128 0x12
 3608 0270 01       		.uleb128 0x1
 3609 0271 40       		.uleb128 0x40
 3610 0272 06       		.uleb128 0x6
 3611 0273 9742     		.uleb128 0x2117
 3612 0275 0C       		.uleb128 0xc
 3613 0276 01       		.uleb128 0x1
 3614 0277 13       		.uleb128 0x13
 3615 0278 00       		.byte	0
 3616 0279 00       		.byte	0
 3617 027a 28       		.uleb128 0x28
 3618 027b 2E       		.uleb128 0x2e
 3619 027c 01       		.byte	0x1
 3620 027d 3F       		.uleb128 0x3f
 3621 027e 0C       		.uleb128 0xc
 3622 027f 03       		.uleb128 0x3
 3623 0280 08       		.uleb128 0x8
 3624 0281 3A       		.uleb128 0x3a
 3625 0282 0B       		.uleb128 0xb
 3626 0283 3B       		.uleb128 0x3b
 3627 0284 0B       		.uleb128 0xb
 3628 0285 39       		.uleb128 0x39
 3629 0286 0B       		.uleb128 0xb
 3630 0287 27       		.uleb128 0x27
 3631 0288 0C       		.uleb128 0xc
 3632 0289 49       		.uleb128 0x49
 3633 028a 13       		.uleb128 0x13
 3634 028b 11       		.uleb128 0x11
 3635 028c 01       		.uleb128 0x1
 3636 028d 12       		.uleb128 0x12
 3637 028e 01       		.uleb128 0x1
 3638 028f 40       		.uleb128 0x40
 3639 0290 06       		.uleb128 0x6
 3640 0291 9742     		.uleb128 0x2117
 3641 0293 0C       		.uleb128 0xc
 3642 0294 01       		.uleb128 0x1
 3643 0295 13       		.uleb128 0x13
 3644 0296 00       		.byte	0
 3645 0297 00       		.byte	0
 3646 0298 29       		.uleb128 0x29
 3647 0299 2E       		.uleb128 0x2e
 3648 029a 01       		.byte	0x1
 3649 029b 3F       		.uleb128 0x3f
 3650 029c 0C       		.uleb128 0xc
 3651 029d 03       		.uleb128 0x3
 3652 029e 08       		.uleb128 0x8
 3653 029f 3A       		.uleb128 0x3a
 3654 02a0 0B       		.uleb128 0xb
 3655 02a1 3B       		.uleb128 0x3b
GAS LISTING C:\Users\jisu8\AppData\Local\Temp\ccIUpqyy.s 			page 81


 3656 02a2 0B       		.uleb128 0xb
 3657 02a3 39       		.uleb128 0x39
 3658 02a4 0B       		.uleb128 0xb
 3659 02a5 27       		.uleb128 0x27
 3660 02a6 0C       		.uleb128 0xc
 3661 02a7 11       		.uleb128 0x11
 3662 02a8 01       		.uleb128 0x1
 3663 02a9 12       		.uleb128 0x12
 3664 02aa 01       		.uleb128 0x1
 3665 02ab 40       		.uleb128 0x40
 3666 02ac 06       		.uleb128 0x6
 3667 02ad 9642     		.uleb128 0x2116
 3668 02af 0C       		.uleb128 0xc
 3669 02b0 01       		.uleb128 0x1
 3670 02b1 13       		.uleb128 0x13
 3671 02b2 00       		.byte	0
 3672 02b3 00       		.byte	0
 3673 02b4 2A       		.uleb128 0x2a
 3674 02b5 2E       		.uleb128 0x2e
 3675 02b6 01       		.byte	0x1
 3676 02b7 3F       		.uleb128 0x3f
 3677 02b8 0C       		.uleb128 0xc
 3678 02b9 03       		.uleb128 0x3
 3679 02ba 0E       		.uleb128 0xe
 3680 02bb 3A       		.uleb128 0x3a
 3681 02bc 0B       		.uleb128 0xb
 3682 02bd 3B       		.uleb128 0x3b
 3683 02be 0B       		.uleb128 0xb
 3684 02bf 27       		.uleb128 0x27
 3685 02c0 0C       		.uleb128 0xc
 3686 02c1 49       		.uleb128 0x49
 3687 02c2 13       		.uleb128 0x13
 3688 02c3 3C       		.uleb128 0x3c
 3689 02c4 0C       		.uleb128 0xc
 3690 02c5 00       		.byte	0
 3691 02c6 00       		.byte	0
 3692 02c7 00       		.byte	0
 3693              		.section	.debug_loc,"dr"
 3694              	Ldebug_loc0:
 3695              	LLST9:
 3696 0000 62070000 		.long	LFB13-Ltext0
 3697 0004 63070000 		.long	LCFI27-Ltext0
 3698 0008 0200     		.word	0x2
 3699 000a 74       		.byte	0x74
 3700 000b 04       		.sleb128 4
 3701 000c 63070000 		.long	LCFI27-Ltext0
 3702 0010 65070000 		.long	LCFI28-Ltext0
 3703 0014 0200     		.word	0x2
 3704 0016 74       		.byte	0x74
 3705 0017 08       		.sleb128 8
 3706 0018 65070000 		.long	LCFI28-Ltext0
 3707 001c 750A0000 		.long	LCFI29-Ltext0
 3708 0020 0200     		.word	0x2
 3709 0022 75       		.byte	0x75
 3710 0023 08       		.sleb128 8
 3711 0024 750A0000 		.long	LCFI29-Ltext0
 3712 0028 760A0000 		.long	LFE13-Ltext0
GAS LISTING C:\Users\jisu8\AppData\Local\Temp\ccIUpqyy.s 			page 82


 3713 002c 0200     		.word	0x2
 3714 002e 74       		.byte	0x74
 3715 002f 04       		.sleb128 4
 3716 0030 00000000 		.long	0
 3717 0034 00000000 		.long	0
 3718              	LLST8:
 3719 0038 14070000 		.long	LFB12-Ltext0
 3720 003c 15070000 		.long	LCFI24-Ltext0
 3721 0040 0200     		.word	0x2
 3722 0042 74       		.byte	0x74
 3723 0043 04       		.sleb128 4
 3724 0044 15070000 		.long	LCFI24-Ltext0
 3725 0048 17070000 		.long	LCFI25-Ltext0
 3726 004c 0200     		.word	0x2
 3727 004e 74       		.byte	0x74
 3728 004f 08       		.sleb128 8
 3729 0050 17070000 		.long	LCFI25-Ltext0
 3730 0054 61070000 		.long	LCFI26-Ltext0
 3731 0058 0200     		.word	0x2
 3732 005a 75       		.byte	0x75
 3733 005b 08       		.sleb128 8
 3734 005c 61070000 		.long	LCFI26-Ltext0
 3735 0060 62070000 		.long	LFE12-Ltext0
 3736 0064 0200     		.word	0x2
 3737 0066 74       		.byte	0x74
 3738 0067 04       		.sleb128 4
 3739 0068 00000000 		.long	0
 3740 006c 00000000 		.long	0
 3741              	LLST7:
 3742 0070 AF050000 		.long	LFB11-Ltext0
 3743 0074 B0050000 		.long	LCFI21-Ltext0
 3744 0078 0200     		.word	0x2
 3745 007a 74       		.byte	0x74
 3746 007b 04       		.sleb128 4
 3747 007c B0050000 		.long	LCFI21-Ltext0
 3748 0080 B2050000 		.long	LCFI22-Ltext0
 3749 0084 0200     		.word	0x2
 3750 0086 74       		.byte	0x74
 3751 0087 08       		.sleb128 8
 3752 0088 B2050000 		.long	LCFI22-Ltext0
 3753 008c 13070000 		.long	LCFI23-Ltext0
 3754 0090 0200     		.word	0x2
 3755 0092 75       		.byte	0x75
 3756 0093 08       		.sleb128 8
 3757 0094 13070000 		.long	LCFI23-Ltext0
 3758 0098 14070000 		.long	LFE11-Ltext0
 3759 009c 0200     		.word	0x2
 3760 009e 74       		.byte	0x74
 3761 009f 04       		.sleb128 4
 3762 00a0 00000000 		.long	0
 3763 00a4 00000000 		.long	0
 3764              	LLST6:
 3765 00a8 44030000 		.long	LFB10-Ltext0
 3766 00ac 45030000 		.long	LCFI18-Ltext0
 3767 00b0 0200     		.word	0x2
 3768 00b2 74       		.byte	0x74
 3769 00b3 04       		.sleb128 4
GAS LISTING C:\Users\jisu8\AppData\Local\Temp\ccIUpqyy.s 			page 83


 3770 00b4 45030000 		.long	LCFI18-Ltext0
 3771 00b8 47030000 		.long	LCFI19-Ltext0
 3772 00bc 0200     		.word	0x2
 3773 00be 74       		.byte	0x74
 3774 00bf 08       		.sleb128 8
 3775 00c0 47030000 		.long	LCFI19-Ltext0
 3776 00c4 AE050000 		.long	LCFI20-Ltext0
 3777 00c8 0200     		.word	0x2
 3778 00ca 75       		.byte	0x75
 3779 00cb 08       		.sleb128 8
 3780 00cc AE050000 		.long	LCFI20-Ltext0
 3781 00d0 AF050000 		.long	LFE10-Ltext0
 3782 00d4 0200     		.word	0x2
 3783 00d6 74       		.byte	0x74
 3784 00d7 04       		.sleb128 4
 3785 00d8 00000000 		.long	0
 3786 00dc 00000000 		.long	0
 3787              	LLST5:
 3788 00e0 56010000 		.long	LFB9-Ltext0
 3789 00e4 57010000 		.long	LCFI15-Ltext0
 3790 00e8 0200     		.word	0x2
 3791 00ea 74       		.byte	0x74
 3792 00eb 04       		.sleb128 4
 3793 00ec 57010000 		.long	LCFI15-Ltext0
 3794 00f0 59010000 		.long	LCFI16-Ltext0
 3795 00f4 0200     		.word	0x2
 3796 00f6 74       		.byte	0x74
 3797 00f7 08       		.sleb128 8
 3798 00f8 59010000 		.long	LCFI16-Ltext0
 3799 00fc 43030000 		.long	LCFI17-Ltext0
 3800 0100 0200     		.word	0x2
 3801 0102 75       		.byte	0x75
 3802 0103 08       		.sleb128 8
 3803 0104 43030000 		.long	LCFI17-Ltext0
 3804 0108 44030000 		.long	LFE9-Ltext0
 3805 010c 0200     		.word	0x2
 3806 010e 74       		.byte	0x74
 3807 010f 04       		.sleb128 4
 3808 0110 00000000 		.long	0
 3809 0114 00000000 		.long	0
 3810              	LLST4:
 3811 0118 18010000 		.long	LFB8-Ltext0
 3812 011c 19010000 		.long	LCFI12-Ltext0
 3813 0120 0200     		.word	0x2
 3814 0122 74       		.byte	0x74
 3815 0123 04       		.sleb128 4
 3816 0124 19010000 		.long	LCFI12-Ltext0
 3817 0128 1B010000 		.long	LCFI13-Ltext0
 3818 012c 0200     		.word	0x2
 3819 012e 74       		.byte	0x74
 3820 012f 08       		.sleb128 8
 3821 0130 1B010000 		.long	LCFI13-Ltext0
 3822 0134 55010000 		.long	LCFI14-Ltext0
 3823 0138 0200     		.word	0x2
 3824 013a 75       		.byte	0x75
 3825 013b 08       		.sleb128 8
 3826 013c 55010000 		.long	LCFI14-Ltext0
GAS LISTING C:\Users\jisu8\AppData\Local\Temp\ccIUpqyy.s 			page 84


 3827 0140 56010000 		.long	LFE8-Ltext0
 3828 0144 0200     		.word	0x2
 3829 0146 74       		.byte	0x74
 3830 0147 04       		.sleb128 4
 3831 0148 00000000 		.long	0
 3832 014c 00000000 		.long	0
 3833              	LLST3:
 3834 0150 04010000 		.long	LFB7-Ltext0
 3835 0154 05010000 		.long	LCFI9-Ltext0
 3836 0158 0200     		.word	0x2
 3837 015a 74       		.byte	0x74
 3838 015b 04       		.sleb128 4
 3839 015c 05010000 		.long	LCFI9-Ltext0
 3840 0160 07010000 		.long	LCFI10-Ltext0
 3841 0164 0200     		.word	0x2
 3842 0166 74       		.byte	0x74
 3843 0167 08       		.sleb128 8
 3844 0168 07010000 		.long	LCFI10-Ltext0
 3845 016c 17010000 		.long	LCFI11-Ltext0
 3846 0170 0200     		.word	0x2
 3847 0172 75       		.byte	0x75
 3848 0173 08       		.sleb128 8
 3849 0174 17010000 		.long	LCFI11-Ltext0
 3850 0178 18010000 		.long	LFE7-Ltext0
 3851 017c 0200     		.word	0x2
 3852 017e 74       		.byte	0x74
 3853 017f 04       		.sleb128 4
 3854 0180 00000000 		.long	0
 3855 0184 00000000 		.long	0
 3856              	LLST2:
 3857 0188 F1000000 		.long	LFB6-Ltext0
 3858 018c F2000000 		.long	LCFI6-Ltext0
 3859 0190 0200     		.word	0x2
 3860 0192 74       		.byte	0x74
 3861 0193 04       		.sleb128 4
 3862 0194 F2000000 		.long	LCFI6-Ltext0
 3863 0198 F4000000 		.long	LCFI7-Ltext0
 3864 019c 0200     		.word	0x2
 3865 019e 74       		.byte	0x74
 3866 019f 08       		.sleb128 8
 3867 01a0 F4000000 		.long	LCFI7-Ltext0
 3868 01a4 03010000 		.long	LCFI8-Ltext0
 3869 01a8 0200     		.word	0x2
 3870 01aa 75       		.byte	0x75
 3871 01ab 08       		.sleb128 8
 3872 01ac 03010000 		.long	LCFI8-Ltext0
 3873 01b0 04010000 		.long	LFE6-Ltext0
 3874 01b4 0200     		.word	0x2
 3875 01b6 74       		.byte	0x74
 3876 01b7 04       		.sleb128 4
 3877 01b8 00000000 		.long	0
 3878 01bc 00000000 		.long	0
 3879              	LLST1:
 3880 01c0 E6000000 		.long	LFB5-Ltext0
 3881 01c4 E7000000 		.long	LCFI3-Ltext0
 3882 01c8 0200     		.word	0x2
 3883 01ca 74       		.byte	0x74
GAS LISTING C:\Users\jisu8\AppData\Local\Temp\ccIUpqyy.s 			page 85


 3884 01cb 04       		.sleb128 4
 3885 01cc E7000000 		.long	LCFI3-Ltext0
 3886 01d0 E9000000 		.long	LCFI4-Ltext0
 3887 01d4 0200     		.word	0x2
 3888 01d6 74       		.byte	0x74
 3889 01d7 08       		.sleb128 8
 3890 01d8 E9000000 		.long	LCFI4-Ltext0
 3891 01dc F0000000 		.long	LCFI5-Ltext0
 3892 01e0 0200     		.word	0x2
 3893 01e2 75       		.byte	0x75
 3894 01e3 08       		.sleb128 8
 3895 01e4 F0000000 		.long	LCFI5-Ltext0
 3896 01e8 F1000000 		.long	LFE5-Ltext0
 3897 01ec 0200     		.word	0x2
 3898 01ee 74       		.byte	0x74
 3899 01ef 04       		.sleb128 4
 3900 01f0 00000000 		.long	0
 3901 01f4 00000000 		.long	0
 3902              	LLST0:
 3903 01f8 00000000 		.long	LFB4-Ltext0
 3904 01fc 01000000 		.long	LCFI0-Ltext0
 3905 0200 0200     		.word	0x2
 3906 0202 74       		.byte	0x74
 3907 0203 04       		.sleb128 4
 3908 0204 01000000 		.long	LCFI0-Ltext0
 3909 0208 03000000 		.long	LCFI1-Ltext0
 3910 020c 0200     		.word	0x2
 3911 020e 74       		.byte	0x74
 3912 020f 08       		.sleb128 8
 3913 0210 03000000 		.long	LCFI1-Ltext0
 3914 0214 E5000000 		.long	LCFI2-Ltext0
 3915 0218 0200     		.word	0x2
 3916 021a 75       		.byte	0x75
 3917 021b 08       		.sleb128 8
 3918 021c E5000000 		.long	LCFI2-Ltext0
 3919 0220 E6000000 		.long	LFE4-Ltext0
 3920 0224 0200     		.word	0x2
 3921 0226 74       		.byte	0x74
 3922 0227 04       		.sleb128 4
 3923 0228 00000000 		.long	0
 3924 022c 00000000 		.long	0
 3925              		.section	.debug_aranges,"dr"
 3926 0000 1C000000 		.long	0x1c
 3927 0004 0200     		.word	0x2
 3928 0006 00000000 		.secrel32	Ldebug_info0
 3929 000a 04       		.byte	0x4
 3930 000b 00       		.byte	0
 3931 000c 0000     		.word	0
 3932 000e 0000     		.word	0
 3933 0010 00000000 		.long	Ltext0
 3934 0014 760A0000 		.long	Letext0-Ltext0
 3935 0018 00000000 		.long	0
 3936 001c 00000000 		.long	0
 3937              		.section	.debug_line,"dr"
 3938              	Ldebug_line0:
 3939 0000 23050000 		.section	.debug_str,"dr"
 3939      02004A01 
GAS LISTING C:\Users\jisu8\AppData\Local\Temp\ccIUpqyy.s 			page 86


 3939      00000101 
 3939      FB0E0D00 
 3939      01010101 
 3940              	LASF0:
 3941 0000 6D5F6861 		.ascii "m_hasValue\0"
 3941      7356616C 
 3941      756500
 3942              	LASF2:
 3943 000b 726F7749 		.ascii "rowIndicatorColumn\0"
 3943      6E646963 
 3943      61746F72 
 3943      436F6C75 
 3943      6D6E00
 3944              	LASF4:
 3945 001e 526F7749 		.ascii "RowIndicatorColumn\0"
 3945      6E646963 
 3945      61746F72 
 3945      436F6C75 
 3945      6D6E00
 3946              	LASF7:
 3947 0031 636F6465 		.ascii "codewordRowNumber\0"
 3947      776F7264 
 3947      526F774E 
 3947      756D6265 
 3947      7200
 3948              	LASF3:
 3949 0043 636F6465 		.ascii "codewords\0"
 3949      776F7264 
 3949      7300
 3950              	LASF5:
 3951 004d 6C656E67 		.ascii "length\0"
 3951      746800
 3952              	LASF9:
 3953 0054 62617263 		.ascii "barcodeMetadata\0"
 3953      6F64654D 
 3953      65746164 
 3953      61746100 
 3954              	LASF1:
 3955 0064 6D5F7661 		.ascii "m_value\0"
 3955      6C756500 
 3956              	LASF10:
 3957 006c 73657452 		.ascii "setRowNumberAsRowIndicatorColumn\0"
 3957      6F774E75 
 3957      6D626572 
 3957      4173526F 
 3957      77496E64 
 3958              	LASF6:
 3959 008d 726F7749 		.ascii "rowIndicatorValue\0"
 3959      6E646963 
 3959      61746F72 
 3959      56616C75 
 3959      6500
 3960              	LASF8:
 3961 009f 7072696E 		.ascii "printf\0"
 3961      746600
 3962              		.ident	"GCC: (i686-posix-dwarf-rev0, Built by MinGW-W64 project) 8.1.0"
GAS LISTING C:\Users\jisu8\AppData\Local\Temp\ccIUpqyy.s 			page 87


DEFINED SYMBOLS
                            *ABS*:00000000 PDFDetectionResultColumn.c
C:\Users\jisu8\AppData\Local\Temp\ccIUpqyy.s:6      .rdata:00000000 _MAX_NEARBY_DISTANCE
C:\Users\jisu8\AppData\Local\Temp\ccIUpqyy.s:9      .rdata:00000004 _MIN_ROWS_IN_BARCODE
C:\Users\jisu8\AppData\Local\Temp\ccIUpqyy.s:12     .rdata:00000008 _MAX_ROWS_IN_BARCODE
                            *COM*:00000fa0 _codewords
C:\Users\jisu8\AppData\Local\Temp\ccIUpqyy.s:20     .text:00000000 _DetectionResultColumn
C:\Users\jisu8\AppData\Local\Temp\ccIUpqyy.s:141    .text:000000e6 _allCodewords
C:\Users\jisu8\AppData\Local\Temp\ccIUpqyy.s:165    .text:000000f1 _isRowIndicator
C:\Users\jisu8\AppData\Local\Temp\ccIUpqyy.s:192    .text:00000104 _isLeftRowIndicator
C:\Users\jisu8\AppData\Local\Temp\ccIUpqyy.s:218    .text:00000118 _clear_var
C:\Users\jisu8\AppData\Local\Temp\ccIUpqyy.s:261    .text:00000156 _RemoveIncorrectCodewords
C:\Users\jisu8\AppData\Local\Temp\ccIUpqyy.s:528    .text:00000344 _adjustIncompleteIndicatorColumnRowNumbers
C:\Users\jisu8\AppData\Local\Temp\ccIUpqyy.s:813    .text:000005af _getRowHeights
C:\Users\jisu8\AppData\Local\Temp\ccIUpqyy.s:996    .text:00000714 _setRowNumberAsRowIndicatorColumn
C:\Users\jisu8\AppData\Local\Temp\ccIUpqyy.s:1060   .text:00000762 _getBarcodeMetadata

UNDEFINED SYMBOLS
___chkstk_ms
_printf
_puts
_rowCount
_topLeft
_topRight
_bottomLeft
_bottomRight
_fill
_BarcodeSetValue
_BarcodeValue
