GAS LISTING C:\Users\jisu8\AppData\Local\Temp\ccwGfk1w.s 			page 1


   1              		.file	"PDFDetectionResult.c"
   2              		.text
   3              	Ltext0:
   4              		.section .rdata,"dr"
   5              		.align 4
   6              	_ADJUST_ROW_NUMBER_SKIP:
   7 0000 02000000 		.long	2
   8              		.text
   9              		.globl	_Detection_Result_init
  11              	_Detection_Result_init:
  12              	LFB1:
  13              		.file 1 "src/pdf417/PDFDetectionResult.c"
   1:src/pdf417/PDFDetectionResult.c **** 
   2:src/pdf417/PDFDetectionResult.c **** #include "PDFDetectionResult.h"
   3:src/pdf417/PDFDetectionResult.c **** #include "PDFCodewordDecoder.h"
   4:src/pdf417/PDFDetectionResult.c **** #include "PDFScanningDecoder.h"
   5:src/pdf417/PDFDetectionResult.c **** 
   6:src/pdf417/PDFDetectionResult.c **** static const int ADJUST_ROW_NUMBER_SKIP = 2;
   7:src/pdf417/PDFDetectionResult.c **** 
   8:src/pdf417/PDFDetectionResult.c **** void Detection_Result_init(const BarcodeMetadata_t * barcodeMetadata, const BoundingBox_t * boundin
   9:src/pdf417/PDFDetectionResult.c **** {
  14              		.loc 1 9 1
  15              		.cfi_startproc
  16 0000 55       		pushl	%ebp
  17              	LCFI0:
  18              		.cfi_def_cfa_offset 8
  19              		.cfi_offset 5, -8
  20 0001 89E5     		movl	%esp, %ebp
  21              	LCFI1:
  22              		.cfi_def_cfa_register 5
  23 0003 57       		pushl	%edi
  24 0004 56       		pushl	%esi
  25 0005 53       		pushl	%ebx
  26              		.cfi_offset 7, -12
  27              		.cfi_offset 6, -16
  28              		.cfi_offset 3, -20
  10:src/pdf417/PDFDetectionResult.c **** 	result->_barcodeMetadata = *barcodeMetadata;
  29              		.loc 1 10 27
  30 0006 8B4510   		movl	16(%ebp), %eax
  31 0009 8B5508   		movl	8(%ebp), %edx
  32 000c 8B0A     		movl	(%edx), %ecx
  33 000e 8908     		movl	%ecx, (%eax)
  34 0010 8B4A04   		movl	4(%edx), %ecx
  35 0013 894804   		movl	%ecx, 4(%eax)
  36 0016 8B4A08   		movl	8(%edx), %ecx
  37 0019 894808   		movl	%ecx, 8(%eax)
  38 001c 8B520C   		movl	12(%edx), %edx
  39 001f 89500C   		movl	%edx, 12(%eax)
  11:src/pdf417/PDFDetectionResult.c **** 	result->_boundingBox = *boundingBox;
  40              		.loc 1 11 23
  41 0022 8B4510   		movl	16(%ebp), %eax
  42 0025 8B550C   		movl	12(%ebp), %edx
  43 0028 05607012 		addl	$1208416, %eax
  43      00
  44 002d 89D3     		movl	%edx, %ebx
  45 002f BA130000 		movl	$19, %edx
  45      00
GAS LISTING C:\Users\jisu8\AppData\Local\Temp\ccwGfk1w.s 			page 2


  46 0034 89C7     		movl	%eax, %edi
  47 0036 89DE     		movl	%ebx, %esi
  48 0038 89D1     		movl	%edx, %ecx
  49 003a F3A5     		rep movsl
  12:src/pdf417/PDFDetectionResult.c **** 	result->_detectionResultColumns[barcodeMetadata->_columnCount + 2];
  13:src/pdf417/PDFDetectionResult.c **** 	//std::fill(_detectionResultColumns.begin(), _detectionResultColumns.end(), nullptr);
  14:src/pdf417/PDFDetectionResult.c **** }
  50              		.loc 1 14 1
  51 003c 90       		nop
  52 003d 5B       		popl	%ebx
  53              		.cfi_restore 3
  54 003e 5E       		popl	%esi
  55              		.cfi_restore 6
  56 003f 5F       		popl	%edi
  57              		.cfi_restore 7
  58 0040 5D       		popl	%ebp
  59              	LCFI2:
  60              		.cfi_restore 5
  61              		.cfi_def_cfa 4, 4
  62 0041 C3       		ret
  63              		.cfi_endproc
  64              	LFE1:
  66              	_AdjustIndicatorColumnRowNumbers:
  67              	LFB2:
  15:src/pdf417/PDFDetectionResult.c **** 
  16:src/pdf417/PDFDetectionResult.c **** static void AdjustIndicatorColumnRowNumbers(DetectionResultColumn_t * detectionResultColumn, const 
  17:src/pdf417/PDFDetectionResult.c **** {
  68              		.loc 1 17 1
  69              		.cfi_startproc
  70 0042 55       		pushl	%ebp
  71              	LCFI3:
  72              		.cfi_def_cfa_offset 8
  73              		.cfi_offset 5, -8
  74 0043 89E5     		movl	%esp, %ebp
  75              	LCFI4:
  76              		.cfi_def_cfa_register 5
  77 0045 83EC18   		subl	$24, %esp
  18:src/pdf417/PDFDetectionResult.c **** 	if (detectionResultColumn->m_hasValue != 0) 
  78              		.loc 1 18 27
  79 0048 8B4508   		movl	8(%ebp), %eax
  80 004b 0FB600   		movzbl	(%eax), %eax
  81              		.loc 1 18 5
  82 004e 84C0     		testb	%al, %al
  83 0050 7412     		je	L4
  19:src/pdf417/PDFDetectionResult.c **** 	{
  20:src/pdf417/PDFDetectionResult.c **** 		adjustCompleteIndicatorColumnRowNumbers(detectionResultColumn,barcodeMetadata);
  84              		.loc 1 20 3
  85 0052 8B450C   		movl	12(%ebp), %eax
  86 0055 89442404 		movl	%eax, 4(%esp)
  87 0059 8B4508   		movl	8(%ebp), %eax
  88 005c 890424   		movl	%eax, (%esp)
  89 005f E8000000 		call	_adjustCompleteIndicatorColumnRowNumbers
  89      00
  90              	L4:
  21:src/pdf417/PDFDetectionResult.c **** 	}
  22:src/pdf417/PDFDetectionResult.c **** }
  91              		.loc 1 22 1
GAS LISTING C:\Users\jisu8\AppData\Local\Temp\ccwGfk1w.s 			page 3


  92 0064 90       		nop
  93 0065 C9       		leave
  94              	LCFI5:
  95              		.cfi_restore 5
  96              		.cfi_def_cfa 4, 4
  97 0066 C3       		ret
  98              		.cfi_endproc
  99              	LFE2:
 101              	_AdjustRowNumbersFromBothRI:
 102              	LFB3:
  23:src/pdf417/PDFDetectionResult.c **** 
  24:src/pdf417/PDFDetectionResult.c **** static void AdjustRowNumbersFromBothRI(DetectionResultColumn_t * detectionResultColumns,int row,int
  25:src/pdf417/PDFDetectionResult.c **** {
 103              		.loc 1 25 1
 104              		.cfi_startproc
 105 0067 55       		pushl	%ebp
 106              	LCFI6:
 107              		.cfi_def_cfa_offset 8
 108              		.cfi_offset 5, -8
 109 0068 89E5     		movl	%esp, %ebp
 110              	LCFI7:
 111              		.cfi_def_cfa_register 5
 112 006a 53       		pushl	%ebx
 113 006b 83EC44   		subl	$68, %esp
 114              		.cfi_offset 3, -12
  26:src/pdf417/PDFDetectionResult.c **** 	if ((detectionResultColumns[0].m_hasValue == 0) || detectionResultColumns[row-1].m_hasValue == 0) 
 115              		.loc 1 26 32
 116 006e 8B4508   		movl	8(%ebp), %eax
 117 0071 0FB600   		movzbl	(%eax), %eax
 118              		.loc 1 26 5
 119 0074 84C0     		testb	%al, %al
 120 0076 0F84CD01 		je	L18
 120      0000
 121              		.loc 1 26 75 discriminator 1
 122 007c 8B450C   		movl	12(%ebp), %eax
 123 007f 69C0342F 		imull	$12084, %eax, %eax
 123      0000
 124 0085 8D90CCD0 		leal	-12084(%eax), %edx
 124      FFFF
 125 008b 8B4508   		movl	8(%ebp), %eax
 126 008e 01D0     		addl	%edx, %eax
 127              		.loc 1 26 82 discriminator 1
 128 0090 0FB600   		movzbl	(%eax), %eax
 129              		.loc 1 26 50 discriminator 1
 130 0093 84C0     		testb	%al, %al
 131 0095 0F84AE01 		je	L18
 131      0000
  27:src/pdf417/PDFDetectionResult.c **** 	{
  28:src/pdf417/PDFDetectionResult.c **** 		return;
  29:src/pdf417/PDFDetectionResult.c **** 	}
  30:src/pdf417/PDFDetectionResult.c **** 
  31:src/pdf417/PDFDetectionResult.c **** 	Codeword_t * LRIcodewords = allCodewords(&detectionResultColumns[0]);
 132              		.loc 1 31 30
 133 009b 8B4508   		movl	8(%ebp), %eax
 134 009e 890424   		movl	%eax, (%esp)
 135 00a1 E8000000 		call	_allCodewords
 135      00
GAS LISTING C:\Users\jisu8\AppData\Local\Temp\ccwGfk1w.s 			page 4


 136 00a6 8945EC   		movl	%eax, -20(%ebp)
  32:src/pdf417/PDFDetectionResult.c **** 	Codeword_t * RRIcodewords = allCodewords(&detectionResultColumns[row-1]);
 137              		.loc 1 32 66
 138 00a9 8B450C   		movl	12(%ebp), %eax
 139 00ac 69C0342F 		imull	$12084, %eax, %eax
 139      0000
 140 00b2 8D90CCD0 		leal	-12084(%eax), %edx
 140      FFFF
 141              		.loc 1 32 30
 142 00b8 8B4508   		movl	8(%ebp), %eax
 143 00bb 01D0     		addl	%edx, %eax
 144 00bd 890424   		movl	%eax, (%esp)
 145 00c0 E8000000 		call	_allCodewords
 145      00
 146 00c5 8945E8   		movl	%eax, -24(%ebp)
 147              	LBB2:
  33:src/pdf417/PDFDetectionResult.c **** 	for (size_t codewordsRow = 0; codewordsRow < size; codewordsRow++) 
 148              		.loc 1 33 14
 149 00c8 C745F400 		movl	$0, -12(%ebp)
 149      000000
 150              		.loc 1 33 2
 151 00cf E9670100 		jmp	L9
 151      00
 152              	L17:
  34:src/pdf417/PDFDetectionResult.c **** 	{
  35:src/pdf417/PDFDetectionResult.c **** 
  36:src/pdf417/PDFDetectionResult.c **** 		if ((LRIcodewords[codewordsRow].m_hasValue != 0) && (RRIcodewords[codewordsRow].m_hasValue != 0) 
 153              		.loc 1 36 20
 154 00d4 8B55F4   		movl	-12(%ebp), %edx
 155 00d7 89D0     		movl	%edx, %eax
 156 00d9 01C0     		addl	%eax, %eax
 157 00db 01D0     		addl	%edx, %eax
 158 00dd C1E003   		sall	$3, %eax
 159 00e0 89C2     		movl	%eax, %edx
 160 00e2 8B45EC   		movl	-20(%ebp), %eax
 161 00e5 01D0     		addl	%edx, %eax
 162              		.loc 1 36 34
 163 00e7 0FB600   		movzbl	(%eax), %eax
 164              		.loc 1 36 6
 165 00ea 84C0     		testb	%al, %al
 166 00ec 0F844501 		je	L10
 166      0000
 167              		.loc 1 36 68 discriminator 1
 168 00f2 8B55F4   		movl	-12(%ebp), %edx
 169 00f5 89D0     		movl	%edx, %eax
 170 00f7 01C0     		addl	%eax, %eax
 171 00f9 01D0     		addl	%edx, %eax
 172 00fb C1E003   		sall	$3, %eax
 173 00fe 89C2     		movl	%eax, %edx
 174 0100 8B45E8   		movl	-24(%ebp), %eax
 175 0103 01D0     		addl	%edx, %eax
 176              		.loc 1 36 82 discriminator 1
 177 0105 0FB600   		movzbl	(%eax), %eax
 178              		.loc 1 36 52 discriminator 1
 179 0108 84C0     		testb	%al, %al
 180 010a 0F842701 		je	L10
 180      0000
GAS LISTING C:\Users\jisu8\AppData\Local\Temp\ccwGfk1w.s 			page 5


  37:src/pdf417/PDFDetectionResult.c **** 			(LRIcodewords[codewordsRow].m_value._rowNumber == RRIcodewords[codewordsRow].m_value._rowNumber)
 181              		.loc 1 37 17 discriminator 2
 182 0110 8B55F4   		movl	-12(%ebp), %edx
 183 0113 89D0     		movl	%edx, %eax
 184 0115 01C0     		addl	%eax, %eax
 185 0117 01D0     		addl	%edx, %eax
 186 0119 C1E003   		sall	$3, %eax
 187 011c 89C2     		movl	%eax, %edx
 188 011e 8B45EC   		movl	-20(%ebp), %eax
 189 0121 01D0     		addl	%edx, %eax
 190              		.loc 1 37 39 discriminator 2
 191 0123 8B4814   		movl	20(%eax), %ecx
 192              		.loc 1 37 66 discriminator 2
 193 0126 8B55F4   		movl	-12(%ebp), %edx
 194 0129 89D0     		movl	%edx, %eax
 195 012b 01C0     		addl	%eax, %eax
 196 012d 01D0     		addl	%edx, %eax
 197 012f C1E003   		sall	$3, %eax
 198 0132 89C2     		movl	%eax, %edx
 199 0134 8B45E8   		movl	-24(%ebp), %eax
 200 0137 01D0     		addl	%edx, %eax
 201              		.loc 1 37 88 discriminator 2
 202 0139 8B4014   		movl	20(%eax), %eax
  36:src/pdf417/PDFDetectionResult.c **** 			(LRIcodewords[codewordsRow].m_value._rowNumber == RRIcodewords[codewordsRow].m_value._rowNumber)
 203              		.loc 1 36 100 discriminator 2
 204 013c 39C1     		cmpl	%eax, %ecx
 205 013e 0F85F300 		jne	L10
 205      0000
 206              	LBB3:
  38:src/pdf417/PDFDetectionResult.c **** 		{
  39:src/pdf417/PDFDetectionResult.c **** 
  40:src/pdf417/PDFDetectionResult.c **** 			DetectionResultColumn_t * lastColumn = &detectionResultColumns[row-1] - 1;
 207              		.loc 1 40 66
 208 0144 8B450C   		movl	12(%ebp), %eax
 209 0147 69C0342F 		imull	$12084, %eax, %eax
 209      0000
 210              		.loc 1 40 74
 211 014d 8D9098A1 		leal	-24168(%eax), %edx
 211      FFFF
 212              		.loc 1 40 30
 213 0153 8B4508   		movl	8(%ebp), %eax
 214 0156 01D0     		addl	%edx, %eax
 215 0158 8945E4   		movl	%eax, -28(%ebp)
 216              	LBB4:
  41:src/pdf417/PDFDetectionResult.c **** 			for (DetectionResultColumn_t * columnIter = (&detectionResultColumns[0] + 1); columnIter != last
 217              		.loc 1 41 35
 218 015b 8B4508   		movl	8(%ebp), %eax
 219 015e 05342F00 		addl	$12084, %eax
 219      00
 220 0163 8945F0   		movl	%eax, -16(%ebp)
 221              		.loc 1 41 4
 222 0166 E9C00000 		jmp	L11
 222      00
 223              	L16:
 224              	LBB5:
  42:src/pdf417/PDFDetectionResult.c **** 			{
  43:src/pdf417/PDFDetectionResult.c **** 				if (!(columnIter->m_hasValue)) 
GAS LISTING C:\Users\jisu8\AppData\Local\Temp\ccwGfk1w.s 			page 6


 225              		.loc 1 43 21
 226 016b 8B45F0   		movl	-16(%ebp), %eax
 227 016e 0FB600   		movzbl	(%eax), %eax
 228              		.loc 1 43 8
 229 0171 84C0     		testb	%al, %al
 230 0173 0F84AA00 		je	L19
 230      0000
  44:src/pdf417/PDFDetectionResult.c **** 				{
  45:src/pdf417/PDFDetectionResult.c **** 					continue;
  46:src/pdf417/PDFDetectionResult.c **** 				}
  47:src/pdf417/PDFDetectionResult.c **** 				Codeword_t codeword = columnIter->m_value._codewords[codewordsRow];
 231              		.loc 1 47 16
 232 0179 8B4DF0   		movl	-16(%ebp), %ecx
 233 017c 8B55F4   		movl	-12(%ebp), %edx
 234 017f 89D0     		movl	%edx, %eax
 235 0181 01C0     		addl	%eax, %eax
 236 0183 01D0     		addl	%edx, %eax
 237 0185 C1E003   		sall	$3, %eax
 238 0188 01C8     		addl	%ecx, %eax
 239 018a 83C040   		addl	$64, %eax
 240 018d 8B5010   		movl	16(%eax), %edx
 241 0190 8955CC   		movl	%edx, -52(%ebp)
 242 0193 8B5014   		movl	20(%eax), %edx
 243 0196 8955D0   		movl	%edx, -48(%ebp)
 244 0199 8B5018   		movl	24(%eax), %edx
 245 019c 8955D4   		movl	%edx, -44(%ebp)
 246 019f 8B501C   		movl	28(%eax), %edx
 247 01a2 8955D8   		movl	%edx, -40(%ebp)
 248 01a5 8B5020   		movl	32(%eax), %edx
 249 01a8 8955DC   		movl	%edx, -36(%ebp)
 250 01ab 8B4024   		movl	36(%eax), %eax
 251 01ae 8945E0   		movl	%eax, -32(%ebp)
  48:src/pdf417/PDFDetectionResult.c **** 				if (codeword.m_hasValue != 0) 
 252              		.loc 1 48 17
 253 01b1 0FB645CC 		movzbl	-52(%ebp), %eax
 254              		.loc 1 48 8
 255 01b5 84C0     		testb	%al, %al
 256 01b7 746B     		je	L13
  49:src/pdf417/PDFDetectionResult.c **** 				{
  50:src/pdf417/PDFDetectionResult.c **** 					codeword.m_value._rowNumber = LRIcodewords[codewordsRow].m_value._rowNumber;
 257              		.loc 1 50 48
 258 01b9 8B55F4   		movl	-12(%ebp), %edx
 259 01bc 89D0     		movl	%edx, %eax
 260 01be 01C0     		addl	%eax, %eax
 261 01c0 01D0     		addl	%edx, %eax
 262 01c2 C1E003   		sall	$3, %eax
 263 01c5 89C2     		movl	%eax, %edx
 264 01c7 8B45EC   		movl	-20(%ebp), %eax
 265 01ca 01D0     		addl	%edx, %eax
 266              		.loc 1 50 70
 267 01cc 8B4014   		movl	20(%eax), %eax
 268              		.loc 1 50 34
 269 01cf 8945E0   		movl	%eax, -32(%ebp)
  51:src/pdf417/PDFDetectionResult.c **** 					if (!(codeword.m_value._rowNumber != BARCODE_ROW_UNKNOWN && codeword.m_value._bucket == (codew
 270              		.loc 1 51 28
 271 01d2 8B55E0   		movl	-32(%ebp), %edx
 272              		.loc 1 51 40
GAS LISTING C:\Users\jisu8\AppData\Local\Temp\ccwGfk1w.s 			page 7


 273 01d5 A1000000 		movl	_BARCODE_ROW_UNKNOWN, %eax
 273      00
 274              		.loc 1 51 9
 275 01da 39C2     		cmpl	%eax, %edx
 276 01dc 742C     		je	L15
 277              		.loc 1 51 82 discriminator 1
 278 01de 8B5DD8   		movl	-40(%ebp), %ebx
 279              		.loc 1 51 111 discriminator 1
 280 01e1 8B4DE0   		movl	-32(%ebp), %ecx
 281              		.loc 1 51 123 discriminator 1
 282 01e4 BA565555 		movl	$1431655766, %edx
 282      55
 283 01e9 89C8     		movl	%ecx, %eax
 284 01eb F7EA     		imull	%edx
 285 01ed 89C8     		movl	%ecx, %eax
 286 01ef C1F81F   		sarl	$31, %eax
 287 01f2 29C2     		subl	%eax, %edx
 288 01f4 89D0     		movl	%edx, %eax
 289 01f6 89C2     		movl	%eax, %edx
 290 01f8 01D2     		addl	%edx, %edx
 291 01fa 01C2     		addl	%eax, %edx
 292 01fc 89C8     		movl	%ecx, %eax
 293 01fe 29D0     		subl	%edx, %eax
 294              		.loc 1 51 128 discriminator 1
 295 0200 89C2     		movl	%eax, %edx
 296 0202 01D2     		addl	%edx, %edx
 297 0204 01D0     		addl	%edx, %eax
 298              		.loc 1 51 10 discriminator 1
 299 0206 39C3     		cmpl	%eax, %ebx
 300 0208 741A     		je	L13
 301              	L15:
  52:src/pdf417/PDFDetectionResult.c **** 					{
  53:src/pdf417/PDFDetectionResult.c **** 						columnIter->m_value._codewords[codewordsRow].m_hasValue = 0;
 302              		.loc 1 53 63
 303 020a 8B4DF0   		movl	-16(%ebp), %ecx
 304 020d 8B55F4   		movl	-12(%ebp), %edx
 305 0210 89D0     		movl	%edx, %eax
 306 0212 01C0     		addl	%eax, %eax
 307 0214 01D0     		addl	%edx, %eax
 308 0216 C1E003   		sall	$3, %eax
 309 0219 01C8     		addl	%ecx, %eax
 310 021b 83C050   		addl	$80, %eax
 311 021e C60000   		movb	$0, (%eax)
 312 0221 EB01     		jmp	L13
 313              	L19:
  45:src/pdf417/PDFDetectionResult.c **** 				}
 314              		.loc 1 45 6
 315 0223 90       		nop
 316              	L13:
 317              	LBE5:
  41:src/pdf417/PDFDetectionResult.c **** 			{
 318              		.loc 1 41 108 discriminator 2
 319 0224 8145F034 		addl	$12084, -16(%ebp)
 319      2F0000
 320              	L11:
  41:src/pdf417/PDFDetectionResult.c **** 			{
 321              		.loc 1 41 4 discriminator 1
GAS LISTING C:\Users\jisu8\AppData\Local\Temp\ccwGfk1w.s 			page 8


 322 022b 8B45F0   		movl	-16(%ebp), %eax
 323 022e 3B45E4   		cmpl	-28(%ebp), %eax
 324 0231 0F8534FF 		jne	L16
 324      FFFF
 325              	L10:
 326              	LBE4:
 327              	LBE3:
  33:src/pdf417/PDFDetectionResult.c **** 	{
 328              		.loc 1 33 65 discriminator 2
 329 0237 8345F401 		addl	$1, -12(%ebp)
 330              	L9:
  33:src/pdf417/PDFDetectionResult.c **** 	{
 331              		.loc 1 33 45 discriminator 1
 332 023b 8B4510   		movl	16(%ebp), %eax
  33:src/pdf417/PDFDetectionResult.c **** 	{
 333              		.loc 1 33 2 discriminator 1
 334 023e 3945F4   		cmpl	%eax, -12(%ebp)
 335 0241 0F828DFE 		jb	L17
 335      FFFF
 336 0247 EB01     		jmp	L5
 337              	L18:
 338              	LBE2:
  28:src/pdf417/PDFDetectionResult.c **** 	}
 339              		.loc 1 28 3
 340 0249 90       		nop
 341              	L5:
  54:src/pdf417/PDFDetectionResult.c **** 					}
  55:src/pdf417/PDFDetectionResult.c **** 				}
  56:src/pdf417/PDFDetectionResult.c **** 			}
  57:src/pdf417/PDFDetectionResult.c **** 
  58:src/pdf417/PDFDetectionResult.c **** 		}
  59:src/pdf417/PDFDetectionResult.c **** 
  60:src/pdf417/PDFDetectionResult.c **** 	}
  61:src/pdf417/PDFDetectionResult.c **** }
 342              		.loc 1 61 1
 343 024a 83C444   		addl	$68, %esp
 344 024d 5B       		popl	%ebx
 345              		.cfi_restore 3
 346 024e 5D       		popl	%ebp
 347              	LCFI8:
 348              		.cfi_restore 5
 349              		.cfi_def_cfa 4, 4
 350 024f C3       		ret
 351              		.cfi_endproc
 352              	LFE3:
 354              	_AdjustRowNumberIfValid:
 355              	LFB4:
  62:src/pdf417/PDFDetectionResult.c **** 
  63:src/pdf417/PDFDetectionResult.c **** static int AdjustRowNumberIfValid(int rowIndicatorRowNumber, int invalidRowCounts, Codeword_t * cod
  64:src/pdf417/PDFDetectionResult.c **** {
 356              		.loc 1 64 1
 357              		.cfi_startproc
 358 0250 55       		pushl	%ebp
 359              	LCFI9:
 360              		.cfi_def_cfa_offset 8
 361              		.cfi_offset 5, -8
 362 0251 89E5     		movl	%esp, %ebp
GAS LISTING C:\Users\jisu8\AppData\Local\Temp\ccwGfk1w.s 			page 9


 363              	LCFI10:
 364              		.cfi_def_cfa_register 5
 365 0253 53       		pushl	%ebx
 366              		.cfi_offset 3, -12
  65:src/pdf417/PDFDetectionResult.c **** 	if (!(codeword->m_value._rowNumber != BARCODE_ROW_UNKNOWN && codeword->m_value._bucket == (codewor
 367              		.loc 1 65 25
 368 0254 8B4510   		movl	16(%ebp), %eax
 369 0257 8B5014   		movl	20(%eax), %edx
 370              		.loc 1 65 37
 371 025a A1000000 		movl	_BARCODE_ROW_UNKNOWN, %eax
 371      00
 372              		.loc 1 65 5
 373 025f 39C2     		cmpl	%eax, %edx
 374 0261 7432     		je	L21
 375              		.loc 1 65 80 discriminator 1
 376 0263 8B4510   		movl	16(%ebp), %eax
 377 0266 8B580C   		movl	12(%eax), %ebx
 378              		.loc 1 65 110 discriminator 1
 379 0269 8B4510   		movl	16(%ebp), %eax
 380 026c 8B4814   		movl	20(%eax), %ecx
 381              		.loc 1 65 122 discriminator 1
 382 026f BA565555 		movl	$1431655766, %edx
 382      55
 383 0274 89C8     		movl	%ecx, %eax
 384 0276 F7EA     		imull	%edx
 385 0278 89C8     		movl	%ecx, %eax
 386 027a C1F81F   		sarl	$31, %eax
 387 027d 29C2     		subl	%eax, %edx
 388 027f 89D0     		movl	%edx, %eax
 389 0281 89C2     		movl	%eax, %edx
 390 0283 01D2     		addl	%edx, %edx
 391 0285 01C2     		addl	%eax, %edx
 392 0287 89C8     		movl	%ecx, %eax
 393 0289 29D0     		subl	%edx, %eax
 394              		.loc 1 65 127 discriminator 1
 395 028b 89C2     		movl	%eax, %edx
 396 028d 01D2     		addl	%edx, %edx
 397 028f 01D0     		addl	%edx, %eax
 398              		.loc 1 65 6 discriminator 1
 399 0291 39C3     		cmpl	%eax, %ebx
 400 0293 744F     		je	L22
 401              	L21:
  66:src/pdf417/PDFDetectionResult.c **** 	{
  67:src/pdf417/PDFDetectionResult.c **** 		if (rowIndicatorRowNumber != BARCODE_ROW_UNKNOWN && codeword->m_value._bucket == (rowIndicatorRow
 402              		.loc 1 67 29
 403 0295 A1000000 		movl	_BARCODE_ROW_UNKNOWN, %eax
 403      00
 404              		.loc 1 67 6
 405 029a 394508   		cmpl	%eax, 8(%ebp)
 406 029d 7441     		je	L23
 407              		.loc 1 67 72 discriminator 1
 408 029f 8B4510   		movl	16(%ebp), %eax
 409 02a2 8B580C   		movl	12(%eax), %ebx
 410              		.loc 1 67 107 discriminator 1
 411 02a5 8B4D08   		movl	8(%ebp), %ecx
 412 02a8 BA565555 		movl	$1431655766, %edx
 412      55
GAS LISTING C:\Users\jisu8\AppData\Local\Temp\ccwGfk1w.s 			page 10


 413 02ad 89C8     		movl	%ecx, %eax
 414 02af F7EA     		imull	%edx
 415 02b1 89C8     		movl	%ecx, %eax
 416 02b3 C1F81F   		sarl	$31, %eax
 417 02b6 29C2     		subl	%eax, %edx
 418 02b8 89D0     		movl	%edx, %eax
 419 02ba 89C2     		movl	%eax, %edx
 420 02bc 01D2     		addl	%edx, %edx
 421 02be 01C2     		addl	%eax, %edx
 422 02c0 89C8     		movl	%ecx, %eax
 423 02c2 29D0     		subl	%edx, %eax
 424              		.loc 1 67 112 discriminator 1
 425 02c4 89C2     		movl	%eax, %edx
 426 02c6 01D2     		addl	%edx, %edx
 427 02c8 01D0     		addl	%edx, %eax
 428              		.loc 1 67 52 discriminator 1
 429 02ca 39C3     		cmpl	%eax, %ebx
 430 02cc 7512     		jne	L23
  68:src/pdf417/PDFDetectionResult.c **** 		{
  69:src/pdf417/PDFDetectionResult.c **** 			rowIndicatorRowNumber = codeword->m_value._rowNumber;
 431              		.loc 1 69 26
 432 02ce 8B4510   		movl	16(%ebp), %eax
 433 02d1 8B4014   		movl	20(%eax), %eax
 434 02d4 894508   		movl	%eax, 8(%ebp)
  70:src/pdf417/PDFDetectionResult.c **** 			invalidRowCounts = 0;
 435              		.loc 1 70 21
 436 02d7 C7450C00 		movl	$0, 12(%ebp)
 436      000000
 437 02de EB04     		jmp	L22
 438              	L23:
  71:src/pdf417/PDFDetectionResult.c **** 		}
  72:src/pdf417/PDFDetectionResult.c **** 		else 
  73:src/pdf417/PDFDetectionResult.c **** 		{
  74:src/pdf417/PDFDetectionResult.c **** 			++invalidRowCounts;
 439              		.loc 1 74 4
 440 02e0 83450C01 		addl	$1, 12(%ebp)
 441              	L22:
  75:src/pdf417/PDFDetectionResult.c **** 		}
  76:src/pdf417/PDFDetectionResult.c **** 	}
  77:src/pdf417/PDFDetectionResult.c **** 	return invalidRowCounts;
 442              		.loc 1 77 9
 443 02e4 8B450C   		movl	12(%ebp), %eax
  78:src/pdf417/PDFDetectionResult.c **** }
 444              		.loc 1 78 1
 445 02e7 5B       		popl	%ebx
 446              		.cfi_restore 3
 447 02e8 5D       		popl	%ebp
 448              	LCFI11:
 449              		.cfi_restore 5
 450              		.cfi_def_cfa 4, 4
 451 02e9 C3       		ret
 452              		.cfi_endproc
 453              	LFE4:
 455              	_AdjustRowNumbersFromLRI:
 456              	LFB5:
  79:src/pdf417/PDFDetectionResult.c **** 
  80:src/pdf417/PDFDetectionResult.c **** static int AdjustRowNumbersFromLRI(DetectionResultColumn_t * detectionResultColumns,int row,int siz
GAS LISTING C:\Users\jisu8\AppData\Local\Temp\ccwGfk1w.s 			page 11


  81:src/pdf417/PDFDetectionResult.c **** {
 457              		.loc 1 81 1
 458              		.cfi_startproc
 459 02ea 55       		pushl	%ebp
 460              	LCFI12:
 461              		.cfi_def_cfa_offset 8
 462              		.cfi_offset 5, -8
 463 02eb 89E5     		movl	%esp, %ebp
 464              	LCFI13:
 465              		.cfi_def_cfa_register 5
 466 02ed 53       		pushl	%ebx
 467 02ee 83EC54   		subl	$84, %esp
 468              		.cfi_offset 3, -12
  82:src/pdf417/PDFDetectionResult.c **** 	if (detectionResultColumns[0].m_hasValue == 0) 
 469              		.loc 1 82 31
 470 02f1 8B4508   		movl	8(%ebp), %eax
 471 02f4 0FB600   		movzbl	(%eax), %eax
 472              		.loc 1 82 5
 473 02f7 84C0     		testb	%al, %al
 474 02f9 750A     		jne	L26
  83:src/pdf417/PDFDetectionResult.c **** 	{
  84:src/pdf417/PDFDetectionResult.c **** 		return 0;
 475              		.loc 1 84 10
 476 02fb B8000000 		movl	$0, %eax
 476      00
 477 0300 E95D0100 		jmp	L27
 477      00
 478              	L26:
  85:src/pdf417/PDFDetectionResult.c **** 	}
  86:src/pdf417/PDFDetectionResult.c **** 	int unadjustedCount = 0;
 479              		.loc 1 86 6
 480 0305 C745F400 		movl	$0, -12(%ebp)
 480      000000
  87:src/pdf417/PDFDetectionResult.c **** 	Codeword_t * codewords = detectionResultColumns[0].m_value._codewords;
 481              		.loc 1 87 15
 482 030c 8B4508   		movl	8(%ebp), %eax
 483 030f 83C050   		addl	$80, %eax
 484 0312 8945E4   		movl	%eax, -28(%ebp)
 485              	LBB6:
  88:src/pdf417/PDFDetectionResult.c **** 	for (size_t codewordsRow = 0; codewordsRow < size; codewordsRow++) 
 486              		.loc 1 88 14
 487 0315 C745F000 		movl	$0, -16(%ebp)
 487      000000
 488              		.loc 1 88 2
 489 031c E9320100 		jmp	L28
 489      00
 490              	L37:
 491              	LBB7:
  89:src/pdf417/PDFDetectionResult.c **** 	{
  90:src/pdf417/PDFDetectionResult.c **** 		if (codewords[codewordsRow].m_hasValue == 0) 
 492              		.loc 1 90 16
 493 0321 8B55F0   		movl	-16(%ebp), %edx
 494 0324 89D0     		movl	%edx, %eax
 495 0326 01C0     		addl	%eax, %eax
 496 0328 01D0     		addl	%edx, %eax
 497 032a C1E003   		sall	$3, %eax
 498 032d 89C2     		movl	%eax, %edx
GAS LISTING C:\Users\jisu8\AppData\Local\Temp\ccwGfk1w.s 			page 12


 499 032f 8B45E4   		movl	-28(%ebp), %eax
 500 0332 01D0     		addl	%edx, %eax
 501              		.loc 1 90 30
 502 0334 0FB600   		movzbl	(%eax), %eax
 503              		.loc 1 90 6
 504 0337 84C0     		testb	%al, %al
 505 0339 0F840F01 		je	L38
 505      0000
  91:src/pdf417/PDFDetectionResult.c **** 		{
  92:src/pdf417/PDFDetectionResult.c **** 			continue;
  93:src/pdf417/PDFDetectionResult.c **** 		}
  94:src/pdf417/PDFDetectionResult.c **** 		int rowIndicatorRowNumber = codewords[codewordsRow].m_value._rowNumber;
 506              		.loc 1 94 40
 507 033f 8B55F0   		movl	-16(%ebp), %edx
 508 0342 89D0     		movl	%edx, %eax
 509 0344 01C0     		addl	%eax, %eax
 510 0346 01D0     		addl	%edx, %eax
 511 0348 C1E003   		sall	$3, %eax
 512 034b 89C2     		movl	%eax, %edx
 513 034d 8B45E4   		movl	-28(%ebp), %eax
 514 0350 01D0     		addl	%edx, %eax
 515              		.loc 1 94 7
 516 0352 8B4014   		movl	20(%eax), %eax
 517 0355 8945E0   		movl	%eax, -32(%ebp)
  95:src/pdf417/PDFDetectionResult.c **** 		int invalidRowCounts = 0;
 518              		.loc 1 95 7
 519 0358 C745EC00 		movl	$0, -20(%ebp)
 519      000000
  96:src/pdf417/PDFDetectionResult.c **** 		DetectionResultColumn_t * lastColumn = &detectionResultColumns[row-1] - 1;
 520              		.loc 1 96 65
 521 035f 8B450C   		movl	12(%ebp), %eax
 522 0362 69C0342F 		imull	$12084, %eax, %eax
 522      0000
 523              		.loc 1 96 73
 524 0368 8D9098A1 		leal	-24168(%eax), %edx
 524      FFFF
 525              		.loc 1 96 29
 526 036e 8B4508   		movl	8(%ebp), %eax
 527 0371 01D0     		addl	%edx, %eax
 528 0373 8945DC   		movl	%eax, -36(%ebp)
 529              	LBB8:
  97:src/pdf417/PDFDetectionResult.c **** 		for (DetectionResultColumn_t * columnIter = &detectionResultColumns[0] + 1; columnIter != lastCol
 530              		.loc 1 97 34
 531 0376 8B4508   		movl	8(%ebp), %eax
 532 0379 05342F00 		addl	$12084, %eax
 532      00
 533 037e 8945E8   		movl	%eax, -24(%ebp)
 534              		.loc 1 97 3
 535 0381 E9B00000 		jmp	L31
 535      00
 536              	L36:
 537              	LBB9:
  98:src/pdf417/PDFDetectionResult.c **** 		{
  99:src/pdf417/PDFDetectionResult.c **** 			if (!(columnIter->m_hasValue)) 
 538              		.loc 1 99 20
 539 0386 8B45E8   		movl	-24(%ebp), %eax
 540 0389 0FB600   		movzbl	(%eax), %eax
GAS LISTING C:\Users\jisu8\AppData\Local\Temp\ccwGfk1w.s 			page 13


 541              		.loc 1 99 7
 542 038c 84C0     		testb	%al, %al
 543 038e 0F849A00 		je	L39
 543      0000
 100:src/pdf417/PDFDetectionResult.c **** 			{
 101:src/pdf417/PDFDetectionResult.c **** 				continue;
 102:src/pdf417/PDFDetectionResult.c **** 			}
 103:src/pdf417/PDFDetectionResult.c **** 			Codeword_t codeword = columnIter->m_value._codewords[codewordsRow];
 544              		.loc 1 103 15
 545 0394 8B4DE8   		movl	-24(%ebp), %ecx
 546 0397 8B55F0   		movl	-16(%ebp), %edx
 547 039a 89D0     		movl	%edx, %eax
 548 039c 01C0     		addl	%eax, %eax
 549 039e 01D0     		addl	%edx, %eax
 550 03a0 C1E003   		sall	$3, %eax
 551 03a3 01C8     		addl	%ecx, %eax
 552 03a5 83C040   		addl	$64, %eax
 553 03a8 8B5010   		movl	16(%eax), %edx
 554 03ab 8955C4   		movl	%edx, -60(%ebp)
 555 03ae 8B5014   		movl	20(%eax), %edx
 556 03b1 8955C8   		movl	%edx, -56(%ebp)
 557 03b4 8B5018   		movl	24(%eax), %edx
 558 03b7 8955CC   		movl	%edx, -52(%ebp)
 559 03ba 8B501C   		movl	28(%eax), %edx
 560 03bd 8955D0   		movl	%edx, -48(%ebp)
 561 03c0 8B5020   		movl	32(%eax), %edx
 562 03c3 8955D4   		movl	%edx, -44(%ebp)
 563 03c6 8B4024   		movl	36(%eax), %eax
 564 03c9 8945D8   		movl	%eax, -40(%ebp)
 104:src/pdf417/PDFDetectionResult.c **** 			if (codeword.m_hasValue != 0) 
 565              		.loc 1 104 16
 566 03cc 0FB645C4 		movzbl	-60(%ebp), %eax
 567              		.loc 1 104 7
 568 03d0 84C0     		testb	%al, %al
 569 03d2 745B     		je	L33
 105:src/pdf417/PDFDetectionResult.c **** 			{
 106:src/pdf417/PDFDetectionResult.c **** 				invalidRowCounts = AdjustRowNumberIfValid(rowIndicatorRowNumber, invalidRowCounts, &codeword);
 570              		.loc 1 106 24
 571 03d4 8D45C4   		leal	-60(%ebp), %eax
 572 03d7 89442408 		movl	%eax, 8(%esp)
 573 03db 8B45EC   		movl	-20(%ebp), %eax
 574 03de 89442404 		movl	%eax, 4(%esp)
 575 03e2 8B45E0   		movl	-32(%ebp), %eax
 576 03e5 890424   		movl	%eax, (%esp)
 577 03e8 E863FEFF 		call	_AdjustRowNumberIfValid
 577      FF
 578 03ed 8945EC   		movl	%eax, -20(%ebp)
 107:src/pdf417/PDFDetectionResult.c **** 				if (!(codeword.m_value._rowNumber != BARCODE_ROW_UNKNOWN && codeword.m_value._bucket == (codewo
 579              		.loc 1 107 27
 580 03f0 8B55D8   		movl	-40(%ebp), %edx
 581              		.loc 1 107 39
 582 03f3 A1000000 		movl	_BARCODE_ROW_UNKNOWN, %eax
 582      00
 583              		.loc 1 107 8
 584 03f8 39C2     		cmpl	%eax, %edx
 585 03fa 742C     		je	L35
 586              		.loc 1 107 81 discriminator 1
GAS LISTING C:\Users\jisu8\AppData\Local\Temp\ccwGfk1w.s 			page 14


 587 03fc 8B5DD0   		movl	-48(%ebp), %ebx
 588              		.loc 1 107 110 discriminator 1
 589 03ff 8B4DD8   		movl	-40(%ebp), %ecx
 590              		.loc 1 107 122 discriminator 1
 591 0402 BA565555 		movl	$1431655766, %edx
 591      55
 592 0407 89C8     		movl	%ecx, %eax
 593 0409 F7EA     		imull	%edx
 594 040b 89C8     		movl	%ecx, %eax
 595 040d C1F81F   		sarl	$31, %eax
 596 0410 29C2     		subl	%eax, %edx
 597 0412 89D0     		movl	%edx, %eax
 598 0414 89C2     		movl	%eax, %edx
 599 0416 01D2     		addl	%edx, %edx
 600 0418 01C2     		addl	%eax, %edx
 601 041a 89C8     		movl	%ecx, %eax
 602 041c 29D0     		subl	%edx, %eax
 603              		.loc 1 107 127 discriminator 1
 604 041e 89C2     		movl	%eax, %edx
 605 0420 01D2     		addl	%edx, %edx
 606 0422 01D0     		addl	%edx, %eax
 607              		.loc 1 107 9 discriminator 1
 608 0424 39C3     		cmpl	%eax, %ebx
 609 0426 7407     		je	L33
 610              	L35:
 108:src/pdf417/PDFDetectionResult.c **** 				{
 109:src/pdf417/PDFDetectionResult.c **** 					unadjustedCount++;
 611              		.loc 1 109 21
 612 0428 8345F401 		addl	$1, -12(%ebp)
 613 042c EB01     		jmp	L33
 614              	L39:
 101:src/pdf417/PDFDetectionResult.c **** 			}
 615              		.loc 1 101 5
 616 042e 90       		nop
 617              	L33:
 618              	LBE9:
  97:src/pdf417/PDFDetectionResult.c **** 		{
 619              		.loc 1 97 150 discriminator 2
 620 042f 8145E834 		addl	$12084, -24(%ebp)
 620      2F0000
 621              	L31:
  97:src/pdf417/PDFDetectionResult.c **** 		{
 622              		.loc 1 97 3 discriminator 1
 623 0436 8B45E8   		movl	-24(%ebp), %eax
 624 0439 3B45DC   		cmpl	-36(%ebp), %eax
 625 043c 7411     		je	L30
  97:src/pdf417/PDFDetectionResult.c **** 		{
 626              		.loc 1 97 124 discriminator 3
 627 043e B8020000 		movl	$2, %eax
 627      00
  97:src/pdf417/PDFDetectionResult.c **** 		{
 628              		.loc 1 97 104 discriminator 3
 629 0443 3945EC   		cmpl	%eax, -20(%ebp)
 630 0446 0F8C3AFF 		jl	L36
 630      FFFF
 631 044c EB01     		jmp	L30
 632              	L38:
GAS LISTING C:\Users\jisu8\AppData\Local\Temp\ccwGfk1w.s 			page 15


 633              	LBE8:
  92:src/pdf417/PDFDetectionResult.c **** 		}
 634              		.loc 1 92 4
 635 044e 90       		nop
 636              	L30:
 637              	LBE7:
  88:src/pdf417/PDFDetectionResult.c **** 	{
 638              		.loc 1 88 65 discriminator 2
 639 044f 8345F001 		addl	$1, -16(%ebp)
 640              	L28:
  88:src/pdf417/PDFDetectionResult.c **** 	{
 641              		.loc 1 88 45 discriminator 1
 642 0453 8B4510   		movl	16(%ebp), %eax
  88:src/pdf417/PDFDetectionResult.c **** 	{
 643              		.loc 1 88 2 discriminator 1
 644 0456 3945F0   		cmpl	%eax, -16(%ebp)
 645 0459 0F82C2FE 		jb	L37
 645      FFFF
 646              	LBE6:
 110:src/pdf417/PDFDetectionResult.c **** 				}
 111:src/pdf417/PDFDetectionResult.c **** 			}
 112:src/pdf417/PDFDetectionResult.c **** 		}
 113:src/pdf417/PDFDetectionResult.c **** 	}
 114:src/pdf417/PDFDetectionResult.c **** 	return unadjustedCount;
 647              		.loc 1 114 9
 648 045f 8B45F4   		movl	-12(%ebp), %eax
 649              	L27:
 115:src/pdf417/PDFDetectionResult.c **** }
 650              		.loc 1 115 1
 651 0462 83C454   		addl	$84, %esp
 652 0465 5B       		popl	%ebx
 653              		.cfi_restore 3
 654 0466 5D       		popl	%ebp
 655              	LCFI14:
 656              		.cfi_restore 5
 657              		.cfi_def_cfa 4, 4
 658 0467 C3       		ret
 659              		.cfi_endproc
 660              	LFE5:
 662              	_AdjustRowNumbersFromRRI:
 663              	LFB6:
 116:src/pdf417/PDFDetectionResult.c **** 
 117:src/pdf417/PDFDetectionResult.c **** static int AdjustRowNumbersFromRRI(DetectionResultColumn_t *detectionResultColumns,int row,int size
 118:src/pdf417/PDFDetectionResult.c **** {
 664              		.loc 1 118 1
 665              		.cfi_startproc
 666 0468 55       		pushl	%ebp
 667              	LCFI15:
 668              		.cfi_def_cfa_offset 8
 669              		.cfi_offset 5, -8
 670 0469 89E5     		movl	%esp, %ebp
 671              	LCFI16:
 672              		.cfi_def_cfa_register 5
 673 046b 53       		pushl	%ebx
 674 046c 83EC54   		subl	$84, %esp
 675              		.cfi_offset 3, -12
 119:src/pdf417/PDFDetectionResult.c **** 	if (detectionResultColumns[row-1].m_hasValue == 0) 
GAS LISTING C:\Users\jisu8\AppData\Local\Temp\ccwGfk1w.s 			page 16


 676              		.loc 1 119 28
 677 046f 8B450C   		movl	12(%ebp), %eax
 678 0472 69C0342F 		imull	$12084, %eax, %eax
 678      0000
 679 0478 8D90CCD0 		leal	-12084(%eax), %edx
 679      FFFF
 680 047e 8B4508   		movl	8(%ebp), %eax
 681 0481 01D0     		addl	%edx, %eax
 682              		.loc 1 119 35
 683 0483 0FB600   		movzbl	(%eax), %eax
 684              		.loc 1 119 5
 685 0486 84C0     		testb	%al, %al
 686 0488 750A     		jne	L41
 120:src/pdf417/PDFDetectionResult.c **** 	{
 121:src/pdf417/PDFDetectionResult.c **** 		return 0;
 687              		.loc 1 121 10
 688 048a B8000000 		movl	$0, %eax
 688      00
 689 048f E96F0100 		jmp	L42
 689      00
 690              	L41:
 122:src/pdf417/PDFDetectionResult.c **** 	}
 123:src/pdf417/PDFDetectionResult.c **** 	int unadjustedCount = 0;
 691              		.loc 1 123 6
 692 0494 C745F400 		movl	$0, -12(%ebp)
 692      000000
 124:src/pdf417/PDFDetectionResult.c **** 	Codeword_t * codewords = detectionResultColumns[row-1].m_value._codewords;
 693              		.loc 1 124 49
 694 049b 8B450C   		movl	12(%ebp), %eax
 695 049e 69C0342F 		imull	$12084, %eax, %eax
 695      0000
 696 04a4 8D90CCD0 		leal	-12084(%eax), %edx
 696      FFFF
 697 04aa 8B4508   		movl	8(%ebp), %eax
 698 04ad 01D0     		addl	%edx, %eax
 699              		.loc 1 124 15
 700 04af 83C050   		addl	$80, %eax
 701 04b2 8945E4   		movl	%eax, -28(%ebp)
 702              	LBB10:
 125:src/pdf417/PDFDetectionResult.c **** 	for (size_t codewordsRow = 0; codewordsRow < size; codewordsRow++) 
 703              		.loc 1 125 14
 704 04b5 C745F000 		movl	$0, -16(%ebp)
 704      000000
 705              		.loc 1 125 2
 706 04bc E9330100 		jmp	L43
 706      00
 707              	L52:
 708              	LBB11:
 126:src/pdf417/PDFDetectionResult.c **** 	{
 127:src/pdf417/PDFDetectionResult.c **** 		if (codewords[codewordsRow].m_hasValue == 0) 
 709              		.loc 1 127 16
 710 04c1 8B55F0   		movl	-16(%ebp), %edx
 711 04c4 89D0     		movl	%edx, %eax
 712 04c6 01C0     		addl	%eax, %eax
 713 04c8 01D0     		addl	%edx, %eax
 714 04ca C1E003   		sall	$3, %eax
 715 04cd 89C2     		movl	%eax, %edx
GAS LISTING C:\Users\jisu8\AppData\Local\Temp\ccwGfk1w.s 			page 17


 716 04cf 8B45E4   		movl	-28(%ebp), %eax
 717 04d2 01D0     		addl	%edx, %eax
 718              		.loc 1 127 30
 719 04d4 0FB600   		movzbl	(%eax), %eax
 720              		.loc 1 127 6
 721 04d7 84C0     		testb	%al, %al
 722 04d9 0F841001 		je	L53
 722      0000
 128:src/pdf417/PDFDetectionResult.c **** 		{
 129:src/pdf417/PDFDetectionResult.c **** 			continue;
 130:src/pdf417/PDFDetectionResult.c **** 		}
 131:src/pdf417/PDFDetectionResult.c **** 		int rowIndicatorRowNumber = codewords[codewordsRow].m_value._rowNumber;
 723              		.loc 1 131 40
 724 04df 8B55F0   		movl	-16(%ebp), %edx
 725 04e2 89D0     		movl	%edx, %eax
 726 04e4 01C0     		addl	%eax, %eax
 727 04e6 01D0     		addl	%edx, %eax
 728 04e8 C1E003   		sall	$3, %eax
 729 04eb 89C2     		movl	%eax, %edx
 730 04ed 8B45E4   		movl	-28(%ebp), %eax
 731 04f0 01D0     		addl	%edx, %eax
 732              		.loc 1 131 7
 733 04f2 8B4014   		movl	20(%eax), %eax
 734 04f5 8945E0   		movl	%eax, -32(%ebp)
 132:src/pdf417/PDFDetectionResult.c **** 		int invalidRowCounts = 0;
 735              		.loc 1 132 7
 736 04f8 C745EC00 		movl	$0, -20(%ebp)
 736      000000
 133:src/pdf417/PDFDetectionResult.c **** 		DetectionResultColumn_t * lastColumn = &detectionResultColumns[row-1] - 1;
 737              		.loc 1 133 65
 738 04ff 8B450C   		movl	12(%ebp), %eax
 739 0502 69C0342F 		imull	$12084, %eax, %eax
 739      0000
 740              		.loc 1 133 73
 741 0508 8D9098A1 		leal	-24168(%eax), %edx
 741      FFFF
 742              		.loc 1 133 29
 743 050e 8B4508   		movl	8(%ebp), %eax
 744 0511 01D0     		addl	%edx, %eax
 745 0513 8945DC   		movl	%eax, -36(%ebp)
 746              	LBB12:
 134:src/pdf417/PDFDetectionResult.c **** 		for (DetectionResultColumn_t * columnIter = &detectionResultColumns[0] + 1; columnIter != lastCol
 747              		.loc 1 134 34
 748 0516 8B4508   		movl	8(%ebp), %eax
 749 0519 05342F00 		addl	$12084, %eax
 749      00
 750 051e 8945E8   		movl	%eax, -24(%ebp)
 751              		.loc 1 134 3
 752 0521 E9B10000 		jmp	L46
 752      00
 753              	L51:
 754              	LBB13:
 135:src/pdf417/PDFDetectionResult.c **** 		{
 136:src/pdf417/PDFDetectionResult.c **** 			if (!(columnIter->m_hasValue)) 
 755              		.loc 1 136 20
 756 0526 8B45E8   		movl	-24(%ebp), %eax
 757 0529 0FB600   		movzbl	(%eax), %eax
GAS LISTING C:\Users\jisu8\AppData\Local\Temp\ccwGfk1w.s 			page 18


 758              		.loc 1 136 7
 759 052c 84C0     		testb	%al, %al
 760 052e 0F849B00 		je	L54
 760      0000
 137:src/pdf417/PDFDetectionResult.c **** 			{
 138:src/pdf417/PDFDetectionResult.c **** 				continue;
 139:src/pdf417/PDFDetectionResult.c **** 			}
 140:src/pdf417/PDFDetectionResult.c **** 			Codeword_t codeword = columnIter->m_value._codewords[codewordsRow];
 761              		.loc 1 140 15
 762 0534 8B4DE8   		movl	-24(%ebp), %ecx
 763 0537 8B55F0   		movl	-16(%ebp), %edx
 764 053a 89D0     		movl	%edx, %eax
 765 053c 01C0     		addl	%eax, %eax
 766 053e 01D0     		addl	%edx, %eax
 767 0540 C1E003   		sall	$3, %eax
 768 0543 01C8     		addl	%ecx, %eax
 769 0545 83C040   		addl	$64, %eax
 770 0548 8B5010   		movl	16(%eax), %edx
 771 054b 8955C4   		movl	%edx, -60(%ebp)
 772 054e 8B5014   		movl	20(%eax), %edx
 773 0551 8955C8   		movl	%edx, -56(%ebp)
 774 0554 8B5018   		movl	24(%eax), %edx
 775 0557 8955CC   		movl	%edx, -52(%ebp)
 776 055a 8B501C   		movl	28(%eax), %edx
 777 055d 8955D0   		movl	%edx, -48(%ebp)
 778 0560 8B5020   		movl	32(%eax), %edx
 779 0563 8955D4   		movl	%edx, -44(%ebp)
 780 0566 8B4024   		movl	36(%eax), %eax
 781 0569 8945D8   		movl	%eax, -40(%ebp)
 141:src/pdf417/PDFDetectionResult.c **** 			if (codeword.m_hasValue != 0) 
 782              		.loc 1 141 16
 783 056c 0FB645C4 		movzbl	-60(%ebp), %eax
 784              		.loc 1 141 7
 785 0570 84C0     		testb	%al, %al
 786 0572 745C     		je	L48
 142:src/pdf417/PDFDetectionResult.c **** 			{
 143:src/pdf417/PDFDetectionResult.c **** 				invalidRowCounts = AdjustRowNumberIfValid(rowIndicatorRowNumber, invalidRowCounts, &codewordNea
 787              		.loc 1 143 24
 788 0574 C7442408 		movl	$_codewordNearby, 8(%esp)
 788      00000000 
 789 057c 8B45EC   		movl	-20(%ebp), %eax
 790 057f 89442404 		movl	%eax, 4(%esp)
 791 0583 8B45E0   		movl	-32(%ebp), %eax
 792 0586 890424   		movl	%eax, (%esp)
 793 0589 E8C2FCFF 		call	_AdjustRowNumberIfValid
 793      FF
 794 058e 8945EC   		movl	%eax, -20(%ebp)
 144:src/pdf417/PDFDetectionResult.c **** 				if (!(codeword.m_value._rowNumber != BARCODE_ROW_UNKNOWN && codeword.m_value._bucket == (codewo
 795              		.loc 1 144 27
 796 0591 8B55D8   		movl	-40(%ebp), %edx
 797              		.loc 1 144 39
 798 0594 A1000000 		movl	_BARCODE_ROW_UNKNOWN, %eax
 798      00
 799              		.loc 1 144 8
 800 0599 39C2     		cmpl	%eax, %edx
 801 059b 742C     		je	L50
 802              		.loc 1 144 81 discriminator 1
GAS LISTING C:\Users\jisu8\AppData\Local\Temp\ccwGfk1w.s 			page 19


 803 059d 8B5DD0   		movl	-48(%ebp), %ebx
 804              		.loc 1 144 110 discriminator 1
 805 05a0 8B4DD8   		movl	-40(%ebp), %ecx
 806              		.loc 1 144 122 discriminator 1
 807 05a3 BA565555 		movl	$1431655766, %edx
 807      55
 808 05a8 89C8     		movl	%ecx, %eax
 809 05aa F7EA     		imull	%edx
 810 05ac 89C8     		movl	%ecx, %eax
 811 05ae C1F81F   		sarl	$31, %eax
 812 05b1 29C2     		subl	%eax, %edx
 813 05b3 89D0     		movl	%edx, %eax
 814 05b5 89C2     		movl	%eax, %edx
 815 05b7 01D2     		addl	%edx, %edx
 816 05b9 01C2     		addl	%eax, %edx
 817 05bb 89C8     		movl	%ecx, %eax
 818 05bd 29D0     		subl	%edx, %eax
 819              		.loc 1 144 127 discriminator 1
 820 05bf 89C2     		movl	%eax, %edx
 821 05c1 01D2     		addl	%edx, %edx
 822 05c3 01D0     		addl	%edx, %eax
 823              		.loc 1 144 9 discriminator 1
 824 05c5 39C3     		cmpl	%eax, %ebx
 825 05c7 7407     		je	L48
 826              	L50:
 145:src/pdf417/PDFDetectionResult.c **** 				{
 146:src/pdf417/PDFDetectionResult.c **** 					unadjustedCount++;
 827              		.loc 1 146 21
 828 05c9 8345F401 		addl	$1, -12(%ebp)
 829 05cd EB01     		jmp	L48
 830              	L54:
 138:src/pdf417/PDFDetectionResult.c **** 			}
 831              		.loc 1 138 5
 832 05cf 90       		nop
 833              	L48:
 834              	LBE13:
 134:src/pdf417/PDFDetectionResult.c **** 		{
 835              		.loc 1 134 150 discriminator 2
 836 05d0 8145E834 		addl	$12084, -24(%ebp)
 836      2F0000
 837              	L46:
 134:src/pdf417/PDFDetectionResult.c **** 		{
 838              		.loc 1 134 3 discriminator 1
 839 05d7 8B45E8   		movl	-24(%ebp), %eax
 840 05da 3B45DC   		cmpl	-36(%ebp), %eax
 841 05dd 7411     		je	L45
 134:src/pdf417/PDFDetectionResult.c **** 		{
 842              		.loc 1 134 124 discriminator 3
 843 05df B8020000 		movl	$2, %eax
 843      00
 134:src/pdf417/PDFDetectionResult.c **** 		{
 844              		.loc 1 134 104 discriminator 3
 845 05e4 3945EC   		cmpl	%eax, -20(%ebp)
 846 05e7 0F8C39FF 		jl	L51
 846      FFFF
 847 05ed EB01     		jmp	L45
 848              	L53:
GAS LISTING C:\Users\jisu8\AppData\Local\Temp\ccwGfk1w.s 			page 20


 849              	LBE12:
 129:src/pdf417/PDFDetectionResult.c **** 		}
 850              		.loc 1 129 4
 851 05ef 90       		nop
 852              	L45:
 853              	LBE11:
 125:src/pdf417/PDFDetectionResult.c **** 	{
 854              		.loc 1 125 65 discriminator 2
 855 05f0 8345F001 		addl	$1, -16(%ebp)
 856              	L43:
 125:src/pdf417/PDFDetectionResult.c **** 	{
 857              		.loc 1 125 45 discriminator 1
 858 05f4 8B4510   		movl	16(%ebp), %eax
 125:src/pdf417/PDFDetectionResult.c **** 	{
 859              		.loc 1 125 2 discriminator 1
 860 05f7 3945F0   		cmpl	%eax, -16(%ebp)
 861 05fa 0F82C1FE 		jb	L52
 861      FFFF
 862              	LBE10:
 147:src/pdf417/PDFDetectionResult.c **** 				}
 148:src/pdf417/PDFDetectionResult.c **** 			}
 149:src/pdf417/PDFDetectionResult.c **** 		}
 150:src/pdf417/PDFDetectionResult.c **** 	}
 151:src/pdf417/PDFDetectionResult.c **** 
 152:src/pdf417/PDFDetectionResult.c **** 	return unadjustedCount;
 863              		.loc 1 152 9
 864 0600 8B45F4   		movl	-12(%ebp), %eax
 865              	L42:
 153:src/pdf417/PDFDetectionResult.c **** }
 866              		.loc 1 153 1
 867 0603 83C454   		addl	$84, %esp
 868 0606 5B       		popl	%ebx
 869              		.cfi_restore 3
 870 0607 5D       		popl	%ebp
 871              	LCFI17:
 872              		.cfi_restore 5
 873              		.cfi_def_cfa 4, 4
 874 0608 C3       		ret
 875              		.cfi_endproc
 876              	LFE6:
 878              	_AdjustRowNumbersByRow:
 879              	LFB7:
 154:src/pdf417/PDFDetectionResult.c **** 
 155:src/pdf417/PDFDetectionResult.c **** static int AdjustRowNumbersByRow(DetectionResultColumn_t * detectionResultColumns,int row,int size)
 156:src/pdf417/PDFDetectionResult.c **** {
 880              		.loc 1 156 1
 881              		.cfi_startproc
 882 0609 55       		pushl	%ebp
 883              	LCFI18:
 884              		.cfi_def_cfa_offset 8
 885              		.cfi_offset 5, -8
 886 060a 89E5     		movl	%esp, %ebp
 887              	LCFI19:
 888              		.cfi_def_cfa_register 5
 889 060c 83EC28   		subl	$40, %esp
 157:src/pdf417/PDFDetectionResult.c **** 
 158:src/pdf417/PDFDetectionResult.c **** 	AdjustRowNumbersFromBothRI(detectionResultColumns,row,size);
GAS LISTING C:\Users\jisu8\AppData\Local\Temp\ccwGfk1w.s 			page 21


 890              		.loc 1 158 2
 891 060f 8B4510   		movl	16(%ebp), %eax
 892 0612 89442408 		movl	%eax, 8(%esp)
 893 0616 8B450C   		movl	12(%ebp), %eax
 894 0619 89442404 		movl	%eax, 4(%esp)
 895 061d 8B4508   		movl	8(%ebp), %eax
 896 0620 890424   		movl	%eax, (%esp)
 897 0623 E83FFAFF 		call	_AdjustRowNumbersFromBothRI
 897      FF
 159:src/pdf417/PDFDetectionResult.c **** 	// TODO we should only do full row adjustments if row numbers of left and right row indicator colu
 160:src/pdf417/PDFDetectionResult.c **** 	// Maybe it's even better to calculated the height (in codeword rows) and divide it by the number 
 161:src/pdf417/PDFDetectionResult.c **** 	// rows. This, together with the LRI and RRI row numbers should allow us to get a good estimate wh
 162:src/pdf417/PDFDetectionResult.c **** 	// number starts and ends.
 163:src/pdf417/PDFDetectionResult.c **** 	int unadjustedCount = AdjustRowNumbersFromLRI(detectionResultColumns,row,size);
 898              		.loc 1 163 24
 899 0628 8B4510   		movl	16(%ebp), %eax
 900 062b 89442408 		movl	%eax, 8(%esp)
 901 062f 8B450C   		movl	12(%ebp), %eax
 902 0632 89442404 		movl	%eax, 4(%esp)
 903 0636 8B4508   		movl	8(%ebp), %eax
 904 0639 890424   		movl	%eax, (%esp)
 905 063c E8A9FCFF 		call	_AdjustRowNumbersFromLRI
 905      FF
 906 0641 8945F4   		movl	%eax, -12(%ebp)
 164:src/pdf417/PDFDetectionResult.c **** 	return unadjustedCount + AdjustRowNumbersFromRRI(detectionResultColumns,row,size);
 907              		.loc 1 164 27
 908 0644 8B4510   		movl	16(%ebp), %eax
 909 0647 89442408 		movl	%eax, 8(%esp)
 910 064b 8B450C   		movl	12(%ebp), %eax
 911 064e 89442404 		movl	%eax, 4(%esp)
 912 0652 8B4508   		movl	8(%ebp), %eax
 913 0655 890424   		movl	%eax, (%esp)
 914 0658 E80BFEFF 		call	_AdjustRowNumbersFromRRI
 914      FF
 915 065d 89C2     		movl	%eax, %edx
 916              		.loc 1 164 25
 917 065f 8B45F4   		movl	-12(%ebp), %eax
 918 0662 01D0     		addl	%edx, %eax
 165:src/pdf417/PDFDetectionResult.c **** 
 166:src/pdf417/PDFDetectionResult.c **** }
 919              		.loc 1 166 1
 920 0664 C9       		leave
 921              	LCFI20:
 922              		.cfi_restore 5
 923              		.cfi_def_cfa 4, 4
 924 0665 C3       		ret
 925              		.cfi_endproc
 926              	LFE7:
 928              	_AdjustRowNumber:
 929              	LFB8:
 167:src/pdf417/PDFDetectionResult.c **** 
 168:src/pdf417/PDFDetectionResult.c **** /**
 169:src/pdf417/PDFDetectionResult.c **** * @return true, if row number was adjusted, false otherwise
 170:src/pdf417/PDFDetectionResult.c **** */
 171:src/pdf417/PDFDetectionResult.c **** static uint8_t AdjustRowNumber(Codeword_t * codeword, const Codeword_t * otherCodeword) 
 172:src/pdf417/PDFDetectionResult.c **** {
 930              		.loc 1 172 1
GAS LISTING C:\Users\jisu8\AppData\Local\Temp\ccwGfk1w.s 			page 22


 931              		.cfi_startproc
 932 0666 55       		pushl	%ebp
 933              	LCFI21:
 934              		.cfi_def_cfa_offset 8
 935              		.cfi_offset 5, -8
 936 0667 89E5     		movl	%esp, %ebp
 937              	LCFI22:
 938              		.cfi_def_cfa_register 5
 939 0669 53       		pushl	%ebx
 940              		.cfi_offset 3, -12
 173:src/pdf417/PDFDetectionResult.c **** 	if ((codeword->m_hasValue != 0) && (otherCodeword->m_hasValue != 0) && 
 941              		.loc 1 173 15
 942 066a 8B4508   		movl	8(%ebp), %eax
 943 066d 0FB600   		movzbl	(%eax), %eax
 944              		.loc 1 173 5
 945 0670 84C0     		testb	%al, %al
 946 0672 746E     		je	L58
 947              		.loc 1 173 51 discriminator 1
 948 0674 8B450C   		movl	12(%ebp), %eax
 949 0677 0FB600   		movzbl	(%eax), %eax
 950              		.loc 1 173 34 discriminator 1
 951 067a 84C0     		testb	%al, %al
 952 067c 7464     		je	L58
 174:src/pdf417/PDFDetectionResult.c **** 	   ((otherCodeword->m_value._rowNumber != BARCODE_ROW_UNKNOWN) && (otherCodeword->m_value._bucket 
 953              		.loc 1 174 29 discriminator 2
 954 067e 8B450C   		movl	12(%ebp), %eax
 955 0681 8B5014   		movl	20(%eax), %edx
 956              		.loc 1 174 41 discriminator 2
 957 0684 A1000000 		movl	_BARCODE_ROW_UNKNOWN, %eax
 957      00
 173:src/pdf417/PDFDetectionResult.c **** 	if ((codeword->m_hasValue != 0) && (otherCodeword->m_hasValue != 0) && 
 958              		.loc 1 173 70 discriminator 2
 959 0689 39C2     		cmpl	%eax, %edx
 960 068b 7455     		je	L58
 961              		.loc 1 174 91
 962 068d 8B450C   		movl	12(%ebp), %eax
 963 0690 8B580C   		movl	12(%eax), %ebx
 964              		.loc 1 174 126
 965 0693 8B450C   		movl	12(%ebp), %eax
 966 0696 8B4814   		movl	20(%eax), %ecx
 967              		.loc 1 174 138
 968 0699 BA565555 		movl	$1431655766, %edx
 968      55
 969 069e 89C8     		movl	%ecx, %eax
 970 06a0 F7EA     		imull	%edx
 971 06a2 89C8     		movl	%ecx, %eax
 972 06a4 C1F81F   		sarl	$31, %eax
 973 06a7 29C2     		subl	%eax, %edx
 974 06a9 89D0     		movl	%edx, %eax
 975 06ab 89C2     		movl	%eax, %edx
 976 06ad 01D2     		addl	%edx, %edx
 977 06af 01C2     		addl	%eax, %edx
 978 06b1 89C8     		movl	%ecx, %eax
 979 06b3 29D0     		subl	%edx, %eax
 980              		.loc 1 174 143
 981 06b5 89C2     		movl	%eax, %edx
 982 06b7 01D2     		addl	%edx, %edx
GAS LISTING C:\Users\jisu8\AppData\Local\Temp\ccwGfk1w.s 			page 23


 983 06b9 01D0     		addl	%edx, %eax
 984              		.loc 1 174 65
 985 06bb 39C3     		cmpl	%eax, %ebx
 986 06bd 7523     		jne	L58
 175:src/pdf417/PDFDetectionResult.c **** 	   (otherCodeword->m_value._bucket == codeword->m_value._bucket)) 
 987              		.loc 1 175 28 discriminator 1
 988 06bf 8B450C   		movl	12(%ebp), %eax
 989 06c2 8B500C   		movl	12(%eax), %edx
 990              		.loc 1 175 57 discriminator 1
 991 06c5 8B4508   		movl	8(%ebp), %eax
 992 06c8 8B400C   		movl	12(%eax), %eax
 174:src/pdf417/PDFDetectionResult.c **** 	   ((otherCodeword->m_value._rowNumber != BARCODE_ROW_UNKNOWN) && (otherCodeword->m_value._bucket 
 993              		.loc 1 174 149 discriminator 1
 994 06cb 39C2     		cmpl	%eax, %edx
 995 06cd 7513     		jne	L58
 176:src/pdf417/PDFDetectionResult.c **** 	{
 177:src/pdf417/PDFDetectionResult.c **** 		codeword->m_value._rowNumber = (otherCodeword->m_value._rowNumber);
 996              		.loc 1 177 57
 997 06cf 8B450C   		movl	12(%ebp), %eax
 998 06d2 8B5014   		movl	20(%eax), %edx
 999              		.loc 1 177 32
 1000 06d5 8B4508   		movl	8(%ebp), %eax
 1001 06d8 895014   		movl	%edx, 20(%eax)
 178:src/pdf417/PDFDetectionResult.c **** 		return 1;
 1002              		.loc 1 178 10
 1003 06db B8010000 		movl	$1, %eax
 1003      00
 1004 06e0 EB05     		jmp	L59
 1005              	L58:
 179:src/pdf417/PDFDetectionResult.c **** 	}
 180:src/pdf417/PDFDetectionResult.c **** 	return 0;
 1006              		.loc 1 180 9
 1007 06e2 B8000000 		movl	$0, %eax
 1007      00
 1008              	L59:
 181:src/pdf417/PDFDetectionResult.c **** }
 1009              		.loc 1 181 1
 1010 06e7 5B       		popl	%ebx
 1011              		.cfi_restore 3
 1012 06e8 5D       		popl	%ebp
 1013              	LCFI23:
 1014              		.cfi_restore 5
 1015              		.cfi_def_cfa 4, 4
 1016 06e9 C3       		ret
 1017              		.cfi_endproc
 1018              	LFE8:
 1020              	_AdjustRowNumbers_internal:
 1021              	LFB9:
 182:src/pdf417/PDFDetectionResult.c **** 
 183:src/pdf417/PDFDetectionResult.c **** 
 184:src/pdf417/PDFDetectionResult.c **** static void AdjustRowNumbers_internal(const DetectionResultColumn_t * detectionResultColumns, int b
 185:src/pdf417/PDFDetectionResult.c **** {
 1022              		.loc 1 185 1
 1023              		.cfi_startproc
 1024 06ea 55       		pushl	%ebp
 1025              	LCFI24:
 1026              		.cfi_def_cfa_offset 8
GAS LISTING C:\Users\jisu8\AppData\Local\Temp\ccwGfk1w.s 			page 24


 1027              		.cfi_offset 5, -8
 1028 06eb 89E5     		movl	%esp, %ebp
 1029              	LCFI25:
 1030              		.cfi_def_cfa_register 5
 1031 06ed 81EC9801 		subl	$408, %esp
 1031      0000
 186:src/pdf417/PDFDetectionResult.c **** 	Codeword_t codeword = codewords[codewordsRow];
 1032              		.loc 1 186 33
 1033 06f3 8B5510   		movl	16(%ebp), %edx
 1034 06f6 89D0     		movl	%edx, %eax
 1035 06f8 01C0     		addl	%eax, %eax
 1036 06fa 01D0     		addl	%edx, %eax
 1037 06fc C1E003   		sall	$3, %eax
 1038 06ff 89C2     		movl	%eax, %edx
 1039 0701 8B4514   		movl	20(%ebp), %eax
 1040 0704 01D0     		addl	%edx, %eax
 1041              		.loc 1 186 13
 1042 0706 8B10     		movl	(%eax), %edx
 1043 0708 8955D0   		movl	%edx, -48(%ebp)
 1044 070b 8B5004   		movl	4(%eax), %edx
 1045 070e 8955D4   		movl	%edx, -44(%ebp)
 1046 0711 8B5008   		movl	8(%eax), %edx
 1047 0714 8955D8   		movl	%edx, -40(%ebp)
 1048 0717 8B500C   		movl	12(%eax), %edx
 1049 071a 8955DC   		movl	%edx, -36(%ebp)
 1050 071d 8B5010   		movl	16(%eax), %edx
 1051 0720 8955E0   		movl	%edx, -32(%ebp)
 1052 0723 8B4014   		movl	20(%eax), %eax
 1053 0726 8945E4   		movl	%eax, -28(%ebp)
 187:src/pdf417/PDFDetectionResult.c **** 	Codeword_t * previousColumnCodewords = allCodewords(&detectionResultColumns[barcodeColumn - 1]);
 1054              		.loc 1 187 77
 1055 0729 8B450C   		movl	12(%ebp), %eax
 1056 072c 69C0342F 		imull	$12084, %eax, %eax
 1056      0000
 1057 0732 8D90CCD0 		leal	-12084(%eax), %edx
 1057      FFFF
 1058              		.loc 1 187 54
 1059 0738 8B4508   		movl	8(%ebp), %eax
 1060 073b 01D0     		addl	%edx, %eax
 1061              		.loc 1 187 41
 1062 073d 890424   		movl	%eax, (%esp)
 1063 0740 E8000000 		call	_allCodewords
 1063      00
 1064 0745 8945F0   		movl	%eax, -16(%ebp)
 188:src/pdf417/PDFDetectionResult.c **** 	Codeword_t * nextColumnCodewords = detectionResultColumns[barcodeColumn + 1].m_hasValue != 0 ? all
 1065              		.loc 1 188 59
 1066 0748 8B450C   		movl	12(%ebp), %eax
 1067 074b 83C001   		addl	$1, %eax
 1068 074e 69D0342F 		imull	$12084, %eax, %edx
 1068      0000
 1069 0754 8B4508   		movl	8(%ebp), %eax
 1070 0757 01D0     		addl	%edx, %eax
 1071              		.loc 1 188 78
 1072 0759 0FB600   		movzbl	(%eax), %eax
 1073              		.loc 1 188 154
 1074 075c 84C0     		testb	%al, %al
 1075 075e 741B     		je	L61
GAS LISTING C:\Users\jisu8\AppData\Local\Temp\ccwGfk1w.s 			page 25


 1076              		.loc 1 188 133 discriminator 1
 1077 0760 8B450C   		movl	12(%ebp), %eax
 1078              		.loc 1 188 97 discriminator 1
 1079 0763 83C001   		addl	$1, %eax
 1080 0766 69D0342F 		imull	$12084, %eax, %edx
 1080      0000
 1081              		.loc 1 188 110 discriminator 1
 1082 076c 8B4508   		movl	8(%ebp), %eax
 1083 076f 01D0     		addl	%edx, %eax
 1084              		.loc 1 188 97 discriminator 1
 1085 0771 890424   		movl	%eax, (%esp)
 1086 0774 E8000000 		call	_allCodewords
 1086      00
 1087 0779 EB03     		jmp	L62
 1088              	L61:
 1089              		.loc 1 188 154 discriminator 2
 1090 077b 8B45F0   		movl	-16(%ebp), %eax
 1091              	L62:
 1092              		.loc 1 188 15 discriminator 4
 1093 077e 8945EC   		movl	%eax, -20(%ebp)
 189:src/pdf417/PDFDetectionResult.c **** 
 190:src/pdf417/PDFDetectionResult.c **** 	Codeword_t otherCodewords[14];
 191:src/pdf417/PDFDetectionResult.c **** 	int size1 = sizeof(otherCodewords)/sizeof(otherCodewords[0]);
 1094              		.loc 1 191 6 discriminator 4
 1095 0781 C745E80E 		movl	$14, -24(%ebp)
 1095      000000
 192:src/pdf417/PDFDetectionResult.c **** 
 193:src/pdf417/PDFDetectionResult.c **** 	otherCodewords[2] = previousColumnCodewords[codewordsRow];
 1096              		.loc 1 193 45 discriminator 4
 1097 0788 8B5510   		movl	16(%ebp), %edx
 1098 078b 89D0     		movl	%edx, %eax
 1099 078d 01C0     		addl	%eax, %eax
 1100 078f 01D0     		addl	%edx, %eax
 1101 0791 C1E003   		sall	$3, %eax
 1102 0794 89C2     		movl	%eax, %edx
 1103 0796 8B45F0   		movl	-16(%ebp), %eax
 1104 0799 01D0     		addl	%edx, %eax
 1105              		.loc 1 193 20 discriminator 4
 1106 079b 8B10     		movl	(%eax), %edx
 1107 079d 8995B0FE 		movl	%edx, -336(%ebp)
 1107      FFFF
 1108 07a3 8B5004   		movl	4(%eax), %edx
 1109 07a6 8995B4FE 		movl	%edx, -332(%ebp)
 1109      FFFF
 1110 07ac 8B5008   		movl	8(%eax), %edx
 1111 07af 8995B8FE 		movl	%edx, -328(%ebp)
 1111      FFFF
 1112 07b5 8B500C   		movl	12(%eax), %edx
 1113 07b8 8995BCFE 		movl	%edx, -324(%ebp)
 1113      FFFF
 1114 07be 8B5010   		movl	16(%eax), %edx
 1115 07c1 8995C0FE 		movl	%edx, -320(%ebp)
 1115      FFFF
 1116 07c7 8B4014   		movl	20(%eax), %eax
 1117 07ca 8985C4FE 		movl	%eax, -316(%ebp)
 1117      FFFF
 194:src/pdf417/PDFDetectionResult.c **** 	otherCodewords[3] = nextColumnCodewords[codewordsRow];
GAS LISTING C:\Users\jisu8\AppData\Local\Temp\ccwGfk1w.s 			page 26


 1118              		.loc 1 194 41 discriminator 4
 1119 07d0 8B5510   		movl	16(%ebp), %edx
 1120 07d3 89D0     		movl	%edx, %eax
 1121 07d5 01C0     		addl	%eax, %eax
 1122 07d7 01D0     		addl	%edx, %eax
 1123 07d9 C1E003   		sall	$3, %eax
 1124 07dc 89C2     		movl	%eax, %edx
 1125 07de 8B45EC   		movl	-20(%ebp), %eax
 1126 07e1 01D0     		addl	%edx, %eax
 1127              		.loc 1 194 20 discriminator 4
 1128 07e3 8B10     		movl	(%eax), %edx
 1129 07e5 8995C8FE 		movl	%edx, -312(%ebp)
 1129      FFFF
 1130 07eb 8B5004   		movl	4(%eax), %edx
 1131 07ee 8995CCFE 		movl	%edx, -308(%ebp)
 1131      FFFF
 1132 07f4 8B5008   		movl	8(%eax), %edx
 1133 07f7 8995D0FE 		movl	%edx, -304(%ebp)
 1133      FFFF
 1134 07fd 8B500C   		movl	12(%eax), %edx
 1135 0800 8995D4FE 		movl	%edx, -300(%ebp)
 1135      FFFF
 1136 0806 8B5010   		movl	16(%eax), %edx
 1137 0809 8995D8FE 		movl	%edx, -296(%ebp)
 1137      FFFF
 1138 080f 8B4014   		movl	20(%eax), %eax
 1139 0812 8985DCFE 		movl	%eax, -292(%ebp)
 1139      FFFF
 195:src/pdf417/PDFDetectionResult.c **** 
 196:src/pdf417/PDFDetectionResult.c **** 	if (codewordsRow > 0) 
 1140              		.loc 1 196 5 discriminator 4
 1141 0818 837D1000 		cmpl	$0, 16(%ebp)
 1142 081c 0F8EDB00 		jle	L63
 1142      0000
 197:src/pdf417/PDFDetectionResult.c **** 	{
 198:src/pdf417/PDFDetectionResult.c **** 		otherCodewords[0] = codewords[codewordsRow - 1];
 1143              		.loc 1 198 32
 1144 0822 8B5510   		movl	16(%ebp), %edx
 1145 0825 89D0     		movl	%edx, %eax
 1146 0827 01C0     		addl	%eax, %eax
 1147 0829 01D0     		addl	%edx, %eax
 1148 082b C1E003   		sall	$3, %eax
 1149 082e 8D50E8   		leal	-24(%eax), %edx
 1150 0831 8B4514   		movl	20(%ebp), %eax
 1151 0834 01D0     		addl	%edx, %eax
 1152              		.loc 1 198 21
 1153 0836 8B10     		movl	(%eax), %edx
 1154 0838 899580FE 		movl	%edx, -384(%ebp)
 1154      FFFF
 1155 083e 8B5004   		movl	4(%eax), %edx
 1156 0841 899584FE 		movl	%edx, -380(%ebp)
 1156      FFFF
 1157 0847 8B5008   		movl	8(%eax), %edx
 1158 084a 899588FE 		movl	%edx, -376(%ebp)
 1158      FFFF
 1159 0850 8B500C   		movl	12(%eax), %edx
 1160 0853 89958CFE 		movl	%edx, -372(%ebp)
GAS LISTING C:\Users\jisu8\AppData\Local\Temp\ccwGfk1w.s 			page 27


 1160      FFFF
 1161 0859 8B5010   		movl	16(%eax), %edx
 1162 085c 899590FE 		movl	%edx, -368(%ebp)
 1162      FFFF
 1163 0862 8B4014   		movl	20(%eax), %eax
 1164 0865 898594FE 		movl	%eax, -364(%ebp)
 1164      FFFF
 199:src/pdf417/PDFDetectionResult.c **** 		otherCodewords[4] = previousColumnCodewords[codewordsRow - 1];
 1165              		.loc 1 199 46
 1166 086b 8B5510   		movl	16(%ebp), %edx
 1167 086e 89D0     		movl	%edx, %eax
 1168 0870 01C0     		addl	%eax, %eax
 1169 0872 01D0     		addl	%edx, %eax
 1170 0874 C1E003   		sall	$3, %eax
 1171 0877 8D50E8   		leal	-24(%eax), %edx
 1172 087a 8B45F0   		movl	-16(%ebp), %eax
 1173 087d 01D0     		addl	%edx, %eax
 1174              		.loc 1 199 21
 1175 087f 8B10     		movl	(%eax), %edx
 1176 0881 8995E0FE 		movl	%edx, -288(%ebp)
 1176      FFFF
 1177 0887 8B5004   		movl	4(%eax), %edx
 1178 088a 8995E4FE 		movl	%edx, -284(%ebp)
 1178      FFFF
 1179 0890 8B5008   		movl	8(%eax), %edx
 1180 0893 8995E8FE 		movl	%edx, -280(%ebp)
 1180      FFFF
 1181 0899 8B500C   		movl	12(%eax), %edx
 1182 089c 8995ECFE 		movl	%edx, -276(%ebp)
 1182      FFFF
 1183 08a2 8B5010   		movl	16(%eax), %edx
 1184 08a5 8995F0FE 		movl	%edx, -272(%ebp)
 1184      FFFF
 1185 08ab 8B4014   		movl	20(%eax), %eax
 1186 08ae 8985F4FE 		movl	%eax, -268(%ebp)
 1186      FFFF
 200:src/pdf417/PDFDetectionResult.c **** 		otherCodewords[5] = nextColumnCodewords[codewordsRow - 1];
 1187              		.loc 1 200 42
 1188 08b4 8B5510   		movl	16(%ebp), %edx
 1189 08b7 89D0     		movl	%edx, %eax
 1190 08b9 01C0     		addl	%eax, %eax
 1191 08bb 01D0     		addl	%edx, %eax
 1192 08bd C1E003   		sall	$3, %eax
 1193 08c0 8D50E8   		leal	-24(%eax), %edx
 1194 08c3 8B45EC   		movl	-20(%ebp), %eax
 1195 08c6 01D0     		addl	%edx, %eax
 1196              		.loc 1 200 21
 1197 08c8 8B10     		movl	(%eax), %edx
 1198 08ca 8995F8FE 		movl	%edx, -264(%ebp)
 1198      FFFF
 1199 08d0 8B5004   		movl	4(%eax), %edx
 1200 08d3 8995FCFE 		movl	%edx, -260(%ebp)
 1200      FFFF
 1201 08d9 8B5008   		movl	8(%eax), %edx
 1202 08dc 899500FF 		movl	%edx, -256(%ebp)
 1202      FFFF
 1203 08e2 8B500C   		movl	12(%eax), %edx
GAS LISTING C:\Users\jisu8\AppData\Local\Temp\ccwGfk1w.s 			page 28


 1204 08e5 899504FF 		movl	%edx, -252(%ebp)
 1204      FFFF
 1205 08eb 8B5010   		movl	16(%eax), %edx
 1206 08ee 899508FF 		movl	%edx, -248(%ebp)
 1206      FFFF
 1207 08f4 8B4014   		movl	20(%eax), %eax
 1208 08f7 89850CFF 		movl	%eax, -244(%ebp)
 1208      FFFF
 1209              	L63:
 201:src/pdf417/PDFDetectionResult.c **** 	}
 202:src/pdf417/PDFDetectionResult.c **** 	if (codewordsRow > 1) 
 1210              		.loc 1 202 5
 1211 08fd 837D1001 		cmpl	$1, 16(%ebp)
 1212 0901 0F8EC300 		jle	L64
 1212      0000
 203:src/pdf417/PDFDetectionResult.c **** 	{
 204:src/pdf417/PDFDetectionResult.c **** 		otherCodewords[8] = codewords[codewordsRow - 2];
 1213              		.loc 1 204 32
 1214 0907 8B5510   		movl	16(%ebp), %edx
 1215 090a 89D0     		movl	%edx, %eax
 1216 090c 01C0     		addl	%eax, %eax
 1217 090e 01D0     		addl	%edx, %eax
 1218 0910 C1E003   		sall	$3, %eax
 1219 0913 8D50D0   		leal	-48(%eax), %edx
 1220 0916 8B4514   		movl	20(%ebp), %eax
 1221 0919 01D0     		addl	%edx, %eax
 1222              		.loc 1 204 21
 1223 091b 8B10     		movl	(%eax), %edx
 1224 091d 899540FF 		movl	%edx, -192(%ebp)
 1224      FFFF
 1225 0923 8B5004   		movl	4(%eax), %edx
 1226 0926 899544FF 		movl	%edx, -188(%ebp)
 1226      FFFF
 1227 092c 8B5008   		movl	8(%eax), %edx
 1228 092f 899548FF 		movl	%edx, -184(%ebp)
 1228      FFFF
 1229 0935 8B500C   		movl	12(%eax), %edx
 1230 0938 89954CFF 		movl	%edx, -180(%ebp)
 1230      FFFF
 1231 093e 8B5010   		movl	16(%eax), %edx
 1232 0941 899550FF 		movl	%edx, -176(%ebp)
 1232      FFFF
 1233 0947 8B4014   		movl	20(%eax), %eax
 1234 094a 898554FF 		movl	%eax, -172(%ebp)
 1234      FFFF
 205:src/pdf417/PDFDetectionResult.c **** 		otherCodewords[10] = previousColumnCodewords[codewordsRow - 2];
 1235              		.loc 1 205 47
 1236 0950 8B5510   		movl	16(%ebp), %edx
 1237 0953 89D0     		movl	%edx, %eax
 1238 0955 01C0     		addl	%eax, %eax
 1239 0957 01D0     		addl	%edx, %eax
 1240 0959 C1E003   		sall	$3, %eax
 1241 095c 8D50D0   		leal	-48(%eax), %edx
 1242 095f 8B45F0   		movl	-16(%ebp), %eax
 1243 0962 01D0     		addl	%edx, %eax
 1244              		.loc 1 205 22
 1245 0964 8B10     		movl	(%eax), %edx
GAS LISTING C:\Users\jisu8\AppData\Local\Temp\ccwGfk1w.s 			page 29


 1246 0966 899570FF 		movl	%edx, -144(%ebp)
 1246      FFFF
 1247 096c 8B5004   		movl	4(%eax), %edx
 1248 096f 899574FF 		movl	%edx, -140(%ebp)
 1248      FFFF
 1249 0975 8B5008   		movl	8(%eax), %edx
 1250 0978 899578FF 		movl	%edx, -136(%ebp)
 1250      FFFF
 1251 097e 8B500C   		movl	12(%eax), %edx
 1252 0981 89957CFF 		movl	%edx, -132(%ebp)
 1252      FFFF
 1253 0987 8B5010   		movl	16(%eax), %edx
 1254 098a 895580   		movl	%edx, -128(%ebp)
 1255 098d 8B4014   		movl	20(%eax), %eax
 1256 0990 894584   		movl	%eax, -124(%ebp)
 206:src/pdf417/PDFDetectionResult.c **** 		otherCodewords[11] = nextColumnCodewords[codewordsRow - 2];
 1257              		.loc 1 206 43
 1258 0993 8B5510   		movl	16(%ebp), %edx
 1259 0996 89D0     		movl	%edx, %eax
 1260 0998 01C0     		addl	%eax, %eax
 1261 099a 01D0     		addl	%edx, %eax
 1262 099c C1E003   		sall	$3, %eax
 1263 099f 8D50D0   		leal	-48(%eax), %edx
 1264 09a2 8B45EC   		movl	-20(%ebp), %eax
 1265 09a5 01D0     		addl	%edx, %eax
 1266              		.loc 1 206 22
 1267 09a7 8B10     		movl	(%eax), %edx
 1268 09a9 895588   		movl	%edx, -120(%ebp)
 1269 09ac 8B5004   		movl	4(%eax), %edx
 1270 09af 89558C   		movl	%edx, -116(%ebp)
 1271 09b2 8B5008   		movl	8(%eax), %edx
 1272 09b5 895590   		movl	%edx, -112(%ebp)
 1273 09b8 8B500C   		movl	12(%eax), %edx
 1274 09bb 895594   		movl	%edx, -108(%ebp)
 1275 09be 8B5010   		movl	16(%eax), %edx
 1276 09c1 895598   		movl	%edx, -104(%ebp)
 1277 09c4 8B4014   		movl	20(%eax), %eax
 1278 09c7 89459C   		movl	%eax, -100(%ebp)
 1279              	L64:
 1280              	LBB14:
 207:src/pdf417/PDFDetectionResult.c **** 	}
 208:src/pdf417/PDFDetectionResult.c **** 	#if 0
 209:src/pdf417/PDFDetectionResult.c **** 	if (codewordsRow < Size(codewords) - 1) 
 210:src/pdf417/PDFDetectionResult.c **** 	{
 211:src/pdf417/PDFDetectionResult.c **** 		otherCodewords[1] = codewords[codewordsRow + 1];
 212:src/pdf417/PDFDetectionResult.c **** 		otherCodewords[6] = previousColumnCodewords[codewordsRow + 1];
 213:src/pdf417/PDFDetectionResult.c **** 		otherCodewords[7] = nextColumnCodewords[codewordsRow + 1];
 214:src/pdf417/PDFDetectionResult.c **** 	}
 215:src/pdf417/PDFDetectionResult.c **** 	if (codewordsRow < Size(codewords) - 2) 
 216:src/pdf417/PDFDetectionResult.c **** 	{
 217:src/pdf417/PDFDetectionResult.c **** 		otherCodewords[9] = codewords[codewordsRow + 2];
 218:src/pdf417/PDFDetectionResult.c **** 		otherCodewords[12] = previousColumnCodewords[codewordsRow + 2];
 219:src/pdf417/PDFDetectionResult.c **** 		otherCodewords[13] = nextColumnCodewords[codewordsRow + 2];
 220:src/pdf417/PDFDetectionResult.c **** 	}
 221:src/pdf417/PDFDetectionResult.c **** 	#endif
 222:src/pdf417/PDFDetectionResult.c **** 	for (int i=0;i<size1;i++) 
 1281              		.loc 1 222 11
GAS LISTING C:\Users\jisu8\AppData\Local\Temp\ccwGfk1w.s 			page 30


 1282 09ca C745F400 		movl	$0, -12(%ebp)
 1282      000000
 1283              		.loc 1 222 2
 1284 09d1 EB1D     		jmp	L65
 1285              	L68:
 223:src/pdf417/PDFDetectionResult.c **** 	{
 224:src/pdf417/PDFDetectionResult.c **** 		if (AdjustRowNumber(&codeword, otherCodewords)) 
 1286              		.loc 1 224 7
 1287 09d3 8D8580FE 		leal	-384(%ebp), %eax
 1287      FFFF
 1288 09d9 89442404 		movl	%eax, 4(%esp)
 1289 09dd 8D45D0   		leal	-48(%ebp), %eax
 1290 09e0 890424   		movl	%eax, (%esp)
 1291 09e3 E87EFCFF 		call	_AdjustRowNumber
 1291      FF
 1292              		.loc 1 224 6
 1293 09e8 84C0     		testb	%al, %al
 1294 09ea 750E     		jne	L69
 222:src/pdf417/PDFDetectionResult.c **** 	{
 1295              		.loc 1 222 24 discriminator 2
 1296 09ec 8345F401 		addl	$1, -12(%ebp)
 1297              	L65:
 222:src/pdf417/PDFDetectionResult.c **** 	{
 1298              		.loc 1 222 2 discriminator 1
 1299 09f0 8B45F4   		movl	-12(%ebp), %eax
 1300 09f3 3B45E8   		cmpl	-24(%ebp), %eax
 1301 09f6 7CDB     		jl	L68
 1302 09f8 EB01     		jmp	L60
 1303              	L69:
 1304              	LBE14:
 225:src/pdf417/PDFDetectionResult.c **** 		{
 226:src/pdf417/PDFDetectionResult.c **** 			return;
 1305              		.loc 1 226 4
 1306 09fa 90       		nop
 1307              	L60:
 227:src/pdf417/PDFDetectionResult.c **** 		}
 228:src/pdf417/PDFDetectionResult.c **** 	}
 229:src/pdf417/PDFDetectionResult.c **** }
 1308              		.loc 1 229 1
 1309 09fb C9       		leave
 1310              	LCFI26:
 1311              		.cfi_restore 5
 1312              		.cfi_def_cfa 4, 4
 1313 09fc C3       		ret
 1314              		.cfi_endproc
 1315              	LFE9:
 1317              	_AdjustRowNumbers:
 1318              	LFB10:
 230:src/pdf417/PDFDetectionResult.c **** 
 231:src/pdf417/PDFDetectionResult.c **** 
 232:src/pdf417/PDFDetectionResult.c **** // TODO ensure that no detected codewords with unknown row number are left
 233:src/pdf417/PDFDetectionResult.c **** // we should be able to estimate the row height and use it as a hint for the row number
 234:src/pdf417/PDFDetectionResult.c **** // we should also fill the rows top to bottom and bottom to top
 235:src/pdf417/PDFDetectionResult.c **** /**
 236:src/pdf417/PDFDetectionResult.c **** * @return number of codewords which don't have a valid row number. Note that the count is not accur
 237:src/pdf417/PDFDetectionResult.c **** * will be counted several times. It just serves as an indicator to see when we can stop adjusting r
 238:src/pdf417/PDFDetectionResult.c **** */
GAS LISTING C:\Users\jisu8\AppData\Local\Temp\ccwGfk1w.s 			page 31


 239:src/pdf417/PDFDetectionResult.c **** static int AdjustRowNumbers(DetectionResultColumn_t * detectionResultColumns,int row,int size) 
 240:src/pdf417/PDFDetectionResult.c **** {
 1319              		.loc 1 240 1
 1320              		.cfi_startproc
 1321 09fd 55       		pushl	%ebp
 1322              	LCFI27:
 1323              		.cfi_def_cfa_offset 8
 1324              		.cfi_offset 5, -8
 1325 09fe 89E5     		movl	%esp, %ebp
 1326              	LCFI28:
 1327              		.cfi_def_cfa_register 5
 1328 0a00 53       		pushl	%ebx
 1329 0a01 83EC34   		subl	$52, %esp
 1330              		.cfi_offset 3, -12
 241:src/pdf417/PDFDetectionResult.c **** 	int unadjustedCount = AdjustRowNumbersByRow(detectionResultColumns,row,size);
 1331              		.loc 1 241 24
 1332 0a04 8B4510   		movl	16(%ebp), %eax
 1333 0a07 89442408 		movl	%eax, 8(%esp)
 1334 0a0b 8B450C   		movl	12(%ebp), %eax
 1335 0a0e 89442404 		movl	%eax, 4(%esp)
 1336 0a12 8B4508   		movl	8(%ebp), %eax
 1337 0a15 890424   		movl	%eax, (%esp)
 1338 0a18 E8ECFBFF 		call	_AdjustRowNumbersByRow
 1338      FF
 1339 0a1d 8945EC   		movl	%eax, -20(%ebp)
 242:src/pdf417/PDFDetectionResult.c **** 	if (unadjustedCount == 0) 
 1340              		.loc 1 242 5
 1341 0a20 837DEC00 		cmpl	$0, -20(%ebp)
 1342 0a24 750A     		jne	L71
 243:src/pdf417/PDFDetectionResult.c **** 	{
 244:src/pdf417/PDFDetectionResult.c **** 		return 0;
 1343              		.loc 1 244 10
 1344 0a26 B8000000 		movl	$0, %eax
 1344      00
 1345 0a2b E92C0100 		jmp	L72
 1345      00
 1346              	L71:
 1347              	LBB15:
 245:src/pdf417/PDFDetectionResult.c **** 	}
 246:src/pdf417/PDFDetectionResult.c **** 	
 247:src/pdf417/PDFDetectionResult.c **** 	for (int barcodeColumn = 1; barcodeColumn <row; barcodeColumn++) 
 1348              		.loc 1 247 11
 1349 0a30 C745F401 		movl	$1, -12(%ebp)
 1349      000000
 1350              		.loc 1 247 2
 1351 0a37 E9110100 		jmp	L73
 1351      00
 1352              	L80:
 1353              	LBB16:
 248:src/pdf417/PDFDetectionResult.c **** 	{
 249:src/pdf417/PDFDetectionResult.c **** 		if (detectionResultColumns[barcodeColumn].m_hasValue == 0) 
 1354              		.loc 1 249 29
 1355 0a3c 8B45F4   		movl	-12(%ebp), %eax
 1356 0a3f 69D0342F 		imull	$12084, %eax, %edx
 1356      0000
 1357 0a45 8B4508   		movl	8(%ebp), %eax
 1358 0a48 01D0     		addl	%edx, %eax
GAS LISTING C:\Users\jisu8\AppData\Local\Temp\ccwGfk1w.s 			page 32


 1359              		.loc 1 249 44
 1360 0a4a 0FB600   		movzbl	(%eax), %eax
 1361              		.loc 1 249 6
 1362 0a4d 84C0     		testb	%al, %al
 1363 0a4f 0F84F300 		je	L81
 1363      0000
 250:src/pdf417/PDFDetectionResult.c **** 		{
 251:src/pdf417/PDFDetectionResult.c **** 			continue;
 252:src/pdf417/PDFDetectionResult.c **** 		}
 253:src/pdf417/PDFDetectionResult.c **** 		Codeword_t * codewords = detectionResultColumns[barcodeColumn].m_value._codewords;
 1364              		.loc 1 253 50
 1365 0a55 8B45F4   		movl	-12(%ebp), %eax
 1366 0a58 69D0342F 		imull	$12084, %eax, %edx
 1366      0000
 1367 0a5e 8B4508   		movl	8(%ebp), %eax
 1368 0a61 01D0     		addl	%edx, %eax
 1369              		.loc 1 253 16
 1370 0a63 83C050   		addl	$80, %eax
 1371 0a66 8945E8   		movl	%eax, -24(%ebp)
 1372              	LBB17:
 254:src/pdf417/PDFDetectionResult.c **** 		for (int codewordsRow = 0; codewordsRow < size; codewordsRow++) 
 1373              		.loc 1 254 12
 1374 0a69 C745F000 		movl	$0, -16(%ebp)
 1374      000000
 1375              		.loc 1 254 3
 1376 0a70 E9C50000 		jmp	L76
 1376      00
 1377              	L79:
 255:src/pdf417/PDFDetectionResult.c **** 		{
 256:src/pdf417/PDFDetectionResult.c **** 			if (codewords[codewordsRow].m_hasValue == 0) 
 1378              		.loc 1 256 17
 1379 0a75 8B55F0   		movl	-16(%ebp), %edx
 1380 0a78 89D0     		movl	%edx, %eax
 1381 0a7a 01C0     		addl	%eax, %eax
 1382 0a7c 01D0     		addl	%edx, %eax
 1383 0a7e C1E003   		sall	$3, %eax
 1384 0a81 89C2     		movl	%eax, %edx
 1385 0a83 8B45E8   		movl	-24(%ebp), %eax
 1386 0a86 01D0     		addl	%edx, %eax
 1387              		.loc 1 256 31
 1388 0a88 0FB600   		movzbl	(%eax), %eax
 1389              		.loc 1 256 7
 1390 0a8b 84C0     		testb	%al, %al
 1391 0a8d 0F84A200 		je	L82
 1391      0000
 257:src/pdf417/PDFDetectionResult.c **** 			{
 258:src/pdf417/PDFDetectionResult.c **** 				continue;
 259:src/pdf417/PDFDetectionResult.c **** 			}
 260:src/pdf417/PDFDetectionResult.c **** 			if (!codewords[codewordsRow].m_value._rowNumber != BARCODE_ROW_UNKNOWN && codewords[codewordsRow
 1392              		.loc 1 260 18
 1393 0a93 8B55F0   		movl	-16(%ebp), %edx
 1394 0a96 89D0     		movl	%edx, %eax
 1395 0a98 01C0     		addl	%eax, %eax
 1396 0a9a 01D0     		addl	%edx, %eax
 1397 0a9c C1E003   		sall	$3, %eax
 1398 0a9f 89C2     		movl	%eax, %edx
 1399 0aa1 8B45E8   		movl	-24(%ebp), %eax
GAS LISTING C:\Users\jisu8\AppData\Local\Temp\ccwGfk1w.s 			page 33


 1400 0aa4 01D0     		addl	%edx, %eax
 1401              		.loc 1 260 40
 1402 0aa6 8B4014   		movl	20(%eax), %eax
 1403              		.loc 1 260 8
 1404 0aa9 85C0     		testl	%eax, %eax
 1405 0aab 0F94C0   		sete	%al
 1406 0aae 0FB6D0   		movzbl	%al, %edx
 1407              		.loc 1 260 52
 1408 0ab1 A1000000 		movl	_BARCODE_ROW_UNKNOWN, %eax
 1408      00
 1409              		.loc 1 260 7
 1410 0ab6 39C2     		cmpl	%eax, %edx
 1411 0ab8 747C     		je	L78
 1412              		.loc 1 260 87 discriminator 1
 1413 0aba 8B55F0   		movl	-16(%ebp), %edx
 1414 0abd 89D0     		movl	%edx, %eax
 1415 0abf 01C0     		addl	%eax, %eax
 1416 0ac1 01D0     		addl	%edx, %eax
 1417 0ac3 C1E003   		sall	$3, %eax
 1418 0ac6 89C2     		movl	%eax, %edx
 1419 0ac8 8B45E8   		movl	-24(%ebp), %eax
 1420 0acb 01D0     		addl	%edx, %eax
 1421              		.loc 1 260 109 discriminator 1
 1422 0acd 8B580C   		movl	12(%eax), %ebx
 1423              		.loc 1 260 131 discriminator 1
 1424 0ad0 8B55F0   		movl	-16(%ebp), %edx
 1425 0ad3 89D0     		movl	%edx, %eax
 1426 0ad5 01C0     		addl	%eax, %eax
 1427 0ad7 01D0     		addl	%edx, %eax
 1428 0ad9 C1E003   		sall	$3, %eax
 1429 0adc 89C2     		movl	%eax, %edx
 1430 0ade 8B45E8   		movl	-24(%ebp), %eax
 1431 0ae1 01D0     		addl	%edx, %eax
 1432              		.loc 1 260 153 discriminator 1
 1433 0ae3 8B4814   		movl	20(%eax), %ecx
 1434              		.loc 1 260 165 discriminator 1
 1435 0ae6 BA565555 		movl	$1431655766, %edx
 1435      55
 1436 0aeb 89C8     		movl	%ecx, %eax
 1437 0aed F7EA     		imull	%edx
 1438 0aef 89C8     		movl	%ecx, %eax
 1439 0af1 C1F81F   		sarl	$31, %eax
 1440 0af4 29C2     		subl	%eax, %edx
 1441 0af6 89D0     		movl	%edx, %eax
 1442 0af8 89C2     		movl	%eax, %edx
 1443 0afa 01D2     		addl	%edx, %edx
 1444 0afc 01C2     		addl	%eax, %edx
 1445 0afe 89C8     		movl	%ecx, %eax
 1446 0b00 29D0     		subl	%edx, %eax
 1447              		.loc 1 260 170 discriminator 1
 1448 0b02 89C2     		movl	%eax, %edx
 1449 0b04 01D2     		addl	%edx, %edx
 1450 0b06 01D0     		addl	%edx, %eax
 1451              		.loc 1 260 75 discriminator 1
 1452 0b08 39C3     		cmpl	%eax, %ebx
 1453 0b0a 752A     		jne	L78
 261:src/pdf417/PDFDetectionResult.c **** 			{
GAS LISTING C:\Users\jisu8\AppData\Local\Temp\ccwGfk1w.s 			page 34


 262:src/pdf417/PDFDetectionResult.c **** 				AdjustRowNumbers_internal(detectionResultColumns, barcodeColumn, codewordsRow, codewords,size);
 1454              		.loc 1 262 5
 1455 0b0c 8B4510   		movl	16(%ebp), %eax
 1456 0b0f 89442410 		movl	%eax, 16(%esp)
 1457 0b13 8B45E8   		movl	-24(%ebp), %eax
 1458 0b16 8944240C 		movl	%eax, 12(%esp)
 1459 0b1a 8B45F0   		movl	-16(%ebp), %eax
 1460 0b1d 89442408 		movl	%eax, 8(%esp)
 1461 0b21 8B45F4   		movl	-12(%ebp), %eax
 1462 0b24 89442404 		movl	%eax, 4(%esp)
 1463 0b28 8B4508   		movl	8(%ebp), %eax
 1464 0b2b 890424   		movl	%eax, (%esp)
 1465 0b2e E8B7FBFF 		call	_AdjustRowNumbers_internal
 1465      FF
 1466 0b33 EB01     		jmp	L78
 1467              	L82:
 258:src/pdf417/PDFDetectionResult.c **** 			}
 1468              		.loc 1 258 5
 1469 0b35 90       		nop
 1470              	L78:
 254:src/pdf417/PDFDetectionResult.c **** 		{
 1471              		.loc 1 254 63 discriminator 2
 1472 0b36 8345F001 		addl	$1, -16(%ebp)
 1473              	L76:
 254:src/pdf417/PDFDetectionResult.c **** 		{
 1474              		.loc 1 254 3 discriminator 1
 1475 0b3a 8B45F0   		movl	-16(%ebp), %eax
 1476 0b3d 3B4510   		cmpl	16(%ebp), %eax
 1477 0b40 0F8C2FFF 		jl	L79
 1477      FFFF
 1478 0b46 EB01     		jmp	L75
 1479              	L81:
 1480              	LBE17:
 251:src/pdf417/PDFDetectionResult.c **** 		}
 1481              		.loc 1 251 4
 1482 0b48 90       		nop
 1483              	L75:
 1484              	LBE16:
 247:src/pdf417/PDFDetectionResult.c **** 	{
 1485              		.loc 1 247 63 discriminator 2
 1486 0b49 8345F401 		addl	$1, -12(%ebp)
 1487              	L73:
 247:src/pdf417/PDFDetectionResult.c **** 	{
 1488              		.loc 1 247 2 discriminator 1
 1489 0b4d 8B45F4   		movl	-12(%ebp), %eax
 1490 0b50 3B450C   		cmpl	12(%ebp), %eax
 1491 0b53 0F8CE3FE 		jl	L80
 1491      FFFF
 1492              	LBE15:
 263:src/pdf417/PDFDetectionResult.c **** 			}
 264:src/pdf417/PDFDetectionResult.c **** 		}
 265:src/pdf417/PDFDetectionResult.c **** 	}
 266:src/pdf417/PDFDetectionResult.c **** 	return unadjustedCount;
 1493              		.loc 1 266 9
 1494 0b59 8B45EC   		movl	-20(%ebp), %eax
 1495              	L72:
 267:src/pdf417/PDFDetectionResult.c **** }
GAS LISTING C:\Users\jisu8\AppData\Local\Temp\ccwGfk1w.s 			page 35


 1496              		.loc 1 267 1
 1497 0b5c 83C434   		addl	$52, %esp
 1498 0b5f 5B       		popl	%ebx
 1499              		.cfi_restore 3
 1500 0b60 5D       		popl	%ebp
 1501              	LCFI29:
 1502              		.cfi_restore 5
 1503              		.cfi_def_cfa 4, 4
 1504 0b61 C3       		ret
 1505              		.cfi_endproc
 1506              	LFE10:
 1507              		.globl	_allColumns
 1509              	_allColumns:
 1510              	LFB11:
 268:src/pdf417/PDFDetectionResult.c **** 
 269:src/pdf417/PDFDetectionResult.c **** const DetectionResultColumn_t allColumns(DetectionResult_t * detectionResult,int row,int size)
 270:src/pdf417/PDFDetectionResult.c **** {
 1511              		.loc 1 270 1
 1512              		.cfi_startproc
 1513 0b62 55       		pushl	%ebp
 1514              	LCFI30:
 1515              		.cfi_def_cfa_offset 8
 1516              		.cfi_offset 5, -8
 1517 0b63 89E5     		movl	%esp, %ebp
 1518              	LCFI31:
 1519              		.cfi_def_cfa_register 5
 1520 0b65 83EC28   		subl	$40, %esp
 271:src/pdf417/PDFDetectionResult.c **** 	AdjustIndicatorColumnRowNumbers(&(detectionResult->_detectionResultColumns[0]), &(detectionResult-
 1521              		.loc 1 271 82
 1522 0b68 8B450C   		movl	12(%ebp), %eax
 1523              		.loc 1 271 2
 1524 0b6b 8B550C   		movl	12(%ebp), %edx
 1525 0b6e 83C210   		addl	$16, %edx
 1526 0b71 89442404 		movl	%eax, 4(%esp)
 1527 0b75 891424   		movl	%edx, (%esp)
 1528 0b78 E8C5F4FF 		call	_AdjustIndicatorColumnRowNumbers
 1528      FF
 272:src/pdf417/PDFDetectionResult.c **** 	AdjustIndicatorColumnRowNumbers(&(detectionResult->_detectionResultColumns[row-1]), &(detectionRes
 1529              		.loc 1 272 86
 1530 0b7d 8B450C   		movl	12(%ebp), %eax
 1531              		.loc 1 272 80
 1532 0b80 8B5510   		movl	16(%ebp), %edx
 1533 0b83 83EA01   		subl	$1, %edx
 1534              		.loc 1 272 2
 1535 0b86 69D2342F 		imull	$12084, %edx, %edx
 1535      0000
 1536 0b8c 8D4A10   		leal	16(%edx), %ecx
 1537 0b8f 8B550C   		movl	12(%ebp), %edx
 1538 0b92 01CA     		addl	%ecx, %edx
 1539 0b94 89442404 		movl	%eax, 4(%esp)
 1540 0b98 891424   		movl	%edx, (%esp)
 1541 0b9b E8A2F4FF 		call	_AdjustIndicatorColumnRowNumbers
 1541      FF
 273:src/pdf417/PDFDetectionResult.c **** 	int unadjustedCodewordCount = MAX_CODEWORDS_IN_BARCODE;
 1542              		.loc 1 273 6
 1543 0ba0 A1000000 		movl	_MAX_CODEWORDS_IN_BARCODE, %eax
 1543      00
GAS LISTING C:\Users\jisu8\AppData\Local\Temp\ccwGfk1w.s 			page 36


 1544 0ba5 8945F4   		movl	%eax, -12(%ebp)
 1545              	L85:
 274:src/pdf417/PDFDetectionResult.c **** 	int previousUnadjustedCount;
 275:src/pdf417/PDFDetectionResult.c **** 	do 
 276:src/pdf417/PDFDetectionResult.c **** 	{
 277:src/pdf417/PDFDetectionResult.c **** 		previousUnadjustedCount = unadjustedCodewordCount;
 1546              		.loc 1 277 27 discriminator 2
 1547 0ba8 8B45F4   		movl	-12(%ebp), %eax
 1548 0bab 8945F0   		movl	%eax, -16(%ebp)
 278:src/pdf417/PDFDetectionResult.c **** 		unadjustedCodewordCount = AdjustRowNumbers(detectionResult->_detectionResultColumns,row,size);
 1549              		.loc 1 278 61 discriminator 2
 1550 0bae 8B450C   		movl	12(%ebp), %eax
 1551 0bb1 8D5010   		leal	16(%eax), %edx
 1552              		.loc 1 278 29 discriminator 2
 1553 0bb4 8B4514   		movl	20(%ebp), %eax
 1554 0bb7 89442408 		movl	%eax, 8(%esp)
 1555 0bbb 8B4510   		movl	16(%ebp), %eax
 1556 0bbe 89442404 		movl	%eax, 4(%esp)
 1557 0bc2 891424   		movl	%edx, (%esp)
 1558 0bc5 E833FEFF 		call	_AdjustRowNumbers
 1558      FF
 1559 0bca 8945F4   		movl	%eax, -12(%ebp)
 279:src/pdf417/PDFDetectionResult.c **** 	} while (unadjustedCodewordCount > 0 && unadjustedCodewordCount < previousUnadjustedCount);
 1560              		.loc 1 279 2 discriminator 2
 1561 0bcd 837DF400 		cmpl	$0, -12(%ebp)
 1562 0bd1 7E08     		jle	L84
 1563              		.loc 1 279 39 discriminator 1
 1564 0bd3 8B45F4   		movl	-12(%ebp), %eax
 1565 0bd6 3B45F0   		cmpl	-16(%ebp), %eax
 1566 0bd9 7CCD     		jl	L85
 1567              	L84:
 280:src/pdf417/PDFDetectionResult.c **** 	return *(detectionResult->_detectionResultColumns);
 1568              		.loc 1 280 9
 1569 0bdb 8B5508   		movl	8(%ebp), %edx
 1570 0bde 8B450C   		movl	12(%ebp), %eax
 1571 0be1 83C010   		addl	$16, %eax
 1572 0be4 B9342F00 		movl	$12084, %ecx
 1572      00
 1573 0be9 894C2408 		movl	%ecx, 8(%esp)
 1574 0bed 89442404 		movl	%eax, 4(%esp)
 1575 0bf1 891424   		movl	%edx, (%esp)
 1576 0bf4 E8000000 		call	_memcpy
 1576      00
 281:src/pdf417/PDFDetectionResult.c **** }
 1577              		.loc 1 281 1
 1578 0bf9 8B4508   		movl	8(%ebp), %eax
 1579 0bfc C9       		leave
 1580              	LCFI32:
 1581              		.cfi_restore 5
 1582              		.cfi_def_cfa 4, 4
 1583 0bfd C3       		ret
 1584              		.cfi_endproc
 1585              	LFE11:
 1586              	Letext0:
 1587              		.file 2 "src/pdf417/PDFBarcodeMetadata.h"
 1588              		.file 3 "D:/3.tools/mingw/mingw32/i686-w64-mingw32/include/crtdefs.h"
 1589              		.file 4 "D:/3.tools/mingw/mingw32/i686-w64-mingw32/include/stdint.h"
GAS LISTING C:\Users\jisu8\AppData\Local\Temp\ccwGfk1w.s 			page 37


 1590              		.file 5 "src/ResultPoint.h"
 1591              		.file 6 "src/pdf417/PDFBoundingBox.h"
 1592              		.file 7 "src/pdf417/PDFCodeword.h"
 1593              		.file 8 "src/pdf417/PDFDetectionResultColumn.h"
 1594              		.file 9 "src/pdf417/PDFDetectionResult.h"
 1595              		.file 10 "src/pdf417/PDFCodewordDecoder.h"
 1596              		.file 11 "src/pdf417/PDFScanningDecoder.h"