GAS LISTING C:\Users\jisu8\AppData\Local\Temp\ccw96xXP.s 			page 1


   1              		.file	"PDFDetector.c"
   2              		.text
   3              	Ltext0:
   4              		.section .rdata,"dr"
   5              		.align 4
   6              	_INDEXES_START_PATTERN:
   7 0000 00000000 		.long	0
   8 0004 04000000 		.long	4
   9 0008 01000000 		.long	1
  10 000c 05000000 		.long	5
  11              		.align 4
  12              	_INDEXES_STOP_PATTERN:
  13 0010 06000000 		.long	6
  14 0014 02000000 		.long	2
  15 0018 07000000 		.long	7
  16 001c 03000000 		.long	3
  17              		.align 4
  18              	_MAX_AVG_VARIANCE:
  19 0020 3D0AD73E 		.long	1054280253
  20              		.align 4
  21              	_MAX_INDIVIDUAL_VARIANCE:
  22 0024 CDCC4C3F 		.long	1061997773
  23 0028 00000000 		.align 32
  23      00000000 
  23      00000000 
  23      00000000 
  23      00000000 
  24              	_START_PATTERN:
  25 0040 08000000 		.long	8
  26 0044 01000000 		.long	1
  27 0048 01000000 		.long	1
  28 004c 01000000 		.long	1
  29 0050 01000000 		.long	1
  30 0054 01000000 		.long	1
  31 0058 01000000 		.long	1
  32 005c 03000000 		.long	3
  33              		.align 32
  34              	_STOP_PATTERN:
  35 0060 07000000 		.long	7
  36 0064 01000000 		.long	1
  37 0068 01000000 		.long	1
  38 006c 03000000 		.long	3
  39 0070 01000000 		.long	1
  40 0074 01000000 		.long	1
  41 0078 01000000 		.long	1
  42 007c 02000000 		.long	2
  43 0080 01000000 		.long	1
  44              		.align 4
  45              	_MAX_PIXEL_DRIFT:
  46 0084 03000000 		.long	3
  47              		.align 4
  48              	_MAX_PATTERN_DRIFT:
  49 0088 05000000 		.long	5
  50              		.align 4
  51              	_SKIPPED_ROW_COUNT_MAX:
  52 008c 19000000 		.long	25
  53              		.align 4
GAS LISTING C:\Users\jisu8\AppData\Local\Temp\ccw96xXP.s 			page 2


  54              	_ROW_STEP:
  55 0090 08000000 		.long	8
  56              		.align 4
  57              	_BARCODE_MIN_HEIGHT:
  58 0094 0A000000 		.long	10
  59              	.lcomm _Vertice_Result,96,32
  60              		.align 4
  61              	LC0:
  62 0098 50617474 		.ascii "PatternMatchVariance  maxIndividualVariance = %f\12\0"
  62      65726E4D 
  62      61746368 
  62      56617269 
  62      616E6365 
  63              		.text
  65              	_PatternMatchVariance:
  66              	LFB16:
  67              		.file 1 "src/pdf417/PDFDetector.c"
   1:src/pdf417/PDFDetector.c **** 
   2:src/pdf417/PDFDetector.c **** 
   3:src/pdf417/PDFDetector.c **** #include "PDFDetector.h"
   4:src/pdf417/PDFDetector.c **** #include "DecodeStatus.h"
   5:src/pdf417/PDFDetector.c **** #include "BinaryBitmap.h"
   6:src/pdf417/PDFDetector.c **** #include "HybridBinarizer.h"
   7:src/pdf417/PDFDetector.c **** #include "ResultPoint.h"
   8:src/pdf417/PDFDetector.c **** #include <stdio.h>
   9:src/pdf417/PDFDetector.c **** #include <stdlib.h>
  10:src/pdf417/PDFDetector.c **** 
  11:src/pdf417/PDFDetector.c **** static const int INDEXES_START_PATTERN[] = { 0, 4, 1, 5 };
  12:src/pdf417/PDFDetector.c **** static const int INDEXES_STOP_PATTERN[] = { 6, 2, 7, 3 };
  13:src/pdf417/PDFDetector.c **** static const float MAX_AVG_VARIANCE = 0.42f;
  14:src/pdf417/PDFDetector.c **** static const float MAX_INDIVIDUAL_VARIANCE = 0.8f;
  15:src/pdf417/PDFDetector.c **** 
  16:src/pdf417/PDFDetector.c **** // B S B S B S B S Bar/Space pattern
  17:src/pdf417/PDFDetector.c **** // 11111111 0 1 0 1 0 1 000
  18:src/pdf417/PDFDetector.c **** static const int START_PATTERN[8] = { 8, 1, 1, 1, 1, 1, 1, 3 };
  19:src/pdf417/PDFDetector.c **** // 1111111 0 1 000 1 0 1 00 1
  20:src/pdf417/PDFDetector.c **** static const int STOP_PATTERN[9] = { 7, 1, 1, 3, 1, 1, 1, 2, 1 };
  21:src/pdf417/PDFDetector.c **** static const int MAX_PIXEL_DRIFT = 3;
  22:src/pdf417/PDFDetector.c **** static const int MAX_PATTERN_DRIFT = 5;
  23:src/pdf417/PDFDetector.c **** // if we set the value too low, then we don't detect the correct height of the bar if the start pat
  24:src/pdf417/PDFDetector.c **** // if we set the value too high, then we might detect the start pattern from a neighbor barcode.
  25:src/pdf417/PDFDetector.c **** static const int SKIPPED_ROW_COUNT_MAX = 25;
  26:src/pdf417/PDFDetector.c **** // A PDF471 barcode should have at least 3 rows, with each row being >= 3 times the module width. T
  27:src/pdf417/PDFDetector.c **** // 9 pixels tall. To be conservative, we use about half the size to ensure we don't miss it.
  28:src/pdf417/PDFDetector.c **** static const int ROW_STEP = 8; // used to be 5, but 8 is enough for conforming symbols
  29:src/pdf417/PDFDetector.c **** static const int BARCODE_MIN_HEIGHT = 10;
  30:src/pdf417/PDFDetector.c **** 
  31:src/pdf417/PDFDetector.c **** static ResultPoint_t Vertice_Result[8];
  32:src/pdf417/PDFDetector.c **** #define FLT_MAX          3.402823466e+38F        // max value
  33:src/pdf417/PDFDetector.c **** #if 0
  34:src/pdf417/PDFDetector.c **** PatternView FindLeftGuard(const PatternView& view, int minSize, const * pattern, float minQuiteZone
  35:src/pdf417/PDFDetector.c **** {
  36:src/pdf417/PDFDetector.c **** 	return FindLeftGuard<LEN>(view, std::max(minSize, LEN),(const PatternView& window, int spaceInPixe
  37:src/pdf417/PDFDetector.c **** 	{
  38:src/pdf417/PDFDetector.c **** 								  return IsPattern(window, pattern, spaceInPixel, minQuiteZone);
  39:src/pdf417/PDFDetector.c **** 							  });
  40:src/pdf417/PDFDetector.c **** }
GAS LISTING C:\Users\jisu8\AppData\Local\Temp\ccw96xXP.s 			page 3


  41:src/pdf417/PDFDetector.c **** #endif
  42:src/pdf417/PDFDetector.c **** static float PatternMatchVariance(const int * counters, const int * pattern,int length, float maxIn
  43:src/pdf417/PDFDetector.c **** {
  68              		.loc 1 43 1
  69              		.cfi_startproc
  70 0000 55       		pushl	%ebp
  71              	LCFI0:
  72              		.cfi_def_cfa_offset 8
  73              		.cfi_offset 5, -8
  74 0001 89E5     		movl	%esp, %ebp
  75              	LCFI1:
  76              		.cfi_def_cfa_register 5
  77 0003 83EC58   		subl	$88, %esp
  44:src/pdf417/PDFDetector.c **** 	printf("PatternMatchVariance  maxIndividualVariance = %f\n", maxIndividualVariance);
  78              		.loc 1 44 2
  79 0006 D94514   		flds	20(%ebp)
  80 0009 DD5C2404 		fstpl	4(%esp)
  81 000d C7042498 		movl	$LC0, (%esp)
  81      000000
  82 0014 E8000000 		call	_printf
  82      00
  45:src/pdf417/PDFDetector.c **** 
  46:src/pdf417/PDFDetector.c **** 	int total = 0;
  83              		.loc 1 46 6
  84 0019 C745F400 		movl	$0, -12(%ebp)
  84      000000
  47:src/pdf417/PDFDetector.c **** 	int patternLength = 0;
  85              		.loc 1 47 6
  86 0020 C745F000 		movl	$0, -16(%ebp)
  86      000000
  87              	LBB2:
  48:src/pdf417/PDFDetector.c **** 	for (size_t i = 0; i < length; i++) 
  88              		.loc 1 48 14
  89 0027 C745EC00 		movl	$0, -20(%ebp)
  89      000000
  90              		.loc 1 48 2
  91 002e EB2C     		jmp	L2
  92              	L3:
  49:src/pdf417/PDFDetector.c **** 	{
  50:src/pdf417/PDFDetector.c **** 		total += counters[i];
  93              		.loc 1 50 20 discriminator 3
  94 0030 8B45EC   		movl	-20(%ebp), %eax
  95 0033 8D148500 		leal	0(,%eax,4), %edx
  95      000000
  96 003a 8B4508   		movl	8(%ebp), %eax
  97 003d 01D0     		addl	%edx, %eax
  98 003f 8B00     		movl	(%eax), %eax
  99              		.loc 1 50 9 discriminator 3
 100 0041 0145F4   		addl	%eax, -12(%ebp)
  51:src/pdf417/PDFDetector.c **** 		patternLength += pattern[i];
 101              		.loc 1 51 27 discriminator 3
 102 0044 8B45EC   		movl	-20(%ebp), %eax
 103 0047 8D148500 		leal	0(,%eax,4), %edx
 103      000000
 104 004e 8B450C   		movl	12(%ebp), %eax
 105 0051 01D0     		addl	%edx, %eax
 106 0053 8B00     		movl	(%eax), %eax
GAS LISTING C:\Users\jisu8\AppData\Local\Temp\ccw96xXP.s 			page 4


 107              		.loc 1 51 17 discriminator 3
 108 0055 0145F0   		addl	%eax, -16(%ebp)
  48:src/pdf417/PDFDetector.c **** 	for (size_t i = 0; i < length; i++) 
 109              		.loc 1 48 34 discriminator 3
 110 0058 8345EC01 		addl	$1, -20(%ebp)
 111              	L2:
  48:src/pdf417/PDFDetector.c **** 	for (size_t i = 0; i < length; i++) 
 112              		.loc 1 48 23 discriminator 1
 113 005c 8B4510   		movl	16(%ebp), %eax
  48:src/pdf417/PDFDetector.c **** 	for (size_t i = 0; i < length; i++) 
 114              		.loc 1 48 2 discriminator 1
 115 005f 3945EC   		cmpl	%eax, -20(%ebp)
 116 0062 72CC     		jb	L3
 117              	LBE2:
  52:src/pdf417/PDFDetector.c **** 	}
  53:src/pdf417/PDFDetector.c **** 
  54:src/pdf417/PDFDetector.c **** 	if (total < patternLength) 
 118              		.loc 1 54 5
 119 0064 8B45F4   		movl	-12(%ebp), %eax
 120 0067 3B45F0   		cmpl	-16(%ebp), %eax
 121 006a 7D0B     		jge	L4
  55:src/pdf417/PDFDetector.c **** 	{
  56:src/pdf417/PDFDetector.c **** 		// If we don't even have one pixel per unit of bar width, assume this
  57:src/pdf417/PDFDetector.c **** 		// is too small to reliably match, so fail:
  58:src/pdf417/PDFDetector.c **** 		return FLT_MAX;
 122              		.loc 1 58 10
 123 006c D9056401 		flds	LC1
 123      0000
 124 0072 E9A70000 		jmp	L5
 124      00
 125              	L4:
  59:src/pdf417/PDFDetector.c **** 	}
  60:src/pdf417/PDFDetector.c **** 	// We're going to fake floating-point math in integers. We just need to use more bits.
  61:src/pdf417/PDFDetector.c **** 	// Scale up patternLength so that intermediate values below like scaledCounter will have
  62:src/pdf417/PDFDetector.c **** 	// more "significant digits".
  63:src/pdf417/PDFDetector.c **** 	float unitBarWidth = (float)total / patternLength;
 126              		.loc 1 63 23
 127 0077 DB45F4   		fildl	-12(%ebp)
 128              		.loc 1 63 36
 129 007a DB45F0   		fildl	-16(%ebp)
 130              		.loc 1 63 8
 131 007d DEF9     		fdivrp	%st, %st(1)
 132 007f D95DE0   		fstps	-32(%ebp)
  64:src/pdf417/PDFDetector.c **** 	maxIndividualVariance *= unitBarWidth;
 133              		.loc 1 64 24
 134 0082 D94514   		flds	20(%ebp)
 135 0085 D84DE0   		fmuls	-32(%ebp)
 136 0088 D95D14   		fstps	20(%ebp)
  65:src/pdf417/PDFDetector.c **** 
  66:src/pdf417/PDFDetector.c **** 	float totalVariance = 0.0f;
 137              		.loc 1 66 8
 138 008b D9EE     		fldz
 139 008d D95DE8   		fstps	-24(%ebp)
 140              	LBB3:
  67:src/pdf417/PDFDetector.c **** 	for (size_t x = 0; x < length; x++) 
 141              		.loc 1 67 14
 142 0090 C745E400 		movl	$0, -28(%ebp)
GAS LISTING C:\Users\jisu8\AppData\Local\Temp\ccw96xXP.s 			page 5


 142      000000
 143              		.loc 1 67 2
 144 0097 EB75     		jmp	L6
 145              	L12:
 146              	LBB4:
  68:src/pdf417/PDFDetector.c **** 	{
  69:src/pdf417/PDFDetector.c **** 		int counter = counters[x];
 147              		.loc 1 69 25
 148 0099 8B45E4   		movl	-28(%ebp), %eax
 149 009c 8D148500 		leal	0(,%eax,4), %edx
 149      000000
 150 00a3 8B4508   		movl	8(%ebp), %eax
 151 00a6 01D0     		addl	%edx, %eax
 152              		.loc 1 69 7
 153 00a8 8B00     		movl	(%eax), %eax
 154 00aa 8945DC   		movl	%eax, -36(%ebp)
  70:src/pdf417/PDFDetector.c **** 		float scaledPattern = pattern[x] * unitBarWidth;
 155              		.loc 1 70 32
 156 00ad 8B45E4   		movl	-28(%ebp), %eax
 157 00b0 8D148500 		leal	0(,%eax,4), %edx
 157      000000
 158 00b7 8B450C   		movl	12(%ebp), %eax
 159 00ba 01D0     		addl	%edx, %eax
 160 00bc 8B00     		movl	(%eax), %eax
 161              		.loc 1 70 36
 162 00be 8945C4   		movl	%eax, -60(%ebp)
 163 00c1 DB45C4   		fildl	-60(%ebp)
 164              		.loc 1 70 9
 165 00c4 D945E0   		flds	-32(%ebp)
 166 00c7 DEC9     		fmulp	%st, %st(1)
 167 00c9 D95DD8   		fstps	-40(%ebp)
  71:src/pdf417/PDFDetector.c **** 		float variance = counter > scaledPattern ? counter - scaledPattern : scaledPattern - counter;
 168              		.loc 1 71 28
 169 00cc DB45DC   		fildl	-36(%ebp)
 170              		.loc 1 71 70
 171 00cf D945D8   		flds	-40(%ebp)
 172 00d2 D9C9     		fxch	%st(1)
 173 00d4 DFF1     		fcomip	%st(1), %st
 174 00d6 DDD8     		fstp	%st(0)
 175 00d8 7608     		jbe	L15
 176              		.loc 1 71 54 discriminator 1
 177 00da DB45DC   		fildl	-36(%ebp)
 178              		.loc 1 71 70 discriminator 1
 179 00dd D865D8   		fsubs	-40(%ebp)
 180 00e0 EB08     		jmp	L9
 181              	L15:
 182              		.loc 1 71 86 discriminator 2
 183 00e2 DB45DC   		fildl	-36(%ebp)
 184              		.loc 1 71 70 discriminator 2
 185 00e5 D945D8   		flds	-40(%ebp)
 186 00e8 DEE1     		fsubp	%st, %st(1)
 187              	L9:
 188              		.loc 1 71 9 discriminator 4
 189 00ea D95DD4   		fstps	-44(%ebp)
  72:src/pdf417/PDFDetector.c **** 		if (variance > maxIndividualVariance) {
 190              		.loc 1 72 6 discriminator 4
 191 00ed D94514   		flds	20(%ebp)
GAS LISTING C:\Users\jisu8\AppData\Local\Temp\ccw96xXP.s 			page 6


 192 00f0 D945D4   		flds	-44(%ebp)
 193 00f3 DFF1     		fcomip	%st(1), %st
 194 00f5 DDD8     		fstp	%st(0)
 195 00f7 7608     		jbe	L16
  73:src/pdf417/PDFDetector.c **** 			return FLT_MAX;
 196              		.loc 1 73 11
 197 00f9 D9056401 		flds	LC1
 197      0000
 198 00ff EB1D     		jmp	L5
 199              	L16:
  74:src/pdf417/PDFDetector.c **** 		}
  75:src/pdf417/PDFDetector.c **** 		totalVariance += variance;
 200              		.loc 1 75 17 discriminator 2
 201 0101 D945E8   		flds	-24(%ebp)
 202 0104 D845D4   		fadds	-44(%ebp)
 203 0107 D95DE8   		fstps	-24(%ebp)
 204              	LBE4:
  67:src/pdf417/PDFDetector.c **** 	{
 205              		.loc 1 67 34 discriminator 2
 206 010a 8345E401 		addl	$1, -28(%ebp)
 207              	L6:
  67:src/pdf417/PDFDetector.c **** 	{
 208              		.loc 1 67 23 discriminator 1
 209 010e 8B4510   		movl	16(%ebp), %eax
  67:src/pdf417/PDFDetector.c **** 	{
 210              		.loc 1 67 2 discriminator 1
 211 0111 3945E4   		cmpl	%eax, -28(%ebp)
 212 0114 7283     		jb	L12
 213              	LBE3:
  76:src/pdf417/PDFDetector.c **** 	}
  77:src/pdf417/PDFDetector.c **** 
  78:src/pdf417/PDFDetector.c **** 	return totalVariance / total;
 214              		.loc 1 78 23
 215 0116 DB45F4   		fildl	-12(%ebp)
 216 0119 D945E8   		flds	-24(%ebp)
 217 011c DEF1     		fdivp	%st, %st(1)
 218              	L5:
  79:src/pdf417/PDFDetector.c **** }
 219              		.loc 1 79 1
 220 011e C9       		leave
 221              	LCFI2:
 222              		.cfi_restore 5
 223              		.cfi_def_cfa 4, 4
 224 011f C3       		ret
 225              		.cfi_endproc
 226              	LFE16:
 227              		.section .rdata,"dr"
 228 00ca 0000     		.align 4
 229              	LC4:
 230 00cc 46696E64 		.ascii "FindGuardPattern col=%d, row=%d, widht=%d, WhiteFirst=%d\12\0"
 230      47756172 
 230      64506174 
 230      7465726E 
 230      20636F6C 
 231              		.text
 233              	_FindGuardPattern:
 234              	LFB17:
GAS LISTING C:\Users\jisu8\AppData\Local\Temp\ccw96xXP.s 			page 7


  80:src/pdf417/PDFDetector.c **** 
  81:src/pdf417/PDFDetector.c **** static uint8_t FindGuardPattern(const BitMatrix_t * matrix, int column, int row, int width, uint8_t
  82:src/pdf417/PDFDetector.c **** {
 235              		.loc 1 82 1
 236              		.cfi_startproc
 237 0120 55       		pushl	%ebp
 238              	LCFI3:
 239              		.cfi_def_cfa_offset 8
 240              		.cfi_offset 5, -8
 241 0121 89E5     		movl	%esp, %ebp
 242              	LCFI4:
 243              		.cfi_def_cfa_register 5
 244 0123 83EC58   		subl	$88, %esp
 245 0126 8B4518   		movl	24(%ebp), %eax
 246 0129 8845D4   		movb	%al, -44(%ebp)
  83:src/pdf417/PDFDetector.c **** 
  84:src/pdf417/PDFDetector.c **** 	printf("FindGuardPattern col=%d, row=%d, widht=%d, WhiteFirst=%d\n", column, row, width, whiteFirs
 247              		.loc 1 84 2
 248 012c 0FB645D4 		movzbl	-44(%ebp), %eax
 249 0130 89442410 		movl	%eax, 16(%esp)
 250 0134 8B4514   		movl	20(%ebp), %eax
 251 0137 8944240C 		movl	%eax, 12(%esp)
 252 013b 8B4510   		movl	16(%ebp), %eax
 253 013e 89442408 		movl	%eax, 8(%esp)
 254 0142 8B450C   		movl	12(%ebp), %eax
 255 0145 89442404 		movl	%eax, 4(%esp)
 256 0149 C70424CC 		movl	$LC4, (%esp)
 256      000000
 257 0150 E8000000 		call	_printf
 257      00
 258              	LBB5:
  85:src/pdf417/PDFDetector.c **** 
  86:src/pdf417/PDFDetector.c **** 	for(uint8_t i=0;i<8;i++)
 259              		.loc 1 86 14
 260 0155 C645F700 		movb	$0, -9(%ebp)
 261              		.loc 1 86 2
 262 0159 EB20     		jmp	L18
 263              	L19:
  87:src/pdf417/PDFDetector.c **** 	{
  88:src/pdf417/PDFDetector.c **** 		counters[i] = 0;
 264              		.loc 1 88 11 discriminator 3
 265 015b 0FB645F7 		movzbl	-9(%ebp), %eax
 266 015f 8D148500 		leal	0(,%eax,4), %edx
 266      000000
 267 0166 8B4524   		movl	36(%ebp), %eax
 268 0169 01D0     		addl	%edx, %eax
 269              		.loc 1 88 15 discriminator 3
 270 016b C7000000 		movl	$0, (%eax)
 270      0000
  86:src/pdf417/PDFDetector.c **** 	{
 271              		.loc 1 86 23 discriminator 3
 272 0171 0FB645F7 		movzbl	-9(%ebp), %eax
 273 0175 83C001   		addl	$1, %eax
 274 0178 8845F7   		movb	%al, -9(%ebp)
 275              	L18:
  86:src/pdf417/PDFDetector.c **** 	{
 276              		.loc 1 86 2 discriminator 1
GAS LISTING C:\Users\jisu8\AppData\Local\Temp\ccw96xXP.s 			page 8


 277 017b 807DF707 		cmpb	$7, -9(%ebp)
 278 017f 76DA     		jbe	L19
 279              	LBE5:
  89:src/pdf417/PDFDetector.c **** 	}
  90:src/pdf417/PDFDetector.c **** 
  91:src/pdf417/PDFDetector.c **** 	uint8_t isWhite = whiteFirst;
 280              		.loc 1 91 10
 281 0181 0FB645D4 		movzbl	-44(%ebp), %eax
 282 0185 8845F6   		movb	%al, -10(%ebp)
  92:src/pdf417/PDFDetector.c **** 	int patternStart = column;
 283              		.loc 1 92 6
 284 0188 8B450C   		movl	12(%ebp), %eax
 285 018b 8945F0   		movl	%eax, -16(%ebp)
  93:src/pdf417/PDFDetector.c **** 	int pixelDrift = 0;
 286              		.loc 1 93 6
 287 018e C745EC00 		movl	$0, -20(%ebp)
 287      000000
  94:src/pdf417/PDFDetector.c **** 
  95:src/pdf417/PDFDetector.c **** 	// if there are black pixels left of the current pixel shift to the left, but only for MAX_PIXEL_D
  96:src/pdf417/PDFDetector.c **** 	while ((matrix->bits[(row * matrix->_width + patternStart)]) && patternStart > 0 && pixelDrift++ <
 288              		.loc 1 96 8
 289 0195 EB04     		jmp	L20
 290              	L22:
  97:src/pdf417/PDFDetector.c **** 		patternStart--;
 291              		.loc 1 97 15
 292 0197 836DF001 		subl	$1, -16(%ebp)
 293              	L20:
  96:src/pdf417/PDFDetector.c **** 		patternStart--;
 294              		.loc 1 96 16
 295 019b 8B4508   		movl	8(%ebp), %eax
 296 019e 8B500C   		movl	12(%eax), %edx
  96:src/pdf417/PDFDetector.c **** 		patternStart--;
 297              		.loc 1 96 36
 298 01a1 8B4508   		movl	8(%ebp), %eax
 299 01a4 8B00     		movl	(%eax), %eax
  96:src/pdf417/PDFDetector.c **** 		patternStart--;
 300              		.loc 1 96 28
 301 01a6 0FAF4510 		imull	16(%ebp), %eax
 302 01aa 89C1     		movl	%eax, %ecx
  96:src/pdf417/PDFDetector.c **** 		patternStart--;
 303              		.loc 1 96 45
 304 01ac 8B45F0   		movl	-16(%ebp), %eax
 305 01af 01C8     		addl	%ecx, %eax
  96:src/pdf417/PDFDetector.c **** 		patternStart--;
 306              		.loc 1 96 22
 307 01b1 01D0     		addl	%edx, %eax
 308 01b3 0FB600   		movzbl	(%eax), %eax
  96:src/pdf417/PDFDetector.c **** 		patternStart--;
 309              		.loc 1 96 8
 310 01b6 84C0     		testb	%al, %al
 311 01b8 7418     		je	L21
  96:src/pdf417/PDFDetector.c **** 		patternStart--;
 312              		.loc 1 96 63 discriminator 1
 313 01ba 837DF000 		cmpl	$0, -16(%ebp)
 314 01be 7E12     		jle	L21
  96:src/pdf417/PDFDetector.c **** 		patternStart--;
 315              		.loc 1 96 96 discriminator 2
GAS LISTING C:\Users\jisu8\AppData\Local\Temp\ccw96xXP.s 			page 9


 316 01c0 8B45EC   		movl	-20(%ebp), %eax
 317 01c3 8D5001   		leal	1(%eax), %edx
 318 01c6 8955EC   		movl	%edx, -20(%ebp)
  96:src/pdf417/PDFDetector.c **** 		patternStart--;
 319              		.loc 1 96 99 discriminator 2
 320 01c9 BA030000 		movl	$3, %edx
 320      00
  96:src/pdf417/PDFDetector.c **** 		patternStart--;
 321              		.loc 1 96 83 discriminator 2
 322 01ce 39D0     		cmpl	%edx, %eax
 323 01d0 7CC5     		jl	L22
 324              	L21:
  98:src/pdf417/PDFDetector.c **** 	}
  99:src/pdf417/PDFDetector.c **** 	int x = patternStart;
 325              		.loc 1 99 6
 326 01d2 8B45F0   		movl	-16(%ebp), %eax
 327 01d5 8945E8   		movl	%eax, -24(%ebp)
 100:src/pdf417/PDFDetector.c **** 	int counterPosition = 0;
 328              		.loc 1 100 6
 329 01d8 C745E400 		movl	$0, -28(%ebp)
 329      000000
 101:src/pdf417/PDFDetector.c **** 	for (; x < width; x++) {
 330              		.loc 1 101 2
 331 01df E9520100 		jmp	L23
 331      00
 332              	L33:
 333              	LBB6:
 102:src/pdf417/PDFDetector.c **** 		uint8_t pixel = matrix->bits[(row * matrix->_width + x)];
 334              		.loc 1 102 25
 335 01e4 8B4508   		movl	8(%ebp), %eax
 336 01e7 8B500C   		movl	12(%eax), %edx
 337              		.loc 1 102 45
 338 01ea 8B4508   		movl	8(%ebp), %eax
 339 01ed 8B00     		movl	(%eax), %eax
 340              		.loc 1 102 37
 341 01ef 0FAF4510 		imull	16(%ebp), %eax
 342 01f3 89C1     		movl	%eax, %ecx
 343              		.loc 1 102 54
 344 01f5 8B45E8   		movl	-24(%ebp), %eax
 345 01f8 01C8     		addl	%ecx, %eax
 346              		.loc 1 102 31
 347 01fa 01D0     		addl	%edx, %eax
 348              		.loc 1 102 11
 349 01fc 0FB600   		movzbl	(%eax), %eax
 350 01ff 8845E2   		movb	%al, -30(%ebp)
 103:src/pdf417/PDFDetector.c **** 		if (pixel != isWhite) {
 351              		.loc 1 103 6
 352 0202 0FB645E2 		movzbl	-30(%ebp), %eax
 353 0206 3A45F6   		cmpb	-10(%ebp), %al
 354 0209 741B     		je	L24
 104:src/pdf417/PDFDetector.c **** 			counters[counterPosition]++;
 355              		.loc 1 104 12
 356 020b 8B45E4   		movl	-28(%ebp), %eax
 357 020e 8D148500 		leal	0(,%eax,4), %edx
 357      000000
 358 0215 8B4524   		movl	36(%ebp), %eax
 359 0218 01D0     		addl	%edx, %eax
GAS LISTING C:\Users\jisu8\AppData\Local\Temp\ccw96xXP.s 			page 10


 360 021a 8B10     		movl	(%eax), %edx
 361              		.loc 1 104 29
 362 021c 83C201   		addl	$1, %edx
 363 021f 8910     		movl	%edx, (%eax)
 364 0221 E90C0100 		jmp	L25
 364      00
 365              	L24:
 105:src/pdf417/PDFDetector.c **** 		}
 106:src/pdf417/PDFDetector.c **** 		else {
 107:src/pdf417/PDFDetector.c **** 			if (counterPosition == patternLength - 1) {
 366              		.loc 1 107 41
 367 0226 8B4520   		movl	32(%ebp), %eax
 368 0229 83E801   		subl	$1, %eax
 369              		.loc 1 107 7
 370 022c 3945E4   		cmpl	%eax, -28(%ebp)
 371 022f 0F85DA00 		jne	L26
 371      0000
 108:src/pdf417/PDFDetector.c **** 				if (PatternMatchVariance(counters, pattern,patternLength, MAX_INDIVIDUAL_VARIANCE) < MAX_AVG_VA
 372              		.loc 1 108 9
 373 0235 D9056801 		flds	LC5
 373      0000
 374 023b D95C240C 		fstps	12(%esp)
 375 023f 8B4520   		movl	32(%ebp), %eax
 376 0242 89442408 		movl	%eax, 8(%esp)
 377 0246 8B451C   		movl	28(%ebp), %eax
 378 0249 89442404 		movl	%eax, 4(%esp)
 379 024d 8B4524   		movl	36(%ebp), %eax
 380 0250 890424   		movl	%eax, (%esp)
 381 0253 E8A8FDFF 		call	_PatternMatchVariance
 381      FF
 382              		.loc 1 108 88
 383 0258 D9056C01 		flds	LC6
 383      0000
 384              		.loc 1 108 8
 385 025e DFF1     		fcomip	%st(1), %st
 386 0260 DDD8     		fstp	%st(0)
 387 0262 761A     		jbe	L38
 109:src/pdf417/PDFDetector.c **** 					*startPos = patternStart;
 388              		.loc 1 109 16
 389 0264 8B4528   		movl	40(%ebp), %eax
 390 0267 8B55F0   		movl	-16(%ebp), %edx
 391 026a 8910     		movl	%edx, (%eax)
 110:src/pdf417/PDFDetector.c **** 					*endPos = x;
 392              		.loc 1 110 14
 393 026c 8B452C   		movl	44(%ebp), %eax
 394 026f 8B55E8   		movl	-24(%ebp), %edx
 395 0272 8910     		movl	%edx, (%eax)
 111:src/pdf417/PDFDetector.c **** 					return 1;
 396              		.loc 1 111 13
 397 0274 B8010000 		movl	$1, %eax
 397      00
 398 0279 E91D0100 		jmp	L29
 398      00
 399              	L38:
 112:src/pdf417/PDFDetector.c **** 				}
 113:src/pdf417/PDFDetector.c **** 				patternStart += counters[0] + counters[1];
 400              		.loc 1 113 29
GAS LISTING C:\Users\jisu8\AppData\Local\Temp\ccw96xXP.s 			page 11


 401 027e 8B4524   		movl	36(%ebp), %eax
 402 0281 8B10     		movl	(%eax), %edx
 403              		.loc 1 113 43
 404 0283 8B4524   		movl	36(%ebp), %eax
 405 0286 83C004   		addl	$4, %eax
 406 0289 8B00     		movl	(%eax), %eax
 407              		.loc 1 113 33
 408 028b 01D0     		addl	%edx, %eax
 409              		.loc 1 113 18
 410 028d 0145F0   		addl	%eax, -16(%ebp)
 411              	LBB7:
 114:src/pdf417/PDFDetector.c **** 				for(uint8_t i=0;i<(patternLength-2);i++)
 412              		.loc 1 114 17
 413 0290 C645E300 		movb	$0, -29(%ebp)
 414              		.loc 1 114 5
 415 0294 EB31     		jmp	L30
 416              	L31:
 115:src/pdf417/PDFDetector.c **** 				{
 116:src/pdf417/PDFDetector.c **** 					counters[i] = counters[2+i];
 417              		.loc 1 116 30 discriminator 3
 418 0296 0FB645E3 		movzbl	-29(%ebp), %eax
 419 029a 83C002   		addl	$2, %eax
 420              		.loc 1 116 28 discriminator 3
 421 029d 8D148500 		leal	0(,%eax,4), %edx
 421      000000
 422 02a4 8B4524   		movl	36(%ebp), %eax
 423 02a7 01D0     		addl	%edx, %eax
 424              		.loc 1 116 14 discriminator 3
 425 02a9 0FB655E3 		movzbl	-29(%ebp), %edx
 426 02ad 8D0C9500 		leal	0(,%edx,4), %ecx
 426      000000
 427 02b4 8B5524   		movl	36(%ebp), %edx
 428 02b7 01CA     		addl	%ecx, %edx
 429              		.loc 1 116 28 discriminator 3
 430 02b9 8B00     		movl	(%eax), %eax
 431              		.loc 1 116 18 discriminator 3
 432 02bb 8902     		movl	%eax, (%edx)
 114:src/pdf417/PDFDetector.c **** 				for(uint8_t i=0;i<(patternLength-2);i++)
 433              		.loc 1 114 42 discriminator 3
 434 02bd 0FB645E3 		movzbl	-29(%ebp), %eax
 435 02c1 83C001   		addl	$1, %eax
 436 02c4 8845E3   		movb	%al, -29(%ebp)
 437              	L30:
 114:src/pdf417/PDFDetector.c **** 				for(uint8_t i=0;i<(patternLength-2);i++)
 438              		.loc 1 114 22 discriminator 1
 439 02c7 0FB645E3 		movzbl	-29(%ebp), %eax
 114:src/pdf417/PDFDetector.c **** 				for(uint8_t i=0;i<(patternLength-2);i++)
 440              		.loc 1 114 37 discriminator 1
 441 02cb 8B5520   		movl	32(%ebp), %edx
 442 02ce 83EA02   		subl	$2, %edx
 114:src/pdf417/PDFDetector.c **** 				for(uint8_t i=0;i<(patternLength-2);i++)
 443              		.loc 1 114 5 discriminator 1
 444 02d1 39D0     		cmpl	%edx, %eax
 445 02d3 7CC1     		jl	L31
 446              	LBE7:
 117:src/pdf417/PDFDetector.c **** 				}
 118:src/pdf417/PDFDetector.c **** 				counters[patternLength - 2] = 0;
GAS LISTING C:\Users\jisu8\AppData\Local\Temp\ccw96xXP.s 			page 12


 447              		.loc 1 118 13
 448 02d5 8B4520   		movl	32(%ebp), %eax
 449 02d8 05FEFFFF 		addl	$1073741822, %eax
 449      3F
 450 02dd 8D148500 		leal	0(,%eax,4), %edx
 450      000000
 451 02e4 8B4524   		movl	36(%ebp), %eax
 452 02e7 01D0     		addl	%edx, %eax
 453              		.loc 1 118 33
 454 02e9 C7000000 		movl	$0, (%eax)
 454      0000
 119:src/pdf417/PDFDetector.c **** 				counters[patternLength - 1] = 0;
 455              		.loc 1 119 13
 456 02ef 8B4520   		movl	32(%ebp), %eax
 457 02f2 05FFFFFF 		addl	$1073741823, %eax
 457      3F
 458 02f7 8D148500 		leal	0(,%eax,4), %edx
 458      000000
 459 02fe 8B4524   		movl	36(%ebp), %eax
 460 0301 01D0     		addl	%edx, %eax
 461              		.loc 1 119 33
 462 0303 C7000000 		movl	$0, (%eax)
 462      0000
 120:src/pdf417/PDFDetector.c **** 				counterPosition--;
 463              		.loc 1 120 20
 464 0309 836DE401 		subl	$1, -28(%ebp)
 465 030d EB04     		jmp	L32
 466              	L26:
 121:src/pdf417/PDFDetector.c **** 			}
 122:src/pdf417/PDFDetector.c **** 			else {
 123:src/pdf417/PDFDetector.c **** 				counterPosition++;
 467              		.loc 1 123 20
 468 030f 8345E401 		addl	$1, -28(%ebp)
 469              	L32:
 124:src/pdf417/PDFDetector.c **** 			}
 125:src/pdf417/PDFDetector.c **** 			counters[counterPosition] = 1;
 470              		.loc 1 125 12
 471 0313 8B45E4   		movl	-28(%ebp), %eax
 472 0316 8D148500 		leal	0(,%eax,4), %edx
 472      000000
 473 031d 8B4524   		movl	36(%ebp), %eax
 474 0320 01D0     		addl	%edx, %eax
 475              		.loc 1 125 30
 476 0322 C7000100 		movl	$1, (%eax)
 476      0000
 126:src/pdf417/PDFDetector.c **** 			isWhite = !isWhite;
 477              		.loc 1 126 14
 478 0328 807DF600 		cmpb	$0, -10(%ebp)
 479 032c 0F94C0   		sete	%al
 480              		.loc 1 126 12
 481 032f 8845F6   		movb	%al, -10(%ebp)
 482              	L25:
 483              	LBE6:
 101:src/pdf417/PDFDetector.c **** 		uint8_t pixel = matrix->bits[(row * matrix->_width + x)];
 484              		.loc 1 101 21
 485 0332 8345E801 		addl	$1, -24(%ebp)
 486              	L23:
GAS LISTING C:\Users\jisu8\AppData\Local\Temp\ccw96xXP.s 			page 13


 101:src/pdf417/PDFDetector.c **** 		uint8_t pixel = matrix->bits[(row * matrix->_width + x)];
 487              		.loc 1 101 2 discriminator 1
 488 0336 8B45E8   		movl	-24(%ebp), %eax
 489 0339 3B4514   		cmpl	20(%ebp), %eax
 490 033c 0F8CA2FE 		jl	L33
 490      FFFF
 127:src/pdf417/PDFDetector.c **** 		}
 128:src/pdf417/PDFDetector.c **** 	}
 129:src/pdf417/PDFDetector.c **** 	if (counterPosition == patternLength - 1) {
 491              		.loc 1 129 39
 492 0342 8B4520   		movl	32(%ebp), %eax
 493 0345 83E801   		subl	$1, %eax
 494              		.loc 1 129 5
 495 0348 3945E4   		cmpl	%eax, -28(%ebp)
 496 034b 7549     		jne	L34
 130:src/pdf417/PDFDetector.c **** 		if (PatternMatchVariance(counters, pattern,patternLength, MAX_INDIVIDUAL_VARIANCE) < MAX_AVG_VARI
 497              		.loc 1 130 7
 498 034d D9056801 		flds	LC5
 498      0000
 499 0353 D95C240C 		fstps	12(%esp)
 500 0357 8B4520   		movl	32(%ebp), %eax
 501 035a 89442408 		movl	%eax, 8(%esp)
 502 035e 8B451C   		movl	28(%ebp), %eax
 503 0361 89442404 		movl	%eax, 4(%esp)
 504 0365 8B4524   		movl	36(%ebp), %eax
 505 0368 890424   		movl	%eax, (%esp)
 506 036b E890FCFF 		call	_PatternMatchVariance
 506      FF
 507              		.loc 1 130 86
 508 0370 D9056C01 		flds	LC6
 508      0000
 509              		.loc 1 130 6
 510 0376 DFF1     		fcomip	%st(1), %st
 511 0378 DDD8     		fstp	%st(0)
 512 037a 761A     		jbe	L34
 131:src/pdf417/PDFDetector.c **** 			*startPos = patternStart;
 513              		.loc 1 131 14
 514 037c 8B4528   		movl	40(%ebp), %eax
 515 037f 8B55F0   		movl	-16(%ebp), %edx
 516 0382 8910     		movl	%edx, (%eax)
 132:src/pdf417/PDFDetector.c **** 			*endPos = x - 1;
 517              		.loc 1 132 16
 518 0384 8B45E8   		movl	-24(%ebp), %eax
 519 0387 8D50FF   		leal	-1(%eax), %edx
 520              		.loc 1 132 12
 521 038a 8B452C   		movl	44(%ebp), %eax
 522 038d 8910     		movl	%edx, (%eax)
 133:src/pdf417/PDFDetector.c **** 			return 1;
 523              		.loc 1 133 11
 524 038f B8010000 		movl	$1, %eax
 524      00
 525 0394 EB05     		jmp	L29
 526              	L34:
 134:src/pdf417/PDFDetector.c **** 		}
 135:src/pdf417/PDFDetector.c **** 	}
 136:src/pdf417/PDFDetector.c **** 	return 0;
 527              		.loc 1 136 9
GAS LISTING C:\Users\jisu8\AppData\Local\Temp\ccw96xXP.s 			page 14


 528 0396 B8000000 		movl	$0, %eax
 528      00
 529              	L29:
 137:src/pdf417/PDFDetector.c **** }
 530              		.loc 1 137 1
 531 039b C9       		leave
 532              	LCFI5:
 533              		.cfi_restore 5
 534              		.cfi_def_cfa 4, 4
 535 039c C3       		ret
 536              		.cfi_endproc
 537              	LFE17:
 538              		.section .rdata,"dr"
 539 0106 0000     		.align 4
 540              	LC7:
 541 0108 46696E64 		.ascii "FindRowsWithPattern startRow= %d \12\0"
 541      526F7773 
 541      57697468 
 541      50617474 
 541      65726E20 
 542              		.text
 544              	_FindRowsWithPattern:
 545              	LFB18:
 138:src/pdf417/PDFDetector.c **** 
 139:src/pdf417/PDFDetector.c **** static uint8_t * FindRowsWithPattern(const BitMatrix_t * matrix, int height, int width, int startRo
 140:src/pdf417/PDFDetector.c **** {
 546              		.loc 1 140 1
 547              		.cfi_startproc
 548 039d 55       		pushl	%ebp
 549              	LCFI6:
 550              		.cfi_def_cfa_offset 8
 551              		.cfi_offset 5, -8
 552 039e 89E5     		movl	%esp, %ebp
 553              	LCFI7:
 554              		.cfi_def_cfa_register 5
 555 03a0 53       		pushl	%ebx
 556 03a1 83EC74   		subl	$116, %esp
 557              		.cfi_offset 3, -12
 558              		.loc 1 140 1
 559 03a4 89E0     		movl	%esp, %eax
 560 03a6 89C3     		movl	%eax, %ebx
 141:src/pdf417/PDFDetector.c **** 
 142:src/pdf417/PDFDetector.c **** 	printf("FindRowsWithPattern startRow= %d \n",startRow);
 561              		.loc 1 142 2
 562 03a8 8B4514   		movl	20(%ebp), %eax
 563 03ab 89442404 		movl	%eax, 4(%esp)
 564 03af C7042408 		movl	$LC7, (%esp)
 564      010000
 565 03b6 E8000000 		call	_printf
 565      00
 143:src/pdf417/PDFDetector.c **** 
 144:src/pdf417/PDFDetector.c **** 	uint8_t found = 0;
 566              		.loc 1 144 10
 567 03bb C645F700 		movb	$0, -9(%ebp)
 145:src/pdf417/PDFDetector.c **** 	int startPos, endPos;
 146:src/pdf417/PDFDetector.c **** 
 147:src/pdf417/PDFDetector.c **** 	int counters[patternlength];
GAS LISTING C:\Users\jisu8\AppData\Local\Temp\ccw96xXP.s 			page 15


 568              		.loc 1 147 2
 569 03bf 8B4520   		movl	32(%ebp), %eax
 570              		.loc 1 147 6
 571 03c2 8D50FF   		leal	-1(%eax), %edx
 572 03c5 8955DC   		movl	%edx, -36(%ebp)
 573 03c8 8D148500 		leal	0(,%eax,4), %edx
 573      000000
 574 03cf B8100000 		movl	$16, %eax
 574      00
 575 03d4 83E801   		subl	$1, %eax
 576 03d7 01D0     		addl	%edx, %eax
 577 03d9 B9100000 		movl	$16, %ecx
 577      00
 578 03de BA000000 		movl	$0, %edx
 578      00
 579 03e3 F7F1     		divl	%ecx
 580 03e5 6BC010   		imull	$16, %eax, %eax
 581 03e8 E8000000 		call	___chkstk_ms
 581      00
 582 03ed 29C4     		subl	%eax, %esp
 583 03ef 8D442428 		leal	40(%esp), %eax
 584 03f3 83C003   		addl	$3, %eax
 585 03f6 C1E802   		shrl	$2, %eax
 586 03f9 C1E002   		sall	$2, %eax
 587 03fc 8945D8   		movl	%eax, -40(%ebp)
 148:src/pdf417/PDFDetector.c **** 	for (; startRow < height; startRow += ROW_STEP) {
 588              		.loc 1 148 2
 589 03ff E9070100 		jmp	L40
 589      00
 590              	L46:
 149:src/pdf417/PDFDetector.c **** 		if (FindGuardPattern(matrix, startColumn, startRow, width, 0, pattern,patternlength, counters, &s
 591              		.loc 1 149 7
 592 0404 8B45D8   		movl	-40(%ebp), %eax
 593 0407 8D55D0   		leal	-48(%ebp), %edx
 594 040a 89542424 		movl	%edx, 36(%esp)
 595 040e 8D55D4   		leal	-44(%ebp), %edx
 596 0411 89542420 		movl	%edx, 32(%esp)
 597 0415 8944241C 		movl	%eax, 28(%esp)
 598 0419 8B4520   		movl	32(%ebp), %eax
 599 041c 89442418 		movl	%eax, 24(%esp)
 600 0420 8B451C   		movl	28(%ebp), %eax
 601 0423 89442414 		movl	%eax, 20(%esp)
 602 0427 C7442410 		movl	$0, 16(%esp)
 602      00000000 
 603 042f 8B4510   		movl	16(%ebp), %eax
 604 0432 8944240C 		movl	%eax, 12(%esp)
 605 0436 8B4514   		movl	20(%ebp), %eax
 606 0439 89442408 		movl	%eax, 8(%esp)
 607 043d 8B4518   		movl	24(%ebp), %eax
 608 0440 89442404 		movl	%eax, 4(%esp)
 609 0444 8B4508   		movl	8(%ebp), %eax
 610 0447 890424   		movl	%eax, (%esp)
 611 044a E8D1FCFF 		call	_FindGuardPattern
 611      FF
 612              		.loc 1 149 6
 613 044f 84C0     		testb	%al, %al
 614 0451 0F84AC00 		je	L41
GAS LISTING C:\Users\jisu8\AppData\Local\Temp\ccw96xXP.s 			page 16


 614      0000
 150:src/pdf417/PDFDetector.c **** 			while (startRow > 0) {
 615              		.loc 1 150 10
 616 0457 EB59     		jmp	L42
 617              	L44:
 151:src/pdf417/PDFDetector.c **** 				if (!FindGuardPattern(matrix, startColumn, --startRow, width, 0, pattern,patternlength, counter
 618              		.loc 1 151 10
 619 0459 8B45D8   		movl	-40(%ebp), %eax
 620              		.loc 1 151 8
 621 045c 836D1401 		subl	$1, 20(%ebp)
 622              		.loc 1 151 10
 623 0460 8D55D0   		leal	-48(%ebp), %edx
 624 0463 89542424 		movl	%edx, 36(%esp)
 625 0467 8D55D4   		leal	-44(%ebp), %edx
 626 046a 89542420 		movl	%edx, 32(%esp)
 627 046e 8944241C 		movl	%eax, 28(%esp)
 628 0472 8B4520   		movl	32(%ebp), %eax
 629 0475 89442418 		movl	%eax, 24(%esp)
 630 0479 8B451C   		movl	28(%ebp), %eax
 631 047c 89442414 		movl	%eax, 20(%esp)
 632 0480 C7442410 		movl	$0, 16(%esp)
 632      00000000 
 633 0488 8B4510   		movl	16(%ebp), %eax
 634 048b 8944240C 		movl	%eax, 12(%esp)
 635 048f 8B4514   		movl	20(%ebp), %eax
 636 0492 89442408 		movl	%eax, 8(%esp)
 637 0496 8B4518   		movl	24(%ebp), %eax
 638 0499 89442404 		movl	%eax, 4(%esp)
 639 049d 8B4508   		movl	8(%ebp), %eax
 640 04a0 890424   		movl	%eax, (%esp)
 641 04a3 E878FCFF 		call	_FindGuardPattern
 641      FF
 642              		.loc 1 151 8
 643 04a8 84C0     		testb	%al, %al
 644 04aa 7506     		jne	L42
 152:src/pdf417/PDFDetector.c **** 					startRow++;
 645              		.loc 1 152 14
 646 04ac 83451401 		addl	$1, 20(%ebp)
 153:src/pdf417/PDFDetector.c **** 					break;
 647              		.loc 1 153 6
 648 04b0 EB06     		jmp	L43
 649              	L42:
 150:src/pdf417/PDFDetector.c **** 				if (!FindGuardPattern(matrix, startColumn, --startRow, width, 0, pattern,patternlength, counter
 650              		.loc 1 150 10
 651 04b2 837D1400 		cmpl	$0, 20(%ebp)
 652 04b6 7FA1     		jg	L44
 653              	L43:
 154:src/pdf417/PDFDetector.c **** 				}
 155:src/pdf417/PDFDetector.c **** 			}
 156:src/pdf417/PDFDetector.c **** 			result[0].m_hasValue = 1;
 654              		.loc 1 156 25
 655 04b8 8B4524   		movl	36(%ebp), %eax
 656 04bb C60001   		movb	$1, (%eax)
 157:src/pdf417/PDFDetector.c **** 			result[0].m_value.x = startPos;
 657              		.loc 1 157 24
 658 04be 8B45D4   		movl	-44(%ebp), %eax
 659 04c1 8945C0   		movl	%eax, -64(%ebp)
GAS LISTING C:\Users\jisu8\AppData\Local\Temp\ccw96xXP.s 			page 17


 660 04c4 DB45C0   		fildl	-64(%ebp)
 661 04c7 8B4524   		movl	36(%ebp), %eax
 662 04ca D95804   		fstps	4(%eax)
 158:src/pdf417/PDFDetector.c **** 			result[0].m_value.y = startRow;
 663              		.loc 1 158 24
 664 04cd DB4514   		fildl	20(%ebp)
 665 04d0 8B4524   		movl	36(%ebp), %eax
 666 04d3 D95808   		fstps	8(%eax)
 159:src/pdf417/PDFDetector.c **** 			result[1].m_hasValue = 1;
 667              		.loc 1 159 10
 668 04d6 8B4524   		movl	36(%ebp), %eax
 669 04d9 83C00C   		addl	$12, %eax
 670              		.loc 1 159 25
 671 04dc C60001   		movb	$1, (%eax)
 160:src/pdf417/PDFDetector.c **** 			result[1].m_value.x = endPos;
 672              		.loc 1 160 24
 673 04df 8B55D0   		movl	-48(%ebp), %edx
 674              		.loc 1 160 10
 675 04e2 8B4524   		movl	36(%ebp), %eax
 676 04e5 83C00C   		addl	$12, %eax
 677              		.loc 1 160 24
 678 04e8 8955C0   		movl	%edx, -64(%ebp)
 679 04eb DB45C0   		fildl	-64(%ebp)
 680 04ee D95804   		fstps	4(%eax)
 161:src/pdf417/PDFDetector.c **** 			result[1].m_value.y = startRow;
 681              		.loc 1 161 10
 682 04f1 8B4524   		movl	36(%ebp), %eax
 683 04f4 83C00C   		addl	$12, %eax
 684              		.loc 1 161 24
 685 04f7 DB4514   		fildl	20(%ebp)
 686 04fa D95808   		fstps	8(%eax)
 162:src/pdf417/PDFDetector.c **** 			found = 1;
 687              		.loc 1 162 10
 688 04fd C645F701 		movb	$1, -9(%ebp)
 163:src/pdf417/PDFDetector.c **** 			break;
 689              		.loc 1 163 4
 690 0501 EB14     		jmp	L45
 691              	L41:
 148:src/pdf417/PDFDetector.c **** 		if (FindGuardPattern(matrix, startColumn, startRow, width, 0, pattern,patternlength, counters, &s
 692              		.loc 1 148 37
 693 0503 B8080000 		movl	$8, %eax
 693      00
 694 0508 014514   		addl	%eax, 20(%ebp)
 695              	L40:
 148:src/pdf417/PDFDetector.c **** 		if (FindGuardPattern(matrix, startColumn, startRow, width, 0, pattern,patternlength, counters, &s
 696              		.loc 1 148 2 discriminator 1
 697 050b 8B4514   		movl	20(%ebp), %eax
 698 050e 3B450C   		cmpl	12(%ebp), %eax
 699 0511 0F8CEDFE 		jl	L46
 699      FFFF
 700              	L45:
 164:src/pdf417/PDFDetector.c **** 		}
 165:src/pdf417/PDFDetector.c **** 	}
 166:src/pdf417/PDFDetector.c **** 	int stopRow = startRow + 1;
 701              		.loc 1 166 6
 702 0517 8B4514   		movl	20(%ebp), %eax
 703 051a 83C001   		addl	$1, %eax
GAS LISTING C:\Users\jisu8\AppData\Local\Temp\ccw96xXP.s 			page 18


 704 051d 8945F0   		movl	%eax, -16(%ebp)
 167:src/pdf417/PDFDetector.c **** 	// Last row of the current symbol that contains pattern
 168:src/pdf417/PDFDetector.c **** 	if (found) {
 705              		.loc 1 168 5
 706 0520 807DF700 		cmpb	$0, -9(%ebp)
 707 0524 0F844001 		je	L47
 707      0000
 708              	LBB8:
 169:src/pdf417/PDFDetector.c **** 		int skippedRowCount = 0;
 709              		.loc 1 169 7
 710 052a C745EC00 		movl	$0, -20(%ebp)
 710      000000
 170:src/pdf417/PDFDetector.c **** 		int previousRowStart = (int)(result[0].m_value.x);
 711              		.loc 1 170 49
 712 0531 8B4524   		movl	36(%ebp), %eax
 713 0534 D94004   		flds	4(%eax)
 714              		.loc 1 170 7
 715 0537 D97DC6   		fnstcw	-58(%ebp)
 716 053a 0FB745C6 		movzwl	-58(%ebp), %eax
 717 053e 80CC0C   		orb	$12, %ah
 718 0541 668945C4 		movw	%ax, -60(%ebp)
 719 0545 D96DC4   		fldcw	-60(%ebp)
 720 0548 DB5DE8   		fistpl	-24(%ebp)
 721 054b D96DC6   		fldcw	-58(%ebp)
 171:src/pdf417/PDFDetector.c **** 		int previousRowEnd = (int)(result[1].m_value.x);
 722              		.loc 1 171 36
 723 054e 8B4524   		movl	36(%ebp), %eax
 724 0551 83C00C   		addl	$12, %eax
 725              		.loc 1 171 47
 726 0554 D94004   		flds	4(%eax)
 727              		.loc 1 171 7
 728 0557 D96DC4   		fldcw	-60(%ebp)
 729 055a DB5DE4   		fistpl	-28(%ebp)
 730 055d D96DC6   		fldcw	-58(%ebp)
 172:src/pdf417/PDFDetector.c **** 		for (; stopRow < height; stopRow++) {
 731              		.loc 1 172 3
 732 0560 E9AB0000 		jmp	L48
 732      00
 733              	L53:
 734              	LBB9:
 173:src/pdf417/PDFDetector.c **** 			int startPos, endPos;
 174:src/pdf417/PDFDetector.c **** 			found = FindGuardPattern(matrix, previousRowStart, stopRow, width, 0, pattern,patternlength, cou
 735              		.loc 1 174 12
 736 0565 8B45D8   		movl	-40(%ebp), %eax
 737 0568 8D55C8   		leal	-56(%ebp), %edx
 738 056b 89542424 		movl	%edx, 36(%esp)
 739 056f 8D55CC   		leal	-52(%ebp), %edx
 740 0572 89542420 		movl	%edx, 32(%esp)
 741 0576 8944241C 		movl	%eax, 28(%esp)
 742 057a 8B4520   		movl	32(%ebp), %eax
 743 057d 89442418 		movl	%eax, 24(%esp)
 744 0581 8B451C   		movl	28(%ebp), %eax
 745 0584 89442414 		movl	%eax, 20(%esp)
 746 0588 C7442410 		movl	$0, 16(%esp)
 746      00000000 
 747 0590 8B4510   		movl	16(%ebp), %eax
 748 0593 8944240C 		movl	%eax, 12(%esp)
GAS LISTING C:\Users\jisu8\AppData\Local\Temp\ccw96xXP.s 			page 19


 749 0597 8B45F0   		movl	-16(%ebp), %eax
 750 059a 89442408 		movl	%eax, 8(%esp)
 751 059e 8B45E8   		movl	-24(%ebp), %eax
 752 05a1 89442404 		movl	%eax, 4(%esp)
 753 05a5 8B4508   		movl	8(%ebp), %eax
 754 05a8 890424   		movl	%eax, (%esp)
 755 05ab E870FBFF 		call	_FindGuardPattern
 755      FF
 756 05b0 8845F7   		movb	%al, -9(%ebp)
 175:src/pdf417/PDFDetector.c **** 			// a found pattern is only considered to belong to the same barcode if the start and end positio
 176:src/pdf417/PDFDetector.c **** 			// don't differ too much. Pattern drift should be not bigger than two for consecutive rows. With
 177:src/pdf417/PDFDetector.c **** 			// a higher number of skipped rows drift could be larger. To keep it simple for now, we allow a 
 178:src/pdf417/PDFDetector.c **** 			// larger drift and don't check for skipped rows.
 179:src/pdf417/PDFDetector.c **** 			if (found && abs(previousRowStart - startPos) < MAX_PATTERN_DRIFT && abs(previousRowEnd - endPos
 757              		.loc 1 179 7
 758 05b3 807DF700 		cmpb	$0, -9(%ebp)
 759 05b7 7445     		je	L49
 760              		.loc 1 179 38 discriminator 1
 761 05b9 8B45CC   		movl	-52(%ebp), %eax
 762 05bc 8B55E8   		movl	-24(%ebp), %edx
 763 05bf 29C2     		subl	%eax, %edx
 764 05c1 89D0     		movl	%edx, %eax
 765              		.loc 1 179 17 discriminator 1
 766 05c3 99       		cltd
 767 05c4 31D0     		xorl	%edx, %eax
 768 05c6 29D0     		subl	%edx, %eax
 769              		.loc 1 179 50 discriminator 1
 770 05c8 BA050000 		movl	$5, %edx
 770      00
 771              		.loc 1 179 14 discriminator 1
 772 05cd 39D0     		cmpl	%edx, %eax
 773 05cf 7D2D     		jge	L49
 774              		.loc 1 179 92 discriminator 2
 775 05d1 8B45C8   		movl	-56(%ebp), %eax
 776 05d4 8B55E4   		movl	-28(%ebp), %edx
 777 05d7 29C2     		subl	%eax, %edx
 778 05d9 89D0     		movl	%edx, %eax
 779              		.loc 1 179 73 discriminator 2
 780 05db 99       		cltd
 781 05dc 31D0     		xorl	%edx, %eax
 782 05de 29D0     		subl	%edx, %eax
 783              		.loc 1 179 102 discriminator 2
 784 05e0 BA050000 		movl	$5, %edx
 784      00
 785              		.loc 1 179 70 discriminator 2
 786 05e5 39D0     		cmpl	%edx, %eax
 787 05e7 7D15     		jge	L49
 180:src/pdf417/PDFDetector.c **** 				previousRowStart = startPos;
 788              		.loc 1 180 22
 789 05e9 8B45CC   		movl	-52(%ebp), %eax
 790 05ec 8945E8   		movl	%eax, -24(%ebp)
 181:src/pdf417/PDFDetector.c **** 				previousRowEnd = endPos;
 791              		.loc 1 181 20
 792 05ef 8B45C8   		movl	-56(%ebp), %eax
 793 05f2 8945E4   		movl	%eax, -28(%ebp)
 182:src/pdf417/PDFDetector.c **** 				skippedRowCount = 0;
 794              		.loc 1 182 21
GAS LISTING C:\Users\jisu8\AppData\Local\Temp\ccw96xXP.s 			page 20


 795 05f5 C745EC00 		movl	$0, -20(%ebp)
 795      000000
 796 05fc EB0E     		jmp	L50
 797              	L49:
 183:src/pdf417/PDFDetector.c **** 			}
 184:src/pdf417/PDFDetector.c **** 			else if (skippedRowCount > SKIPPED_ROW_COUNT_MAX) {
 798              		.loc 1 184 29
 799 05fe B8190000 		movl	$25, %eax
 799      00
 800              		.loc 1 184 12
 801 0603 3945EC   		cmpl	%eax, -20(%ebp)
 802 0606 7F16     		jg	L58
 185:src/pdf417/PDFDetector.c **** 				break;
 186:src/pdf417/PDFDetector.c **** 			}
 187:src/pdf417/PDFDetector.c **** 			else {
 188:src/pdf417/PDFDetector.c **** 				skippedRowCount++;
 803              		.loc 1 188 20
 804 0608 8345EC01 		addl	$1, -20(%ebp)
 805              	L50:
 806              	LBE9:
 172:src/pdf417/PDFDetector.c **** 			int startPos, endPos;
 807              		.loc 1 172 35
 808 060c 8345F001 		addl	$1, -16(%ebp)
 809              	L48:
 172:src/pdf417/PDFDetector.c **** 			int startPos, endPos;
 810              		.loc 1 172 3 discriminator 1
 811 0610 8B45F0   		movl	-16(%ebp), %eax
 812 0613 3B450C   		cmpl	12(%ebp), %eax
 813 0616 0F8C49FF 		jl	L53
 813      FFFF
 814 061c EB01     		jmp	L52
 815              	L58:
 816              	LBB10:
 185:src/pdf417/PDFDetector.c **** 				break;
 817              		.loc 1 185 5
 818 061e 90       		nop
 819              	L52:
 820              	LBE10:
 189:src/pdf417/PDFDetector.c **** 			}
 190:src/pdf417/PDFDetector.c **** 		}
 191:src/pdf417/PDFDetector.c **** 		stopRow -= skippedRowCount + 1;
 821              		.loc 1 191 30
 822 061f 8B45EC   		movl	-20(%ebp), %eax
 823 0622 83C001   		addl	$1, %eax
 824              		.loc 1 191 11
 825 0625 2945F0   		subl	%eax, -16(%ebp)
 192:src/pdf417/PDFDetector.c **** 		result[2].m_hasValue = 1;
 826              		.loc 1 192 9
 827 0628 8B4524   		movl	36(%ebp), %eax
 828 062b 83C018   		addl	$24, %eax
 829              		.loc 1 192 24
 830 062e C60001   		movb	$1, (%eax)
 193:src/pdf417/PDFDetector.c **** 		result[2].m_value.x = previousRowStart;
 831              		.loc 1 193 9
 832 0631 8B4524   		movl	36(%ebp), %eax
 833 0634 83C018   		addl	$24, %eax
 834              		.loc 1 193 23
GAS LISTING C:\Users\jisu8\AppData\Local\Temp\ccw96xXP.s 			page 21


 835 0637 DB45E8   		fildl	-24(%ebp)
 836 063a D95804   		fstps	4(%eax)
 194:src/pdf417/PDFDetector.c **** 		result[2].m_value.y = stopRow;
 837              		.loc 1 194 9
 838 063d 8B4524   		movl	36(%ebp), %eax
 839 0640 83C018   		addl	$24, %eax
 840              		.loc 1 194 23
 841 0643 DB45F0   		fildl	-16(%ebp)
 842 0646 D95808   		fstps	8(%eax)
 195:src/pdf417/PDFDetector.c **** 		result[3].m_hasValue = 1;
 843              		.loc 1 195 9
 844 0649 8B4524   		movl	36(%ebp), %eax
 845 064c 83C024   		addl	$36, %eax
 846              		.loc 1 195 24
 847 064f C60001   		movb	$1, (%eax)
 196:src/pdf417/PDFDetector.c **** 		result[3].m_value.x = previousRowEnd;
 848              		.loc 1 196 9
 849 0652 8B4524   		movl	36(%ebp), %eax
 850 0655 83C024   		addl	$36, %eax
 851              		.loc 1 196 23
 852 0658 DB45E4   		fildl	-28(%ebp)
 853 065b D95804   		fstps	4(%eax)
 197:src/pdf417/PDFDetector.c **** 		result[3].m_value.y = stopRow;
 854              		.loc 1 197 9
 855 065e 8B4524   		movl	36(%ebp), %eax
 856 0661 83C024   		addl	$36, %eax
 857              		.loc 1 197 23
 858 0664 DB45F0   		fildl	-16(%ebp)
 859 0667 D95808   		fstps	8(%eax)
 860              	L47:
 861              	LBE8:
 198:src/pdf417/PDFDetector.c **** 	}
 199:src/pdf417/PDFDetector.c **** 	if (stopRow - startRow < BARCODE_MIN_HEIGHT) 
 862              		.loc 1 199 14
 863 066a 8B45F0   		movl	-16(%ebp), %eax
 864 066d 2B4514   		subl	20(%ebp), %eax
 865              		.loc 1 199 25
 866 0670 BA0A0000 		movl	$10, %edx
 866      00
 867              		.loc 1 199 5
 868 0675 39D0     		cmpl	%edx, %eax
 869 0677 7D5F     		jge	L54
 870              	LBB11:
 200:src/pdf417/PDFDetector.c **** 	{
 201:src/pdf417/PDFDetector.c **** 		for(uint8_t i = 0;i<8;i++)
 871              		.loc 1 201 15
 872 0679 C645E300 		movb	$0, -29(%ebp)
 873              		.loc 1 201 3
 874 067d EB53     		jmp	L55
 875              	L56:
 202:src/pdf417/PDFDetector.c **** 		{
 203:src/pdf417/PDFDetector.c **** 			result[i].m_hasValue = 0;
 876              		.loc 1 203 10 discriminator 3
 877 067f 0FB655E3 		movzbl	-29(%ebp), %edx
 878 0683 89D0     		movl	%edx, %eax
 879 0685 01C0     		addl	%eax, %eax
 880 0687 01D0     		addl	%edx, %eax
GAS LISTING C:\Users\jisu8\AppData\Local\Temp\ccw96xXP.s 			page 22


 881 0689 C1E002   		sall	$2, %eax
 882 068c 89C2     		movl	%eax, %edx
 883 068e 8B4524   		movl	36(%ebp), %eax
 884 0691 01D0     		addl	%edx, %eax
 885              		.loc 1 203 25 discriminator 3
 886 0693 C60000   		movb	$0, (%eax)
 204:src/pdf417/PDFDetector.c **** 			result[i].m_value.x = 0;
 887              		.loc 1 204 10 discriminator 3
 888 0696 0FB655E3 		movzbl	-29(%ebp), %edx
 889 069a 89D0     		movl	%edx, %eax
 890 069c 01C0     		addl	%eax, %eax
 891 069e 01D0     		addl	%edx, %eax
 892 06a0 C1E002   		sall	$2, %eax
 893 06a3 89C2     		movl	%eax, %edx
 894 06a5 8B4524   		movl	36(%ebp), %eax
 895 06a8 01D0     		addl	%edx, %eax
 896              		.loc 1 204 24 discriminator 3
 897 06aa D9EE     		fldz
 898 06ac D95804   		fstps	4(%eax)
 205:src/pdf417/PDFDetector.c **** 			result[i].m_value.y = 0;
 899              		.loc 1 205 10 discriminator 3
 900 06af 0FB655E3 		movzbl	-29(%ebp), %edx
 901 06b3 89D0     		movl	%edx, %eax
 902 06b5 01C0     		addl	%eax, %eax
 903 06b7 01D0     		addl	%edx, %eax
 904 06b9 C1E002   		sall	$2, %eax
 905 06bc 89C2     		movl	%eax, %edx
 906 06be 8B4524   		movl	36(%ebp), %eax
 907 06c1 01D0     		addl	%edx, %eax
 908              		.loc 1 205 24 discriminator 3
 909 06c3 D9EE     		fldz
 910 06c5 D95808   		fstps	8(%eax)
 201:src/pdf417/PDFDetector.c **** 		{
 911              		.loc 1 201 26 discriminator 3
 912 06c8 0FB645E3 		movzbl	-29(%ebp), %eax
 913 06cc 83C001   		addl	$1, %eax
 914 06cf 8845E3   		movb	%al, -29(%ebp)
 915              	L55:
 201:src/pdf417/PDFDetector.c **** 		{
 916              		.loc 1 201 3 discriminator 1
 917 06d2 807DE307 		cmpb	$7, -29(%ebp)
 918 06d6 76A7     		jbe	L56
 919              	L54:
 920              	LBE11:
 206:src/pdf417/PDFDetector.c **** 		}
 207:src/pdf417/PDFDetector.c **** 		
 208:src/pdf417/PDFDetector.c **** 	}
 209:src/pdf417/PDFDetector.c **** 
 210:src/pdf417/PDFDetector.c **** 	return result;
 921              		.loc 1 210 9
 922 06d8 8B4524   		movl	36(%ebp), %eax
 923 06db 89DC     		movl	%ebx, %esp
 211:src/pdf417/PDFDetector.c **** }
 924              		.loc 1 211 1
 925 06dd 8B5DFC   		movl	-4(%ebp), %ebx
 926 06e0 C9       		leave
 927              	LCFI8:
GAS LISTING C:\Users\jisu8\AppData\Local\Temp\ccw96xXP.s 			page 23


 928              		.cfi_restore 5
 929              		.cfi_restore 3
 930              		.cfi_def_cfa 4, 4
 931 06e1 C3       		ret
 932              		.cfi_endproc
 933              	LFE18:
 935              	_CopyToResult:
 936              	LFB19:
 212:src/pdf417/PDFDetector.c **** 
 213:src/pdf417/PDFDetector.c **** static void CopyToResult(ResultPoint_t * result, const ResultPoint_t * tmpResult, const int destina
 214:src/pdf417/PDFDetector.c **** {
 937              		.loc 1 214 1
 938              		.cfi_startproc
 939 06e2 55       		pushl	%ebp
 940              	LCFI9:
 941              		.cfi_def_cfa_offset 8
 942              		.cfi_offset 5, -8
 943 06e3 89E5     		movl	%esp, %ebp
 944              	LCFI10:
 945              		.cfi_def_cfa_register 5
 946 06e5 83EC10   		subl	$16, %esp
 947              	LBB12:
 215:src/pdf417/PDFDetector.c **** 	for (int i = 0; i < 4; i++) 
 948              		.loc 1 215 11
 949 06e8 C745FC00 		movl	$0, -4(%ebp)
 949      000000
 950              		.loc 1 215 2
 951 06ef E9B80000 		jmp	L60
 951      00
 952              	L61:
 216:src/pdf417/PDFDetector.c **** 	{
 217:src/pdf417/PDFDetector.c **** 		result[destinationIndexes[i]].m_hasValue = tmpResult[i].m_hasValue;
 953              		.loc 1 217 55 discriminator 3
 954 06f4 8B55FC   		movl	-4(%ebp), %edx
 955 06f7 89D0     		movl	%edx, %eax
 956 06f9 01C0     		addl	%eax, %eax
 957 06fb 01D0     		addl	%edx, %eax
 958 06fd C1E002   		sall	$2, %eax
 959 0700 89C2     		movl	%eax, %edx
 960 0702 8B450C   		movl	12(%ebp), %eax
 961 0705 8D0C02   		leal	(%edx,%eax), %ecx
 962              		.loc 1 217 28 discriminator 3
 963 0708 8B45FC   		movl	-4(%ebp), %eax
 964 070b 8D148500 		leal	0(,%eax,4), %edx
 964      000000
 965 0712 8B4510   		movl	16(%ebp), %eax
 966 0715 01D0     		addl	%edx, %eax
 967 0717 8B00     		movl	(%eax), %eax
 968 0719 89C2     		movl	%eax, %edx
 969              		.loc 1 217 9 discriminator 3
 970 071b 89D0     		movl	%edx, %eax
 971 071d 01C0     		addl	%eax, %eax
 972 071f 01D0     		addl	%edx, %eax
 973 0721 C1E002   		sall	$2, %eax
 974 0724 89C2     		movl	%eax, %edx
 975 0726 8B4508   		movl	8(%ebp), %eax
 976 0729 01C2     		addl	%eax, %edx
GAS LISTING C:\Users\jisu8\AppData\Local\Temp\ccw96xXP.s 			page 24


 977              		.loc 1 217 58 discriminator 3
 978 072b 0FB601   		movzbl	(%ecx), %eax
 979              		.loc 1 217 44 discriminator 3
 980 072e 8802     		movb	%al, (%edx)
 218:src/pdf417/PDFDetector.c **** 		result[destinationIndexes[i]].m_value.x = tmpResult[i].m_value.x;
 981              		.loc 1 218 54 discriminator 3
 982 0730 8B55FC   		movl	-4(%ebp), %edx
 983 0733 89D0     		movl	%edx, %eax
 984 0735 01C0     		addl	%eax, %eax
 985 0737 01D0     		addl	%edx, %eax
 986 0739 C1E002   		sall	$2, %eax
 987 073c 89C2     		movl	%eax, %edx
 988 073e 8B450C   		movl	12(%ebp), %eax
 989 0741 01C2     		addl	%eax, %edx
 990              		.loc 1 218 28 discriminator 3
 991 0743 8B45FC   		movl	-4(%ebp), %eax
 992 0746 8D0C8500 		leal	0(,%eax,4), %ecx
 992      000000
 993 074d 8B4510   		movl	16(%ebp), %eax
 994 0750 01C8     		addl	%ecx, %eax
 995 0752 8B00     		movl	(%eax), %eax
 996 0754 89C1     		movl	%eax, %ecx
 997              		.loc 1 218 9 discriminator 3
 998 0756 89C8     		movl	%ecx, %eax
 999 0758 01C0     		addl	%eax, %eax
 1000 075a 01C8     		addl	%ecx, %eax
 1001 075c C1E002   		sall	$2, %eax
 1002 075f 89C1     		movl	%eax, %ecx
 1003 0761 8B4508   		movl	8(%ebp), %eax
 1004 0764 01C8     		addl	%ecx, %eax
 1005              		.loc 1 218 65 discriminator 3
 1006 0766 D94204   		flds	4(%edx)
 1007              		.loc 1 218 43 discriminator 3
 1008 0769 D95804   		fstps	4(%eax)
 219:src/pdf417/PDFDetector.c **** 		result[destinationIndexes[i]].m_value.y = tmpResult[i].m_value.y;
 1009              		.loc 1 219 54 discriminator 3
 1010 076c 8B55FC   		movl	-4(%ebp), %edx
 1011 076f 89D0     		movl	%edx, %eax
 1012 0771 01C0     		addl	%eax, %eax
 1013 0773 01D0     		addl	%edx, %eax
 1014 0775 C1E002   		sall	$2, %eax
 1015 0778 89C2     		movl	%eax, %edx
 1016 077a 8B450C   		movl	12(%ebp), %eax
 1017 077d 01C2     		addl	%eax, %edx
 1018              		.loc 1 219 28 discriminator 3
 1019 077f 8B45FC   		movl	-4(%ebp), %eax
 1020 0782 8D0C8500 		leal	0(,%eax,4), %ecx
 1020      000000
 1021 0789 8B4510   		movl	16(%ebp), %eax
 1022 078c 01C8     		addl	%ecx, %eax
 1023 078e 8B00     		movl	(%eax), %eax
 1024 0790 89C1     		movl	%eax, %ecx
 1025              		.loc 1 219 9 discriminator 3
 1026 0792 89C8     		movl	%ecx, %eax
 1027 0794 01C0     		addl	%eax, %eax
 1028 0796 01C8     		addl	%ecx, %eax
 1029 0798 C1E002   		sall	$2, %eax
GAS LISTING C:\Users\jisu8\AppData\Local\Temp\ccw96xXP.s 			page 25


 1030 079b 89C1     		movl	%eax, %ecx
 1031 079d 8B4508   		movl	8(%ebp), %eax
 1032 07a0 01C8     		addl	%ecx, %eax
 1033              		.loc 1 219 65 discriminator 3
 1034 07a2 D94208   		flds	8(%edx)
 1035              		.loc 1 219 43 discriminator 3
 1036 07a5 D95808   		fstps	8(%eax)
 215:src/pdf417/PDFDetector.c **** 	{
 1037              		.loc 1 215 26 discriminator 3
 1038 07a8 8345FC01 		addl	$1, -4(%ebp)
 1039              	L60:
 215:src/pdf417/PDFDetector.c **** 	{
 1040              		.loc 1 215 2 discriminator 1
 1041 07ac 837DFC03 		cmpl	$3, -4(%ebp)
 1042 07b0 0F8E3EFF 		jle	L61
 1042      FFFF
 1043              	LBE12:
 220:src/pdf417/PDFDetector.c **** 	}
 221:src/pdf417/PDFDetector.c **** }
 1044              		.loc 1 221 1
 1045 07b6 90       		nop
 1046 07b7 C9       		leave
 1047              	LCFI11:
 1048              		.cfi_restore 5
 1049              		.cfi_def_cfa 4, 4
 1050 07b8 C3       		ret
 1051              		.cfi_endproc
 1052              	LFE19:
 1054              	_FindVertices:
 1055              	LFB20:
 222:src/pdf417/PDFDetector.c **** 
 223:src/pdf417/PDFDetector.c **** static ResultPoint_t * FindVertices(const BitMatrix_t * matrix, int startRow, int startColumn)
 224:src/pdf417/PDFDetector.c **** {
 1056              		.loc 1 224 1
 1057              		.cfi_startproc
 1058 07b9 55       		pushl	%ebp
 1059              	LCFI12:
 1060              		.cfi_def_cfa_offset 8
 1061              		.cfi_offset 5, -8
 1062 07ba 89E5     		movl	%esp, %ebp
 1063              	LCFI13:
 1064              		.cfi_def_cfa_register 5
 1065 07bc 83EC78   		subl	$120, %esp
 225:src/pdf417/PDFDetector.c **** 	int width = matrix->_width;
 1066              		.loc 1 225 6
 1067 07bf 8B4508   		movl	8(%ebp), %eax
 1068 07c2 8B00     		movl	(%eax), %eax
 1069 07c4 8945F0   		movl	%eax, -16(%ebp)
 226:src/pdf417/PDFDetector.c **** 	int height = matrix->_height;
 1070              		.loc 1 226 6
 1071 07c7 8B4508   		movl	8(%ebp), %eax
 1072 07ca 8B4004   		movl	4(%eax), %eax
 1073 07cd 8945EC   		movl	%eax, -20(%ebp)
 1074              	LBB13:
 227:src/pdf417/PDFDetector.c **** 
 228:src/pdf417/PDFDetector.c **** 	ResultPoint_t tmp[4];
 229:src/pdf417/PDFDetector.c **** 
GAS LISTING C:\Users\jisu8\AppData\Local\Temp\ccw96xXP.s 			page 26


 230:src/pdf417/PDFDetector.c **** 	for(uint8_t i=0;i<4;i++)
 1075              		.loc 1 230 14
 1076 07d0 C645F700 		movb	$0, -9(%ebp)
 1077              		.loc 1 230 2
 1078 07d4 EB54     		jmp	L63
 1079              	L64:
 231:src/pdf417/PDFDetector.c **** 	{
 232:src/pdf417/PDFDetector.c **** 		tmp[i].m_hasValue = 0;
 1080              		.loc 1 232 9 discriminator 3
 1081 07d6 0FB655F7 		movzbl	-9(%ebp), %edx
 1082              		.loc 1 232 21 discriminator 3
 1083 07da 89D0     		movl	%edx, %eax
 1084 07dc 01C0     		addl	%eax, %eax
 1085 07de 01D0     		addl	%edx, %eax
 1086 07e0 C1E002   		sall	$2, %eax
 1087 07e3 8D4DF8   		leal	-8(%ebp), %ecx
 1088 07e6 01C8     		addl	%ecx, %eax
 1089 07e8 83E83C   		subl	$60, %eax
 1090 07eb C60000   		movb	$0, (%eax)
 233:src/pdf417/PDFDetector.c **** 		tmp[i].m_value.x = 0.0f;
 1091              		.loc 1 233 17 discriminator 3
 1092 07ee 0FB655F7 		movzbl	-9(%ebp), %edx
 1093              		.loc 1 233 20 discriminator 3
 1094 07f2 89D0     		movl	%edx, %eax
 1095 07f4 01C0     		addl	%eax, %eax
 1096 07f6 01D0     		addl	%edx, %eax
 1097 07f8 C1E002   		sall	$2, %eax
 1098 07fb 8D4DF8   		leal	-8(%ebp), %ecx
 1099 07fe 01C8     		addl	%ecx, %eax
 1100 0800 83E838   		subl	$56, %eax
 1101 0803 D9EE     		fldz
 1102 0805 D918     		fstps	(%eax)
 234:src/pdf417/PDFDetector.c **** 		tmp[i].m_value.y = 0.0f;
 1103              		.loc 1 234 17 discriminator 3
 1104 0807 0FB655F7 		movzbl	-9(%ebp), %edx
 1105              		.loc 1 234 20 discriminator 3
 1106 080b 89D0     		movl	%edx, %eax
 1107 080d 01C0     		addl	%eax, %eax
 1108 080f 01D0     		addl	%edx, %eax
 1109 0811 C1E002   		sall	$2, %eax
 1110 0814 8D4DF8   		leal	-8(%ebp), %ecx
 1111 0817 01C8     		addl	%ecx, %eax
 1112 0819 83E834   		subl	$52, %eax
 1113 081c D9EE     		fldz
 1114 081e D918     		fstps	(%eax)
 230:src/pdf417/PDFDetector.c **** 	{
 1115              		.loc 1 230 23 discriminator 3
 1116 0820 0FB645F7 		movzbl	-9(%ebp), %eax
 1117 0824 83C001   		addl	$1, %eax
 1118 0827 8845F7   		movb	%al, -9(%ebp)
 1119              	L63:
 230:src/pdf417/PDFDetector.c **** 	{
 1120              		.loc 1 230 2 discriminator 1
 1121 082a 807DF703 		cmpb	$3, -9(%ebp)
 1122 082e 76A6     		jbe	L64
 1123              	LBE13:
 1124              	LBB14:
GAS LISTING C:\Users\jisu8\AppData\Local\Temp\ccw96xXP.s 			page 27


 235:src/pdf417/PDFDetector.c **** 	}
 236:src/pdf417/PDFDetector.c **** 
 237:src/pdf417/PDFDetector.c **** 	for(uint8_t i=0;i<8;i++)
 1125              		.loc 1 237 14
 1126 0830 C645F600 		movb	$0, -10(%ebp)
 1127              		.loc 1 237 2
 1128 0834 EB4B     		jmp	L65
 1129              	L66:
 238:src/pdf417/PDFDetector.c **** 	{
 239:src/pdf417/PDFDetector.c **** 		Vertice_Result[i].m_hasValue = 0;
 1130              		.loc 1 239 20 discriminator 3
 1131 0836 0FB655F6 		movzbl	-10(%ebp), %edx
 1132              		.loc 1 239 32 discriminator 3
 1133 083a 89D0     		movl	%edx, %eax
 1134 083c 01C0     		addl	%eax, %eax
 1135 083e 01D0     		addl	%edx, %eax
 1136 0840 C1E002   		sall	$2, %eax
 1137 0843 05000000 		addl	$_Vertice_Result, %eax
 1137      00
 1138 0848 C60000   		movb	$0, (%eax)
 240:src/pdf417/PDFDetector.c **** 		Vertice_Result[i].m_value.x = 0.0f;
 1139              		.loc 1 240 28 discriminator 3
 1140 084b 0FB655F6 		movzbl	-10(%ebp), %edx
 1141              		.loc 1 240 31 discriminator 3
 1142 084f 89D0     		movl	%edx, %eax
 1143 0851 01C0     		addl	%eax, %eax
 1144 0853 01D0     		addl	%edx, %eax
 1145 0855 C1E002   		sall	$2, %eax
 1146 0858 05040000 		addl	$_Vertice_Result+4, %eax
 1146      00
 1147 085d D9EE     		fldz
 1148 085f D918     		fstps	(%eax)
 241:src/pdf417/PDFDetector.c **** 		Vertice_Result[i].m_value.y = 0.0f;
 1149              		.loc 1 241 28 discriminator 3
 1150 0861 0FB655F6 		movzbl	-10(%ebp), %edx
 1151              		.loc 1 241 31 discriminator 3
 1152 0865 89D0     		movl	%edx, %eax
 1153 0867 01C0     		addl	%eax, %eax
 1154 0869 01D0     		addl	%edx, %eax
 1155 086b C1E002   		sall	$2, %eax
 1156 086e 05080000 		addl	$_Vertice_Result+8, %eax
 1156      00
 1157 0873 D9EE     		fldz
 1158 0875 D918     		fstps	(%eax)
 237:src/pdf417/PDFDetector.c **** 	{
 1159              		.loc 1 237 23 discriminator 3
 1160 0877 0FB645F6 		movzbl	-10(%ebp), %eax
 1161 087b 83C001   		addl	$1, %eax
 1162 087e 8845F6   		movb	%al, -10(%ebp)
 1163              	L65:
 237:src/pdf417/PDFDetector.c **** 	{
 1164              		.loc 1 237 2 discriminator 1
 1165 0881 807DF607 		cmpb	$7, -10(%ebp)
 1166 0885 76AF     		jbe	L66
 1167              	LBE14:
 242:src/pdf417/PDFDetector.c **** 	}
 243:src/pdf417/PDFDetector.c **** 
GAS LISTING C:\Users\jisu8\AppData\Local\Temp\ccw96xXP.s 			page 28


 244:src/pdf417/PDFDetector.c **** 	CopyToResult(Vertice_Result, FindRowsWithPattern(matrix, height, width, startRow, startColumn, STA
 1168              		.loc 1 244 31
 1169 0887 8D45BC   		leal	-68(%ebp), %eax
 1170 088a 8944241C 		movl	%eax, 28(%esp)
 1171 088e C7442418 		movl	$8, 24(%esp)
 1171      08000000 
 1172 0896 C7442414 		movl	$_START_PATTERN, 20(%esp)
 1172      40000000 
 1173 089e 8B4510   		movl	16(%ebp), %eax
 1174 08a1 89442410 		movl	%eax, 16(%esp)
 1175 08a5 8B450C   		movl	12(%ebp), %eax
 1176 08a8 8944240C 		movl	%eax, 12(%esp)
 1177 08ac 8B45F0   		movl	-16(%ebp), %eax
 1178 08af 89442408 		movl	%eax, 8(%esp)
 1179 08b3 8B45EC   		movl	-20(%ebp), %eax
 1180 08b6 89442404 		movl	%eax, 4(%esp)
 1181 08ba 8B4508   		movl	8(%ebp), %eax
 1182 08bd 890424   		movl	%eax, (%esp)
 1183 08c0 E8D8FAFF 		call	_FindRowsWithPattern
 1183      FF
 1184              		.loc 1 244 2
 1185 08c5 C7442408 		movl	$_INDEXES_START_PATTERN, 8(%esp)
 1185      00000000 
 1186 08cd 89442404 		movl	%eax, 4(%esp)
 1187 08d1 C7042400 		movl	$_Vertice_Result, (%esp)
 1187      000000
 1188 08d8 E805FEFF 		call	_CopyToResult
 1188      FF
 245:src/pdf417/PDFDetector.c **** 
 246:src/pdf417/PDFDetector.c **** 	if (Vertice_Result[4].m_hasValue != 0) 
 1189              		.loc 1 246 23
 1190 08dd 0FB60530 		movzbl	_Vertice_Result+48, %eax
 1190      000000
 1191              		.loc 1 246 5
 1192 08e4 84C0     		testb	%al, %al
 1193 08e6 0F848200 		je	L67
 1193      0000
 247:src/pdf417/PDFDetector.c **** 	{
 248:src/pdf417/PDFDetector.c **** 		startColumn = (Vertice_Result[4].m_value.x);
 1194              		.loc 1 248 43
 1195 08ec D9053400 		flds	_Vertice_Result+52
 1195      0000
 1196              		.loc 1 248 15
 1197 08f2 D97DB6   		fnstcw	-74(%ebp)
 1198 08f5 0FB745B6 		movzwl	-74(%ebp), %eax
 1199 08f9 80CC0C   		orb	$12, %ah
 1200 08fc 668945B4 		movw	%ax, -76(%ebp)
 1201 0900 D96DB4   		fldcw	-76(%ebp)
 1202 0903 DB5D10   		fistpl	16(%ebp)
 1203 0906 D96DB6   		fldcw	-74(%ebp)
 249:src/pdf417/PDFDetector.c **** 		startRow    = (Vertice_Result[4].m_value.y);
 1204              		.loc 1 249 43
 1205 0909 D9053800 		flds	_Vertice_Result+56
 1205      0000
 1206              		.loc 1 249 15
 1207 090f D96DB4   		fldcw	-76(%ebp)
 1208 0912 DB5D0C   		fistpl	12(%ebp)
GAS LISTING C:\Users\jisu8\AppData\Local\Temp\ccw96xXP.s 			page 29


 1209 0915 D96DB6   		fldcw	-74(%ebp)
 250:src/pdf417/PDFDetector.c **** 		// 2x speed improvement for images with no PDF417 symbol by not looking for symbols without start
 251:src/pdf417/PDFDetector.c **** 		CopyToResult(Vertice_Result, FindRowsWithPattern(matrix, height, width, startRow, startColumn, ST
 1210              		.loc 1 251 32
 1211 0918 8D45BC   		leal	-68(%ebp), %eax
 1212 091b 8944241C 		movl	%eax, 28(%esp)
 1213 091f C7442418 		movl	$9, 24(%esp)
 1213      09000000 
 1214 0927 C7442414 		movl	$_STOP_PATTERN, 20(%esp)
 1214      60000000 
 1215 092f 8B4510   		movl	16(%ebp), %eax
 1216 0932 89442410 		movl	%eax, 16(%esp)
 1217 0936 8B450C   		movl	12(%ebp), %eax
 1218 0939 8944240C 		movl	%eax, 12(%esp)
 1219 093d 8B45F0   		movl	-16(%ebp), %eax
 1220 0940 89442408 		movl	%eax, 8(%esp)
 1221 0944 8B45EC   		movl	-20(%ebp), %eax
 1222 0947 89442404 		movl	%eax, 4(%esp)
 1223 094b 8B4508   		movl	8(%ebp), %eax
 1224 094e 890424   		movl	%eax, (%esp)
 1225 0951 E847FAFF 		call	_FindRowsWithPattern
 1225      FF
 1226              		.loc 1 251 3
 1227 0956 C7442408 		movl	$_INDEXES_STOP_PATTERN, 8(%esp)
 1227      10000000 
 1228 095e 89442404 		movl	%eax, 4(%esp)
 1229 0962 C7042400 		movl	$_Vertice_Result, (%esp)
 1229      000000
 1230 0969 E874FDFF 		call	_CopyToResult
 1230      FF
 1231              	L67:
 252:src/pdf417/PDFDetector.c **** 	}
 253:src/pdf417/PDFDetector.c **** 
 254:src/pdf417/PDFDetector.c **** 	return Vertice_Result;
 1232              		.loc 1 254 9
 1233 096e B8000000 		movl	$_Vertice_Result, %eax
 1233      00
 255:src/pdf417/PDFDetector.c **** }
 1234              		.loc 1 255 1
 1235 0973 C9       		leave
 1236              	LCFI14:
 1237              		.cfi_restore 5
 1238              		.cfi_def_cfa 4, 4
 1239 0974 C3       		ret
 1240              		.cfi_endproc
 1241              	LFE20:
 1242              		.section .rdata,"dr"
 1243              	LC8:
 1244 012b 44657465 		.ascii "DetectBarcode %d \12\0"
 1244      63744261 
 1244      72636F64 
 1244      65202564 
 1244      200A00
 1245              		.text
 1247              	_DetectBarcode:
 1248              	LFB21:
 256:src/pdf417/PDFDetector.c **** 
GAS LISTING C:\Users\jisu8\AppData\Local\Temp\ccw96xXP.s 			page 30


 257:src/pdf417/PDFDetector.c **** static ResultPoint_t * DetectBarcode(const BitMatrix_t * bitMatrix, uint8_t multiple)
 258:src/pdf417/PDFDetector.c **** {
 1249              		.loc 1 258 1
 1250              		.cfi_startproc
 1251 0975 55       		pushl	%ebp
 1252              	LCFI15:
 1253              		.cfi_def_cfa_offset 8
 1254              		.cfi_offset 5, -8
 1255 0976 89E5     		movl	%esp, %ebp
 1256              	LCFI16:
 1257              		.cfi_def_cfa_register 5
 1258 0978 83EC48   		subl	$72, %esp
 1259 097b 8B450C   		movl	12(%ebp), %eax
 1260 097e 8845D4   		movb	%al, -44(%ebp)
 259:src/pdf417/PDFDetector.c **** 	printf("DetectBarcode %d \n",multiple);
 1261              		.loc 1 259 2
 1262 0981 0FB645D4 		movzbl	-44(%ebp), %eax
 1263 0985 89442404 		movl	%eax, 4(%esp)
 1264 0989 C704242B 		movl	$LC8, (%esp)
 1264      010000
 1265 0990 E8000000 		call	_printf
 1265      00
 260:src/pdf417/PDFDetector.c **** 	int row = 0;
 1266              		.loc 1 260 6
 1267 0995 C745F400 		movl	$0, -12(%ebp)
 1267      000000
 261:src/pdf417/PDFDetector.c **** 	int column = 0;
 1268              		.loc 1 261 6
 1269 099c C745F000 		movl	$0, -16(%ebp)
 1269      000000
 262:src/pdf417/PDFDetector.c **** 	uint8_t foundBarcodeInRow = 0;
 1270              		.loc 1 262 10
 1271 09a3 C645EF00 		movb	$0, -17(%ebp)
 263:src/pdf417/PDFDetector.c **** 	ResultPoint_t * barcodeCoordinates = NULL;
 1272              		.loc 1 263 18
 1273 09a7 C745E800 		movl	$0, -24(%ebp)
 1273      000000
 264:src/pdf417/PDFDetector.c **** 	ResultPoint_t * vertices = NULL;
 1274              		.loc 1 264 18
 1275 09ae C745E400 		movl	$0, -28(%ebp)
 1275      000000
 265:src/pdf417/PDFDetector.c **** 
 266:src/pdf417/PDFDetector.c **** 	while (row < bitMatrix->_height) 
 1276              		.loc 1 266 8
 1277 09b5 E9C40000 		jmp	L70
 1277      00
 1278              	L75:
 267:src/pdf417/PDFDetector.c **** 	{
 268:src/pdf417/PDFDetector.c **** 		 vertices = FindVertices(bitMatrix, row, column);
 1279              		.loc 1 268 15
 1280 09ba 8B45F0   		movl	-16(%ebp), %eax
 1281 09bd 89442408 		movl	%eax, 8(%esp)
 1282 09c1 8B45F4   		movl	-12(%ebp), %eax
 1283 09c4 89442404 		movl	%eax, 4(%esp)
 1284 09c8 8B4508   		movl	8(%ebp), %eax
 1285 09cb 890424   		movl	%eax, (%esp)
 1286 09ce E8E6FDFF 		call	_FindVertices
GAS LISTING C:\Users\jisu8\AppData\Local\Temp\ccw96xXP.s 			page 31


 1286      FF
 1287 09d3 8945E4   		movl	%eax, -28(%ebp)
 269:src/pdf417/PDFDetector.c **** 
 270:src/pdf417/PDFDetector.c **** 		if (vertices[0].m_hasValue == 0 && vertices[3].m_hasValue == 0) 
 1288              		.loc 1 270 18
 1289 09d6 8B45E4   		movl	-28(%ebp), %eax
 1290 09d9 0FB600   		movzbl	(%eax), %eax
 1291              		.loc 1 270 6
 1292 09dc 84C0     		testb	%al, %al
 1293 09de 7517     		jne	L71
 1294              		.loc 1 270 46 discriminator 1
 1295 09e0 8B45E4   		movl	-28(%ebp), %eax
 1296 09e3 83C024   		addl	$36, %eax
 1297              		.loc 1 270 49 discriminator 1
 1298 09e6 0FB600   		movzbl	(%eax), %eax
 1299              		.loc 1 270 35 discriminator 1
 1300 09e9 84C0     		testb	%al, %al
 1301 09eb 750A     		jne	L71
 271:src/pdf417/PDFDetector.c **** 		{
 272:src/pdf417/PDFDetector.c **** 			if (!foundBarcodeInRow) 
 1302              		.loc 1 272 7
 1303 09ed 807DEF00 		cmpb	$0, -17(%ebp)
 1304 09f1 0F849800 		je	L77
 1304      0000
 1305              	L71:
 273:src/pdf417/PDFDetector.c **** 			{
 274:src/pdf417/PDFDetector.c **** 				// we didn't find any barcode so that's the end of searching 
 275:src/pdf417/PDFDetector.c **** 				break;
 276:src/pdf417/PDFDetector.c **** 			}
 277:src/pdf417/PDFDetector.c **** 			// we didn't find a barcode starting at the given column and row. Try again from the first colum
 278:src/pdf417/PDFDetector.c **** 			// below the lowest barcode we found so far.
 279:src/pdf417/PDFDetector.c **** 			#if 0
 280:src/pdf417/PDFDetector.c **** 			foundBarcodeInRow = false;
 281:src/pdf417/PDFDetector.c **** 			column = 0;
 282:src/pdf417/PDFDetector.c **** 			for (auto& barcodeCoordinate : barcodeCoordinates) 
 283:src/pdf417/PDFDetector.c **** 			{
 284:src/pdf417/PDFDetector.c **** 				if (barcodeCoordinate[1] != NULL) 
 285:src/pdf417/PDFDetector.c **** 				{
 286:src/pdf417/PDFDetector.c **** 					row = __max(row, (barcodeCoordinate[1].value().y()));
 287:src/pdf417/PDFDetector.c **** 				}
 288:src/pdf417/PDFDetector.c **** 
 289:src/pdf417/PDFDetector.c **** 				if (barcodeCoordinate[3] != NULL) 
 290:src/pdf417/PDFDetector.c **** 				{
 291:src/pdf417/PDFDetector.c **** 					row = __max(row, (barcodeCoordinate[3].value().y()));
 292:src/pdf417/PDFDetector.c **** 				}
 293:src/pdf417/PDFDetector.c **** 			}
 294:src/pdf417/PDFDetector.c **** 
 295:src/pdf417/PDFDetector.c **** 			row += ROW_STEP;
 296:src/pdf417/PDFDetector.c **** 			continue;
 297:src/pdf417/PDFDetector.c **** 			#endif
 298:src/pdf417/PDFDetector.c **** 		}
 299:src/pdf417/PDFDetector.c **** 
 300:src/pdf417/PDFDetector.c **** 		foundBarcodeInRow = 1;
 1306              		.loc 1 300 21
 1307 09f7 C645EF01 		movb	$1, -17(%ebp)
 301:src/pdf417/PDFDetector.c **** 		barcodeCoordinates = vertices;
 1308              		.loc 1 301 22
GAS LISTING C:\Users\jisu8\AppData\Local\Temp\ccw96xXP.s 			page 32


 1309 09fb 8B45E4   		movl	-28(%ebp), %eax
 1310 09fe 8945E8   		movl	%eax, -24(%ebp)
 302:src/pdf417/PDFDetector.c **** 		if (!multiple) 
 1311              		.loc 1 302 6
 1312 0a01 807DD400 		cmpb	$0, -44(%ebp)
 1313 0a05 0F848700 		je	L78
 1313      0000
 303:src/pdf417/PDFDetector.c **** 		{
 304:src/pdf417/PDFDetector.c **** 			break;
 305:src/pdf417/PDFDetector.c **** 		}
 306:src/pdf417/PDFDetector.c **** 
 307:src/pdf417/PDFDetector.c **** 		// if we didn't find a right row indicator column, then continue the search for the next barcode 
 308:src/pdf417/PDFDetector.c **** 		// start pattern of the barcode just found.
 309:src/pdf417/PDFDetector.c **** 		if (vertices[2].m_hasValue != 0) 
 1314              		.loc 1 309 15
 1315 0a0b 8B45E4   		movl	-28(%ebp), %eax
 1316 0a0e 83C018   		addl	$24, %eax
 1317              		.loc 1 309 18
 1318 0a11 0FB600   		movzbl	(%eax), %eax
 1319              		.loc 1 309 6
 1320 0a14 84C0     		testb	%al, %al
 1321 0a16 7434     		je	L74
 310:src/pdf417/PDFDetector.c **** 		{
 311:src/pdf417/PDFDetector.c **** 			column = (vertices[2].m_value.x);
 1322              		.loc 1 311 22
 1323 0a18 8B45E4   		movl	-28(%ebp), %eax
 1324 0a1b 83C018   		addl	$24, %eax
 1325              		.loc 1 311 33
 1326 0a1e D94004   		flds	4(%eax)
 1327              		.loc 1 311 11
 1328 0a21 D97DD6   		fnstcw	-42(%ebp)
 1329 0a24 0FB745D6 		movzwl	-42(%ebp), %eax
 1330 0a28 80CC0C   		orb	$12, %ah
 1331 0a2b 668945D2 		movw	%ax, -46(%ebp)
 1332 0a2f D96DD2   		fldcw	-46(%ebp)
 1333 0a32 DB5DF0   		fistpl	-16(%ebp)
 1334 0a35 D96DD6   		fldcw	-42(%ebp)
 312:src/pdf417/PDFDetector.c **** 			row    = (vertices[2].m_value.y);
 1335              		.loc 1 312 22
 1336 0a38 8B45E4   		movl	-28(%ebp), %eax
 1337 0a3b 83C018   		addl	$24, %eax
 1338              		.loc 1 312 33
 1339 0a3e D94008   		flds	8(%eax)
 1340              		.loc 1 312 11
 1341 0a41 D96DD2   		fldcw	-46(%ebp)
 1342 0a44 DB5DF4   		fistpl	-12(%ebp)
 1343 0a47 D96DD6   		fldcw	-42(%ebp)
 1344 0a4a EB32     		jmp	L70
 1345              	L74:
 313:src/pdf417/PDFDetector.c **** 		}
 314:src/pdf417/PDFDetector.c **** 		else 
 315:src/pdf417/PDFDetector.c **** 		{
 316:src/pdf417/PDFDetector.c **** 			column = (vertices[4].m_value.x);
 1346              		.loc 1 316 22
 1347 0a4c 8B45E4   		movl	-28(%ebp), %eax
 1348 0a4f 83C030   		addl	$48, %eax
 1349              		.loc 1 316 33
GAS LISTING C:\Users\jisu8\AppData\Local\Temp\ccw96xXP.s 			page 33


 1350 0a52 D94004   		flds	4(%eax)
 1351              		.loc 1 316 11
 1352 0a55 D97DD6   		fnstcw	-42(%ebp)
 1353 0a58 0FB745D6 		movzwl	-42(%ebp), %eax
 1354 0a5c 80CC0C   		orb	$12, %ah
 1355 0a5f 668945D2 		movw	%ax, -46(%ebp)
 1356 0a63 D96DD2   		fldcw	-46(%ebp)
 1357 0a66 DB5DF0   		fistpl	-16(%ebp)
 1358 0a69 D96DD6   		fldcw	-42(%ebp)
 317:src/pdf417/PDFDetector.c **** 			row    = (vertices[4].m_value.y);
 1359              		.loc 1 317 22
 1360 0a6c 8B45E4   		movl	-28(%ebp), %eax
 1361 0a6f 83C030   		addl	$48, %eax
 1362              		.loc 1 317 33
 1363 0a72 D94008   		flds	8(%eax)
 1364              		.loc 1 317 11
 1365 0a75 D96DD2   		fldcw	-46(%ebp)
 1366 0a78 DB5DF4   		fistpl	-12(%ebp)
 1367 0a7b D96DD6   		fldcw	-42(%ebp)
 1368              	L70:
 266:src/pdf417/PDFDetector.c **** 	{
 1369              		.loc 1 266 24
 1370 0a7e 8B4508   		movl	8(%ebp), %eax
 1371 0a81 8B4004   		movl	4(%eax), %eax
 266:src/pdf417/PDFDetector.c **** 	{
 1372              		.loc 1 266 8
 1373 0a84 3945F4   		cmpl	%eax, -12(%ebp)
 1374 0a87 0F8C2DFF 		jl	L75
 1374      FFFF
 1375 0a8d EB04     		jmp	L72
 1376              	L77:
 275:src/pdf417/PDFDetector.c **** 			}
 1377              		.loc 1 275 5
 1378 0a8f 90       		nop
 1379 0a90 EB01     		jmp	L72
 1380              	L78:
 304:src/pdf417/PDFDetector.c **** 		}
 1381              		.loc 1 304 4
 1382 0a92 90       		nop
 1383              	L72:
 318:src/pdf417/PDFDetector.c **** 		}
 319:src/pdf417/PDFDetector.c **** 	}
 320:src/pdf417/PDFDetector.c **** 
 321:src/pdf417/PDFDetector.c **** 	return barcodeCoordinates;
 1384              		.loc 1 321 9
 1385 0a93 8B45E8   		movl	-24(%ebp), %eax
 322:src/pdf417/PDFDetector.c **** }
 1386              		.loc 1 322 1
 1387 0a96 C9       		leave
 1388              	LCFI17:
 1389              		.cfi_restore 5
 1390              		.cfi_def_cfa 4, 4
 1391 0a97 C3       		ret
 1392              		.cfi_endproc
 1393              	LFE21:
 1394              		.section .rdata,"dr"
 1395              	LC9:
GAS LISTING C:\Users\jisu8\AppData\Local\Temp\ccw96xXP.s 			page 34


 1396 013e 48617353 		.ascii "HasStartPattern \0"
 1396      74617274 
 1396      50617474 
 1396      65726E20 
 1396      00
 1397              		.text
 1398              		.globl	_HasStartPattern
 1400              	_HasStartPattern:
 1401              	LFB22:
 323:src/pdf417/PDFDetector.c **** 
 324:src/pdf417/PDFDetector.c **** uint8_t HasStartPattern(const BitMatrix_t * m)
 325:src/pdf417/PDFDetector.c **** {
 1402              		.loc 1 325 1
 1403              		.cfi_startproc
 1404 0a98 55       		pushl	%ebp
 1405              	LCFI18:
 1406              		.cfi_def_cfa_offset 8
 1407              		.cfi_offset 5, -8
 1408 0a99 89E5     		movl	%esp, %ebp
 1409              	LCFI19:
 1410              		.cfi_def_cfa_register 5
 1411 0a9b 83EC48   		subl	$72, %esp
 326:src/pdf417/PDFDetector.c **** 	printf("HasStartPattern \n");
 1412              		.loc 1 326 2
 1413 0a9e C704243E 		movl	$LC9, (%esp)
 1413      010000
 1414 0aa5 E8000000 		call	_puts
 1414      00
 327:src/pdf417/PDFDetector.c **** 
 328:src/pdf417/PDFDetector.c **** 	int START_PATTERN[8] = { 8, 1, 1, 1, 1, 1, 1, 3 };
 1415              		.loc 1 328 6
 1416 0aaa C745CC08 		movl	$8, -52(%ebp)
 1416      000000
 1417 0ab1 C745D001 		movl	$1, -48(%ebp)
 1417      000000
 1418 0ab8 C745D401 		movl	$1, -44(%ebp)
 1418      000000
 1419 0abf C745D801 		movl	$1, -40(%ebp)
 1419      000000
 1420 0ac6 C745DC01 		movl	$1, -36(%ebp)
 1420      000000
 1421 0acd C745E001 		movl	$1, -32(%ebp)
 1421      000000
 1422 0ad4 C745E401 		movl	$1, -28(%ebp)
 1422      000000
 1423 0adb C745E803 		movl	$3, -24(%ebp)
 1423      000000
 329:src/pdf417/PDFDetector.c **** 	int minSymbolWidth = 3*8+1; // compact symbol
 1424              		.loc 1 329 6
 1425 0ae2 C745F019 		movl	$25, -16(%ebp)
 1425      000000
 330:src/pdf417/PDFDetector.c **** 
 331:src/pdf417/PDFDetector.c **** 	uint16_t * row = NULL;
 1426              		.loc 1 331 13
 1427 0ae9 C745EC00 		movl	$0, -20(%ebp)
 1427      000000
 1428              	LBB15:
GAS LISTING C:\Users\jisu8\AppData\Local\Temp\ccw96xXP.s 			page 35


 332:src/pdf417/PDFDetector.c **** 
 333:src/pdf417/PDFDetector.c **** 	for (int r = ROW_STEP; r < m->_height; r += ROW_STEP) 
 1429              		.loc 1 333 11
 1430 0af0 C745F408 		movl	$8, -12(%ebp)
 1430      000000
 1431              		.loc 1 333 2
 1432 0af7 EB21     		jmp	L80
 1433              	L81:
 334:src/pdf417/PDFDetector.c **** 	{
 335:src/pdf417/PDFDetector.c **** 		getPatternRow(m, r, row);
 1434              		.loc 1 335 3 discriminator 3
 1435 0af9 8B45EC   		movl	-20(%ebp), %eax
 1436 0afc 89442408 		movl	%eax, 8(%esp)
 1437 0b00 8B45F4   		movl	-12(%ebp), %eax
 1438 0b03 89442404 		movl	%eax, 4(%esp)
 1439 0b07 8B4508   		movl	8(%ebp), %eax
 1440 0b0a 890424   		movl	%eax, (%esp)
 1441 0b0d E8000000 		call	_getPatternRow
 1441      00
 333:src/pdf417/PDFDetector.c **** 	{
 1442              		.loc 1 333 43 discriminator 3
 1443 0b12 B8080000 		movl	$8, %eax
 1443      00
 1444 0b17 0145F4   		addl	%eax, -12(%ebp)
 1445              	L80:
 333:src/pdf417/PDFDetector.c **** 	{
 1446              		.loc 1 333 30 discriminator 1
 1447 0b1a 8B4508   		movl	8(%ebp), %eax
 1448 0b1d 8B4004   		movl	4(%eax), %eax
 333:src/pdf417/PDFDetector.c **** 	{
 1449              		.loc 1 333 2 discriminator 1
 1450 0b20 3945F4   		cmpl	%eax, -12(%ebp)
 1451 0b23 7CD4     		jl	L81
 1452              	LBE15:
 336:src/pdf417/PDFDetector.c **** 
 337:src/pdf417/PDFDetector.c **** 		//if (FindLeftGuard(row, minSymbolWidth, START_PATTERN, 2).isValid())
 338:src/pdf417/PDFDetector.c **** 			//return true;
 339:src/pdf417/PDFDetector.c **** 		//std::reverse(row.begin(), row.end());
 340:src/pdf417/PDFDetector.c **** 		//if (FindLeftGuard(row, minSymbolWidth, START_PATTERN, 2).isValid())
 341:src/pdf417/PDFDetector.c **** 			//return true;
 342:src/pdf417/PDFDetector.c **** 	}
 343:src/pdf417/PDFDetector.c **** 
 344:src/pdf417/PDFDetector.c **** 	return 1; // leftguard  
 1453              		.loc 1 344 9
 1454 0b25 B8010000 		movl	$1, %eax
 1454      00
 345:src/pdf417/PDFDetector.c **** }
 1455              		.loc 1 345 1
 1456 0b2a C9       		leave
 1457              	LCFI20:
 1458              		.cfi_restore 5
 1459              		.cfi_def_cfa 4, 4
 1460 0b2b C3       		ret
 1461              		.cfi_endproc
 1462              	LFE22:
 1464              	_Empty_Check:
 1465              	LFB23:
GAS LISTING C:\Users\jisu8\AppData\Local\Temp\ccw96xXP.s 			page 36


 346:src/pdf417/PDFDetector.c **** static uint8_t Empty_Check(ResultPoint_t * barcodeCoordinates)
 347:src/pdf417/PDFDetector.c **** {
 1466              		.loc 1 347 1
 1467              		.cfi_startproc
 1468 0b2c 55       		pushl	%ebp
 1469              	LCFI21:
 1470              		.cfi_def_cfa_offset 8
 1471              		.cfi_offset 5, -8
 1472 0b2d 89E5     		movl	%esp, %ebp
 1473              	LCFI22:
 1474              		.cfi_def_cfa_register 5
 1475 0b2f 83EC10   		subl	$16, %esp
 348:src/pdf417/PDFDetector.c **** 	uint8_t status=0;
 1476              		.loc 1 348 10
 1477 0b32 C645FF00 		movb	$0, -1(%ebp)
 349:src/pdf417/PDFDetector.c **** 	uint8_t ret=0;
 1478              		.loc 1 349 10
 1479 0b36 C645FE00 		movb	$0, -2(%ebp)
 1480              	LBB16:
 350:src/pdf417/PDFDetector.c **** 	for(uint8_t i=0;i<8;i++)
 1481              		.loc 1 350 14
 1482 0b3a C645FD00 		movb	$0, -3(%ebp)
 1483              		.loc 1 350 2
 1484 0b3e EB2E     		jmp	L84
 1485              	L86:
 351:src/pdf417/PDFDetector.c **** 	{
 352:src/pdf417/PDFDetector.c **** 		if(barcodeCoordinates->m_hasValue == 0)
 1486              		.loc 1 352 24
 1487 0b40 8B4508   		movl	8(%ebp), %eax
 1488 0b43 0FB600   		movzbl	(%eax), %eax
 1489              		.loc 1 352 5
 1490 0b46 84C0     		testb	%al, %al
 1491 0b48 751A     		jne	L85
 353:src/pdf417/PDFDetector.c **** 		{
 354:src/pdf417/PDFDetector.c **** 			status |= 1<<i;
 1492              		.loc 1 354 15
 1493 0b4a 0FB645FD 		movzbl	-3(%ebp), %eax
 1494 0b4e BA010000 		movl	$1, %edx
 1494      00
 1495 0b53 89C1     		movl	%eax, %ecx
 1496 0b55 D3E2     		sall	%cl, %edx
 1497 0b57 89D0     		movl	%edx, %eax
 1498              		.loc 1 354 11
 1499 0b59 89C2     		movl	%eax, %edx
 1500 0b5b 0FB645FF 		movzbl	-1(%ebp), %eax
 1501 0b5f 09D0     		orl	%edx, %eax
 1502 0b61 8845FF   		movb	%al, -1(%ebp)
 1503              	L85:
 350:src/pdf417/PDFDetector.c **** 	{
 1504              		.loc 1 350 23 discriminator 2
 1505 0b64 0FB645FD 		movzbl	-3(%ebp), %eax
 1506 0b68 83C001   		addl	$1, %eax
 1507 0b6b 8845FD   		movb	%al, -3(%ebp)
 1508              	L84:
 350:src/pdf417/PDFDetector.c **** 	{
 1509              		.loc 1 350 2 discriminator 1
 1510 0b6e 807DFD07 		cmpb	$7, -3(%ebp)
GAS LISTING C:\Users\jisu8\AppData\Local\Temp\ccw96xXP.s 			page 37


 1511 0b72 76CC     		jbe	L86
 1512              	LBE16:
 355:src/pdf417/PDFDetector.c **** 		} 
 356:src/pdf417/PDFDetector.c **** 	}
 357:src/pdf417/PDFDetector.c **** 
 358:src/pdf417/PDFDetector.c **** 	if(status == 0xff)
 1513              		.loc 1 358 4
 1514 0b74 807DFFFF 		cmpb	$-1, -1(%ebp)
 1515 0b78 7506     		jne	L87
 359:src/pdf417/PDFDetector.c **** 	{
 360:src/pdf417/PDFDetector.c **** 		ret = 1; //empty
 1516              		.loc 1 360 7
 1517 0b7a C645FE01 		movb	$1, -2(%ebp)
 1518 0b7e EB04     		jmp	L88
 1519              	L87:
 361:src/pdf417/PDFDetector.c **** 	}
 362:src/pdf417/PDFDetector.c **** 	else
 363:src/pdf417/PDFDetector.c **** 	{
 364:src/pdf417/PDFDetector.c **** 		ret = 0; //no empty
 1520              		.loc 1 364 7
 1521 0b80 C645FE00 		movb	$0, -2(%ebp)
 1522              	L88:
 365:src/pdf417/PDFDetector.c **** 	}
 366:src/pdf417/PDFDetector.c **** 	
 367:src/pdf417/PDFDetector.c **** 	return ret;
 1523              		.loc 1 367 9
 1524 0b84 0FB645FE 		movzbl	-2(%ebp), %eax
 368:src/pdf417/PDFDetector.c **** }
 1525              		.loc 1 368 1
 1526 0b88 C9       		leave
 1527              	LCFI23:
 1528              		.cfi_restore 5
 1529              		.cfi_def_cfa 4, 4
 1530 0b89 C3       		ret
 1531              		.cfi_endproc
 1532              	LFE23:
 1533              		.section .rdata,"dr"
 1534              	LC10:
 1535 014f 44657465 		.ascii "Detector::Detect \0"
 1535      63746F72 
 1535      3A3A4465 
 1535      74656374 
 1535      2000
 1536              		.text
 1537              		.globl	_Detect
 1539              	_Detect:
 1540              	LFB24:
 369:src/pdf417/PDFDetector.c **** DecodeStatus_t Detect(GenericLuminanceSource_t * image, unsigned char multiple, Detector_Result_t *
 370:src/pdf417/PDFDetector.c **** {
 1541              		.loc 1 370 1
 1542              		.cfi_startproc
 1543 0b8a 55       		pushl	%ebp
 1544              	LCFI24:
 1545              		.cfi_def_cfa_offset 8
 1546              		.cfi_offset 5, -8
 1547 0b8b 89E5     		movl	%esp, %ebp
 1548              	LCFI25:
GAS LISTING C:\Users\jisu8\AppData\Local\Temp\ccw96xXP.s 			page 38


 1549              		.cfi_def_cfa_register 5
 1550 0b8d 83EC38   		subl	$56, %esp
 1551 0b90 8B450C   		movl	12(%ebp), %eax
 1552 0b93 8845E4   		movb	%al, -28(%ebp)
 371:src/pdf417/PDFDetector.c **** 	printf("Detector::Detect \n");
 1553              		.loc 1 371 2
 1554 0b96 C704244F 		movl	$LC10, (%esp)
 1554      010000
 1555 0b9d E8000000 		call	_puts
 1555      00
 372:src/pdf417/PDFDetector.c **** 	BitMatrix_t * binImg;
 373:src/pdf417/PDFDetector.c **** 	ResultPoint_t * barcodeCoordinates;
 374:src/pdf417/PDFDetector.c **** 	unsigned char * newBits;
 375:src/pdf417/PDFDetector.c **** 	
 376:src/pdf417/PDFDetector.c **** 	binImg = getBlackMatrix(image);
 1556              		.loc 1 376 11
 1557 0ba2 8B4508   		movl	8(%ebp), %eax
 1558 0ba5 890424   		movl	%eax, (%esp)
 1559 0ba8 E8000000 		call	_getBlackMatrix
 1559      00
 1560 0bad 8945F4   		movl	%eax, -12(%ebp)
 377:src/pdf417/PDFDetector.c **** 	if (binImg == NULL) 
 1561              		.loc 1 377 5
 1562 0bb0 837DF400 		cmpl	$0, -12(%ebp)
 1563 0bb4 750A     		jne	L91
 378:src/pdf417/PDFDetector.c **** 	{
 379:src/pdf417/PDFDetector.c **** 		return NotFound;
 1564              		.loc 1 379 10
 1565 0bb6 B8010000 		movl	$1, %eax
 1565      00
 1566 0bbb E9830000 		jmp	L92
 1566      00
 1567              	L91:
 380:src/pdf417/PDFDetector.c **** 	}
 381:src/pdf417/PDFDetector.c **** 
 382:src/pdf417/PDFDetector.c **** 	if (!HasStartPattern(binImg))
 1568              		.loc 1 382 7
 1569 0bc0 8B45F4   		movl	-12(%ebp), %eax
 1570 0bc3 890424   		movl	%eax, (%esp)
 1571 0bc6 E8CDFEFF 		call	_HasStartPattern
 1571      FF
 1572              		.loc 1 382 5
 1573 0bcb 84C0     		testb	%al, %al
 1574 0bcd 7507     		jne	L93
 383:src/pdf417/PDFDetector.c **** 	{
 384:src/pdf417/PDFDetector.c **** 		return NotFound;
 1575              		.loc 1 384 10
 1576 0bcf B8010000 		movl	$1, %eax
 1576      00
 1577 0bd4 EB6D     		jmp	L92
 1578              	L93:
 385:src/pdf417/PDFDetector.c **** 	}
 386:src/pdf417/PDFDetector.c **** 
 387:src/pdf417/PDFDetector.c **** 	barcodeCoordinates = DetectBarcode(binImg, multiple);
 1579              		.loc 1 387 23
 1580 0bd6 0FB645E4 		movzbl	-28(%ebp), %eax
 1581 0bda 89442404 		movl	%eax, 4(%esp)
GAS LISTING C:\Users\jisu8\AppData\Local\Temp\ccw96xXP.s 			page 39


 1582 0bde 8B45F4   		movl	-12(%ebp), %eax
 1583 0be1 890424   		movl	%eax, (%esp)
 1584 0be4 E88CFDFF 		call	_DetectBarcode
 1584      FF
 1585 0be9 8945F0   		movl	%eax, -16(%ebp)
 388:src/pdf417/PDFDetector.c **** 
 389:src/pdf417/PDFDetector.c **** 	if (Empty_Check(barcodeCoordinates))
 1586              		.loc 1 389 6
 1587 0bec 8B45F0   		movl	-16(%ebp), %eax
 1588 0bef 890424   		movl	%eax, (%esp)
 1589 0bf2 E835FFFF 		call	_Empty_Check
 1589      FF
 1590              		.loc 1 389 5
 1591 0bf7 84C0     		testb	%al, %al
 1592 0bf9 741C     		je	L94
 390:src/pdf417/PDFDetector.c **** 	{
 391:src/pdf417/PDFDetector.c **** 		//newBits = binImg->copy();
 392:src/pdf417/PDFDetector.c **** 		//newBits->rotate180();
 393:src/pdf417/PDFDetector.c **** 		binImg = newBits;
 1593              		.loc 1 393 10
 1594 0bfb 8B45EC   		movl	-20(%ebp), %eax
 1595 0bfe 8945F4   		movl	%eax, -12(%ebp)
 394:src/pdf417/PDFDetector.c **** 		barcodeCoordinates = DetectBarcode(binImg, multiple);
 1596              		.loc 1 394 24
 1597 0c01 0FB645E4 		movzbl	-28(%ebp), %eax
 1598 0c05 89442404 		movl	%eax, 4(%esp)
 1599 0c09 8B45F4   		movl	-12(%ebp), %eax
 1600 0c0c 890424   		movl	%eax, (%esp)
 1601 0c0f E861FDFF 		call	_DetectBarcode
 1601      FF
 1602 0c14 8945F0   		movl	%eax, -16(%ebp)
 1603              	L94:
 395:src/pdf417/PDFDetector.c **** 	}
 396:src/pdf417/PDFDetector.c **** 	if (Empty_Check(barcodeCoordinates)) 
 1604              		.loc 1 396 6
 1605 0c17 8B45F0   		movl	-16(%ebp), %eax
 1606 0c1a 890424   		movl	%eax, (%esp)
 1607 0c1d E80AFFFF 		call	_Empty_Check
 1607      FF
 1608              		.loc 1 396 5
 1609 0c22 84C0     		testb	%al, %al
 1610 0c24 7407     		je	L95
 397:src/pdf417/PDFDetector.c **** 	{
 398:src/pdf417/PDFDetector.c **** 		return NotFound;
 1611              		.loc 1 398 10
 1612 0c26 B8010000 		movl	$1, %eax
 1612      00
 1613 0c2b EB16     		jmp	L92
 1614              	L95:
 399:src/pdf417/PDFDetector.c **** 	}
 400:src/pdf417/PDFDetector.c **** 	result->points = barcodeCoordinates;
 1615              		.loc 1 400 17
 1616 0c2d 8B4510   		movl	16(%ebp), %eax
 1617 0c30 8B55F0   		movl	-16(%ebp), %edx
 1618 0c33 895004   		movl	%edx, 4(%eax)
 401:src/pdf417/PDFDetector.c **** 	result->bits = binImg;
 1619              		.loc 1 401 15
GAS LISTING C:\Users\jisu8\AppData\Local\Temp\ccw96xXP.s 			page 40


 1620 0c36 8B4510   		movl	16(%ebp), %eax
 1621 0c39 8B55F4   		movl	-12(%ebp), %edx
 1622 0c3c 8910     		movl	%edx, (%eax)
 402:src/pdf417/PDFDetector.c **** 
 403:src/pdf417/PDFDetector.c **** 	return NoError;
 1623              		.loc 1 403 9
 1624 0c3e B8000000 		movl	$0, %eax
 1624      00
 1625              	L92:
 404:src/pdf417/PDFDetector.c **** }
 1626              		.loc 1 404 1
 1627 0c43 C9       		leave
 1628              	LCFI26:
 1629              		.cfi_restore 5
 1630              		.cfi_def_cfa 4, 4
 1631 0c44 C3       		ret
 1632              		.cfi_endproc
 1633              	LFE24:
 1634              		.section .rdata,"dr"
 1635 0161 000000   		.align 4
 1636              	LC1:
 1637 0164 FFFF7F7F 		.long	2139095039
 1638              		.align 4
 1639              	LC5:
 1640 0168 CDCC4C3F 		.long	1061997773
 1641              		.align 4
 1642              	LC6:
 1643 016c 3D0AD73E 		.long	1054280253
 1644 0170 00000000 		.text
 1644      00000000 
 1644      00000000 
 1644      00000000 
 1645              	Letext0:
 1646              		.file 2 "src/DecodeStatus.h"
 1647              		.file 3 "D:/3.tools/mingw/mingw32/i686-w64-mingw32/include/crtdefs.h"
 1648              		.file 4 "D:/3.tools/mingw/mingw32/i686-w64-mingw32/include/stdint.h"
 1649              		.file 5 "D:/3.tools/mingw/mingw32/i686-w64-mingw32/include/stdio.h"
 1650              		.file 6 "src/GenericLuminanceSource.h"
 1651              		.file 7 "src/BitMatrix.h"
 1652              		.file 8 "src/ResultPoint.h"
 1653              		.file 9 "src/pdf417/PDFDetector.h"
 1654              		.file 10 "D:/3.tools/mingw/mingw32/i686-w64-mingw32/include/stdlib.h"
 1655              		.file 11 "D:/3.tools/mingw/mingw32/i686-w64-mingw32/include/malloc.h"
 1656 0c45 909090   		.section	.debug_info,"dr"
 1657              	Ldebug_info0:
 1658 0000 80100000 		.long	0x1080
 1659 0004 0200     		.word	0x2
 1660 0006 00000000 		.secrel32	Ldebug_abbrev0
 1661 000a 04       		.byte	0x4
 1662 000b 01       		.uleb128 0x1
 1663 000c 474E5520 		.ascii "GNU C17 8.1.0 -mtune=generic -march=i686 -g -gdwarf-2 -O0\0"
 1663      43313720 
 1663      382E312E 
 1663      30202D6D 
 1663      74756E65 
 1664 0046 0C       		.byte	0xc
 1665 0047 7372632F 		.ascii "src/pdf417/PDFDetector.c\0"
GAS LISTING C:\Users\jisu8\AppData\Local\Temp\ccw96xXP.s 			page 41


 1665      70646634 
 1665      31372F50 
 1665      44464465 
 1665      74656374 
 1666 0060 443A5C31 		.ascii "D:\\1.Project_workspace\\PDF_BARCODE\0"
 1666      2E50726F 
 1666      6A656374 
 1666      5F776F72 
 1666      6B737061 
 1667 0083 00000000 		.long	Ltext0
 1668 0087 450C0000 		.long	Letext0
 1669 008b 00000000 		.secrel32	Ldebug_line0
 1670 008f 02       		.uleb128 0x2
 1671 0090 07       		.byte	0x7
 1672 0091 04       		.byte	0x4
 1673 0092 D1000000 		.long	0xd1
 1674 0096 02       		.byte	0x2
 1675 0097 04       		.byte	0x4
 1676 0098 01       		.byte	0x1
 1677 0099 D1000000 		.long	0xd1
 1678 009d 03       		.uleb128 0x3
 1679 009e 4E6F4572 		.ascii "NoError\0"
 1679      726F7200 
 1680 00a6 00       		.byte	0
 1681 00a7 03       		.uleb128 0x3
 1682 00a8 4E6F7446 		.ascii "NotFound\0"
 1682      6F756E64 
 1682      00
 1683 00b1 01       		.byte	0x1
 1684 00b2 03       		.uleb128 0x3
 1685 00b3 466F726D 		.ascii "FormatError\0"
 1685      61744572 
 1685      726F7200 
 1686 00bf 02       		.byte	0x2
 1687 00c0 03       		.uleb128 0x3
 1688 00c1 43686563 		.ascii "ChecksumError\0"
 1688      6B73756D 
 1688      4572726F 
 1688      7200
 1689 00cf 03       		.byte	0x3
 1690 00d0 00       		.byte	0
 1691 00d1 04       		.uleb128 0x4
 1692 00d2 04       		.byte	0x4
 1693 00d3 07       		.byte	0x7
 1694 00d4 756E7369 		.ascii "unsigned int\0"
 1694      676E6564 
 1694      20696E74 
 1694      00
 1695 00e1 05       		.uleb128 0x5
 1696 00e2 4465636F 		.ascii "DecodeStatus_t\0"
 1696      64655374 
 1696      61747573 
 1696      5F7400
 1697 00f1 02       		.byte	0x2
 1698 00f2 09       		.byte	0x9
 1699 00f3 02       		.byte	0x2
 1700 00f4 8F000000 		.long	0x8f
GAS LISTING C:\Users\jisu8\AppData\Local\Temp\ccw96xXP.s 			page 42


 1701 00f8 04       		.uleb128 0x4
 1702 00f9 01       		.byte	0x1
 1703 00fa 06       		.byte	0x6
 1704 00fb 63686172 		.ascii "char\0"
 1704      00
 1705 0100 05       		.uleb128 0x5
 1706 0101 73697A65 		.ascii "size_t\0"
 1706      5F7400
 1707 0108 03       		.byte	0x3
 1708 0109 25       		.byte	0x25
 1709 010a 16       		.byte	0x16
 1710 010b D1000000 		.long	0xd1
 1711 010f 04       		.uleb128 0x4
 1712 0110 04       		.byte	0x4
 1713 0111 05       		.byte	0x5
 1714 0112 696E7400 		.ascii "int\0"
 1715 0116 06       		.uleb128 0x6
 1716 0117 0F010000 		.long	0x10f
 1717 011b 05       		.uleb128 0x5
 1718 011c 77636861 		.ascii "wchar_t\0"
 1718      725F7400 
 1719 0124 03       		.byte	0x3
 1720 0125 62       		.byte	0x62
 1721 0126 18       		.byte	0x18
 1722 0127 2B010000 		.long	0x12b
 1723 012b 04       		.uleb128 0x4
 1724 012c 02       		.byte	0x2
 1725 012d 07       		.byte	0x7
 1726 012e 73686F72 		.ascii "short unsigned int\0"
 1726      7420756E 
 1726      7369676E 
 1726      65642069 
 1726      6E7400
 1727 0141 04       		.uleb128 0x4
 1728 0142 04       		.byte	0x4
 1729 0143 05       		.byte	0x5
 1730 0144 6C6F6E67 		.ascii "long int\0"
 1730      20696E74 
 1730      00
 1731 014d 04       		.uleb128 0x4
 1732 014e 08       		.byte	0x8
 1733 014f 05       		.byte	0x5
 1734 0150 6C6F6E67 		.ascii "long long int\0"
 1734      206C6F6E 
 1734      6720696E 
 1734      7400
 1735 015e 07       		.uleb128 0x7
 1736 015f 04       		.byte	0x4
 1737 0160 F8000000 		.long	0xf8
 1738 0164 07       		.uleb128 0x7
 1739 0165 04       		.byte	0x4
 1740 0166 1B010000 		.long	0x11b
 1741 016a 07       		.uleb128 0x7
 1742 016b 04       		.byte	0x4
 1743 016c 0F010000 		.long	0x10f
 1744 0170 04       		.uleb128 0x4
 1745 0171 04       		.byte	0x4
GAS LISTING C:\Users\jisu8\AppData\Local\Temp\ccw96xXP.s 			page 43


 1746 0172 07       		.byte	0x7
 1747 0173 6C6F6E67 		.ascii "long unsigned int\0"
 1747      20756E73 
 1747      69676E65 
 1747      6420696E 
 1747      7400
 1748 0185 04       		.uleb128 0x4
 1749 0186 01       		.byte	0x1
 1750 0187 08       		.byte	0x8
 1751 0188 756E7369 		.ascii "unsigned char\0"
 1751      676E6564 
 1751      20636861 
 1751      7200
 1752 0196 04       		.uleb128 0x4
 1753 0197 0C       		.byte	0xc
 1754 0198 04       		.byte	0x4
 1755 0199 6C6F6E67 		.ascii "long double\0"
 1755      20646F75 
 1755      626C6500 
 1756 01a5 04       		.uleb128 0x4
 1757 01a6 10       		.byte	0x10
 1758 01a7 04       		.byte	0x4
 1759 01a8 5F466C6F 		.ascii "_Float128\0"
 1759      61743132 
 1759      3800
 1760 01b2 04       		.uleb128 0x4
 1761 01b3 01       		.byte	0x1
 1762 01b4 06       		.byte	0x6
 1763 01b5 7369676E 		.ascii "signed char\0"
 1763      65642063 
 1763      68617200 
 1764 01c1 05       		.uleb128 0x5
 1765 01c2 75696E74 		.ascii "uint8_t\0"
 1765      385F7400 
 1766 01ca 04       		.byte	0x4
 1767 01cb 24       		.byte	0x24
 1768 01cc 19       		.byte	0x19
 1769 01cd 85010000 		.long	0x185
 1770 01d1 04       		.uleb128 0x4
 1771 01d2 02       		.byte	0x2
 1772 01d3 05       		.byte	0x5
 1773 01d4 73686F72 		.ascii "short int\0"
 1773      7420696E 
 1773      7400
 1774 01de 05       		.uleb128 0x5
 1775 01df 75696E74 		.ascii "uint16_t\0"
 1775      31365F74 
 1775      00
 1776 01e8 04       		.byte	0x4
 1777 01e9 26       		.byte	0x26
 1778 01ea 19       		.byte	0x19
 1779 01eb 2B010000 		.long	0x12b
 1780 01ef 04       		.uleb128 0x4
 1781 01f0 08       		.byte	0x8
 1782 01f1 07       		.byte	0x7
 1783 01f2 6C6F6E67 		.ascii "long long unsigned int\0"
 1783      206C6F6E 
GAS LISTING C:\Users\jisu8\AppData\Local\Temp\ccw96xXP.s 			page 44


 1783      6720756E 
 1783      7369676E 
 1783      65642069 
 1784 0209 08       		.uleb128 0x8
 1785 020a 5F696F62 		.ascii "_iobuf\0"
 1785      756600
 1786 0211 20       		.byte	0x20
 1787 0212 05       		.byte	0x5
 1788 0213 1A       		.byte	0x1a
 1789 0214 0A       		.byte	0xa
 1790 0215 A9020000 		.long	0x2a9
 1791 0219 09       		.uleb128 0x9
 1792 021a 5F707472 		.ascii "_ptr\0"
 1792      00
 1793 021f 05       		.byte	0x5
 1794 0220 1B       		.byte	0x1b
 1795 0221 0B       		.byte	0xb
 1796 0222 5E010000 		.long	0x15e
 1797 0226 02       		.byte	0x2
 1798 0227 23       		.byte	0x23
 1799 0228 00       		.uleb128 0
 1800 0229 09       		.uleb128 0x9
 1801 022a 5F636E74 		.ascii "_cnt\0"
 1801      00
 1802 022f 05       		.byte	0x5
 1803 0230 1C       		.byte	0x1c
 1804 0231 09       		.byte	0x9
 1805 0232 0F010000 		.long	0x10f
 1806 0236 02       		.byte	0x2
 1807 0237 23       		.byte	0x23
 1808 0238 04       		.uleb128 0x4
 1809 0239 09       		.uleb128 0x9
 1810 023a 5F626173 		.ascii "_base\0"
 1810      6500
 1811 0240 05       		.byte	0x5
 1812 0241 1D       		.byte	0x1d
 1813 0242 0B       		.byte	0xb
 1814 0243 5E010000 		.long	0x15e
 1815 0247 02       		.byte	0x2
 1816 0248 23       		.byte	0x23
 1817 0249 08       		.uleb128 0x8
 1818 024a 09       		.uleb128 0x9
 1819 024b 5F666C61 		.ascii "_flag\0"
 1819      6700
 1820 0251 05       		.byte	0x5
 1821 0252 1E       		.byte	0x1e
 1822 0253 09       		.byte	0x9
 1823 0254 0F010000 		.long	0x10f
 1824 0258 02       		.byte	0x2
 1825 0259 23       		.byte	0x23
 1826 025a 0C       		.uleb128 0xc
 1827 025b 09       		.uleb128 0x9
 1828 025c 5F66696C 		.ascii "_file\0"
 1828      6500
 1829 0262 05       		.byte	0x5
 1830 0263 1F       		.byte	0x1f
 1831 0264 09       		.byte	0x9
GAS LISTING C:\Users\jisu8\AppData\Local\Temp\ccw96xXP.s 			page 45


 1832 0265 0F010000 		.long	0x10f
 1833 0269 02       		.byte	0x2
 1834 026a 23       		.byte	0x23
 1835 026b 10       		.uleb128 0x10
 1836 026c 09       		.uleb128 0x9
 1837 026d 5F636861 		.ascii "_charbuf\0"
 1837      72627566 
 1837      00
 1838 0276 05       		.byte	0x5
 1839 0277 20       		.byte	0x20
 1840 0278 09       		.byte	0x9
 1841 0279 0F010000 		.long	0x10f
 1842 027d 02       		.byte	0x2
 1843 027e 23       		.byte	0x23
 1844 027f 14       		.uleb128 0x14
 1845 0280 09       		.uleb128 0x9
 1846 0281 5F627566 		.ascii "_bufsiz\0"
 1846      73697A00 
 1847 0289 05       		.byte	0x5
 1848 028a 21       		.byte	0x21
 1849 028b 09       		.byte	0x9
 1850 028c 0F010000 		.long	0x10f
 1851 0290 02       		.byte	0x2
 1852 0291 23       		.byte	0x23
 1853 0292 18       		.uleb128 0x18
 1854 0293 09       		.uleb128 0x9
 1855 0294 5F746D70 		.ascii "_tmpfname\0"
 1855      666E616D 
 1855      6500
 1856 029e 05       		.byte	0x5
 1857 029f 22       		.byte	0x22
 1858 02a0 0B       		.byte	0xb
 1859 02a1 5E010000 		.long	0x15e
 1860 02a5 02       		.byte	0x2
 1861 02a6 23       		.byte	0x23
 1862 02a7 1C       		.uleb128 0x1c
 1863 02a8 00       		.byte	0
 1864 02a9 05       		.uleb128 0x5
 1865 02aa 46494C45 		.ascii "FILE\0"
 1865      00
 1866 02af 05       		.byte	0x5
 1867 02b0 24       		.byte	0x24
 1868 02b1 19       		.byte	0x19
 1869 02b2 09020000 		.long	0x209
 1870 02b6 0A       		.uleb128 0xa
 1871 02b7 A9020000 		.long	0x2a9
 1872 02bb C1020000 		.long	0x2c1
 1873 02bf 0B       		.uleb128 0xb
 1874 02c0 00       		.byte	0
 1875 02c1 0C       		.uleb128 0xc
 1876 02c2 5F696D70 		.ascii "_imp___iob\0"
 1876      5F5F5F69 
 1876      6F6200
 1877 02cd 05       		.byte	0x5
 1878 02ce 5C       		.byte	0x5c
 1879 02cf 10       		.byte	0x10
 1880 02d0 D6020000 		.long	0x2d6
GAS LISTING C:\Users\jisu8\AppData\Local\Temp\ccw96xXP.s 			page 46


 1881 02d4 01       		.byte	0x1
 1882 02d5 01       		.byte	0x1
 1883 02d6 07       		.uleb128 0x7
 1884 02d7 04       		.byte	0x4
 1885 02d8 B6020000 		.long	0x2b6
 1886 02dc 0D       		.uleb128 0xd
 1887 02dd 18       		.byte	0x18
 1888 02de 06       		.byte	0x6
 1889 02df 06       		.byte	0x6
 1890 02e0 09       		.byte	0x9
 1891 02e1 49030000 		.long	0x349
 1892 02e5 09       		.uleb128 0x9
 1893 02e6 70697865 		.ascii "pixels\0"
 1893      6C7300
 1894 02ed 06       		.byte	0x6
 1895 02ee 08       		.byte	0x8
 1896 02ef 15       		.byte	0x15
 1897 02f0 49030000 		.long	0x349
 1898 02f4 02       		.byte	0x2
 1899 02f5 23       		.byte	0x23
 1900 02f6 00       		.uleb128 0
 1901 02f7 09       		.uleb128 0x9
 1902 02f8 6C656674 		.ascii "left\0"
 1902      00
 1903 02fd 06       		.byte	0x6
 1904 02fe 09       		.byte	0x9
 1905 02ff 09       		.byte	0x9
 1906 0300 0F010000 		.long	0x10f
 1907 0304 02       		.byte	0x2
 1908 0305 23       		.byte	0x23
 1909 0306 04       		.uleb128 0x4
 1910 0307 09       		.uleb128 0x9
 1911 0308 746F7000 		.ascii "top\0"
 1912 030c 06       		.byte	0x6
 1913 030d 0A       		.byte	0xa
 1914 030e 09       		.byte	0x9
 1915 030f 0F010000 		.long	0x10f
 1916 0313 02       		.byte	0x2
 1917 0314 23       		.byte	0x23
 1918 0315 08       		.uleb128 0x8
 1919 0316 0E       		.uleb128 0xe
 1920 0317 67000000 		.secrel32	LASF0
 1921 031b 06       		.byte	0x6
 1922 031c 0B       		.byte	0xb
 1923 031d 09       		.byte	0x9
 1924 031e 0F010000 		.long	0x10f
 1925 0322 02       		.byte	0x2
 1926 0323 23       		.byte	0x23
 1927 0324 0C       		.uleb128 0xc
 1928 0325 0E       		.uleb128 0xe
 1929 0326 28000000 		.secrel32	LASF1
 1930 032a 06       		.byte	0x6
 1931 032b 0C       		.byte	0xc
 1932 032c 09       		.byte	0x9
 1933 032d 0F010000 		.long	0x10f
 1934 0331 02       		.byte	0x2
 1935 0332 23       		.byte	0x23
GAS LISTING C:\Users\jisu8\AppData\Local\Temp\ccw96xXP.s 			page 47


 1936 0333 10       		.uleb128 0x10
 1937 0334 09       		.uleb128 0x9
 1938 0335 726F7742 		.ascii "rowBytes\0"
 1938      79746573 
 1938      00
 1939 033e 06       		.byte	0x6
 1940 033f 0D       		.byte	0xd
 1941 0340 09       		.byte	0x9
 1942 0341 0F010000 		.long	0x10f
 1943 0345 02       		.byte	0x2
 1944 0346 23       		.byte	0x23
 1945 0347 14       		.uleb128 0x14
 1946 0348 00       		.byte	0
 1947 0349 07       		.uleb128 0x7
 1948 034a 04       		.byte	0x4
 1949 034b 85010000 		.long	0x185
 1950 034f 05       		.uleb128 0x5
 1951 0350 47656E65 		.ascii "GenericLuminanceSource_t\0"
 1951      7269634C 
 1951      756D696E 
 1951      616E6365 
 1951      536F7572 
 1952 0369 06       		.byte	0x6
 1953 036a 0E       		.byte	0xe
 1954 036b 02       		.byte	0x2
 1955 036c DC020000 		.long	0x2dc
 1956 0370 0D       		.uleb128 0xd
 1957 0371 10       		.byte	0x10
 1958 0372 07       		.byte	0x7
 1959 0373 06       		.byte	0x6
 1960 0374 09       		.byte	0x9
 1961 0375 C3030000 		.long	0x3c3
 1962 0379 09       		.uleb128 0x9
 1963 037a 5F776964 		.ascii "_width\0"
 1963      746800
 1964 0381 07       		.byte	0x7
 1965 0382 08       		.byte	0x8
 1966 0383 06       		.byte	0x6
 1967 0384 0F010000 		.long	0x10f
 1968 0388 02       		.byte	0x2
 1969 0389 23       		.byte	0x23
 1970 038a 00       		.uleb128 0
 1971 038b 09       		.uleb128 0x9
 1972 038c 5F686569 		.ascii "_height\0"
 1972      67687400 
 1973 0394 07       		.byte	0x7
 1974 0395 09       		.byte	0x9
 1975 0396 06       		.byte	0x6
 1976 0397 0F010000 		.long	0x10f
 1977 039b 02       		.byte	0x2
 1978 039c 23       		.byte	0x23
 1979 039d 04       		.uleb128 0x4
 1980 039e 09       		.uleb128 0x9
 1981 039f 5F726F77 		.ascii "_rowSize\0"
 1981      53697A65 
 1981      00
 1982 03a8 07       		.byte	0x7
GAS LISTING C:\Users\jisu8\AppData\Local\Temp\ccw96xXP.s 			page 48


 1983 03a9 0A       		.byte	0xa
 1984 03aa 06       		.byte	0x6
 1985 03ab 0F010000 		.long	0x10f
 1986 03af 02       		.byte	0x2
 1987 03b0 23       		.byte	0x23
 1988 03b1 08       		.uleb128 0x8
 1989 03b2 09       		.uleb128 0x9
 1990 03b3 62697473 		.ascii "bits\0"
 1990      00
 1991 03b8 07       		.byte	0x7
 1992 03b9 0B       		.byte	0xb
 1993 03ba 0C       		.byte	0xc
 1994 03bb C3030000 		.long	0x3c3
 1995 03bf 02       		.byte	0x2
 1996 03c0 23       		.byte	0x23
 1997 03c1 0C       		.uleb128 0xc
 1998 03c2 00       		.byte	0
 1999 03c3 07       		.uleb128 0x7
 2000 03c4 04       		.byte	0x4
 2001 03c5 C1010000 		.long	0x1c1
 2002 03c9 05       		.uleb128 0x5
 2003 03ca 4269744D 		.ascii "BitMatrix_t\0"
 2003      61747269 
 2003      785F7400 
 2004 03d6 07       		.byte	0x7
 2005 03d7 0E       		.byte	0xe
 2006 03d8 02       		.byte	0x2
 2007 03d9 70030000 		.long	0x370
 2008 03dd 06       		.uleb128 0x6
 2009 03de C9030000 		.long	0x3c9
 2010 03e2 0D       		.uleb128 0xd
 2011 03e3 08       		.byte	0x8
 2012 03e4 08       		.byte	0x8
 2013 03e5 14       		.byte	0x14
 2014 03e6 09       		.byte	0x9
 2015 03e7 06040000 		.long	0x406
 2016 03eb 09       		.uleb128 0x9
 2017 03ec 7800     		.ascii "x\0"
 2018 03ee 08       		.byte	0x8
 2019 03ef 16       		.byte	0x16
 2020 03f0 08       		.byte	0x8
 2021 03f1 06040000 		.long	0x406
 2022 03f5 02       		.byte	0x2
 2023 03f6 23       		.byte	0x23
 2024 03f7 00       		.uleb128 0
 2025 03f8 09       		.uleb128 0x9
 2026 03f9 7900     		.ascii "y\0"
 2027 03fb 08       		.byte	0x8
 2028 03fc 17       		.byte	0x17
 2029 03fd 08       		.byte	0x8
 2030 03fe 06040000 		.long	0x406
 2031 0402 02       		.byte	0x2
 2032 0403 23       		.byte	0x23
 2033 0404 04       		.uleb128 0x4
 2034 0405 00       		.byte	0
 2035 0406 04       		.uleb128 0x4
 2036 0407 04       		.byte	0x4
GAS LISTING C:\Users\jisu8\AppData\Local\Temp\ccw96xXP.s 			page 49


 2037 0408 04       		.byte	0x4
 2038 0409 666C6F61 		.ascii "float\0"
 2038      7400
 2039 040f 06       		.uleb128 0x6
 2040 0410 06040000 		.long	0x406
 2041 0414 05       		.uleb128 0x5
 2042 0415 506F696E 		.ascii "PointT_t\0"
 2042      74545F74 
 2042      00
 2043 041e 08       		.byte	0x8
 2044 041f 18       		.byte	0x18
 2045 0420 02       		.byte	0x2
 2046 0421 E2030000 		.long	0x3e2
 2047 0425 0D       		.uleb128 0xd
 2048 0426 0C       		.byte	0xc
 2049 0427 08       		.byte	0x8
 2050 0428 1A       		.byte	0x1a
 2051 0429 09       		.byte	0x9
 2052 042a 58040000 		.long	0x458
 2053 042e 09       		.uleb128 0x9
 2054 042f 6D5F6861 		.ascii "m_hasValue\0"
 2054      7356616C 
 2054      756500
 2055 043a 08       		.byte	0x8
 2056 043b 1C       		.byte	0x1c
 2057 043c 0A       		.byte	0xa
 2058 043d C1010000 		.long	0x1c1
 2059 0441 02       		.byte	0x2
 2060 0442 23       		.byte	0x23
 2061 0443 00       		.uleb128 0
 2062 0444 09       		.uleb128 0x9
 2063 0445 6D5F7661 		.ascii "m_value\0"
 2063      6C756500 
 2064 044d 08       		.byte	0x8
 2065 044e 1D       		.byte	0x1d
 2066 044f 0B       		.byte	0xb
 2067 0450 14040000 		.long	0x414
 2068 0454 02       		.byte	0x2
 2069 0455 23       		.byte	0x23
 2070 0456 04       		.uleb128 0x4
 2071 0457 00       		.byte	0
 2072 0458 05       		.uleb128 0x5
 2073 0459 52657375 		.ascii "ResultPoint_t\0"
 2073      6C74506F 
 2073      696E745F 
 2073      7400
 2074 0467 08       		.byte	0x8
 2075 0468 1E       		.byte	0x1e
 2076 0469 02       		.byte	0x2
 2077 046a 25040000 		.long	0x425
 2078 046e 06       		.uleb128 0x6
 2079 046f 58040000 		.long	0x458
 2080 0473 0D       		.uleb128 0xd
 2081 0474 08       		.byte	0x8
 2082 0475 09       		.byte	0x9
 2083 0476 09       		.byte	0x9
 2084 0477 09       		.byte	0x9
GAS LISTING C:\Users\jisu8\AppData\Local\Temp\ccw96xXP.s 			page 50


 2085 0478 9F040000 		.long	0x49f
 2086 047c 09       		.uleb128 0x9
 2087 047d 62697473 		.ascii "bits\0"
 2087      00
 2088 0482 09       		.byte	0x9
 2089 0483 0B       		.byte	0xb
 2090 0484 10       		.byte	0x10
 2091 0485 9F040000 		.long	0x49f
 2092 0489 02       		.byte	0x2
 2093 048a 23       		.byte	0x23
 2094 048b 00       		.uleb128 0
 2095 048c 09       		.uleb128 0x9
 2096 048d 706F696E 		.ascii "points\0"
 2096      747300
 2097 0494 09       		.byte	0x9
 2098 0495 0C       		.byte	0xc
 2099 0496 12       		.byte	0x12
 2100 0497 A5040000 		.long	0x4a5
 2101 049b 02       		.byte	0x2
 2102 049c 23       		.byte	0x23
 2103 049d 04       		.uleb128 0x4
 2104 049e 00       		.byte	0
 2105 049f 07       		.uleb128 0x7
 2106 04a0 04       		.byte	0x4
 2107 04a1 C9030000 		.long	0x3c9
 2108 04a5 07       		.uleb128 0x7
 2109 04a6 04       		.byte	0x4
 2110 04a7 58040000 		.long	0x458
 2111 04ab 05       		.uleb128 0x5
 2112 04ac 44657465 		.ascii "Detector_Result_t\0"
 2112      63746F72 
 2112      5F526573 
 2112      756C745F 
 2112      7400
 2113 04be 09       		.byte	0x9
 2114 04bf 0D       		.byte	0xd
 2115 04c0 02       		.byte	0x2
 2116 04c1 73040000 		.long	0x473
 2117 04c5 04       		.uleb128 0x4
 2118 04c6 08       		.byte	0x8
 2119 04c7 04       		.byte	0x4
 2120 04c8 646F7562 		.ascii "double\0"
 2120      6C6500
 2121 04cf 0C       		.uleb128 0xc
 2122 04d0 5F696D70 		.ascii "_imp____mb_cur_max\0"
 2122      5F5F5F5F 
 2122      6D625F63 
 2122      75725F6D 
 2122      617800
 2123 04e3 0A       		.byte	0xa
 2124 04e4 73       		.byte	0x73
 2125 04e5 10       		.byte	0x10
 2126 04e6 6A010000 		.long	0x16a
 2127 04ea 01       		.byte	0x1
 2128 04eb 01       		.byte	0x1
 2129 04ec 0A       		.uleb128 0xa
 2130 04ed 5E010000 		.long	0x15e
GAS LISTING C:\Users\jisu8\AppData\Local\Temp\ccw96xXP.s 			page 51


 2131 04f1 FC040000 		.long	0x4fc
 2132 04f5 0F       		.uleb128 0xf
 2133 04f6 D1000000 		.long	0xd1
 2134 04fa 00       		.byte	0
 2135 04fb 00       		.byte	0
 2136 04fc 0C       		.uleb128 0xc
 2137 04fd 5F737973 		.ascii "_sys_errlist\0"
 2137      5F657272 
 2137      6C697374 
 2137      00
 2138 050a 0A       		.byte	0xa
 2139 050b AC       		.byte	0xac
 2140 050c 26       		.byte	0x26
 2141 050d EC040000 		.long	0x4ec
 2142 0511 01       		.byte	0x1
 2143 0512 01       		.byte	0x1
 2144 0513 0C       		.uleb128 0xc
 2145 0514 5F737973 		.ascii "_sys_nerr\0"
 2145      5F6E6572 
 2145      7200
 2146 051e 0A       		.byte	0xa
 2147 051f AD       		.byte	0xad
 2148 0520 24       		.byte	0x24
 2149 0521 0F010000 		.long	0x10f
 2150 0525 01       		.byte	0x1
 2151 0526 01       		.byte	0x1
 2152 0527 10       		.uleb128 0x10
 2153 0528 5F696D70 		.ascii "_imp____argc\0"
 2153      5F5F5F5F 
 2153      61726763 
 2153      00
 2154 0535 0A       		.byte	0xa
 2155 0536 1901     		.word	0x119
 2156 0538 10       		.byte	0x10
 2157 0539 6A010000 		.long	0x16a
 2158 053d 01       		.byte	0x1
 2159 053e 01       		.byte	0x1
 2160 053f 10       		.uleb128 0x10
 2161 0540 5F696D70 		.ascii "_imp____argv\0"
 2161      5F5F5F5F 
 2161      61726776 
 2161      00
 2162 054d 0A       		.byte	0xa
 2163 054e 1D01     		.word	0x11d
 2164 0550 13       		.byte	0x13
 2165 0551 57050000 		.long	0x557
 2166 0555 01       		.byte	0x1
 2167 0556 01       		.byte	0x1
 2168 0557 07       		.uleb128 0x7
 2169 0558 04       		.byte	0x4
 2170 0559 5D050000 		.long	0x55d
 2171 055d 07       		.uleb128 0x7
 2172 055e 04       		.byte	0x4
 2173 055f 5E010000 		.long	0x15e
 2174 0563 10       		.uleb128 0x10
 2175 0564 5F696D70 		.ascii "_imp____wargv\0"
 2175      5F5F5F5F 
GAS LISTING C:\Users\jisu8\AppData\Local\Temp\ccw96xXP.s 			page 52


 2175      77617267 
 2175      7600
 2176 0572 0A       		.byte	0xa
 2177 0573 2101     		.word	0x121
 2178 0575 16       		.byte	0x16
 2179 0576 7C050000 		.long	0x57c
 2180 057a 01       		.byte	0x1
 2181 057b 01       		.byte	0x1
 2182 057c 07       		.uleb128 0x7
 2183 057d 04       		.byte	0x4
 2184 057e 82050000 		.long	0x582
 2185 0582 07       		.uleb128 0x7
 2186 0583 04       		.byte	0x4
 2187 0584 64010000 		.long	0x164
 2188 0588 10       		.uleb128 0x10
 2189 0589 5F696D70 		.ascii "_imp___environ\0"
 2189      5F5F5F65 
 2189      6E766972 
 2189      6F6E00
 2190 0598 0A       		.byte	0xa
 2191 0599 2701     		.word	0x127
 2192 059b 13       		.byte	0x13
 2193 059c 57050000 		.long	0x557
 2194 05a0 01       		.byte	0x1
 2195 05a1 01       		.byte	0x1
 2196 05a2 10       		.uleb128 0x10
 2197 05a3 5F696D70 		.ascii "_imp___wenviron\0"
 2197      5F5F5F77 
 2197      656E7669 
 2197      726F6E00 
 2198 05b3 0A       		.byte	0xa
 2199 05b4 2C01     		.word	0x12c
 2200 05b6 16       		.byte	0x16
 2201 05b7 7C050000 		.long	0x57c
 2202 05bb 01       		.byte	0x1
 2203 05bc 01       		.byte	0x1
 2204 05bd 10       		.uleb128 0x10
 2205 05be 5F696D70 		.ascii "_imp___pgmptr\0"
 2205      5F5F5F70 
 2205      676D7074 
 2205      7200
 2206 05cc 0A       		.byte	0xa
 2207 05cd 3201     		.word	0x132
 2208 05cf 12       		.byte	0x12
 2209 05d0 5D050000 		.long	0x55d
 2210 05d4 01       		.byte	0x1
 2211 05d5 01       		.byte	0x1
 2212 05d6 10       		.uleb128 0x10
 2213 05d7 5F696D70 		.ascii "_imp___wpgmptr\0"
 2213      5F5F5F77 
 2213      70676D70 
 2213      747200
 2214 05e6 0A       		.byte	0xa
 2215 05e7 3701     		.word	0x137
 2216 05e9 15       		.byte	0x15
 2217 05ea 82050000 		.long	0x582
 2218 05ee 01       		.byte	0x1
GAS LISTING C:\Users\jisu8\AppData\Local\Temp\ccw96xXP.s 			page 53


 2219 05ef 01       		.byte	0x1
 2220 05f0 10       		.uleb128 0x10
 2221 05f1 5F696D70 		.ascii "_imp___osplatform\0"
 2221      5F5F5F6F 
 2221      73706C61 
 2221      74666F72 
 2221      6D00
 2222 0603 0A       		.byte	0xa
 2223 0604 3C01     		.word	0x13c
 2224 0606 19       		.byte	0x19
 2225 0607 0D060000 		.long	0x60d
 2226 060b 01       		.byte	0x1
 2227 060c 01       		.byte	0x1
 2228 060d 07       		.uleb128 0x7
 2229 060e 04       		.byte	0x4
 2230 060f D1000000 		.long	0xd1
 2231 0613 10       		.uleb128 0x10
 2232 0614 5F696D70 		.ascii "_imp___osver\0"
 2232      5F5F5F6F 
 2232      73766572 
 2232      00
 2233 0621 0A       		.byte	0xa
 2234 0622 4101     		.word	0x141
 2235 0624 19       		.byte	0x19
 2236 0625 0D060000 		.long	0x60d
 2237 0629 01       		.byte	0x1
 2238 062a 01       		.byte	0x1
 2239 062b 10       		.uleb128 0x10
 2240 062c 5F696D70 		.ascii "_imp___winver\0"
 2240      5F5F5F77 
 2240      696E7665 
 2240      7200
 2241 063a 0A       		.byte	0xa
 2242 063b 4601     		.word	0x146
 2243 063d 19       		.byte	0x19
 2244 063e 0D060000 		.long	0x60d
 2245 0642 01       		.byte	0x1
 2246 0643 01       		.byte	0x1
 2247 0644 10       		.uleb128 0x10
 2248 0645 5F696D70 		.ascii "_imp___winmajor\0"
 2248      5F5F5F77 
 2248      696E6D61 
 2248      6A6F7200 
 2249 0655 0A       		.byte	0xa
 2250 0656 4B01     		.word	0x14b
 2251 0658 19       		.byte	0x19
 2252 0659 0D060000 		.long	0x60d
 2253 065d 01       		.byte	0x1
 2254 065e 01       		.byte	0x1
 2255 065f 10       		.uleb128 0x10
 2256 0660 5F696D70 		.ascii "_imp___winminor\0"
 2256      5F5F5F77 
 2256      696E6D69 
 2256      6E6F7200 
 2257 0670 0A       		.byte	0xa
 2258 0671 5001     		.word	0x150
 2259 0673 19       		.byte	0x19
GAS LISTING C:\Users\jisu8\AppData\Local\Temp\ccw96xXP.s 			page 54


 2260 0674 0D060000 		.long	0x60d
 2261 0678 01       		.byte	0x1
 2262 0679 01       		.byte	0x1
 2263 067a 0C       		.uleb128 0xc
 2264 067b 5F616D62 		.ascii "_amblksiz\0"
 2264      6C6B7369 
 2264      7A00
 2265 0685 0B       		.byte	0xb
 2266 0686 35       		.byte	0x35
 2267 0687 17       		.byte	0x17
 2268 0688 D1000000 		.long	0xd1
 2269 068c 01       		.byte	0x1
 2270 068d 01       		.byte	0x1
 2271 068e 0A       		.uleb128 0xa
 2272 068f 16010000 		.long	0x116
 2273 0693 9E060000 		.long	0x69e
 2274 0697 0F       		.uleb128 0xf
 2275 0698 D1000000 		.long	0xd1
 2276 069c 03       		.byte	0x3
 2277 069d 00       		.byte	0
 2278 069e 06       		.uleb128 0x6
 2279 069f 8E060000 		.long	0x68e
 2280 06a3 11       		.uleb128 0x11
 2281 06a4 494E4445 		.ascii "INDEXES_START_PATTERN\0"
 2281      5845535F 
 2281      53544152 
 2281      545F5041 
 2281      54544552 
 2282 06ba 01       		.byte	0x1
 2283 06bb 0B       		.byte	0xb
 2284 06bc 12       		.byte	0x12
 2285 06bd 9E060000 		.long	0x69e
 2286 06c1 05       		.byte	0x5
 2287 06c2 03       		.byte	0x3
 2288 06c3 00000000 		.long	_INDEXES_START_PATTERN
 2289 06c7 11       		.uleb128 0x11
 2290 06c8 494E4445 		.ascii "INDEXES_STOP_PATTERN\0"
 2290      5845535F 
 2290      53544F50 
 2290      5F504154 
 2290      5445524E 
 2291 06dd 01       		.byte	0x1
 2292 06de 0C       		.byte	0xc
 2293 06df 12       		.byte	0x12
 2294 06e0 9E060000 		.long	0x69e
 2295 06e4 05       		.byte	0x5
 2296 06e5 03       		.byte	0x3
 2297 06e6 10000000 		.long	_INDEXES_STOP_PATTERN
 2298 06ea 11       		.uleb128 0x11
 2299 06eb 4D41585F 		.ascii "MAX_AVG_VARIANCE\0"
 2299      4156475F 
 2299      56415249 
 2299      414E4345 
 2299      00
 2300 06fc 01       		.byte	0x1
 2301 06fd 0D       		.byte	0xd
 2302 06fe 14       		.byte	0x14
GAS LISTING C:\Users\jisu8\AppData\Local\Temp\ccw96xXP.s 			page 55


 2303 06ff 0F040000 		.long	0x40f
 2304 0703 05       		.byte	0x5
 2305 0704 03       		.byte	0x3
 2306 0705 20000000 		.long	_MAX_AVG_VARIANCE
 2307 0709 11       		.uleb128 0x11
 2308 070a 4D41585F 		.ascii "MAX_INDIVIDUAL_VARIANCE\0"
 2308      494E4449 
 2308      56494455 
 2308      414C5F56 
 2308      41524941 
 2309 0722 01       		.byte	0x1
 2310 0723 0E       		.byte	0xe
 2311 0724 14       		.byte	0x14
 2312 0725 0F040000 		.long	0x40f
 2313 0729 05       		.byte	0x5
 2314 072a 03       		.byte	0x3
 2315 072b 24000000 		.long	_MAX_INDIVIDUAL_VARIANCE
 2316 072f 0A       		.uleb128 0xa
 2317 0730 16010000 		.long	0x116
 2318 0734 3F070000 		.long	0x73f
 2319 0738 0F       		.uleb128 0xf
 2320 0739 D1000000 		.long	0xd1
 2321 073d 07       		.byte	0x7
 2322 073e 00       		.byte	0
 2323 073f 06       		.uleb128 0x6
 2324 0740 2F070000 		.long	0x72f
 2325 0744 12       		.uleb128 0x12
 2326 0745 00000000 		.secrel32	LASF2
 2327 0749 01       		.byte	0x1
 2328 074a 12       		.byte	0x12
 2329 074b 12       		.byte	0x12
 2330 074c 3F070000 		.long	0x73f
 2331 0750 05       		.byte	0x5
 2332 0751 03       		.byte	0x3
 2333 0752 40000000 		.long	_START_PATTERN
 2334 0756 0A       		.uleb128 0xa
 2335 0757 16010000 		.long	0x116
 2336 075b 66070000 		.long	0x766
 2337 075f 0F       		.uleb128 0xf
 2338 0760 D1000000 		.long	0xd1
 2339 0764 08       		.byte	0x8
 2340 0765 00       		.byte	0
 2341 0766 06       		.uleb128 0x6
 2342 0767 56070000 		.long	0x756
 2343 076b 11       		.uleb128 0x11
 2344 076c 53544F50 		.ascii "STOP_PATTERN\0"
 2344      5F504154 
 2344      5445524E 
 2344      00
 2345 0779 01       		.byte	0x1
 2346 077a 14       		.byte	0x14
 2347 077b 12       		.byte	0x12
 2348 077c 66070000 		.long	0x766
 2349 0780 05       		.byte	0x5
 2350 0781 03       		.byte	0x3
 2351 0782 60000000 		.long	_STOP_PATTERN
 2352 0786 11       		.uleb128 0x11
GAS LISTING C:\Users\jisu8\AppData\Local\Temp\ccw96xXP.s 			page 56


 2353 0787 4D41585F 		.ascii "MAX_PIXEL_DRIFT\0"
 2353      50495845 
 2353      4C5F4452 
 2353      49465400 
 2354 0797 01       		.byte	0x1
 2355 0798 15       		.byte	0x15
 2356 0799 12       		.byte	0x12
 2357 079a 16010000 		.long	0x116
 2358 079e 05       		.byte	0x5
 2359 079f 03       		.byte	0x3
 2360 07a0 84000000 		.long	_MAX_PIXEL_DRIFT
 2361 07a4 11       		.uleb128 0x11
 2362 07a5 4D41585F 		.ascii "MAX_PATTERN_DRIFT\0"
 2362      50415454 
 2362      45524E5F 
 2362      44524946 
 2362      5400
 2363 07b7 01       		.byte	0x1
 2364 07b8 16       		.byte	0x16
 2365 07b9 12       		.byte	0x12
 2366 07ba 16010000 		.long	0x116
 2367 07be 05       		.byte	0x5
 2368 07bf 03       		.byte	0x3
 2369 07c0 88000000 		.long	_MAX_PATTERN_DRIFT
 2370 07c4 11       		.uleb128 0x11
 2371 07c5 534B4950 		.ascii "SKIPPED_ROW_COUNT_MAX\0"
 2371      5045445F 
 2371      524F575F 
 2371      434F554E 
 2371      545F4D41 
 2372 07db 01       		.byte	0x1
 2373 07dc 19       		.byte	0x19
 2374 07dd 12       		.byte	0x12
 2375 07de 16010000 		.long	0x116
 2376 07e2 05       		.byte	0x5
 2377 07e3 03       		.byte	0x3
 2378 07e4 8C000000 		.long	_SKIPPED_ROW_COUNT_MAX
 2379 07e8 11       		.uleb128 0x11
 2380 07e9 524F575F 		.ascii "ROW_STEP\0"
 2380      53544550 
 2380      00
 2381 07f2 01       		.byte	0x1
 2382 07f3 1C       		.byte	0x1c
 2383 07f4 12       		.byte	0x12
 2384 07f5 16010000 		.long	0x116
 2385 07f9 05       		.byte	0x5
 2386 07fa 03       		.byte	0x3
 2387 07fb 90000000 		.long	_ROW_STEP
 2388 07ff 11       		.uleb128 0x11
 2389 0800 42415243 		.ascii "BARCODE_MIN_HEIGHT\0"
 2389      4F44455F 
 2389      4D494E5F 
 2389      48454947 
 2389      485400
 2390 0813 01       		.byte	0x1
 2391 0814 1D       		.byte	0x1d
 2392 0815 12       		.byte	0x12
GAS LISTING C:\Users\jisu8\AppData\Local\Temp\ccw96xXP.s 			page 57


 2393 0816 16010000 		.long	0x116
 2394 081a 05       		.byte	0x5
 2395 081b 03       		.byte	0x3
 2396 081c 94000000 		.long	_BARCODE_MIN_HEIGHT
 2397 0820 0A       		.uleb128 0xa
 2398 0821 58040000 		.long	0x458
 2399 0825 30080000 		.long	0x830
 2400 0829 0F       		.uleb128 0xf
 2401 082a D1000000 		.long	0xd1
 2402 082e 07       		.byte	0x7
 2403 082f 00       		.byte	0
 2404 0830 11       		.uleb128 0x11
 2405 0831 56657274 		.ascii "Vertice_Result\0"
 2405      6963655F 
 2405      52657375 
 2405      6C7400
 2406 0840 01       		.byte	0x1
 2407 0841 1F       		.byte	0x1f
 2408 0842 16       		.byte	0x16
 2409 0843 20080000 		.long	0x820
 2410 0847 05       		.byte	0x5
 2411 0848 03       		.byte	0x3
 2412 0849 00000000 		.long	_Vertice_Result
 2413 084d 13       		.uleb128 0x13
 2414 084e 01       		.byte	0x1
 2415 084f 44657465 		.ascii "Detect\0"
 2415      637400
 2416 0856 01       		.byte	0x1
 2417 0857 7101     		.word	0x171
 2418 0859 10       		.byte	0x10
 2419 085a 01       		.byte	0x1
 2420 085b E1000000 		.long	0xe1
 2421 085f 8A0B0000 		.long	LFB24
 2422 0863 450C0000 		.long	LFE24
 2423 0867 00000000 		.secrel32	LLST8
 2424 086b 01       		.byte	0x1
 2425 086c DA080000 		.long	0x8da
 2426 0870 14       		.uleb128 0x14
 2427 0871 696D6167 		.ascii "image\0"
 2427      6500
 2428 0877 01       		.byte	0x1
 2429 0878 7101     		.word	0x171
 2430 087a 32       		.byte	0x32
 2431 087b DA080000 		.long	0x8da
 2432 087f 02       		.byte	0x2
 2433 0880 91       		.byte	0x91
 2434 0881 00       		.sleb128 0
 2435 0882 15       		.uleb128 0x15
 2436 0883 80000000 		.secrel32	LASF3
 2437 0887 01       		.byte	0x1
 2438 0888 7101     		.word	0x171
 2439 088a 47       		.byte	0x47
 2440 088b 85010000 		.long	0x185
 2441 088f 02       		.byte	0x2
 2442 0890 91       		.byte	0x91
 2443 0891 5C       		.sleb128 -36
 2444 0892 15       		.uleb128 0x15
GAS LISTING C:\Users\jisu8\AppData\Local\Temp\ccw96xXP.s 			page 58


 2445 0893 59000000 		.secrel32	LASF4
 2446 0897 01       		.byte	0x1
 2447 0898 7101     		.word	0x171
 2448 089a 65       		.byte	0x65
 2449 089b E0080000 		.long	0x8e0
 2450 089f 02       		.byte	0x2
 2451 08a0 91       		.byte	0x91
 2452 08a1 08       		.sleb128 8
 2453 08a2 16       		.uleb128 0x16
 2454 08a3 62696E49 		.ascii "binImg\0"
 2454      6D6700
 2455 08aa 01       		.byte	0x1
 2456 08ab 7401     		.word	0x174
 2457 08ad 10       		.byte	0x10
 2458 08ae 9F040000 		.long	0x49f
 2459 08b2 02       		.byte	0x2
 2460 08b3 91       		.byte	0x91
 2461 08b4 6C       		.sleb128 -20
 2462 08b5 17       		.uleb128 0x17
 2463 08b6 6D000000 		.secrel32	LASF5
 2464 08ba 01       		.byte	0x1
 2465 08bb 7501     		.word	0x175
 2466 08bd 12       		.byte	0x12
 2467 08be A5040000 		.long	0x4a5
 2468 08c2 02       		.byte	0x2
 2469 08c3 91       		.byte	0x91
 2470 08c4 68       		.sleb128 -24
 2471 08c5 16       		.uleb128 0x16
 2472 08c6 6E657742 		.ascii "newBits\0"
 2472      69747300 
 2473 08ce 01       		.byte	0x1
 2474 08cf 7601     		.word	0x176
 2475 08d1 12       		.byte	0x12
 2476 08d2 49030000 		.long	0x349
 2477 08d6 02       		.byte	0x2
 2478 08d7 91       		.byte	0x91
 2479 08d8 64       		.sleb128 -28
 2480 08d9 00       		.byte	0
 2481 08da 07       		.uleb128 0x7
 2482 08db 04       		.byte	0x4
 2483 08dc 4F030000 		.long	0x34f
 2484 08e0 07       		.uleb128 0x7
 2485 08e1 04       		.byte	0x4
 2486 08e2 AB040000 		.long	0x4ab
 2487 08e6 18       		.uleb128 0x18
 2488 08e7 456D7074 		.ascii "Empty_Check\0"
 2488      795F4368 
 2488      65636B00 
 2489 08f3 01       		.byte	0x1
 2490 08f4 5A01     		.word	0x15a
 2491 08f6 10       		.byte	0x10
 2492 08f7 01       		.byte	0x1
 2493 08f8 C1010000 		.long	0x1c1
 2494 08fc 2C0B0000 		.long	LFB23
 2495 0900 8A0B0000 		.long	LFE23
 2496 0904 38000000 		.secrel32	LLST7
 2497 0908 01       		.byte	0x1
GAS LISTING C:\Users\jisu8\AppData\Local\Temp\ccw96xXP.s 			page 59


 2498 0909 59090000 		.long	0x959
 2499 090d 15       		.uleb128 0x15
 2500 090e 6D000000 		.secrel32	LASF5
 2501 0912 01       		.byte	0x1
 2502 0913 5A01     		.word	0x15a
 2503 0915 2C       		.byte	0x2c
 2504 0916 A5040000 		.long	0x4a5
 2505 091a 02       		.byte	0x2
 2506 091b 91       		.byte	0x91
 2507 091c 00       		.sleb128 0
 2508 091d 16       		.uleb128 0x16
 2509 091e 73746174 		.ascii "status\0"
 2509      757300
 2510 0925 01       		.byte	0x1
 2511 0926 5C01     		.word	0x15c
 2512 0928 0A       		.byte	0xa
 2513 0929 C1010000 		.long	0x1c1
 2514 092d 02       		.byte	0x2
 2515 092e 91       		.byte	0x91
 2516 092f 77       		.sleb128 -9
 2517 0930 16       		.uleb128 0x16
 2518 0931 72657400 		.ascii "ret\0"
 2519 0935 01       		.byte	0x1
 2520 0936 5D01     		.word	0x15d
 2521 0938 0A       		.byte	0xa
 2522 0939 C1010000 		.long	0x1c1
 2523 093d 02       		.byte	0x2
 2524 093e 91       		.byte	0x91
 2525 093f 76       		.sleb128 -10
 2526 0940 19       		.uleb128 0x19
 2527 0941 3A0B0000 		.long	LBB16
 2528 0945 740B0000 		.long	LBE16
 2529 0949 16       		.uleb128 0x16
 2530 094a 6900     		.ascii "i\0"
 2531 094c 01       		.byte	0x1
 2532 094d 5E01     		.word	0x15e
 2533 094f 0E       		.byte	0xe
 2534 0950 C1010000 		.long	0x1c1
 2535 0954 02       		.byte	0x2
 2536 0955 91       		.byte	0x91
 2537 0956 75       		.sleb128 -11
 2538 0957 00       		.byte	0
 2539 0958 00       		.byte	0
 2540 0959 13       		.uleb128 0x13
 2541 095a 01       		.byte	0x1
 2542 095b 48617353 		.ascii "HasStartPattern\0"
 2542      74617274 
 2542      50617474 
 2542      65726E00 
 2543 096b 01       		.byte	0x1
 2544 096c 4401     		.word	0x144
 2545 096e 09       		.byte	0x9
 2546 096f 01       		.byte	0x1
 2547 0970 C1010000 		.long	0x1c1
 2548 0974 980A0000 		.long	LFB22
 2549 0978 2C0B0000 		.long	LFE22
 2550 097c 70000000 		.secrel32	LLST6
GAS LISTING C:\Users\jisu8\AppData\Local\Temp\ccw96xXP.s 			page 60


 2551 0980 01       		.byte	0x1
 2552 0981 E7090000 		.long	0x9e7
 2553 0985 14       		.uleb128 0x14
 2554 0986 6D00     		.ascii "m\0"
 2555 0988 01       		.byte	0x1
 2556 0989 4401     		.word	0x144
 2557 098b 2D       		.byte	0x2d
 2558 098c E7090000 		.long	0x9e7
 2559 0990 02       		.byte	0x2
 2560 0991 91       		.byte	0x91
 2561 0992 00       		.sleb128 0
 2562 0993 17       		.uleb128 0x17
 2563 0994 00000000 		.secrel32	LASF2
 2564 0998 01       		.byte	0x1
 2565 0999 4801     		.word	0x148
 2566 099b 06       		.byte	0x6
 2567 099c ED090000 		.long	0x9ed
 2568 09a0 02       		.byte	0x2
 2569 09a1 91       		.byte	0x91
 2570 09a2 44       		.sleb128 -60
 2571 09a3 16       		.uleb128 0x16
 2572 09a4 6D696E53 		.ascii "minSymbolWidth\0"
 2572      796D626F 
 2572      6C576964 
 2572      746800
 2573 09b3 01       		.byte	0x1
 2574 09b4 4901     		.word	0x149
 2575 09b6 06       		.byte	0x6
 2576 09b7 0F010000 		.long	0x10f
 2577 09bb 02       		.byte	0x2
 2578 09bc 91       		.byte	0x91
 2579 09bd 68       		.sleb128 -24
 2580 09be 16       		.uleb128 0x16
 2581 09bf 726F7700 		.ascii "row\0"
 2582 09c3 01       		.byte	0x1
 2583 09c4 4B01     		.word	0x14b
 2584 09c6 0D       		.byte	0xd
 2585 09c7 FD090000 		.long	0x9fd
 2586 09cb 02       		.byte	0x2
 2587 09cc 91       		.byte	0x91
 2588 09cd 64       		.sleb128 -28
 2589 09ce 19       		.uleb128 0x19
 2590 09cf F00A0000 		.long	LBB15
 2591 09d3 250B0000 		.long	LBE15
 2592 09d7 16       		.uleb128 0x16
 2593 09d8 7200     		.ascii "r\0"
 2594 09da 01       		.byte	0x1
 2595 09db 4D01     		.word	0x14d
 2596 09dd 0B       		.byte	0xb
 2597 09de 0F010000 		.long	0x10f
 2598 09e2 02       		.byte	0x2
 2599 09e3 91       		.byte	0x91
 2600 09e4 6C       		.sleb128 -20
 2601 09e5 00       		.byte	0
 2602 09e6 00       		.byte	0
 2603 09e7 07       		.uleb128 0x7
 2604 09e8 04       		.byte	0x4
GAS LISTING C:\Users\jisu8\AppData\Local\Temp\ccw96xXP.s 			page 61


 2605 09e9 DD030000 		.long	0x3dd
 2606 09ed 0A       		.uleb128 0xa
 2607 09ee 0F010000 		.long	0x10f
 2608 09f2 FD090000 		.long	0x9fd
 2609 09f6 0F       		.uleb128 0xf
 2610 09f7 D1000000 		.long	0xd1
 2611 09fb 07       		.byte	0x7
 2612 09fc 00       		.byte	0
 2613 09fd 07       		.uleb128 0x7
 2614 09fe 04       		.byte	0x4
 2615 09ff DE010000 		.long	0x1de
 2616 0a03 1A       		.uleb128 0x1a
 2617 0a04 44657465 		.ascii "DetectBarcode\0"
 2617      63744261 
 2617      72636F64 
 2617      6500
 2618 0a12 01       		.byte	0x1
 2619 0a13 0101     		.word	0x101
 2620 0a15 18       		.byte	0x18
 2621 0a16 01       		.byte	0x1
 2622 0a17 A5040000 		.long	0x4a5
 2623 0a1b 75090000 		.long	LFB21
 2624 0a1f 980A0000 		.long	LFE21
 2625 0a23 A8000000 		.secrel32	LLST5
 2626 0a27 01       		.byte	0x1
 2627 0a28 B90A0000 		.long	0xab9
 2628 0a2c 14       		.uleb128 0x14
 2629 0a2d 6269744D 		.ascii "bitMatrix\0"
 2629      61747269 
 2629      7800
 2630 0a37 01       		.byte	0x1
 2631 0a38 0101     		.word	0x101
 2632 0a3a 3A       		.byte	0x3a
 2633 0a3b E7090000 		.long	0x9e7
 2634 0a3f 02       		.byte	0x2
 2635 0a40 91       		.byte	0x91
 2636 0a41 00       		.sleb128 0
 2637 0a42 15       		.uleb128 0x15
 2638 0a43 80000000 		.secrel32	LASF3
 2639 0a47 01       		.byte	0x1
 2640 0a48 0101     		.word	0x101
 2641 0a4a 4D       		.byte	0x4d
 2642 0a4b C1010000 		.long	0x1c1
 2643 0a4f 02       		.byte	0x2
 2644 0a50 91       		.byte	0x91
 2645 0a51 4C       		.sleb128 -52
 2646 0a52 16       		.uleb128 0x16
 2647 0a53 726F7700 		.ascii "row\0"
 2648 0a57 01       		.byte	0x1
 2649 0a58 0401     		.word	0x104
 2650 0a5a 06       		.byte	0x6
 2651 0a5b 0F010000 		.long	0x10f
 2652 0a5f 02       		.byte	0x2
 2653 0a60 91       		.byte	0x91
 2654 0a61 6C       		.sleb128 -20
 2655 0a62 16       		.uleb128 0x16
 2656 0a63 636F6C75 		.ascii "column\0"
GAS LISTING C:\Users\jisu8\AppData\Local\Temp\ccw96xXP.s 			page 62


 2656      6D6E00
 2657 0a6a 01       		.byte	0x1
 2658 0a6b 0501     		.word	0x105
 2659 0a6d 06       		.byte	0x6
 2660 0a6e 0F010000 		.long	0x10f
 2661 0a72 02       		.byte	0x2
 2662 0a73 91       		.byte	0x91
 2663 0a74 68       		.sleb128 -24
 2664 0a75 16       		.uleb128 0x16
 2665 0a76 666F756E 		.ascii "foundBarcodeInRow\0"
 2665      64426172 
 2665      636F6465 
 2665      496E526F 
 2665      7700
 2666 0a88 01       		.byte	0x1
 2667 0a89 0601     		.word	0x106
 2668 0a8b 0A       		.byte	0xa
 2669 0a8c C1010000 		.long	0x1c1
 2670 0a90 02       		.byte	0x2
 2671 0a91 91       		.byte	0x91
 2672 0a92 67       		.sleb128 -25
 2673 0a93 17       		.uleb128 0x17
 2674 0a94 6D000000 		.secrel32	LASF5
 2675 0a98 01       		.byte	0x1
 2676 0a99 0701     		.word	0x107
 2677 0a9b 12       		.byte	0x12
 2678 0a9c A5040000 		.long	0x4a5
 2679 0aa0 02       		.byte	0x2
 2680 0aa1 91       		.byte	0x91
 2681 0aa2 60       		.sleb128 -32
 2682 0aa3 16       		.uleb128 0x16
 2683 0aa4 76657274 		.ascii "vertices\0"
 2683      69636573 
 2683      00
 2684 0aad 01       		.byte	0x1
 2685 0aae 0801     		.word	0x108
 2686 0ab0 12       		.byte	0x12
 2687 0ab1 A5040000 		.long	0x4a5
 2688 0ab5 02       		.byte	0x2
 2689 0ab6 91       		.byte	0x91
 2690 0ab7 5C       		.sleb128 -36
 2691 0ab8 00       		.byte	0
 2692 0ab9 1B       		.uleb128 0x1b
 2693 0aba 46696E64 		.ascii "FindVertices\0"
 2693      56657274 
 2693      69636573 
 2693      00
 2694 0ac7 01       		.byte	0x1
 2695 0ac8 DF       		.byte	0xdf
 2696 0ac9 18       		.byte	0x18
 2697 0aca 01       		.byte	0x1
 2698 0acb A5040000 		.long	0x4a5
 2699 0acf B9070000 		.long	LFB20
 2700 0ad3 75090000 		.long	LFE20
 2701 0ad7 E0000000 		.secrel32	LLST4
 2702 0adb 01       		.byte	0x1
 2703 0adc 6E0B0000 		.long	0xb6e
GAS LISTING C:\Users\jisu8\AppData\Local\Temp\ccw96xXP.s 			page 63


 2704 0ae0 1C       		.uleb128 0x1c
 2705 0ae1 60000000 		.secrel32	LASF6
 2706 0ae5 01       		.byte	0x1
 2707 0ae6 DF       		.byte	0xdf
 2708 0ae7 39       		.byte	0x39
 2709 0ae8 E7090000 		.long	0x9e7
 2710 0aec 02       		.byte	0x2
 2711 0aed 91       		.byte	0x91
 2712 0aee 00       		.sleb128 0
 2713 0aef 1C       		.uleb128 0x1c
 2714 0af0 50000000 		.secrel32	LASF7
 2715 0af4 01       		.byte	0x1
 2716 0af5 DF       		.byte	0xdf
 2717 0af6 45       		.byte	0x45
 2718 0af7 0F010000 		.long	0x10f
 2719 0afb 02       		.byte	0x2
 2720 0afc 91       		.byte	0x91
 2721 0afd 04       		.sleb128 4
 2722 0afe 1C       		.uleb128 0x1c
 2723 0aff 1C000000 		.secrel32	LASF8
 2724 0b03 01       		.byte	0x1
 2725 0b04 DF       		.byte	0xdf
 2726 0b05 53       		.byte	0x53
 2727 0b06 0F010000 		.long	0x10f
 2728 0b0a 02       		.byte	0x2
 2729 0b0b 91       		.byte	0x91
 2730 0b0c 08       		.sleb128 8
 2731 0b0d 12       		.uleb128 0x12
 2732 0b0e 67000000 		.secrel32	LASF0
 2733 0b12 01       		.byte	0x1
 2734 0b13 E1       		.byte	0xe1
 2735 0b14 06       		.byte	0x6
 2736 0b15 0F010000 		.long	0x10f
 2737 0b19 02       		.byte	0x2
 2738 0b1a 91       		.byte	0x91
 2739 0b1b 68       		.sleb128 -24
 2740 0b1c 12       		.uleb128 0x12
 2741 0b1d 28000000 		.secrel32	LASF1
 2742 0b21 01       		.byte	0x1
 2743 0b22 E2       		.byte	0xe2
 2744 0b23 06       		.byte	0x6
 2745 0b24 0F010000 		.long	0x10f
 2746 0b28 02       		.byte	0x2
 2747 0b29 91       		.byte	0x91
 2748 0b2a 64       		.sleb128 -28
 2749 0b2b 11       		.uleb128 0x11
 2750 0b2c 746D7000 		.ascii "tmp\0"
 2751 0b30 01       		.byte	0x1
 2752 0b31 E4       		.byte	0xe4
 2753 0b32 10       		.byte	0x10
 2754 0b33 6E0B0000 		.long	0xb6e
 2755 0b37 03       		.byte	0x3
 2756 0b38 91       		.byte	0x91
 2757 0b39 B47F     		.sleb128 -76
 2758 0b3b 1D       		.uleb128 0x1d
 2759 0b3c D0070000 		.long	LBB13
 2760 0b40 30080000 		.long	LBE13
GAS LISTING C:\Users\jisu8\AppData\Local\Temp\ccw96xXP.s 			page 64


 2761 0b44 560B0000 		.long	0xb56
 2762 0b48 11       		.uleb128 0x11
 2763 0b49 6900     		.ascii "i\0"
 2764 0b4b 01       		.byte	0x1
 2765 0b4c E6       		.byte	0xe6
 2766 0b4d 0E       		.byte	0xe
 2767 0b4e C1010000 		.long	0x1c1
 2768 0b52 02       		.byte	0x2
 2769 0b53 91       		.byte	0x91
 2770 0b54 6F       		.sleb128 -17
 2771 0b55 00       		.byte	0
 2772 0b56 19       		.uleb128 0x19
 2773 0b57 30080000 		.long	LBB14
 2774 0b5b 87080000 		.long	LBE14
 2775 0b5f 11       		.uleb128 0x11
 2776 0b60 6900     		.ascii "i\0"
 2777 0b62 01       		.byte	0x1
 2778 0b63 ED       		.byte	0xed
 2779 0b64 0E       		.byte	0xe
 2780 0b65 C1010000 		.long	0x1c1
 2781 0b69 02       		.byte	0x2
 2782 0b6a 91       		.byte	0x91
 2783 0b6b 6E       		.sleb128 -18
 2784 0b6c 00       		.byte	0
 2785 0b6d 00       		.byte	0
 2786 0b6e 0A       		.uleb128 0xa
 2787 0b6f 58040000 		.long	0x458
 2788 0b73 7E0B0000 		.long	0xb7e
 2789 0b77 0F       		.uleb128 0xf
 2790 0b78 D1000000 		.long	0xd1
 2791 0b7c 03       		.byte	0x3
 2792 0b7d 00       		.byte	0
 2793 0b7e 1E       		.uleb128 0x1e
 2794 0b7f 436F7079 		.ascii "CopyToResult\0"
 2794      546F5265 
 2794      73756C74 
 2794      00
 2795 0b8c 01       		.byte	0x1
 2796 0b8d D5       		.byte	0xd5
 2797 0b8e 0D       		.byte	0xd
 2798 0b8f 01       		.byte	0x1
 2799 0b90 E2060000 		.long	LFB19
 2800 0b94 B9070000 		.long	LFE19
 2801 0b98 18010000 		.secrel32	LLST3
 2802 0b9c 01       		.byte	0x1
 2803 0b9d FB0B0000 		.long	0xbfb
 2804 0ba1 1C       		.uleb128 0x1c
 2805 0ba2 59000000 		.secrel32	LASF4
 2806 0ba6 01       		.byte	0x1
 2807 0ba7 D5       		.byte	0xd5
 2808 0ba8 2A       		.byte	0x2a
 2809 0ba9 A5040000 		.long	0x4a5
 2810 0bad 02       		.byte	0x2
 2811 0bae 91       		.byte	0x91
 2812 0baf 00       		.sleb128 0
 2813 0bb0 1F       		.uleb128 0x1f
 2814 0bb1 746D7052 		.ascii "tmpResult\0"
GAS LISTING C:\Users\jisu8\AppData\Local\Temp\ccw96xXP.s 			page 65


 2814      6573756C 
 2814      7400
 2815 0bbb 01       		.byte	0x1
 2816 0bbc D5       		.byte	0xd5
 2817 0bbd 48       		.byte	0x48
 2818 0bbe FB0B0000 		.long	0xbfb
 2819 0bc2 02       		.byte	0x2
 2820 0bc3 91       		.byte	0x91
 2821 0bc4 04       		.sleb128 4
 2822 0bc5 1F       		.uleb128 0x1f
 2823 0bc6 64657374 		.ascii "destinationIndexes\0"
 2823      696E6174 
 2823      696F6E49 
 2823      6E646578 
 2823      657300
 2824 0bd9 01       		.byte	0x1
 2825 0bda D5       		.byte	0xd5
 2826 0bdb 5D       		.byte	0x5d
 2827 0bdc 010C0000 		.long	0xc01
 2828 0be0 02       		.byte	0x2
 2829 0be1 91       		.byte	0x91
 2830 0be2 08       		.sleb128 8
 2831 0be3 19       		.uleb128 0x19
 2832 0be4 E8060000 		.long	LBB12
 2833 0be8 B6070000 		.long	LBE12
 2834 0bec 11       		.uleb128 0x11
 2835 0bed 6900     		.ascii "i\0"
 2836 0bef 01       		.byte	0x1
 2837 0bf0 D7       		.byte	0xd7
 2838 0bf1 0B       		.byte	0xb
 2839 0bf2 0F010000 		.long	0x10f
 2840 0bf6 02       		.byte	0x2
 2841 0bf7 91       		.byte	0x91
 2842 0bf8 74       		.sleb128 -12
 2843 0bf9 00       		.byte	0
 2844 0bfa 00       		.byte	0
 2845 0bfb 07       		.uleb128 0x7
 2846 0bfc 04       		.byte	0x4
 2847 0bfd 6E040000 		.long	0x46e
 2848 0c01 07       		.uleb128 0x7
 2849 0c02 04       		.byte	0x4
 2850 0c03 16010000 		.long	0x116
 2851 0c07 1B       		.uleb128 0x1b
 2852 0c08 46696E64 		.ascii "FindRowsWithPattern\0"
 2852      526F7773 
 2852      57697468 
 2852      50617474 
 2852      65726E00 
 2853 0c1c 01       		.byte	0x1
 2854 0c1d 8B       		.byte	0x8b
 2855 0c1e 12       		.byte	0x12
 2856 0c1f 01       		.byte	0x1
 2857 0c20 C3030000 		.long	0x3c3
 2858 0c24 9D030000 		.long	LFB18
 2859 0c28 E2060000 		.long	LFE18
 2860 0c2c 50010000 		.secrel32	LLST2
 2861 0c30 01       		.byte	0x1
GAS LISTING C:\Users\jisu8\AppData\Local\Temp\ccw96xXP.s 			page 66


 2862 0c31 A40D0000 		.long	0xda4
 2863 0c35 1C       		.uleb128 0x1c
 2864 0c36 60000000 		.secrel32	LASF6
 2865 0c3a 01       		.byte	0x1
 2866 0c3b 8B       		.byte	0x8b
 2867 0c3c 3A       		.byte	0x3a
 2868 0c3d E7090000 		.long	0x9e7
 2869 0c41 02       		.byte	0x2
 2870 0c42 91       		.byte	0x91
 2871 0c43 00       		.sleb128 0
 2872 0c44 1C       		.uleb128 0x1c
 2873 0c45 28000000 		.secrel32	LASF1
 2874 0c49 01       		.byte	0x1
 2875 0c4a 8B       		.byte	0x8b
 2876 0c4b 46       		.byte	0x46
 2877 0c4c 0F010000 		.long	0x10f
 2878 0c50 02       		.byte	0x2
 2879 0c51 91       		.byte	0x91
 2880 0c52 04       		.sleb128 4
 2881 0c53 1C       		.uleb128 0x1c
 2882 0c54 67000000 		.secrel32	LASF0
 2883 0c58 01       		.byte	0x1
 2884 0c59 8B       		.byte	0x8b
 2885 0c5a 52       		.byte	0x52
 2886 0c5b 0F010000 		.long	0x10f
 2887 0c5f 02       		.byte	0x2
 2888 0c60 91       		.byte	0x91
 2889 0c61 08       		.sleb128 8
 2890 0c62 1C       		.uleb128 0x1c
 2891 0c63 50000000 		.secrel32	LASF7
 2892 0c67 01       		.byte	0x1
 2893 0c68 8B       		.byte	0x8b
 2894 0c69 5D       		.byte	0x5d
 2895 0c6a 0F010000 		.long	0x10f
 2896 0c6e 02       		.byte	0x2
 2897 0c6f 91       		.byte	0x91
 2898 0c70 0C       		.sleb128 12
 2899 0c71 1C       		.uleb128 0x1c
 2900 0c72 1C000000 		.secrel32	LASF8
 2901 0c76 01       		.byte	0x1
 2902 0c77 8B       		.byte	0x8b
 2903 0c78 6B       		.byte	0x6b
 2904 0c79 0F010000 		.long	0x10f
 2905 0c7d 02       		.byte	0x2
 2906 0c7e 91       		.byte	0x91
 2907 0c7f 10       		.sleb128 16
 2908 0c80 1C       		.uleb128 0x1c
 2909 0c81 48000000 		.secrel32	LASF9
 2910 0c85 01       		.byte	0x1
 2911 0c86 8B       		.byte	0x8b
 2912 0c87 83       		.byte	0x83
 2913 0c88 010C0000 		.long	0xc01
 2914 0c8c 02       		.byte	0x2
 2915 0c8d 91       		.byte	0x91
 2916 0c8e 14       		.sleb128 20
 2917 0c8f 1F       		.uleb128 0x1f
 2918 0c90 70617474 		.ascii "patternlength\0"
GAS LISTING C:\Users\jisu8\AppData\Local\Temp\ccw96xXP.s 			page 67


 2918      65726E6C 
 2918      656E6774 
 2918      6800
 2919 0c9e 01       		.byte	0x1
 2920 0c9f 8B       		.byte	0x8b
 2921 0ca0 90       		.byte	0x90
 2922 0ca1 0F010000 		.long	0x10f
 2923 0ca5 02       		.byte	0x2
 2924 0ca6 91       		.byte	0x91
 2925 0ca7 18       		.sleb128 24
 2926 0ca8 1C       		.uleb128 0x1c
 2927 0ca9 59000000 		.secrel32	LASF4
 2928 0cad 01       		.byte	0x1
 2929 0cae 8B       		.byte	0x8b
 2930 0caf B0       		.byte	0xb0
 2931 0cb0 A5040000 		.long	0x4a5
 2932 0cb4 02       		.byte	0x2
 2933 0cb5 91       		.byte	0x91
 2934 0cb6 1C       		.sleb128 28
 2935 0cb7 11       		.uleb128 0x11
 2936 0cb8 666F756E 		.ascii "found\0"
 2936      6400
 2937 0cbe 01       		.byte	0x1
 2938 0cbf 90       		.byte	0x90
 2939 0cc0 0A       		.byte	0xa
 2940 0cc1 C1010000 		.long	0x1c1
 2941 0cc5 02       		.byte	0x2
 2942 0cc6 91       		.byte	0x91
 2943 0cc7 6F       		.sleb128 -17
 2944 0cc8 12       		.uleb128 0x12
 2945 0cc9 2F000000 		.secrel32	LASF10
 2946 0ccd 01       		.byte	0x1
 2947 0cce 91       		.byte	0x91
 2948 0ccf 06       		.byte	0x6
 2949 0cd0 0F010000 		.long	0x10f
 2950 0cd4 02       		.byte	0x2
 2951 0cd5 91       		.byte	0x91
 2952 0cd6 4C       		.sleb128 -52
 2953 0cd7 12       		.uleb128 0x12
 2954 0cd8 38000000 		.secrel32	LASF11
 2955 0cdc 01       		.byte	0x1
 2956 0cdd 91       		.byte	0x91
 2957 0cde 10       		.byte	0x10
 2958 0cdf 0F010000 		.long	0x10f
 2959 0ce3 02       		.byte	0x2
 2960 0ce4 91       		.byte	0x91
 2961 0ce5 48       		.sleb128 -56
 2962 0ce6 12       		.uleb128 0x12
 2963 0ce7 3F000000 		.secrel32	LASF12
 2964 0ceb 01       		.byte	0x1
 2965 0cec 93       		.byte	0x93
 2966 0ced 06       		.byte	0x6
 2967 0cee A40D0000 		.long	0xda4
 2968 0cf2 03       		.byte	0x3
 2969 0cf3 91       		.byte	0x91
 2970 0cf4 50       		.sleb128 -48
 2971 0cf5 06       		.byte	0x6
GAS LISTING C:\Users\jisu8\AppData\Local\Temp\ccw96xXP.s 			page 68


 2972 0cf6 11       		.uleb128 0x11
 2973 0cf7 73746F70 		.ascii "stopRow\0"
 2973      526F7700 
 2974 0cff 01       		.byte	0x1
 2975 0d00 A6       		.byte	0xa6
 2976 0d01 06       		.byte	0x6
 2977 0d02 0F010000 		.long	0x10f
 2978 0d06 02       		.byte	0x2
 2979 0d07 91       		.byte	0x91
 2980 0d08 68       		.sleb128 -24
 2981 0d09 1D       		.uleb128 0x1d
 2982 0d0a 2A050000 		.long	LBB8
 2983 0d0e 6A060000 		.long	LBE8
 2984 0d12 8C0D0000 		.long	0xd8c
 2985 0d16 11       		.uleb128 0x11
 2986 0d17 736B6970 		.ascii "skippedRowCount\0"
 2986      70656452 
 2986      6F77436F 
 2986      756E7400 
 2987 0d27 01       		.byte	0x1
 2988 0d28 A9       		.byte	0xa9
 2989 0d29 07       		.byte	0x7
 2990 0d2a 0F010000 		.long	0x10f
 2991 0d2e 02       		.byte	0x2
 2992 0d2f 91       		.byte	0x91
 2993 0d30 64       		.sleb128 -28
 2994 0d31 11       		.uleb128 0x11
 2995 0d32 70726576 		.ascii "previousRowStart\0"
 2995      696F7573 
 2995      526F7753 
 2995      74617274 
 2995      00
 2996 0d43 01       		.byte	0x1
 2997 0d44 AA       		.byte	0xaa
 2998 0d45 07       		.byte	0x7
 2999 0d46 0F010000 		.long	0x10f
 3000 0d4a 02       		.byte	0x2
 3001 0d4b 91       		.byte	0x91
 3002 0d4c 60       		.sleb128 -32
 3003 0d4d 11       		.uleb128 0x11
 3004 0d4e 70726576 		.ascii "previousRowEnd\0"
 3004      696F7573 
 3004      526F7745 
 3004      6E6400
 3005 0d5d 01       		.byte	0x1
 3006 0d5e AB       		.byte	0xab
 3007 0d5f 07       		.byte	0x7
 3008 0d60 0F010000 		.long	0x10f
 3009 0d64 02       		.byte	0x2
 3010 0d65 91       		.byte	0x91
 3011 0d66 5C       		.sleb128 -36
 3012 0d67 20       		.uleb128 0x20
 3013 0d68 00000000 		.secrel32	Ldebug_ranges0+0
 3014 0d6c 12       		.uleb128 0x12
 3015 0d6d 2F000000 		.secrel32	LASF10
 3016 0d71 01       		.byte	0x1
 3017 0d72 AD       		.byte	0xad
GAS LISTING C:\Users\jisu8\AppData\Local\Temp\ccw96xXP.s 			page 69


 3018 0d73 08       		.byte	0x8
 3019 0d74 0F010000 		.long	0x10f
 3020 0d78 02       		.byte	0x2
 3021 0d79 91       		.byte	0x91
 3022 0d7a 44       		.sleb128 -60
 3023 0d7b 12       		.uleb128 0x12
 3024 0d7c 38000000 		.secrel32	LASF11
 3025 0d80 01       		.byte	0x1
 3026 0d81 AD       		.byte	0xad
 3027 0d82 12       		.byte	0x12
 3028 0d83 0F010000 		.long	0x10f
 3029 0d87 02       		.byte	0x2
 3030 0d88 91       		.byte	0x91
 3031 0d89 40       		.sleb128 -64
 3032 0d8a 00       		.byte	0
 3033 0d8b 00       		.byte	0
 3034 0d8c 19       		.uleb128 0x19
 3035 0d8d 79060000 		.long	LBB11
 3036 0d91 D8060000 		.long	LBE11
 3037 0d95 11       		.uleb128 0x11
 3038 0d96 6900     		.ascii "i\0"
 3039 0d98 01       		.byte	0x1
 3040 0d99 C9       		.byte	0xc9
 3041 0d9a 0F       		.byte	0xf
 3042 0d9b C1010000 		.long	0x1c1
 3043 0d9f 02       		.byte	0x2
 3044 0da0 91       		.byte	0x91
 3045 0da1 5B       		.sleb128 -37
 3046 0da2 00       		.byte	0
 3047 0da3 00       		.byte	0
 3048 0da4 0A       		.uleb128 0xa
 3049 0da5 0F010000 		.long	0x10f
 3050 0da9 B70D0000 		.long	0xdb7
 3051 0dad 21       		.uleb128 0x21
 3052 0dae D1000000 		.long	0xd1
 3053 0db2 03       		.byte	0x3
 3054 0db3 91       		.byte	0x91
 3055 0db4 54       		.sleb128 -44
 3056 0db5 06       		.byte	0x6
 3057 0db6 00       		.byte	0
 3058 0db7 1B       		.uleb128 0x1b
 3059 0db8 46696E64 		.ascii "FindGuardPattern\0"
 3059      47756172 
 3059      64506174 
 3059      7465726E 
 3059      00
 3060 0dc9 01       		.byte	0x1
 3061 0dca 51       		.byte	0x51
 3062 0dcb 10       		.byte	0x10
 3063 0dcc 01       		.byte	0x1
 3064 0dcd C1010000 		.long	0x1c1
 3065 0dd1 20010000 		.long	LFB17
 3066 0dd5 9D030000 		.long	LFE17
 3067 0dd9 88010000 		.secrel32	LLST1
 3068 0ddd 01       		.byte	0x1
 3069 0dde 390F0000 		.long	0xf39
 3070 0de2 1C       		.uleb128 0x1c
GAS LISTING C:\Users\jisu8\AppData\Local\Temp\ccw96xXP.s 			page 70


 3071 0de3 60000000 		.secrel32	LASF6
 3072 0de7 01       		.byte	0x1
 3073 0de8 51       		.byte	0x51
 3074 0de9 35       		.byte	0x35
 3075 0dea E7090000 		.long	0x9e7
 3076 0dee 02       		.byte	0x2
 3077 0def 91       		.byte	0x91
 3078 0df0 00       		.sleb128 0
 3079 0df1 1F       		.uleb128 0x1f
 3080 0df2 636F6C75 		.ascii "column\0"
 3080      6D6E00
 3081 0df9 01       		.byte	0x1
 3082 0dfa 51       		.byte	0x51
 3083 0dfb 41       		.byte	0x41
 3084 0dfc 0F010000 		.long	0x10f
 3085 0e00 02       		.byte	0x2
 3086 0e01 91       		.byte	0x91
 3087 0e02 04       		.sleb128 4
 3088 0e03 1F       		.uleb128 0x1f
 3089 0e04 726F7700 		.ascii "row\0"
 3090 0e08 01       		.byte	0x1
 3091 0e09 51       		.byte	0x51
 3092 0e0a 4D       		.byte	0x4d
 3093 0e0b 0F010000 		.long	0x10f
 3094 0e0f 02       		.byte	0x2
 3095 0e10 91       		.byte	0x91
 3096 0e11 08       		.sleb128 8
 3097 0e12 1C       		.uleb128 0x1c
 3098 0e13 67000000 		.secrel32	LASF0
 3099 0e17 01       		.byte	0x1
 3100 0e18 51       		.byte	0x51
 3101 0e19 56       		.byte	0x56
 3102 0e1a 0F010000 		.long	0x10f
 3103 0e1e 02       		.byte	0x2
 3104 0e1f 91       		.byte	0x91
 3105 0e20 0C       		.sleb128 12
 3106 0e21 1F       		.uleb128 0x1f
 3107 0e22 77686974 		.ascii "whiteFirst\0"
 3107      65466972 
 3107      737400
 3108 0e2d 01       		.byte	0x1
 3109 0e2e 51       		.byte	0x51
 3110 0e2f 65       		.byte	0x65
 3111 0e30 C1010000 		.long	0x1c1
 3112 0e34 02       		.byte	0x2
 3113 0e35 91       		.byte	0x91
 3114 0e36 4C       		.sleb128 -52
 3115 0e37 1C       		.uleb128 0x1c
 3116 0e38 48000000 		.secrel32	LASF9
 3117 0e3c 01       		.byte	0x1
 3118 0e3d 51       		.byte	0x51
 3119 0e3e 7C       		.byte	0x7c
 3120 0e3f 010C0000 		.long	0xc01
 3121 0e43 02       		.byte	0x2
 3122 0e44 91       		.byte	0x91
 3123 0e45 14       		.sleb128 20
 3124 0e46 1C       		.uleb128 0x1c
GAS LISTING C:\Users\jisu8\AppData\Local\Temp\ccw96xXP.s 			page 71


 3125 0e47 0E000000 		.secrel32	LASF13
 3126 0e4b 01       		.byte	0x1
 3127 0e4c 51       		.byte	0x51
 3128 0e4d 89       		.byte	0x89
 3129 0e4e 0F010000 		.long	0x10f
 3130 0e52 02       		.byte	0x2
 3131 0e53 91       		.byte	0x91
 3132 0e54 18       		.sleb128 24
 3133 0e55 1C       		.uleb128 0x1c
 3134 0e56 3F000000 		.secrel32	LASF12
 3135 0e5a 01       		.byte	0x1
 3136 0e5b 51       		.byte	0x51
 3137 0e5c 9E       		.byte	0x9e
 3138 0e5d 6A010000 		.long	0x16a
 3139 0e61 02       		.byte	0x2
 3140 0e62 91       		.byte	0x91
 3141 0e63 1C       		.sleb128 28
 3142 0e64 1C       		.uleb128 0x1c
 3143 0e65 2F000000 		.secrel32	LASF10
 3144 0e69 01       		.byte	0x1
 3145 0e6a 51       		.byte	0x51
 3146 0e6b AE       		.byte	0xae
 3147 0e6c 6A010000 		.long	0x16a
 3148 0e70 02       		.byte	0x2
 3149 0e71 91       		.byte	0x91
 3150 0e72 20       		.sleb128 32
 3151 0e73 1C       		.uleb128 0x1c
 3152 0e74 38000000 		.secrel32	LASF11
 3153 0e78 01       		.byte	0x1
 3154 0e79 51       		.byte	0x51
 3155 0e7a BE       		.byte	0xbe
 3156 0e7b 6A010000 		.long	0x16a
 3157 0e7f 02       		.byte	0x2
 3158 0e80 91       		.byte	0x91
 3159 0e81 24       		.sleb128 36
 3160 0e82 11       		.uleb128 0x11
 3161 0e83 69735768 		.ascii "isWhite\0"
 3161      69746500 
 3162 0e8b 01       		.byte	0x1
 3163 0e8c 5B       		.byte	0x5b
 3164 0e8d 0A       		.byte	0xa
 3165 0e8e C1010000 		.long	0x1c1
 3166 0e92 02       		.byte	0x2
 3167 0e93 91       		.byte	0x91
 3168 0e94 6E       		.sleb128 -18
 3169 0e95 11       		.uleb128 0x11
 3170 0e96 70617474 		.ascii "patternStart\0"
 3170      65726E53 
 3170      74617274 
 3170      00
 3171 0ea3 01       		.byte	0x1
 3172 0ea4 5C       		.byte	0x5c
 3173 0ea5 06       		.byte	0x6
 3174 0ea6 0F010000 		.long	0x10f
 3175 0eaa 02       		.byte	0x2
 3176 0eab 91       		.byte	0x91
 3177 0eac 68       		.sleb128 -24
GAS LISTING C:\Users\jisu8\AppData\Local\Temp\ccw96xXP.s 			page 72


 3178 0ead 11       		.uleb128 0x11
 3179 0eae 70697865 		.ascii "pixelDrift\0"
 3179      6C447269 
 3179      667400
 3180 0eb9 01       		.byte	0x1
 3181 0eba 5D       		.byte	0x5d
 3182 0ebb 06       		.byte	0x6
 3183 0ebc 0F010000 		.long	0x10f
 3184 0ec0 02       		.byte	0x2
 3185 0ec1 91       		.byte	0x91
 3186 0ec2 64       		.sleb128 -28
 3187 0ec3 11       		.uleb128 0x11
 3188 0ec4 7800     		.ascii "x\0"
 3189 0ec6 01       		.byte	0x1
 3190 0ec7 63       		.byte	0x63
 3191 0ec8 06       		.byte	0x6
 3192 0ec9 0F010000 		.long	0x10f
 3193 0ecd 02       		.byte	0x2
 3194 0ece 91       		.byte	0x91
 3195 0ecf 60       		.sleb128 -32
 3196 0ed0 11       		.uleb128 0x11
 3197 0ed1 636F756E 		.ascii "counterPosition\0"
 3197      74657250 
 3197      6F736974 
 3197      696F6E00 
 3198 0ee1 01       		.byte	0x1
 3199 0ee2 64       		.byte	0x64
 3200 0ee3 06       		.byte	0x6
 3201 0ee4 0F010000 		.long	0x10f
 3202 0ee8 02       		.byte	0x2
 3203 0ee9 91       		.byte	0x91
 3204 0eea 5C       		.sleb128 -36
 3205 0eeb 1D       		.uleb128 0x1d
 3206 0eec 55010000 		.long	LBB5
 3207 0ef0 81010000 		.long	LBE5
 3208 0ef4 060F0000 		.long	0xf06
 3209 0ef8 11       		.uleb128 0x11
 3210 0ef9 6900     		.ascii "i\0"
 3211 0efb 01       		.byte	0x1
 3212 0efc 56       		.byte	0x56
 3213 0efd 0E       		.byte	0xe
 3214 0efe C1010000 		.long	0x1c1
 3215 0f02 02       		.byte	0x2
 3216 0f03 91       		.byte	0x91
 3217 0f04 6F       		.sleb128 -17
 3218 0f05 00       		.byte	0
 3219 0f06 19       		.uleb128 0x19
 3220 0f07 E4010000 		.long	LBB6
 3221 0f0b 32030000 		.long	LBE6
 3222 0f0f 11       		.uleb128 0x11
 3223 0f10 70697865 		.ascii "pixel\0"
 3223      6C00
 3224 0f16 01       		.byte	0x1
 3225 0f17 66       		.byte	0x66
 3226 0f18 0B       		.byte	0xb
 3227 0f19 C1010000 		.long	0x1c1
 3228 0f1d 02       		.byte	0x2
GAS LISTING C:\Users\jisu8\AppData\Local\Temp\ccw96xXP.s 			page 73


 3229 0f1e 91       		.byte	0x91
 3230 0f1f 5A       		.sleb128 -38
 3231 0f20 19       		.uleb128 0x19
 3232 0f21 90020000 		.long	LBB7
 3233 0f25 D5020000 		.long	LBE7
 3234 0f29 11       		.uleb128 0x11
 3235 0f2a 6900     		.ascii "i\0"
 3236 0f2c 01       		.byte	0x1
 3237 0f2d 72       		.byte	0x72
 3238 0f2e 11       		.byte	0x11
 3239 0f2f C1010000 		.long	0x1c1
 3240 0f33 02       		.byte	0x2
 3241 0f34 91       		.byte	0x91
 3242 0f35 5B       		.sleb128 -37
 3243 0f36 00       		.byte	0
 3244 0f37 00       		.byte	0
 3245 0f38 00       		.byte	0
 3246 0f39 22       		.uleb128 0x22
 3247 0f3a 50617474 		.ascii "PatternMatchVariance\0"
 3247      65726E4D 
 3247      61746368 
 3247      56617269 
 3247      616E6365 
 3248 0f4f 01       		.byte	0x1
 3249 0f50 2A       		.byte	0x2a
 3250 0f51 0E       		.byte	0xe
 3251 0f52 01       		.byte	0x1
 3252 0f53 06040000 		.long	0x406
 3253 0f57 00000000 		.long	LFB16
 3254 0f5b 20010000 		.long	LFE16
 3255 0f5f C0010000 		.secrel32	LLST0
 3256 0f63 01       		.byte	0x1
 3257 0f64 1C       		.uleb128 0x1c
 3258 0f65 3F000000 		.secrel32	LASF12
 3259 0f69 01       		.byte	0x1
 3260 0f6a 2A       		.byte	0x2a
 3261 0f6b 2F       		.byte	0x2f
 3262 0f6c 010C0000 		.long	0xc01
 3263 0f70 02       		.byte	0x2
 3264 0f71 91       		.byte	0x91
 3265 0f72 00       		.sleb128 0
 3266 0f73 1C       		.uleb128 0x1c
 3267 0f74 48000000 		.secrel32	LASF9
 3268 0f78 01       		.byte	0x1
 3269 0f79 2A       		.byte	0x2a
 3270 0f7a 45       		.byte	0x45
 3271 0f7b 010C0000 		.long	0xc01
 3272 0f7f 02       		.byte	0x2
 3273 0f80 91       		.byte	0x91
 3274 0f81 04       		.sleb128 4
 3275 0f82 1F       		.uleb128 0x1f
 3276 0f83 6C656E67 		.ascii "length\0"
 3276      746800
 3277 0f8a 01       		.byte	0x1
 3278 0f8b 2A       		.byte	0x2a
 3279 0f8c 51       		.byte	0x51
 3280 0f8d 0F010000 		.long	0x10f
GAS LISTING C:\Users\jisu8\AppData\Local\Temp\ccw96xXP.s 			page 74


 3281 0f91 02       		.byte	0x2
 3282 0f92 91       		.byte	0x91
 3283 0f93 08       		.sleb128 8
 3284 0f94 1F       		.uleb128 0x1f
 3285 0f95 6D617849 		.ascii "maxIndividualVariance\0"
 3285      6E646976 
 3285      69647561 
 3285      6C566172 
 3285      69616E63 
 3286 0fab 01       		.byte	0x1
 3287 0fac 2A       		.byte	0x2a
 3288 0fad 5F       		.byte	0x5f
 3289 0fae 06040000 		.long	0x406
 3290 0fb2 02       		.byte	0x2
 3291 0fb3 91       		.byte	0x91
 3292 0fb4 0C       		.sleb128 12
 3293 0fb5 11       		.uleb128 0x11
 3294 0fb6 746F7461 		.ascii "total\0"
 3294      6C00
 3295 0fbc 01       		.byte	0x1
 3296 0fbd 2E       		.byte	0x2e
 3297 0fbe 06       		.byte	0x6
 3298 0fbf 0F010000 		.long	0x10f
 3299 0fc3 02       		.byte	0x2
 3300 0fc4 91       		.byte	0x91
 3301 0fc5 6C       		.sleb128 -20
 3302 0fc6 12       		.uleb128 0x12
 3303 0fc7 0E000000 		.secrel32	LASF13
 3304 0fcb 01       		.byte	0x1
 3305 0fcc 2F       		.byte	0x2f
 3306 0fcd 06       		.byte	0x6
 3307 0fce 0F010000 		.long	0x10f
 3308 0fd2 02       		.byte	0x2
 3309 0fd3 91       		.byte	0x91
 3310 0fd4 68       		.sleb128 -24
 3311 0fd5 11       		.uleb128 0x11
 3312 0fd6 756E6974 		.ascii "unitBarWidth\0"
 3312      42617257 
 3312      69647468 
 3312      00
 3313 0fe3 01       		.byte	0x1
 3314 0fe4 3F       		.byte	0x3f
 3315 0fe5 08       		.byte	0x8
 3316 0fe6 06040000 		.long	0x406
 3317 0fea 02       		.byte	0x2
 3318 0feb 91       		.byte	0x91
 3319 0fec 58       		.sleb128 -40
 3320 0fed 11       		.uleb128 0x11
 3321 0fee 746F7461 		.ascii "totalVariance\0"
 3321      6C566172 
 3321      69616E63 
 3321      6500
 3322 0ffc 01       		.byte	0x1
 3323 0ffd 42       		.byte	0x42
 3324 0ffe 08       		.byte	0x8
 3325 0fff 06040000 		.long	0x406
 3326 1003 02       		.byte	0x2
GAS LISTING C:\Users\jisu8\AppData\Local\Temp\ccw96xXP.s 			page 75


 3327 1004 91       		.byte	0x91
 3328 1005 60       		.sleb128 -32
 3329 1006 1D       		.uleb128 0x1d
 3330 1007 27000000 		.long	LBB2
 3331 100b 64000000 		.long	LBE2
 3332 100f 21100000 		.long	0x1021
 3333 1013 11       		.uleb128 0x11
 3334 1014 6900     		.ascii "i\0"
 3335 1016 01       		.byte	0x1
 3336 1017 30       		.byte	0x30
 3337 1018 0E       		.byte	0xe
 3338 1019 00010000 		.long	0x100
 3339 101d 02       		.byte	0x2
 3340 101e 91       		.byte	0x91
 3341 101f 64       		.sleb128 -28
 3342 1020 00       		.byte	0
 3343 1021 19       		.uleb128 0x19
 3344 1022 90000000 		.long	LBB3
 3345 1026 16010000 		.long	LBE3
 3346 102a 11       		.uleb128 0x11
 3347 102b 7800     		.ascii "x\0"
 3348 102d 01       		.byte	0x1
 3349 102e 43       		.byte	0x43
 3350 102f 0E       		.byte	0xe
 3351 1030 00010000 		.long	0x100
 3352 1034 02       		.byte	0x2
 3353 1035 91       		.byte	0x91
 3354 1036 5C       		.sleb128 -36
 3355 1037 19       		.uleb128 0x19
 3356 1038 99000000 		.long	LBB4
 3357 103c 0A010000 		.long	LBE4
 3358 1040 11       		.uleb128 0x11
 3359 1041 636F756E 		.ascii "counter\0"
 3359      74657200 
 3360 1049 01       		.byte	0x1
 3361 104a 45       		.byte	0x45
 3362 104b 07       		.byte	0x7
 3363 104c 0F010000 		.long	0x10f
 3364 1050 02       		.byte	0x2
 3365 1051 91       		.byte	0x91
 3366 1052 54       		.sleb128 -44
 3367 1053 11       		.uleb128 0x11
 3368 1054 7363616C 		.ascii "scaledPattern\0"
 3368      65645061 
 3368      74746572 
 3368      6E00
 3369 1062 01       		.byte	0x1
 3370 1063 46       		.byte	0x46
 3371 1064 09       		.byte	0x9
 3372 1065 06040000 		.long	0x406
 3373 1069 02       		.byte	0x2
 3374 106a 91       		.byte	0x91
 3375 106b 50       		.sleb128 -48
 3376 106c 11       		.uleb128 0x11
 3377 106d 76617269 		.ascii "variance\0"
 3377      616E6365 
 3377      00
GAS LISTING C:\Users\jisu8\AppData\Local\Temp\ccw96xXP.s 			page 76


 3378 1076 01       		.byte	0x1
 3379 1077 47       		.byte	0x47
 3380 1078 09       		.byte	0x9
 3381 1079 06040000 		.long	0x406
 3382 107d 02       		.byte	0x2
 3383 107e 91       		.byte	0x91
 3384 107f 4C       		.sleb128 -52
 3385 1080 00       		.byte	0
 3386 1081 00       		.byte	0
 3387 1082 00       		.byte	0
 3388 1083 00       		.byte	0
 3389              		.section	.debug_abbrev,"dr"
 3390              	Ldebug_abbrev0:
 3391 0000 01       		.uleb128 0x1
 3392 0001 11       		.uleb128 0x11
 3393 0002 01       		.byte	0x1
 3394 0003 25       		.uleb128 0x25
 3395 0004 08       		.uleb128 0x8
 3396 0005 13       		.uleb128 0x13
 3397 0006 0B       		.uleb128 0xb
 3398 0007 03       		.uleb128 0x3
 3399 0008 08       		.uleb128 0x8
 3400 0009 1B       		.uleb128 0x1b
 3401 000a 08       		.uleb128 0x8
 3402 000b 11       		.uleb128 0x11
 3403 000c 01       		.uleb128 0x1
 3404 000d 12       		.uleb128 0x12
 3405 000e 01       		.uleb128 0x1
 3406 000f 10       		.uleb128 0x10
 3407 0010 06       		.uleb128 0x6
 3408 0011 00       		.byte	0
 3409 0012 00       		.byte	0
 3410 0013 02       		.uleb128 0x2
 3411 0014 04       		.uleb128 0x4
 3412 0015 01       		.byte	0x1
 3413 0016 3E       		.uleb128 0x3e
 3414 0017 0B       		.uleb128 0xb
 3415 0018 0B       		.uleb128 0xb
 3416 0019 0B       		.uleb128 0xb
 3417 001a 49       		.uleb128 0x49
 3418 001b 13       		.uleb128 0x13
 3419 001c 3A       		.uleb128 0x3a
 3420 001d 0B       		.uleb128 0xb
 3421 001e 3B       		.uleb128 0x3b
 3422 001f 0B       		.uleb128 0xb
 3423 0020 39       		.uleb128 0x39
 3424 0021 0B       		.uleb128 0xb
 3425 0022 01       		.uleb128 0x1
 3426 0023 13       		.uleb128 0x13
 3427 0024 00       		.byte	0
 3428 0025 00       		.byte	0
 3429 0026 03       		.uleb128 0x3
 3430 0027 28       		.uleb128 0x28
 3431 0028 00       		.byte	0
 3432 0029 03       		.uleb128 0x3
 3433 002a 08       		.uleb128 0x8
 3434 002b 1C       		.uleb128 0x1c
GAS LISTING C:\Users\jisu8\AppData\Local\Temp\ccw96xXP.s 			page 77


 3435 002c 0B       		.uleb128 0xb
 3436 002d 00       		.byte	0
 3437 002e 00       		.byte	0
 3438 002f 04       		.uleb128 0x4
 3439 0030 24       		.uleb128 0x24
 3440 0031 00       		.byte	0
 3441 0032 0B       		.uleb128 0xb
 3442 0033 0B       		.uleb128 0xb
 3443 0034 3E       		.uleb128 0x3e
 3444 0035 0B       		.uleb128 0xb
 3445 0036 03       		.uleb128 0x3
 3446 0037 08       		.uleb128 0x8
 3447 0038 00       		.byte	0
 3448 0039 00       		.byte	0
 3449 003a 05       		.uleb128 0x5
 3450 003b 16       		.uleb128 0x16
 3451 003c 00       		.byte	0
 3452 003d 03       		.uleb128 0x3
 3453 003e 08       		.uleb128 0x8
 3454 003f 3A       		.uleb128 0x3a
 3455 0040 0B       		.uleb128 0xb
 3456 0041 3B       		.uleb128 0x3b
 3457 0042 0B       		.uleb128 0xb
 3458 0043 39       		.uleb128 0x39
 3459 0044 0B       		.uleb128 0xb
 3460 0045 49       		.uleb128 0x49
 3461 0046 13       		.uleb128 0x13
 3462 0047 00       		.byte	0
 3463 0048 00       		.byte	0
 3464 0049 06       		.uleb128 0x6
 3465 004a 26       		.uleb128 0x26
 3466 004b 00       		.byte	0
 3467 004c 49       		.uleb128 0x49
 3468 004d 13       		.uleb128 0x13
 3469 004e 00       		.byte	0
 3470 004f 00       		.byte	0
 3471 0050 07       		.uleb128 0x7
 3472 0051 0F       		.uleb128 0xf
 3473 0052 00       		.byte	0
 3474 0053 0B       		.uleb128 0xb
 3475 0054 0B       		.uleb128 0xb
 3476 0055 49       		.uleb128 0x49
 3477 0056 13       		.uleb128 0x13
 3478 0057 00       		.byte	0
 3479 0058 00       		.byte	0
 3480 0059 08       		.uleb128 0x8
 3481 005a 13       		.uleb128 0x13
 3482 005b 01       		.byte	0x1
 3483 005c 03       		.uleb128 0x3
 3484 005d 08       		.uleb128 0x8
 3485 005e 0B       		.uleb128 0xb
 3486 005f 0B       		.uleb128 0xb
 3487 0060 3A       		.uleb128 0x3a
 3488 0061 0B       		.uleb128 0xb
 3489 0062 3B       		.uleb128 0x3b
 3490 0063 0B       		.uleb128 0xb
 3491 0064 39       		.uleb128 0x39
GAS LISTING C:\Users\jisu8\AppData\Local\Temp\ccw96xXP.s 			page 78


 3492 0065 0B       		.uleb128 0xb
 3493 0066 01       		.uleb128 0x1
 3494 0067 13       		.uleb128 0x13
 3495 0068 00       		.byte	0
 3496 0069 00       		.byte	0
 3497 006a 09       		.uleb128 0x9
 3498 006b 0D       		.uleb128 0xd
 3499 006c 00       		.byte	0
 3500 006d 03       		.uleb128 0x3
 3501 006e 08       		.uleb128 0x8
 3502 006f 3A       		.uleb128 0x3a
 3503 0070 0B       		.uleb128 0xb
 3504 0071 3B       		.uleb128 0x3b
 3505 0072 0B       		.uleb128 0xb
 3506 0073 39       		.uleb128 0x39
 3507 0074 0B       		.uleb128 0xb
 3508 0075 49       		.uleb128 0x49
 3509 0076 13       		.uleb128 0x13
 3510 0077 38       		.uleb128 0x38
 3511 0078 0A       		.uleb128 0xa
 3512 0079 00       		.byte	0
 3513 007a 00       		.byte	0
 3514 007b 0A       		.uleb128 0xa
 3515 007c 01       		.uleb128 0x1
 3516 007d 01       		.byte	0x1
 3517 007e 49       		.uleb128 0x49
 3518 007f 13       		.uleb128 0x13
 3519 0080 01       		.uleb128 0x1
 3520 0081 13       		.uleb128 0x13
 3521 0082 00       		.byte	0
 3522 0083 00       		.byte	0
 3523 0084 0B       		.uleb128 0xb
 3524 0085 21       		.uleb128 0x21
 3525 0086 00       		.byte	0
 3526 0087 00       		.byte	0
 3527 0088 00       		.byte	0
 3528 0089 0C       		.uleb128 0xc
 3529 008a 34       		.uleb128 0x34
 3530 008b 00       		.byte	0
 3531 008c 03       		.uleb128 0x3
 3532 008d 08       		.uleb128 0x8
 3533 008e 3A       		.uleb128 0x3a
 3534 008f 0B       		.uleb128 0xb
 3535 0090 3B       		.uleb128 0x3b
 3536 0091 0B       		.uleb128 0xb
 3537 0092 39       		.uleb128 0x39
 3538 0093 0B       		.uleb128 0xb
 3539 0094 49       		.uleb128 0x49
 3540 0095 13       		.uleb128 0x13
 3541 0096 3F       		.uleb128 0x3f
 3542 0097 0C       		.uleb128 0xc
 3543 0098 3C       		.uleb128 0x3c
 3544 0099 0C       		.uleb128 0xc
 3545 009a 00       		.byte	0
 3546 009b 00       		.byte	0
 3547 009c 0D       		.uleb128 0xd
 3548 009d 13       		.uleb128 0x13
GAS LISTING C:\Users\jisu8\AppData\Local\Temp\ccw96xXP.s 			page 79


 3549 009e 01       		.byte	0x1
 3550 009f 0B       		.uleb128 0xb
 3551 00a0 0B       		.uleb128 0xb
 3552 00a1 3A       		.uleb128 0x3a
 3553 00a2 0B       		.uleb128 0xb
 3554 00a3 3B       		.uleb128 0x3b
 3555 00a4 0B       		.uleb128 0xb
 3556 00a5 39       		.uleb128 0x39
 3557 00a6 0B       		.uleb128 0xb
 3558 00a7 01       		.uleb128 0x1
 3559 00a8 13       		.uleb128 0x13
 3560 00a9 00       		.byte	0
 3561 00aa 00       		.byte	0
 3562 00ab 0E       		.uleb128 0xe
 3563 00ac 0D       		.uleb128 0xd
 3564 00ad 00       		.byte	0
 3565 00ae 03       		.uleb128 0x3
 3566 00af 0E       		.uleb128 0xe
 3567 00b0 3A       		.uleb128 0x3a
 3568 00b1 0B       		.uleb128 0xb
 3569 00b2 3B       		.uleb128 0x3b
 3570 00b3 0B       		.uleb128 0xb
 3571 00b4 39       		.uleb128 0x39
 3572 00b5 0B       		.uleb128 0xb
 3573 00b6 49       		.uleb128 0x49
 3574 00b7 13       		.uleb128 0x13
 3575 00b8 38       		.uleb128 0x38
 3576 00b9 0A       		.uleb128 0xa
 3577 00ba 00       		.byte	0
 3578 00bb 00       		.byte	0
 3579 00bc 0F       		.uleb128 0xf
 3580 00bd 21       		.uleb128 0x21
 3581 00be 00       		.byte	0
 3582 00bf 49       		.uleb128 0x49
 3583 00c0 13       		.uleb128 0x13
 3584 00c1 2F       		.uleb128 0x2f
 3585 00c2 0B       		.uleb128 0xb
 3586 00c3 00       		.byte	0
 3587 00c4 00       		.byte	0
 3588 00c5 10       		.uleb128 0x10
 3589 00c6 34       		.uleb128 0x34
 3590 00c7 00       		.byte	0
 3591 00c8 03       		.uleb128 0x3
 3592 00c9 08       		.uleb128 0x8
 3593 00ca 3A       		.uleb128 0x3a
 3594 00cb 0B       		.uleb128 0xb
 3595 00cc 3B       		.uleb128 0x3b
 3596 00cd 05       		.uleb128 0x5
 3597 00ce 39       		.uleb128 0x39
 3598 00cf 0B       		.uleb128 0xb
 3599 00d0 49       		.uleb128 0x49
 3600 00d1 13       		.uleb128 0x13
 3601 00d2 3F       		.uleb128 0x3f
 3602 00d3 0C       		.uleb128 0xc
 3603 00d4 3C       		.uleb128 0x3c
 3604 00d5 0C       		.uleb128 0xc
 3605 00d6 00       		.byte	0
GAS LISTING C:\Users\jisu8\AppData\Local\Temp\ccw96xXP.s 			page 80


 3606 00d7 00       		.byte	0
 3607 00d8 11       		.uleb128 0x11
 3608 00d9 34       		.uleb128 0x34
 3609 00da 00       		.byte	0
 3610 00db 03       		.uleb128 0x3
 3611 00dc 08       		.uleb128 0x8
 3612 00dd 3A       		.uleb128 0x3a
 3613 00de 0B       		.uleb128 0xb
 3614 00df 3B       		.uleb128 0x3b
 3615 00e0 0B       		.uleb128 0xb
 3616 00e1 39       		.uleb128 0x39
 3617 00e2 0B       		.uleb128 0xb
 3618 00e3 49       		.uleb128 0x49
 3619 00e4 13       		.uleb128 0x13
 3620 00e5 02       		.uleb128 0x2
 3621 00e6 0A       		.uleb128 0xa
 3622 00e7 00       		.byte	0
 3623 00e8 00       		.byte	0
 3624 00e9 12       		.uleb128 0x12
 3625 00ea 34       		.uleb128 0x34
 3626 00eb 00       		.byte	0
 3627 00ec 03       		.uleb128 0x3
 3628 00ed 0E       		.uleb128 0xe
 3629 00ee 3A       		.uleb128 0x3a
 3630 00ef 0B       		.uleb128 0xb
 3631 00f0 3B       		.uleb128 0x3b
 3632 00f1 0B       		.uleb128 0xb
 3633 00f2 39       		.uleb128 0x39
 3634 00f3 0B       		.uleb128 0xb
 3635 00f4 49       		.uleb128 0x49
 3636 00f5 13       		.uleb128 0x13
 3637 00f6 02       		.uleb128 0x2
 3638 00f7 0A       		.uleb128 0xa
 3639 00f8 00       		.byte	0
 3640 00f9 00       		.byte	0
 3641 00fa 13       		.uleb128 0x13
 3642 00fb 2E       		.uleb128 0x2e
 3643 00fc 01       		.byte	0x1
 3644 00fd 3F       		.uleb128 0x3f
 3645 00fe 0C       		.uleb128 0xc
 3646 00ff 03       		.uleb128 0x3
 3647 0100 08       		.uleb128 0x8
 3648 0101 3A       		.uleb128 0x3a
 3649 0102 0B       		.uleb128 0xb
 3650 0103 3B       		.uleb128 0x3b
 3651 0104 05       		.uleb128 0x5
 3652 0105 39       		.uleb128 0x39
 3653 0106 0B       		.uleb128 0xb
 3654 0107 27       		.uleb128 0x27
 3655 0108 0C       		.uleb128 0xc
 3656 0109 49       		.uleb128 0x49
 3657 010a 13       		.uleb128 0x13
 3658 010b 11       		.uleb128 0x11
 3659 010c 01       		.uleb128 0x1
 3660 010d 12       		.uleb128 0x12
 3661 010e 01       		.uleb128 0x1
 3662 010f 40       		.uleb128 0x40
GAS LISTING C:\Users\jisu8\AppData\Local\Temp\ccw96xXP.s 			page 81


 3663 0110 06       		.uleb128 0x6
 3664 0111 9642     		.uleb128 0x2116
 3665 0113 0C       		.uleb128 0xc
 3666 0114 01       		.uleb128 0x1
 3667 0115 13       		.uleb128 0x13
 3668 0116 00       		.byte	0
 3669 0117 00       		.byte	0
 3670 0118 14       		.uleb128 0x14
 3671 0119 05       		.uleb128 0x5
 3672 011a 00       		.byte	0
 3673 011b 03       		.uleb128 0x3
 3674 011c 08       		.uleb128 0x8
 3675 011d 3A       		.uleb128 0x3a
 3676 011e 0B       		.uleb128 0xb
 3677 011f 3B       		.uleb128 0x3b
 3678 0120 05       		.uleb128 0x5
 3679 0121 39       		.uleb128 0x39
 3680 0122 0B       		.uleb128 0xb
 3681 0123 49       		.uleb128 0x49
 3682 0124 13       		.uleb128 0x13
 3683 0125 02       		.uleb128 0x2
 3684 0126 0A       		.uleb128 0xa
 3685 0127 00       		.byte	0
 3686 0128 00       		.byte	0
 3687 0129 15       		.uleb128 0x15
 3688 012a 05       		.uleb128 0x5
 3689 012b 00       		.byte	0
 3690 012c 03       		.uleb128 0x3
 3691 012d 0E       		.uleb128 0xe
 3692 012e 3A       		.uleb128 0x3a
 3693 012f 0B       		.uleb128 0xb
 3694 0130 3B       		.uleb128 0x3b
 3695 0131 05       		.uleb128 0x5
 3696 0132 39       		.uleb128 0x39
 3697 0133 0B       		.uleb128 0xb
 3698 0134 49       		.uleb128 0x49
 3699 0135 13       		.uleb128 0x13
 3700 0136 02       		.uleb128 0x2
 3701 0137 0A       		.uleb128 0xa
 3702 0138 00       		.byte	0
 3703 0139 00       		.byte	0
 3704 013a 16       		.uleb128 0x16
 3705 013b 34       		.uleb128 0x34
 3706 013c 00       		.byte	0
 3707 013d 03       		.uleb128 0x3
 3708 013e 08       		.uleb128 0x8
 3709 013f 3A       		.uleb128 0x3a
 3710 0140 0B       		.uleb128 0xb
 3711 0141 3B       		.uleb128 0x3b
 3712 0142 05       		.uleb128 0x5
 3713 0143 39       		.uleb128 0x39
 3714 0144 0B       		.uleb128 0xb
 3715 0145 49       		.uleb128 0x49
 3716 0146 13       		.uleb128 0x13
 3717 0147 02       		.uleb128 0x2
 3718 0148 0A       		.uleb128 0xa
 3719 0149 00       		.byte	0
GAS LISTING C:\Users\jisu8\AppData\Local\Temp\ccw96xXP.s 			page 82


 3720 014a 00       		.byte	0
 3721 014b 17       		.uleb128 0x17
 3722 014c 34       		.uleb128 0x34
 3723 014d 00       		.byte	0
 3724 014e 03       		.uleb128 0x3
 3725 014f 0E       		.uleb128 0xe
 3726 0150 3A       		.uleb128 0x3a
 3727 0151 0B       		.uleb128 0xb
 3728 0152 3B       		.uleb128 0x3b
 3729 0153 05       		.uleb128 0x5
 3730 0154 39       		.uleb128 0x39
 3731 0155 0B       		.uleb128 0xb
 3732 0156 49       		.uleb128 0x49
 3733 0157 13       		.uleb128 0x13
 3734 0158 02       		.uleb128 0x2
 3735 0159 0A       		.uleb128 0xa
 3736 015a 00       		.byte	0
 3737 015b 00       		.byte	0
 3738 015c 18       		.uleb128 0x18
 3739 015d 2E       		.uleb128 0x2e
 3740 015e 01       		.byte	0x1
 3741 015f 03       		.uleb128 0x3
 3742 0160 08       		.uleb128 0x8
 3743 0161 3A       		.uleb128 0x3a
 3744 0162 0B       		.uleb128 0xb
 3745 0163 3B       		.uleb128 0x3b
 3746 0164 05       		.uleb128 0x5
 3747 0165 39       		.uleb128 0x39
 3748 0166 0B       		.uleb128 0xb
 3749 0167 27       		.uleb128 0x27
 3750 0168 0C       		.uleb128 0xc
 3751 0169 49       		.uleb128 0x49
 3752 016a 13       		.uleb128 0x13
 3753 016b 11       		.uleb128 0x11
 3754 016c 01       		.uleb128 0x1
 3755 016d 12       		.uleb128 0x12
 3756 016e 01       		.uleb128 0x1
 3757 016f 40       		.uleb128 0x40
 3758 0170 06       		.uleb128 0x6
 3759 0171 9742     		.uleb128 0x2117
 3760 0173 0C       		.uleb128 0xc
 3761 0174 01       		.uleb128 0x1
 3762 0175 13       		.uleb128 0x13
 3763 0176 00       		.byte	0
 3764 0177 00       		.byte	0
 3765 0178 19       		.uleb128 0x19
 3766 0179 0B       		.uleb128 0xb
 3767 017a 01       		.byte	0x1
 3768 017b 11       		.uleb128 0x11
 3769 017c 01       		.uleb128 0x1
 3770 017d 12       		.uleb128 0x12
 3771 017e 01       		.uleb128 0x1
 3772 017f 00       		.byte	0
 3773 0180 00       		.byte	0
 3774 0181 1A       		.uleb128 0x1a
 3775 0182 2E       		.uleb128 0x2e
 3776 0183 01       		.byte	0x1
GAS LISTING C:\Users\jisu8\AppData\Local\Temp\ccw96xXP.s 			page 83


 3777 0184 03       		.uleb128 0x3
 3778 0185 08       		.uleb128 0x8
 3779 0186 3A       		.uleb128 0x3a
 3780 0187 0B       		.uleb128 0xb
 3781 0188 3B       		.uleb128 0x3b
 3782 0189 05       		.uleb128 0x5
 3783 018a 39       		.uleb128 0x39
 3784 018b 0B       		.uleb128 0xb
 3785 018c 27       		.uleb128 0x27
 3786 018d 0C       		.uleb128 0xc
 3787 018e 49       		.uleb128 0x49
 3788 018f 13       		.uleb128 0x13
 3789 0190 11       		.uleb128 0x11
 3790 0191 01       		.uleb128 0x1
 3791 0192 12       		.uleb128 0x12
 3792 0193 01       		.uleb128 0x1
 3793 0194 40       		.uleb128 0x40
 3794 0195 06       		.uleb128 0x6
 3795 0196 9642     		.uleb128 0x2116
 3796 0198 0C       		.uleb128 0xc
 3797 0199 01       		.uleb128 0x1
 3798 019a 13       		.uleb128 0x13
 3799 019b 00       		.byte	0
 3800 019c 00       		.byte	0
 3801 019d 1B       		.uleb128 0x1b
 3802 019e 2E       		.uleb128 0x2e
 3803 019f 01       		.byte	0x1
 3804 01a0 03       		.uleb128 0x3
 3805 01a1 08       		.uleb128 0x8
 3806 01a2 3A       		.uleb128 0x3a
 3807 01a3 0B       		.uleb128 0xb
 3808 01a4 3B       		.uleb128 0x3b
 3809 01a5 0B       		.uleb128 0xb
 3810 01a6 39       		.uleb128 0x39
 3811 01a7 0B       		.uleb128 0xb
 3812 01a8 27       		.uleb128 0x27
 3813 01a9 0C       		.uleb128 0xc
 3814 01aa 49       		.uleb128 0x49
 3815 01ab 13       		.uleb128 0x13
 3816 01ac 11       		.uleb128 0x11
 3817 01ad 01       		.uleb128 0x1
 3818 01ae 12       		.uleb128 0x12
 3819 01af 01       		.uleb128 0x1
 3820 01b0 40       		.uleb128 0x40
 3821 01b1 06       		.uleb128 0x6
 3822 01b2 9642     		.uleb128 0x2116
 3823 01b4 0C       		.uleb128 0xc
 3824 01b5 01       		.uleb128 0x1
 3825 01b6 13       		.uleb128 0x13
 3826 01b7 00       		.byte	0
 3827 01b8 00       		.byte	0
 3828 01b9 1C       		.uleb128 0x1c
 3829 01ba 05       		.uleb128 0x5
 3830 01bb 00       		.byte	0
 3831 01bc 03       		.uleb128 0x3
 3832 01bd 0E       		.uleb128 0xe
 3833 01be 3A       		.uleb128 0x3a
GAS LISTING C:\Users\jisu8\AppData\Local\Temp\ccw96xXP.s 			page 84


 3834 01bf 0B       		.uleb128 0xb
 3835 01c0 3B       		.uleb128 0x3b
 3836 01c1 0B       		.uleb128 0xb
 3837 01c2 39       		.uleb128 0x39
 3838 01c3 0B       		.uleb128 0xb
 3839 01c4 49       		.uleb128 0x49
 3840 01c5 13       		.uleb128 0x13
 3841 01c6 02       		.uleb128 0x2
 3842 01c7 0A       		.uleb128 0xa
 3843 01c8 00       		.byte	0
 3844 01c9 00       		.byte	0
 3845 01ca 1D       		.uleb128 0x1d
 3846 01cb 0B       		.uleb128 0xb
 3847 01cc 01       		.byte	0x1
 3848 01cd 11       		.uleb128 0x11
 3849 01ce 01       		.uleb128 0x1
 3850 01cf 12       		.uleb128 0x12
 3851 01d0 01       		.uleb128 0x1
 3852 01d1 01       		.uleb128 0x1
 3853 01d2 13       		.uleb128 0x13
 3854 01d3 00       		.byte	0
 3855 01d4 00       		.byte	0
 3856 01d5 1E       		.uleb128 0x1e
 3857 01d6 2E       		.uleb128 0x2e
 3858 01d7 01       		.byte	0x1
 3859 01d8 03       		.uleb128 0x3
 3860 01d9 08       		.uleb128 0x8
 3861 01da 3A       		.uleb128 0x3a
 3862 01db 0B       		.uleb128 0xb
 3863 01dc 3B       		.uleb128 0x3b
 3864 01dd 0B       		.uleb128 0xb
 3865 01de 39       		.uleb128 0x39
 3866 01df 0B       		.uleb128 0xb
 3867 01e0 27       		.uleb128 0x27
 3868 01e1 0C       		.uleb128 0xc
 3869 01e2 11       		.uleb128 0x11
 3870 01e3 01       		.uleb128 0x1
 3871 01e4 12       		.uleb128 0x12
 3872 01e5 01       		.uleb128 0x1
 3873 01e6 40       		.uleb128 0x40
 3874 01e7 06       		.uleb128 0x6
 3875 01e8 9742     		.uleb128 0x2117
 3876 01ea 0C       		.uleb128 0xc
 3877 01eb 01       		.uleb128 0x1
 3878 01ec 13       		.uleb128 0x13
 3879 01ed 00       		.byte	0
 3880 01ee 00       		.byte	0
 3881 01ef 1F       		.uleb128 0x1f
 3882 01f0 05       		.uleb128 0x5
 3883 01f1 00       		.byte	0
 3884 01f2 03       		.uleb128 0x3
 3885 01f3 08       		.uleb128 0x8
 3886 01f4 3A       		.uleb128 0x3a
 3887 01f5 0B       		.uleb128 0xb
 3888 01f6 3B       		.uleb128 0x3b
 3889 01f7 0B       		.uleb128 0xb
 3890 01f8 39       		.uleb128 0x39
GAS LISTING C:\Users\jisu8\AppData\Local\Temp\ccw96xXP.s 			page 85


 3891 01f9 0B       		.uleb128 0xb
 3892 01fa 49       		.uleb128 0x49
 3893 01fb 13       		.uleb128 0x13
 3894 01fc 02       		.uleb128 0x2
 3895 01fd 0A       		.uleb128 0xa
 3896 01fe 00       		.byte	0
 3897 01ff 00       		.byte	0
 3898 0200 20       		.uleb128 0x20
 3899 0201 0B       		.uleb128 0xb
 3900 0202 01       		.byte	0x1
 3901 0203 55       		.uleb128 0x55
 3902 0204 06       		.uleb128 0x6
 3903 0205 00       		.byte	0
 3904 0206 00       		.byte	0
 3905 0207 21       		.uleb128 0x21
 3906 0208 21       		.uleb128 0x21
 3907 0209 00       		.byte	0
 3908 020a 49       		.uleb128 0x49
 3909 020b 13       		.uleb128 0x13
 3910 020c 2F       		.uleb128 0x2f
 3911 020d 0A       		.uleb128 0xa
 3912 020e 00       		.byte	0
 3913 020f 00       		.byte	0
 3914 0210 22       		.uleb128 0x22
 3915 0211 2E       		.uleb128 0x2e
 3916 0212 01       		.byte	0x1
 3917 0213 03       		.uleb128 0x3
 3918 0214 08       		.uleb128 0x8
 3919 0215 3A       		.uleb128 0x3a
 3920 0216 0B       		.uleb128 0xb
 3921 0217 3B       		.uleb128 0x3b
 3922 0218 0B       		.uleb128 0xb
 3923 0219 39       		.uleb128 0x39
 3924 021a 0B       		.uleb128 0xb
 3925 021b 27       		.uleb128 0x27
 3926 021c 0C       		.uleb128 0xc
 3927 021d 49       		.uleb128 0x49
 3928 021e 13       		.uleb128 0x13
 3929 021f 11       		.uleb128 0x11
 3930 0220 01       		.uleb128 0x1
 3931 0221 12       		.uleb128 0x12
 3932 0222 01       		.uleb128 0x1
 3933 0223 40       		.uleb128 0x40
 3934 0224 06       		.uleb128 0x6
 3935 0225 9642     		.uleb128 0x2116
 3936 0227 0C       		.uleb128 0xc
 3937 0228 00       		.byte	0
 3938 0229 00       		.byte	0
 3939 022a 00       		.byte	0
 3940              		.section	.debug_loc,"dr"
 3941              	Ldebug_loc0:
 3942              	LLST8:
 3943 0000 8A0B0000 		.long	LFB24-Ltext0
 3944 0004 8B0B0000 		.long	LCFI24-Ltext0
 3945 0008 0200     		.word	0x2
 3946 000a 74       		.byte	0x74
 3947 000b 04       		.sleb128 4
GAS LISTING C:\Users\jisu8\AppData\Local\Temp\ccw96xXP.s 			page 86


 3948 000c 8B0B0000 		.long	LCFI24-Ltext0
 3949 0010 8D0B0000 		.long	LCFI25-Ltext0
 3950 0014 0200     		.word	0x2
 3951 0016 74       		.byte	0x74
 3952 0017 08       		.sleb128 8
 3953 0018 8D0B0000 		.long	LCFI25-Ltext0
 3954 001c 440C0000 		.long	LCFI26-Ltext0
 3955 0020 0200     		.word	0x2
 3956 0022 75       		.byte	0x75
 3957 0023 08       		.sleb128 8
 3958 0024 440C0000 		.long	LCFI26-Ltext0
 3959 0028 450C0000 		.long	LFE24-Ltext0
 3960 002c 0200     		.word	0x2
 3961 002e 74       		.byte	0x74
 3962 002f 04       		.sleb128 4
 3963 0030 00000000 		.long	0
 3964 0034 00000000 		.long	0
 3965              	LLST7:
 3966 0038 2C0B0000 		.long	LFB23-Ltext0
 3967 003c 2D0B0000 		.long	LCFI21-Ltext0
 3968 0040 0200     		.word	0x2
 3969 0042 74       		.byte	0x74
 3970 0043 04       		.sleb128 4
 3971 0044 2D0B0000 		.long	LCFI21-Ltext0
 3972 0048 2F0B0000 		.long	LCFI22-Ltext0
 3973 004c 0200     		.word	0x2
 3974 004e 74       		.byte	0x74
 3975 004f 08       		.sleb128 8
 3976 0050 2F0B0000 		.long	LCFI22-Ltext0
 3977 0054 890B0000 		.long	LCFI23-Ltext0
 3978 0058 0200     		.word	0x2
 3979 005a 75       		.byte	0x75
 3980 005b 08       		.sleb128 8
 3981 005c 890B0000 		.long	LCFI23-Ltext0
 3982 0060 8A0B0000 		.long	LFE23-Ltext0
 3983 0064 0200     		.word	0x2
 3984 0066 74       		.byte	0x74
 3985 0067 04       		.sleb128 4
 3986 0068 00000000 		.long	0
 3987 006c 00000000 		.long	0
 3988              	LLST6:
 3989 0070 980A0000 		.long	LFB22-Ltext0
 3990 0074 990A0000 		.long	LCFI18-Ltext0
 3991 0078 0200     		.word	0x2
 3992 007a 74       		.byte	0x74
 3993 007b 04       		.sleb128 4
 3994 007c 990A0000 		.long	LCFI18-Ltext0
 3995 0080 9B0A0000 		.long	LCFI19-Ltext0
 3996 0084 0200     		.word	0x2
 3997 0086 74       		.byte	0x74
 3998 0087 08       		.sleb128 8
 3999 0088 9B0A0000 		.long	LCFI19-Ltext0
 4000 008c 2B0B0000 		.long	LCFI20-Ltext0
 4001 0090 0200     		.word	0x2
 4002 0092 75       		.byte	0x75
 4003 0093 08       		.sleb128 8
 4004 0094 2B0B0000 		.long	LCFI20-Ltext0
GAS LISTING C:\Users\jisu8\AppData\Local\Temp\ccw96xXP.s 			page 87


 4005 0098 2C0B0000 		.long	LFE22-Ltext0
 4006 009c 0200     		.word	0x2
 4007 009e 74       		.byte	0x74
 4008 009f 04       		.sleb128 4
 4009 00a0 00000000 		.long	0
 4010 00a4 00000000 		.long	0
 4011              	LLST5:
 4012 00a8 75090000 		.long	LFB21-Ltext0
 4013 00ac 76090000 		.long	LCFI15-Ltext0
 4014 00b0 0200     		.word	0x2
 4015 00b2 74       		.byte	0x74
 4016 00b3 04       		.sleb128 4
 4017 00b4 76090000 		.long	LCFI15-Ltext0
 4018 00b8 78090000 		.long	LCFI16-Ltext0
 4019 00bc 0200     		.word	0x2
 4020 00be 74       		.byte	0x74
 4021 00bf 08       		.sleb128 8
 4022 00c0 78090000 		.long	LCFI16-Ltext0
 4023 00c4 970A0000 		.long	LCFI17-Ltext0
 4024 00c8 0200     		.word	0x2
 4025 00ca 75       		.byte	0x75
 4026 00cb 08       		.sleb128 8
 4027 00cc 970A0000 		.long	LCFI17-Ltext0
 4028 00d0 980A0000 		.long	LFE21-Ltext0
 4029 00d4 0200     		.word	0x2
 4030 00d6 74       		.byte	0x74
 4031 00d7 04       		.sleb128 4
 4032 00d8 00000000 		.long	0
 4033 00dc 00000000 		.long	0
 4034              	LLST4:
 4035 00e0 B9070000 		.long	LFB20-Ltext0
 4036 00e4 BA070000 		.long	LCFI12-Ltext0
 4037 00e8 0200     		.word	0x2
 4038 00ea 74       		.byte	0x74
 4039 00eb 04       		.sleb128 4
 4040 00ec BA070000 		.long	LCFI12-Ltext0
 4041 00f0 BC070000 		.long	LCFI13-Ltext0
 4042 00f4 0200     		.word	0x2
 4043 00f6 74       		.byte	0x74
 4044 00f7 08       		.sleb128 8
 4045 00f8 BC070000 		.long	LCFI13-Ltext0
 4046 00fc 74090000 		.long	LCFI14-Ltext0
 4047 0100 0200     		.word	0x2
 4048 0102 75       		.byte	0x75
 4049 0103 08       		.sleb128 8
 4050 0104 74090000 		.long	LCFI14-Ltext0
 4051 0108 75090000 		.long	LFE20-Ltext0
 4052 010c 0200     		.word	0x2
 4053 010e 74       		.byte	0x74
 4054 010f 04       		.sleb128 4
 4055 0110 00000000 		.long	0
 4056 0114 00000000 		.long	0
 4057              	LLST3:
 4058 0118 E2060000 		.long	LFB19-Ltext0
 4059 011c E3060000 		.long	LCFI9-Ltext0
 4060 0120 0200     		.word	0x2
 4061 0122 74       		.byte	0x74
GAS LISTING C:\Users\jisu8\AppData\Local\Temp\ccw96xXP.s 			page 88


 4062 0123 04       		.sleb128 4
 4063 0124 E3060000 		.long	LCFI9-Ltext0
 4064 0128 E5060000 		.long	LCFI10-Ltext0
 4065 012c 0200     		.word	0x2
 4066 012e 74       		.byte	0x74
 4067 012f 08       		.sleb128 8
 4068 0130 E5060000 		.long	LCFI10-Ltext0
 4069 0134 B8070000 		.long	LCFI11-Ltext0
 4070 0138 0200     		.word	0x2
 4071 013a 75       		.byte	0x75
 4072 013b 08       		.sleb128 8
 4073 013c B8070000 		.long	LCFI11-Ltext0
 4074 0140 B9070000 		.long	LFE19-Ltext0
 4075 0144 0200     		.word	0x2
 4076 0146 74       		.byte	0x74
 4077 0147 04       		.sleb128 4
 4078 0148 00000000 		.long	0
 4079 014c 00000000 		.long	0
 4080              	LLST2:
 4081 0150 9D030000 		.long	LFB18-Ltext0
 4082 0154 9E030000 		.long	LCFI6-Ltext0
 4083 0158 0200     		.word	0x2
 4084 015a 74       		.byte	0x74
 4085 015b 04       		.sleb128 4
 4086 015c 9E030000 		.long	LCFI6-Ltext0
 4087 0160 A0030000 		.long	LCFI7-Ltext0
 4088 0164 0200     		.word	0x2
 4089 0166 74       		.byte	0x74
 4090 0167 08       		.sleb128 8
 4091 0168 A0030000 		.long	LCFI7-Ltext0
 4092 016c E1060000 		.long	LCFI8-Ltext0
 4093 0170 0200     		.word	0x2
 4094 0172 75       		.byte	0x75
 4095 0173 08       		.sleb128 8
 4096 0174 E1060000 		.long	LCFI8-Ltext0
 4097 0178 E2060000 		.long	LFE18-Ltext0
 4098 017c 0200     		.word	0x2
 4099 017e 74       		.byte	0x74
 4100 017f 04       		.sleb128 4
 4101 0180 00000000 		.long	0
 4102 0184 00000000 		.long	0
 4103              	LLST1:
 4104 0188 20010000 		.long	LFB17-Ltext0
 4105 018c 21010000 		.long	LCFI3-Ltext0
 4106 0190 0200     		.word	0x2
 4107 0192 74       		.byte	0x74
 4108 0193 04       		.sleb128 4
 4109 0194 21010000 		.long	LCFI3-Ltext0
 4110 0198 23010000 		.long	LCFI4-Ltext0
 4111 019c 0200     		.word	0x2
 4112 019e 74       		.byte	0x74
 4113 019f 08       		.sleb128 8
 4114 01a0 23010000 		.long	LCFI4-Ltext0
 4115 01a4 9C030000 		.long	LCFI5-Ltext0
 4116 01a8 0200     		.word	0x2
 4117 01aa 75       		.byte	0x75
 4118 01ab 08       		.sleb128 8
GAS LISTING C:\Users\jisu8\AppData\Local\Temp\ccw96xXP.s 			page 89


 4119 01ac 9C030000 		.long	LCFI5-Ltext0
 4120 01b0 9D030000 		.long	LFE17-Ltext0
 4121 01b4 0200     		.word	0x2
 4122 01b6 74       		.byte	0x74
 4123 01b7 04       		.sleb128 4
 4124 01b8 00000000 		.long	0
 4125 01bc 00000000 		.long	0
 4126              	LLST0:
 4127 01c0 00000000 		.long	LFB16-Ltext0
 4128 01c4 01000000 		.long	LCFI0-Ltext0
 4129 01c8 0200     		.word	0x2
 4130 01ca 74       		.byte	0x74
 4131 01cb 04       		.sleb128 4
 4132 01cc 01000000 		.long	LCFI0-Ltext0
 4133 01d0 03000000 		.long	LCFI1-Ltext0
 4134 01d4 0200     		.word	0x2
 4135 01d6 74       		.byte	0x74
 4136 01d7 08       		.sleb128 8
 4137 01d8 03000000 		.long	LCFI1-Ltext0
 4138 01dc 1F010000 		.long	LCFI2-Ltext0
 4139 01e0 0200     		.word	0x2
 4140 01e2 75       		.byte	0x75
 4141 01e3 08       		.sleb128 8
 4142 01e4 1F010000 		.long	LCFI2-Ltext0
 4143 01e8 20010000 		.long	LFE16-Ltext0
 4144 01ec 0200     		.word	0x2
 4145 01ee 74       		.byte	0x74
 4146 01ef 04       		.sleb128 4
 4147 01f0 00000000 		.long	0
 4148 01f4 00000000 		.long	0
 4149              		.section	.debug_aranges,"dr"
 4150 0000 1C000000 		.long	0x1c
 4151 0004 0200     		.word	0x2
 4152 0006 00000000 		.secrel32	Ldebug_info0
 4153 000a 04       		.byte	0x4
 4154 000b 00       		.byte	0
 4155 000c 0000     		.word	0
 4156 000e 0000     		.word	0
 4157 0010 00000000 		.long	Ltext0
 4158 0014 450C0000 		.long	Letext0-Ltext0
 4159 0018 00000000 		.long	0
 4160 001c 00000000 		.long	0
 4161              		.section	.debug_ranges,"dr"
 4162              	Ldebug_ranges0:
 4163 0000 65050000 		.long	LBB9-Ltext0
 4164 0004 0C060000 		.long	LBE9-Ltext0
 4165 0008 1E060000 		.long	LBB10-Ltext0
 4166 000c 1F060000 		.long	LBE10-Ltext0
 4167 0010 00000000 		.long	0
 4168 0014 00000000 		.long	0
 4169              		.section	.debug_line,"dr"
 4170              	Ldebug_line0:
 4171 0000 E3060000 		.section	.debug_str,"dr"
 4171      02000001 
 4171      00000101 
 4171      FB0E0D00 
 4171      01010101 
GAS LISTING C:\Users\jisu8\AppData\Local\Temp\ccw96xXP.s 			page 90


 4172              	LASF2:
 4173 0000 53544152 		.ascii "START_PATTERN\0"
 4173      545F5041 
 4173      54544552 
 4173      4E00
 4174              	LASF13:
 4175 000e 70617474 		.ascii "patternLength\0"
 4175      65726E4C 
 4175      656E6774 
 4175      6800
 4176              	LASF8:
 4177 001c 73746172 		.ascii "startColumn\0"
 4177      74436F6C 
 4177      756D6E00 
 4178              	LASF1:
 4179 0028 68656967 		.ascii "height\0"
 4179      687400
 4180              	LASF10:
 4181 002f 73746172 		.ascii "startPos\0"
 4181      74506F73 
 4181      00
 4182              	LASF11:
 4183 0038 656E6450 		.ascii "endPos\0"
 4183      6F7300
 4184              	LASF12:
 4185 003f 636F756E 		.ascii "counters\0"
 4185      74657273 
 4185      00
 4186              	LASF9:
 4187 0048 70617474 		.ascii "pattern\0"
 4187      65726E00 
 4188              	LASF7:
 4189 0050 73746172 		.ascii "startRow\0"
 4189      74526F77 
 4189      00
 4190              	LASF4:
 4191 0059 72657375 		.ascii "result\0"
 4191      6C7400
 4192              	LASF6:
 4193 0060 6D617472 		.ascii "matrix\0"
 4193      697800
 4194              	LASF0:
 4195 0067 77696474 		.ascii "width\0"
 4195      6800
 4196              	LASF5:
 4197 006d 62617263 		.ascii "barcodeCoordinates\0"
 4197      6F646543 
 4197      6F6F7264 
 4197      696E6174 
 4197      657300
 4198              	LASF3:
 4199 0080 6D756C74 		.ascii "multiple\0"
 4199      69706C65 
 4199      00
 4200              		.ident	"GCC: (i686-posix-dwarf-rev0, Built by MinGW-W64 project) 8.1.0"
GAS LISTING C:\Users\jisu8\AppData\Local\Temp\ccw96xXP.s 			page 91


DEFINED SYMBOLS
                            *ABS*:00000000 PDFDetector.c
C:\Users\jisu8\AppData\Local\Temp\ccw96xXP.s:6      .rdata:00000000 _INDEXES_START_PATTERN
C:\Users\jisu8\AppData\Local\Temp\ccw96xXP.s:12     .rdata:00000010 _INDEXES_STOP_PATTERN
C:\Users\jisu8\AppData\Local\Temp\ccw96xXP.s:18     .rdata:00000020 _MAX_AVG_VARIANCE
C:\Users\jisu8\AppData\Local\Temp\ccw96xXP.s:21     .rdata:00000024 _MAX_INDIVIDUAL_VARIANCE
C:\Users\jisu8\AppData\Local\Temp\ccw96xXP.s:24     .rdata:00000040 _START_PATTERN
C:\Users\jisu8\AppData\Local\Temp\ccw96xXP.s:34     .rdata:00000060 _STOP_PATTERN
C:\Users\jisu8\AppData\Local\Temp\ccw96xXP.s:45     .rdata:00000084 _MAX_PIXEL_DRIFT
C:\Users\jisu8\AppData\Local\Temp\ccw96xXP.s:48     .rdata:00000088 _MAX_PATTERN_DRIFT
C:\Users\jisu8\AppData\Local\Temp\ccw96xXP.s:51     .rdata:0000008c _SKIPPED_ROW_COUNT_MAX
C:\Users\jisu8\AppData\Local\Temp\ccw96xXP.s:54     .rdata:00000090 _ROW_STEP
C:\Users\jisu8\AppData\Local\Temp\ccw96xXP.s:57     .rdata:00000094 _BARCODE_MIN_HEIGHT
C:\Users\jisu8\AppData\Local\Temp\ccw96xXP.s:59     .bss:00000000 _Vertice_Result
C:\Users\jisu8\AppData\Local\Temp\ccw96xXP.s:65     .text:00000000 _PatternMatchVariance
C:\Users\jisu8\AppData\Local\Temp\ccw96xXP.s:233    .text:00000120 _FindGuardPattern
C:\Users\jisu8\AppData\Local\Temp\ccw96xXP.s:544    .text:0000039d _FindRowsWithPattern
C:\Users\jisu8\AppData\Local\Temp\ccw96xXP.s:935    .text:000006e2 _CopyToResult
C:\Users\jisu8\AppData\Local\Temp\ccw96xXP.s:1054   .text:000007b9 _FindVertices
C:\Users\jisu8\AppData\Local\Temp\ccw96xXP.s:1247   .text:00000975 _DetectBarcode
C:\Users\jisu8\AppData\Local\Temp\ccw96xXP.s:1400   .text:00000a98 _HasStartPattern
C:\Users\jisu8\AppData\Local\Temp\ccw96xXP.s:1464   .text:00000b2c _Empty_Check
C:\Users\jisu8\AppData\Local\Temp\ccw96xXP.s:1539   .text:00000b8a _Detect

UNDEFINED SYMBOLS
___chkstk_ms
_printf
_puts
_getPatternRow
_getBlackMatrix
