GAS LISTING C:\Users\jisu8\AppData\Local\Temp\ccwGfk1w.s 			page 1


   1              		.file	"PDFDetectionResult.c"
   2              		.text
   3              	Ltext0:
   4              		.section .rdata,"dr"
   5              		.align 4
   6              	_ADJUST_ROW_NUMBER_SKIP:
   7 0000 02000000 		.long	2
   8              		.text
   9              		.globl	_Detection_Result_init
  11              	_Detection_Result_init:
  12              	LFB1:
  13              		.file 1 "src/pdf417/PDFDetectionResult.c"
   1:src/pdf417/PDFDetectionResult.c **** 
   2:src/pdf417/PDFDetectionResult.c **** #include "PDFDetectionResult.h"
   3:src/pdf417/PDFDetectionResult.c **** #include "PDFCodewordDecoder.h"
   4:src/pdf417/PDFDetectionResult.c **** #include "PDFScanningDecoder.h"
   5:src/pdf417/PDFDetectionResult.c **** 
   6:src/pdf417/PDFDetectionResult.c **** static const int ADJUST_ROW_NUMBER_SKIP = 2;
   7:src/pdf417/PDFDetectionResult.c **** 
   8:src/pdf417/PDFDetectionResult.c **** void Detection_Result_init(const BarcodeMetadata_t * barcodeMetadata, const BoundingBox_t * boundin
   9:src/pdf417/PDFDetectionResult.c **** {
  14              		.loc 1 9 1
  15              		.cfi_startproc
  16 0000 55       		pushl	%ebp
  17              	LCFI0:
  18              		.cfi_def_cfa_offset 8
  19              		.cfi_offset 5, -8
  20 0001 89E5     		movl	%esp, %ebp
  21              	LCFI1:
  22              		.cfi_def_cfa_register 5
  23 0003 57       		pushl	%edi
  24 0004 56       		pushl	%esi
  25 0005 53       		pushl	%ebx
  26              		.cfi_offset 7, -12
  27              		.cfi_offset 6, -16
  28              		.cfi_offset 3, -20
  10:src/pdf417/PDFDetectionResult.c **** 	result->_barcodeMetadata = *barcodeMetadata;
  29              		.loc 1 10 27
  30 0006 8B4510   		movl	16(%ebp), %eax
  31 0009 8B5508   		movl	8(%ebp), %edx
  32 000c 8B0A     		movl	(%edx), %ecx
  33 000e 8908     		movl	%ecx, (%eax)
  34 0010 8B4A04   		movl	4(%edx), %ecx
  35 0013 894804   		movl	%ecx, 4(%eax)
  36 0016 8B4A08   		movl	8(%edx), %ecx
  37 0019 894808   		movl	%ecx, 8(%eax)
  38 001c 8B520C   		movl	12(%edx), %edx
  39 001f 89500C   		movl	%edx, 12(%eax)
  11:src/pdf417/PDFDetectionResult.c **** 	result->_boundingBox = *boundingBox;
  40              		.loc 1 11 23
  41 0022 8B4510   		movl	16(%ebp), %eax
  42 0025 8B550C   		movl	12(%ebp), %edx
  43 0028 05607012 		addl	$1208416, %eax
  43      00
  44 002d 89D3     		movl	%edx, %ebx
  45 002f BA130000 		movl	$19, %edx
  45      00
GAS LISTING C:\Users\jisu8\AppData\Local\Temp\ccwGfk1w.s 			page 2


  46 0034 89C7     		movl	%eax, %edi
  47 0036 89DE     		movl	%ebx, %esi
  48 0038 89D1     		movl	%edx, %ecx
  49 003a F3A5     		rep movsl
  12:src/pdf417/PDFDetectionResult.c **** 	result->_detectionResultColumns[barcodeMetadata->_columnCount + 2];
  13:src/pdf417/PDFDetectionResult.c **** 	//std::fill(_detectionResultColumns.begin(), _detectionResultColumns.end(), nullptr);
  14:src/pdf417/PDFDetectionResult.c **** }
  50              		.loc 1 14 1
  51 003c 90       		nop
  52 003d 5B       		popl	%ebx
  53              		.cfi_restore 3
  54 003e 5E       		popl	%esi
  55              		.cfi_restore 6
  56 003f 5F       		popl	%edi
  57              		.cfi_restore 7
  58 0040 5D       		popl	%ebp
  59              	LCFI2:
  60              		.cfi_restore 5
  61              		.cfi_def_cfa 4, 4
  62 0041 C3       		ret
  63              		.cfi_endproc
  64              	LFE1:
  66              	_AdjustIndicatorColumnRowNumbers:
  67              	LFB2:
  15:src/pdf417/PDFDetectionResult.c **** 
  16:src/pdf417/PDFDetectionResult.c **** static void AdjustIndicatorColumnRowNumbers(DetectionResultColumn_t * detectionResultColumn, const 
  17:src/pdf417/PDFDetectionResult.c **** {
  68              		.loc 1 17 1
  69              		.cfi_startproc
  70 0042 55       		pushl	%ebp
  71              	LCFI3:
  72              		.cfi_def_cfa_offset 8
  73              		.cfi_offset 5, -8
  74 0043 89E5     		movl	%esp, %ebp
  75              	LCFI4:
  76              		.cfi_def_cfa_register 5
  77 0045 83EC18   		subl	$24, %esp
  18:src/pdf417/PDFDetectionResult.c **** 	if (detectionResultColumn->m_hasValue != 0) 
  78              		.loc 1 18 27
  79 0048 8B4508   		movl	8(%ebp), %eax
  80 004b 0FB600   		movzbl	(%eax), %eax
  81              		.loc 1 18 5
  82 004e 84C0     		testb	%al, %al
  83 0050 7412     		je	L4
  19:src/pdf417/PDFDetectionResult.c **** 	{
  20:src/pdf417/PDFDetectionResult.c **** 		adjustCompleteIndicatorColumnRowNumbers(detectionResultColumn,barcodeMetadata);
  84              		.loc 1 20 3
  85 0052 8B450C   		movl	12(%ebp), %eax
  86 0055 89442404 		movl	%eax, 4(%esp)
  87 0059 8B4508   		movl	8(%ebp), %eax
  88 005c 890424   		movl	%eax, (%esp)
  89 005f E8000000 		call	_adjustCompleteIndicatorColumnRowNumbers
  89      00
  90              	L4:
  21:src/pdf417/PDFDetectionResult.c **** 	}
  22:src/pdf417/PDFDetectionResult.c **** }
  91              		.loc 1 22 1
GAS LISTING C:\Users\jisu8\AppData\Local\Temp\ccwGfk1w.s 			page 3


  92 0064 90       		nop
  93 0065 C9       		leave
  94              	LCFI5:
  95              		.cfi_restore 5
  96              		.cfi_def_cfa 4, 4
  97 0066 C3       		ret
  98              		.cfi_endproc
  99              	LFE2:
 101              	_AdjustRowNumbersFromBothRI:
 102              	LFB3:
  23:src/pdf417/PDFDetectionResult.c **** 
  24:src/pdf417/PDFDetectionResult.c **** static void AdjustRowNumbersFromBothRI(DetectionResultColumn_t * detectionResultColumns,int row,int
  25:src/pdf417/PDFDetectionResult.c **** {
 103              		.loc 1 25 1
 104              		.cfi_startproc
 105 0067 55       		pushl	%ebp
 106              	LCFI6:
 107              		.cfi_def_cfa_offset 8
 108              		.cfi_offset 5, -8
 109 0068 89E5     		movl	%esp, %ebp
 110              	LCFI7:
 111              		.cfi_def_cfa_register 5
 112 006a 53       		pushl	%ebx
 113 006b 83EC44   		subl	$68, %esp
 114              		.cfi_offset 3, -12
  26:src/pdf417/PDFDetectionResult.c **** 	if ((detectionResultColumns[0].m_hasValue == 0) || detectionResultColumns[row-1].m_hasValue == 0) 
 115              		.loc 1 26 32
 116 006e 8B4508   		movl	8(%ebp), %eax
 117 0071 0FB600   		movzbl	(%eax), %eax
 118              		.loc 1 26 5
 119 0074 84C0     		testb	%al, %al
 120 0076 0F84CD01 		je	L18
 120      0000
 121              		.loc 1 26 75 discriminator 1
 122 007c 8B450C   		movl	12(%ebp), %eax
 123 007f 69C0342F 		imull	$12084, %eax, %eax
 123      0000
 124 0085 8D90CCD0 		leal	-12084(%eax), %edx
 124      FFFF
 125 008b 8B4508   		movl	8(%ebp), %eax
 126 008e 01D0     		addl	%edx, %eax
 127              		.loc 1 26 82 discriminator 1
 128 0090 0FB600   		movzbl	(%eax), %eax
 129              		.loc 1 26 50 discriminator 1
 130 0093 84C0     		testb	%al, %al
 131 0095 0F84AE01 		je	L18
 131      0000
  27:src/pdf417/PDFDetectionResult.c **** 	{
  28:src/pdf417/PDFDetectionResult.c **** 		return;
  29:src/pdf417/PDFDetectionResult.c **** 	}
  30:src/pdf417/PDFDetectionResult.c **** 
  31:src/pdf417/PDFDetectionResult.c **** 	Codeword_t * LRIcodewords = allCodewords(&detectionResultColumns[0]);
 132              		.loc 1 31 30
 133 009b 8B4508   		movl	8(%ebp), %eax
 134 009e 890424   		movl	%eax, (%esp)
 135 00a1 E8000000 		call	_allCodewords
 135      00
GAS LISTING C:\Users\jisu8\AppData\Local\Temp\ccwGfk1w.s 			page 4


 136 00a6 8945EC   		movl	%eax, -20(%ebp)
  32:src/pdf417/PDFDetectionResult.c **** 	Codeword_t * RRIcodewords = allCodewords(&detectionResultColumns[row-1]);
 137              		.loc 1 32 66
 138 00a9 8B450C   		movl	12(%ebp), %eax
 139 00ac 69C0342F 		imull	$12084, %eax, %eax
 139      0000
 140 00b2 8D90CCD0 		leal	-12084(%eax), %edx
 140      FFFF
 141              		.loc 1 32 30
 142 00b8 8B4508   		movl	8(%ebp), %eax
 143 00bb 01D0     		addl	%edx, %eax
 144 00bd 890424   		movl	%eax, (%esp)
 145 00c0 E8000000 		call	_allCodewords
 145      00
 146 00c5 8945E8   		movl	%eax, -24(%ebp)
 147              	LBB2:
  33:src/pdf417/PDFDetectionResult.c **** 	for (size_t codewordsRow = 0; codewordsRow < size; codewordsRow++) 
 148              		.loc 1 33 14
 149 00c8 C745F400 		movl	$0, -12(%ebp)
 149      000000
 150              		.loc 1 33 2
 151 00cf E9670100 		jmp	L9
 151      00
 152              	L17:
  34:src/pdf417/PDFDetectionResult.c **** 	{
  35:src/pdf417/PDFDetectionResult.c **** 
  36:src/pdf417/PDFDetectionResult.c **** 		if ((LRIcodewords[codewordsRow].m_hasValue != 0) && (RRIcodewords[codewordsRow].m_hasValue != 0) 
 153              		.loc 1 36 20
 154 00d4 8B55F4   		movl	-12(%ebp), %edx
 155 00d7 89D0     		movl	%edx, %eax
 156 00d9 01C0     		addl	%eax, %eax
 157 00db 01D0     		addl	%edx, %eax
 158 00dd C1E003   		sall	$3, %eax
 159 00e0 89C2     		movl	%eax, %edx
 160 00e2 8B45EC   		movl	-20(%ebp), %eax
 161 00e5 01D0     		addl	%edx, %eax
 162              		.loc 1 36 34
 163 00e7 0FB600   		movzbl	(%eax), %eax
 164              		.loc 1 36 6
 165 00ea 84C0     		testb	%al, %al
 166 00ec 0F844501 		je	L10
 166      0000
 167              		.loc 1 36 68 discriminator 1
 168 00f2 8B55F4   		movl	-12(%ebp), %edx
 169 00f5 89D0     		movl	%edx, %eax
 170 00f7 01C0     		addl	%eax, %eax
 171 00f9 01D0     		addl	%edx, %eax
 172 00fb C1E003   		sall	$3, %eax
 173 00fe 89C2     		movl	%eax, %edx
 174 0100 8B45E8   		movl	-24(%ebp), %eax
 175 0103 01D0     		addl	%edx, %eax
 176              		.loc 1 36 82 discriminator 1
 177 0105 0FB600   		movzbl	(%eax), %eax
 178              		.loc 1 36 52 discriminator 1
 179 0108 84C0     		testb	%al, %al
 180 010a 0F842701 		je	L10
 180      0000
GAS LISTING C:\Users\jisu8\AppData\Local\Temp\ccwGfk1w.s 			page 5


  37:src/pdf417/PDFDetectionResult.c **** 			(LRIcodewords[codewordsRow].m_value._rowNumber == RRIcodewords[codewordsRow].m_value._rowNumber)
 181              		.loc 1 37 17 discriminator 2
 182 0110 8B55F4   		movl	-12(%ebp), %edx
 183 0113 89D0     		movl	%edx, %eax
 184 0115 01C0     		addl	%eax, %eax
 185 0117 01D0     		addl	%edx, %eax
 186 0119 C1E003   		sall	$3, %eax
 187 011c 89C2     		movl	%eax, %edx
 188 011e 8B45EC   		movl	-20(%ebp), %eax
 189 0121 01D0     		addl	%edx, %eax
 190              		.loc 1 37 39 discriminator 2
 191 0123 8B4814   		movl	20(%eax), %ecx
 192              		.loc 1 37 66 discriminator 2
 193 0126 8B55F4   		movl	-12(%ebp), %edx
 194 0129 89D0     		movl	%edx, %eax
 195 012b 01C0     		addl	%eax, %eax
 196 012d 01D0     		addl	%edx, %eax
 197 012f C1E003   		sall	$3, %eax
 198 0132 89C2     		movl	%eax, %edx
 199 0134 8B45E8   		movl	-24(%ebp), %eax
 200 0137 01D0     		addl	%edx, %eax
 201              		.loc 1 37 88 discriminator 2
 202 0139 8B4014   		movl	20(%eax), %eax
  36:src/pdf417/PDFDetectionResult.c **** 			(LRIcodewords[codewordsRow].m_value._rowNumber == RRIcodewords[codewordsRow].m_value._rowNumber)
 203              		.loc 1 36 100 discriminator 2
 204 013c 39C1     		cmpl	%eax, %ecx
 205 013e 0F85F300 		jne	L10
 205      0000
 206              	LBB3:
  38:src/pdf417/PDFDetectionResult.c **** 		{
  39:src/pdf417/PDFDetectionResult.c **** 
  40:src/pdf417/PDFDetectionResult.c **** 			DetectionResultColumn_t * lastColumn = &detectionResultColumns[row-1] - 1;
 207              		.loc 1 40 66
 208 0144 8B450C   		movl	12(%ebp), %eax
 209 0147 69C0342F 		imull	$12084, %eax, %eax
 209      0000
 210              		.loc 1 40 74
 211 014d 8D9098A1 		leal	-24168(%eax), %edx
 211      FFFF
 212              		.loc 1 40 30
 213 0153 8B4508   		movl	8(%ebp), %eax
 214 0156 01D0     		addl	%edx, %eax
 215 0158 8945E4   		movl	%eax, -28(%ebp)
 216              	LBB4:
  41:src/pdf417/PDFDetectionResult.c **** 			for (DetectionResultColumn_t * columnIter = (&detectionResultColumns[0] + 1); columnIter != last
 217              		.loc 1 41 35
 218 015b 8B4508   		movl	8(%ebp), %eax
 219 015e 05342F00 		addl	$12084, %eax
 219      00
 220 0163 8945F0   		movl	%eax, -16(%ebp)
 221              		.loc 1 41 4
 222 0166 E9C00000 		jmp	L11
 222      00
 223              	L16:
 224              	LBB5:
  42:src/pdf417/PDFDetectionResult.c **** 			{
  43:src/pdf417/PDFDetectionResult.c **** 				if (!(columnIter->m_hasValue)) 
GAS LISTING C:\Users\jisu8\AppData\Local\Temp\ccwGfk1w.s 			page 6


 225              		.loc 1 43 21
 226 016b 8B45F0   		movl	-16(%ebp), %eax
 227 016e 0FB600   		movzbl	(%eax), %eax
 228              		.loc 1 43 8
 229 0171 84C0     		testb	%al, %al
 230 0173 0F84AA00 		je	L19
 230      0000
  44:src/pdf417/PDFDetectionResult.c **** 				{
  45:src/pdf417/PDFDetectionResult.c **** 					continue;
  46:src/pdf417/PDFDetectionResult.c **** 				}
  47:src/pdf417/PDFDetectionResult.c **** 				Codeword_t codeword = columnIter->m_value._codewords[codewordsRow];
 231              		.loc 1 47 16
 232 0179 8B4DF0   		movl	-16(%ebp), %ecx
 233 017c 8B55F4   		movl	-12(%ebp), %edx
 234 017f 89D0     		movl	%edx, %eax
 235 0181 01C0     		addl	%eax, %eax
 236 0183 01D0     		addl	%edx, %eax
 237 0185 C1E003   		sall	$3, %eax
 238 0188 01C8     		addl	%ecx, %eax
 239 018a 83C040   		addl	$64, %eax
 240 018d 8B5010   		movl	16(%eax), %edx
 241 0190 8955CC   		movl	%edx, -52(%ebp)
 242 0193 8B5014   		movl	20(%eax), %edx
 243 0196 8955D0   		movl	%edx, -48(%ebp)
 244 0199 8B5018   		movl	24(%eax), %edx
 245 019c 8955D4   		movl	%edx, -44(%ebp)
 246 019f 8B501C   		movl	28(%eax), %edx
 247 01a2 8955D8   		movl	%edx, -40(%ebp)
 248 01a5 8B5020   		movl	32(%eax), %edx
 249 01a8 8955DC   		movl	%edx, -36(%ebp)
 250 01ab 8B4024   		movl	36(%eax), %eax
 251 01ae 8945E0   		movl	%eax, -32(%ebp)
  48:src/pdf417/PDFDetectionResult.c **** 				if (codeword.m_hasValue != 0) 
 252              		.loc 1 48 17
 253 01b1 0FB645CC 		movzbl	-52(%ebp), %eax
 254              		.loc 1 48 8
 255 01b5 84C0     		testb	%al, %al
 256 01b7 746B     		je	L13
  49:src/pdf417/PDFDetectionResult.c **** 				{
  50:src/pdf417/PDFDetectionResult.c **** 					codeword.m_value._rowNumber = LRIcodewords[codewordsRow].m_value._rowNumber;
 257              		.loc 1 50 48
 258 01b9 8B55F4   		movl	-12(%ebp), %edx
 259 01bc 89D0     		movl	%edx, %eax
 260 01be 01C0     		addl	%eax, %eax
 261 01c0 01D0     		addl	%edx, %eax
 262 01c2 C1E003   		sall	$3, %eax
 263 01c5 89C2     		movl	%eax, %edx
 264 01c7 8B45EC   		movl	-20(%ebp), %eax
 265 01ca 01D0     		addl	%edx, %eax
 266              		.loc 1 50 70
 267 01cc 8B4014   		movl	20(%eax), %eax
 268              		.loc 1 50 34
 269 01cf 8945E0   		movl	%eax, -32(%ebp)
  51:src/pdf417/PDFDetectionResult.c **** 					if (!(codeword.m_value._rowNumber != BARCODE_ROW_UNKNOWN && codeword.m_value._bucket == (codew
 270              		.loc 1 51 28
 271 01d2 8B55E0   		movl	-32(%ebp), %edx
 272              		.loc 1 51 40
GAS LISTING C:\Users\jisu8\AppData\Local\Temp\ccwGfk1w.s 			page 7


 273 01d5 A1000000 		movl	_BARCODE_ROW_UNKNOWN, %eax
 273      00
 274              		.loc 1 51 9
 275 01da 39C2     		cmpl	%eax, %edx
 276 01dc 742C     		je	L15
 277              		.loc 1 51 82 discriminator 1
 278 01de 8B5DD8   		movl	-40(%ebp), %ebx
 279              		.loc 1 51 111 discriminator 1
 280 01e1 8B4DE0   		movl	-32(%ebp), %ecx
 281              		.loc 1 51 123 discriminator 1
 282 01e4 BA565555 		movl	$1431655766, %edx
 282      55
 283 01e9 89C8     		movl	%ecx, %eax
 284 01eb F7EA     		imull	%edx
 285 01ed 89C8     		movl	%ecx, %eax
 286 01ef C1F81F   		sarl	$31, %eax
 287 01f2 29C2     		subl	%eax, %edx
 288 01f4 89D0     		movl	%edx, %eax
 289 01f6 89C2     		movl	%eax, %edx
 290 01f8 01D2     		addl	%edx, %edx
 291 01fa 01C2     		addl	%eax, %edx
 292 01fc 89C8     		movl	%ecx, %eax
 293 01fe 29D0     		subl	%edx, %eax
 294              		.loc 1 51 128 discriminator 1
 295 0200 89C2     		movl	%eax, %edx
 296 0202 01D2     		addl	%edx, %edx
 297 0204 01D0     		addl	%edx, %eax
 298              		.loc 1 51 10 discriminator 1
 299 0206 39C3     		cmpl	%eax, %ebx
 300 0208 741A     		je	L13
 301              	L15:
  52:src/pdf417/PDFDetectionResult.c **** 					{
  53:src/pdf417/PDFDetectionResult.c **** 						columnIter->m_value._codewords[codewordsRow].m_hasValue = 0;
 302              		.loc 1 53 63
 303 020a 8B4DF0   		movl	-16(%ebp), %ecx
 304 020d 8B55F4   		movl	-12(%ebp), %edx
 305 0210 89D0     		movl	%edx, %eax
 306 0212 01C0     		addl	%eax, %eax
 307 0214 01D0     		addl	%edx, %eax
 308 0216 C1E003   		sall	$3, %eax
 309 0219 01C8     		addl	%ecx, %eax
 310 021b 83C050   		addl	$80, %eax
 311 021e C60000   		movb	$0, (%eax)
 312 0221 EB01     		jmp	L13
 313              	L19:
  45:src/pdf417/PDFDetectionResult.c **** 				}
 314              		.loc 1 45 6
 315 0223 90       		nop
 316              	L13:
 317              	LBE5:
  41:src/pdf417/PDFDetectionResult.c **** 			{
 318              		.loc 1 41 108 discriminator 2
 319 0224 8145F034 		addl	$12084, -16(%ebp)
 319      2F0000
 320              	L11:
  41:src/pdf417/PDFDetectionResult.c **** 			{
 321              		.loc 1 41 4 discriminator 1
GAS LISTING C:\Users\jisu8\AppData\Local\Temp\ccwGfk1w.s 			page 8


 322 022b 8B45F0   		movl	-16(%ebp), %eax
 323 022e 3B45E4   		cmpl	-28(%ebp), %eax
 324 0231 0F8534FF 		jne	L16
 324      FFFF
 325              	L10:
 326              	LBE4:
 327              	LBE3:
  33:src/pdf417/PDFDetectionResult.c **** 	{
 328              		.loc 1 33 65 discriminator 2
 329 0237 8345F401 		addl	$1, -12(%ebp)
 330              	L9:
  33:src/pdf417/PDFDetectionResult.c **** 	{
 331              		.loc 1 33 45 discriminator 1
 332 023b 8B4510   		movl	16(%ebp), %eax
  33:src/pdf417/PDFDetectionResult.c **** 	{
 333              		.loc 1 33 2 discriminator 1
 334 023e 3945F4   		cmpl	%eax, -12(%ebp)
 335 0241 0F828DFE 		jb	L17
 335      FFFF
 336 0247 EB01     		jmp	L5
 337              	L18:
 338              	LBE2:
  28:src/pdf417/PDFDetectionResult.c **** 	}
 339              		.loc 1 28 3
 340 0249 90       		nop
 341              	L5:
  54:src/pdf417/PDFDetectionResult.c **** 					}
  55:src/pdf417/PDFDetectionResult.c **** 				}
  56:src/pdf417/PDFDetectionResult.c **** 			}
  57:src/pdf417/PDFDetectionResult.c **** 
  58:src/pdf417/PDFDetectionResult.c **** 		}
  59:src/pdf417/PDFDetectionResult.c **** 
  60:src/pdf417/PDFDetectionResult.c **** 	}
  61:src/pdf417/PDFDetectionResult.c **** }
 342              		.loc 1 61 1
 343 024a 83C444   		addl	$68, %esp
 344 024d 5B       		popl	%ebx
 345              		.cfi_restore 3
 346 024e 5D       		popl	%ebp
 347              	LCFI8:
 348              		.cfi_restore 5
 349              		.cfi_def_cfa 4, 4
 350 024f C3       		ret
 351              		.cfi_endproc
 352              	LFE3:
 354              	_AdjustRowNumberIfValid:
 355              	LFB4:
  62:src/pdf417/PDFDetectionResult.c **** 
  63:src/pdf417/PDFDetectionResult.c **** static int AdjustRowNumberIfValid(int rowIndicatorRowNumber, int invalidRowCounts, Codeword_t * cod
  64:src/pdf417/PDFDetectionResult.c **** {
 356              		.loc 1 64 1
 357              		.cfi_startproc
 358 0250 55       		pushl	%ebp
 359              	LCFI9:
 360              		.cfi_def_cfa_offset 8
 361              		.cfi_offset 5, -8
 362 0251 89E5     		movl	%esp, %ebp
GAS LISTING C:\Users\jisu8\AppData\Local\Temp\ccwGfk1w.s 			page 9


 363              	LCFI10:
 364              		.cfi_def_cfa_register 5
 365 0253 53       		pushl	%ebx
 366              		.cfi_offset 3, -12
  65:src/pdf417/PDFDetectionResult.c **** 	if (!(codeword->m_value._rowNumber != BARCODE_ROW_UNKNOWN && codeword->m_value._bucket == (codewor
 367              		.loc 1 65 25
 368 0254 8B4510   		movl	16(%ebp), %eax
 369 0257 8B5014   		movl	20(%eax), %edx
 370              		.loc 1 65 37
 371 025a A1000000 		movl	_BARCODE_ROW_UNKNOWN, %eax
 371      00
 372              		.loc 1 65 5
 373 025f 39C2     		cmpl	%eax, %edx
 374 0261 7432     		je	L21
 375              		.loc 1 65 80 discriminator 1
 376 0263 8B4510   		movl	16(%ebp), %eax
 377 0266 8B580C   		movl	12(%eax), %ebx
 378              		.loc 1 65 110 discriminator 1
 379 0269 8B4510   		movl	16(%ebp), %eax
 380 026c 8B4814   		movl	20(%eax), %ecx
 381              		.loc 1 65 122 discriminator 1
 382 026f BA565555 		movl	$1431655766, %edx
 382      55
 383 0274 89C8     		movl	%ecx, %eax
 384 0276 F7EA     		imull	%edx
 385 0278 89C8     		movl	%ecx, %eax
 386 027a C1F81F   		sarl	$31, %eax
 387 027d 29C2     		subl	%eax, %edx
 388 027f 89D0     		movl	%edx, %eax
 389 0281 89C2     		movl	%eax, %edx
 390 0283 01D2     		addl	%edx, %edx
 391 0285 01C2     		addl	%eax, %edx
 392 0287 89C8     		movl	%ecx, %eax
 393 0289 29D0     		subl	%edx, %eax
 394              		.loc 1 65 127 discriminator 1
 395 028b 89C2     		movl	%eax, %edx
 396 028d 01D2     		addl	%edx, %edx
 397 028f 01D0     		addl	%edx, %eax
 398              		.loc 1 65 6 discriminator 1
 399 0291 39C3     		cmpl	%eax, %ebx
 400 0293 744F     		je	L22
 401              	L21:
  66:src/pdf417/PDFDetectionResult.c **** 	{
  67:src/pdf417/PDFDetectionResult.c **** 		if (rowIndicatorRowNumber != BARCODE_ROW_UNKNOWN && codeword->m_value._bucket == (rowIndicatorRow
 402              		.loc 1 67 29
 403 0295 A1000000 		movl	_BARCODE_ROW_UNKNOWN, %eax
 403      00
 404              		.loc 1 67 6
 405 029a 394508   		cmpl	%eax, 8(%ebp)
 406 029d 7441     		je	L23
 407              		.loc 1 67 72 discriminator 1
 408 029f 8B4510   		movl	16(%ebp), %eax
 409 02a2 8B580C   		movl	12(%eax), %ebx
 410              		.loc 1 67 107 discriminator 1
 411 02a5 8B4D08   		movl	8(%ebp), %ecx
 412 02a8 BA565555 		movl	$1431655766, %edx
 412      55
GAS LISTING C:\Users\jisu8\AppData\Local\Temp\ccwGfk1w.s 			page 10


 413 02ad 89C8     		movl	%ecx, %eax
 414 02af F7EA     		imull	%edx
 415 02b1 89C8     		movl	%ecx, %eax
 416 02b3 C1F81F   		sarl	$31, %eax
 417 02b6 29C2     		subl	%eax, %edx
 418 02b8 89D0     		movl	%edx, %eax
 419 02ba 89C2     		movl	%eax, %edx
 420 02bc 01D2     		addl	%edx, %edx
 421 02be 01C2     		addl	%eax, %edx
 422 02c0 89C8     		movl	%ecx, %eax
 423 02c2 29D0     		subl	%edx, %eax
 424              		.loc 1 67 112 discriminator 1
 425 02c4 89C2     		movl	%eax, %edx
 426 02c6 01D2     		addl	%edx, %edx
 427 02c8 01D0     		addl	%edx, %eax
 428              		.loc 1 67 52 discriminator 1
 429 02ca 39C3     		cmpl	%eax, %ebx
 430 02cc 7512     		jne	L23
  68:src/pdf417/PDFDetectionResult.c **** 		{
  69:src/pdf417/PDFDetectionResult.c **** 			rowIndicatorRowNumber = codeword->m_value._rowNumber;
 431              		.loc 1 69 26
 432 02ce 8B4510   		movl	16(%ebp), %eax
 433 02d1 8B4014   		movl	20(%eax), %eax
 434 02d4 894508   		movl	%eax, 8(%ebp)
  70:src/pdf417/PDFDetectionResult.c **** 			invalidRowCounts = 0;
 435              		.loc 1 70 21
 436 02d7 C7450C00 		movl	$0, 12(%ebp)
 436      000000
 437 02de EB04     		jmp	L22
 438              	L23:
  71:src/pdf417/PDFDetectionResult.c **** 		}
  72:src/pdf417/PDFDetectionResult.c **** 		else 
  73:src/pdf417/PDFDetectionResult.c **** 		{
  74:src/pdf417/PDFDetectionResult.c **** 			++invalidRowCounts;
 439              		.loc 1 74 4
 440 02e0 83450C01 		addl	$1, 12(%ebp)
 441              	L22:
  75:src/pdf417/PDFDetectionResult.c **** 		}
  76:src/pdf417/PDFDetectionResult.c **** 	}
  77:src/pdf417/PDFDetectionResult.c **** 	return invalidRowCounts;
 442              		.loc 1 77 9
 443 02e4 8B450C   		movl	12(%ebp), %eax
  78:src/pdf417/PDFDetectionResult.c **** }
 444              		.loc 1 78 1
 445 02e7 5B       		popl	%ebx
 446              		.cfi_restore 3
 447 02e8 5D       		popl	%ebp
 448              	LCFI11:
 449              		.cfi_restore 5
 450              		.cfi_def_cfa 4, 4
 451 02e9 C3       		ret
 452              		.cfi_endproc
 453              	LFE4:
 455              	_AdjustRowNumbersFromLRI:
 456              	LFB5:
  79:src/pdf417/PDFDetectionResult.c **** 
  80:src/pdf417/PDFDetectionResult.c **** static int AdjustRowNumbersFromLRI(DetectionResultColumn_t * detectionResultColumns,int row,int siz
GAS LISTING C:\Users\jisu8\AppData\Local\Temp\ccwGfk1w.s 			page 11


  81:src/pdf417/PDFDetectionResult.c **** {
 457              		.loc 1 81 1
 458              		.cfi_startproc
 459 02ea 55       		pushl	%ebp
 460              	LCFI12:
 461              		.cfi_def_cfa_offset 8
 462              		.cfi_offset 5, -8
 463 02eb 89E5     		movl	%esp, %ebp
 464              	LCFI13:
 465              		.cfi_def_cfa_register 5
 466 02ed 53       		pushl	%ebx
 467 02ee 83EC54   		subl	$84, %esp
 468              		.cfi_offset 3, -12
  82:src/pdf417/PDFDetectionResult.c **** 	if (detectionResultColumns[0].m_hasValue == 0) 
 469              		.loc 1 82 31
 470 02f1 8B4508   		movl	8(%ebp), %eax
 471 02f4 0FB600   		movzbl	(%eax), %eax
 472              		.loc 1 82 5
 473 02f7 84C0     		testb	%al, %al
 474 02f9 750A     		jne	L26
  83:src/pdf417/PDFDetectionResult.c **** 	{
  84:src/pdf417/PDFDetectionResult.c **** 		return 0;
 475              		.loc 1 84 10
 476 02fb B8000000 		movl	$0, %eax
 476      00
 477 0300 E95D0100 		jmp	L27
 477      00
 478              	L26:
  85:src/pdf417/PDFDetectionResult.c **** 	}
  86:src/pdf417/PDFDetectionResult.c **** 	int unadjustedCount = 0;
 479              		.loc 1 86 6
 480 0305 C745F400 		movl	$0, -12(%ebp)
 480      000000
  87:src/pdf417/PDFDetectionResult.c **** 	Codeword_t * codewords = detectionResultColumns[0].m_value._codewords;
 481              		.loc 1 87 15
 482 030c 8B4508   		movl	8(%ebp), %eax
 483 030f 83C050   		addl	$80, %eax
 484 0312 8945E4   		movl	%eax, -28(%ebp)
 485              	LBB6:
  88:src/pdf417/PDFDetectionResult.c **** 	for (size_t codewordsRow = 0; codewordsRow < size; codewordsRow++) 
 486              		.loc 1 88 14
 487 0315 C745F000 		movl	$0, -16(%ebp)
 487      000000
 488              		.loc 1 88 2
 489 031c E9320100 		jmp	L28
 489      00
 490              	L37:
 491              	LBB7:
  89:src/pdf417/PDFDetectionResult.c **** 	{
  90:src/pdf417/PDFDetectionResult.c **** 		if (codewords[codewordsRow].m_hasValue == 0) 
 492              		.loc 1 90 16
 493 0321 8B55F0   		movl	-16(%ebp), %edx
 494 0324 89D0     		movl	%edx, %eax
 495 0326 01C0     		addl	%eax, %eax
 496 0328 01D0     		addl	%edx, %eax
 497 032a C1E003   		sall	$3, %eax
 498 032d 89C2     		movl	%eax, %edx
GAS LISTING C:\Users\jisu8\AppData\Local\Temp\ccwGfk1w.s 			page 12


 499 032f 8B45E4   		movl	-28(%ebp), %eax
 500 0332 01D0     		addl	%edx, %eax
 501              		.loc 1 90 30
 502 0334 0FB600   		movzbl	(%eax), %eax
 503              		.loc 1 90 6
 504 0337 84C0     		testb	%al, %al
 505 0339 0F840F01 		je	L38
 505      0000
  91:src/pdf417/PDFDetectionResult.c **** 		{
  92:src/pdf417/PDFDetectionResult.c **** 			continue;
  93:src/pdf417/PDFDetectionResult.c **** 		}
  94:src/pdf417/PDFDetectionResult.c **** 		int rowIndicatorRowNumber = codewords[codewordsRow].m_value._rowNumber;
 506              		.loc 1 94 40
 507 033f 8B55F0   		movl	-16(%ebp), %edx
 508 0342 89D0     		movl	%edx, %eax
 509 0344 01C0     		addl	%eax, %eax
 510 0346 01D0     		addl	%edx, %eax
 511 0348 C1E003   		sall	$3, %eax
 512 034b 89C2     		movl	%eax, %edx
 513 034d 8B45E4   		movl	-28(%ebp), %eax
 514 0350 01D0     		addl	%edx, %eax
 515              		.loc 1 94 7
 516 0352 8B4014   		movl	20(%eax), %eax
 517 0355 8945E0   		movl	%eax, -32(%ebp)
  95:src/pdf417/PDFDetectionResult.c **** 		int invalidRowCounts = 0;
 518              		.loc 1 95 7
 519 0358 C745EC00 		movl	$0, -20(%ebp)
 519      000000
  96:src/pdf417/PDFDetectionResult.c **** 		DetectionResultColumn_t * lastColumn = &detectionResultColumns[row-1] - 1;
 520              		.loc 1 96 65
 521 035f 8B450C   		movl	12(%ebp), %eax
 522 0362 69C0342F 		imull	$12084, %eax, %eax
 522      0000
 523              		.loc 1 96 73
 524 0368 8D9098A1 		leal	-24168(%eax), %edx
 524      FFFF
 525              		.loc 1 96 29
 526 036e 8B4508   		movl	8(%ebp), %eax
 527 0371 01D0     		addl	%edx, %eax
 528 0373 8945DC   		movl	%eax, -36(%ebp)
 529              	LBB8:
  97:src/pdf417/PDFDetectionResult.c **** 		for (DetectionResultColumn_t * columnIter = &detectionResultColumns[0] + 1; columnIter != lastCol
 530              		.loc 1 97 34
 531 0376 8B4508   		movl	8(%ebp), %eax
 532 0379 05342F00 		addl	$12084, %eax
 532      00
 533 037e 8945E8   		movl	%eax, -24(%ebp)
 534              		.loc 1 97 3
 535 0381 E9B00000 		jmp	L31
 535      00
 536              	L36:
 537              	LBB9:
  98:src/pdf417/PDFDetectionResult.c **** 		{
  99:src/pdf417/PDFDetectionResult.c **** 			if (!(columnIter->m_hasValue)) 
 538              		.loc 1 99 20
 539 0386 8B45E8   		movl	-24(%ebp), %eax
 540 0389 0FB600   		movzbl	(%eax), %eax
GAS LISTING C:\Users\jisu8\AppData\Local\Temp\ccwGfk1w.s 			page 13


 541              		.loc 1 99 7
 542 038c 84C0     		testb	%al, %al
 543 038e 0F849A00 		je	L39
 543      0000
 100:src/pdf417/PDFDetectionResult.c **** 			{
 101:src/pdf417/PDFDetectionResult.c **** 				continue;
 102:src/pdf417/PDFDetectionResult.c **** 			}
 103:src/pdf417/PDFDetectionResult.c **** 			Codeword_t codeword = columnIter->m_value._codewords[codewordsRow];
 544              		.loc 1 103 15
 545 0394 8B4DE8   		movl	-24(%ebp), %ecx
 546 0397 8B55F0   		movl	-16(%ebp), %edx
 547 039a 89D0     		movl	%edx, %eax
 548 039c 01C0     		addl	%eax, %eax
 549 039e 01D0     		addl	%edx, %eax
 550 03a0 C1E003   		sall	$3, %eax
 551 03a3 01C8     		addl	%ecx, %eax
 552 03a5 83C040   		addl	$64, %eax
 553 03a8 8B5010   		movl	16(%eax), %edx
 554 03ab 8955C4   		movl	%edx, -60(%ebp)
 555 03ae 8B5014   		movl	20(%eax), %edx
 556 03b1 8955C8   		movl	%edx, -56(%ebp)
 557 03b4 8B5018   		movl	24(%eax), %edx
 558 03b7 8955CC   		movl	%edx, -52(%ebp)
 559 03ba 8B501C   		movl	28(%eax), %edx
 560 03bd 8955D0   		movl	%edx, -48(%ebp)
 561 03c0 8B5020   		movl	32(%eax), %edx
 562 03c3 8955D4   		movl	%edx, -44(%ebp)
 563 03c6 8B4024   		movl	36(%eax), %eax
 564 03c9 8945D8   		movl	%eax, -40(%ebp)
 104:src/pdf417/PDFDetectionResult.c **** 			if (codeword.m_hasValue != 0) 
 565              		.loc 1 104 16
 566 03cc 0FB645C4 		movzbl	-60(%ebp), %eax
 567              		.loc 1 104 7
 568 03d0 84C0     		testb	%al, %al
 569 03d2 745B     		je	L33
 105:src/pdf417/PDFDetectionResult.c **** 			{
 106:src/pdf417/PDFDetectionResult.c **** 				invalidRowCounts = AdjustRowNumberIfValid(rowIndicatorRowNumber, invalidRowCounts, &codeword);
 570              		.loc 1 106 24
 571 03d4 8D45C4   		leal	-60(%ebp), %eax
 572 03d7 89442408 		movl	%eax, 8(%esp)
 573 03db 8B45EC   		movl	-20(%ebp), %eax
 574 03de 89442404 		movl	%eax, 4(%esp)
 575 03e2 8B45E0   		movl	-32(%ebp), %eax
 576 03e5 890424   		movl	%eax, (%esp)
 577 03e8 E863FEFF 		call	_AdjustRowNumberIfValid
 577      FF
 578 03ed 8945EC   		movl	%eax, -20(%ebp)
 107:src/pdf417/PDFDetectionResult.c **** 				if (!(codeword.m_value._rowNumber != BARCODE_ROW_UNKNOWN && codeword.m_value._bucket == (codewo
 579              		.loc 1 107 27
 580 03f0 8B55D8   		movl	-40(%ebp), %edx
 581              		.loc 1 107 39
 582 03f3 A1000000 		movl	_BARCODE_ROW_UNKNOWN, %eax
 582      00
 583              		.loc 1 107 8
 584 03f8 39C2     		cmpl	%eax, %edx
 585 03fa 742C     		je	L35
 586              		.loc 1 107 81 discriminator 1
GAS LISTING C:\Users\jisu8\AppData\Local\Temp\ccwGfk1w.s 			page 14


 587 03fc 8B5DD0   		movl	-48(%ebp), %ebx
 588              		.loc 1 107 110 discriminator 1
 589 03ff 8B4DD8   		movl	-40(%ebp), %ecx
 590              		.loc 1 107 122 discriminator 1
 591 0402 BA565555 		movl	$1431655766, %edx
 591      55
 592 0407 89C8     		movl	%ecx, %eax
 593 0409 F7EA     		imull	%edx
 594 040b 89C8     		movl	%ecx, %eax
 595 040d C1F81F   		sarl	$31, %eax
 596 0410 29C2     		subl	%eax, %edx
 597 0412 89D0     		movl	%edx, %eax
 598 0414 89C2     		movl	%eax, %edx
 599 0416 01D2     		addl	%edx, %edx
 600 0418 01C2     		addl	%eax, %edx
 601 041a 89C8     		movl	%ecx, %eax
 602 041c 29D0     		subl	%edx, %eax
 603              		.loc 1 107 127 discriminator 1
 604 041e 89C2     		movl	%eax, %edx
 605 0420 01D2     		addl	%edx, %edx
 606 0422 01D0     		addl	%edx, %eax
 607              		.loc 1 107 9 discriminator 1
 608 0424 39C3     		cmpl	%eax, %ebx
 609 0426 7407     		je	L33
 610              	L35:
 108:src/pdf417/PDFDetectionResult.c **** 				{
 109:src/pdf417/PDFDetectionResult.c **** 					unadjustedCount++;
 611              		.loc 1 109 21
 612 0428 8345F401 		addl	$1, -12(%ebp)
 613 042c EB01     		jmp	L33
 614              	L39:
 101:src/pdf417/PDFDetectionResult.c **** 			}
 615              		.loc 1 101 5
 616 042e 90       		nop
 617              	L33:
 618              	LBE9:
  97:src/pdf417/PDFDetectionResult.c **** 		{
 619              		.loc 1 97 150 discriminator 2
 620 042f 8145E834 		addl	$12084, -24(%ebp)
 620      2F0000
 621              	L31:
  97:src/pdf417/PDFDetectionResult.c **** 		{
 622              		.loc 1 97 3 discriminator 1
 623 0436 8B45E8   		movl	-24(%ebp), %eax
 624 0439 3B45DC   		cmpl	-36(%ebp), %eax
 625 043c 7411     		je	L30
  97:src/pdf417/PDFDetectionResult.c **** 		{
 626              		.loc 1 97 124 discriminator 3
 627 043e B8020000 		movl	$2, %eax
 627      00
  97:src/pdf417/PDFDetectionResult.c **** 		{
 628              		.loc 1 97 104 discriminator 3
 629 0443 3945EC   		cmpl	%eax, -20(%ebp)
 630 0446 0F8C3AFF 		jl	L36
 630      FFFF
 631 044c EB01     		jmp	L30
 632              	L38:
GAS LISTING C:\Users\jisu8\AppData\Local\Temp\ccwGfk1w.s 			page 15


 633              	LBE8:
  92:src/pdf417/PDFDetectionResult.c **** 		}
 634              		.loc 1 92 4
 635 044e 90       		nop
 636              	L30:
 637              	LBE7:
  88:src/pdf417/PDFDetectionResult.c **** 	{
 638              		.loc 1 88 65 discriminator 2
 639 044f 8345F001 		addl	$1, -16(%ebp)
 640              	L28:
  88:src/pdf417/PDFDetectionResult.c **** 	{
 641              		.loc 1 88 45 discriminator 1
 642 0453 8B4510   		movl	16(%ebp), %eax
  88:src/pdf417/PDFDetectionResult.c **** 	{
 643              		.loc 1 88 2 discriminator 1
 644 0456 3945F0   		cmpl	%eax, -16(%ebp)
 645 0459 0F82C2FE 		jb	L37
 645      FFFF
 646              	LBE6:
 110:src/pdf417/PDFDetectionResult.c **** 				}
 111:src/pdf417/PDFDetectionResult.c **** 			}
 112:src/pdf417/PDFDetectionResult.c **** 		}
 113:src/pdf417/PDFDetectionResult.c **** 	}
 114:src/pdf417/PDFDetectionResult.c **** 	return unadjustedCount;
 647              		.loc 1 114 9
 648 045f 8B45F4   		movl	-12(%ebp), %eax
 649              	L27:
 115:src/pdf417/PDFDetectionResult.c **** }
 650              		.loc 1 115 1
 651 0462 83C454   		addl	$84, %esp
 652 0465 5B       		popl	%ebx
 653              		.cfi_restore 3
 654 0466 5D       		popl	%ebp
 655              	LCFI14:
 656              		.cfi_restore 5
 657              		.cfi_def_cfa 4, 4
 658 0467 C3       		ret
 659              		.cfi_endproc
 660              	LFE5:
 662              	_AdjustRowNumbersFromRRI:
 663              	LFB6:
 116:src/pdf417/PDFDetectionResult.c **** 
 117:src/pdf417/PDFDetectionResult.c **** static int AdjustRowNumbersFromRRI(DetectionResultColumn_t *detectionResultColumns,int row,int size
 118:src/pdf417/PDFDetectionResult.c **** {
 664              		.loc 1 118 1
 665              		.cfi_startproc
 666 0468 55       		pushl	%ebp
 667              	LCFI15:
 668              		.cfi_def_cfa_offset 8
 669              		.cfi_offset 5, -8
 670 0469 89E5     		movl	%esp, %ebp
 671              	LCFI16:
 672              		.cfi_def_cfa_register 5
 673 046b 53       		pushl	%ebx
 674 046c 83EC54   		subl	$84, %esp
 675              		.cfi_offset 3, -12
 119:src/pdf417/PDFDetectionResult.c **** 	if (detectionResultColumns[row-1].m_hasValue == 0) 
GAS LISTING C:\Users\jisu8\AppData\Local\Temp\ccwGfk1w.s 			page 16


 676              		.loc 1 119 28
 677 046f 8B450C   		movl	12(%ebp), %eax
 678 0472 69C0342F 		imull	$12084, %eax, %eax
 678      0000
 679 0478 8D90CCD0 		leal	-12084(%eax), %edx
 679      FFFF
 680 047e 8B4508   		movl	8(%ebp), %eax
 681 0481 01D0     		addl	%edx, %eax
 682              		.loc 1 119 35
 683 0483 0FB600   		movzbl	(%eax), %eax
 684              		.loc 1 119 5
 685 0486 84C0     		testb	%al, %al
 686 0488 750A     		jne	L41
 120:src/pdf417/PDFDetectionResult.c **** 	{
 121:src/pdf417/PDFDetectionResult.c **** 		return 0;
 687              		.loc 1 121 10
 688 048a B8000000 		movl	$0, %eax
 688      00
 689 048f E96F0100 		jmp	L42
 689      00
 690              	L41:
 122:src/pdf417/PDFDetectionResult.c **** 	}
 123:src/pdf417/PDFDetectionResult.c **** 	int unadjustedCount = 0;
 691              		.loc 1 123 6
 692 0494 C745F400 		movl	$0, -12(%ebp)
 692      000000
 124:src/pdf417/PDFDetectionResult.c **** 	Codeword_t * codewords = detectionResultColumns[row-1].m_value._codewords;
 693              		.loc 1 124 49
 694 049b 8B450C   		movl	12(%ebp), %eax
 695 049e 69C0342F 		imull	$12084, %eax, %eax
 695      0000
 696 04a4 8D90CCD0 		leal	-12084(%eax), %edx
 696      FFFF
 697 04aa 8B4508   		movl	8(%ebp), %eax
 698 04ad 01D0     		addl	%edx, %eax
 699              		.loc 1 124 15
 700 04af 83C050   		addl	$80, %eax
 701 04b2 8945E4   		movl	%eax, -28(%ebp)
 702              	LBB10:
 125:src/pdf417/PDFDetectionResult.c **** 	for (size_t codewordsRow = 0; codewordsRow < size; codewordsRow++) 
 703              		.loc 1 125 14
 704 04b5 C745F000 		movl	$0, -16(%ebp)
 704      000000
 705              		.loc 1 125 2
 706 04bc E9330100 		jmp	L43
 706      00
 707              	L52:
 708              	LBB11:
 126:src/pdf417/PDFDetectionResult.c **** 	{
 127:src/pdf417/PDFDetectionResult.c **** 		if (codewords[codewordsRow].m_hasValue == 0) 
 709              		.loc 1 127 16
 710 04c1 8B55F0   		movl	-16(%ebp), %edx
 711 04c4 89D0     		movl	%edx, %eax
 712 04c6 01C0     		addl	%eax, %eax
 713 04c8 01D0     		addl	%edx, %eax
 714 04ca C1E003   		sall	$3, %eax
 715 04cd 89C2     		movl	%eax, %edx
GAS LISTING C:\Users\jisu8\AppData\Local\Temp\ccwGfk1w.s 			page 17


 716 04cf 8B45E4   		movl	-28(%ebp), %eax
 717 04d2 01D0     		addl	%edx, %eax
 718              		.loc 1 127 30
 719 04d4 0FB600   		movzbl	(%eax), %eax
 720              		.loc 1 127 6
 721 04d7 84C0     		testb	%al, %al
 722 04d9 0F841001 		je	L53
 722      0000
 128:src/pdf417/PDFDetectionResult.c **** 		{
 129:src/pdf417/PDFDetectionResult.c **** 			continue;
 130:src/pdf417/PDFDetectionResult.c **** 		}
 131:src/pdf417/PDFDetectionResult.c **** 		int rowIndicatorRowNumber = codewords[codewordsRow].m_value._rowNumber;
 723              		.loc 1 131 40
 724 04df 8B55F0   		movl	-16(%ebp), %edx
 725 04e2 89D0     		movl	%edx, %eax
 726 04e4 01C0     		addl	%eax, %eax
 727 04e6 01D0     		addl	%edx, %eax
 728 04e8 C1E003   		sall	$3, %eax
 729 04eb 89C2     		movl	%eax, %edx
 730 04ed 8B45E4   		movl	-28(%ebp), %eax
 731 04f0 01D0     		addl	%edx, %eax
 732              		.loc 1 131 7
 733 04f2 8B4014   		movl	20(%eax), %eax
 734 04f5 8945E0   		movl	%eax, -32(%ebp)
 132:src/pdf417/PDFDetectionResult.c **** 		int invalidRowCounts = 0;
 735              		.loc 1 132 7
 736 04f8 C745EC00 		movl	$0, -20(%ebp)
 736      000000
 133:src/pdf417/PDFDetectionResult.c **** 		DetectionResultColumn_t * lastColumn = &detectionResultColumns[row-1] - 1;
 737              		.loc 1 133 65
 738 04ff 8B450C   		movl	12(%ebp), %eax
 739 0502 69C0342F 		imull	$12084, %eax, %eax
 739      0000
 740              		.loc 1 133 73
 741 0508 8D9098A1 		leal	-24168(%eax), %edx
 741      FFFF
 742              		.loc 1 133 29
 743 050e 8B4508   		movl	8(%ebp), %eax
 744 0511 01D0     		addl	%edx, %eax
 745 0513 8945DC   		movl	%eax, -36(%ebp)
 746              	LBB12:
 134:src/pdf417/PDFDetectionResult.c **** 		for (DetectionResultColumn_t * columnIter = &detectionResultColumns[0] + 1; columnIter != lastCol
 747              		.loc 1 134 34
 748 0516 8B4508   		movl	8(%ebp), %eax
 749 0519 05342F00 		addl	$12084, %eax
 749      00
 750 051e 8945E8   		movl	%eax, -24(%ebp)
 751              		.loc 1 134 3
 752 0521 E9B10000 		jmp	L46
 752      00
 753              	L51:
 754              	LBB13:
 135:src/pdf417/PDFDetectionResult.c **** 		{
 136:src/pdf417/PDFDetectionResult.c **** 			if (!(columnIter->m_hasValue)) 
 755              		.loc 1 136 20
 756 0526 8B45E8   		movl	-24(%ebp), %eax
 757 0529 0FB600   		movzbl	(%eax), %eax
GAS LISTING C:\Users\jisu8\AppData\Local\Temp\ccwGfk1w.s 			page 18


 758              		.loc 1 136 7
 759 052c 84C0     		testb	%al, %al
 760 052e 0F849B00 		je	L54
 760      0000
 137:src/pdf417/PDFDetectionResult.c **** 			{
 138:src/pdf417/PDFDetectionResult.c **** 				continue;
 139:src/pdf417/PDFDetectionResult.c **** 			}
 140:src/pdf417/PDFDetectionResult.c **** 			Codeword_t codeword = columnIter->m_value._codewords[codewordsRow];
 761              		.loc 1 140 15
 762 0534 8B4DE8   		movl	-24(%ebp), %ecx
 763 0537 8B55F0   		movl	-16(%ebp), %edx
 764 053a 89D0     		movl	%edx, %eax
 765 053c 01C0     		addl	%eax, %eax
 766 053e 01D0     		addl	%edx, %eax
 767 0540 C1E003   		sall	$3, %eax
 768 0543 01C8     		addl	%ecx, %eax
 769 0545 83C040   		addl	$64, %eax
 770 0548 8B5010   		movl	16(%eax), %edx
 771 054b 8955C4   		movl	%edx, -60(%ebp)
 772 054e 8B5014   		movl	20(%eax), %edx
 773 0551 8955C8   		movl	%edx, -56(%ebp)
 774 0554 8B5018   		movl	24(%eax), %edx
 775 0557 8955CC   		movl	%edx, -52(%ebp)
 776 055a 8B501C   		movl	28(%eax), %edx
 777 055d 8955D0   		movl	%edx, -48(%ebp)
 778 0560 8B5020   		movl	32(%eax), %edx
 779 0563 8955D4   		movl	%edx, -44(%ebp)
 780 0566 8B4024   		movl	36(%eax), %eax
 781 0569 8945D8   		movl	%eax, -40(%ebp)
 141:src/pdf417/PDFDetectionResult.c **** 			if (codeword.m_hasValue != 0) 
 782              		.loc 1 141 16
 783 056c 0FB645C4 		movzbl	-60(%ebp), %eax
 784              		.loc 1 141 7
 785 0570 84C0     		testb	%al, %al
 786 0572 745C     		je	L48
 142:src/pdf417/PDFDetectionResult.c **** 			{
 143:src/pdf417/PDFDetectionResult.c **** 				invalidRowCounts = AdjustRowNumberIfValid(rowIndicatorRowNumber, invalidRowCounts, &codewordNea
 787              		.loc 1 143 24
 788 0574 C7442408 		movl	$_codewordNearby, 8(%esp)
 788      00000000 
 789 057c 8B45EC   		movl	-20(%ebp), %eax
 790 057f 89442404 		movl	%eax, 4(%esp)
 791 0583 8B45E0   		movl	-32(%ebp), %eax
 792 0586 890424   		movl	%eax, (%esp)
 793 0589 E8C2FCFF 		call	_AdjustRowNumberIfValid
 793      FF
 794 058e 8945EC   		movl	%eax, -20(%ebp)
 144:src/pdf417/PDFDetectionResult.c **** 				if (!(codeword.m_value._rowNumber != BARCODE_ROW_UNKNOWN && codeword.m_value._bucket == (codewo
 795              		.loc 1 144 27
 796 0591 8B55D8   		movl	-40(%ebp), %edx
 797              		.loc 1 144 39
 798 0594 A1000000 		movl	_BARCODE_ROW_UNKNOWN, %eax
 798      00
 799              		.loc 1 144 8
 800 0599 39C2     		cmpl	%eax, %edx
 801 059b 742C     		je	L50
 802              		.loc 1 144 81 discriminator 1
GAS LISTING C:\Users\jisu8\AppData\Local\Temp\ccwGfk1w.s 			page 19


 803 059d 8B5DD0   		movl	-48(%ebp), %ebx
 804              		.loc 1 144 110 discriminator 1
 805 05a0 8B4DD8   		movl	-40(%ebp), %ecx
 806              		.loc 1 144 122 discriminator 1
 807 05a3 BA565555 		movl	$1431655766, %edx
 807      55
 808 05a8 89C8     		movl	%ecx, %eax
 809 05aa F7EA     		imull	%edx
 810 05ac 89C8     		movl	%ecx, %eax
 811 05ae C1F81F   		sarl	$31, %eax
 812 05b1 29C2     		subl	%eax, %edx
 813 05b3 89D0     		movl	%edx, %eax
 814 05b5 89C2     		movl	%eax, %edx
 815 05b7 01D2     		addl	%edx, %edx
 816 05b9 01C2     		addl	%eax, %edx
 817 05bb 89C8     		movl	%ecx, %eax
 818 05bd 29D0     		subl	%edx, %eax
 819              		.loc 1 144 127 discriminator 1
 820 05bf 89C2     		movl	%eax, %edx
 821 05c1 01D2     		addl	%edx, %edx
 822 05c3 01D0     		addl	%edx, %eax
 823              		.loc 1 144 9 discriminator 1
 824 05c5 39C3     		cmpl	%eax, %ebx
 825 05c7 7407     		je	L48
 826              	L50:
 145:src/pdf417/PDFDetectionResult.c **** 				{
 146:src/pdf417/PDFDetectionResult.c **** 					unadjustedCount++;
 827              		.loc 1 146 21
 828 05c9 8345F401 		addl	$1, -12(%ebp)
 829 05cd EB01     		jmp	L48
 830              	L54:
 138:src/pdf417/PDFDetectionResult.c **** 			}
 831              		.loc 1 138 5
 832 05cf 90       		nop
 833              	L48:
 834              	LBE13:
 134:src/pdf417/PDFDetectionResult.c **** 		{
 835              		.loc 1 134 150 discriminator 2
 836 05d0 8145E834 		addl	$12084, -24(%ebp)
 836      2F0000
 837              	L46:
 134:src/pdf417/PDFDetectionResult.c **** 		{
 838              		.loc 1 134 3 discriminator 1
 839 05d7 8B45E8   		movl	-24(%ebp), %eax
 840 05da 3B45DC   		cmpl	-36(%ebp), %eax
 841 05dd 7411     		je	L45
 134:src/pdf417/PDFDetectionResult.c **** 		{
 842              		.loc 1 134 124 discriminator 3
 843 05df B8020000 		movl	$2, %eax
 843      00
 134:src/pdf417/PDFDetectionResult.c **** 		{
 844              		.loc 1 134 104 discriminator 3
 845 05e4 3945EC   		cmpl	%eax, -20(%ebp)
 846 05e7 0F8C39FF 		jl	L51
 846      FFFF
 847 05ed EB01     		jmp	L45
 848              	L53:
GAS LISTING C:\Users\jisu8\AppData\Local\Temp\ccwGfk1w.s 			page 20


 849              	LBE12:
 129:src/pdf417/PDFDetectionResult.c **** 		}
 850              		.loc 1 129 4
 851 05ef 90       		nop
 852              	L45:
 853              	LBE11:
 125:src/pdf417/PDFDetectionResult.c **** 	{
 854              		.loc 1 125 65 discriminator 2
 855 05f0 8345F001 		addl	$1, -16(%ebp)
 856              	L43:
 125:src/pdf417/PDFDetectionResult.c **** 	{
 857              		.loc 1 125 45 discriminator 1
 858 05f4 8B4510   		movl	16(%ebp), %eax
 125:src/pdf417/PDFDetectionResult.c **** 	{
 859              		.loc 1 125 2 discriminator 1
 860 05f7 3945F0   		cmpl	%eax, -16(%ebp)
 861 05fa 0F82C1FE 		jb	L52
 861      FFFF
 862              	LBE10:
 147:src/pdf417/PDFDetectionResult.c **** 				}
 148:src/pdf417/PDFDetectionResult.c **** 			}
 149:src/pdf417/PDFDetectionResult.c **** 		}
 150:src/pdf417/PDFDetectionResult.c **** 	}
 151:src/pdf417/PDFDetectionResult.c **** 
 152:src/pdf417/PDFDetectionResult.c **** 	return unadjustedCount;
 863              		.loc 1 152 9
 864 0600 8B45F4   		movl	-12(%ebp), %eax
 865              	L42:
 153:src/pdf417/PDFDetectionResult.c **** }
 866              		.loc 1 153 1
 867 0603 83C454   		addl	$84, %esp
 868 0606 5B       		popl	%ebx
 869              		.cfi_restore 3
 870 0607 5D       		popl	%ebp
 871              	LCFI17:
 872              		.cfi_restore 5
 873              		.cfi_def_cfa 4, 4
 874 0608 C3       		ret
 875              		.cfi_endproc
 876              	LFE6:
 878              	_AdjustRowNumbersByRow:
 879              	LFB7:
 154:src/pdf417/PDFDetectionResult.c **** 
 155:src/pdf417/PDFDetectionResult.c **** static int AdjustRowNumbersByRow(DetectionResultColumn_t * detectionResultColumns,int row,int size)
 156:src/pdf417/PDFDetectionResult.c **** {
 880              		.loc 1 156 1
 881              		.cfi_startproc
 882 0609 55       		pushl	%ebp
 883              	LCFI18:
 884              		.cfi_def_cfa_offset 8
 885              		.cfi_offset 5, -8
 886 060a 89E5     		movl	%esp, %ebp
 887              	LCFI19:
 888              		.cfi_def_cfa_register 5
 889 060c 83EC28   		subl	$40, %esp
 157:src/pdf417/PDFDetectionResult.c **** 
 158:src/pdf417/PDFDetectionResult.c **** 	AdjustRowNumbersFromBothRI(detectionResultColumns,row,size);
GAS LISTING C:\Users\jisu8\AppData\Local\Temp\ccwGfk1w.s 			page 21


 890              		.loc 1 158 2
 891 060f 8B4510   		movl	16(%ebp), %eax
 892 0612 89442408 		movl	%eax, 8(%esp)
 893 0616 8B450C   		movl	12(%ebp), %eax
 894 0619 89442404 		movl	%eax, 4(%esp)
 895 061d 8B4508   		movl	8(%ebp), %eax
 896 0620 890424   		movl	%eax, (%esp)
 897 0623 E83FFAFF 		call	_AdjustRowNumbersFromBothRI
 897      FF
 159:src/pdf417/PDFDetectionResult.c **** 	// TODO we should only do full row adjustments if row numbers of left and right row indicator colu
 160:src/pdf417/PDFDetectionResult.c **** 	// Maybe it's even better to calculated the height (in codeword rows) and divide it by the number 
 161:src/pdf417/PDFDetectionResult.c **** 	// rows. This, together with the LRI and RRI row numbers should allow us to get a good estimate wh
 162:src/pdf417/PDFDetectionResult.c **** 	// number starts and ends.
 163:src/pdf417/PDFDetectionResult.c **** 	int unadjustedCount = AdjustRowNumbersFromLRI(detectionResultColumns,row,size);
 898              		.loc 1 163 24
 899 0628 8B4510   		movl	16(%ebp), %eax
 900 062b 89442408 		movl	%eax, 8(%esp)
 901 062f 8B450C   		movl	12(%ebp), %eax
 902 0632 89442404 		movl	%eax, 4(%esp)
 903 0636 8B4508   		movl	8(%ebp), %eax
 904 0639 890424   		movl	%eax, (%esp)
 905 063c E8A9FCFF 		call	_AdjustRowNumbersFromLRI
 905      FF
 906 0641 8945F4   		movl	%eax, -12(%ebp)
 164:src/pdf417/PDFDetectionResult.c **** 	return unadjustedCount + AdjustRowNumbersFromRRI(detectionResultColumns,row,size);
 907              		.loc 1 164 27
 908 0644 8B4510   		movl	16(%ebp), %eax
 909 0647 89442408 		movl	%eax, 8(%esp)
 910 064b 8B450C   		movl	12(%ebp), %eax
 911 064e 89442404 		movl	%eax, 4(%esp)
 912 0652 8B4508   		movl	8(%ebp), %eax
 913 0655 890424   		movl	%eax, (%esp)
 914 0658 E80BFEFF 		call	_AdjustRowNumbersFromRRI
 914      FF
 915 065d 89C2     		movl	%eax, %edx
 916              		.loc 1 164 25
 917 065f 8B45F4   		movl	-12(%ebp), %eax
 918 0662 01D0     		addl	%edx, %eax
 165:src/pdf417/PDFDetectionResult.c **** 
 166:src/pdf417/PDFDetectionResult.c **** }
 919              		.loc 1 166 1
 920 0664 C9       		leave
 921              	LCFI20:
 922              		.cfi_restore 5
 923              		.cfi_def_cfa 4, 4
 924 0665 C3       		ret
 925              		.cfi_endproc
 926              	LFE7:
 928              	_AdjustRowNumber:
 929              	LFB8:
 167:src/pdf417/PDFDetectionResult.c **** 
 168:src/pdf417/PDFDetectionResult.c **** /**
 169:src/pdf417/PDFDetectionResult.c **** * @return true, if row number was adjusted, false otherwise
 170:src/pdf417/PDFDetectionResult.c **** */
 171:src/pdf417/PDFDetectionResult.c **** static uint8_t AdjustRowNumber(Codeword_t * codeword, const Codeword_t * otherCodeword) 
 172:src/pdf417/PDFDetectionResult.c **** {
 930              		.loc 1 172 1
GAS LISTING C:\Users\jisu8\AppData\Local\Temp\ccwGfk1w.s 			page 22


 931              		.cfi_startproc
 932 0666 55       		pushl	%ebp
 933              	LCFI21:
 934              		.cfi_def_cfa_offset 8
 935              		.cfi_offset 5, -8
 936 0667 89E5     		movl	%esp, %ebp
 937              	LCFI22:
 938              		.cfi_def_cfa_register 5
 939 0669 53       		pushl	%ebx
 940              		.cfi_offset 3, -12
 173:src/pdf417/PDFDetectionResult.c **** 	if ((codeword->m_hasValue != 0) && (otherCodeword->m_hasValue != 0) && 
 941              		.loc 1 173 15
 942 066a 8B4508   		movl	8(%ebp), %eax
 943 066d 0FB600   		movzbl	(%eax), %eax
 944              		.loc 1 173 5
 945 0670 84C0     		testb	%al, %al
 946 0672 746E     		je	L58
 947              		.loc 1 173 51 discriminator 1
 948 0674 8B450C   		movl	12(%ebp), %eax
 949 0677 0FB600   		movzbl	(%eax), %eax
 950              		.loc 1 173 34 discriminator 1
 951 067a 84C0     		testb	%al, %al
 952 067c 7464     		je	L58
 174:src/pdf417/PDFDetectionResult.c **** 	   ((otherCodeword->m_value._rowNumber != BARCODE_ROW_UNKNOWN) && (otherCodeword->m_value._bucket 
 953              		.loc 1 174 29 discriminator 2
 954 067e 8B450C   		movl	12(%ebp), %eax
 955 0681 8B5014   		movl	20(%eax), %edx
 956              		.loc 1 174 41 discriminator 2
 957 0684 A1000000 		movl	_BARCODE_ROW_UNKNOWN, %eax
 957      00
 173:src/pdf417/PDFDetectionResult.c **** 	if ((codeword->m_hasValue != 0) && (otherCodeword->m_hasValue != 0) && 
 958              		.loc 1 173 70 discriminator 2
 959 0689 39C2     		cmpl	%eax, %edx
 960 068b 7455     		je	L58
 961              		.loc 1 174 91
 962 068d 8B450C   		movl	12(%ebp), %eax
 963 0690 8B580C   		movl	12(%eax), %ebx
 964              		.loc 1 174 126
 965 0693 8B450C   		movl	12(%ebp), %eax
 966 0696 8B4814   		movl	20(%eax), %ecx
 967              		.loc 1 174 138
 968 0699 BA565555 		movl	$1431655766, %edx
 968      55
 969 069e 89C8     		movl	%ecx, %eax
 970 06a0 F7EA     		imull	%edx
 971 06a2 89C8     		movl	%ecx, %eax
 972 06a4 C1F81F   		sarl	$31, %eax
 973 06a7 29C2     		subl	%eax, %edx
 974 06a9 89D0     		movl	%edx, %eax
 975 06ab 89C2     		movl	%eax, %edx
 976 06ad 01D2     		addl	%edx, %edx
 977 06af 01C2     		addl	%eax, %edx
 978 06b1 89C8     		movl	%ecx, %eax
 979 06b3 29D0     		subl	%edx, %eax
 980              		.loc 1 174 143
 981 06b5 89C2     		movl	%eax, %edx
 982 06b7 01D2     		addl	%edx, %edx
GAS LISTING C:\Users\jisu8\AppData\Local\Temp\ccwGfk1w.s 			page 23


 983 06b9 01D0     		addl	%edx, %eax
 984              		.loc 1 174 65
 985 06bb 39C3     		cmpl	%eax, %ebx
 986 06bd 7523     		jne	L58
 175:src/pdf417/PDFDetectionResult.c **** 	   (otherCodeword->m_value._bucket == codeword->m_value._bucket)) 
 987              		.loc 1 175 28 discriminator 1
 988 06bf 8B450C   		movl	12(%ebp), %eax
 989 06c2 8B500C   		movl	12(%eax), %edx
 990              		.loc 1 175 57 discriminator 1
 991 06c5 8B4508   		movl	8(%ebp), %eax
 992 06c8 8B400C   		movl	12(%eax), %eax
 174:src/pdf417/PDFDetectionResult.c **** 	   ((otherCodeword->m_value._rowNumber != BARCODE_ROW_UNKNOWN) && (otherCodeword->m_value._bucket 
 993              		.loc 1 174 149 discriminator 1
 994 06cb 39C2     		cmpl	%eax, %edx
 995 06cd 7513     		jne	L58
 176:src/pdf417/PDFDetectionResult.c **** 	{
 177:src/pdf417/PDFDetectionResult.c **** 		codeword->m_value._rowNumber = (otherCodeword->m_value._rowNumber);
 996              		.loc 1 177 57
 997 06cf 8B450C   		movl	12(%ebp), %eax
 998 06d2 8B5014   		movl	20(%eax), %edx
 999              		.loc 1 177 32
 1000 06d5 8B4508   		movl	8(%ebp), %eax
 1001 06d8 895014   		movl	%edx, 20(%eax)
 178:src/pdf417/PDFDetectionResult.c **** 		return 1;
 1002              		.loc 1 178 10
 1003 06db B8010000 		movl	$1, %eax
 1003      00
 1004 06e0 EB05     		jmp	L59
 1005              	L58:
 179:src/pdf417/PDFDetectionResult.c **** 	}
 180:src/pdf417/PDFDetectionResult.c **** 	return 0;
 1006              		.loc 1 180 9
 1007 06e2 B8000000 		movl	$0, %eax
 1007      00
 1008              	L59:
 181:src/pdf417/PDFDetectionResult.c **** }
 1009              		.loc 1 181 1
 1010 06e7 5B       		popl	%ebx
 1011              		.cfi_restore 3
 1012 06e8 5D       		popl	%ebp
 1013              	LCFI23:
 1014              		.cfi_restore 5
 1015              		.cfi_def_cfa 4, 4
 1016 06e9 C3       		ret
 1017              		.cfi_endproc
 1018              	LFE8:
 1020              	_AdjustRowNumbers_internal:
 1021              	LFB9:
 182:src/pdf417/PDFDetectionResult.c **** 
 183:src/pdf417/PDFDetectionResult.c **** 
 184:src/pdf417/PDFDetectionResult.c **** static void AdjustRowNumbers_internal(const DetectionResultColumn_t * detectionResultColumns, int b
 185:src/pdf417/PDFDetectionResult.c **** {
 1022              		.loc 1 185 1
 1023              		.cfi_startproc
 1024 06ea 55       		pushl	%ebp
 1025              	LCFI24:
 1026              		.cfi_def_cfa_offset 8
GAS LISTING C:\Users\jisu8\AppData\Local\Temp\ccwGfk1w.s 			page 24


 1027              		.cfi_offset 5, -8
 1028 06eb 89E5     		movl	%esp, %ebp
 1029              	LCFI25:
 1030              		.cfi_def_cfa_register 5
 1031 06ed 81EC9801 		subl	$408, %esp
 1031      0000
 186:src/pdf417/PDFDetectionResult.c **** 	Codeword_t codeword = codewords[codewordsRow];
 1032              		.loc 1 186 33
 1033 06f3 8B5510   		movl	16(%ebp), %edx
 1034 06f6 89D0     		movl	%edx, %eax
 1035 06f8 01C0     		addl	%eax, %eax
 1036 06fa 01D0     		addl	%edx, %eax
 1037 06fc C1E003   		sall	$3, %eax
 1038 06ff 89C2     		movl	%eax, %edx
 1039 0701 8B4514   		movl	20(%ebp), %eax
 1040 0704 01D0     		addl	%edx, %eax
 1041              		.loc 1 186 13
 1042 0706 8B10     		movl	(%eax), %edx
 1043 0708 8955D0   		movl	%edx, -48(%ebp)
 1044 070b 8B5004   		movl	4(%eax), %edx
 1045 070e 8955D4   		movl	%edx, -44(%ebp)
 1046 0711 8B5008   		movl	8(%eax), %edx
 1047 0714 8955D8   		movl	%edx, -40(%ebp)
 1048 0717 8B500C   		movl	12(%eax), %edx
 1049 071a 8955DC   		movl	%edx, -36(%ebp)
 1050 071d 8B5010   		movl	16(%eax), %edx
 1051 0720 8955E0   		movl	%edx, -32(%ebp)
 1052 0723 8B4014   		movl	20(%eax), %eax
 1053 0726 8945E4   		movl	%eax, -28(%ebp)
 187:src/pdf417/PDFDetectionResult.c **** 	Codeword_t * previousColumnCodewords = allCodewords(&detectionResultColumns[barcodeColumn - 1]);
 1054              		.loc 1 187 77
 1055 0729 8B450C   		movl	12(%ebp), %eax
 1056 072c 69C0342F 		imull	$12084, %eax, %eax
 1056      0000
 1057 0732 8D90CCD0 		leal	-12084(%eax), %edx
 1057      FFFF
 1058              		.loc 1 187 54
 1059 0738 8B4508   		movl	8(%ebp), %eax
 1060 073b 01D0     		addl	%edx, %eax
 1061              		.loc 1 187 41
 1062 073d 890424   		movl	%eax, (%esp)
 1063 0740 E8000000 		call	_allCodewords
 1063      00
 1064 0745 8945F0   		movl	%eax, -16(%ebp)
 188:src/pdf417/PDFDetectionResult.c **** 	Codeword_t * nextColumnCodewords = detectionResultColumns[barcodeColumn + 1].m_hasValue != 0 ? all
 1065              		.loc 1 188 59
 1066 0748 8B450C   		movl	12(%ebp), %eax
 1067 074b 83C001   		addl	$1, %eax
 1068 074e 69D0342F 		imull	$12084, %eax, %edx
 1068      0000
 1069 0754 8B4508   		movl	8(%ebp), %eax
 1070 0757 01D0     		addl	%edx, %eax
 1071              		.loc 1 188 78
 1072 0759 0FB600   		movzbl	(%eax), %eax
 1073              		.loc 1 188 154
 1074 075c 84C0     		testb	%al, %al
 1075 075e 741B     		je	L61
GAS LISTING C:\Users\jisu8\AppData\Local\Temp\ccwGfk1w.s 			page 25


 1076              		.loc 1 188 133 discriminator 1
 1077 0760 8B450C   		movl	12(%ebp), %eax
 1078              		.loc 1 188 97 discriminator 1
 1079 0763 83C001   		addl	$1, %eax
 1080 0766 69D0342F 		imull	$12084, %eax, %edx
 1080      0000
 1081              		.loc 1 188 110 discriminator 1
 1082 076c 8B4508   		movl	8(%ebp), %eax
 1083 076f 01D0     		addl	%edx, %eax
 1084              		.loc 1 188 97 discriminator 1
 1085 0771 890424   		movl	%eax, (%esp)
 1086 0774 E8000000 		call	_allCodewords
 1086      00
 1087 0779 EB03     		jmp	L62
 1088              	L61:
 1089              		.loc 1 188 154 discriminator 2
 1090 077b 8B45F0   		movl	-16(%ebp), %eax
 1091              	L62:
 1092              		.loc 1 188 15 discriminator 4
 1093 077e 8945EC   		movl	%eax, -20(%ebp)
 189:src/pdf417/PDFDetectionResult.c **** 
 190:src/pdf417/PDFDetectionResult.c **** 	Codeword_t otherCodewords[14];
 191:src/pdf417/PDFDetectionResult.c **** 	int size1 = sizeof(otherCodewords)/sizeof(otherCodewords[0]);
 1094              		.loc 1 191 6 discriminator 4
 1095 0781 C745E80E 		movl	$14, -24(%ebp)
 1095      000000
 192:src/pdf417/PDFDetectionResult.c **** 
 193:src/pdf417/PDFDetectionResult.c **** 	otherCodewords[2] = previousColumnCodewords[codewordsRow];
 1096              		.loc 1 193 45 discriminator 4
 1097 0788 8B5510   		movl	16(%ebp), %edx
 1098 078b 89D0     		movl	%edx, %eax
 1099 078d 01C0     		addl	%eax, %eax
 1100 078f 01D0     		addl	%edx, %eax
 1101 0791 C1E003   		sall	$3, %eax
 1102 0794 89C2     		movl	%eax, %edx
 1103 0796 8B45F0   		movl	-16(%ebp), %eax
 1104 0799 01D0     		addl	%edx, %eax
 1105              		.loc 1 193 20 discriminator 4
 1106 079b 8B10     		movl	(%eax), %edx
 1107 079d 8995B0FE 		movl	%edx, -336(%ebp)
 1107      FFFF
 1108 07a3 8B5004   		movl	4(%eax), %edx
 1109 07a6 8995B4FE 		movl	%edx, -332(%ebp)
 1109      FFFF
 1110 07ac 8B5008   		movl	8(%eax), %edx
 1111 07af 8995B8FE 		movl	%edx, -328(%ebp)
 1111      FFFF
 1112 07b5 8B500C   		movl	12(%eax), %edx
 1113 07b8 8995BCFE 		movl	%edx, -324(%ebp)
 1113      FFFF
 1114 07be 8B5010   		movl	16(%eax), %edx
 1115 07c1 8995C0FE 		movl	%edx, -320(%ebp)
 1115      FFFF
 1116 07c7 8B4014   		movl	20(%eax), %eax
 1117 07ca 8985C4FE 		movl	%eax, -316(%ebp)
 1117      FFFF
 194:src/pdf417/PDFDetectionResult.c **** 	otherCodewords[3] = nextColumnCodewords[codewordsRow];
GAS LISTING C:\Users\jisu8\AppData\Local\Temp\ccwGfk1w.s 			page 26


 1118              		.loc 1 194 41 discriminator 4
 1119 07d0 8B5510   		movl	16(%ebp), %edx
 1120 07d3 89D0     		movl	%edx, %eax
 1121 07d5 01C0     		addl	%eax, %eax
 1122 07d7 01D0     		addl	%edx, %eax
 1123 07d9 C1E003   		sall	$3, %eax
 1124 07dc 89C2     		movl	%eax, %edx
 1125 07de 8B45EC   		movl	-20(%ebp), %eax
 1126 07e1 01D0     		addl	%edx, %eax
 1127              		.loc 1 194 20 discriminator 4
 1128 07e3 8B10     		movl	(%eax), %edx
 1129 07e5 8995C8FE 		movl	%edx, -312(%ebp)
 1129      FFFF
 1130 07eb 8B5004   		movl	4(%eax), %edx
 1131 07ee 8995CCFE 		movl	%edx, -308(%ebp)
 1131      FFFF
 1132 07f4 8B5008   		movl	8(%eax), %edx
 1133 07f7 8995D0FE 		movl	%edx, -304(%ebp)
 1133      FFFF
 1134 07fd 8B500C   		movl	12(%eax), %edx
 1135 0800 8995D4FE 		movl	%edx, -300(%ebp)
 1135      FFFF
 1136 0806 8B5010   		movl	16(%eax), %edx
 1137 0809 8995D8FE 		movl	%edx, -296(%ebp)
 1137      FFFF
 1138 080f 8B4014   		movl	20(%eax), %eax
 1139 0812 8985DCFE 		movl	%eax, -292(%ebp)
 1139      FFFF
 195:src/pdf417/PDFDetectionResult.c **** 
 196:src/pdf417/PDFDetectionResult.c **** 	if (codewordsRow > 0) 
 1140              		.loc 1 196 5 discriminator 4
 1141 0818 837D1000 		cmpl	$0, 16(%ebp)
 1142 081c 0F8EDB00 		jle	L63
 1142      0000
 197:src/pdf417/PDFDetectionResult.c **** 	{
 198:src/pdf417/PDFDetectionResult.c **** 		otherCodewords[0] = codewords[codewordsRow - 1];
 1143              		.loc 1 198 32
 1144 0822 8B5510   		movl	16(%ebp), %edx
 1145 0825 89D0     		movl	%edx, %eax
 1146 0827 01C0     		addl	%eax, %eax
 1147 0829 01D0     		addl	%edx, %eax
 1148 082b C1E003   		sall	$3, %eax
 1149 082e 8D50E8   		leal	-24(%eax), %edx
 1150 0831 8B4514   		movl	20(%ebp), %eax
 1151 0834 01D0     		addl	%edx, %eax
 1152              		.loc 1 198 21
 1153 0836 8B10     		movl	(%eax), %edx
 1154 0838 899580FE 		movl	%edx, -384(%ebp)
 1154      FFFF
 1155 083e 8B5004   		movl	4(%eax), %edx
 1156 0841 899584FE 		movl	%edx, -380(%ebp)
 1156      FFFF
 1157 0847 8B5008   		movl	8(%eax), %edx
 1158 084a 899588FE 		movl	%edx, -376(%ebp)
 1158      FFFF
 1159 0850 8B500C   		movl	12(%eax), %edx
 1160 0853 89958CFE 		movl	%edx, -372(%ebp)
GAS LISTING C:\Users\jisu8\AppData\Local\Temp\ccwGfk1w.s 			page 27


 1160      FFFF
 1161 0859 8B5010   		movl	16(%eax), %edx
 1162 085c 899590FE 		movl	%edx, -368(%ebp)
 1162      FFFF
 1163 0862 8B4014   		movl	20(%eax), %eax
 1164 0865 898594FE 		movl	%eax, -364(%ebp)
 1164      FFFF
 199:src/pdf417/PDFDetectionResult.c **** 		otherCodewords[4] = previousColumnCodewords[codewordsRow - 1];
 1165              		.loc 1 199 46
 1166 086b 8B5510   		movl	16(%ebp), %edx
 1167 086e 89D0     		movl	%edx, %eax
 1168 0870 01C0     		addl	%eax, %eax
 1169 0872 01D0     		addl	%edx, %eax
 1170 0874 C1E003   		sall	$3, %eax
 1171 0877 8D50E8   		leal	-24(%eax), %edx
 1172 087a 8B45F0   		movl	-16(%ebp), %eax
 1173 087d 01D0     		addl	%edx, %eax
 1174              		.loc 1 199 21
 1175 087f 8B10     		movl	(%eax), %edx
 1176 0881 8995E0FE 		movl	%edx, -288(%ebp)
 1176      FFFF
 1177 0887 8B5004   		movl	4(%eax), %edx
 1178 088a 8995E4FE 		movl	%edx, -284(%ebp)
 1178      FFFF
 1179 0890 8B5008   		movl	8(%eax), %edx
 1180 0893 8995E8FE 		movl	%edx, -280(%ebp)
 1180      FFFF
 1181 0899 8B500C   		movl	12(%eax), %edx
 1182 089c 8995ECFE 		movl	%edx, -276(%ebp)
 1182      FFFF
 1183 08a2 8B5010   		movl	16(%eax), %edx
 1184 08a5 8995F0FE 		movl	%edx, -272(%ebp)
 1184      FFFF
 1185 08ab 8B4014   		movl	20(%eax), %eax
 1186 08ae 8985F4FE 		movl	%eax, -268(%ebp)
 1186      FFFF
 200:src/pdf417/PDFDetectionResult.c **** 		otherCodewords[5] = nextColumnCodewords[codewordsRow - 1];
 1187              		.loc 1 200 42
 1188 08b4 8B5510   		movl	16(%ebp), %edx
 1189 08b7 89D0     		movl	%edx, %eax
 1190 08b9 01C0     		addl	%eax, %eax
 1191 08bb 01D0     		addl	%edx, %eax
 1192 08bd C1E003   		sall	$3, %eax
 1193 08c0 8D50E8   		leal	-24(%eax), %edx
 1194 08c3 8B45EC   		movl	-20(%ebp), %eax
 1195 08c6 01D0     		addl	%edx, %eax
 1196              		.loc 1 200 21
 1197 08c8 8B10     		movl	(%eax), %edx
 1198 08ca 8995F8FE 		movl	%edx, -264(%ebp)
 1198      FFFF
 1199 08d0 8B5004   		movl	4(%eax), %edx
 1200 08d3 8995FCFE 		movl	%edx, -260(%ebp)
 1200      FFFF
 1201 08d9 8B5008   		movl	8(%eax), %edx
 1202 08dc 899500FF 		movl	%edx, -256(%ebp)
 1202      FFFF
 1203 08e2 8B500C   		movl	12(%eax), %edx
GAS LISTING C:\Users\jisu8\AppData\Local\Temp\ccwGfk1w.s 			page 28


 1204 08e5 899504FF 		movl	%edx, -252(%ebp)
 1204      FFFF
 1205 08eb 8B5010   		movl	16(%eax), %edx
 1206 08ee 899508FF 		movl	%edx, -248(%ebp)
 1206      FFFF
 1207 08f4 8B4014   		movl	20(%eax), %eax
 1208 08f7 89850CFF 		movl	%eax, -244(%ebp)
 1208      FFFF
 1209              	L63:
 201:src/pdf417/PDFDetectionResult.c **** 	}
 202:src/pdf417/PDFDetectionResult.c **** 	if (codewordsRow > 1) 
 1210              		.loc 1 202 5
 1211 08fd 837D1001 		cmpl	$1, 16(%ebp)
 1212 0901 0F8EC300 		jle	L64
 1212      0000
 203:src/pdf417/PDFDetectionResult.c **** 	{
 204:src/pdf417/PDFDetectionResult.c **** 		otherCodewords[8] = codewords[codewordsRow - 2];
 1213              		.loc 1 204 32
 1214 0907 8B5510   		movl	16(%ebp), %edx
 1215 090a 89D0     		movl	%edx, %eax
 1216 090c 01C0     		addl	%eax, %eax
 1217 090e 01D0     		addl	%edx, %eax
 1218 0910 C1E003   		sall	$3, %eax
 1219 0913 8D50D0   		leal	-48(%eax), %edx
 1220 0916 8B4514   		movl	20(%ebp), %eax
 1221 0919 01D0     		addl	%edx, %eax
 1222              		.loc 1 204 21
 1223 091b 8B10     		movl	(%eax), %edx
 1224 091d 899540FF 		movl	%edx, -192(%ebp)
 1224      FFFF
 1225 0923 8B5004   		movl	4(%eax), %edx
 1226 0926 899544FF 		movl	%edx, -188(%ebp)
 1226      FFFF
 1227 092c 8B5008   		movl	8(%eax), %edx
 1228 092f 899548FF 		movl	%edx, -184(%ebp)
 1228      FFFF
 1229 0935 8B500C   		movl	12(%eax), %edx
 1230 0938 89954CFF 		movl	%edx, -180(%ebp)
 1230      FFFF
 1231 093e 8B5010   		movl	16(%eax), %edx
 1232 0941 899550FF 		movl	%edx, -176(%ebp)
 1232      FFFF
 1233 0947 8B4014   		movl	20(%eax), %eax
 1234 094a 898554FF 		movl	%eax, -172(%ebp)
 1234      FFFF
 205:src/pdf417/PDFDetectionResult.c **** 		otherCodewords[10] = previousColumnCodewords[codewordsRow - 2];
 1235              		.loc 1 205 47
 1236 0950 8B5510   		movl	16(%ebp), %edx
 1237 0953 89D0     		movl	%edx, %eax
 1238 0955 01C0     		addl	%eax, %eax
 1239 0957 01D0     		addl	%edx, %eax
 1240 0959 C1E003   		sall	$3, %eax
 1241 095c 8D50D0   		leal	-48(%eax), %edx
 1242 095f 8B45F0   		movl	-16(%ebp), %eax
 1243 0962 01D0     		addl	%edx, %eax
 1244              		.loc 1 205 22
 1245 0964 8B10     		movl	(%eax), %edx
GAS LISTING C:\Users\jisu8\AppData\Local\Temp\ccwGfk1w.s 			page 29


 1246 0966 899570FF 		movl	%edx, -144(%ebp)
 1246      FFFF
 1247 096c 8B5004   		movl	4(%eax), %edx
 1248 096f 899574FF 		movl	%edx, -140(%ebp)
 1248      FFFF
 1249 0975 8B5008   		movl	8(%eax), %edx
 1250 0978 899578FF 		movl	%edx, -136(%ebp)
 1250      FFFF
 1251 097e 8B500C   		movl	12(%eax), %edx
 1252 0981 89957CFF 		movl	%edx, -132(%ebp)
 1252      FFFF
 1253 0987 8B5010   		movl	16(%eax), %edx
 1254 098a 895580   		movl	%edx, -128(%ebp)
 1255 098d 8B4014   		movl	20(%eax), %eax
 1256 0990 894584   		movl	%eax, -124(%ebp)
 206:src/pdf417/PDFDetectionResult.c **** 		otherCodewords[11] = nextColumnCodewords[codewordsRow - 2];
 1257              		.loc 1 206 43
 1258 0993 8B5510   		movl	16(%ebp), %edx
 1259 0996 89D0     		movl	%edx, %eax
 1260 0998 01C0     		addl	%eax, %eax
 1261 099a 01D0     		addl	%edx, %eax
 1262 099c C1E003   		sall	$3, %eax
 1263 099f 8D50D0   		leal	-48(%eax), %edx
 1264 09a2 8B45EC   		movl	-20(%ebp), %eax
 1265 09a5 01D0     		addl	%edx, %eax
 1266              		.loc 1 206 22
 1267 09a7 8B10     		movl	(%eax), %edx
 1268 09a9 895588   		movl	%edx, -120(%ebp)
 1269 09ac 8B5004   		movl	4(%eax), %edx
 1270 09af 89558C   		movl	%edx, -116(%ebp)
 1271 09b2 8B5008   		movl	8(%eax), %edx
 1272 09b5 895590   		movl	%edx, -112(%ebp)
 1273 09b8 8B500C   		movl	12(%eax), %edx
 1274 09bb 895594   		movl	%edx, -108(%ebp)
 1275 09be 8B5010   		movl	16(%eax), %edx
 1276 09c1 895598   		movl	%edx, -104(%ebp)
 1277 09c4 8B4014   		movl	20(%eax), %eax
 1278 09c7 89459C   		movl	%eax, -100(%ebp)
 1279              	L64:
 1280              	LBB14:
 207:src/pdf417/PDFDetectionResult.c **** 	}
 208:src/pdf417/PDFDetectionResult.c **** 	#if 0
 209:src/pdf417/PDFDetectionResult.c **** 	if (codewordsRow < Size(codewords) - 1) 
 210:src/pdf417/PDFDetectionResult.c **** 	{
 211:src/pdf417/PDFDetectionResult.c **** 		otherCodewords[1] = codewords[codewordsRow + 1];
 212:src/pdf417/PDFDetectionResult.c **** 		otherCodewords[6] = previousColumnCodewords[codewordsRow + 1];
 213:src/pdf417/PDFDetectionResult.c **** 		otherCodewords[7] = nextColumnCodewords[codewordsRow + 1];
 214:src/pdf417/PDFDetectionResult.c **** 	}
 215:src/pdf417/PDFDetectionResult.c **** 	if (codewordsRow < Size(codewords) - 2) 
 216:src/pdf417/PDFDetectionResult.c **** 	{
 217:src/pdf417/PDFDetectionResult.c **** 		otherCodewords[9] = codewords[codewordsRow + 2];
 218:src/pdf417/PDFDetectionResult.c **** 		otherCodewords[12] = previousColumnCodewords[codewordsRow + 2];
 219:src/pdf417/PDFDetectionResult.c **** 		otherCodewords[13] = nextColumnCodewords[codewordsRow + 2];
 220:src/pdf417/PDFDetectionResult.c **** 	}
 221:src/pdf417/PDFDetectionResult.c **** 	#endif
 222:src/pdf417/PDFDetectionResult.c **** 	for (int i=0;i<size1;i++) 
 1281              		.loc 1 222 11
GAS LISTING C:\Users\jisu8\AppData\Local\Temp\ccwGfk1w.s 			page 30


 1282 09ca C745F400 		movl	$0, -12(%ebp)
 1282      000000
 1283              		.loc 1 222 2
 1284 09d1 EB1D     		jmp	L65
 1285              	L68:
 223:src/pdf417/PDFDetectionResult.c **** 	{
 224:src/pdf417/PDFDetectionResult.c **** 		if (AdjustRowNumber(&codeword, otherCodewords)) 
 1286              		.loc 1 224 7
 1287 09d3 8D8580FE 		leal	-384(%ebp), %eax
 1287      FFFF
 1288 09d9 89442404 		movl	%eax, 4(%esp)
 1289 09dd 8D45D0   		leal	-48(%ebp), %eax
 1290 09e0 890424   		movl	%eax, (%esp)
 1291 09e3 E87EFCFF 		call	_AdjustRowNumber
 1291      FF
 1292              		.loc 1 224 6
 1293 09e8 84C0     		testb	%al, %al
 1294 09ea 750E     		jne	L69
 222:src/pdf417/PDFDetectionResult.c **** 	{
 1295              		.loc 1 222 24 discriminator 2
 1296 09ec 8345F401 		addl	$1, -12(%ebp)
 1297              	L65:
 222:src/pdf417/PDFDetectionResult.c **** 	{
 1298              		.loc 1 222 2 discriminator 1
 1299 09f0 8B45F4   		movl	-12(%ebp), %eax
 1300 09f3 3B45E8   		cmpl	-24(%ebp), %eax
 1301 09f6 7CDB     		jl	L68
 1302 09f8 EB01     		jmp	L60
 1303              	L69:
 1304              	LBE14:
 225:src/pdf417/PDFDetectionResult.c **** 		{
 226:src/pdf417/PDFDetectionResult.c **** 			return;
 1305              		.loc 1 226 4
 1306 09fa 90       		nop
 1307              	L60:
 227:src/pdf417/PDFDetectionResult.c **** 		}
 228:src/pdf417/PDFDetectionResult.c **** 	}
 229:src/pdf417/PDFDetectionResult.c **** }
 1308              		.loc 1 229 1
 1309 09fb C9       		leave
 1310              	LCFI26:
 1311              		.cfi_restore 5
 1312              		.cfi_def_cfa 4, 4
 1313 09fc C3       		ret
 1314              		.cfi_endproc
 1315              	LFE9:
 1317              	_AdjustRowNumbers:
 1318              	LFB10:
 230:src/pdf417/PDFDetectionResult.c **** 
 231:src/pdf417/PDFDetectionResult.c **** 
 232:src/pdf417/PDFDetectionResult.c **** // TODO ensure that no detected codewords with unknown row number are left
 233:src/pdf417/PDFDetectionResult.c **** // we should be able to estimate the row height and use it as a hint for the row number
 234:src/pdf417/PDFDetectionResult.c **** // we should also fill the rows top to bottom and bottom to top
 235:src/pdf417/PDFDetectionResult.c **** /**
 236:src/pdf417/PDFDetectionResult.c **** * @return number of codewords which don't have a valid row number. Note that the count is not accur
 237:src/pdf417/PDFDetectionResult.c **** * will be counted several times. It just serves as an indicator to see when we can stop adjusting r
 238:src/pdf417/PDFDetectionResult.c **** */
GAS LISTING C:\Users\jisu8\AppData\Local\Temp\ccwGfk1w.s 			page 31


 239:src/pdf417/PDFDetectionResult.c **** static int AdjustRowNumbers(DetectionResultColumn_t * detectionResultColumns,int row,int size) 
 240:src/pdf417/PDFDetectionResult.c **** {
 1319              		.loc 1 240 1
 1320              		.cfi_startproc
 1321 09fd 55       		pushl	%ebp
 1322              	LCFI27:
 1323              		.cfi_def_cfa_offset 8
 1324              		.cfi_offset 5, -8
 1325 09fe 89E5     		movl	%esp, %ebp
 1326              	LCFI28:
 1327              		.cfi_def_cfa_register 5
 1328 0a00 53       		pushl	%ebx
 1329 0a01 83EC34   		subl	$52, %esp
 1330              		.cfi_offset 3, -12
 241:src/pdf417/PDFDetectionResult.c **** 	int unadjustedCount = AdjustRowNumbersByRow(detectionResultColumns,row,size);
 1331              		.loc 1 241 24
 1332 0a04 8B4510   		movl	16(%ebp), %eax
 1333 0a07 89442408 		movl	%eax, 8(%esp)
 1334 0a0b 8B450C   		movl	12(%ebp), %eax
 1335 0a0e 89442404 		movl	%eax, 4(%esp)
 1336 0a12 8B4508   		movl	8(%ebp), %eax
 1337 0a15 890424   		movl	%eax, (%esp)
 1338 0a18 E8ECFBFF 		call	_AdjustRowNumbersByRow
 1338      FF
 1339 0a1d 8945EC   		movl	%eax, -20(%ebp)
 242:src/pdf417/PDFDetectionResult.c **** 	if (unadjustedCount == 0) 
 1340              		.loc 1 242 5
 1341 0a20 837DEC00 		cmpl	$0, -20(%ebp)
 1342 0a24 750A     		jne	L71
 243:src/pdf417/PDFDetectionResult.c **** 	{
 244:src/pdf417/PDFDetectionResult.c **** 		return 0;
 1343              		.loc 1 244 10
 1344 0a26 B8000000 		movl	$0, %eax
 1344      00
 1345 0a2b E92C0100 		jmp	L72
 1345      00
 1346              	L71:
 1347              	LBB15:
 245:src/pdf417/PDFDetectionResult.c **** 	}
 246:src/pdf417/PDFDetectionResult.c **** 	
 247:src/pdf417/PDFDetectionResult.c **** 	for (int barcodeColumn = 1; barcodeColumn <row; barcodeColumn++) 
 1348              		.loc 1 247 11
 1349 0a30 C745F401 		movl	$1, -12(%ebp)
 1349      000000
 1350              		.loc 1 247 2
 1351 0a37 E9110100 		jmp	L73
 1351      00
 1352              	L80:
 1353              	LBB16:
 248:src/pdf417/PDFDetectionResult.c **** 	{
 249:src/pdf417/PDFDetectionResult.c **** 		if (detectionResultColumns[barcodeColumn].m_hasValue == 0) 
 1354              		.loc 1 249 29
 1355 0a3c 8B45F4   		movl	-12(%ebp), %eax
 1356 0a3f 69D0342F 		imull	$12084, %eax, %edx
 1356      0000
 1357 0a45 8B4508   		movl	8(%ebp), %eax
 1358 0a48 01D0     		addl	%edx, %eax
GAS LISTING C:\Users\jisu8\AppData\Local\Temp\ccwGfk1w.s 			page 32


 1359              		.loc 1 249 44
 1360 0a4a 0FB600   		movzbl	(%eax), %eax
 1361              		.loc 1 249 6
 1362 0a4d 84C0     		testb	%al, %al
 1363 0a4f 0F84F300 		je	L81
 1363      0000
 250:src/pdf417/PDFDetectionResult.c **** 		{
 251:src/pdf417/PDFDetectionResult.c **** 			continue;
 252:src/pdf417/PDFDetectionResult.c **** 		}
 253:src/pdf417/PDFDetectionResult.c **** 		Codeword_t * codewords = detectionResultColumns[barcodeColumn].m_value._codewords;
 1364              		.loc 1 253 50
 1365 0a55 8B45F4   		movl	-12(%ebp), %eax
 1366 0a58 69D0342F 		imull	$12084, %eax, %edx
 1366      0000
 1367 0a5e 8B4508   		movl	8(%ebp), %eax
 1368 0a61 01D0     		addl	%edx, %eax
 1369              		.loc 1 253 16
 1370 0a63 83C050   		addl	$80, %eax
 1371 0a66 8945E8   		movl	%eax, -24(%ebp)
 1372              	LBB17:
 254:src/pdf417/PDFDetectionResult.c **** 		for (int codewordsRow = 0; codewordsRow < size; codewordsRow++) 
 1373              		.loc 1 254 12
 1374 0a69 C745F000 		movl	$0, -16(%ebp)
 1374      000000
 1375              		.loc 1 254 3
 1376 0a70 E9C50000 		jmp	L76
 1376      00
 1377              	L79:
 255:src/pdf417/PDFDetectionResult.c **** 		{
 256:src/pdf417/PDFDetectionResult.c **** 			if (codewords[codewordsRow].m_hasValue == 0) 
 1378              		.loc 1 256 17
 1379 0a75 8B55F0   		movl	-16(%ebp), %edx
 1380 0a78 89D0     		movl	%edx, %eax
 1381 0a7a 01C0     		addl	%eax, %eax
 1382 0a7c 01D0     		addl	%edx, %eax
 1383 0a7e C1E003   		sall	$3, %eax
 1384 0a81 89C2     		movl	%eax, %edx
 1385 0a83 8B45E8   		movl	-24(%ebp), %eax
 1386 0a86 01D0     		addl	%edx, %eax
 1387              		.loc 1 256 31
 1388 0a88 0FB600   		movzbl	(%eax), %eax
 1389              		.loc 1 256 7
 1390 0a8b 84C0     		testb	%al, %al
 1391 0a8d 0F84A200 		je	L82
 1391      0000
 257:src/pdf417/PDFDetectionResult.c **** 			{
 258:src/pdf417/PDFDetectionResult.c **** 				continue;
 259:src/pdf417/PDFDetectionResult.c **** 			}
 260:src/pdf417/PDFDetectionResult.c **** 			if (!codewords[codewordsRow].m_value._rowNumber != BARCODE_ROW_UNKNOWN && codewords[codewordsRow
 1392              		.loc 1 260 18
 1393 0a93 8B55F0   		movl	-16(%ebp), %edx
 1394 0a96 89D0     		movl	%edx, %eax
 1395 0a98 01C0     		addl	%eax, %eax
 1396 0a9a 01D0     		addl	%edx, %eax
 1397 0a9c C1E003   		sall	$3, %eax
 1398 0a9f 89C2     		movl	%eax, %edx
 1399 0aa1 8B45E8   		movl	-24(%ebp), %eax
GAS LISTING C:\Users\jisu8\AppData\Local\Temp\ccwGfk1w.s 			page 33


 1400 0aa4 01D0     		addl	%edx, %eax
 1401              		.loc 1 260 40
 1402 0aa6 8B4014   		movl	20(%eax), %eax
 1403              		.loc 1 260 8
 1404 0aa9 85C0     		testl	%eax, %eax
 1405 0aab 0F94C0   		sete	%al
 1406 0aae 0FB6D0   		movzbl	%al, %edx
 1407              		.loc 1 260 52
 1408 0ab1 A1000000 		movl	_BARCODE_ROW_UNKNOWN, %eax
 1408      00
 1409              		.loc 1 260 7
 1410 0ab6 39C2     		cmpl	%eax, %edx
 1411 0ab8 747C     		je	L78
 1412              		.loc 1 260 87 discriminator 1
 1413 0aba 8B55F0   		movl	-16(%ebp), %edx
 1414 0abd 89D0     		movl	%edx, %eax
 1415 0abf 01C0     		addl	%eax, %eax
 1416 0ac1 01D0     		addl	%edx, %eax
 1417 0ac3 C1E003   		sall	$3, %eax
 1418 0ac6 89C2     		movl	%eax, %edx
 1419 0ac8 8B45E8   		movl	-24(%ebp), %eax
 1420 0acb 01D0     		addl	%edx, %eax
 1421              		.loc 1 260 109 discriminator 1
 1422 0acd 8B580C   		movl	12(%eax), %ebx
 1423              		.loc 1 260 131 discriminator 1
 1424 0ad0 8B55F0   		movl	-16(%ebp), %edx
 1425 0ad3 89D0     		movl	%edx, %eax
 1426 0ad5 01C0     		addl	%eax, %eax
 1427 0ad7 01D0     		addl	%edx, %eax
 1428 0ad9 C1E003   		sall	$3, %eax
 1429 0adc 89C2     		movl	%eax, %edx
 1430 0ade 8B45E8   		movl	-24(%ebp), %eax
 1431 0ae1 01D0     		addl	%edx, %eax
 1432              		.loc 1 260 153 discriminator 1
 1433 0ae3 8B4814   		movl	20(%eax), %ecx
 1434              		.loc 1 260 165 discriminator 1
 1435 0ae6 BA565555 		movl	$1431655766, %edx
 1435      55
 1436 0aeb 89C8     		movl	%ecx, %eax
 1437 0aed F7EA     		imull	%edx
 1438 0aef 89C8     		movl	%ecx, %eax
 1439 0af1 C1F81F   		sarl	$31, %eax
 1440 0af4 29C2     		subl	%eax, %edx
 1441 0af6 89D0     		movl	%edx, %eax
 1442 0af8 89C2     		movl	%eax, %edx
 1443 0afa 01D2     		addl	%edx, %edx
 1444 0afc 01C2     		addl	%eax, %edx
 1445 0afe 89C8     		movl	%ecx, %eax
 1446 0b00 29D0     		subl	%edx, %eax
 1447              		.loc 1 260 170 discriminator 1
 1448 0b02 89C2     		movl	%eax, %edx
 1449 0b04 01D2     		addl	%edx, %edx
 1450 0b06 01D0     		addl	%edx, %eax
 1451              		.loc 1 260 75 discriminator 1
 1452 0b08 39C3     		cmpl	%eax, %ebx
 1453 0b0a 752A     		jne	L78
 261:src/pdf417/PDFDetectionResult.c **** 			{
GAS LISTING C:\Users\jisu8\AppData\Local\Temp\ccwGfk1w.s 			page 34


 262:src/pdf417/PDFDetectionResult.c **** 				AdjustRowNumbers_internal(detectionResultColumns, barcodeColumn, codewordsRow, codewords,size);
 1454              		.loc 1 262 5
 1455 0b0c 8B4510   		movl	16(%ebp), %eax
 1456 0b0f 89442410 		movl	%eax, 16(%esp)
 1457 0b13 8B45E8   		movl	-24(%ebp), %eax
 1458 0b16 8944240C 		movl	%eax, 12(%esp)
 1459 0b1a 8B45F0   		movl	-16(%ebp), %eax
 1460 0b1d 89442408 		movl	%eax, 8(%esp)
 1461 0b21 8B45F4   		movl	-12(%ebp), %eax
 1462 0b24 89442404 		movl	%eax, 4(%esp)
 1463 0b28 8B4508   		movl	8(%ebp), %eax
 1464 0b2b 890424   		movl	%eax, (%esp)
 1465 0b2e E8B7FBFF 		call	_AdjustRowNumbers_internal
 1465      FF
 1466 0b33 EB01     		jmp	L78
 1467              	L82:
 258:src/pdf417/PDFDetectionResult.c **** 			}
 1468              		.loc 1 258 5
 1469 0b35 90       		nop
 1470              	L78:
 254:src/pdf417/PDFDetectionResult.c **** 		{
 1471              		.loc 1 254 63 discriminator 2
 1472 0b36 8345F001 		addl	$1, -16(%ebp)
 1473              	L76:
 254:src/pdf417/PDFDetectionResult.c **** 		{
 1474              		.loc 1 254 3 discriminator 1
 1475 0b3a 8B45F0   		movl	-16(%ebp), %eax
 1476 0b3d 3B4510   		cmpl	16(%ebp), %eax
 1477 0b40 0F8C2FFF 		jl	L79
 1477      FFFF
 1478 0b46 EB01     		jmp	L75
 1479              	L81:
 1480              	LBE17:
 251:src/pdf417/PDFDetectionResult.c **** 		}
 1481              		.loc 1 251 4
 1482 0b48 90       		nop
 1483              	L75:
 1484              	LBE16:
 247:src/pdf417/PDFDetectionResult.c **** 	{
 1485              		.loc 1 247 63 discriminator 2
 1486 0b49 8345F401 		addl	$1, -12(%ebp)
 1487              	L73:
 247:src/pdf417/PDFDetectionResult.c **** 	{
 1488              		.loc 1 247 2 discriminator 1
 1489 0b4d 8B45F4   		movl	-12(%ebp), %eax
 1490 0b50 3B450C   		cmpl	12(%ebp), %eax
 1491 0b53 0F8CE3FE 		jl	L80
 1491      FFFF
 1492              	LBE15:
 263:src/pdf417/PDFDetectionResult.c **** 			}
 264:src/pdf417/PDFDetectionResult.c **** 		}
 265:src/pdf417/PDFDetectionResult.c **** 	}
 266:src/pdf417/PDFDetectionResult.c **** 	return unadjustedCount;
 1493              		.loc 1 266 9
 1494 0b59 8B45EC   		movl	-20(%ebp), %eax
 1495              	L72:
 267:src/pdf417/PDFDetectionResult.c **** }
GAS LISTING C:\Users\jisu8\AppData\Local\Temp\ccwGfk1w.s 			page 35


 1496              		.loc 1 267 1
 1497 0b5c 83C434   		addl	$52, %esp
 1498 0b5f 5B       		popl	%ebx
 1499              		.cfi_restore 3
 1500 0b60 5D       		popl	%ebp
 1501              	LCFI29:
 1502              		.cfi_restore 5
 1503              		.cfi_def_cfa 4, 4
 1504 0b61 C3       		ret
 1505              		.cfi_endproc
 1506              	LFE10:
 1507              		.globl	_allColumns
 1509              	_allColumns:
 1510              	LFB11:
 268:src/pdf417/PDFDetectionResult.c **** 
 269:src/pdf417/PDFDetectionResult.c **** const DetectionResultColumn_t allColumns(DetectionResult_t * detectionResult,int row,int size)
 270:src/pdf417/PDFDetectionResult.c **** {
 1511              		.loc 1 270 1
 1512              		.cfi_startproc
 1513 0b62 55       		pushl	%ebp
 1514              	LCFI30:
 1515              		.cfi_def_cfa_offset 8
 1516              		.cfi_offset 5, -8
 1517 0b63 89E5     		movl	%esp, %ebp
 1518              	LCFI31:
 1519              		.cfi_def_cfa_register 5
 1520 0b65 83EC28   		subl	$40, %esp
 271:src/pdf417/PDFDetectionResult.c **** 	AdjustIndicatorColumnRowNumbers(&(detectionResult->_detectionResultColumns[0]), &(detectionResult-
 1521              		.loc 1 271 82
 1522 0b68 8B450C   		movl	12(%ebp), %eax
 1523              		.loc 1 271 2
 1524 0b6b 8B550C   		movl	12(%ebp), %edx
 1525 0b6e 83C210   		addl	$16, %edx
 1526 0b71 89442404 		movl	%eax, 4(%esp)
 1527 0b75 891424   		movl	%edx, (%esp)
 1528 0b78 E8C5F4FF 		call	_AdjustIndicatorColumnRowNumbers
 1528      FF
 272:src/pdf417/PDFDetectionResult.c **** 	AdjustIndicatorColumnRowNumbers(&(detectionResult->_detectionResultColumns[row-1]), &(detectionRes
 1529              		.loc 1 272 86
 1530 0b7d 8B450C   		movl	12(%ebp), %eax
 1531              		.loc 1 272 80
 1532 0b80 8B5510   		movl	16(%ebp), %edx
 1533 0b83 83EA01   		subl	$1, %edx
 1534              		.loc 1 272 2
 1535 0b86 69D2342F 		imull	$12084, %edx, %edx
 1535      0000
 1536 0b8c 8D4A10   		leal	16(%edx), %ecx
 1537 0b8f 8B550C   		movl	12(%ebp), %edx
 1538 0b92 01CA     		addl	%ecx, %edx
 1539 0b94 89442404 		movl	%eax, 4(%esp)
 1540 0b98 891424   		movl	%edx, (%esp)
 1541 0b9b E8A2F4FF 		call	_AdjustIndicatorColumnRowNumbers
 1541      FF
 273:src/pdf417/PDFDetectionResult.c **** 	int unadjustedCodewordCount = MAX_CODEWORDS_IN_BARCODE;
 1542              		.loc 1 273 6
 1543 0ba0 A1000000 		movl	_MAX_CODEWORDS_IN_BARCODE, %eax
 1543      00
GAS LISTING C:\Users\jisu8\AppData\Local\Temp\ccwGfk1w.s 			page 36


 1544 0ba5 8945F4   		movl	%eax, -12(%ebp)
 1545              	L85:
 274:src/pdf417/PDFDetectionResult.c **** 	int previousUnadjustedCount;
 275:src/pdf417/PDFDetectionResult.c **** 	do 
 276:src/pdf417/PDFDetectionResult.c **** 	{
 277:src/pdf417/PDFDetectionResult.c **** 		previousUnadjustedCount = unadjustedCodewordCount;
 1546              		.loc 1 277 27 discriminator 2
 1547 0ba8 8B45F4   		movl	-12(%ebp), %eax
 1548 0bab 8945F0   		movl	%eax, -16(%ebp)
 278:src/pdf417/PDFDetectionResult.c **** 		unadjustedCodewordCount = AdjustRowNumbers(detectionResult->_detectionResultColumns,row,size);
 1549              		.loc 1 278 61 discriminator 2
 1550 0bae 8B450C   		movl	12(%ebp), %eax
 1551 0bb1 8D5010   		leal	16(%eax), %edx
 1552              		.loc 1 278 29 discriminator 2
 1553 0bb4 8B4514   		movl	20(%ebp), %eax
 1554 0bb7 89442408 		movl	%eax, 8(%esp)
 1555 0bbb 8B4510   		movl	16(%ebp), %eax
 1556 0bbe 89442404 		movl	%eax, 4(%esp)
 1557 0bc2 891424   		movl	%edx, (%esp)
 1558 0bc5 E833FEFF 		call	_AdjustRowNumbers
 1558      FF
 1559 0bca 8945F4   		movl	%eax, -12(%ebp)
 279:src/pdf417/PDFDetectionResult.c **** 	} while (unadjustedCodewordCount > 0 && unadjustedCodewordCount < previousUnadjustedCount);
 1560              		.loc 1 279 2 discriminator 2
 1561 0bcd 837DF400 		cmpl	$0, -12(%ebp)
 1562 0bd1 7E08     		jle	L84
 1563              		.loc 1 279 39 discriminator 1
 1564 0bd3 8B45F4   		movl	-12(%ebp), %eax
 1565 0bd6 3B45F0   		cmpl	-16(%ebp), %eax
 1566 0bd9 7CCD     		jl	L85
 1567              	L84:
 280:src/pdf417/PDFDetectionResult.c **** 	return *(detectionResult->_detectionResultColumns);
 1568              		.loc 1 280 9
 1569 0bdb 8B5508   		movl	8(%ebp), %edx
 1570 0bde 8B450C   		movl	12(%ebp), %eax
 1571 0be1 83C010   		addl	$16, %eax
 1572 0be4 B9342F00 		movl	$12084, %ecx
 1572      00
 1573 0be9 894C2408 		movl	%ecx, 8(%esp)
 1574 0bed 89442404 		movl	%eax, 4(%esp)
 1575 0bf1 891424   		movl	%edx, (%esp)
 1576 0bf4 E8000000 		call	_memcpy
 1576      00
 281:src/pdf417/PDFDetectionResult.c **** }
 1577              		.loc 1 281 1
 1578 0bf9 8B4508   		movl	8(%ebp), %eax
 1579 0bfc C9       		leave
 1580              	LCFI32:
 1581              		.cfi_restore 5
 1582              		.cfi_def_cfa 4, 4
 1583 0bfd C3       		ret
 1584              		.cfi_endproc
 1585              	LFE11:
 1586              	Letext0:
 1587              		.file 2 "src/pdf417/PDFBarcodeMetadata.h"
 1588              		.file 3 "D:/3.tools/mingw/mingw32/i686-w64-mingw32/include/crtdefs.h"
 1589              		.file 4 "D:/3.tools/mingw/mingw32/i686-w64-mingw32/include/stdint.h"
GAS LISTING C:\Users\jisu8\AppData\Local\Temp\ccwGfk1w.s 			page 37


 1590              		.file 5 "src/ResultPoint.h"
 1591              		.file 6 "src/pdf417/PDFBoundingBox.h"
 1592              		.file 7 "src/pdf417/PDFCodeword.h"
 1593              		.file 8 "src/pdf417/PDFDetectionResultColumn.h"
 1594              		.file 9 "src/pdf417/PDFDetectionResult.h"
 1595              		.file 10 "src/pdf417/PDFCodewordDecoder.h"
 1596              		.file 11 "src/pdf417/PDFScanningDecoder.h"
 1597 0bfe 9090     		.section	.debug_info,"dr"
 1598              	Ldebug_info0:
 1599 0000 5D0E0000 		.long	0xe5d
 1600 0004 0200     		.word	0x2
 1601 0006 00000000 		.secrel32	Ldebug_abbrev0
 1602 000a 04       		.byte	0x4
 1603 000b 01       		.uleb128 0x1
 1604 000c 474E5520 		.ascii "GNU C17 8.1.0 -mtune=generic -march=i686 -g -gdwarf-2 -O0\0"
 1604      43313720 
 1604      382E312E 
 1604      30202D6D 
 1604      74756E65 
 1605 0046 0C       		.byte	0xc
 1606 0047 7372632F 		.ascii "src/pdf417/PDFDetectionResult.c\0"
 1606      70646634 
 1606      31372F50 
 1606      44464465 
 1606      74656374 
 1607 0067 443A5C31 		.ascii "D:\\1.Project_workspace\\PDF_BARCODE\0"
 1607      2E50726F 
 1607      6A656374 
 1607      5F776F72 
 1607      6B737061 
 1608 008a 00000000 		.long	Ltext0
 1609 008e FE0B0000 		.long	Letext0
 1610 0092 00000000 		.secrel32	Ldebug_line0
 1611 0096 02       		.uleb128 0x2
 1612 0097 10       		.byte	0x10
 1613 0098 02       		.byte	0x2
 1614 0099 07       		.byte	0x7
 1615 009a 09       		.byte	0x9
 1616 009b 15010000 		.long	0x115
 1617 009f 03       		.uleb128 0x3
 1618 00a0 5F636F6C 		.ascii "_columnCount\0"
 1618      756D6E43 
 1618      6F756E74 
 1618      00
 1619 00ad 02       		.byte	0x2
 1620 00ae 09       		.byte	0x9
 1621 00af 06       		.byte	0x6
 1622 00b0 15010000 		.long	0x115
 1623 00b4 02       		.byte	0x2
 1624 00b5 23       		.byte	0x23
 1625 00b6 00       		.uleb128 0
 1626 00b7 03       		.uleb128 0x3
 1627 00b8 5F657272 		.ascii "_errorCorrectionLevel\0"
 1627      6F72436F 
 1627      72726563 
 1627      74696F6E 
 1627      4C657665 
GAS LISTING C:\Users\jisu8\AppData\Local\Temp\ccwGfk1w.s 			page 38


 1628 00ce 02       		.byte	0x2
 1629 00cf 0A       		.byte	0xa
 1630 00d0 06       		.byte	0x6
 1631 00d1 15010000 		.long	0x115
 1632 00d5 02       		.byte	0x2
 1633 00d6 23       		.byte	0x23
 1634 00d7 04       		.uleb128 0x4
 1635 00d8 03       		.uleb128 0x3
 1636 00d9 5F726F77 		.ascii "_rowCountUpperPart\0"
 1636      436F756E 
 1636      74557070 
 1636      65725061 
 1636      727400
 1637 00ec 02       		.byte	0x2
 1638 00ed 0B       		.byte	0xb
 1639 00ee 06       		.byte	0x6
 1640 00ef 15010000 		.long	0x115
 1641 00f3 02       		.byte	0x2
 1642 00f4 23       		.byte	0x23
 1643 00f5 08       		.uleb128 0x8
 1644 00f6 03       		.uleb128 0x3
 1645 00f7 5F726F77 		.ascii "_rowCountLowerPart\0"
 1645      436F756E 
 1645      744C6F77 
 1645      65725061 
 1645      727400
 1646 010a 02       		.byte	0x2
 1647 010b 0C       		.byte	0xc
 1648 010c 06       		.byte	0x6
 1649 010d 15010000 		.long	0x115
 1650 0111 02       		.byte	0x2
 1651 0112 23       		.byte	0x23
 1652 0113 0C       		.uleb128 0xc
 1653 0114 00       		.byte	0
 1654 0115 04       		.uleb128 0x4
 1655 0116 04       		.byte	0x4
 1656 0117 05       		.byte	0x5
 1657 0118 696E7400 		.ascii "int\0"
 1658 011c 05       		.uleb128 0x5
 1659 011d 15010000 		.long	0x115
 1660 0121 06       		.uleb128 0x6
 1661 0122 42617263 		.ascii "BarcodeMetadata_t\0"
 1661      6F64654D 
 1661      65746164 
 1661      6174615F 
 1661      7400
 1662 0134 02       		.byte	0x2
 1663 0135 0D       		.byte	0xd
 1664 0136 02       		.byte	0x2
 1665 0137 96000000 		.long	0x96
 1666 013b 05       		.uleb128 0x5
 1667 013c 21010000 		.long	0x121
 1668 0140 04       		.uleb128 0x4
 1669 0141 01       		.byte	0x1
 1670 0142 06       		.byte	0x6
 1671 0143 63686172 		.ascii "char\0"
 1671      00
GAS LISTING C:\Users\jisu8\AppData\Local\Temp\ccwGfk1w.s 			page 39


 1672 0148 06       		.uleb128 0x6
 1673 0149 73697A65 		.ascii "size_t\0"
 1673      5F7400
 1674 0150 03       		.byte	0x3
 1675 0151 25       		.byte	0x25
 1676 0152 16       		.byte	0x16
 1677 0153 57010000 		.long	0x157
 1678 0157 04       		.uleb128 0x4
 1679 0158 04       		.byte	0x4
 1680 0159 07       		.byte	0x7
 1681 015a 756E7369 		.ascii "unsigned int\0"
 1681      676E6564 
 1681      20696E74 
 1681      00
 1682 0167 04       		.uleb128 0x4
 1683 0168 02       		.byte	0x2
 1684 0169 07       		.byte	0x7
 1685 016a 73686F72 		.ascii "short unsigned int\0"
 1685      7420756E 
 1685      7369676E 
 1685      65642069 
 1685      6E7400
 1686 017d 04       		.uleb128 0x4
 1687 017e 04       		.byte	0x4
 1688 017f 05       		.byte	0x5
 1689 0180 6C6F6E67 		.ascii "long int\0"
 1689      20696E74 
 1689      00
 1690 0189 04       		.uleb128 0x4
 1691 018a 08       		.byte	0x8
 1692 018b 05       		.byte	0x5
 1693 018c 6C6F6E67 		.ascii "long long int\0"
 1693      206C6F6E 
 1693      6720696E 
 1693      7400
 1694 019a 04       		.uleb128 0x4
 1695 019b 04       		.byte	0x4
 1696 019c 07       		.byte	0x7
 1697 019d 6C6F6E67 		.ascii "long unsigned int\0"
 1697      20756E73 
 1697      69676E65 
 1697      6420696E 
 1697      7400
 1698 01af 04       		.uleb128 0x4
 1699 01b0 01       		.byte	0x1
 1700 01b1 08       		.byte	0x8
 1701 01b2 756E7369 		.ascii "unsigned char\0"
 1701      676E6564 
 1701      20636861 
 1701      7200
 1702 01c0 04       		.uleb128 0x4
 1703 01c1 0C       		.byte	0xc
 1704 01c2 04       		.byte	0x4
 1705 01c3 6C6F6E67 		.ascii "long double\0"
 1705      20646F75 
 1705      626C6500 
 1706 01cf 04       		.uleb128 0x4
GAS LISTING C:\Users\jisu8\AppData\Local\Temp\ccwGfk1w.s 			page 40


 1707 01d0 10       		.byte	0x10
 1708 01d1 04       		.byte	0x4
 1709 01d2 5F466C6F 		.ascii "_Float128\0"
 1709      61743132 
 1709      3800
 1710 01dc 04       		.uleb128 0x4
 1711 01dd 01       		.byte	0x1
 1712 01de 06       		.byte	0x6
 1713 01df 7369676E 		.ascii "signed char\0"
 1713      65642063 
 1713      68617200 
 1714 01eb 06       		.uleb128 0x6
 1715 01ec 75696E74 		.ascii "uint8_t\0"
 1715      385F7400 
 1716 01f4 04       		.byte	0x4
 1717 01f5 24       		.byte	0x24
 1718 01f6 19       		.byte	0x19
 1719 01f7 AF010000 		.long	0x1af
 1720 01fb 04       		.uleb128 0x4
 1721 01fc 02       		.byte	0x2
 1722 01fd 05       		.byte	0x5
 1723 01fe 73686F72 		.ascii "short int\0"
 1723      7420696E 
 1723      7400
 1724 0208 04       		.uleb128 0x4
 1725 0209 08       		.byte	0x8
 1726 020a 07       		.byte	0x7
 1727 020b 6C6F6E67 		.ascii "long long unsigned int\0"
 1727      206C6F6E 
 1727      6720756E 
 1727      7369676E 
 1727      65642069 
 1728 0222 02       		.uleb128 0x2
 1729 0223 08       		.byte	0x8
 1730 0224 05       		.byte	0x5
 1731 0225 14       		.byte	0x14
 1732 0226 09       		.byte	0x9
 1733 0227 46020000 		.long	0x246
 1734 022b 03       		.uleb128 0x3
 1735 022c 7800     		.ascii "x\0"
 1736 022e 05       		.byte	0x5
 1737 022f 16       		.byte	0x16
 1738 0230 08       		.byte	0x8
 1739 0231 46020000 		.long	0x246
 1740 0235 02       		.byte	0x2
 1741 0236 23       		.byte	0x23
 1742 0237 00       		.uleb128 0
 1743 0238 03       		.uleb128 0x3
 1744 0239 7900     		.ascii "y\0"
 1745 023b 05       		.byte	0x5
 1746 023c 17       		.byte	0x17
 1747 023d 08       		.byte	0x8
 1748 023e 46020000 		.long	0x246
 1749 0242 02       		.byte	0x2
 1750 0243 23       		.byte	0x23
 1751 0244 04       		.uleb128 0x4
 1752 0245 00       		.byte	0
GAS LISTING C:\Users\jisu8\AppData\Local\Temp\ccwGfk1w.s 			page 41


 1753 0246 04       		.uleb128 0x4
 1754 0247 04       		.byte	0x4
 1755 0248 04       		.byte	0x4
 1756 0249 666C6F61 		.ascii "float\0"
 1756      7400
 1757 024f 06       		.uleb128 0x6
 1758 0250 506F696E 		.ascii "PointT_t\0"
 1758      74545F74 
 1758      00
 1759 0259 05       		.byte	0x5
 1760 025a 18       		.byte	0x18
 1761 025b 02       		.byte	0x2
 1762 025c 22020000 		.long	0x222
 1763 0260 02       		.uleb128 0x2
 1764 0261 0C       		.byte	0xc
 1765 0262 05       		.byte	0x5
 1766 0263 1A       		.byte	0x1a
 1767 0264 09       		.byte	0x9
 1768 0265 88020000 		.long	0x288
 1769 0269 07       		.uleb128 0x7
 1770 026a 26000000 		.secrel32	LASF0
 1771 026e 05       		.byte	0x5
 1772 026f 1C       		.byte	0x1c
 1773 0270 0A       		.byte	0xa
 1774 0271 EB010000 		.long	0x1eb
 1775 0275 02       		.byte	0x2
 1776 0276 23       		.byte	0x23
 1777 0277 00       		.uleb128 0
 1778 0278 07       		.uleb128 0x7
 1779 0279 B4000000 		.secrel32	LASF1
 1780 027d 05       		.byte	0x5
 1781 027e 1D       		.byte	0x1d
 1782 027f 0B       		.byte	0xb
 1783 0280 4F020000 		.long	0x24f
 1784 0284 02       		.byte	0x2
 1785 0285 23       		.byte	0x23
 1786 0286 04       		.uleb128 0x4
 1787 0287 00       		.byte	0
 1788 0288 06       		.uleb128 0x6
 1789 0289 52657375 		.ascii "ResultPoint_t\0"
 1789      6C74506F 
 1789      696E745F 
 1789      7400
 1790 0297 05       		.byte	0x5
 1791 0298 1E       		.byte	0x1e
 1792 0299 02       		.byte	0x2
 1793 029a 60020000 		.long	0x260
 1794 029e 02       		.uleb128 0x2
 1795 029f 48       		.byte	0x48
 1796 02a0 06       		.byte	0x6
 1797 02a1 06       		.byte	0x6
 1798 02a2 09       		.byte	0x9
 1799 02a3 6F030000 		.long	0x36f
 1800 02a7 03       		.uleb128 0x3
 1801 02a8 5F696D67 		.ascii "_imgWidth\0"
 1801      57696474 
 1801      6800
GAS LISTING C:\Users\jisu8\AppData\Local\Temp\ccwGfk1w.s 			page 42


 1802 02b2 06       		.byte	0x6
 1803 02b3 08       		.byte	0x8
 1804 02b4 06       		.byte	0x6
 1805 02b5 15010000 		.long	0x115
 1806 02b9 02       		.byte	0x2
 1807 02ba 23       		.byte	0x23
 1808 02bb 00       		.uleb128 0
 1809 02bc 03       		.uleb128 0x3
 1810 02bd 5F696D67 		.ascii "_imgHeight\0"
 1810      48656967 
 1810      687400
 1811 02c8 06       		.byte	0x6
 1812 02c9 09       		.byte	0x9
 1813 02ca 06       		.byte	0x6
 1814 02cb 15010000 		.long	0x115
 1815 02cf 02       		.byte	0x2
 1816 02d0 23       		.byte	0x23
 1817 02d1 04       		.uleb128 0x4
 1818 02d2 03       		.uleb128 0x3
 1819 02d3 5F746F70 		.ascii "_topLeft\0"
 1819      4C656674 
 1819      00
 1820 02dc 06       		.byte	0x6
 1821 02dd 0A       		.byte	0xa
 1822 02de 10       		.byte	0x10
 1823 02df 88020000 		.long	0x288
 1824 02e3 02       		.byte	0x2
 1825 02e4 23       		.byte	0x23
 1826 02e5 08       		.uleb128 0x8
 1827 02e6 03       		.uleb128 0x3
 1828 02e7 5F626F74 		.ascii "_bottomLeft\0"
 1828      746F6D4C 
 1828      65667400 
 1829 02f3 06       		.byte	0x6
 1830 02f4 0B       		.byte	0xb
 1831 02f5 10       		.byte	0x10
 1832 02f6 88020000 		.long	0x288
 1833 02fa 02       		.byte	0x2
 1834 02fb 23       		.byte	0x23
 1835 02fc 14       		.uleb128 0x14
 1836 02fd 03       		.uleb128 0x3
 1837 02fe 5F746F70 		.ascii "_topRight\0"
 1837      52696768 
 1837      7400
 1838 0308 06       		.byte	0x6
 1839 0309 0C       		.byte	0xc
 1840 030a 10       		.byte	0x10
 1841 030b 88020000 		.long	0x288
 1842 030f 02       		.byte	0x2
 1843 0310 23       		.byte	0x23
 1844 0311 20       		.uleb128 0x20
 1845 0312 03       		.uleb128 0x3
 1846 0313 5F626F74 		.ascii "_bottomRight\0"
 1846      746F6D52 
 1846      69676874 
 1846      00
 1847 0320 06       		.byte	0x6
GAS LISTING C:\Users\jisu8\AppData\Local\Temp\ccwGfk1w.s 			page 43


 1848 0321 0D       		.byte	0xd
 1849 0322 10       		.byte	0x10
 1850 0323 88020000 		.long	0x288
 1851 0327 02       		.byte	0x2
 1852 0328 23       		.byte	0x23
 1853 0329 2C       		.uleb128 0x2c
 1854 032a 03       		.uleb128 0x3
 1855 032b 5F6D696E 		.ascii "_minX\0"
 1855      5800
 1856 0331 06       		.byte	0x6
 1857 0332 0E       		.byte	0xe
 1858 0333 06       		.byte	0x6
 1859 0334 15010000 		.long	0x115
 1860 0338 02       		.byte	0x2
 1861 0339 23       		.byte	0x23
 1862 033a 38       		.uleb128 0x38
 1863 033b 03       		.uleb128 0x3
 1864 033c 5F6D6178 		.ascii "_maxX\0"
 1864      5800
 1865 0342 06       		.byte	0x6
 1866 0343 0F       		.byte	0xf
 1867 0344 06       		.byte	0x6
 1868 0345 15010000 		.long	0x115
 1869 0349 02       		.byte	0x2
 1870 034a 23       		.byte	0x23
 1871 034b 3C       		.uleb128 0x3c
 1872 034c 03       		.uleb128 0x3
 1873 034d 5F6D696E 		.ascii "_minY\0"
 1873      5900
 1874 0353 06       		.byte	0x6
 1875 0354 10       		.byte	0x10
 1876 0355 06       		.byte	0x6
 1877 0356 15010000 		.long	0x115
 1878 035a 02       		.byte	0x2
 1879 035b 23       		.byte	0x23
 1880 035c 40       		.uleb128 0x40
 1881 035d 03       		.uleb128 0x3
 1882 035e 5F6D6178 		.ascii "_maxY\0"
 1882      5900
 1883 0364 06       		.byte	0x6
 1884 0365 11       		.byte	0x11
 1885 0366 06       		.byte	0x6
 1886 0367 15010000 		.long	0x115
 1887 036b 02       		.byte	0x2
 1888 036c 23       		.byte	0x23
 1889 036d 44       		.uleb128 0x44
 1890 036e 00       		.byte	0
 1891 036f 06       		.uleb128 0x6
 1892 0370 426F756E 		.ascii "BoundingBox_val_t\0"
 1892      64696E67 
 1892      426F785F 
 1892      76616C5F 
 1892      7400
 1893 0382 06       		.byte	0x6
 1894 0383 12       		.byte	0x12
 1895 0384 02       		.byte	0x2
 1896 0385 9E020000 		.long	0x29e
GAS LISTING C:\Users\jisu8\AppData\Local\Temp\ccwGfk1w.s 			page 44


 1897 0389 02       		.uleb128 0x2
 1898 038a 4C       		.byte	0x4c
 1899 038b 06       		.byte	0x6
 1900 038c 14       		.byte	0x14
 1901 038d 09       		.byte	0x9
 1902 038e B1030000 		.long	0x3b1
 1903 0392 07       		.uleb128 0x7
 1904 0393 26000000 		.secrel32	LASF0
 1905 0397 06       		.byte	0x6
 1906 0398 16       		.byte	0x16
 1907 0399 0A       		.byte	0xa
 1908 039a EB010000 		.long	0x1eb
 1909 039e 02       		.byte	0x2
 1910 039f 23       		.byte	0x23
 1911 03a0 00       		.uleb128 0
 1912 03a1 07       		.uleb128 0x7
 1913 03a2 B4000000 		.secrel32	LASF1
 1914 03a6 06       		.byte	0x6
 1915 03a7 17       		.byte	0x17
 1916 03a8 14       		.byte	0x14
 1917 03a9 6F030000 		.long	0x36f
 1918 03ad 02       		.byte	0x2
 1919 03ae 23       		.byte	0x23
 1920 03af 04       		.uleb128 0x4
 1921 03b0 00       		.byte	0
 1922 03b1 06       		.uleb128 0x6
 1923 03b2 426F756E 		.ascii "BoundingBox_t\0"
 1923      64696E67 
 1923      426F785F 
 1923      7400
 1924 03c0 06       		.byte	0x6
 1925 03c1 18       		.byte	0x18
 1926 03c2 02       		.byte	0x2
 1927 03c3 89030000 		.long	0x389
 1928 03c7 05       		.uleb128 0x5
 1929 03c8 B1030000 		.long	0x3b1
 1930 03cc 02       		.uleb128 0x2
 1931 03cd 14       		.byte	0x14
 1932 03ce 07       		.byte	0x7
 1933 03cf 04       		.byte	0x4
 1934 03d0 09       		.byte	0x9
 1935 03d1 35040000 		.long	0x435
 1936 03d5 03       		.uleb128 0x3
 1937 03d6 5F737461 		.ascii "_startX\0"
 1937      72745800 
 1938 03de 07       		.byte	0x7
 1939 03df 06       		.byte	0x6
 1940 03e0 06       		.byte	0x6
 1941 03e1 15010000 		.long	0x115
 1942 03e5 02       		.byte	0x2
 1943 03e6 23       		.byte	0x23
 1944 03e7 00       		.uleb128 0
 1945 03e8 03       		.uleb128 0x3
 1946 03e9 5F656E64 		.ascii "_endX\0"
 1946      5800
 1947 03ef 07       		.byte	0x7
 1948 03f0 07       		.byte	0x7
GAS LISTING C:\Users\jisu8\AppData\Local\Temp\ccwGfk1w.s 			page 45


 1949 03f1 06       		.byte	0x6
 1950 03f2 15010000 		.long	0x115
 1951 03f6 02       		.byte	0x2
 1952 03f7 23       		.byte	0x23
 1953 03f8 04       		.uleb128 0x4
 1954 03f9 03       		.uleb128 0x3
 1955 03fa 5F627563 		.ascii "_bucket\0"
 1955      6B657400 
 1956 0402 07       		.byte	0x7
 1957 0403 08       		.byte	0x8
 1958 0404 06       		.byte	0x6
 1959 0405 15010000 		.long	0x115
 1960 0409 02       		.byte	0x2
 1961 040a 23       		.byte	0x23
 1962 040b 08       		.uleb128 0x8
 1963 040c 03       		.uleb128 0x3
 1964 040d 5F76616C 		.ascii "_value\0"
 1964      756500
 1965 0414 07       		.byte	0x7
 1966 0415 09       		.byte	0x9
 1967 0416 06       		.byte	0x6
 1968 0417 15010000 		.long	0x115
 1969 041b 02       		.byte	0x2
 1970 041c 23       		.byte	0x23
 1971 041d 0C       		.uleb128 0xc
 1972 041e 03       		.uleb128 0x3
 1973 041f 5F726F77 		.ascii "_rowNumber\0"
 1973      4E756D62 
 1973      657200
 1974 042a 07       		.byte	0x7
 1975 042b 0A       		.byte	0xa
 1976 042c 06       		.byte	0x6
 1977 042d 15010000 		.long	0x115
 1978 0431 02       		.byte	0x2
 1979 0432 23       		.byte	0x23
 1980 0433 10       		.uleb128 0x10
 1981 0434 00       		.byte	0
 1982 0435 06       		.uleb128 0x6
 1983 0436 436F6465 		.ascii "Codeword_val_t\0"
 1983      776F7264 
 1983      5F76616C 
 1983      5F7400
 1984 0445 07       		.byte	0x7
 1985 0446 0B       		.byte	0xb
 1986 0447 02       		.byte	0x2
 1987 0448 CC030000 		.long	0x3cc
 1988 044c 02       		.uleb128 0x2
 1989 044d 18       		.byte	0x18
 1990 044e 07       		.byte	0x7
 1991 044f 0C       		.byte	0xc
 1992 0450 09       		.byte	0x9
 1993 0451 74040000 		.long	0x474
 1994 0455 07       		.uleb128 0x7
 1995 0456 26000000 		.secrel32	LASF0
 1996 045a 07       		.byte	0x7
 1997 045b 0E       		.byte	0xe
 1998 045c 0A       		.byte	0xa
GAS LISTING C:\Users\jisu8\AppData\Local\Temp\ccwGfk1w.s 			page 46


 1999 045d EB010000 		.long	0x1eb
 2000 0461 02       		.byte	0x2
 2001 0462 23       		.byte	0x23
 2002 0463 00       		.uleb128 0
 2003 0464 07       		.uleb128 0x7
 2004 0465 B4000000 		.secrel32	LASF1
 2005 0469 07       		.byte	0x7
 2006 046a 0F       		.byte	0xf
 2007 046b 11       		.byte	0x11
 2008 046c 35040000 		.long	0x435
 2009 0470 02       		.byte	0x2
 2010 0471 23       		.byte	0x23
 2011 0472 04       		.uleb128 0x4
 2012 0473 00       		.byte	0
 2013 0474 06       		.uleb128 0x6
 2014 0475 436F6465 		.ascii "Codeword_t\0"
 2014      776F7264 
 2014      5F7400
 2015 0480 07       		.byte	0x7
 2016 0481 10       		.byte	0x10
 2017 0482 02       		.byte	0x2
 2018 0483 4C040000 		.long	0x44c
 2019 0487 05       		.uleb128 0x5
 2020 0488 74040000 		.long	0x474
 2021 048c 08       		.uleb128 0x8
 2022 048d 07       		.byte	0x7
 2023 048e 04       		.byte	0x4
 2024 048f 57010000 		.long	0x157
 2025 0493 08       		.byte	0x8
 2026 0494 09       		.byte	0x9
 2027 0495 01       		.byte	0x1
 2028 0496 B1040000 		.long	0x4b1
 2029 049a 09       		.uleb128 0x9
 2030 049b 4E6F6E65 		.ascii "None\0"
 2030      00
 2031 04a0 00       		.byte	0
 2032 04a1 09       		.uleb128 0x9
 2033 04a2 4C656674 		.ascii "Left\0"
 2033      00
 2034 04a7 01       		.byte	0x1
 2035 04a8 09       		.uleb128 0x9
 2036 04a9 52696768 		.ascii "Right\0"
 2036      7400
 2037 04af 02       		.byte	0x2
 2038 04b0 00       		.byte	0
 2039 04b1 06       		.uleb128 0x6
 2040 04b2 526F7749 		.ascii "RowIndicator_t\0"
 2040      6E646963 
 2040      61746F72 
 2040      5F7400
 2041 04c1 08       		.byte	0x8
 2042 04c2 0D       		.byte	0xd
 2043 04c3 02       		.byte	0x2
 2044 04c4 8C040000 		.long	0x48c
 2045 04c8 0A       		.uleb128 0xa
 2046 04c9 302F     		.word	0x2f30
 2047 04cb 08       		.byte	0x8
GAS LISTING C:\Users\jisu8\AppData\Local\Temp\ccwGfk1w.s 			page 47


 2048 04cc 0F       		.byte	0xf
 2049 04cd 09       		.byte	0x9
 2050 04ce 12050000 		.long	0x512
 2051 04d2 07       		.uleb128 0x7
 2052 04d3 31000000 		.secrel32	LASF2
 2053 04d7 08       		.byte	0x8
 2054 04d8 11       		.byte	0x11
 2055 04d9 10       		.byte	0x10
 2056 04da B1030000 		.long	0x3b1
 2057 04de 02       		.byte	0x2
 2058 04df 23       		.byte	0x23
 2059 04e0 00       		.uleb128 0
 2060 04e1 03       		.uleb128 0x3
 2061 04e2 5F636F64 		.ascii "_codewords\0"
 2061      65776F72 
 2061      647300
 2062 04ed 08       		.byte	0x8
 2063 04ee 12       		.byte	0x12
 2064 04ef 0D       		.byte	0xd
 2065 04f0 12050000 		.long	0x512
 2066 04f4 02       		.byte	0x2
 2067 04f5 23       		.byte	0x23
 2068 04f6 4C       		.uleb128 0x4c
 2069 04f7 03       		.uleb128 0x3
 2070 04f8 5F726F77 		.ascii "_rowIndicator\0"
 2070      496E6469 
 2070      6361746F 
 2070      7200
 2071 0506 08       		.byte	0x8
 2072 0507 13       		.byte	0x13
 2073 0508 11       		.byte	0x11
 2074 0509 B1040000 		.long	0x4b1
 2075 050d 03       		.byte	0x3
 2076 050e 23       		.byte	0x23
 2077 050f AC5E     		.uleb128 0x2f2c
 2078 0511 00       		.byte	0
 2079 0512 0B       		.uleb128 0xb
 2080 0513 74040000 		.long	0x474
 2081 0517 23050000 		.long	0x523
 2082 051b 0C       		.uleb128 0xc
 2083 051c 57010000 		.long	0x157
 2084 0520 F301     		.word	0x1f3
 2085 0522 00       		.byte	0
 2086 0523 06       		.uleb128 0x6
 2087 0524 44657465 		.ascii "DetectionResultColumn_val_t\0"
 2087      6374696F 
 2087      6E526573 
 2087      756C7443 
 2087      6F6C756D 
 2088 0540 08       		.byte	0x8
 2089 0541 14       		.byte	0x14
 2090 0542 02       		.byte	0x2
 2091 0543 C8040000 		.long	0x4c8
 2092 0547 0A       		.uleb128 0xa
 2093 0548 342F     		.word	0x2f34
 2094 054a 08       		.byte	0x8
 2095 054b 15       		.byte	0x15
GAS LISTING C:\Users\jisu8\AppData\Local\Temp\ccwGfk1w.s 			page 48


 2096 054c 09       		.byte	0x9
 2097 054d 70050000 		.long	0x570
 2098 0551 07       		.uleb128 0x7
 2099 0552 26000000 		.secrel32	LASF0
 2100 0556 08       		.byte	0x8
 2101 0557 17       		.byte	0x17
 2102 0558 0A       		.byte	0xa
 2103 0559 EB010000 		.long	0x1eb
 2104 055d 02       		.byte	0x2
 2105 055e 23       		.byte	0x23
 2106 055f 00       		.uleb128 0
 2107 0560 07       		.uleb128 0x7
 2108 0561 B4000000 		.secrel32	LASF1
 2109 0565 08       		.byte	0x8
 2110 0566 18       		.byte	0x18
 2111 0567 1E       		.byte	0x1e
 2112 0568 23050000 		.long	0x523
 2113 056c 02       		.byte	0x2
 2114 056d 23       		.byte	0x23
 2115 056e 04       		.uleb128 0x4
 2116 056f 00       		.byte	0
 2117 0570 06       		.uleb128 0x6
 2118 0571 44657465 		.ascii "DetectionResultColumn_t\0"
 2118      6374696F 
 2118      6E526573 
 2118      756C7443 
 2118      6F6C756D 
 2119 0589 08       		.byte	0x8
 2120 058a 19       		.byte	0x19
 2121 058b 02       		.byte	0x2
 2122 058c 47050000 		.long	0x547
 2123 0590 05       		.uleb128 0x5
 2124 0591 70050000 		.long	0x570
 2125 0595 0D       		.uleb128 0xd
 2126 0596 AC701200 		.long	0x1270ac
 2127 059a 09       		.byte	0x9
 2128 059b 08       		.byte	0x8
 2129 059c 09       		.byte	0x9
 2130 059d F2050000 		.long	0x5f2
 2131 05a1 03       		.uleb128 0x3
 2132 05a2 5F626172 		.ascii "_barcodeMetadata\0"
 2132      636F6465 
 2132      4D657461 
 2132      64617461 
 2132      00
 2133 05b3 09       		.byte	0x9
 2134 05b4 0A       		.byte	0xa
 2135 05b5 14       		.byte	0x14
 2136 05b6 21010000 		.long	0x121
 2137 05ba 02       		.byte	0x2
 2138 05bb 23       		.byte	0x23
 2139 05bc 00       		.uleb128 0
 2140 05bd 03       		.uleb128 0x3
 2141 05be 5F646574 		.ascii "_detectionResultColumns\0"
 2141      65637469 
 2141      6F6E5265 
 2141      73756C74 
GAS LISTING C:\Users\jisu8\AppData\Local\Temp\ccwGfk1w.s 			page 49


 2141      436F6C75 
 2142 05d6 09       		.byte	0x9
 2143 05d7 0B       		.byte	0xb
 2144 05d8 1A       		.byte	0x1a
 2145 05d9 F2050000 		.long	0x5f2
 2146 05dd 02       		.byte	0x2
 2147 05de 23       		.byte	0x23
 2148 05df 10       		.uleb128 0x10
 2149 05e0 07       		.uleb128 0x7
 2150 05e1 31000000 		.secrel32	LASF2
 2151 05e5 09       		.byte	0x9
 2152 05e6 0C       		.byte	0xc
 2153 05e7 10       		.byte	0x10
 2154 05e8 B1030000 		.long	0x3b1
 2155 05ec 04       		.byte	0x4
 2156 05ed 23       		.byte	0x23
 2157 05ee E0E049   		.uleb128 0x127060
 2158 05f1 00       		.byte	0
 2159 05f2 0B       		.uleb128 0xb
 2160 05f3 70050000 		.long	0x570
 2161 05f7 02060000 		.long	0x602
 2162 05fb 0E       		.uleb128 0xe
 2163 05fc 57010000 		.long	0x157
 2164 0600 63       		.byte	0x63
 2165 0601 00       		.byte	0
 2166 0602 06       		.uleb128 0x6
 2167 0603 44657465 		.ascii "DetectionResult_t\0"
 2167      6374696F 
 2167      6E526573 
 2167      756C745F 
 2167      7400
 2168 0615 09       		.byte	0x9
 2169 0616 0D       		.byte	0xd
 2170 0617 02       		.byte	0x2
 2171 0618 95050000 		.long	0x595
 2172 061c 0F       		.uleb128 0xf
 2173 061d 4D4F4455 		.ascii "MODULES_IN_CODEWORD\0"
 2173      4C45535F 
 2173      494E5F43 
 2173      4F444557 
 2173      4F524400 
 2174 0631 0A       		.byte	0xa
 2175 0632 1D       		.byte	0x1d
 2176 0633 12       		.byte	0x12
 2177 0634 1C010000 		.long	0x11c
 2178 0638 01       		.byte	0x1
 2179 0639 01       		.byte	0x1
 2180 063a 0F       		.uleb128 0xf
 2181 063b 42415253 		.ascii "BARS_IN_MODULE\0"
 2181      5F494E5F 
 2181      4D4F4455 
 2181      4C4500
 2182 064a 0A       		.byte	0xa
 2183 064b 1E       		.byte	0x1e
 2184 064c 12       		.byte	0x12
 2185 064d 1C010000 		.long	0x11c
 2186 0651 01       		.byte	0x1
GAS LISTING C:\Users\jisu8\AppData\Local\Temp\ccwGfk1w.s 			page 50


 2187 0652 01       		.byte	0x1
 2188 0653 0F       		.uleb128 0xf
 2189 0654 4D41585F 		.ascii "MAX_CODEWORDS_IN_BARCODE\0"
 2189      434F4445 
 2189      574F5244 
 2189      535F494E 
 2189      5F424152 
 2190 066d 0A       		.byte	0xa
 2191 066e 1F       		.byte	0x1f
 2192 066f 12       		.byte	0x12
 2193 0670 1C010000 		.long	0x11c
 2194 0674 01       		.byte	0x1
 2195 0675 01       		.byte	0x1
 2196 0676 0F       		.uleb128 0xf
 2197 0677 42415243 		.ascii "BARCODE_ROW_UNKNOWN\0"
 2197      4F44455F 
 2197      524F575F 
 2197      554E4B4E 
 2197      4F574E00 
 2198 068b 0B       		.byte	0xb
 2199 068c 09       		.byte	0x9
 2200 068d 12       		.byte	0x12
 2201 068e 1C010000 		.long	0x11c
 2202 0692 01       		.byte	0x1
 2203 0693 01       		.byte	0x1
 2204 0694 0F       		.uleb128 0xf
 2205 0695 726F7749 		.ascii "rowIndicatorColumn\0"
 2205      6E646963 
 2205      61746F72 
 2205      436F6C75 
 2205      6D6E00
 2206 06a8 0B       		.byte	0xb
 2207 06a9 0F       		.byte	0xf
 2208 06aa 20       		.byte	0x20
 2209 06ab 70050000 		.long	0x570
 2210 06af 01       		.byte	0x1
 2211 06b0 01       		.byte	0x1
 2212 06b1 10       		.uleb128 0x10
 2213 06b2 41444A55 		.ascii "ADJUST_ROW_NUMBER_SKIP\0"
 2213      53545F52 
 2213      4F575F4E 
 2213      554D4245 
 2213      525F534B 
 2214 06c9 01       		.byte	0x1
 2215 06ca 06       		.byte	0x6
 2216 06cb 12       		.byte	0x12
 2217 06cc 1C010000 		.long	0x11c
 2218 06d0 05       		.byte	0x5
 2219 06d1 03       		.byte	0x3
 2220 06d2 00000000 		.long	_ADJUST_ROW_NUMBER_SKIP
 2221 06d6 11       		.uleb128 0x11
 2222 06d7 01       		.byte	0x1
 2223 06d8 616C6C43 		.ascii "allColumns\0"
 2223      6F6C756D 
 2223      6E7300
 2224 06e3 01       		.byte	0x1
 2225 06e4 0D01     		.word	0x10d
GAS LISTING C:\Users\jisu8\AppData\Local\Temp\ccwGfk1w.s 			page 51


 2226 06e6 1F       		.byte	0x1f
 2227 06e7 01       		.byte	0x1
 2228 06e8 70050000 		.long	0x570
 2229 06ec 620B0000 		.long	LFB11
 2230 06f0 FE0B0000 		.long	LFE11
 2231 06f4 00000000 		.secrel32	LLST10
 2232 06f8 01       		.byte	0x1
 2233 06f9 82070000 		.long	0x782
 2234 06fd 12       		.uleb128 0x12
 2235 06fe 64657465 		.ascii "detectionResult\0"
 2235      6374696F 
 2235      6E526573 
 2235      756C7400 
 2236 070e 01       		.byte	0x1
 2237 070f 0D01     		.word	0x10d
 2238 0711 3E       		.byte	0x3e
 2239 0712 82070000 		.long	0x782
 2240 0716 02       		.byte	0x2
 2241 0717 91       		.byte	0x91
 2242 0718 04       		.sleb128 4
 2243 0719 12       		.uleb128 0x12
 2244 071a 726F7700 		.ascii "row\0"
 2245 071e 01       		.byte	0x1
 2246 071f 0D01     		.word	0x10d
 2247 0721 52       		.byte	0x52
 2248 0722 15010000 		.long	0x115
 2249 0726 02       		.byte	0x2
 2250 0727 91       		.byte	0x91
 2251 0728 08       		.sleb128 8
 2252 0729 13       		.uleb128 0x13
 2253 072a 09000000 		.secrel32	LASF3
 2254 072e 01       		.byte	0x1
 2255 072f 0D01     		.word	0x10d
 2256 0731 5A       		.byte	0x5a
 2257 0732 15010000 		.long	0x115
 2258 0736 02       		.byte	0x2
 2259 0737 91       		.byte	0x91
 2260 0738 0C       		.sleb128 12
 2261 0739 14       		.uleb128 0x14
 2262 073a 756E6164 		.ascii "unadjustedCodewordCount\0"
 2262      6A757374 
 2262      6564436F 
 2262      6465776F 
 2262      7264436F 
 2263 0752 01       		.byte	0x1
 2264 0753 1101     		.word	0x111
 2265 0755 06       		.byte	0x6
 2266 0756 15010000 		.long	0x115
 2267 075a 02       		.byte	0x2
 2268 075b 91       		.byte	0x91
 2269 075c 6C       		.sleb128 -20
 2270 075d 14       		.uleb128 0x14
 2271 075e 70726576 		.ascii "previousUnadjustedCount\0"
 2271      696F7573 
 2271      556E6164 
 2271      6A757374 
 2271      6564436F 
GAS LISTING C:\Users\jisu8\AppData\Local\Temp\ccwGfk1w.s 			page 52


 2272 0776 01       		.byte	0x1
 2273 0777 1201     		.word	0x112
 2274 0779 06       		.byte	0x6
 2275 077a 15010000 		.long	0x115
 2276 077e 02       		.byte	0x2
 2277 077f 91       		.byte	0x91
 2278 0780 68       		.sleb128 -24
 2279 0781 00       		.byte	0
 2280 0782 15       		.uleb128 0x15
 2281 0783 04       		.byte	0x4
 2282 0784 02060000 		.long	0x602
 2283 0788 16       		.uleb128 0x16
 2284 0789 41646A75 		.ascii "AdjustRowNumbers\0"
 2284      7374526F 
 2284      774E756D 
 2284      62657273 
 2284      00
 2285 079a 01       		.byte	0x1
 2286 079b EF       		.byte	0xef
 2287 079c 0C       		.byte	0xc
 2288 079d 01       		.byte	0x1
 2289 079e 15010000 		.long	0x115
 2290 07a2 FD090000 		.long	LFB10
 2291 07a6 620B0000 		.long	LFE10
 2292 07aa 38000000 		.secrel32	LLST9
 2293 07ae 01       		.byte	0x1
 2294 07af 3B080000 		.long	0x83b
 2295 07b3 17       		.uleb128 0x17
 2296 07b4 48000000 		.secrel32	LASF4
 2297 07b8 01       		.byte	0x1
 2298 07b9 EF       		.byte	0xef
 2299 07ba 37       		.byte	0x37
 2300 07bb 3B080000 		.long	0x83b
 2301 07bf 02       		.byte	0x2
 2302 07c0 91       		.byte	0x91
 2303 07c1 00       		.sleb128 0
 2304 07c2 18       		.uleb128 0x18
 2305 07c3 726F7700 		.ascii "row\0"
 2306 07c7 01       		.byte	0x1
 2307 07c8 EF       		.byte	0xef
 2308 07c9 52       		.byte	0x52
 2309 07ca 15010000 		.long	0x115
 2310 07ce 02       		.byte	0x2
 2311 07cf 91       		.byte	0x91
 2312 07d0 04       		.sleb128 4
 2313 07d1 17       		.uleb128 0x17
 2314 07d2 09000000 		.secrel32	LASF3
 2315 07d6 01       		.byte	0x1
 2316 07d7 EF       		.byte	0xef
 2317 07d8 5A       		.byte	0x5a
 2318 07d9 15010000 		.long	0x115
 2319 07dd 02       		.byte	0x2
 2320 07de 91       		.byte	0x91
 2321 07df 08       		.sleb128 8
 2322 07e0 19       		.uleb128 0x19
 2323 07e1 8E000000 		.secrel32	LASF5
 2324 07e5 01       		.byte	0x1
GAS LISTING C:\Users\jisu8\AppData\Local\Temp\ccwGfk1w.s 			page 53


 2325 07e6 F1       		.byte	0xf1
 2326 07e7 06       		.byte	0x6
 2327 07e8 15010000 		.long	0x115
 2328 07ec 02       		.byte	0x2
 2329 07ed 91       		.byte	0x91
 2330 07ee 64       		.sleb128 -28
 2331 07ef 1A       		.uleb128 0x1a
 2332 07f0 300A0000 		.long	LBB15
 2333 07f4 590B0000 		.long	LBE15
 2334 07f8 19       		.uleb128 0x19
 2335 07f9 5F000000 		.secrel32	LASF6
 2336 07fd 01       		.byte	0x1
 2337 07fe F7       		.byte	0xf7
 2338 07ff 0B       		.byte	0xb
 2339 0800 15010000 		.long	0x115
 2340 0804 02       		.byte	0x2
 2341 0805 91       		.byte	0x91
 2342 0806 6C       		.sleb128 -20
 2343 0807 1A       		.uleb128 0x1a
 2344 0808 3C0A0000 		.long	LBB16
 2345 080c 490B0000 		.long	LBE16
 2346 0810 19       		.uleb128 0x19
 2347 0811 3E000000 		.secrel32	LASF7
 2348 0815 01       		.byte	0x1
 2349 0816 FD       		.byte	0xfd
 2350 0817 10       		.byte	0x10
 2351 0818 41080000 		.long	0x841
 2352 081c 02       		.byte	0x2
 2353 081d 91       		.byte	0x91
 2354 081e 60       		.sleb128 -32
 2355 081f 1A       		.uleb128 0x1a
 2356 0820 690A0000 		.long	LBB17
 2357 0824 480B0000 		.long	LBE17
 2358 0828 19       		.uleb128 0x19
 2359 0829 0E000000 		.secrel32	LASF8
 2360 082d 01       		.byte	0x1
 2361 082e FE       		.byte	0xfe
 2362 082f 0C       		.byte	0xc
 2363 0830 15010000 		.long	0x115
 2364 0834 02       		.byte	0x2
 2365 0835 91       		.byte	0x91
 2366 0836 68       		.sleb128 -24
 2367 0837 00       		.byte	0
 2368 0838 00       		.byte	0
 2369 0839 00       		.byte	0
 2370 083a 00       		.byte	0
 2371 083b 15       		.uleb128 0x15
 2372 083c 04       		.byte	0x4
 2373 083d 70050000 		.long	0x570
 2374 0841 15       		.uleb128 0x15
 2375 0842 04       		.byte	0x4
 2376 0843 74040000 		.long	0x474
 2377 0847 1B       		.uleb128 0x1b
 2378 0848 41646A75 		.ascii "AdjustRowNumbers_internal\0"
 2378      7374526F 
 2378      774E756D 
 2378      62657273 
GAS LISTING C:\Users\jisu8\AppData\Local\Temp\ccwGfk1w.s 			page 54


 2378      5F696E74 
 2379 0862 01       		.byte	0x1
 2380 0863 B8       		.byte	0xb8
 2381 0864 0D       		.byte	0xd
 2382 0865 01       		.byte	0x1
 2383 0866 EA060000 		.long	LFB9
 2384 086a FD090000 		.long	LFE9
 2385 086e 70000000 		.secrel32	LLST8
 2386 0872 01       		.byte	0x1
 2387 0873 57090000 		.long	0x957
 2388 0877 17       		.uleb128 0x17
 2389 0878 48000000 		.secrel32	LASF4
 2390 087c 01       		.byte	0x1
 2391 087d B8       		.byte	0xb8
 2392 087e 47       		.byte	0x47
 2393 087f 57090000 		.long	0x957
 2394 0883 02       		.byte	0x2
 2395 0884 91       		.byte	0x91
 2396 0885 00       		.sleb128 0
 2397 0886 17       		.uleb128 0x17
 2398 0887 5F000000 		.secrel32	LASF6
 2399 088b 01       		.byte	0x1
 2400 088c B8       		.byte	0xb8
 2401 088d 63       		.byte	0x63
 2402 088e 15010000 		.long	0x115
 2403 0892 02       		.byte	0x2
 2404 0893 91       		.byte	0x91
 2405 0894 04       		.sleb128 4
 2406 0895 17       		.uleb128 0x17
 2407 0896 0E000000 		.secrel32	LASF8
 2408 089a 01       		.byte	0x1
 2409 089b B8       		.byte	0xb8
 2410 089c 76       		.byte	0x76
 2411 089d 15010000 		.long	0x115
 2412 08a1 02       		.byte	0x2
 2413 08a2 91       		.byte	0x91
 2414 08a3 08       		.sleb128 8
 2415 08a4 17       		.uleb128 0x17
 2416 08a5 3E000000 		.secrel32	LASF7
 2417 08a9 01       		.byte	0x1
 2418 08aa B8       		.byte	0xb8
 2419 08ab 91       		.byte	0x91
 2420 08ac 41080000 		.long	0x841
 2421 08b0 02       		.byte	0x2
 2422 08b1 91       		.byte	0x91
 2423 08b2 0C       		.sleb128 12
 2424 08b3 17       		.uleb128 0x17
 2425 08b4 09000000 		.secrel32	LASF3
 2426 08b8 01       		.byte	0x1
 2427 08b9 B8       		.byte	0xb8
 2428 08ba 9F       		.byte	0x9f
 2429 08bb 15010000 		.long	0x115
 2430 08bf 02       		.byte	0x2
 2431 08c0 91       		.byte	0x91
 2432 08c1 10       		.sleb128 16
 2433 08c2 19       		.uleb128 0x19
 2434 08c3 00000000 		.secrel32	LASF9
GAS LISTING C:\Users\jisu8\AppData\Local\Temp\ccwGfk1w.s 			page 55


 2435 08c7 01       		.byte	0x1
 2436 08c8 BA       		.byte	0xba
 2437 08c9 0D       		.byte	0xd
 2438 08ca 74040000 		.long	0x474
 2439 08ce 02       		.byte	0x2
 2440 08cf 91       		.byte	0x91
 2441 08d0 48       		.sleb128 -56
 2442 08d1 10       		.uleb128 0x10
 2443 08d2 70726576 		.ascii "previousColumnCodewords\0"
 2443      696F7573 
 2443      436F6C75 
 2443      6D6E436F 
 2443      6465776F 
 2444 08ea 01       		.byte	0x1
 2445 08eb BB       		.byte	0xbb
 2446 08ec 0F       		.byte	0xf
 2447 08ed 41080000 		.long	0x841
 2448 08f1 02       		.byte	0x2
 2449 08f2 91       		.byte	0x91
 2450 08f3 68       		.sleb128 -24
 2451 08f4 10       		.uleb128 0x10
 2452 08f5 6E657874 		.ascii "nextColumnCodewords\0"
 2452      436F6C75 
 2452      6D6E436F 
 2452      6465776F 
 2452      72647300 
 2453 0909 01       		.byte	0x1
 2454 090a BC       		.byte	0xbc
 2455 090b 0F       		.byte	0xf
 2456 090c 41080000 		.long	0x841
 2457 0910 02       		.byte	0x2
 2458 0911 91       		.byte	0x91
 2459 0912 64       		.sleb128 -28
 2460 0913 10       		.uleb128 0x10
 2461 0914 6F746865 		.ascii "otherCodewords\0"
 2461      72436F64 
 2461      65776F72 
 2461      647300
 2462 0923 01       		.byte	0x1
 2463 0924 BE       		.byte	0xbe
 2464 0925 0D       		.byte	0xd
 2465 0926 5D090000 		.long	0x95d
 2466 092a 03       		.byte	0x3
 2467 092b 91       		.byte	0x91
 2468 092c F87C     		.sleb128 -392
 2469 092e 10       		.uleb128 0x10
 2470 092f 73697A65 		.ascii "size1\0"
 2470      3100
 2471 0935 01       		.byte	0x1
 2472 0936 BF       		.byte	0xbf
 2473 0937 06       		.byte	0x6
 2474 0938 15010000 		.long	0x115
 2475 093c 02       		.byte	0x2
 2476 093d 91       		.byte	0x91
 2477 093e 60       		.sleb128 -32
 2478 093f 1A       		.uleb128 0x1a
 2479 0940 CA090000 		.long	LBB14
GAS LISTING C:\Users\jisu8\AppData\Local\Temp\ccwGfk1w.s 			page 56


 2480 0944 FA090000 		.long	LBE14
 2481 0948 10       		.uleb128 0x10
 2482 0949 6900     		.ascii "i\0"
 2483 094b 01       		.byte	0x1
 2484 094c DE       		.byte	0xde
 2485 094d 0B       		.byte	0xb
 2486 094e 15010000 		.long	0x115
 2487 0952 02       		.byte	0x2
 2488 0953 91       		.byte	0x91
 2489 0954 6C       		.sleb128 -20
 2490 0955 00       		.byte	0
 2491 0956 00       		.byte	0
 2492 0957 15       		.uleb128 0x15
 2493 0958 04       		.byte	0x4
 2494 0959 90050000 		.long	0x590
 2495 095d 0B       		.uleb128 0xb
 2496 095e 74040000 		.long	0x474
 2497 0962 6D090000 		.long	0x96d
 2498 0966 0E       		.uleb128 0xe
 2499 0967 57010000 		.long	0x157
 2500 096b 0D       		.byte	0xd
 2501 096c 00       		.byte	0
 2502 096d 1C       		.uleb128 0x1c
 2503 096e 41646A75 		.ascii "AdjustRowNumber\0"
 2503      7374526F 
 2503      774E756D 
 2503      62657200 
 2504 097e 01       		.byte	0x1
 2505 097f AB       		.byte	0xab
 2506 0980 10       		.byte	0x10
 2507 0981 01       		.byte	0x1
 2508 0982 EB010000 		.long	0x1eb
 2509 0986 66060000 		.long	LFB8
 2510 098a EA060000 		.long	LFE8
 2511 098e A8000000 		.secrel32	LLST7
 2512 0992 01       		.byte	0x1
 2513 0993 C0090000 		.long	0x9c0
 2514 0997 17       		.uleb128 0x17
 2515 0998 00000000 		.secrel32	LASF9
 2516 099c 01       		.byte	0x1
 2517 099d AB       		.byte	0xab
 2518 099e 2D       		.byte	0x2d
 2519 099f 41080000 		.long	0x841
 2520 09a3 02       		.byte	0x2
 2521 09a4 91       		.byte	0x91
 2522 09a5 00       		.sleb128 0
 2523 09a6 18       		.uleb128 0x18
 2524 09a7 6F746865 		.ascii "otherCodeword\0"
 2524      72436F64 
 2524      65776F72 
 2524      6400
 2525 09b5 01       		.byte	0x1
 2526 09b6 AB       		.byte	0xab
 2527 09b7 4A       		.byte	0x4a
 2528 09b8 C0090000 		.long	0x9c0
 2529 09bc 02       		.byte	0x2
 2530 09bd 91       		.byte	0x91
GAS LISTING C:\Users\jisu8\AppData\Local\Temp\ccwGfk1w.s 			page 57


 2531 09be 04       		.sleb128 4
 2532 09bf 00       		.byte	0
 2533 09c0 15       		.uleb128 0x15
 2534 09c1 04       		.byte	0x4
 2535 09c2 87040000 		.long	0x487
 2536 09c6 16       		.uleb128 0x16
 2537 09c7 41646A75 		.ascii "AdjustRowNumbersByRow\0"
 2537      7374526F 
 2537      774E756D 
 2537      62657273 
 2537      4279526F 
 2538 09dd 01       		.byte	0x1
 2539 09de 9B       		.byte	0x9b
 2540 09df 0C       		.byte	0xc
 2541 09e0 01       		.byte	0x1
 2542 09e1 15010000 		.long	0x115
 2543 09e5 09060000 		.long	LFB7
 2544 09e9 66060000 		.long	LFE7
 2545 09ed E0000000 		.secrel32	LLST6
 2546 09f1 01       		.byte	0x1
 2547 09f2 330A0000 		.long	0xa33
 2548 09f6 17       		.uleb128 0x17
 2549 09f7 48000000 		.secrel32	LASF4
 2550 09fb 01       		.byte	0x1
 2551 09fc 9B       		.byte	0x9b
 2552 09fd 3C       		.byte	0x3c
 2553 09fe 3B080000 		.long	0x83b
 2554 0a02 02       		.byte	0x2
 2555 0a03 91       		.byte	0x91
 2556 0a04 00       		.sleb128 0
 2557 0a05 18       		.uleb128 0x18
 2558 0a06 726F7700 		.ascii "row\0"
 2559 0a0a 01       		.byte	0x1
 2560 0a0b 9B       		.byte	0x9b
 2561 0a0c 57       		.byte	0x57
 2562 0a0d 15010000 		.long	0x115
 2563 0a11 02       		.byte	0x2
 2564 0a12 91       		.byte	0x91
 2565 0a13 04       		.sleb128 4
 2566 0a14 17       		.uleb128 0x17
 2567 0a15 09000000 		.secrel32	LASF3
 2568 0a19 01       		.byte	0x1
 2569 0a1a 9B       		.byte	0x9b
 2570 0a1b 5F       		.byte	0x5f
 2571 0a1c 15010000 		.long	0x115
 2572 0a20 02       		.byte	0x2
 2573 0a21 91       		.byte	0x91
 2574 0a22 08       		.sleb128 8
 2575 0a23 19       		.uleb128 0x19
 2576 0a24 8E000000 		.secrel32	LASF5
 2577 0a28 01       		.byte	0x1
 2578 0a29 A3       		.byte	0xa3
 2579 0a2a 06       		.byte	0x6
 2580 0a2b 15010000 		.long	0x115
 2581 0a2f 02       		.byte	0x2
 2582 0a30 91       		.byte	0x91
 2583 0a31 6C       		.sleb128 -20
GAS LISTING C:\Users\jisu8\AppData\Local\Temp\ccwGfk1w.s 			page 58


 2584 0a32 00       		.byte	0
 2585 0a33 16       		.uleb128 0x16
 2586 0a34 41646A75 		.ascii "AdjustRowNumbersFromRRI\0"
 2586      7374526F 
 2586      774E756D 
 2586      62657273 
 2586      46726F6D 
 2587 0a4c 01       		.byte	0x1
 2588 0a4d 75       		.byte	0x75
 2589 0a4e 0C       		.byte	0xc
 2590 0a4f 01       		.byte	0x1
 2591 0a50 15010000 		.long	0x115
 2592 0a54 68040000 		.long	LFB6
 2593 0a58 09060000 		.long	LFE6
 2594 0a5c 18010000 		.secrel32	LLST5
 2595 0a60 01       		.byte	0x1
 2596 0a61 340B0000 		.long	0xb34
 2597 0a65 17       		.uleb128 0x17
 2598 0a66 48000000 		.secrel32	LASF4
 2599 0a6a 01       		.byte	0x1
 2600 0a6b 75       		.byte	0x75
 2601 0a6c 3D       		.byte	0x3d
 2602 0a6d 3B080000 		.long	0x83b
 2603 0a71 02       		.byte	0x2
 2604 0a72 91       		.byte	0x91
 2605 0a73 00       		.sleb128 0
 2606 0a74 18       		.uleb128 0x18
 2607 0a75 726F7700 		.ascii "row\0"
 2608 0a79 01       		.byte	0x1
 2609 0a7a 75       		.byte	0x75
 2610 0a7b 58       		.byte	0x58
 2611 0a7c 15010000 		.long	0x115
 2612 0a80 02       		.byte	0x2
 2613 0a81 91       		.byte	0x91
 2614 0a82 04       		.sleb128 4
 2615 0a83 17       		.uleb128 0x17
 2616 0a84 09000000 		.secrel32	LASF3
 2617 0a88 01       		.byte	0x1
 2618 0a89 75       		.byte	0x75
 2619 0a8a 60       		.byte	0x60
 2620 0a8b 15010000 		.long	0x115
 2621 0a8f 02       		.byte	0x2
 2622 0a90 91       		.byte	0x91
 2623 0a91 08       		.sleb128 8
 2624 0a92 19       		.uleb128 0x19
 2625 0a93 8E000000 		.secrel32	LASF5
 2626 0a97 01       		.byte	0x1
 2627 0a98 7B       		.byte	0x7b
 2628 0a99 06       		.byte	0x6
 2629 0a9a 15010000 		.long	0x115
 2630 0a9e 02       		.byte	0x2
 2631 0a9f 91       		.byte	0x91
 2632 0aa0 6C       		.sleb128 -20
 2633 0aa1 19       		.uleb128 0x19
 2634 0aa2 3E000000 		.secrel32	LASF7
 2635 0aa6 01       		.byte	0x1
 2636 0aa7 7C       		.byte	0x7c
GAS LISTING C:\Users\jisu8\AppData\Local\Temp\ccwGfk1w.s 			page 59


 2637 0aa8 0F       		.byte	0xf
 2638 0aa9 41080000 		.long	0x841
 2639 0aad 02       		.byte	0x2
 2640 0aae 91       		.byte	0x91
 2641 0aaf 5C       		.sleb128 -36
 2642 0ab0 1A       		.uleb128 0x1a
 2643 0ab1 B5040000 		.long	LBB10
 2644 0ab5 00060000 		.long	LBE10
 2645 0ab9 19       		.uleb128 0x19
 2646 0aba 0E000000 		.secrel32	LASF8
 2647 0abe 01       		.byte	0x1
 2648 0abf 7D       		.byte	0x7d
 2649 0ac0 0E       		.byte	0xe
 2650 0ac1 48010000 		.long	0x148
 2651 0ac5 02       		.byte	0x2
 2652 0ac6 91       		.byte	0x91
 2653 0ac7 68       		.sleb128 -24
 2654 0ac8 1A       		.uleb128 0x1a
 2655 0ac9 C1040000 		.long	LBB11
 2656 0acd F0050000 		.long	LBE11
 2657 0ad1 19       		.uleb128 0x19
 2658 0ad2 9E000000 		.secrel32	LASF10
 2659 0ad6 01       		.byte	0x1
 2660 0ad7 83       		.byte	0x83
 2661 0ad8 07       		.byte	0x7
 2662 0ad9 15010000 		.long	0x115
 2663 0add 02       		.byte	0x2
 2664 0ade 91       		.byte	0x91
 2665 0adf 58       		.sleb128 -40
 2666 0ae0 19       		.uleb128 0x19
 2667 0ae1 7D000000 		.secrel32	LASF11
 2668 0ae5 01       		.byte	0x1
 2669 0ae6 84       		.byte	0x84
 2670 0ae7 07       		.byte	0x7
 2671 0ae8 15010000 		.long	0x115
 2672 0aec 02       		.byte	0x2
 2673 0aed 91       		.byte	0x91
 2674 0aee 64       		.sleb128 -28
 2675 0aef 19       		.uleb128 0x19
 2676 0af0 1B000000 		.secrel32	LASF12
 2677 0af4 01       		.byte	0x1
 2678 0af5 85       		.byte	0x85
 2679 0af6 1D       		.byte	0x1d
 2680 0af7 3B080000 		.long	0x83b
 2681 0afb 02       		.byte	0x2
 2682 0afc 91       		.byte	0x91
 2683 0afd 54       		.sleb128 -44
 2684 0afe 1A       		.uleb128 0x1a
 2685 0aff 16050000 		.long	LBB12
 2686 0b03 EF050000 		.long	LBE12
 2687 0b07 19       		.uleb128 0x19
 2688 0b08 BC000000 		.secrel32	LASF13
 2689 0b0c 01       		.byte	0x1
 2690 0b0d 86       		.byte	0x86
 2691 0b0e 22       		.byte	0x22
 2692 0b0f 3B080000 		.long	0x83b
 2693 0b13 02       		.byte	0x2
GAS LISTING C:\Users\jisu8\AppData\Local\Temp\ccwGfk1w.s 			page 60


 2694 0b14 91       		.byte	0x91
 2695 0b15 60       		.sleb128 -32
 2696 0b16 1A       		.uleb128 0x1a
 2697 0b17 26050000 		.long	LBB13
 2698 0b1b D0050000 		.long	LBE13
 2699 0b1f 19       		.uleb128 0x19
 2700 0b20 00000000 		.secrel32	LASF9
 2701 0b24 01       		.byte	0x1
 2702 0b25 8C       		.byte	0x8c
 2703 0b26 0F       		.byte	0xf
 2704 0b27 74040000 		.long	0x474
 2705 0b2b 03       		.byte	0x3
 2706 0b2c 91       		.byte	0x91
 2707 0b2d BC7F     		.sleb128 -68
 2708 0b2f 00       		.byte	0
 2709 0b30 00       		.byte	0
 2710 0b31 00       		.byte	0
 2711 0b32 00       		.byte	0
 2712 0b33 00       		.byte	0
 2713 0b34 16       		.uleb128 0x16
 2714 0b35 41646A75 		.ascii "AdjustRowNumbersFromLRI\0"
 2714      7374526F 
 2714      774E756D 
 2714      62657273 
 2714      46726F6D 
 2715 0b4d 01       		.byte	0x1
 2716 0b4e 50       		.byte	0x50
 2717 0b4f 0C       		.byte	0xc
 2718 0b50 01       		.byte	0x1
 2719 0b51 15010000 		.long	0x115
 2720 0b55 EA020000 		.long	LFB5
 2721 0b59 68040000 		.long	LFE5
 2722 0b5d 50010000 		.secrel32	LLST4
 2723 0b61 01       		.byte	0x1
 2724 0b62 350C0000 		.long	0xc35
 2725 0b66 17       		.uleb128 0x17
 2726 0b67 48000000 		.secrel32	LASF4
 2727 0b6b 01       		.byte	0x1
 2728 0b6c 50       		.byte	0x50
 2729 0b6d 3E       		.byte	0x3e
 2730 0b6e 3B080000 		.long	0x83b
 2731 0b72 02       		.byte	0x2
 2732 0b73 91       		.byte	0x91
 2733 0b74 00       		.sleb128 0
 2734 0b75 18       		.uleb128 0x18
 2735 0b76 726F7700 		.ascii "row\0"
 2736 0b7a 01       		.byte	0x1
 2737 0b7b 50       		.byte	0x50
 2738 0b7c 59       		.byte	0x59
 2739 0b7d 15010000 		.long	0x115
 2740 0b81 02       		.byte	0x2
 2741 0b82 91       		.byte	0x91
 2742 0b83 04       		.sleb128 4
 2743 0b84 17       		.uleb128 0x17
 2744 0b85 09000000 		.secrel32	LASF3
 2745 0b89 01       		.byte	0x1
 2746 0b8a 50       		.byte	0x50
GAS LISTING C:\Users\jisu8\AppData\Local\Temp\ccwGfk1w.s 			page 61


 2747 0b8b 61       		.byte	0x61
 2748 0b8c 15010000 		.long	0x115
 2749 0b90 02       		.byte	0x2
 2750 0b91 91       		.byte	0x91
 2751 0b92 08       		.sleb128 8
 2752 0b93 19       		.uleb128 0x19
 2753 0b94 8E000000 		.secrel32	LASF5
 2754 0b98 01       		.byte	0x1
 2755 0b99 56       		.byte	0x56
 2756 0b9a 06       		.byte	0x6
 2757 0b9b 15010000 		.long	0x115
 2758 0b9f 02       		.byte	0x2
 2759 0ba0 91       		.byte	0x91
 2760 0ba1 6C       		.sleb128 -20
 2761 0ba2 19       		.uleb128 0x19
 2762 0ba3 3E000000 		.secrel32	LASF7
 2763 0ba7 01       		.byte	0x1
 2764 0ba8 57       		.byte	0x57
 2765 0ba9 0F       		.byte	0xf
 2766 0baa 41080000 		.long	0x841
 2767 0bae 02       		.byte	0x2
 2768 0baf 91       		.byte	0x91
 2769 0bb0 5C       		.sleb128 -36
 2770 0bb1 1A       		.uleb128 0x1a
 2771 0bb2 15030000 		.long	LBB6
 2772 0bb6 5F040000 		.long	LBE6
 2773 0bba 19       		.uleb128 0x19
 2774 0bbb 0E000000 		.secrel32	LASF8
 2775 0bbf 01       		.byte	0x1
 2776 0bc0 58       		.byte	0x58
 2777 0bc1 0E       		.byte	0xe
 2778 0bc2 48010000 		.long	0x148
 2779 0bc6 02       		.byte	0x2
 2780 0bc7 91       		.byte	0x91
 2781 0bc8 68       		.sleb128 -24
 2782 0bc9 1A       		.uleb128 0x1a
 2783 0bca 21030000 		.long	LBB7
 2784 0bce 4F040000 		.long	LBE7
 2785 0bd2 19       		.uleb128 0x19
 2786 0bd3 9E000000 		.secrel32	LASF10
 2787 0bd7 01       		.byte	0x1
 2788 0bd8 5E       		.byte	0x5e
 2789 0bd9 07       		.byte	0x7
 2790 0bda 15010000 		.long	0x115
 2791 0bde 02       		.byte	0x2
 2792 0bdf 91       		.byte	0x91
 2793 0be0 58       		.sleb128 -40
 2794 0be1 19       		.uleb128 0x19
 2795 0be2 7D000000 		.secrel32	LASF11
 2796 0be6 01       		.byte	0x1
 2797 0be7 5F       		.byte	0x5f
 2798 0be8 07       		.byte	0x7
 2799 0be9 15010000 		.long	0x115
 2800 0bed 02       		.byte	0x2
 2801 0bee 91       		.byte	0x91
 2802 0bef 64       		.sleb128 -28
 2803 0bf0 19       		.uleb128 0x19
GAS LISTING C:\Users\jisu8\AppData\Local\Temp\ccwGfk1w.s 			page 62


 2804 0bf1 1B000000 		.secrel32	LASF12
 2805 0bf5 01       		.byte	0x1
 2806 0bf6 60       		.byte	0x60
 2807 0bf7 1D       		.byte	0x1d
 2808 0bf8 3B080000 		.long	0x83b
 2809 0bfc 02       		.byte	0x2
 2810 0bfd 91       		.byte	0x91
 2811 0bfe 54       		.sleb128 -44
 2812 0bff 1A       		.uleb128 0x1a
 2813 0c00 76030000 		.long	LBB8
 2814 0c04 4E040000 		.long	LBE8
 2815 0c08 19       		.uleb128 0x19
 2816 0c09 BC000000 		.secrel32	LASF13
 2817 0c0d 01       		.byte	0x1
 2818 0c0e 61       		.byte	0x61
 2819 0c0f 22       		.byte	0x22
 2820 0c10 3B080000 		.long	0x83b
 2821 0c14 02       		.byte	0x2
 2822 0c15 91       		.byte	0x91
 2823 0c16 60       		.sleb128 -32
 2824 0c17 1A       		.uleb128 0x1a
 2825 0c18 86030000 		.long	LBB9
 2826 0c1c 2F040000 		.long	LBE9
 2827 0c20 19       		.uleb128 0x19
 2828 0c21 00000000 		.secrel32	LASF9
 2829 0c25 01       		.byte	0x1
 2830 0c26 67       		.byte	0x67
 2831 0c27 0F       		.byte	0xf
 2832 0c28 74040000 		.long	0x474
 2833 0c2c 03       		.byte	0x3
 2834 0c2d 91       		.byte	0x91
 2835 0c2e BC7F     		.sleb128 -68
 2836 0c30 00       		.byte	0
 2837 0c31 00       		.byte	0
 2838 0c32 00       		.byte	0
 2839 0c33 00       		.byte	0
 2840 0c34 00       		.byte	0
 2841 0c35 1C       		.uleb128 0x1c
 2842 0c36 41646A75 		.ascii "AdjustRowNumberIfValid\0"
 2842      7374526F 
 2842      774E756D 
 2842      62657249 
 2842      6656616C 
 2843 0c4d 01       		.byte	0x1
 2844 0c4e 3F       		.byte	0x3f
 2845 0c4f 0C       		.byte	0xc
 2846 0c50 01       		.byte	0x1
 2847 0c51 15010000 		.long	0x115
 2848 0c55 50020000 		.long	LFB4
 2849 0c59 EA020000 		.long	LFE4
 2850 0c5d 88010000 		.secrel32	LLST3
 2851 0c61 01       		.byte	0x1
 2852 0c62 940C0000 		.long	0xc94
 2853 0c66 17       		.uleb128 0x17
 2854 0c67 9E000000 		.secrel32	LASF10
 2855 0c6b 01       		.byte	0x1
 2856 0c6c 3F       		.byte	0x3f
GAS LISTING C:\Users\jisu8\AppData\Local\Temp\ccwGfk1w.s 			page 63


 2857 0c6d 27       		.byte	0x27
 2858 0c6e 15010000 		.long	0x115
 2859 0c72 02       		.byte	0x2
 2860 0c73 91       		.byte	0x91
 2861 0c74 00       		.sleb128 0
 2862 0c75 17       		.uleb128 0x17
 2863 0c76 7D000000 		.secrel32	LASF11
 2864 0c7a 01       		.byte	0x1
 2865 0c7b 3F       		.byte	0x3f
 2866 0c7c 42       		.byte	0x42
 2867 0c7d 15010000 		.long	0x115
 2868 0c81 02       		.byte	0x2
 2869 0c82 91       		.byte	0x91
 2870 0c83 04       		.sleb128 4
 2871 0c84 17       		.uleb128 0x17
 2872 0c85 00000000 		.secrel32	LASF9
 2873 0c89 01       		.byte	0x1
 2874 0c8a 3F       		.byte	0x3f
 2875 0c8b 61       		.byte	0x61
 2876 0c8c 41080000 		.long	0x841
 2877 0c90 02       		.byte	0x2
 2878 0c91 91       		.byte	0x91
 2879 0c92 08       		.sleb128 8
 2880 0c93 00       		.byte	0
 2881 0c94 1B       		.uleb128 0x1b
 2882 0c95 41646A75 		.ascii "AdjustRowNumbersFromBothRI\0"
 2882      7374526F 
 2882      774E756D 
 2882      62657273 
 2882      46726F6D 
 2883 0cb0 01       		.byte	0x1
 2884 0cb1 18       		.byte	0x18
 2885 0cb2 0D       		.byte	0xd
 2886 0cb3 01       		.byte	0x1
 2887 0cb4 67000000 		.long	LFB3
 2888 0cb8 50020000 		.long	LFE3
 2889 0cbc C0010000 		.secrel32	LLST2
 2890 0cc0 01       		.byte	0x1
 2891 0cc1 870D0000 		.long	0xd87
 2892 0cc5 17       		.uleb128 0x17
 2893 0cc6 48000000 		.secrel32	LASF4
 2894 0cca 01       		.byte	0x1
 2895 0ccb 18       		.byte	0x18
 2896 0ccc 42       		.byte	0x42
 2897 0ccd 3B080000 		.long	0x83b
 2898 0cd1 02       		.byte	0x2
 2899 0cd2 91       		.byte	0x91
 2900 0cd3 00       		.sleb128 0
 2901 0cd4 18       		.uleb128 0x18
 2902 0cd5 726F7700 		.ascii "row\0"
 2903 0cd9 01       		.byte	0x1
 2904 0cda 18       		.byte	0x18
 2905 0cdb 5D       		.byte	0x5d
 2906 0cdc 15010000 		.long	0x115
 2907 0ce0 02       		.byte	0x2
 2908 0ce1 91       		.byte	0x91
 2909 0ce2 04       		.sleb128 4
GAS LISTING C:\Users\jisu8\AppData\Local\Temp\ccwGfk1w.s 			page 64


 2910 0ce3 17       		.uleb128 0x17
 2911 0ce4 09000000 		.secrel32	LASF3
 2912 0ce8 01       		.byte	0x1
 2913 0ce9 18       		.byte	0x18
 2914 0cea 65       		.byte	0x65
 2915 0ceb 15010000 		.long	0x115
 2916 0cef 02       		.byte	0x2
 2917 0cf0 91       		.byte	0x91
 2918 0cf1 08       		.sleb128 8
 2919 0cf2 10       		.uleb128 0x10
 2920 0cf3 4C524963 		.ascii "LRIcodewords\0"
 2920      6F646577 
 2920      6F726473 
 2920      00
 2921 0d00 01       		.byte	0x1
 2922 0d01 1F       		.byte	0x1f
 2923 0d02 0F       		.byte	0xf
 2924 0d03 41080000 		.long	0x841
 2925 0d07 02       		.byte	0x2
 2926 0d08 91       		.byte	0x91
 2927 0d09 64       		.sleb128 -28
 2928 0d0a 10       		.uleb128 0x10
 2929 0d0b 52524963 		.ascii "RRIcodewords\0"
 2929      6F646577 
 2929      6F726473 
 2929      00
 2930 0d18 01       		.byte	0x1
 2931 0d19 20       		.byte	0x20
 2932 0d1a 0F       		.byte	0xf
 2933 0d1b 41080000 		.long	0x841
 2934 0d1f 02       		.byte	0x2
 2935 0d20 91       		.byte	0x91
 2936 0d21 60       		.sleb128 -32
 2937 0d22 1A       		.uleb128 0x1a
 2938 0d23 C8000000 		.long	LBB2
 2939 0d27 49020000 		.long	LBE2
 2940 0d2b 19       		.uleb128 0x19
 2941 0d2c 0E000000 		.secrel32	LASF8
 2942 0d30 01       		.byte	0x1
 2943 0d31 21       		.byte	0x21
 2944 0d32 0E       		.byte	0xe
 2945 0d33 48010000 		.long	0x148
 2946 0d37 02       		.byte	0x2
 2947 0d38 91       		.byte	0x91
 2948 0d39 6C       		.sleb128 -20
 2949 0d3a 1A       		.uleb128 0x1a
 2950 0d3b 44010000 		.long	LBB3
 2951 0d3f 37020000 		.long	LBE3
 2952 0d43 19       		.uleb128 0x19
 2953 0d44 1B000000 		.secrel32	LASF12
 2954 0d48 01       		.byte	0x1
 2955 0d49 28       		.byte	0x28
 2956 0d4a 1E       		.byte	0x1e
 2957 0d4b 3B080000 		.long	0x83b
 2958 0d4f 02       		.byte	0x2
 2959 0d50 91       		.byte	0x91
 2960 0d51 5C       		.sleb128 -36
GAS LISTING C:\Users\jisu8\AppData\Local\Temp\ccwGfk1w.s 			page 65


 2961 0d52 1A       		.uleb128 0x1a
 2962 0d53 5B010000 		.long	LBB4
 2963 0d57 37020000 		.long	LBE4
 2964 0d5b 19       		.uleb128 0x19
 2965 0d5c BC000000 		.secrel32	LASF13
 2966 0d60 01       		.byte	0x1
 2967 0d61 29       		.byte	0x29
 2968 0d62 23       		.byte	0x23
 2969 0d63 3B080000 		.long	0x83b
 2970 0d67 02       		.byte	0x2
 2971 0d68 91       		.byte	0x91
 2972 0d69 68       		.sleb128 -24
 2973 0d6a 1A       		.uleb128 0x1a
 2974 0d6b 6B010000 		.long	LBB5
 2975 0d6f 24020000 		.long	LBE5
 2976 0d73 19       		.uleb128 0x19
 2977 0d74 00000000 		.secrel32	LASF9
 2978 0d78 01       		.byte	0x1
 2979 0d79 2F       		.byte	0x2f
 2980 0d7a 10       		.byte	0x10
 2981 0d7b 74040000 		.long	0x474
 2982 0d7f 02       		.byte	0x2
 2983 0d80 91       		.byte	0x91
 2984 0d81 44       		.sleb128 -60
 2985 0d82 00       		.byte	0
 2986 0d83 00       		.byte	0
 2987 0d84 00       		.byte	0
 2988 0d85 00       		.byte	0
 2989 0d86 00       		.byte	0
 2990 0d87 1B       		.uleb128 0x1b
 2991 0d88 41646A75 		.ascii "AdjustIndicatorColumnRowNumbers\0"
 2991      7374496E 
 2991      64696361 
 2991      746F7243 
 2991      6F6C756D 
 2992 0da8 01       		.byte	0x1
 2993 0da9 10       		.byte	0x10
 2994 0daa 0D       		.byte	0xd
 2995 0dab 01       		.byte	0x1
 2996 0dac 42000000 		.long	LFB2
 2997 0db0 67000000 		.long	LFE2
 2998 0db4 F8010000 		.secrel32	LLST1
 2999 0db8 01       		.byte	0x1
 3000 0db9 EE0D0000 		.long	0xdee
 3001 0dbd 18       		.uleb128 0x18
 3002 0dbe 64657465 		.ascii "detectionResultColumn\0"
 3002      6374696F 
 3002      6E526573 
 3002      756C7443 
 3002      6F6C756D 
 3003 0dd4 01       		.byte	0x1
 3004 0dd5 10       		.byte	0x10
 3005 0dd6 47       		.byte	0x47
 3006 0dd7 3B080000 		.long	0x83b
 3007 0ddb 02       		.byte	0x2
 3008 0ddc 91       		.byte	0x91
 3009 0ddd 00       		.sleb128 0
GAS LISTING C:\Users\jisu8\AppData\Local\Temp\ccwGfk1w.s 			page 66


 3010 0dde 17       		.uleb128 0x17
 3011 0ddf 6D000000 		.secrel32	LASF14
 3012 0de3 01       		.byte	0x1
 3013 0de4 10       		.byte	0x10
 3014 0de5 78       		.byte	0x78
 3015 0de6 EE0D0000 		.long	0xdee
 3016 0dea 02       		.byte	0x2
 3017 0deb 91       		.byte	0x91
 3018 0dec 04       		.sleb128 4
 3019 0ded 00       		.byte	0
 3020 0dee 15       		.uleb128 0x15
 3021 0def 04       		.byte	0x4
 3022 0df0 3B010000 		.long	0x13b
 3023 0df4 1D       		.uleb128 0x1d
 3024 0df5 01       		.byte	0x1
 3025 0df6 44657465 		.ascii "Detection_Result_init\0"
 3025      6374696F 
 3025      6E5F5265 
 3025      73756C74 
 3025      5F696E69 
 3026 0e0c 01       		.byte	0x1
 3027 0e0d 08       		.byte	0x8
 3028 0e0e 06       		.byte	0x6
 3029 0e0f 01       		.byte	0x1
 3030 0e10 00000000 		.long	LFB1
 3031 0e14 42000000 		.long	LFE1
 3032 0e18 30020000 		.secrel32	LLST0
 3033 0e1c 01       		.byte	0x1
 3034 0e1d 5A0E0000 		.long	0xe5a
 3035 0e21 17       		.uleb128 0x17
 3036 0e22 6D000000 		.secrel32	LASF14
 3037 0e26 01       		.byte	0x1
 3038 0e27 08       		.byte	0x8
 3039 0e28 36       		.byte	0x36
 3040 0e29 EE0D0000 		.long	0xdee
 3041 0e2d 02       		.byte	0x2
 3042 0e2e 91       		.byte	0x91
 3043 0e2f 00       		.sleb128 0
 3044 0e30 18       		.uleb128 0x18
 3045 0e31 626F756E 		.ascii "boundingBox\0"
 3045      64696E67 
 3045      426F7800 
 3046 0e3d 01       		.byte	0x1
 3047 0e3e 08       		.byte	0x8
 3048 0e3f 5D       		.byte	0x5d
 3049 0e40 5A0E0000 		.long	0xe5a
 3050 0e44 02       		.byte	0x2
 3051 0e45 91       		.byte	0x91
 3052 0e46 04       		.sleb128 4
 3053 0e47 18       		.uleb128 0x18
 3054 0e48 72657375 		.ascii "result\0"
 3054      6C7400
 3055 0e4f 01       		.byte	0x1
 3056 0e50 08       		.byte	0x8
 3057 0e51 7E       		.byte	0x7e
 3058 0e52 82070000 		.long	0x782
 3059 0e56 02       		.byte	0x2
GAS LISTING C:\Users\jisu8\AppData\Local\Temp\ccwGfk1w.s 			page 67


 3060 0e57 91       		.byte	0x91
 3061 0e58 08       		.sleb128 8
 3062 0e59 00       		.byte	0
 3063 0e5a 15       		.uleb128 0x15
 3064 0e5b 04       		.byte	0x4
 3065 0e5c C7030000 		.long	0x3c7
 3066 0e60 00       		.byte	0
 3067              		.section	.debug_abbrev,"dr"
 3068              	Ldebug_abbrev0:
 3069 0000 01       		.uleb128 0x1
 3070 0001 11       		.uleb128 0x11
 3071 0002 01       		.byte	0x1
 3072 0003 25       		.uleb128 0x25
 3073 0004 08       		.uleb128 0x8
 3074 0005 13       		.uleb128 0x13
 3075 0006 0B       		.uleb128 0xb
 3076 0007 03       		.uleb128 0x3
 3077 0008 08       		.uleb128 0x8
 3078 0009 1B       		.uleb128 0x1b
 3079 000a 08       		.uleb128 0x8
 3080 000b 11       		.uleb128 0x11
 3081 000c 01       		.uleb128 0x1
 3082 000d 12       		.uleb128 0x12
 3083 000e 01       		.uleb128 0x1
 3084 000f 10       		.uleb128 0x10
 3085 0010 06       		.uleb128 0x6
 3086 0011 00       		.byte	0
 3087 0012 00       		.byte	0
 3088 0013 02       		.uleb128 0x2
 3089 0014 13       		.uleb128 0x13
 3090 0015 01       		.byte	0x1
 3091 0016 0B       		.uleb128 0xb
 3092 0017 0B       		.uleb128 0xb
 3093 0018 3A       		.uleb128 0x3a
 3094 0019 0B       		.uleb128 0xb
 3095 001a 3B       		.uleb128 0x3b
 3096 001b 0B       		.uleb128 0xb
 3097 001c 39       		.uleb128 0x39
 3098 001d 0B       		.uleb128 0xb
 3099 001e 01       		.uleb128 0x1
 3100 001f 13       		.uleb128 0x13
 3101 0020 00       		.byte	0
 3102 0021 00       		.byte	0
 3103 0022 03       		.uleb128 0x3
 3104 0023 0D       		.uleb128 0xd
 3105 0024 00       		.byte	0
 3106 0025 03       		.uleb128 0x3
 3107 0026 08       		.uleb128 0x8
 3108 0027 3A       		.uleb128 0x3a
 3109 0028 0B       		.uleb128 0xb
 3110 0029 3B       		.uleb128 0x3b
 3111 002a 0B       		.uleb128 0xb
 3112 002b 39       		.uleb128 0x39
 3113 002c 0B       		.uleb128 0xb
 3114 002d 49       		.uleb128 0x49
 3115 002e 13       		.uleb128 0x13
 3116 002f 38       		.uleb128 0x38
GAS LISTING C:\Users\jisu8\AppData\Local\Temp\ccwGfk1w.s 			page 68


 3117 0030 0A       		.uleb128 0xa
 3118 0031 00       		.byte	0
 3119 0032 00       		.byte	0
 3120 0033 04       		.uleb128 0x4
 3121 0034 24       		.uleb128 0x24
 3122 0035 00       		.byte	0
 3123 0036 0B       		.uleb128 0xb
 3124 0037 0B       		.uleb128 0xb
 3125 0038 3E       		.uleb128 0x3e
 3126 0039 0B       		.uleb128 0xb
 3127 003a 03       		.uleb128 0x3
 3128 003b 08       		.uleb128 0x8
 3129 003c 00       		.byte	0
 3130 003d 00       		.byte	0
 3131 003e 05       		.uleb128 0x5
 3132 003f 26       		.uleb128 0x26
 3133 0040 00       		.byte	0
 3134 0041 49       		.uleb128 0x49
 3135 0042 13       		.uleb128 0x13
 3136 0043 00       		.byte	0
 3137 0044 00       		.byte	0
 3138 0045 06       		.uleb128 0x6
 3139 0046 16       		.uleb128 0x16
 3140 0047 00       		.byte	0
 3141 0048 03       		.uleb128 0x3
 3142 0049 08       		.uleb128 0x8
 3143 004a 3A       		.uleb128 0x3a
 3144 004b 0B       		.uleb128 0xb
 3145 004c 3B       		.uleb128 0x3b
 3146 004d 0B       		.uleb128 0xb
 3147 004e 39       		.uleb128 0x39
 3148 004f 0B       		.uleb128 0xb
 3149 0050 49       		.uleb128 0x49
 3150 0051 13       		.uleb128 0x13
 3151 0052 00       		.byte	0
 3152 0053 00       		.byte	0
 3153 0054 07       		.uleb128 0x7
 3154 0055 0D       		.uleb128 0xd
 3155 0056 00       		.byte	0
 3156 0057 03       		.uleb128 0x3
 3157 0058 0E       		.uleb128 0xe
 3158 0059 3A       		.uleb128 0x3a
 3159 005a 0B       		.uleb128 0xb
 3160 005b 3B       		.uleb128 0x3b
 3161 005c 0B       		.uleb128 0xb
 3162 005d 39       		.uleb128 0x39
 3163 005e 0B       		.uleb128 0xb
 3164 005f 49       		.uleb128 0x49
 3165 0060 13       		.uleb128 0x13
 3166 0061 38       		.uleb128 0x38
 3167 0062 0A       		.uleb128 0xa
 3168 0063 00       		.byte	0
 3169 0064 00       		.byte	0
 3170 0065 08       		.uleb128 0x8
 3171 0066 04       		.uleb128 0x4
 3172 0067 01       		.byte	0x1
 3173 0068 3E       		.uleb128 0x3e
GAS LISTING C:\Users\jisu8\AppData\Local\Temp\ccwGfk1w.s 			page 69


 3174 0069 0B       		.uleb128 0xb
 3175 006a 0B       		.uleb128 0xb
 3176 006b 0B       		.uleb128 0xb
 3177 006c 49       		.uleb128 0x49
 3178 006d 13       		.uleb128 0x13
 3179 006e 3A       		.uleb128 0x3a
 3180 006f 0B       		.uleb128 0xb
 3181 0070 3B       		.uleb128 0x3b
 3182 0071 0B       		.uleb128 0xb
 3183 0072 39       		.uleb128 0x39
 3184 0073 0B       		.uleb128 0xb
 3185 0074 01       		.uleb128 0x1
 3186 0075 13       		.uleb128 0x13
 3187 0076 00       		.byte	0
 3188 0077 00       		.byte	0
 3189 0078 09       		.uleb128 0x9
 3190 0079 28       		.uleb128 0x28
 3191 007a 00       		.byte	0
 3192 007b 03       		.uleb128 0x3
 3193 007c 08       		.uleb128 0x8
 3194 007d 1C       		.uleb128 0x1c
 3195 007e 0B       		.uleb128 0xb
 3196 007f 00       		.byte	0
 3197 0080 00       		.byte	0
 3198 0081 0A       		.uleb128 0xa
 3199 0082 13       		.uleb128 0x13
 3200 0083 01       		.byte	0x1
 3201 0084 0B       		.uleb128 0xb
 3202 0085 05       		.uleb128 0x5
 3203 0086 3A       		.uleb128 0x3a
 3204 0087 0B       		.uleb128 0xb
 3205 0088 3B       		.uleb128 0x3b
 3206 0089 0B       		.uleb128 0xb
 3207 008a 39       		.uleb128 0x39
 3208 008b 0B       		.uleb128 0xb
 3209 008c 01       		.uleb128 0x1
 3210 008d 13       		.uleb128 0x13
 3211 008e 00       		.byte	0
 3212 008f 00       		.byte	0
 3213 0090 0B       		.uleb128 0xb
 3214 0091 01       		.uleb128 0x1
 3215 0092 01       		.byte	0x1
 3216 0093 49       		.uleb128 0x49
 3217 0094 13       		.uleb128 0x13
 3218 0095 01       		.uleb128 0x1
 3219 0096 13       		.uleb128 0x13
 3220 0097 00       		.byte	0
 3221 0098 00       		.byte	0
 3222 0099 0C       		.uleb128 0xc
 3223 009a 21       		.uleb128 0x21
 3224 009b 00       		.byte	0
 3225 009c 49       		.uleb128 0x49
 3226 009d 13       		.uleb128 0x13
 3227 009e 2F       		.uleb128 0x2f
 3228 009f 05       		.uleb128 0x5
 3229 00a0 00       		.byte	0
 3230 00a1 00       		.byte	0
GAS LISTING C:\Users\jisu8\AppData\Local\Temp\ccwGfk1w.s 			page 70


 3231 00a2 0D       		.uleb128 0xd
 3232 00a3 13       		.uleb128 0x13
 3233 00a4 01       		.byte	0x1
 3234 00a5 0B       		.uleb128 0xb
 3235 00a6 06       		.uleb128 0x6
 3236 00a7 3A       		.uleb128 0x3a
 3237 00a8 0B       		.uleb128 0xb
 3238 00a9 3B       		.uleb128 0x3b
 3239 00aa 0B       		.uleb128 0xb
 3240 00ab 39       		.uleb128 0x39
 3241 00ac 0B       		.uleb128 0xb
 3242 00ad 01       		.uleb128 0x1
 3243 00ae 13       		.uleb128 0x13
 3244 00af 00       		.byte	0
 3245 00b0 00       		.byte	0
 3246 00b1 0E       		.uleb128 0xe
 3247 00b2 21       		.uleb128 0x21
 3248 00b3 00       		.byte	0
 3249 00b4 49       		.uleb128 0x49
 3250 00b5 13       		.uleb128 0x13
 3251 00b6 2F       		.uleb128 0x2f
 3252 00b7 0B       		.uleb128 0xb
 3253 00b8 00       		.byte	0
 3254 00b9 00       		.byte	0
 3255 00ba 0F       		.uleb128 0xf
 3256 00bb 34       		.uleb128 0x34
 3257 00bc 00       		.byte	0
 3258 00bd 03       		.uleb128 0x3
 3259 00be 08       		.uleb128 0x8
 3260 00bf 3A       		.uleb128 0x3a
 3261 00c0 0B       		.uleb128 0xb
 3262 00c1 3B       		.uleb128 0x3b
 3263 00c2 0B       		.uleb128 0xb
 3264 00c3 39       		.uleb128 0x39
 3265 00c4 0B       		.uleb128 0xb
 3266 00c5 49       		.uleb128 0x49
 3267 00c6 13       		.uleb128 0x13
 3268 00c7 3F       		.uleb128 0x3f
 3269 00c8 0C       		.uleb128 0xc
 3270 00c9 3C       		.uleb128 0x3c
 3271 00ca 0C       		.uleb128 0xc
 3272 00cb 00       		.byte	0
 3273 00cc 00       		.byte	0
 3274 00cd 10       		.uleb128 0x10
 3275 00ce 34       		.uleb128 0x34
 3276 00cf 00       		.byte	0
 3277 00d0 03       		.uleb128 0x3
 3278 00d1 08       		.uleb128 0x8
 3279 00d2 3A       		.uleb128 0x3a
 3280 00d3 0B       		.uleb128 0xb
 3281 00d4 3B       		.uleb128 0x3b
 3282 00d5 0B       		.uleb128 0xb
 3283 00d6 39       		.uleb128 0x39
 3284 00d7 0B       		.uleb128 0xb
 3285 00d8 49       		.uleb128 0x49
 3286 00d9 13       		.uleb128 0x13
 3287 00da 02       		.uleb128 0x2
GAS LISTING C:\Users\jisu8\AppData\Local\Temp\ccwGfk1w.s 			page 71


 3288 00db 0A       		.uleb128 0xa
 3289 00dc 00       		.byte	0
 3290 00dd 00       		.byte	0
 3291 00de 11       		.uleb128 0x11
 3292 00df 2E       		.uleb128 0x2e
 3293 00e0 01       		.byte	0x1
 3294 00e1 3F       		.uleb128 0x3f
 3295 00e2 0C       		.uleb128 0xc
 3296 00e3 03       		.uleb128 0x3
 3297 00e4 08       		.uleb128 0x8
 3298 00e5 3A       		.uleb128 0x3a
 3299 00e6 0B       		.uleb128 0xb
 3300 00e7 3B       		.uleb128 0x3b
 3301 00e8 05       		.uleb128 0x5
 3302 00e9 39       		.uleb128 0x39
 3303 00ea 0B       		.uleb128 0xb
 3304 00eb 27       		.uleb128 0x27
 3305 00ec 0C       		.uleb128 0xc
 3306 00ed 49       		.uleb128 0x49
 3307 00ee 13       		.uleb128 0x13
 3308 00ef 11       		.uleb128 0x11
 3309 00f0 01       		.uleb128 0x1
 3310 00f1 12       		.uleb128 0x12
 3311 00f2 01       		.uleb128 0x1
 3312 00f3 40       		.uleb128 0x40
 3313 00f4 06       		.uleb128 0x6
 3314 00f5 9642     		.uleb128 0x2116
 3315 00f7 0C       		.uleb128 0xc
 3316 00f8 01       		.uleb128 0x1
 3317 00f9 13       		.uleb128 0x13
 3318 00fa 00       		.byte	0
 3319 00fb 00       		.byte	0
 3320 00fc 12       		.uleb128 0x12
 3321 00fd 05       		.uleb128 0x5
 3322 00fe 00       		.byte	0
 3323 00ff 03       		.uleb128 0x3
 3324 0100 08       		.uleb128 0x8
 3325 0101 3A       		.uleb128 0x3a
 3326 0102 0B       		.uleb128 0xb
 3327 0103 3B       		.uleb128 0x3b
 3328 0104 05       		.uleb128 0x5
 3329 0105 39       		.uleb128 0x39
 3330 0106 0B       		.uleb128 0xb
 3331 0107 49       		.uleb128 0x49
 3332 0108 13       		.uleb128 0x13
 3333 0109 02       		.uleb128 0x2
 3334 010a 0A       		.uleb128 0xa
 3335 010b 00       		.byte	0
 3336 010c 00       		.byte	0
 3337 010d 13       		.uleb128 0x13
 3338 010e 05       		.uleb128 0x5
 3339 010f 00       		.byte	0
 3340 0110 03       		.uleb128 0x3
 3341 0111 0E       		.uleb128 0xe
 3342 0112 3A       		.uleb128 0x3a
 3343 0113 0B       		.uleb128 0xb
 3344 0114 3B       		.uleb128 0x3b
GAS LISTING C:\Users\jisu8\AppData\Local\Temp\ccwGfk1w.s 			page 72


 3345 0115 05       		.uleb128 0x5
 3346 0116 39       		.uleb128 0x39
 3347 0117 0B       		.uleb128 0xb
 3348 0118 49       		.uleb128 0x49
 3349 0119 13       		.uleb128 0x13
 3350 011a 02       		.uleb128 0x2
 3351 011b 0A       		.uleb128 0xa
 3352 011c 00       		.byte	0
 3353 011d 00       		.byte	0
 3354 011e 14       		.uleb128 0x14
 3355 011f 34       		.uleb128 0x34
 3356 0120 00       		.byte	0
 3357 0121 03       		.uleb128 0x3
 3358 0122 08       		.uleb128 0x8
 3359 0123 3A       		.uleb128 0x3a
 3360 0124 0B       		.uleb128 0xb
 3361 0125 3B       		.uleb128 0x3b
 3362 0126 05       		.uleb128 0x5
 3363 0127 39       		.uleb128 0x39
 3364 0128 0B       		.uleb128 0xb
 3365 0129 49       		.uleb128 0x49
 3366 012a 13       		.uleb128 0x13
 3367 012b 02       		.uleb128 0x2
 3368 012c 0A       		.uleb128 0xa
 3369 012d 00       		.byte	0
 3370 012e 00       		.byte	0
 3371 012f 15       		.uleb128 0x15
 3372 0130 0F       		.uleb128 0xf
 3373 0131 00       		.byte	0
 3374 0132 0B       		.uleb128 0xb
 3375 0133 0B       		.uleb128 0xb
 3376 0134 49       		.uleb128 0x49
 3377 0135 13       		.uleb128 0x13
 3378 0136 00       		.byte	0
 3379 0137 00       		.byte	0
 3380 0138 16       		.uleb128 0x16
 3381 0139 2E       		.uleb128 0x2e
 3382 013a 01       		.byte	0x1
 3383 013b 03       		.uleb128 0x3
 3384 013c 08       		.uleb128 0x8
 3385 013d 3A       		.uleb128 0x3a
 3386 013e 0B       		.uleb128 0xb
 3387 013f 3B       		.uleb128 0x3b
 3388 0140 0B       		.uleb128 0xb
 3389 0141 39       		.uleb128 0x39
 3390 0142 0B       		.uleb128 0xb
 3391 0143 27       		.uleb128 0x27
 3392 0144 0C       		.uleb128 0xc
 3393 0145 49       		.uleb128 0x49
 3394 0146 13       		.uleb128 0x13
 3395 0147 11       		.uleb128 0x11
 3396 0148 01       		.uleb128 0x1
 3397 0149 12       		.uleb128 0x12
 3398 014a 01       		.uleb128 0x1
 3399 014b 40       		.uleb128 0x40
 3400 014c 06       		.uleb128 0x6
 3401 014d 9642     		.uleb128 0x2116
GAS LISTING C:\Users\jisu8\AppData\Local\Temp\ccwGfk1w.s 			page 73


 3402 014f 0C       		.uleb128 0xc
 3403 0150 01       		.uleb128 0x1
 3404 0151 13       		.uleb128 0x13
 3405 0152 00       		.byte	0
 3406 0153 00       		.byte	0
 3407 0154 17       		.uleb128 0x17
 3408 0155 05       		.uleb128 0x5
 3409 0156 00       		.byte	0
 3410 0157 03       		.uleb128 0x3
 3411 0158 0E       		.uleb128 0xe
 3412 0159 3A       		.uleb128 0x3a
 3413 015a 0B       		.uleb128 0xb
 3414 015b 3B       		.uleb128 0x3b
 3415 015c 0B       		.uleb128 0xb
 3416 015d 39       		.uleb128 0x39
 3417 015e 0B       		.uleb128 0xb
 3418 015f 49       		.uleb128 0x49
 3419 0160 13       		.uleb128 0x13
 3420 0161 02       		.uleb128 0x2
 3421 0162 0A       		.uleb128 0xa
 3422 0163 00       		.byte	0
 3423 0164 00       		.byte	0
 3424 0165 18       		.uleb128 0x18
 3425 0166 05       		.uleb128 0x5
 3426 0167 00       		.byte	0
 3427 0168 03       		.uleb128 0x3
 3428 0169 08       		.uleb128 0x8
 3429 016a 3A       		.uleb128 0x3a
 3430 016b 0B       		.uleb128 0xb
 3431 016c 3B       		.uleb128 0x3b
 3432 016d 0B       		.uleb128 0xb
 3433 016e 39       		.uleb128 0x39
 3434 016f 0B       		.uleb128 0xb
 3435 0170 49       		.uleb128 0x49
 3436 0171 13       		.uleb128 0x13
 3437 0172 02       		.uleb128 0x2
 3438 0173 0A       		.uleb128 0xa
 3439 0174 00       		.byte	0
 3440 0175 00       		.byte	0
 3441 0176 19       		.uleb128 0x19
 3442 0177 34       		.uleb128 0x34
 3443 0178 00       		.byte	0
 3444 0179 03       		.uleb128 0x3
 3445 017a 0E       		.uleb128 0xe
 3446 017b 3A       		.uleb128 0x3a
 3447 017c 0B       		.uleb128 0xb
 3448 017d 3B       		.uleb128 0x3b
 3449 017e 0B       		.uleb128 0xb
 3450 017f 39       		.uleb128 0x39
 3451 0180 0B       		.uleb128 0xb
 3452 0181 49       		.uleb128 0x49
 3453 0182 13       		.uleb128 0x13
 3454 0183 02       		.uleb128 0x2
 3455 0184 0A       		.uleb128 0xa
 3456 0185 00       		.byte	0
 3457 0186 00       		.byte	0
 3458 0187 1A       		.uleb128 0x1a
GAS LISTING C:\Users\jisu8\AppData\Local\Temp\ccwGfk1w.s 			page 74


 3459 0188 0B       		.uleb128 0xb
 3460 0189 01       		.byte	0x1
 3461 018a 11       		.uleb128 0x11
 3462 018b 01       		.uleb128 0x1
 3463 018c 12       		.uleb128 0x12
 3464 018d 01       		.uleb128 0x1
 3465 018e 00       		.byte	0
 3466 018f 00       		.byte	0
 3467 0190 1B       		.uleb128 0x1b
 3468 0191 2E       		.uleb128 0x2e
 3469 0192 01       		.byte	0x1
 3470 0193 03       		.uleb128 0x3
 3471 0194 08       		.uleb128 0x8
 3472 0195 3A       		.uleb128 0x3a
 3473 0196 0B       		.uleb128 0xb
 3474 0197 3B       		.uleb128 0x3b
 3475 0198 0B       		.uleb128 0xb
 3476 0199 39       		.uleb128 0x39
 3477 019a 0B       		.uleb128 0xb
 3478 019b 27       		.uleb128 0x27
 3479 019c 0C       		.uleb128 0xc
 3480 019d 11       		.uleb128 0x11
 3481 019e 01       		.uleb128 0x1
 3482 019f 12       		.uleb128 0x12
 3483 01a0 01       		.uleb128 0x1
 3484 01a1 40       		.uleb128 0x40
 3485 01a2 06       		.uleb128 0x6
 3486 01a3 9642     		.uleb128 0x2116
 3487 01a5 0C       		.uleb128 0xc
 3488 01a6 01       		.uleb128 0x1
 3489 01a7 13       		.uleb128 0x13
 3490 01a8 00       		.byte	0
 3491 01a9 00       		.byte	0
 3492 01aa 1C       		.uleb128 0x1c
 3493 01ab 2E       		.uleb128 0x2e
 3494 01ac 01       		.byte	0x1
 3495 01ad 03       		.uleb128 0x3
 3496 01ae 08       		.uleb128 0x8
 3497 01af 3A       		.uleb128 0x3a
 3498 01b0 0B       		.uleb128 0xb
 3499 01b1 3B       		.uleb128 0x3b
 3500 01b2 0B       		.uleb128 0xb
 3501 01b3 39       		.uleb128 0x39
 3502 01b4 0B       		.uleb128 0xb
 3503 01b5 27       		.uleb128 0x27
 3504 01b6 0C       		.uleb128 0xc
 3505 01b7 49       		.uleb128 0x49
 3506 01b8 13       		.uleb128 0x13
 3507 01b9 11       		.uleb128 0x11
 3508 01ba 01       		.uleb128 0x1
 3509 01bb 12       		.uleb128 0x12
 3510 01bc 01       		.uleb128 0x1
 3511 01bd 40       		.uleb128 0x40
 3512 01be 06       		.uleb128 0x6
 3513 01bf 9742     		.uleb128 0x2117
 3514 01c1 0C       		.uleb128 0xc
 3515 01c2 01       		.uleb128 0x1
GAS LISTING C:\Users\jisu8\AppData\Local\Temp\ccwGfk1w.s 			page 75


 3516 01c3 13       		.uleb128 0x13
 3517 01c4 00       		.byte	0
 3518 01c5 00       		.byte	0
 3519 01c6 1D       		.uleb128 0x1d
 3520 01c7 2E       		.uleb128 0x2e
 3521 01c8 01       		.byte	0x1
 3522 01c9 3F       		.uleb128 0x3f
 3523 01ca 0C       		.uleb128 0xc
 3524 01cb 03       		.uleb128 0x3
 3525 01cc 08       		.uleb128 0x8
 3526 01cd 3A       		.uleb128 0x3a
 3527 01ce 0B       		.uleb128 0xb
 3528 01cf 3B       		.uleb128 0x3b
 3529 01d0 0B       		.uleb128 0xb
 3530 01d1 39       		.uleb128 0x39
 3531 01d2 0B       		.uleb128 0xb
 3532 01d3 27       		.uleb128 0x27
 3533 01d4 0C       		.uleb128 0xc
 3534 01d5 11       		.uleb128 0x11
 3535 01d6 01       		.uleb128 0x1
 3536 01d7 12       		.uleb128 0x12
 3537 01d8 01       		.uleb128 0x1
 3538 01d9 40       		.uleb128 0x40
 3539 01da 06       		.uleb128 0x6
 3540 01db 9742     		.uleb128 0x2117
 3541 01dd 0C       		.uleb128 0xc
 3542 01de 01       		.uleb128 0x1
 3543 01df 13       		.uleb128 0x13
 3544 01e0 00       		.byte	0
 3545 01e1 00       		.byte	0
 3546 01e2 00       		.byte	0
 3547              		.section	.debug_loc,"dr"
 3548              	Ldebug_loc0:
 3549              	LLST10:
 3550 0000 620B0000 		.long	LFB11-Ltext0
 3551 0004 630B0000 		.long	LCFI30-Ltext0
 3552 0008 0200     		.word	0x2
 3553 000a 74       		.byte	0x74
 3554 000b 04       		.sleb128 4
 3555 000c 630B0000 		.long	LCFI30-Ltext0
 3556 0010 650B0000 		.long	LCFI31-Ltext0
 3557 0014 0200     		.word	0x2
 3558 0016 74       		.byte	0x74
 3559 0017 08       		.sleb128 8
 3560 0018 650B0000 		.long	LCFI31-Ltext0
 3561 001c FD0B0000 		.long	LCFI32-Ltext0
 3562 0020 0200     		.word	0x2
 3563 0022 75       		.byte	0x75
 3564 0023 08       		.sleb128 8
 3565 0024 FD0B0000 		.long	LCFI32-Ltext0
 3566 0028 FE0B0000 		.long	LFE11-Ltext0
 3567 002c 0200     		.word	0x2
 3568 002e 74       		.byte	0x74
 3569 002f 04       		.sleb128 4
 3570 0030 00000000 		.long	0
 3571 0034 00000000 		.long	0
 3572              	LLST9:
GAS LISTING C:\Users\jisu8\AppData\Local\Temp\ccwGfk1w.s 			page 76


 3573 0038 FD090000 		.long	LFB10-Ltext0
 3574 003c FE090000 		.long	LCFI27-Ltext0
 3575 0040 0200     		.word	0x2
 3576 0042 74       		.byte	0x74
 3577 0043 04       		.sleb128 4
 3578 0044 FE090000 		.long	LCFI27-Ltext0
 3579 0048 000A0000 		.long	LCFI28-Ltext0
 3580 004c 0200     		.word	0x2
 3581 004e 74       		.byte	0x74
 3582 004f 08       		.sleb128 8
 3583 0050 000A0000 		.long	LCFI28-Ltext0
 3584 0054 610B0000 		.long	LCFI29-Ltext0
 3585 0058 0200     		.word	0x2
 3586 005a 75       		.byte	0x75
 3587 005b 08       		.sleb128 8
 3588 005c 610B0000 		.long	LCFI29-Ltext0
 3589 0060 620B0000 		.long	LFE10-Ltext0
 3590 0064 0200     		.word	0x2
 3591 0066 74       		.byte	0x74
 3592 0067 04       		.sleb128 4
 3593 0068 00000000 		.long	0
 3594 006c 00000000 		.long	0
 3595              	LLST8:
 3596 0070 EA060000 		.long	LFB9-Ltext0
 3597 0074 EB060000 		.long	LCFI24-Ltext0
 3598 0078 0200     		.word	0x2
 3599 007a 74       		.byte	0x74
 3600 007b 04       		.sleb128 4
 3601 007c EB060000 		.long	LCFI24-Ltext0
 3602 0080 ED060000 		.long	LCFI25-Ltext0
 3603 0084 0200     		.word	0x2
 3604 0086 74       		.byte	0x74
 3605 0087 08       		.sleb128 8
 3606 0088 ED060000 		.long	LCFI25-Ltext0
 3607 008c FC090000 		.long	LCFI26-Ltext0
 3608 0090 0200     		.word	0x2
 3609 0092 75       		.byte	0x75
 3610 0093 08       		.sleb128 8
 3611 0094 FC090000 		.long	LCFI26-Ltext0
 3612 0098 FD090000 		.long	LFE9-Ltext0
 3613 009c 0200     		.word	0x2
 3614 009e 74       		.byte	0x74
 3615 009f 04       		.sleb128 4
 3616 00a0 00000000 		.long	0
 3617 00a4 00000000 		.long	0
 3618              	LLST7:
 3619 00a8 66060000 		.long	LFB8-Ltext0
 3620 00ac 67060000 		.long	LCFI21-Ltext0
 3621 00b0 0200     		.word	0x2
 3622 00b2 74       		.byte	0x74
 3623 00b3 04       		.sleb128 4
 3624 00b4 67060000 		.long	LCFI21-Ltext0
 3625 00b8 69060000 		.long	LCFI22-Ltext0
 3626 00bc 0200     		.word	0x2
 3627 00be 74       		.byte	0x74
 3628 00bf 08       		.sleb128 8
 3629 00c0 69060000 		.long	LCFI22-Ltext0
GAS LISTING C:\Users\jisu8\AppData\Local\Temp\ccwGfk1w.s 			page 77


 3630 00c4 E9060000 		.long	LCFI23-Ltext0
 3631 00c8 0200     		.word	0x2
 3632 00ca 75       		.byte	0x75
 3633 00cb 08       		.sleb128 8
 3634 00cc E9060000 		.long	LCFI23-Ltext0
 3635 00d0 EA060000 		.long	LFE8-Ltext0
 3636 00d4 0200     		.word	0x2
 3637 00d6 74       		.byte	0x74
 3638 00d7 04       		.sleb128 4
 3639 00d8 00000000 		.long	0
 3640 00dc 00000000 		.long	0
 3641              	LLST6:
 3642 00e0 09060000 		.long	LFB7-Ltext0
 3643 00e4 0A060000 		.long	LCFI18-Ltext0
 3644 00e8 0200     		.word	0x2
 3645 00ea 74       		.byte	0x74
 3646 00eb 04       		.sleb128 4
 3647 00ec 0A060000 		.long	LCFI18-Ltext0
 3648 00f0 0C060000 		.long	LCFI19-Ltext0
 3649 00f4 0200     		.word	0x2
 3650 00f6 74       		.byte	0x74
 3651 00f7 08       		.sleb128 8
 3652 00f8 0C060000 		.long	LCFI19-Ltext0
 3653 00fc 65060000 		.long	LCFI20-Ltext0
 3654 0100 0200     		.word	0x2
 3655 0102 75       		.byte	0x75
 3656 0103 08       		.sleb128 8
 3657 0104 65060000 		.long	LCFI20-Ltext0
 3658 0108 66060000 		.long	LFE7-Ltext0
 3659 010c 0200     		.word	0x2
 3660 010e 74       		.byte	0x74
 3661 010f 04       		.sleb128 4
 3662 0110 00000000 		.long	0
 3663 0114 00000000 		.long	0
 3664              	LLST5:
 3665 0118 68040000 		.long	LFB6-Ltext0
 3666 011c 69040000 		.long	LCFI15-Ltext0
 3667 0120 0200     		.word	0x2
 3668 0122 74       		.byte	0x74
 3669 0123 04       		.sleb128 4
 3670 0124 69040000 		.long	LCFI15-Ltext0
 3671 0128 6B040000 		.long	LCFI16-Ltext0
 3672 012c 0200     		.word	0x2
 3673 012e 74       		.byte	0x74
 3674 012f 08       		.sleb128 8
 3675 0130 6B040000 		.long	LCFI16-Ltext0
 3676 0134 08060000 		.long	LCFI17-Ltext0
 3677 0138 0200     		.word	0x2
 3678 013a 75       		.byte	0x75
 3679 013b 08       		.sleb128 8
 3680 013c 08060000 		.long	LCFI17-Ltext0
 3681 0140 09060000 		.long	LFE6-Ltext0
 3682 0144 0200     		.word	0x2
 3683 0146 74       		.byte	0x74
 3684 0147 04       		.sleb128 4
 3685 0148 00000000 		.long	0
 3686 014c 00000000 		.long	0
GAS LISTING C:\Users\jisu8\AppData\Local\Temp\ccwGfk1w.s 			page 78


 3687              	LLST4:
 3688 0150 EA020000 		.long	LFB5-Ltext0
 3689 0154 EB020000 		.long	LCFI12-Ltext0
 3690 0158 0200     		.word	0x2
 3691 015a 74       		.byte	0x74
 3692 015b 04       		.sleb128 4
 3693 015c EB020000 		.long	LCFI12-Ltext0
 3694 0160 ED020000 		.long	LCFI13-Ltext0
 3695 0164 0200     		.word	0x2
 3696 0166 74       		.byte	0x74
 3697 0167 08       		.sleb128 8
 3698 0168 ED020000 		.long	LCFI13-Ltext0
 3699 016c 67040000 		.long	LCFI14-Ltext0
 3700 0170 0200     		.word	0x2
 3701 0172 75       		.byte	0x75
 3702 0173 08       		.sleb128 8
 3703 0174 67040000 		.long	LCFI14-Ltext0
 3704 0178 68040000 		.long	LFE5-Ltext0
 3705 017c 0200     		.word	0x2
 3706 017e 74       		.byte	0x74
 3707 017f 04       		.sleb128 4
 3708 0180 00000000 		.long	0
 3709 0184 00000000 		.long	0
 3710              	LLST3:
 3711 0188 50020000 		.long	LFB4-Ltext0
 3712 018c 51020000 		.long	LCFI9-Ltext0
 3713 0190 0200     		.word	0x2
 3714 0192 74       		.byte	0x74
 3715 0193 04       		.sleb128 4
 3716 0194 51020000 		.long	LCFI9-Ltext0
 3717 0198 53020000 		.long	LCFI10-Ltext0
 3718 019c 0200     		.word	0x2
 3719 019e 74       		.byte	0x74
 3720 019f 08       		.sleb128 8
 3721 01a0 53020000 		.long	LCFI10-Ltext0
 3722 01a4 E9020000 		.long	LCFI11-Ltext0
 3723 01a8 0200     		.word	0x2
 3724 01aa 75       		.byte	0x75
 3725 01ab 08       		.sleb128 8
 3726 01ac E9020000 		.long	LCFI11-Ltext0
 3727 01b0 EA020000 		.long	LFE4-Ltext0
 3728 01b4 0200     		.word	0x2
 3729 01b6 74       		.byte	0x74
 3730 01b7 04       		.sleb128 4
 3731 01b8 00000000 		.long	0
 3732 01bc 00000000 		.long	0
 3733              	LLST2:
 3734 01c0 67000000 		.long	LFB3-Ltext0
 3735 01c4 68000000 		.long	LCFI6-Ltext0
 3736 01c8 0200     		.word	0x2
 3737 01ca 74       		.byte	0x74
 3738 01cb 04       		.sleb128 4
 3739 01cc 68000000 		.long	LCFI6-Ltext0
 3740 01d0 6A000000 		.long	LCFI7-Ltext0
 3741 01d4 0200     		.word	0x2
 3742 01d6 74       		.byte	0x74
 3743 01d7 08       		.sleb128 8
GAS LISTING C:\Users\jisu8\AppData\Local\Temp\ccwGfk1w.s 			page 79


 3744 01d8 6A000000 		.long	LCFI7-Ltext0
 3745 01dc 4F020000 		.long	LCFI8-Ltext0
 3746 01e0 0200     		.word	0x2
 3747 01e2 75       		.byte	0x75
 3748 01e3 08       		.sleb128 8
 3749 01e4 4F020000 		.long	LCFI8-Ltext0
 3750 01e8 50020000 		.long	LFE3-Ltext0
 3751 01ec 0200     		.word	0x2
 3752 01ee 74       		.byte	0x74
 3753 01ef 04       		.sleb128 4
 3754 01f0 00000000 		.long	0
 3755 01f4 00000000 		.long	0
 3756              	LLST1:
 3757 01f8 42000000 		.long	LFB2-Ltext0
 3758 01fc 43000000 		.long	LCFI3-Ltext0
 3759 0200 0200     		.word	0x2
 3760 0202 74       		.byte	0x74
 3761 0203 04       		.sleb128 4
 3762 0204 43000000 		.long	LCFI3-Ltext0
 3763 0208 45000000 		.long	LCFI4-Ltext0
 3764 020c 0200     		.word	0x2
 3765 020e 74       		.byte	0x74
 3766 020f 08       		.sleb128 8
 3767 0210 45000000 		.long	LCFI4-Ltext0
 3768 0214 66000000 		.long	LCFI5-Ltext0
 3769 0218 0200     		.word	0x2
 3770 021a 75       		.byte	0x75
 3771 021b 08       		.sleb128 8
 3772 021c 66000000 		.long	LCFI5-Ltext0
 3773 0220 67000000 		.long	LFE2-Ltext0
 3774 0224 0200     		.word	0x2
 3775 0226 74       		.byte	0x74
 3776 0227 04       		.sleb128 4
 3777 0228 00000000 		.long	0
 3778 022c 00000000 		.long	0
 3779              	LLST0:
 3780 0230 00000000 		.long	LFB1-Ltext0
 3781 0234 01000000 		.long	LCFI0-Ltext0
 3782 0238 0200     		.word	0x2
 3783 023a 74       		.byte	0x74
 3784 023b 04       		.sleb128 4
 3785 023c 01000000 		.long	LCFI0-Ltext0
 3786 0240 03000000 		.long	LCFI1-Ltext0
 3787 0244 0200     		.word	0x2
 3788 0246 74       		.byte	0x74
 3789 0247 08       		.sleb128 8
 3790 0248 03000000 		.long	LCFI1-Ltext0
 3791 024c 41000000 		.long	LCFI2-Ltext0
 3792 0250 0200     		.word	0x2
 3793 0252 75       		.byte	0x75
 3794 0253 08       		.sleb128 8
 3795 0254 41000000 		.long	LCFI2-Ltext0
 3796 0258 42000000 		.long	LFE1-Ltext0
 3797 025c 0200     		.word	0x2
 3798 025e 74       		.byte	0x74
 3799 025f 04       		.sleb128 4
 3800 0260 00000000 		.long	0
GAS LISTING C:\Users\jisu8\AppData\Local\Temp\ccwGfk1w.s 			page 80


 3801 0264 00000000 		.long	0
 3802              		.section	.debug_aranges,"dr"
 3803 0000 1C000000 		.long	0x1c
 3804 0004 0200     		.word	0x2
 3805 0006 00000000 		.secrel32	Ldebug_info0
 3806 000a 04       		.byte	0x4
 3807 000b 00       		.byte	0
 3808 000c 0000     		.word	0
 3809 000e 0000     		.word	0
 3810 0010 00000000 		.long	Ltext0
 3811 0014 FE0B0000 		.long	Letext0-Ltext0
 3812 0018 00000000 		.long	0
 3813 001c 00000000 		.long	0
 3814              		.section	.debug_line,"dr"
 3815              	Ldebug_line0:
 3816 0000 7B060000 		.section	.debug_str,"dr"
 3816      02003901 
 3816      00000101 
 3816      FB0E0D00 
 3816      01010101 
 3817              	LASF9:
 3818 0000 636F6465 		.ascii "codeword\0"
 3818      776F7264 
 3818      00
 3819              	LASF3:
 3820 0009 73697A65 		.ascii "size\0"
 3820      00
 3821              	LASF8:
 3822 000e 636F6465 		.ascii "codewordsRow\0"
 3822      776F7264 
 3822      73526F77 
 3822      00
 3823              	LASF12:
 3824 001b 6C617374 		.ascii "lastColumn\0"
 3824      436F6C75 
 3824      6D6E00
 3825              	LASF0:
 3826 0026 6D5F6861 		.ascii "m_hasValue\0"
 3826      7356616C 
 3826      756500
 3827              	LASF2:
 3828 0031 5F626F75 		.ascii "_boundingBox\0"
 3828      6E64696E 
 3828      67426F78 
 3828      00
 3829              	LASF7:
 3830 003e 636F6465 		.ascii "codewords\0"
 3830      776F7264 
 3830      7300
 3831              	LASF4:
 3832 0048 64657465 		.ascii "detectionResultColumns\0"
 3832      6374696F 
 3832      6E526573 
 3832      756C7443 
 3832      6F6C756D 
 3833              	LASF6:
 3834 005f 62617263 		.ascii "barcodeColumn\0"
GAS LISTING C:\Users\jisu8\AppData\Local\Temp\ccwGfk1w.s 			page 81


 3834      6F646543 
 3834      6F6C756D 
 3834      6E00
 3835              	LASF14:
 3836 006d 62617263 		.ascii "barcodeMetadata\0"
 3836      6F64654D 
 3836      65746164 
 3836      61746100 
 3837              	LASF11:
 3838 007d 696E7661 		.ascii "invalidRowCounts\0"
 3838      6C696452 
 3838      6F77436F 
 3838      756E7473 
 3838      00
 3839              	LASF5:
 3840 008e 756E6164 		.ascii "unadjustedCount\0"
 3840      6A757374 
 3840      6564436F 
 3840      756E7400 
 3841              	LASF10:
 3842 009e 726F7749 		.ascii "rowIndicatorRowNumber\0"
 3842      6E646963 
 3842      61746F72 
 3842      526F774E 
 3842      756D6265 
 3843              	LASF1:
 3844 00b4 6D5F7661 		.ascii "m_value\0"
 3844      6C756500 
 3845              	LASF13:
 3846 00bc 636F6C75 		.ascii "columnIter\0"
 3846      6D6E4974 
 3846      657200
 3847              		.ident	"GCC: (i686-posix-dwarf-rev0, Built by MinGW-W64 project) 8.1.0"
GAS LISTING C:\Users\jisu8\AppData\Local\Temp\ccwGfk1w.s 			page 82


DEFINED SYMBOLS
                            *ABS*:00000000 PDFDetectionResult.c
C:\Users\jisu8\AppData\Local\Temp\ccwGfk1w.s:6      .rdata:00000000 _ADJUST_ROW_NUMBER_SKIP
C:\Users\jisu8\AppData\Local\Temp\ccwGfk1w.s:11     .text:00000000 _Detection_Result_init
C:\Users\jisu8\AppData\Local\Temp\ccwGfk1w.s:66     .text:00000042 _AdjustIndicatorColumnRowNumbers
C:\Users\jisu8\AppData\Local\Temp\ccwGfk1w.s:101    .text:00000067 _AdjustRowNumbersFromBothRI
C:\Users\jisu8\AppData\Local\Temp\ccwGfk1w.s:354    .text:00000250 _AdjustRowNumberIfValid
C:\Users\jisu8\AppData\Local\Temp\ccwGfk1w.s:455    .text:000002ea _AdjustRowNumbersFromLRI
C:\Users\jisu8\AppData\Local\Temp\ccwGfk1w.s:662    .text:00000468 _AdjustRowNumbersFromRRI
C:\Users\jisu8\AppData\Local\Temp\ccwGfk1w.s:878    .text:00000609 _AdjustRowNumbersByRow
C:\Users\jisu8\AppData\Local\Temp\ccwGfk1w.s:928    .text:00000666 _AdjustRowNumber
C:\Users\jisu8\AppData\Local\Temp\ccwGfk1w.s:1020   .text:000006ea _AdjustRowNumbers_internal
C:\Users\jisu8\AppData\Local\Temp\ccwGfk1w.s:1317   .text:000009fd _AdjustRowNumbers
C:\Users\jisu8\AppData\Local\Temp\ccwGfk1w.s:1509   .text:00000b62 _allColumns

UNDEFINED SYMBOLS
_BARCODE_ROW_UNKNOWN
_MAX_CODEWORDS_IN_BARCODE
_adjustCompleteIndicatorColumnRowNumbers
_allCodewords
_codewordNearby
_memcpy
