GAS LISTING C:\Users\jisu8\AppData\Local\Temp\ccbDR4WJ.s 			page 1


   1              		.file	"PDFDetectionResultColumn.c"
   2              		.text
   3              	Ltext0:
   4              		.section .rdata,"dr"
   5              		.align 4
   6              	_MAX_NEARBY_DISTANCE:
   7 0000 05000000 		.long	5
   8              		.align 4
   9              	_MIN_ROWS_IN_BARCODE:
  10 0004 03000000 		.long	3
  11              		.align 4
  12              	_MAX_ROWS_IN_BARCODE:
  13 0008 5A000000 		.long	90
  14              		.comm	_codewords, 4000, 5
  15              	LC0:
  16 000c 496E7661 		.ascii "Invalid bounding box\0"
  16      6C696420 
  16      626F756E 
  16      64696E67 
  16      20626F78 
  17              		.text
  18              		.globl	_DetectionResultColumn
  20              	_DetectionResultColumn:
  21              	LFB16:
  22              		.file 1 "src/pdf417/PDFDetectionResultColumn.c"
   1:src/pdf417/PDFDetectionResultColumn.c **** /*
   2:src/pdf417/PDFDetectionResultColumn.c **** * Copyright 2016 Nu-book Inc.
   3:src/pdf417/PDFDetectionResultColumn.c **** * Copyright 2016 ZXing authors
   4:src/pdf417/PDFDetectionResultColumn.c **** *
   5:src/pdf417/PDFDetectionResultColumn.c **** * Licensed under the Apache License, Version 2.0 (the "License");
   6:src/pdf417/PDFDetectionResultColumn.c **** * you may not use this file except in compliance with the License.
   7:src/pdf417/PDFDetectionResultColumn.c **** * You may obtain a copy of the License at
   8:src/pdf417/PDFDetectionResultColumn.c **** *
   9:src/pdf417/PDFDetectionResultColumn.c **** *      http://www.apache.org/licenses/LICENSE-2.0
  10:src/pdf417/PDFDetectionResultColumn.c **** *
  11:src/pdf417/PDFDetectionResultColumn.c **** * Unless required by applicable law or agreed to in writing, software
  12:src/pdf417/PDFDetectionResultColumn.c **** * distributed under the License is distributed on an "AS IS" BASIS,
  13:src/pdf417/PDFDetectionResultColumn.c **** * WITHOUT WARRANTIES OR CONDITIONS OF ANY KIND, either express or implied.
  14:src/pdf417/PDFDetectionResultColumn.c **** * See the License for the specific language governing permissions and
  15:src/pdf417/PDFDetectionResultColumn.c **** * limitations under the License.
  16:src/pdf417/PDFDetectionResultColumn.c **** */
  17:src/pdf417/PDFDetectionResultColumn.c **** 
  18:src/pdf417/PDFDetectionResultColumn.c **** #include "PDFBarcodeMetadata.h"
  19:src/pdf417/PDFDetectionResultColumn.c **** #include "PDFBarcodeValue.h"
  20:src/pdf417/PDFDetectionResultColumn.c **** #include "PDFScanningDecoder.h"
  21:src/pdf417/PDFDetectionResultColumn.c **** #include <stdlib.h>
  22:src/pdf417/PDFDetectionResultColumn.c **** #include <stdio.h>
  23:src/pdf417/PDFDetectionResultColumn.c **** #include "Library.h"
  24:src/pdf417/PDFDetectionResultColumn.c **** 
  25:src/pdf417/PDFDetectionResultColumn.c **** static const int MAX_NEARBY_DISTANCE = 5;
  26:src/pdf417/PDFDetectionResultColumn.c **** static const int MIN_ROWS_IN_BARCODE = 3;
  27:src/pdf417/PDFDetectionResultColumn.c **** static const int MAX_ROWS_IN_BARCODE = 90;
  28:src/pdf417/PDFDetectionResultColumn.c **** 
  29:src/pdf417/PDFDetectionResultColumn.c **** int codewords[1000];
  30:src/pdf417/PDFDetectionResultColumn.c **** 
  31:src/pdf417/PDFDetectionResultColumn.c **** void DetectionResultColumn(const BoundingBox_t * boundingBox, RowIndicator_t rowInd, DetectionResul
  32:src/pdf417/PDFDetectionResultColumn.c **** {
GAS LISTING C:\Users\jisu8\AppData\Local\Temp\ccbDR4WJ.s 			page 2


  23              		.loc 1 32 1
  24              		.cfi_startproc
  25 0000 55       		pushl	%ebp
  26              	LCFI0:
  27              		.cfi_def_cfa_offset 8
  28              		.cfi_offset 5, -8
  29 0001 89E5     		movl	%esp, %ebp
  30              	LCFI1:
  31              		.cfi_def_cfa_register 5
  32 0003 83EC18   		subl	$24, %esp
  33:src/pdf417/PDFDetectionResultColumn.c **** 	RowIndicatorColumn->m_value._boundingBox.m_hasValue = 1;
  33              		.loc 1 33 54
  34 0006 8B4510   		movl	16(%ebp), %eax
  35 0009 C6400401 		movb	$1, 4(%eax)
  34:src/pdf417/PDFDetectionResultColumn.c **** 	RowIndicatorColumn->m_value._boundingBox.m_value._imgWidth = boundingBox->m_value._imgWidth;
  36              		.loc 1 34 83
  37 000d 8B4508   		movl	8(%ebp), %eax
  38 0010 8B5004   		movl	4(%eax), %edx
  39              		.loc 1 34 61
  40 0013 8B4510   		movl	16(%ebp), %eax
  41 0016 895008   		movl	%edx, 8(%eax)
  35:src/pdf417/PDFDetectionResultColumn.c **** 	RowIndicatorColumn->m_value._boundingBox.m_value._imgHeight = boundingBox->m_value._imgHeight;
  42              		.loc 1 35 84
  43 0019 8B4508   		movl	8(%ebp), %eax
  44 001c 8B5008   		movl	8(%eax), %edx
  45              		.loc 1 35 62
  46 001f 8B4510   		movl	16(%ebp), %eax
  47 0022 89500C   		movl	%edx, 12(%eax)
  36:src/pdf417/PDFDetectionResultColumn.c **** 	RowIndicatorColumn->m_value._boundingBox.m_value._topLeft = boundingBox->m_value._topLeft;
  48              		.loc 1 36 60
  49 0025 8B4510   		movl	16(%ebp), %eax
  50 0028 8B5508   		movl	8(%ebp), %edx
  51 002b 8B4A0C   		movl	12(%edx), %ecx
  52 002e 894810   		movl	%ecx, 16(%eax)
  53 0031 8B4A10   		movl	16(%edx), %ecx
  54 0034 894814   		movl	%ecx, 20(%eax)
  55 0037 8B5214   		movl	20(%edx), %edx
  56 003a 895018   		movl	%edx, 24(%eax)
  37:src/pdf417/PDFDetectionResultColumn.c **** 	RowIndicatorColumn->m_value._boundingBox.m_value._bottomLeft = boundingBox->m_value._bottomLeft;
  57              		.loc 1 37 63
  58 003d 8B4510   		movl	16(%ebp), %eax
  59 0040 8B5508   		movl	8(%ebp), %edx
  60 0043 8B4A18   		movl	24(%edx), %ecx
  61 0046 89481C   		movl	%ecx, 28(%eax)
  62 0049 8B4A1C   		movl	28(%edx), %ecx
  63 004c 894820   		movl	%ecx, 32(%eax)
  64 004f 8B5220   		movl	32(%edx), %edx
  65 0052 895024   		movl	%edx, 36(%eax)
  38:src/pdf417/PDFDetectionResultColumn.c **** 	RowIndicatorColumn->m_value._boundingBox.m_value._topRight = boundingBox->m_value._topRight;
  66              		.loc 1 38 61
  67 0055 8B4510   		movl	16(%ebp), %eax
  68 0058 8B5508   		movl	8(%ebp), %edx
  69 005b 8B4A24   		movl	36(%edx), %ecx
  70 005e 894828   		movl	%ecx, 40(%eax)
  71 0061 8B4A28   		movl	40(%edx), %ecx
  72 0064 89482C   		movl	%ecx, 44(%eax)
  73 0067 8B522C   		movl	44(%edx), %edx
GAS LISTING C:\Users\jisu8\AppData\Local\Temp\ccbDR4WJ.s 			page 3


  74 006a 895030   		movl	%edx, 48(%eax)
  39:src/pdf417/PDFDetectionResultColumn.c **** 	RowIndicatorColumn->m_value._boundingBox.m_value._bottomRight = boundingBox->m_value._bottomRight;
  75              		.loc 1 39 64
  76 006d 8B4510   		movl	16(%ebp), %eax
  77 0070 8B5508   		movl	8(%ebp), %edx
  78 0073 8B4A30   		movl	48(%edx), %ecx
  79 0076 894834   		movl	%ecx, 52(%eax)
  80 0079 8B4A34   		movl	52(%edx), %ecx
  81 007c 894838   		movl	%ecx, 56(%eax)
  82 007f 8B5238   		movl	56(%edx), %edx
  83 0082 89503C   		movl	%edx, 60(%eax)
  40:src/pdf417/PDFDetectionResultColumn.c **** 	RowIndicatorColumn->m_value._boundingBox.m_value._minX = boundingBox->m_value._minX;
  84              		.loc 1 40 79
  85 0085 8B4508   		movl	8(%ebp), %eax
  86 0088 8B503C   		movl	60(%eax), %edx
  87              		.loc 1 40 57
  88 008b 8B4510   		movl	16(%ebp), %eax
  89 008e 895040   		movl	%edx, 64(%eax)
  41:src/pdf417/PDFDetectionResultColumn.c **** 	RowIndicatorColumn->m_value._boundingBox.m_value._maxX = boundingBox->m_value._maxX;
  90              		.loc 1 41 79
  91 0091 8B4508   		movl	8(%ebp), %eax
  92 0094 8B5040   		movl	64(%eax), %edx
  93              		.loc 1 41 57
  94 0097 8B4510   		movl	16(%ebp), %eax
  95 009a 895044   		movl	%edx, 68(%eax)
  42:src/pdf417/PDFDetectionResultColumn.c **** 	RowIndicatorColumn->m_value._boundingBox.m_value._minY = boundingBox->m_value._minY;
  96              		.loc 1 42 79
  97 009d 8B4508   		movl	8(%ebp), %eax
  98 00a0 8B5044   		movl	68(%eax), %edx
  99              		.loc 1 42 57
 100 00a3 8B4510   		movl	16(%ebp), %eax
 101 00a6 895048   		movl	%edx, 72(%eax)
  43:src/pdf417/PDFDetectionResultColumn.c **** 	RowIndicatorColumn->m_value._boundingBox.m_value._maxY = boundingBox->m_value._maxY;
 102              		.loc 1 43 79
 103 00a9 8B4508   		movl	8(%ebp), %eax
 104 00ac 8B5048   		movl	72(%eax), %edx
 105              		.loc 1 43 57
 106 00af 8B4510   		movl	16(%ebp), %eax
 107 00b2 89504C   		movl	%edx, 76(%eax)
  44:src/pdf417/PDFDetectionResultColumn.c **** 	RowIndicatorColumn->m_value._rowIndicator = rowInd;
 108              		.loc 1 44 44
 109 00b5 8B4510   		movl	16(%ebp), %eax
 110 00b8 8B550C   		movl	12(%ebp), %edx
 111 00bb 8990302F 		movl	%edx, 12080(%eax)
 111      0000
  45:src/pdf417/PDFDetectionResultColumn.c **** 	RowIndicatorColumn->m_hasValue = 1;
 112              		.loc 1 45 33
 113 00c1 8B4510   		movl	16(%ebp), %eax
 114 00c4 C60001   		movb	$1, (%eax)
  46:src/pdf417/PDFDetectionResultColumn.c **** 	
  47:src/pdf417/PDFDetectionResultColumn.c **** 	if (boundingBox->m_value._maxY < boundingBox->m_value._minY) 
 115              		.loc 1 47 26
 116 00c7 8B4508   		movl	8(%ebp), %eax
 117 00ca 8B5048   		movl	72(%eax), %edx
 118              		.loc 1 47 55
 119 00cd 8B4508   		movl	8(%ebp), %eax
 120 00d0 8B4044   		movl	68(%eax), %eax
GAS LISTING C:\Users\jisu8\AppData\Local\Temp\ccbDR4WJ.s 			page 4


 121              		.loc 1 47 5
 122 00d3 39C2     		cmpl	%eax, %edx
 123 00d5 7D0C     		jge	L3
  48:src/pdf417/PDFDetectionResultColumn.c **** 	{
  49:src/pdf417/PDFDetectionResultColumn.c **** 		printf("Invalid bounding box");
 124              		.loc 1 49 3
 125 00d7 C704240C 		movl	$LC0, (%esp)
 125      000000
 126 00de E8000000 		call	_printf
 126      00
 127              	L3:
  50:src/pdf417/PDFDetectionResultColumn.c **** 	}
  51:src/pdf417/PDFDetectionResultColumn.c **** }
 128              		.loc 1 51 1
 129 00e3 90       		nop
 130 00e4 C9       		leave
 131              	LCFI2:
 132              		.cfi_restore 5
 133              		.cfi_def_cfa 4, 4
 134 00e5 C3       		ret
 135              		.cfi_endproc
 136              	LFE16:
 137              		.globl	_allCodewords
 139              	_allCodewords:
 140              	LFB17:
  52:src/pdf417/PDFDetectionResultColumn.c **** 
  53:src/pdf417/PDFDetectionResultColumn.c **** Codeword_t * allCodewords(DetectionResultColumn_t * RowIndicatorColumn) 
  54:src/pdf417/PDFDetectionResultColumn.c **** {
 141              		.loc 1 54 1
 142              		.cfi_startproc
 143 00e6 55       		pushl	%ebp
 144              	LCFI3:
 145              		.cfi_def_cfa_offset 8
 146              		.cfi_offset 5, -8
 147 00e7 89E5     		movl	%esp, %ebp
 148              	LCFI4:
 149              		.cfi_def_cfa_register 5
  55:src/pdf417/PDFDetectionResultColumn.c **** 	return RowIndicatorColumn->m_value._codewords;
 150              		.loc 1 55 9
 151 00e9 8B4508   		movl	8(%ebp), %eax
 152 00ec 83C050   		addl	$80, %eax
  56:src/pdf417/PDFDetectionResultColumn.c **** }
 153              		.loc 1 56 1
 154 00ef 5D       		popl	%ebp
 155              	LCFI5:
 156              		.cfi_restore 5
 157              		.cfi_def_cfa 4, 4
 158 00f0 C3       		ret
 159              		.cfi_endproc
 160              	LFE17:
 161              		.globl	_isRowIndicator
 163              	_isRowIndicator:
 164              	LFB18:
  57:src/pdf417/PDFDetectionResultColumn.c **** uint8_t isRowIndicator(DetectionResultColumn_t * RowIndicatorColumn)
  58:src/pdf417/PDFDetectionResultColumn.c **** {
 165              		.loc 1 58 1
 166              		.cfi_startproc
GAS LISTING C:\Users\jisu8\AppData\Local\Temp\ccbDR4WJ.s 			page 5


 167 00f1 55       		pushl	%ebp
 168              	LCFI6:
 169              		.cfi_def_cfa_offset 8
 170              		.cfi_offset 5, -8
 171 00f2 89E5     		movl	%esp, %ebp
 172              	LCFI7:
 173              		.cfi_def_cfa_register 5
  59:src/pdf417/PDFDetectionResultColumn.c **** 	return RowIndicatorColumn->m_value._rowIndicator != None;
 174              		.loc 1 59 36
 175 00f4 8B4508   		movl	8(%ebp), %eax
 176 00f7 8B80302F 		movl	12080(%eax), %eax
 176      0000
 177              		.loc 1 59 51
 178 00fd 85C0     		testl	%eax, %eax
 179 00ff 0F95C0   		setne	%al
  60:src/pdf417/PDFDetectionResultColumn.c **** }
 180              		.loc 1 60 1
 181 0102 5D       		popl	%ebp
 182              	LCFI8:
 183              		.cfi_restore 5
 184              		.cfi_def_cfa 4, 4
 185 0103 C3       		ret
 186              		.cfi_endproc
 187              	LFE18:
 188              		.globl	_isLeftRowIndicator
 190              	_isLeftRowIndicator:
 191              	LFB19:
  61:src/pdf417/PDFDetectionResultColumn.c **** uint8_t isLeftRowIndicator(DetectionResultColumn_t * RowIndicatorColumn) 
  62:src/pdf417/PDFDetectionResultColumn.c **** {
 192              		.loc 1 62 1
 193              		.cfi_startproc
 194 0104 55       		pushl	%ebp
 195              	LCFI9:
 196              		.cfi_def_cfa_offset 8
 197              		.cfi_offset 5, -8
 198 0105 89E5     		movl	%esp, %ebp
 199              	LCFI10:
 200              		.cfi_def_cfa_register 5
  63:src/pdf417/PDFDetectionResultColumn.c **** 	return RowIndicatorColumn->m_value._rowIndicator == Left;
 201              		.loc 1 63 36
 202 0107 8B4508   		movl	8(%ebp), %eax
 203 010a 8B80302F 		movl	12080(%eax), %eax
 203      0000
 204              		.loc 1 63 51
 205 0110 83F801   		cmpl	$1, %eax
 206 0113 0F94C0   		sete	%al
  64:src/pdf417/PDFDetectionResultColumn.c **** }
 207              		.loc 1 64 1
 208 0116 5D       		popl	%ebp
 209              	LCFI11:
 210              		.cfi_restore 5
 211              		.cfi_def_cfa 4, 4
 212 0117 C3       		ret
 213              		.cfi_endproc
 214              	LFE19:
 215              		.globl	_codewordNearby
 217              	_codewordNearby:
GAS LISTING C:\Users\jisu8\AppData\Local\Temp\ccbDR4WJ.s 			page 6


 218              	LFB20:
  65:src/pdf417/PDFDetectionResultColumn.c **** 
  66:src/pdf417/PDFDetectionResultColumn.c **** Codeword_t codewordNearby(DetectionResultColumn_t * RowIndicatorColumn,int imageRow,int size) 
  67:src/pdf417/PDFDetectionResultColumn.c **** {
 219              		.loc 1 67 1
 220              		.cfi_startproc
 221 0118 55       		pushl	%ebp
 222              	LCFI12:
 223              		.cfi_def_cfa_offset 8
 224              		.cfi_offset 5, -8
 225 0119 89E5     		movl	%esp, %ebp
 226              	LCFI13:
 227              		.cfi_def_cfa_register 5
 228 011b 53       		pushl	%ebx
 229 011c 83EC10   		subl	$16, %esp
 230              		.cfi_offset 3, -12
  68:src/pdf417/PDFDetectionResultColumn.c **** 	int index = imageRow - RowIndicatorColumn->m_value._boundingBox.m_value._minY;
 231              		.loc 1 68 73
 232 011f 8B450C   		movl	12(%ebp), %eax
 233 0122 8B4048   		movl	72(%eax), %eax
 234              		.loc 1 68 6
 235 0125 8B5510   		movl	16(%ebp), %edx
 236 0128 29C2     		subl	%eax, %edx
 237 012a 89D0     		movl	%edx, %eax
 238 012c 8945F4   		movl	%eax, -12(%ebp)
  69:src/pdf417/PDFDetectionResultColumn.c **** 	if (RowIndicatorColumn->m_value._codewords[index].m_hasValue != 0) 
 239              		.loc 1 69 51
 240 012f 8B4D0C   		movl	12(%ebp), %ecx
 241 0132 8B55F4   		movl	-12(%ebp), %edx
 242 0135 89D0     		movl	%edx, %eax
 243 0137 01C0     		addl	%eax, %eax
 244 0139 01D0     		addl	%edx, %eax
 245 013b C1E003   		sall	$3, %eax
 246 013e 01C8     		addl	%ecx, %eax
 247 0140 83C050   		addl	$80, %eax
 248 0143 0FB600   		movzbl	(%eax), %eax
 249              		.loc 1 69 5
 250 0146 84C0     		testb	%al, %al
 251 0148 743F     		je	L11
  70:src/pdf417/PDFDetectionResultColumn.c **** 	{
  71:src/pdf417/PDFDetectionResultColumn.c **** 		return RowIndicatorColumn->m_value._codewords[index];
 252              		.loc 1 71 48
 253 014a 8B5508   		movl	8(%ebp), %edx
 254 014d 8B5D0C   		movl	12(%ebp), %ebx
 255 0150 8B4DF4   		movl	-12(%ebp), %ecx
 256 0153 89C8     		movl	%ecx, %eax
 257 0155 01C0     		addl	%eax, %eax
 258 0157 01C8     		addl	%ecx, %eax
 259 0159 C1E003   		sall	$3, %eax
 260 015c 01D8     		addl	%ebx, %eax
 261 015e 83C040   		addl	$64, %eax
 262 0161 8B4810   		movl	16(%eax), %ecx
 263 0164 890A     		movl	%ecx, (%edx)
 264 0166 8B4814   		movl	20(%eax), %ecx
 265 0169 894A04   		movl	%ecx, 4(%edx)
 266 016c 8B4818   		movl	24(%eax), %ecx
 267 016f 894A08   		movl	%ecx, 8(%edx)
GAS LISTING C:\Users\jisu8\AppData\Local\Temp\ccbDR4WJ.s 			page 7


 268 0172 8B481C   		movl	28(%eax), %ecx
 269 0175 894A0C   		movl	%ecx, 12(%edx)
 270 0178 8B4820   		movl	32(%eax), %ecx
 271 017b 894A10   		movl	%ecx, 16(%edx)
 272 017e 8B4024   		movl	36(%eax), %eax
 273 0181 894214   		movl	%eax, 20(%edx)
 274 0184 E93D0100 		jmp	L10
 274      00
 275              	L11:
 276              	LBB2:
  72:src/pdf417/PDFDetectionResultColumn.c **** 	}
  73:src/pdf417/PDFDetectionResultColumn.c **** 
  74:src/pdf417/PDFDetectionResultColumn.c **** 	for (int i = 1; i < MAX_NEARBY_DISTANCE; i++) 
 277              		.loc 1 74 11
 278 0189 C745F801 		movl	$1, -8(%ebp)
 278      000000
 279              		.loc 1 74 2
 280 0190 E9E90000 		jmp	L13
 280      00
 281              	L16:
 282              	LBB3:
  75:src/pdf417/PDFDetectionResultColumn.c **** 	{
  76:src/pdf417/PDFDetectionResultColumn.c **** 		int nearImageRow = imageRow - RowIndicatorColumn->m_value._boundingBox.m_value._minY - i;
 283              		.loc 1 76 81
 284 0195 8B450C   		movl	12(%ebp), %eax
 285 0198 8B4048   		movl	72(%eax), %eax
 286              		.loc 1 76 31
 287 019b 8B5510   		movl	16(%ebp), %edx
 288 019e 29C2     		subl	%eax, %edx
 289 01a0 89D0     		movl	%edx, %eax
 290              		.loc 1 76 7
 291 01a2 2B45F8   		subl	-8(%ebp), %eax
 292 01a5 8945F0   		movl	%eax, -16(%ebp)
  77:src/pdf417/PDFDetectionResultColumn.c **** 		if (nearImageRow >= 0) 
 293              		.loc 1 77 6
 294 01a8 837DF000 		cmpl	$0, -16(%ebp)
 295 01ac 785A     		js	L14
  78:src/pdf417/PDFDetectionResultColumn.c **** 		{
  79:src/pdf417/PDFDetectionResultColumn.c **** 			if (RowIndicatorColumn->m_value._codewords[nearImageRow].m_hasValue != 0) 
 296              		.loc 1 79 60
 297 01ae 8B4D0C   		movl	12(%ebp), %ecx
 298 01b1 8B55F0   		movl	-16(%ebp), %edx
 299 01b4 89D0     		movl	%edx, %eax
 300 01b6 01C0     		addl	%eax, %eax
 301 01b8 01D0     		addl	%edx, %eax
 302 01ba C1E003   		sall	$3, %eax
 303 01bd 01C8     		addl	%ecx, %eax
 304 01bf 83C050   		addl	$80, %eax
 305 01c2 0FB600   		movzbl	(%eax), %eax
 306              		.loc 1 79 7
 307 01c5 84C0     		testb	%al, %al
 308 01c7 743F     		je	L14
  80:src/pdf417/PDFDetectionResultColumn.c **** 			{
  81:src/pdf417/PDFDetectionResultColumn.c **** 				return RowIndicatorColumn->m_value._codewords[nearImageRow];
 309              		.loc 1 81 50
 310 01c9 8B5508   		movl	8(%ebp), %edx
 311 01cc 8B5D0C   		movl	12(%ebp), %ebx
GAS LISTING C:\Users\jisu8\AppData\Local\Temp\ccbDR4WJ.s 			page 8


 312 01cf 8B4DF0   		movl	-16(%ebp), %ecx
 313 01d2 89C8     		movl	%ecx, %eax
 314 01d4 01C0     		addl	%eax, %eax
 315 01d6 01C8     		addl	%ecx, %eax
 316 01d8 C1E003   		sall	$3, %eax
 317 01db 01D8     		addl	%ebx, %eax
 318 01dd 83C040   		addl	$64, %eax
 319 01e0 8B4810   		movl	16(%eax), %ecx
 320 01e3 890A     		movl	%ecx, (%edx)
 321 01e5 8B4814   		movl	20(%eax), %ecx
 322 01e8 894A04   		movl	%ecx, 4(%edx)
 323 01eb 8B4818   		movl	24(%eax), %ecx
 324 01ee 894A08   		movl	%ecx, 8(%edx)
 325 01f1 8B481C   		movl	28(%eax), %ecx
 326 01f4 894A0C   		movl	%ecx, 12(%edx)
 327 01f7 8B4820   		movl	32(%eax), %ecx
 328 01fa 894A10   		movl	%ecx, 16(%edx)
 329 01fd 8B4024   		movl	36(%eax), %eax
 330 0200 894214   		movl	%eax, 20(%edx)
 331 0203 E9BE0000 		jmp	L10
 331      00
 332              	L14:
  82:src/pdf417/PDFDetectionResultColumn.c **** 			}
  83:src/pdf417/PDFDetectionResultColumn.c **** 		}
  84:src/pdf417/PDFDetectionResultColumn.c **** 		nearImageRow = imageRow - RowIndicatorColumn->m_value._boundingBox.m_value._minY + i;
 333              		.loc 1 84 77
 334 0208 8B450C   		movl	12(%ebp), %eax
 335 020b 8B4048   		movl	72(%eax), %eax
 336              		.loc 1 84 27
 337 020e 8B5510   		movl	16(%ebp), %edx
 338 0211 29C2     		subl	%eax, %edx
 339              		.loc 1 84 16
 340 0213 8B45F8   		movl	-8(%ebp), %eax
 341 0216 01D0     		addl	%edx, %eax
 342 0218 8945F0   		movl	%eax, -16(%ebp)
  85:src/pdf417/PDFDetectionResultColumn.c **** 		if (nearImageRow < size) 
 343              		.loc 1 85 6
 344 021b 8B45F0   		movl	-16(%ebp), %eax
 345 021e 3B4514   		cmpl	20(%ebp), %eax
 346 0221 7D57     		jge	L15
  86:src/pdf417/PDFDetectionResultColumn.c **** 		{
  87:src/pdf417/PDFDetectionResultColumn.c **** 			if (RowIndicatorColumn->m_value._codewords[nearImageRow].m_hasValue != 0) 
 347              		.loc 1 87 60
 348 0223 8B4D0C   		movl	12(%ebp), %ecx
 349 0226 8B55F0   		movl	-16(%ebp), %edx
 350 0229 89D0     		movl	%edx, %eax
 351 022b 01C0     		addl	%eax, %eax
 352 022d 01D0     		addl	%edx, %eax
 353 022f C1E003   		sall	$3, %eax
 354 0232 01C8     		addl	%ecx, %eax
 355 0234 83C050   		addl	$80, %eax
 356 0237 0FB600   		movzbl	(%eax), %eax
 357              		.loc 1 87 7
 358 023a 84C0     		testb	%al, %al
 359 023c 743C     		je	L15
  88:src/pdf417/PDFDetectionResultColumn.c **** 			{
  89:src/pdf417/PDFDetectionResultColumn.c **** 				return RowIndicatorColumn->m_value._codewords[nearImageRow];
GAS LISTING C:\Users\jisu8\AppData\Local\Temp\ccbDR4WJ.s 			page 9


 360              		.loc 1 89 50
 361 023e 8B5508   		movl	8(%ebp), %edx
 362 0241 8B5D0C   		movl	12(%ebp), %ebx
 363 0244 8B4DF0   		movl	-16(%ebp), %ecx
 364 0247 89C8     		movl	%ecx, %eax
 365 0249 01C0     		addl	%eax, %eax
 366 024b 01C8     		addl	%ecx, %eax
 367 024d C1E003   		sall	$3, %eax
 368 0250 01D8     		addl	%ebx, %eax
 369 0252 83C040   		addl	$64, %eax
 370 0255 8B4810   		movl	16(%eax), %ecx
 371 0258 890A     		movl	%ecx, (%edx)
 372 025a 8B4814   		movl	20(%eax), %ecx
 373 025d 894A04   		movl	%ecx, 4(%edx)
 374 0260 8B4818   		movl	24(%eax), %ecx
 375 0263 894A08   		movl	%ecx, 8(%edx)
 376 0266 8B481C   		movl	28(%eax), %ecx
 377 0269 894A0C   		movl	%ecx, 12(%edx)
 378 026c 8B4820   		movl	32(%eax), %ecx
 379 026f 894A10   		movl	%ecx, 16(%edx)
 380 0272 8B4024   		movl	36(%eax), %eax
 381 0275 894214   		movl	%eax, 20(%edx)
 382 0278 EB4C     		jmp	L10
 383              	L15:
 384              	LBE3:
  74:src/pdf417/PDFDetectionResultColumn.c **** 	{
 385              		.loc 1 74 44 discriminator 2
 386 027a 8345F801 		addl	$1, -8(%ebp)
 387              	L13:
  74:src/pdf417/PDFDetectionResultColumn.c **** 	{
 388              		.loc 1 74 20 discriminator 1
 389 027e B8050000 		movl	$5, %eax
 389      00
  74:src/pdf417/PDFDetectionResultColumn.c **** 	{
 390              		.loc 1 74 2 discriminator 1
 391 0283 3945F8   		cmpl	%eax, -8(%ebp)
 392 0286 0F8C09FF 		jl	L16
 392      FFFF
 393              	LBE2:
  90:src/pdf417/PDFDetectionResultColumn.c **** 			}
  91:src/pdf417/PDFDetectionResultColumn.c **** 		}
  92:src/pdf417/PDFDetectionResultColumn.c **** 	}
  93:src/pdf417/PDFDetectionResultColumn.c **** 
  94:src/pdf417/PDFDetectionResultColumn.c **** 	return RowIndicatorColumn->m_value._codewords[index];
 394              		.loc 1 94 47
 395 028c 8B5508   		movl	8(%ebp), %edx
 396 028f 8B5D0C   		movl	12(%ebp), %ebx
 397 0292 8B4DF4   		movl	-12(%ebp), %ecx
 398 0295 89C8     		movl	%ecx, %eax
 399 0297 01C0     		addl	%eax, %eax
 400 0299 01C8     		addl	%ecx, %eax
 401 029b C1E003   		sall	$3, %eax
 402 029e 01D8     		addl	%ebx, %eax
 403 02a0 83C040   		addl	$64, %eax
 404 02a3 8B4810   		movl	16(%eax), %ecx
 405 02a6 890A     		movl	%ecx, (%edx)
 406 02a8 8B4814   		movl	20(%eax), %ecx
GAS LISTING C:\Users\jisu8\AppData\Local\Temp\ccbDR4WJ.s 			page 10


 407 02ab 894A04   		movl	%ecx, 4(%edx)
 408 02ae 8B4818   		movl	24(%eax), %ecx
 409 02b1 894A08   		movl	%ecx, 8(%edx)
 410 02b4 8B481C   		movl	28(%eax), %ecx
 411 02b7 894A0C   		movl	%ecx, 12(%edx)
 412 02ba 8B4820   		movl	32(%eax), %ecx
 413 02bd 894A10   		movl	%ecx, 16(%edx)
 414 02c0 8B4024   		movl	36(%eax), %eax
 415 02c3 894214   		movl	%eax, 20(%edx)
 416              	L10:
  95:src/pdf417/PDFDetectionResultColumn.c **** }
 417              		.loc 1 95 1
 418 02c6 8B4508   		movl	8(%ebp), %eax
 419 02c9 83C410   		addl	$16, %esp
 420 02cc 5B       		popl	%ebx
 421              		.cfi_restore 3
 422 02cd 5D       		popl	%ebp
 423              	LCFI14:
 424              		.cfi_restore 5
 425              		.cfi_def_cfa 4, 4
 426 02ce C3       		ret
 427              		.cfi_endproc
 428              	LFE20:
 429              		.globl	_setRowNumbers
 431              	_setRowNumbers:
 432              	LFB21:
  96:src/pdf417/PDFDetectionResultColumn.c **** 
  97:src/pdf417/PDFDetectionResultColumn.c **** void setRowNumbers(Codeword_t * codewords,int size)
  98:src/pdf417/PDFDetectionResultColumn.c **** {
 433              		.loc 1 98 1
 434              		.cfi_startproc
 435 02cf 55       		pushl	%ebp
 436              	LCFI15:
 437              		.cfi_def_cfa_offset 8
 438              		.cfi_offset 5, -8
 439 02d0 89E5     		movl	%esp, %ebp
 440              	LCFI16:
 441              		.cfi_def_cfa_register 5
 442 02d2 83EC28   		subl	$40, %esp
 443              	LBB4:
  99:src/pdf417/PDFDetectionResultColumn.c **** 	for (int i = 0;i<size;i++) 
 444              		.loc 1 99 11
 445 02d5 C745F400 		movl	$0, -12(%ebp)
 445      000000
 446              		.loc 1 99 2
 447 02dc EB29     		jmp	L18
 448              	L20:
 100:src/pdf417/PDFDetectionResultColumn.c **** 	{
 101:src/pdf417/PDFDetectionResultColumn.c **** 		if (codewords->m_hasValue != 0) 
 449              		.loc 1 101 16
 450 02de 8B4508   		movl	8(%ebp), %eax
 451 02e1 0FB600   		movzbl	(%eax), %eax
 452              		.loc 1 101 6
 453 02e4 84C0     		testb	%al, %al
 454 02e6 741B     		je	L19
 455              	LBB5:
 102:src/pdf417/PDFDetectionResultColumn.c **** 		{
GAS LISTING C:\Users\jisu8\AppData\Local\Temp\ccbDR4WJ.s 			page 11


 103:src/pdf417/PDFDetectionResultColumn.c **** 			setRowNumberAsRowIndicatorColumn(codewords+i);
 456              		.loc 1 103 46
 457 02e8 8B55F4   		movl	-12(%ebp), %edx
 458 02eb 89D0     		movl	%edx, %eax
 459 02ed 01C0     		addl	%eax, %eax
 460 02ef 01D0     		addl	%edx, %eax
 461 02f1 C1E003   		sall	$3, %eax
 462 02f4 89C2     		movl	%eax, %edx
 463              		.loc 1 103 4
 464 02f6 8B4508   		movl	8(%ebp), %eax
 465 02f9 01D0     		addl	%edx, %eax
 466 02fb 890424   		movl	%eax, (%esp)
 467 02fe E88C0900 		call	_setRowNumberAsRowIndicatorColumn
 467      00
 468              	L19:
 469              	LBE5:
  99:src/pdf417/PDFDetectionResultColumn.c **** 	{
 470              		.loc 1 99 25 discriminator 2
 471 0303 8345F401 		addl	$1, -12(%ebp)
 472              	L18:
  99:src/pdf417/PDFDetectionResultColumn.c **** 	{
 473              		.loc 1 99 2 discriminator 1
 474 0307 8B45F4   		movl	-12(%ebp), %eax
 475 030a 3B450C   		cmpl	12(%ebp), %eax
 476 030d 7CCF     		jl	L20
 477              	LBE4:
 104:src/pdf417/PDFDetectionResultColumn.c **** 		}
 105:src/pdf417/PDFDetectionResultColumn.c **** 	}
 106:src/pdf417/PDFDetectionResultColumn.c **** }
 478              		.loc 1 106 1
 479 030f 90       		nop
 480 0310 C9       		leave
 481              	LCFI17:
 482              		.cfi_restore 5
 483              		.cfi_def_cfa 4, 4
 484 0311 C3       		ret
 485              		.cfi_endproc
 486              	LFE21:
 487              		.globl	_clear_Codewords
 489              	_clear_Codewords:
 490              	LFB22:
 107:src/pdf417/PDFDetectionResultColumn.c **** 
 108:src/pdf417/PDFDetectionResultColumn.c **** void clear_Codewords(Codeword_t * codewords)
 109:src/pdf417/PDFDetectionResultColumn.c **** {
 491              		.loc 1 109 1
 492              		.cfi_startproc
 493 0312 55       		pushl	%ebp
 494              	LCFI18:
 495              		.cfi_def_cfa_offset 8
 496              		.cfi_offset 5, -8
 497 0313 89E5     		movl	%esp, %ebp
 498              	LCFI19:
 499              		.cfi_def_cfa_register 5
 110:src/pdf417/PDFDetectionResultColumn.c **** 	codewords->m_hasValue = 0;
 500              		.loc 1 110 24
 501 0315 8B4508   		movl	8(%ebp), %eax
 502 0318 C60000   		movb	$0, (%eax)
GAS LISTING C:\Users\jisu8\AppData\Local\Temp\ccbDR4WJ.s 			page 12


 111:src/pdf417/PDFDetectionResultColumn.c **** 	codewords->m_value._startX = 0;
 503              		.loc 1 111 29
 504 031b 8B4508   		movl	8(%ebp), %eax
 505 031e C7400400 		movl	$0, 4(%eax)
 505      000000
 112:src/pdf417/PDFDetectionResultColumn.c **** 	codewords->m_value._endX = 0;
 506              		.loc 1 112 27
 507 0325 8B4508   		movl	8(%ebp), %eax
 508 0328 C7400800 		movl	$0, 8(%eax)
 508      000000
 113:src/pdf417/PDFDetectionResultColumn.c **** 	codewords->m_value._bucket = 0;
 509              		.loc 1 113 29
 510 032f 8B4508   		movl	8(%ebp), %eax
 511 0332 C7400C00 		movl	$0, 12(%eax)
 511      000000
 114:src/pdf417/PDFDetectionResultColumn.c **** 	codewords->m_value._value = 0;
 512              		.loc 1 114 28
 513 0339 8B4508   		movl	8(%ebp), %eax
 514 033c C7401000 		movl	$0, 16(%eax)
 514      000000
 115:src/pdf417/PDFDetectionResultColumn.c **** 	codewords->m_value._rowNumber = -1;
 515              		.loc 1 115 32
 516 0343 8B4508   		movl	8(%ebp), %eax
 517 0346 C74014FF 		movl	$-1, 20(%eax)
 517      FFFFFF
 116:src/pdf417/PDFDetectionResultColumn.c **** }
 518              		.loc 1 116 1
 519 034d 90       		nop
 520 034e 5D       		popl	%ebp
 521              	LCFI20:
 522              		.cfi_restore 5
 523              		.cfi_def_cfa 4, 4
 524 034f C3       		ret
 525              		.cfi_endproc
 526              	LFE22:
 527              		.section .rdata,"dr"
 528              	LC1:
 529 0021 52656D6F 		.ascii "RemoveIncorrectCodewords: \0"
 529      7665496E 
 529      636F7272 
 529      65637443 
 529      6F646577 
 530              		.text
 532              	_RemoveIncorrectCodewords:
 533              	LFB23:
 117:src/pdf417/PDFDetectionResultColumn.c **** static void RemoveIncorrectCodewords(uint8_t isLeft, Codeword_t * codewords, const BarcodeMetadata_
 118:src/pdf417/PDFDetectionResultColumn.c **** {
 534              		.loc 1 118 1
 535              		.cfi_startproc
 536 0350 55       		pushl	%ebp
 537              	LCFI21:
 538              		.cfi_def_cfa_offset 8
 539              		.cfi_offset 5, -8
 540 0351 89E5     		movl	%esp, %ebp
 541              	LCFI22:
 542              		.cfi_def_cfa_register 5
 543 0353 83EC38   		subl	$56, %esp
GAS LISTING C:\Users\jisu8\AppData\Local\Temp\ccbDR4WJ.s 			page 13


 544 0356 8B4508   		movl	8(%ebp), %eax
 545 0359 8845E4   		movb	%al, -28(%ebp)
 119:src/pdf417/PDFDetectionResultColumn.c **** 
 120:src/pdf417/PDFDetectionResultColumn.c **** 	printf("RemoveIncorrectCodewords: \n");
 546              		.loc 1 120 2
 547 035c C7042421 		movl	$LC1, (%esp)
 547      000000
 548 0363 E8000000 		call	_puts
 548      00
 549              	LBB6:
 121:src/pdf417/PDFDetectionResultColumn.c **** 
 122:src/pdf417/PDFDetectionResultColumn.c **** 	// Remove codewords which do not match the metadata
 123:src/pdf417/PDFDetectionResultColumn.c **** 	// TODO Maybe we should keep the incorrect codewords for the start and end positions?
 124:src/pdf417/PDFDetectionResultColumn.c **** 	for (int i=0;i<length;i++) 
 550              		.loc 1 124 11
 551 0368 C745F400 		movl	$0, -12(%ebp)
 551      000000
 552              		.loc 1 124 2
 553 036f E9BB0100 		jmp	L23
 553      00
 554              	L34:
 555              	LBB7:
 125:src/pdf417/PDFDetectionResultColumn.c **** 	{
 126:src/pdf417/PDFDetectionResultColumn.c **** 		if (codewords[i].m_hasValue == 0) 
 556              		.loc 1 126 16
 557 0374 8B55F4   		movl	-12(%ebp), %edx
 558 0377 89D0     		movl	%edx, %eax
 559 0379 01C0     		addl	%eax, %eax
 560 037b 01D0     		addl	%edx, %eax
 561 037d C1E003   		sall	$3, %eax
 562 0380 89C2     		movl	%eax, %edx
 563 0382 8B450C   		movl	12(%ebp), %eax
 564 0385 01D0     		addl	%edx, %eax
 565              		.loc 1 126 19
 566 0387 0FB600   		movzbl	(%eax), %eax
 567              		.loc 1 126 6
 568 038a 84C0     		testb	%al, %al
 569 038c 0F848F01 		je	L35
 569      0000
 127:src/pdf417/PDFDetectionResultColumn.c **** 		{
 128:src/pdf417/PDFDetectionResultColumn.c **** 			continue;
 129:src/pdf417/PDFDetectionResultColumn.c **** 		}
 130:src/pdf417/PDFDetectionResultColumn.c **** 
 131:src/pdf417/PDFDetectionResultColumn.c **** 		int rowIndicatorValue = codewords[i].m_value._value % 30;
 570              		.loc 1 131 36
 571 0392 8B55F4   		movl	-12(%ebp), %edx
 572 0395 89D0     		movl	%edx, %eax
 573 0397 01C0     		addl	%eax, %eax
 574 0399 01D0     		addl	%edx, %eax
 575 039b C1E003   		sall	$3, %eax
 576 039e 89C2     		movl	%eax, %edx
 577 03a0 8B450C   		movl	12(%ebp), %eax
 578 03a3 01D0     		addl	%edx, %eax
 579              		.loc 1 131 47
 580 03a5 8B4810   		movl	16(%eax), %ecx
 581              		.loc 1 131 7
 582 03a8 BA898888 		movl	$-2004318071, %edx
GAS LISTING C:\Users\jisu8\AppData\Local\Temp\ccbDR4WJ.s 			page 14


 582      88
 583 03ad 89C8     		movl	%ecx, %eax
 584 03af F7EA     		imull	%edx
 585 03b1 8D040A   		leal	(%edx,%ecx), %eax
 586 03b4 C1F804   		sarl	$4, %eax
 587 03b7 89C2     		movl	%eax, %edx
 588 03b9 89C8     		movl	%ecx, %eax
 589 03bb C1F81F   		sarl	$31, %eax
 590 03be 29C2     		subl	%eax, %edx
 591 03c0 89D0     		movl	%edx, %eax
 592 03c2 8945EC   		movl	%eax, -20(%ebp)
 593 03c5 8B45EC   		movl	-20(%ebp), %eax
 594 03c8 6BC01E   		imull	$30, %eax, %eax
 595 03cb 29C1     		subl	%eax, %ecx
 596 03cd 89C8     		movl	%ecx, %eax
 597 03cf 8945EC   		movl	%eax, -20(%ebp)
 132:src/pdf417/PDFDetectionResultColumn.c **** 		int codewordRowNumber = codewords[i].m_value._rowNumber;
 598              		.loc 1 132 36
 599 03d2 8B55F4   		movl	-12(%ebp), %edx
 600 03d5 89D0     		movl	%edx, %eax
 601 03d7 01C0     		addl	%eax, %eax
 602 03d9 01D0     		addl	%edx, %eax
 603 03db C1E003   		sall	$3, %eax
 604 03de 89C2     		movl	%eax, %edx
 605 03e0 8B450C   		movl	12(%ebp), %eax
 606 03e3 01D0     		addl	%edx, %eax
 607              		.loc 1 132 7
 608 03e5 8B4014   		movl	20(%eax), %eax
 609 03e8 8945F0   		movl	%eax, -16(%ebp)
 133:src/pdf417/PDFDetectionResultColumn.c **** 		if (codewordRowNumber > rowCount(barcodeMetadata)) 
 610              		.loc 1 133 27
 611 03eb 8B4510   		movl	16(%ebp), %eax
 612 03ee 890424   		movl	%eax, (%esp)
 613 03f1 E8000000 		call	_rowCount
 613      00
 614              		.loc 1 133 6
 615 03f6 3945F0   		cmpl	%eax, -16(%ebp)
 616 03f9 7E20     		jle	L26
 134:src/pdf417/PDFDetectionResultColumn.c **** 		{
 135:src/pdf417/PDFDetectionResultColumn.c **** 			clear_Codewords(codewords+i);
 617              		.loc 1 135 29
 618 03fb 8B55F4   		movl	-12(%ebp), %edx
 619 03fe 89D0     		movl	%edx, %eax
 620 0400 01C0     		addl	%eax, %eax
 621 0402 01D0     		addl	%edx, %eax
 622 0404 C1E003   		sall	$3, %eax
 623 0407 89C2     		movl	%eax, %edx
 624              		.loc 1 135 4
 625 0409 8B450C   		movl	12(%ebp), %eax
 626 040c 01D0     		addl	%edx, %eax
 627 040e 890424   		movl	%eax, (%esp)
 628 0411 E8FCFEFF 		call	_clear_Codewords
 628      FF
 136:src/pdf417/PDFDetectionResultColumn.c **** 			continue;
 629              		.loc 1 136 4
 630 0416 E9100100 		jmp	L25
 630      00
GAS LISTING C:\Users\jisu8\AppData\Local\Temp\ccbDR4WJ.s 			page 15


 631              	L26:
 137:src/pdf417/PDFDetectionResultColumn.c **** 		}
 138:src/pdf417/PDFDetectionResultColumn.c **** 
 139:src/pdf417/PDFDetectionResultColumn.c **** 		if (!isLeft) 
 632              		.loc 1 139 6
 633 041b 807DE400 		cmpb	$0, -28(%ebp)
 634 041f 7504     		jne	L27
 140:src/pdf417/PDFDetectionResultColumn.c **** 		{
 141:src/pdf417/PDFDetectionResultColumn.c **** 			codewordRowNumber += 2;
 635              		.loc 1 141 22
 636 0421 8345F002 		addl	$2, -16(%ebp)
 637              	L27:
 142:src/pdf417/PDFDetectionResultColumn.c **** 		}
 143:src/pdf417/PDFDetectionResultColumn.c **** 
 144:src/pdf417/PDFDetectionResultColumn.c **** 		switch (codewordRowNumber % 3) 
 638              		.loc 1 144 29
 639 0425 8B4DF0   		movl	-16(%ebp), %ecx
 640 0428 BA565555 		movl	$1431655766, %edx
 640      55
 641 042d 89C8     		movl	%ecx, %eax
 642 042f F7EA     		imull	%edx
 643 0431 89C8     		movl	%ecx, %eax
 644 0433 C1F81F   		sarl	$31, %eax
 645 0436 29C2     		subl	%eax, %edx
 646 0438 89D0     		movl	%edx, %eax
 647 043a 89C2     		movl	%eax, %edx
 648 043c 01D2     		addl	%edx, %edx
 649 043e 01C2     		addl	%eax, %edx
 650 0440 89C8     		movl	%ecx, %eax
 651 0442 29D0     		subl	%edx, %eax
 652 0444 83F801   		cmpl	$1, %eax
 653 0447 744B     		je	L28
 654 0449 83F802   		cmpl	$2, %eax
 655 044c 0F84A300 		je	L29
 655      0000
 656 0452 85C0     		testl	%eax, %eax
 657 0454 0F85D100 		jne	L25
 657      0000
 145:src/pdf417/PDFDetectionResultColumn.c **** 		{
 146:src/pdf417/PDFDetectionResultColumn.c **** 			case 0:
 147:src/pdf417/PDFDetectionResultColumn.c **** 			if (rowIndicatorValue * 3 + 1 != barcodeMetadata->_rowCountUpperPart) 
 658              		.loc 1 147 26
 659 045a 8B55EC   		movl	-20(%ebp), %edx
 660 045d 89D0     		movl	%edx, %eax
 661 045f 01C0     		addl	%eax, %eax
 662 0461 01D0     		addl	%edx, %eax
 663              		.loc 1 147 30
 664 0463 8D5001   		leal	1(%eax), %edx
 665              		.loc 1 147 52
 666 0466 8B4510   		movl	16(%ebp), %eax
 667 0469 8B4008   		movl	8(%eax), %eax
 668              		.loc 1 147 7
 669 046c 39C2     		cmpl	%eax, %edx
 670 046e 0F84B000 		je	L36
 670      0000
 148:src/pdf417/PDFDetectionResultColumn.c **** 			{
 149:src/pdf417/PDFDetectionResultColumn.c **** 				clear_Codewords(codewords+i);
GAS LISTING C:\Users\jisu8\AppData\Local\Temp\ccbDR4WJ.s 			page 16


 671              		.loc 1 149 30
 672 0474 8B55F4   		movl	-12(%ebp), %edx
 673 0477 89D0     		movl	%edx, %eax
 674 0479 01C0     		addl	%eax, %eax
 675 047b 01D0     		addl	%edx, %eax
 676 047d C1E003   		sall	$3, %eax
 677 0480 89C2     		movl	%eax, %edx
 678              		.loc 1 149 5
 679 0482 8B450C   		movl	12(%ebp), %eax
 680 0485 01D0     		addl	%edx, %eax
 681 0487 890424   		movl	%eax, (%esp)
 682 048a E883FEFF 		call	_clear_Codewords
 682      FF
 150:src/pdf417/PDFDetectionResultColumn.c **** 			}
 151:src/pdf417/PDFDetectionResultColumn.c **** 			break;
 683              		.loc 1 151 4
 684 048f E9900000 		jmp	L36
 684      00
 685              	L28:
 152:src/pdf417/PDFDetectionResultColumn.c **** 			case 1:
 153:src/pdf417/PDFDetectionResultColumn.c **** 			if (rowIndicatorValue / 3 != barcodeMetadata->_errorCorrectionLevel ||
 686              		.loc 1 153 26
 687 0494 8B4DEC   		movl	-20(%ebp), %ecx
 688 0497 BA565555 		movl	$1431655766, %edx
 688      55
 689 049c 89C8     		movl	%ecx, %eax
 690 049e F7EA     		imull	%edx
 691 04a0 89C8     		movl	%ecx, %eax
 692 04a2 C1F81F   		sarl	$31, %eax
 693 04a5 29C2     		subl	%eax, %edx
 694              		.loc 1 153 48
 695 04a7 8B4510   		movl	16(%ebp), %eax
 696 04aa 8B4004   		movl	4(%eax), %eax
 697              		.loc 1 153 7
 698 04ad 39C2     		cmpl	%eax, %edx
 699 04af 7527     		jne	L31
 154:src/pdf417/PDFDetectionResultColumn.c **** 				rowIndicatorValue % 3 != barcodeMetadata->_rowCountLowerPart) 
 700              		.loc 1 154 23 discriminator 1
 701 04b1 8B4DEC   		movl	-20(%ebp), %ecx
 702 04b4 BA565555 		movl	$1431655766, %edx
 702      55
 703 04b9 89C8     		movl	%ecx, %eax
 704 04bb F7EA     		imull	%edx
 705 04bd 89C8     		movl	%ecx, %eax
 706 04bf C1F81F   		sarl	$31, %eax
 707 04c2 29C2     		subl	%eax, %edx
 708 04c4 89D0     		movl	%edx, %eax
 709 04c6 01C0     		addl	%eax, %eax
 710 04c8 01D0     		addl	%edx, %eax
 711 04ca 29C1     		subl	%eax, %ecx
 712 04cc 89CA     		movl	%ecx, %edx
 713              		.loc 1 154 45 discriminator 1
 714 04ce 8B4510   		movl	16(%ebp), %eax
 715 04d1 8B400C   		movl	12(%eax), %eax
 153:src/pdf417/PDFDetectionResultColumn.c **** 				rowIndicatorValue % 3 != barcodeMetadata->_rowCountLowerPart) 
 716              		.loc 1 153 72 discriminator 1
 717 04d4 39C2     		cmpl	%eax, %edx
GAS LISTING C:\Users\jisu8\AppData\Local\Temp\ccbDR4WJ.s 			page 17


 718 04d6 744F     		je	L37
 719              	L31:
 155:src/pdf417/PDFDetectionResultColumn.c **** 			{
 156:src/pdf417/PDFDetectionResultColumn.c **** 				clear_Codewords(codewords+i);
 720              		.loc 1 156 30
 721 04d8 8B55F4   		movl	-12(%ebp), %edx
 722 04db 89D0     		movl	%edx, %eax
 723 04dd 01C0     		addl	%eax, %eax
 724 04df 01D0     		addl	%edx, %eax
 725 04e1 C1E003   		sall	$3, %eax
 726 04e4 89C2     		movl	%eax, %edx
 727              		.loc 1 156 5
 728 04e6 8B450C   		movl	12(%ebp), %eax
 729 04e9 01D0     		addl	%edx, %eax
 730 04eb 890424   		movl	%eax, (%esp)
 731 04ee E81FFEFF 		call	_clear_Codewords
 731      FF
 157:src/pdf417/PDFDetectionResultColumn.c **** 			}
 158:src/pdf417/PDFDetectionResultColumn.c **** 			break;
 732              		.loc 1 158 4
 733 04f3 EB32     		jmp	L37
 734              	L29:
 159:src/pdf417/PDFDetectionResultColumn.c **** 			case 2:
 160:src/pdf417/PDFDetectionResultColumn.c **** 			if (rowIndicatorValue + 1 != barcodeMetadata->_columnCount) 
 735              		.loc 1 160 26
 736 04f5 8B45EC   		movl	-20(%ebp), %eax
 737 04f8 8D5001   		leal	1(%eax), %edx
 738              		.loc 1 160 48
 739 04fb 8B4510   		movl	16(%ebp), %eax
 740 04fe 8B00     		movl	(%eax), %eax
 741              		.loc 1 160 7
 742 0500 39C2     		cmpl	%eax, %edx
 743 0502 7426     		je	L38
 161:src/pdf417/PDFDetectionResultColumn.c **** 			{
 162:src/pdf417/PDFDetectionResultColumn.c **** 				clear_Codewords(codewords+i);
 744              		.loc 1 162 30
 745 0504 8B55F4   		movl	-12(%ebp), %edx
 746 0507 89D0     		movl	%edx, %eax
 747 0509 01C0     		addl	%eax, %eax
 748 050b 01D0     		addl	%edx, %eax
 749 050d C1E003   		sall	$3, %eax
 750 0510 89C2     		movl	%eax, %edx
 751              		.loc 1 162 5
 752 0512 8B450C   		movl	12(%ebp), %eax
 753 0515 01D0     		addl	%edx, %eax
 754 0517 890424   		movl	%eax, (%esp)
 755 051a E8F3FDFF 		call	_clear_Codewords
 755      FF
 163:src/pdf417/PDFDetectionResultColumn.c **** 			}
 164:src/pdf417/PDFDetectionResultColumn.c **** 			break;
 756              		.loc 1 164 4
 757 051f EB09     		jmp	L38
 758              	L35:
 128:src/pdf417/PDFDetectionResultColumn.c **** 		}
 759              		.loc 1 128 4
 760 0521 90       		nop
 761 0522 EB07     		jmp	L25
GAS LISTING C:\Users\jisu8\AppData\Local\Temp\ccbDR4WJ.s 			page 18


 762              	L36:
 151:src/pdf417/PDFDetectionResultColumn.c **** 			case 1:
 763              		.loc 1 151 4
 764 0524 90       		nop
 765 0525 EB04     		jmp	L25
 766              	L37:
 158:src/pdf417/PDFDetectionResultColumn.c **** 			case 2:
 767              		.loc 1 158 4
 768 0527 90       		nop
 769 0528 EB01     		jmp	L25
 770              	L38:
 771              		.loc 1 164 4
 772 052a 90       		nop
 773              	L25:
 774              	LBE7:
 124:src/pdf417/PDFDetectionResultColumn.c **** 	{
 775              		.loc 1 124 25 discriminator 2
 776 052b 8345F401 		addl	$1, -12(%ebp)
 777              	L23:
 124:src/pdf417/PDFDetectionResultColumn.c **** 	{
 778              		.loc 1 124 2 discriminator 1
 779 052f 8B45F4   		movl	-12(%ebp), %eax
 780 0532 3B4514   		cmpl	20(%ebp), %eax
 781 0535 0F8C39FE 		jl	L34
 781      FFFF
 782              	LBE6:
 165:src/pdf417/PDFDetectionResultColumn.c **** 		}
 166:src/pdf417/PDFDetectionResultColumn.c **** 	}
 167:src/pdf417/PDFDetectionResultColumn.c **** 
 168:src/pdf417/PDFDetectionResultColumn.c **** }
 783              		.loc 1 168 1
 784 053b 90       		nop
 785 053c C9       		leave
 786              	LCFI23:
 787              		.cfi_restore 5
 788              		.cfi_def_cfa 4, 4
 789 053d C3       		ret
 790              		.cfi_endproc
 791              	LFE23:
 792              		.section .rdata,"dr"
 793              		.align 4
 794              	LC2:
 795 003c 44657465 		.ascii "DetectionResultColumn::adjustCompleteIndicatorColumnRowNumbers: \0"
 795      6374696F 
 795      6E526573 
 795      756C7443 
 795      6F6C756D 
 796              		.text
 797              		.globl	_adjustCompleteIndicatorColumnRowNumbers
 799              	_adjustCompleteIndicatorColumnRowNumbers:
 800              	LFB24:
 169:src/pdf417/PDFDetectionResultColumn.c **** 
 170:src/pdf417/PDFDetectionResultColumn.c **** // TODO implement properly
 171:src/pdf417/PDFDetectionResultColumn.c **** // TODO maybe we should add missing codewords to store the correct row number to make
 172:src/pdf417/PDFDetectionResultColumn.c **** // finding row numbers for other columns easier
 173:src/pdf417/PDFDetectionResultColumn.c **** // use row height count to make detection of invalid row numbers more reliable
 174:src/pdf417/PDFDetectionResultColumn.c **** void adjustCompleteIndicatorColumnRowNumbers(DetectionResultColumn_t * detectionResultColumn,const 
GAS LISTING C:\Users\jisu8\AppData\Local\Temp\ccbDR4WJ.s 			page 19


 175:src/pdf417/PDFDetectionResultColumn.c **** {
 801              		.loc 1 175 1
 802              		.cfi_startproc
 803 053e 55       		pushl	%ebp
 804              	LCFI24:
 805              		.cfi_def_cfa_offset 8
 806              		.cfi_offset 5, -8
 807 053f 89E5     		movl	%esp, %ebp
 808              	LCFI25:
 809              		.cfi_def_cfa_register 5
 810 0541 57       		pushl	%edi
 811 0542 56       		pushl	%esi
 812 0543 53       		pushl	%ebx
 813 0544 81ECDC00 		subl	$220, %esp
 813      0000
 814              		.cfi_offset 7, -12
 815              		.cfi_offset 6, -16
 816              		.cfi_offset 3, -20
 176:src/pdf417/PDFDetectionResultColumn.c **** 	printf("DetectionResultColumn::adjustCompleteIndicatorColumnRowNumbers: \n");
 817              		.loc 1 176 2
 818 054a C704243C 		movl	$LC2, (%esp)
 818      000000
 819 0551 E8000000 		call	_puts
 819      00
 177:src/pdf417/PDFDetectionResultColumn.c **** 	
 178:src/pdf417/PDFDetectionResultColumn.c **** 	if (!isRowIndicator(detectionResultColumn))
 820              		.loc 1 178 7
 821 0556 8B4508   		movl	8(%ebp), %eax
 822 0559 890424   		movl	%eax, (%esp)
 823 055c E890FBFF 		call	_isRowIndicator
 823      FF
 824              		.loc 1 178 5
 825 0561 84C0     		testb	%al, %al
 826 0563 0F844A03 		je	L66
 826      0000
 179:src/pdf417/PDFDetectionResultColumn.c **** 	{
 180:src/pdf417/PDFDetectionResultColumn.c **** 		return;
 181:src/pdf417/PDFDetectionResultColumn.c **** 	}
 182:src/pdf417/PDFDetectionResultColumn.c **** 
 183:src/pdf417/PDFDetectionResultColumn.c **** 	Codeword_t * codewords = allCodewords(detectionResultColumn);
 827              		.loc 1 183 27
 828 0569 8B4508   		movl	8(%ebp), %eax
 829 056c 890424   		movl	%eax, (%esp)
 830 056f E872FBFF 		call	_allCodewords
 830      FF
 831 0574 8945C4   		movl	%eax, -60(%ebp)
 184:src/pdf417/PDFDetectionResultColumn.c **** 	setRowNumbers(codewords,size);
 832              		.loc 1 184 2
 833 0577 8B4510   		movl	16(%ebp), %eax
 834 057a 89442404 		movl	%eax, 4(%esp)
 835 057e 8B45C4   		movl	-60(%ebp), %eax
 836 0581 890424   		movl	%eax, (%esp)
 837 0584 E846FDFF 		call	_setRowNumbers
 837      FF
 185:src/pdf417/PDFDetectionResultColumn.c **** 	RemoveIncorrectCodewords(isLeftRowIndicator(detectionResultColumn), codewords, barcodeMetadata,siz
 838              		.loc 1 185 27
 839 0589 8B4508   		movl	8(%ebp), %eax
GAS LISTING C:\Users\jisu8\AppData\Local\Temp\ccbDR4WJ.s 			page 20


 840 058c 890424   		movl	%eax, (%esp)
 841 058f E870FBFF 		call	_isLeftRowIndicator
 841      FF
 842              		.loc 1 185 2
 843 0594 0FB6C0   		movzbl	%al, %eax
 844 0597 8B5510   		movl	16(%ebp), %edx
 845 059a 8954240C 		movl	%edx, 12(%esp)
 846 059e 8B550C   		movl	12(%ebp), %edx
 847 05a1 89542408 		movl	%edx, 8(%esp)
 848 05a5 8B55C4   		movl	-60(%ebp), %edx
 849 05a8 89542404 		movl	%edx, 4(%esp)
 850 05ac 890424   		movl	%eax, (%esp)
 851 05af E89CFDFF 		call	_RemoveIncorrectCodewords
 851      FF
 186:src/pdf417/PDFDetectionResultColumn.c **** 	const BoundingBox_t bb = detectionResultColumn->m_value._boundingBox;
 852              		.loc 1 186 22
 853 05b4 8B5508   		movl	8(%ebp), %edx
 854 05b7 8D856CFF 		leal	-148(%ebp), %eax
 854      FFFF
 855 05bd 83C204   		addl	$4, %edx
 856 05c0 B9130000 		movl	$19, %ecx
 856      00
 857 05c5 89C7     		movl	%eax, %edi
 858 05c7 89D6     		movl	%edx, %esi
 859 05c9 F3A5     		rep movsl
 187:src/pdf417/PDFDetectionResultColumn.c **** 	ResultPoint_t top = isLeftRowIndicator(detectionResultColumn) ? topLeft(&bb) : topRight(&bb);
 860              		.loc 1 187 22
 861 05cb 8B4508   		movl	8(%ebp), %eax
 862 05ce 890424   		movl	%eax, (%esp)
 863 05d1 E82EFBFF 		call	_isLeftRowIndicator
 863      FF
 864              		.loc 1 187 16
 865 05d6 84C0     		testb	%al, %al
 866 05d8 741A     		je	L42
 867              		.loc 1 187 66 discriminator 1
 868 05da 8D8560FF 		leal	-160(%ebp), %eax
 868      FFFF
 869 05e0 8D956CFF 		leal	-148(%ebp), %edx
 869      FFFF
 870 05e6 89542404 		movl	%edx, 4(%esp)
 871 05ea 890424   		movl	%eax, (%esp)
 872 05ed E8000000 		call	_topLeft
 872      00
 873 05f2 EB18     		jmp	L43
 874              	L42:
 875              		.loc 1 187 81 discriminator 2
 876 05f4 8D8560FF 		leal	-160(%ebp), %eax
 876      FFFF
 877 05fa 8D956CFF 		leal	-148(%ebp), %edx
 877      FFFF
 878 0600 89542404 		movl	%edx, 4(%esp)
 879 0604 890424   		movl	%eax, (%esp)
 880 0607 E8000000 		call	_topRight
 880      00
 881              	L43:
 188:src/pdf417/PDFDetectionResultColumn.c **** 	ResultPoint_t bottom = isLeftRowIndicator(detectionResultColumn) ? bottomLeft(&bb) : bottomRight(&
 882              		.loc 1 188 25
GAS LISTING C:\Users\jisu8\AppData\Local\Temp\ccbDR4WJ.s 			page 21


 883 060c 8B4508   		movl	8(%ebp), %eax
 884 060f 890424   		movl	%eax, (%esp)
 885 0612 E8EDFAFF 		call	_isLeftRowIndicator
 885      FF
 886              		.loc 1 188 16
 887 0617 84C0     		testb	%al, %al
 888 0619 741A     		je	L44
 889              		.loc 1 188 69 discriminator 1
 890 061b 8D8554FF 		leal	-172(%ebp), %eax
 890      FFFF
 891 0621 8D956CFF 		leal	-148(%ebp), %edx
 891      FFFF
 892 0627 89542404 		movl	%edx, 4(%esp)
 893 062b 890424   		movl	%eax, (%esp)
 894 062e E8000000 		call	_bottomLeft
 894      00
 895 0633 EB18     		jmp	L45
 896              	L44:
 897              		.loc 1 188 87 discriminator 2
 898 0635 8D8554FF 		leal	-172(%ebp), %eax
 898      FFFF
 899 063b 8D956CFF 		leal	-148(%ebp), %edx
 899      FFFF
 900 0641 89542404 		movl	%edx, 4(%esp)
 901 0645 890424   		movl	%eax, (%esp)
 902 0648 E8000000 		call	_bottomRight
 902      00
 903              	L45:
 189:src/pdf417/PDFDetectionResultColumn.c **** 	int firstRow = (int)top.m_value.y - detectionResultColumn->m_value._boundingBox.m_value._minY;
 904              		.loc 1 189 33
 905 064d D98568FF 		flds	-152(%ebp)
 905      FFFF
 906              		.loc 1 189 17
 907 0653 D9BD36FF 		fnstcw	-202(%ebp)
 907      FFFF
 908 0659 0FB78536 		movzwl	-202(%ebp), %eax
 908      FFFFFF
 909 0660 80CC0C   		orb	$12, %ah
 910 0663 66898534 		movw	%ax, -204(%ebp)
 910      FFFFFF
 911 066a D9AD34FF 		fldcw	-204(%ebp)
 911      FFFF
 912 0670 DB9D30FF 		fistpl	-208(%ebp)
 912      FFFF
 913 0676 D9AD36FF 		fldcw	-202(%ebp)
 913      FFFF
 914 067c 8B9530FF 		movl	-208(%ebp), %edx
 914      FFFF
 915              		.loc 1 189 89
 916 0682 8B4508   		movl	8(%ebp), %eax
 917 0685 8B4048   		movl	72(%eax), %eax
 918              		.loc 1 189 6
 919 0688 29C2     		subl	%eax, %edx
 920 068a 89D0     		movl	%edx, %eax
 921 068c 8945C0   		movl	%eax, -64(%ebp)
 190:src/pdf417/PDFDetectionResultColumn.c **** 	int lastRow = (int)bottom.m_value.y - detectionResultColumn->m_value._boundingBox.m_value._minY;
 922              		.loc 1 190 35
GAS LISTING C:\Users\jisu8\AppData\Local\Temp\ccbDR4WJ.s 			page 22


 923 068f D9855CFF 		flds	-164(%ebp)
 923      FFFF
 924              		.loc 1 190 16
 925 0695 D9AD34FF 		fldcw	-204(%ebp)
 925      FFFF
 926 069b DB9D30FF 		fistpl	-208(%ebp)
 926      FFFF
 927 06a1 D9AD36FF 		fldcw	-202(%ebp)
 927      FFFF
 928 06a7 8B9530FF 		movl	-208(%ebp), %edx
 928      FFFF
 929              		.loc 1 190 91
 930 06ad 8B4508   		movl	8(%ebp), %eax
 931 06b0 8B4048   		movl	72(%eax), %eax
 932              		.loc 1 190 6
 933 06b3 29C2     		subl	%eax, %edx
 934 06b5 89D0     		movl	%edx, %eax
 935 06b7 8945BC   		movl	%eax, -68(%ebp)
 191:src/pdf417/PDFDetectionResultColumn.c **** 	// We need to be careful using the average row height. Barcode could be skewed so that we have sma
 192:src/pdf417/PDFDetectionResultColumn.c **** 	// taller rows
 193:src/pdf417/PDFDetectionResultColumn.c **** 	int barcodeRow = -1;
 936              		.loc 1 193 6
 937 06ba C745E4FF 		movl	$-1, -28(%ebp)
 937      FFFFFF
 194:src/pdf417/PDFDetectionResultColumn.c **** 	int maxRowHeight = 1;
 938              		.loc 1 194 6
 939 06c1 C745E001 		movl	$1, -32(%ebp)
 939      000000
 195:src/pdf417/PDFDetectionResultColumn.c **** 	int currentRowHeight = 0;
 940              		.loc 1 195 6
 941 06c8 C745DC00 		movl	$0, -36(%ebp)
 941      000000
 196:src/pdf417/PDFDetectionResultColumn.c **** 	int increment = 1;
 942              		.loc 1 196 6
 943 06cf C745D801 		movl	$1, -40(%ebp)
 943      000000
 944              	LBB8:
 197:src/pdf417/PDFDetectionResultColumn.c **** 	for (int codewordsRow = firstRow; codewordsRow < lastRow; codewordsRow++) 
 945              		.loc 1 197 11
 946 06d6 8B45C0   		movl	-64(%ebp), %eax
 947 06d9 8945D4   		movl	%eax, -44(%ebp)
 948              		.loc 1 197 2
 949 06dc E9C40100 		jmp	L46
 949      00
 950              	L65:
 951              	LBB9:
 198:src/pdf417/PDFDetectionResultColumn.c **** 	{
 199:src/pdf417/PDFDetectionResultColumn.c **** 		if (codewords[codewordsRow].m_hasValue == 0) 
 952              		.loc 1 199 16
 953 06e1 8B55D4   		movl	-44(%ebp), %edx
 954 06e4 89D0     		movl	%edx, %eax
 955 06e6 01C0     		addl	%eax, %eax
 956 06e8 01D0     		addl	%edx, %eax
 957 06ea C1E003   		sall	$3, %eax
 958 06ed 89C2     		movl	%eax, %edx
 959 06ef 8B45C4   		movl	-60(%ebp), %eax
 960 06f2 01D0     		addl	%edx, %eax
GAS LISTING C:\Users\jisu8\AppData\Local\Temp\ccbDR4WJ.s 			page 23


 961              		.loc 1 199 30
 962 06f4 0FB600   		movzbl	(%eax), %eax
 963              		.loc 1 199 6
 964 06f7 84C0     		testb	%al, %al
 965 06f9 0F84A101 		je	L67
 965      0000
 200:src/pdf417/PDFDetectionResultColumn.c **** 		{
 201:src/pdf417/PDFDetectionResultColumn.c **** 			continue;
 202:src/pdf417/PDFDetectionResultColumn.c **** 		}
 203:src/pdf417/PDFDetectionResultColumn.c **** 
 204:src/pdf417/PDFDetectionResultColumn.c **** 		Codeword_t codeword = codewords[codewordsRow];
 966              		.loc 1 204 34
 967 06ff 8B55D4   		movl	-44(%ebp), %edx
 968 0702 89D0     		movl	%edx, %eax
 969 0704 01C0     		addl	%eax, %eax
 970 0706 01D0     		addl	%edx, %eax
 971 0708 C1E003   		sall	$3, %eax
 972 070b 89C2     		movl	%eax, %edx
 973 070d 8B45C4   		movl	-60(%ebp), %eax
 974 0710 01D0     		addl	%edx, %eax
 975              		.loc 1 204 14
 976 0712 8B10     		movl	(%eax), %edx
 977 0714 89953CFF 		movl	%edx, -196(%ebp)
 977      FFFF
 978 071a 8B5004   		movl	4(%eax), %edx
 979 071d 899540FF 		movl	%edx, -192(%ebp)
 979      FFFF
 980 0723 8B5008   		movl	8(%eax), %edx
 981 0726 899544FF 		movl	%edx, -188(%ebp)
 981      FFFF
 982 072c 8B500C   		movl	12(%eax), %edx
 983 072f 899548FF 		movl	%edx, -184(%ebp)
 983      FFFF
 984 0735 8B5010   		movl	16(%eax), %edx
 985 0738 89954CFF 		movl	%edx, -180(%ebp)
 985      FFFF
 986 073e 8B4014   		movl	20(%eax), %eax
 987 0741 898550FF 		movl	%eax, -176(%ebp)
 987      FFFF
 205:src/pdf417/PDFDetectionResultColumn.c **** 		if (barcodeRow == -1 && codeword.m_value._rowNumber == rowCount(barcodeMetadata) - 1) 
 988              		.loc 1 205 6
 989 0747 837DE4FF 		cmpl	$-1, -28(%ebp)
 990 074b 752D     		jne	L49
 991              		.loc 1 205 43 discriminator 1
 992 074d 8B9D50FF 		movl	-176(%ebp), %ebx
 992      FFFF
 993              		.loc 1 205 58 discriminator 1
 994 0753 8B450C   		movl	12(%ebp), %eax
 995 0756 890424   		movl	%eax, (%esp)
 996 0759 E8000000 		call	_rowCount
 996      00
 997              		.loc 1 205 84 discriminator 1
 998 075e 83E801   		subl	$1, %eax
 999              		.loc 1 205 24 discriminator 1
 1000 0761 39C3     		cmpl	%eax, %ebx
 1001 0763 7515     		jne	L49
 206:src/pdf417/PDFDetectionResultColumn.c **** 		{
GAS LISTING C:\Users\jisu8\AppData\Local\Temp\ccbDR4WJ.s 			page 24


 207:src/pdf417/PDFDetectionResultColumn.c **** 			increment = -1;
 1002              		.loc 1 207 14
 1003 0765 C745D8FF 		movl	$-1, -40(%ebp)
 1003      FFFFFF
 208:src/pdf417/PDFDetectionResultColumn.c **** 			barcodeRow = rowCount(barcodeMetadata);
 1004              		.loc 1 208 17
 1005 076c 8B450C   		movl	12(%ebp), %eax
 1006 076f 890424   		movl	%eax, (%esp)
 1007 0772 E8000000 		call	_rowCount
 1007      00
 1008 0777 8945E4   		movl	%eax, -28(%ebp)
 1009              	L49:
 209:src/pdf417/PDFDetectionResultColumn.c **** 		}
 210:src/pdf417/PDFDetectionResultColumn.c **** 		//      float expectedRowNumber = (codewordsRow - firstRow) / averageRowHeight;
 211:src/pdf417/PDFDetectionResultColumn.c **** 		//      if (Math.abs(codeword.getRowNumber() - expectedRowNumber) > 2) {
 212:src/pdf417/PDFDetectionResultColumn.c **** 		//        SimpleLog.log(LEVEL.WARNING,
 213:src/pdf417/PDFDetectionResultColumn.c **** 		//            "Removing codeword, rowNumberSkew too high, codeword[" + codewordsRow + "]: Expecte
 214:src/pdf417/PDFDetectionResultColumn.c **** 		//                expectedRowNumber + ", RealRow: " + codeword.getRowNumber() + ", value: " + cod
 215:src/pdf417/PDFDetectionResultColumn.c **** 		//        codewords[codewordsRow] = null;
 216:src/pdf417/PDFDetectionResultColumn.c **** 		//      }
 217:src/pdf417/PDFDetectionResultColumn.c **** 
 218:src/pdf417/PDFDetectionResultColumn.c **** 		int rowDifference = codeword.m_value._rowNumber - barcodeRow;
 1010              		.loc 1 218 39
 1011 077a 8B8550FF 		movl	-176(%ebp), %eax
 1011      FFFF
 1012              		.loc 1 218 7
 1013 0780 2B45E4   		subl	-28(%ebp), %eax
 1014 0783 8945B8   		movl	%eax, -72(%ebp)
 219:src/pdf417/PDFDetectionResultColumn.c **** 
 220:src/pdf417/PDFDetectionResultColumn.c **** 		if (rowDifference == 0) 
 1015              		.loc 1 220 6
 1016 0786 837DB800 		cmpl	$0, -72(%ebp)
 1017 078a 7509     		jne	L50
 221:src/pdf417/PDFDetectionResultColumn.c **** 		{
 222:src/pdf417/PDFDetectionResultColumn.c **** 			currentRowHeight++;
 1018              		.loc 1 222 20
 1019 078c 8345DC01 		addl	$1, -36(%ebp)
 1020 0790 E90C0100 		jmp	L48
 1020      00
 1021              	L50:
 223:src/pdf417/PDFDetectionResultColumn.c **** 		}
 224:src/pdf417/PDFDetectionResultColumn.c **** 		else if (rowDifference == increment) 
 1022              		.loc 1 224 11
 1023 0795 8B45B8   		movl	-72(%ebp), %eax
 1024 0798 3B45D8   		cmpl	-40(%ebp), %eax
 1025 079b 7522     		jne	L52
 225:src/pdf417/PDFDetectionResultColumn.c **** 		{
 226:src/pdf417/PDFDetectionResultColumn.c **** 			maxRowHeight = __max(maxRowHeight, currentRowHeight);
 1026              		.loc 1 226 17
 1027 079d 8B45E0   		movl	-32(%ebp), %eax
 1028 07a0 3945DC   		cmpl	%eax, -36(%ebp)
 1029 07a3 0F4D45DC 		cmovge	-36(%ebp), %eax
 1030 07a7 8945E0   		movl	%eax, -32(%ebp)
 227:src/pdf417/PDFDetectionResultColumn.c **** 			currentRowHeight = 1;
 1031              		.loc 1 227 21
 1032 07aa C745DC01 		movl	$1, -36(%ebp)
 1032      000000
GAS LISTING C:\Users\jisu8\AppData\Local\Temp\ccbDR4WJ.s 			page 25


 228:src/pdf417/PDFDetectionResultColumn.c **** 			barcodeRow = codeword.m_value._rowNumber;
 1033              		.loc 1 228 15
 1034 07b1 8B8550FF 		movl	-176(%ebp), %eax
 1034      FFFF
 1035 07b7 8945E4   		movl	%eax, -28(%ebp)
 1036 07ba E9E20000 		jmp	L48
 1036      00
 1037              	L52:
 229:src/pdf417/PDFDetectionResultColumn.c **** 		}
 230:src/pdf417/PDFDetectionResultColumn.c **** 		else if (rowDifference < 0 || codeword.m_value._rowNumber >= rowCount(barcodeMetadata) ||
 1038              		.loc 1 230 11
 1039 07bf 837DB800 		cmpl	$0, -72(%ebp)
 1040 07c3 781D     		js	L53
 1041              		.loc 1 230 49 discriminator 1
 1042 07c5 8B9D50FF 		movl	-176(%ebp), %ebx
 1042      FFFF
 1043              		.loc 1 230 64 discriminator 1
 1044 07cb 8B450C   		movl	12(%ebp), %eax
 1045 07ce 890424   		movl	%eax, (%esp)
 1046 07d1 E8000000 		call	_rowCount
 1046      00
 1047              		.loc 1 230 30 discriminator 1
 1048 07d6 39C3     		cmpl	%eax, %ebx
 1049 07d8 7D08     		jge	L53
 1050              		.loc 1 230 90 discriminator 2
 1051 07da 8B45B8   		movl	-72(%ebp), %eax
 1052 07dd 3B45D4   		cmpl	-44(%ebp), %eax
 1053 07e0 7E1B     		jle	L54
 1054              	L53:
 231:src/pdf417/PDFDetectionResultColumn.c **** 			rowDifference > codewordsRow) 
 232:src/pdf417/PDFDetectionResultColumn.c **** 		{
 233:src/pdf417/PDFDetectionResultColumn.c **** 			codewords[codewordsRow].m_hasValue = 0;
 1055              		.loc 1 233 13
 1056 07e2 8B55D4   		movl	-44(%ebp), %edx
 1057 07e5 89D0     		movl	%edx, %eax
 1058 07e7 01C0     		addl	%eax, %eax
 1059 07e9 01D0     		addl	%edx, %eax
 1060 07eb C1E003   		sall	$3, %eax
 1061 07ee 89C2     		movl	%eax, %edx
 1062 07f0 8B45C4   		movl	-60(%ebp), %eax
 1063 07f3 01D0     		addl	%edx, %eax
 1064              		.loc 1 233 39
 1065 07f5 C60000   		movb	$0, (%eax)
 1066 07f8 E9A40000 		jmp	L48
 1066      00
 1067              	L54:
 1068              	LBB10:
 234:src/pdf417/PDFDetectionResultColumn.c **** 		}
 235:src/pdf417/PDFDetectionResultColumn.c **** 		else 
 236:src/pdf417/PDFDetectionResultColumn.c **** 		{
 237:src/pdf417/PDFDetectionResultColumn.c **** 			int checkedRows;
 238:src/pdf417/PDFDetectionResultColumn.c **** 			if (maxRowHeight > 2) 
 1069              		.loc 1 238 7
 1070 07fd 837DE002 		cmpl	$2, -32(%ebp)
 1071 0801 7E11     		jle	L55
 239:src/pdf417/PDFDetectionResultColumn.c **** 			{
 240:src/pdf417/PDFDetectionResultColumn.c **** 				checkedRows = (maxRowHeight - 2) * rowDifference;
GAS LISTING C:\Users\jisu8\AppData\Local\Temp\ccbDR4WJ.s 			page 26


 1072              		.loc 1 240 33
 1073 0803 8B45E0   		movl	-32(%ebp), %eax
 1074 0806 8D50FE   		leal	-2(%eax), %edx
 1075              		.loc 1 240 17
 1076 0809 8B45B8   		movl	-72(%ebp), %eax
 1077 080c 0FAFC2   		imull	%edx, %eax
 1078 080f 8945D0   		movl	%eax, -48(%ebp)
 1079 0812 EB06     		jmp	L56
 1080              	L55:
 241:src/pdf417/PDFDetectionResultColumn.c **** 			}
 242:src/pdf417/PDFDetectionResultColumn.c **** 			else 
 243:src/pdf417/PDFDetectionResultColumn.c **** 			{
 244:src/pdf417/PDFDetectionResultColumn.c **** 				checkedRows = rowDifference;
 1081              		.loc 1 244 17
 1082 0814 8B45B8   		movl	-72(%ebp), %eax
 1083 0817 8945D0   		movl	%eax, -48(%ebp)
 1084              	L56:
 245:src/pdf417/PDFDetectionResultColumn.c **** 			}
 246:src/pdf417/PDFDetectionResultColumn.c **** 
 247:src/pdf417/PDFDetectionResultColumn.c **** 			uint8_t closePreviousCodewordFound;
 248:src/pdf417/PDFDetectionResultColumn.c **** 			if(checkedRows >= codewordsRow)
 1085              		.loc 1 248 6
 1086 081a 8B45D0   		movl	-48(%ebp), %eax
 1087 081d 3B45D4   		cmpl	-44(%ebp), %eax
 1088 0820 7C06     		jl	L57
 249:src/pdf417/PDFDetectionResultColumn.c **** 			{
 250:src/pdf417/PDFDetectionResultColumn.c **** 				closePreviousCodewordFound = 1;
 1089              		.loc 1 250 32
 1090 0822 C645CF01 		movb	$1, -49(%ebp)
 1091 0826 EB04     		jmp	L58
 1092              	L57:
 251:src/pdf417/PDFDetectionResultColumn.c **** 			}
 252:src/pdf417/PDFDetectionResultColumn.c **** 			else
 253:src/pdf417/PDFDetectionResultColumn.c **** 			{
 254:src/pdf417/PDFDetectionResultColumn.c **** 				closePreviousCodewordFound = 0;
 1093              		.loc 1 254 32
 1094 0828 C645CF00 		movb	$0, -49(%ebp)
 1095              	L58:
 1096              	LBB11:
 255:src/pdf417/PDFDetectionResultColumn.c **** 			}
 256:src/pdf417/PDFDetectionResultColumn.c **** 			for (int i = 1; i <= checkedRows && !closePreviousCodewordFound; i++) 
 1097              		.loc 1 256 13
 1098 082c C745C801 		movl	$1, -56(%ebp)
 1098      000000
 1099              		.loc 1 256 4
 1100 0833 EB2D     		jmp	L59
 1101              	L63:
 257:src/pdf417/PDFDetectionResultColumn.c **** 			{
 258:src/pdf417/PDFDetectionResultColumn.c **** 				// there must be (height * rowDifference) number of codewords missing. For now we assume height
 259:src/pdf417/PDFDetectionResultColumn.c **** 				// This should hopefully get rid of most problems already.
 260:src/pdf417/PDFDetectionResultColumn.c **** 				if(codewords[codewordsRow - i].m_hasValue != 0)
 1102              		.loc 1 260 31
 1103 0835 8B45D4   		movl	-44(%ebp), %eax
 1104 0838 2B45C8   		subl	-56(%ebp), %eax
 1105 083b 89C2     		movl	%eax, %edx
 1106              		.loc 1 260 17
 1107 083d 89D0     		movl	%edx, %eax
GAS LISTING C:\Users\jisu8\AppData\Local\Temp\ccbDR4WJ.s 			page 27


 1108 083f 01C0     		addl	%eax, %eax
 1109 0841 01D0     		addl	%edx, %eax
 1110 0843 C1E003   		sall	$3, %eax
 1111 0846 89C2     		movl	%eax, %edx
 1112 0848 8B45C4   		movl	-60(%ebp), %eax
 1113 084b 01D0     		addl	%edx, %eax
 1114              		.loc 1 260 35
 1115 084d 0FB600   		movzbl	(%eax), %eax
 1116              		.loc 1 260 7
 1117 0850 84C0     		testb	%al, %al
 1118 0852 7406     		je	L60
 261:src/pdf417/PDFDetectionResultColumn.c **** 				{
 262:src/pdf417/PDFDetectionResultColumn.c **** 					closePreviousCodewordFound = 1;
 1119              		.loc 1 262 33
 1120 0854 C645CF01 		movb	$1, -49(%ebp)
 1121 0858 EB04     		jmp	L61
 1122              	L60:
 263:src/pdf417/PDFDetectionResultColumn.c **** 				}
 264:src/pdf417/PDFDetectionResultColumn.c **** 				else
 265:src/pdf417/PDFDetectionResultColumn.c **** 				{
 266:src/pdf417/PDFDetectionResultColumn.c **** 					closePreviousCodewordFound = 0;
 1123              		.loc 1 266 33
 1124 085a C645CF00 		movb	$0, -49(%ebp)
 1125              	L61:
 256:src/pdf417/PDFDetectionResultColumn.c **** 			{
 1126              		.loc 1 256 70 discriminator 2
 1127 085e 8345C801 		addl	$1, -56(%ebp)
 1128              	L59:
 256:src/pdf417/PDFDetectionResultColumn.c **** 			{
 1129              		.loc 1 256 4 discriminator 1
 1130 0862 8B45C8   		movl	-56(%ebp), %eax
 1131 0865 3B45D0   		cmpl	-48(%ebp), %eax
 1132 0868 7F06     		jg	L62
 256:src/pdf417/PDFDetectionResultColumn.c **** 			{
 1133              		.loc 1 256 37 discriminator 3
 1134 086a 807DCF00 		cmpb	$0, -49(%ebp)
 1135 086e 74C5     		je	L63
 1136              	L62:
 1137              	LBE11:
 267:src/pdf417/PDFDetectionResultColumn.c **** 				}
 268:src/pdf417/PDFDetectionResultColumn.c **** 			}
 269:src/pdf417/PDFDetectionResultColumn.c **** 
 270:src/pdf417/PDFDetectionResultColumn.c **** 			if (closePreviousCodewordFound) 
 1138              		.loc 1 270 7
 1139 0870 807DCF00 		cmpb	$0, -49(%ebp)
 1140 0874 7418     		je	L64
 271:src/pdf417/PDFDetectionResultColumn.c **** 			{
 272:src/pdf417/PDFDetectionResultColumn.c **** 				codewords[codewordsRow].m_hasValue = 0;
 1141              		.loc 1 272 14
 1142 0876 8B55D4   		movl	-44(%ebp), %edx
 1143 0879 89D0     		movl	%edx, %eax
 1144 087b 01C0     		addl	%eax, %eax
 1145 087d 01D0     		addl	%edx, %eax
 1146 087f C1E003   		sall	$3, %eax
 1147 0882 89C2     		movl	%eax, %edx
 1148 0884 8B45C4   		movl	-60(%ebp), %eax
 1149 0887 01D0     		addl	%edx, %eax
GAS LISTING C:\Users\jisu8\AppData\Local\Temp\ccbDR4WJ.s 			page 28


 1150              		.loc 1 272 40
 1151 0889 C60000   		movb	$0, (%eax)
 1152 088c EB13     		jmp	L48
 1153              	L64:
 273:src/pdf417/PDFDetectionResultColumn.c **** 			}
 274:src/pdf417/PDFDetectionResultColumn.c **** 			else 
 275:src/pdf417/PDFDetectionResultColumn.c **** 			{
 276:src/pdf417/PDFDetectionResultColumn.c **** 				barcodeRow = codeword.m_value._rowNumber;
 1154              		.loc 1 276 16
 1155 088e 8B8550FF 		movl	-176(%ebp), %eax
 1155      FFFF
 1156 0894 8945E4   		movl	%eax, -28(%ebp)
 277:src/pdf417/PDFDetectionResultColumn.c **** 				currentRowHeight = 1;
 1157              		.loc 1 277 22
 1158 0897 C745DC01 		movl	$1, -36(%ebp)
 1158      000000
 1159 089e EB01     		jmp	L48
 1160              	L67:
 1161              	LBE10:
 201:src/pdf417/PDFDetectionResultColumn.c **** 		}
 1162              		.loc 1 201 4
 1163 08a0 90       		nop
 1164              	L48:
 1165              	LBE9:
 197:src/pdf417/PDFDetectionResultColumn.c **** 	{
 1166              		.loc 1 197 72 discriminator 2
 1167 08a1 8345D401 		addl	$1, -44(%ebp)
 1168              	L46:
 197:src/pdf417/PDFDetectionResultColumn.c **** 	{
 1169              		.loc 1 197 2 discriminator 1
 1170 08a5 8B45D4   		movl	-44(%ebp), %eax
 1171 08a8 3B45BC   		cmpl	-68(%ebp), %eax
 1172 08ab 0F8C30FE 		jl	L65
 1172      FFFF
 1173 08b1 EB01     		jmp	L68
 1174              	L66:
 1175              	LBE8:
 180:src/pdf417/PDFDetectionResultColumn.c **** 	}
 1176              		.loc 1 180 3
 1177 08b3 90       		nop
 1178              	L68:
 278:src/pdf417/PDFDetectionResultColumn.c **** 			}
 279:src/pdf417/PDFDetectionResultColumn.c **** 		}
 280:src/pdf417/PDFDetectionResultColumn.c **** 	}
 281:src/pdf417/PDFDetectionResultColumn.c **** 
 282:src/pdf417/PDFDetectionResultColumn.c **** }
 1179              		.loc 1 282 1
 1180 08b4 81C4DC00 		addl	$220, %esp
 1180      0000
 1181 08ba 5B       		popl	%ebx
 1182              		.cfi_restore 3
 1183 08bb 5E       		popl	%esi
 1184              		.cfi_restore 6
 1185 08bc 5F       		popl	%edi
 1186              		.cfi_restore 7
 1187 08bd 5D       		popl	%ebp
 1188              	LCFI26:
GAS LISTING C:\Users\jisu8\AppData\Local\Temp\ccbDR4WJ.s 			page 29


 1189              		.cfi_restore 5
 1190              		.cfi_def_cfa 4, 4
 1191 08be C3       		ret
 1192              		.cfi_endproc
 1193              	LFE24:
 1194              		.section .rdata,"dr"
 1195 007d 000000   		.align 4
 1196              	LC4:
 1197 0080 44657465 		.ascii "DetectionResultColumn::adjustIncompleteIndicatorColumnRowNumbers: \0"
 1197      6374696F 
 1197      6E526573 
 1197      756C7443 
 1197      6F6C756D 
 1198              		.text
 1199              		.globl	_adjustIncompleteIndicatorColumnRowNumbers
 1201              	_adjustIncompleteIndicatorColumnRowNumbers:
 1202              	LFB25:
 283:src/pdf417/PDFDetectionResultColumn.c **** 
 284:src/pdf417/PDFDetectionResultColumn.c **** // TODO maybe we should add missing codewords to store the correct row number to make
 285:src/pdf417/PDFDetectionResultColumn.c **** // finding row numbers for other columns easier
 286:src/pdf417/PDFDetectionResultColumn.c **** // use row height count to make detection of invalid row numbers more reliable
 287:src/pdf417/PDFDetectionResultColumn.c **** void adjustIncompleteIndicatorColumnRowNumbers(DetectionResultColumn_t * rowIndicatorColumn , const
 288:src/pdf417/PDFDetectionResultColumn.c **** {
 1203              		.loc 1 288 1
 1204              		.cfi_startproc
 1205 08bf 55       		pushl	%ebp
 1206              	LCFI27:
 1207              		.cfi_def_cfa_offset 8
 1208              		.cfi_offset 5, -8
 1209 08c0 89E5     		movl	%esp, %ebp
 1210              	LCFI28:
 1211              		.cfi_def_cfa_register 5
 1212 08c2 57       		pushl	%edi
 1213 08c3 56       		pushl	%esi
 1214 08c4 53       		pushl	%ebx
 1215 08c5 81ECBC00 		subl	$188, %esp
 1215      0000
 1216              		.cfi_offset 7, -12
 1217              		.cfi_offset 6, -16
 1218              		.cfi_offset 3, -20
 289:src/pdf417/PDFDetectionResultColumn.c **** 
 290:src/pdf417/PDFDetectionResultColumn.c **** 	printf("DetectionResultColumn::adjustIncompleteIndicatorColumnRowNumbers: \n");
 1219              		.loc 1 290 2
 1220 08cb C7042480 		movl	$LC4, (%esp)
 1220      000000
 1221 08d2 E8000000 		call	_puts
 1221      00
 291:src/pdf417/PDFDetectionResultColumn.c **** 	
 292:src/pdf417/PDFDetectionResultColumn.c **** 	if (!isRowIndicator(rowIndicatorColumn))
 1222              		.loc 1 292 7
 1223 08d7 8B4508   		movl	8(%ebp), %eax
 1224 08da 890424   		movl	%eax, (%esp)
 1225 08dd E80FF8FF 		call	_isRowIndicator
 1225      FF
 1226              		.loc 1 292 5
 1227 08e2 84C0     		testb	%al, %al
 1228 08e4 0F843402 		je	L83
GAS LISTING C:\Users\jisu8\AppData\Local\Temp\ccbDR4WJ.s 			page 30


 1228      0000
 293:src/pdf417/PDFDetectionResultColumn.c **** 	{
 294:src/pdf417/PDFDetectionResultColumn.c **** 		return;
 295:src/pdf417/PDFDetectionResultColumn.c **** 	}
 296:src/pdf417/PDFDetectionResultColumn.c **** 
 297:src/pdf417/PDFDetectionResultColumn.c **** 	const BoundingBox_t bb = rowIndicatorColumn->m_value._boundingBox;
 1229              		.loc 1 297 22
 1230 08ea 8B5508   		movl	8(%ebp), %edx
 1231 08ed 8D857CFF 		leal	-132(%ebp), %eax
 1231      FFFF
 1232 08f3 83C204   		addl	$4, %edx
 1233 08f6 B9130000 		movl	$19, %ecx
 1233      00
 1234 08fb 89C7     		movl	%eax, %edi
 1235 08fd 89D6     		movl	%edx, %esi
 1236 08ff F3A5     		rep movsl
 298:src/pdf417/PDFDetectionResultColumn.c **** 	ResultPoint_t top = isLeftRowIndicator(rowIndicatorColumn) ? topLeft(&bb) : topRight(&bb);
 1237              		.loc 1 298 22
 1238 0901 8B4508   		movl	8(%ebp), %eax
 1239 0904 890424   		movl	%eax, (%esp)
 1240 0907 E8F8F7FF 		call	_isLeftRowIndicator
 1240      FF
 1241              		.loc 1 298 16
 1242 090c 84C0     		testb	%al, %al
 1243 090e 741A     		je	L72
 1244              		.loc 1 298 63 discriminator 1
 1245 0910 8D8570FF 		leal	-144(%ebp), %eax
 1245      FFFF
 1246 0916 8D957CFF 		leal	-132(%ebp), %edx
 1246      FFFF
 1247 091c 89542404 		movl	%edx, 4(%esp)
 1248 0920 890424   		movl	%eax, (%esp)
 1249 0923 E8000000 		call	_topLeft
 1249      00
 1250 0928 EB18     		jmp	L73
 1251              	L72:
 1252              		.loc 1 298 78 discriminator 2
 1253 092a 8D8570FF 		leal	-144(%ebp), %eax
 1253      FFFF
 1254 0930 8D957CFF 		leal	-132(%ebp), %edx
 1254      FFFF
 1255 0936 89542404 		movl	%edx, 4(%esp)
 1256 093a 890424   		movl	%eax, (%esp)
 1257 093d E8000000 		call	_topRight
 1257      00
 1258              	L73:
 299:src/pdf417/PDFDetectionResultColumn.c **** 	ResultPoint_t bottom = isLeftRowIndicator(rowIndicatorColumn) ? bottomLeft(&bb) : bottomRight(&bb)
 1259              		.loc 1 299 25
 1260 0942 8B4508   		movl	8(%ebp), %eax
 1261 0945 890424   		movl	%eax, (%esp)
 1262 0948 E8B7F7FF 		call	_isLeftRowIndicator
 1262      FF
 1263              		.loc 1 299 16
 1264 094d 84C0     		testb	%al, %al
 1265 094f 741A     		je	L74
 1266              		.loc 1 299 66 discriminator 1
 1267 0951 8D8564FF 		leal	-156(%ebp), %eax
GAS LISTING C:\Users\jisu8\AppData\Local\Temp\ccbDR4WJ.s 			page 31


 1267      FFFF
 1268 0957 8D957CFF 		leal	-132(%ebp), %edx
 1268      FFFF
 1269 095d 89542404 		movl	%edx, 4(%esp)
 1270 0961 890424   		movl	%eax, (%esp)
 1271 0964 E8000000 		call	_bottomLeft
 1271      00
 1272 0969 EB18     		jmp	L75
 1273              	L74:
 1274              		.loc 1 299 84 discriminator 2
 1275 096b 8D8564FF 		leal	-156(%ebp), %eax
 1275      FFFF
 1276 0971 8D957CFF 		leal	-132(%ebp), %edx
 1276      FFFF
 1277 0977 89542404 		movl	%edx, 4(%esp)
 1278 097b 890424   		movl	%eax, (%esp)
 1279 097e E8000000 		call	_bottomRight
 1279      00
 1280              	L75:
 300:src/pdf417/PDFDetectionResultColumn.c **** 	int firstRow = (int)top.m_value.y - bb.m_value._minY;
 1281              		.loc 1 300 33
 1282 0983 D98578FF 		flds	-136(%ebp)
 1282      FFFF
 1283              		.loc 1 300 17
 1284 0989 D9BD56FF 		fnstcw	-170(%ebp)
 1284      FFFF
 1285 098f 0FB78556 		movzwl	-170(%ebp), %eax
 1285      FFFFFF
 1286 0996 80CC0C   		orb	$12, %ah
 1287 0999 66898554 		movw	%ax, -172(%ebp)
 1287      FFFFFF
 1288 09a0 D9AD54FF 		fldcw	-172(%ebp)
 1288      FFFF
 1289 09a6 DB9D50FF 		fistpl	-176(%ebp)
 1289      FFFF
 1290 09ac D9AD56FF 		fldcw	-170(%ebp)
 1290      FFFF
 1291 09b2 8B9550FF 		movl	-176(%ebp), %edx
 1291      FFFF
 1292              		.loc 1 300 48
 1293 09b8 8B45C0   		movl	-64(%ebp), %eax
 1294              		.loc 1 300 6
 1295 09bb 29C2     		subl	%eax, %edx
 1296 09bd 89D0     		movl	%edx, %eax
 1297 09bf 8945D4   		movl	%eax, -44(%ebp)
 301:src/pdf417/PDFDetectionResultColumn.c **** 	int lastRow = (int)bottom.m_value.y - bb.m_value._minY;
 1298              		.loc 1 301 35
 1299 09c2 D9856CFF 		flds	-148(%ebp)
 1299      FFFF
 1300              		.loc 1 301 16
 1301 09c8 D9AD54FF 		fldcw	-172(%ebp)
 1301      FFFF
 1302 09ce DB9D50FF 		fistpl	-176(%ebp)
 1302      FFFF
 1303 09d4 D9AD56FF 		fldcw	-170(%ebp)
 1303      FFFF
 1304 09da 8B9550FF 		movl	-176(%ebp), %edx
GAS LISTING C:\Users\jisu8\AppData\Local\Temp\ccbDR4WJ.s 			page 32


 1304      FFFF
 1305              		.loc 1 301 50
 1306 09e0 8B45C0   		movl	-64(%ebp), %eax
 1307              		.loc 1 301 6
 1308 09e3 29C2     		subl	%eax, %edx
 1309 09e5 89D0     		movl	%edx, %eax
 1310 09e7 8945D0   		movl	%eax, -48(%ebp)
 302:src/pdf417/PDFDetectionResultColumn.c **** 	Codeword_t * codewords = rowIndicatorColumn->m_value._codewords;
 1311              		.loc 1 302 15
 1312 09ea 8B4508   		movl	8(%ebp), %eax
 1313 09ed 83C050   		addl	$80, %eax
 1314 09f0 8945CC   		movl	%eax, -52(%ebp)
 303:src/pdf417/PDFDetectionResultColumn.c **** 	int barcodeRow = -1;
 1315              		.loc 1 303 6
 1316 09f3 C745E4FF 		movl	$-1, -28(%ebp)
 1316      FFFFFF
 304:src/pdf417/PDFDetectionResultColumn.c **** 	int maxRowHeight = 1;
 1317              		.loc 1 304 6
 1318 09fa C745E001 		movl	$1, -32(%ebp)
 1318      000000
 305:src/pdf417/PDFDetectionResultColumn.c **** 	int currentRowHeight = 0;
 1319              		.loc 1 305 6
 1320 0a01 C745DC00 		movl	$0, -36(%ebp)
 1320      000000
 1321              	LBB12:
 306:src/pdf417/PDFDetectionResultColumn.c **** 	for (int codewordsRow = firstRow; codewordsRow < lastRow; codewordsRow++) 
 1322              		.loc 1 306 11
 1323 0a08 8B45D4   		movl	-44(%ebp), %eax
 1324 0a0b 8945D8   		movl	%eax, -40(%ebp)
 1325              		.loc 1 306 2
 1326 0a0e E9FD0000 		jmp	L76
 1326      00
 1327              	L82:
 1328              	LBB13:
 307:src/pdf417/PDFDetectionResultColumn.c **** 	{
 308:src/pdf417/PDFDetectionResultColumn.c **** 		if (codewords[codewordsRow].m_hasValue == 0) 
 1329              		.loc 1 308 16
 1330 0a13 8B55D8   		movl	-40(%ebp), %edx
 1331 0a16 89D0     		movl	%edx, %eax
 1332 0a18 01C0     		addl	%eax, %eax
 1333 0a1a 01D0     		addl	%edx, %eax
 1334 0a1c C1E003   		sall	$3, %eax
 1335 0a1f 89C2     		movl	%eax, %edx
 1336 0a21 8B45CC   		movl	-52(%ebp), %eax
 1337 0a24 01D0     		addl	%edx, %eax
 1338              		.loc 1 308 30
 1339 0a26 0FB600   		movzbl	(%eax), %eax
 1340              		.loc 1 308 6
 1341 0a29 84C0     		testb	%al, %al
 1342 0a2b 0F84DA00 		je	L84
 1342      0000
 309:src/pdf417/PDFDetectionResultColumn.c **** 		{
 310:src/pdf417/PDFDetectionResultColumn.c **** 			continue;
 311:src/pdf417/PDFDetectionResultColumn.c **** 		}
 312:src/pdf417/PDFDetectionResultColumn.c **** 
 313:src/pdf417/PDFDetectionResultColumn.c **** 		setRowNumberAsRowIndicatorColumn(codewords+codewordsRow);
 1343              		.loc 1 313 45
GAS LISTING C:\Users\jisu8\AppData\Local\Temp\ccbDR4WJ.s 			page 33


 1344 0a31 8B55D8   		movl	-40(%ebp), %edx
 1345 0a34 89D0     		movl	%edx, %eax
 1346 0a36 01C0     		addl	%eax, %eax
 1347 0a38 01D0     		addl	%edx, %eax
 1348 0a3a C1E003   		sall	$3, %eax
 1349 0a3d 89C2     		movl	%eax, %edx
 1350              		.loc 1 313 3
 1351 0a3f 8B45CC   		movl	-52(%ebp), %eax
 1352 0a42 01D0     		addl	%edx, %eax
 1353 0a44 890424   		movl	%eax, (%esp)
 1354 0a47 E8430200 		call	_setRowNumberAsRowIndicatorColumn
 1354      00
 314:src/pdf417/PDFDetectionResultColumn.c **** 
 315:src/pdf417/PDFDetectionResultColumn.c **** 		int rowDifference = codewords[codewordsRow].m_value._rowNumber - barcodeRow;
 1355              		.loc 1 315 32
 1356 0a4c 8B55D8   		movl	-40(%ebp), %edx
 1357 0a4f 89D0     		movl	%edx, %eax
 1358 0a51 01C0     		addl	%eax, %eax
 1359 0a53 01D0     		addl	%edx, %eax
 1360 0a55 C1E003   		sall	$3, %eax
 1361 0a58 89C2     		movl	%eax, %edx
 1362 0a5a 8B45CC   		movl	-52(%ebp), %eax
 1363 0a5d 01D0     		addl	%edx, %eax
 1364              		.loc 1 315 54
 1365 0a5f 8B4014   		movl	20(%eax), %eax
 1366              		.loc 1 315 7
 1367 0a62 2B45E4   		subl	-28(%ebp), %eax
 1368 0a65 8945C8   		movl	%eax, -56(%ebp)
 316:src/pdf417/PDFDetectionResultColumn.c **** 
 317:src/pdf417/PDFDetectionResultColumn.c **** 		// TODO improve handling with case where first row indicator doesn't start with 0
 318:src/pdf417/PDFDetectionResultColumn.c **** 
 319:src/pdf417/PDFDetectionResultColumn.c **** 		if (rowDifference == 0) 
 1369              		.loc 1 319 6
 1370 0a68 837DC800 		cmpl	$0, -56(%ebp)
 1371 0a6c 7509     		jne	L79
 320:src/pdf417/PDFDetectionResultColumn.c **** 		{
 321:src/pdf417/PDFDetectionResultColumn.c **** 			currentRowHeight++;
 1372              		.loc 1 321 20
 1373 0a6e 8345DC01 		addl	$1, -36(%ebp)
 1374 0a72 E9950000 		jmp	L78
 1374      00
 1375              	L79:
 322:src/pdf417/PDFDetectionResultColumn.c **** 		}
 323:src/pdf417/PDFDetectionResultColumn.c **** 		else if (rowDifference == 1) 
 1376              		.loc 1 323 11
 1377 0a77 837DC801 		cmpl	$1, -56(%ebp)
 1378 0a7b 752F     		jne	L80
 324:src/pdf417/PDFDetectionResultColumn.c **** 		{
 325:src/pdf417/PDFDetectionResultColumn.c **** 			maxRowHeight = __max(maxRowHeight, currentRowHeight);
 1379              		.loc 1 325 17
 1380 0a7d 8B45E0   		movl	-32(%ebp), %eax
 1381 0a80 3945DC   		cmpl	%eax, -36(%ebp)
 1382 0a83 0F4D45DC 		cmovge	-36(%ebp), %eax
 1383 0a87 8945E0   		movl	%eax, -32(%ebp)
 326:src/pdf417/PDFDetectionResultColumn.c **** 			currentRowHeight = 1;
 1384              		.loc 1 326 21
 1385 0a8a C745DC01 		movl	$1, -36(%ebp)
GAS LISTING C:\Users\jisu8\AppData\Local\Temp\ccbDR4WJ.s 			page 34


 1385      000000
 327:src/pdf417/PDFDetectionResultColumn.c **** 			barcodeRow = codewords[codewordsRow].m_value._rowNumber;
 1386              		.loc 1 327 26
 1387 0a91 8B55D8   		movl	-40(%ebp), %edx
 1388 0a94 89D0     		movl	%edx, %eax
 1389 0a96 01C0     		addl	%eax, %eax
 1390 0a98 01D0     		addl	%edx, %eax
 1391 0a9a C1E003   		sall	$3, %eax
 1392 0a9d 89C2     		movl	%eax, %edx
 1393 0a9f 8B45CC   		movl	-52(%ebp), %eax
 1394 0aa2 01D0     		addl	%edx, %eax
 1395              		.loc 1 327 15
 1396 0aa4 8B4014   		movl	20(%eax), %eax
 1397 0aa7 8945E4   		movl	%eax, -28(%ebp)
 1398 0aaa EB60     		jmp	L78
 1399              	L80:
 328:src/pdf417/PDFDetectionResultColumn.c **** 		}
 329:src/pdf417/PDFDetectionResultColumn.c **** 		else if (codewords[codewordsRow].m_value._rowNumber >= rowCount(barcodeMetadata)) 
 1400              		.loc 1 329 21
 1401 0aac 8B55D8   		movl	-40(%ebp), %edx
 1402 0aaf 89D0     		movl	%edx, %eax
 1403 0ab1 01C0     		addl	%eax, %eax
 1404 0ab3 01D0     		addl	%edx, %eax
 1405 0ab5 C1E003   		sall	$3, %eax
 1406 0ab8 89C2     		movl	%eax, %edx
 1407 0aba 8B45CC   		movl	-52(%ebp), %eax
 1408 0abd 01D0     		addl	%edx, %eax
 1409              		.loc 1 329 43
 1410 0abf 8B5814   		movl	20(%eax), %ebx
 1411              		.loc 1 329 58
 1412 0ac2 8B450C   		movl	12(%ebp), %eax
 1413 0ac5 890424   		movl	%eax, (%esp)
 1414 0ac8 E8000000 		call	_rowCount
 1414      00
 1415              		.loc 1 329 11
 1416 0acd 39C3     		cmpl	%eax, %ebx
 1417 0acf 7C18     		jl	L81
 330:src/pdf417/PDFDetectionResultColumn.c **** 		{
 331:src/pdf417/PDFDetectionResultColumn.c **** 			codewords[codewordsRow].m_hasValue = 0;
 1418              		.loc 1 331 13
 1419 0ad1 8B55D8   		movl	-40(%ebp), %edx
 1420 0ad4 89D0     		movl	%edx, %eax
 1421 0ad6 01C0     		addl	%eax, %eax
 1422 0ad8 01D0     		addl	%edx, %eax
 1423 0ada C1E003   		sall	$3, %eax
 1424 0add 89C2     		movl	%eax, %edx
 1425 0adf 8B45CC   		movl	-52(%ebp), %eax
 1426 0ae2 01D0     		addl	%edx, %eax
 1427              		.loc 1 331 39
 1428 0ae4 C60000   		movb	$0, (%eax)
 1429 0ae7 EB23     		jmp	L78
 1430              	L81:
 332:src/pdf417/PDFDetectionResultColumn.c **** 		}
 333:src/pdf417/PDFDetectionResultColumn.c **** 		else 
 334:src/pdf417/PDFDetectionResultColumn.c **** 		{
 335:src/pdf417/PDFDetectionResultColumn.c **** 			barcodeRow = codewords[codewordsRow].m_value._rowNumber;
 1431              		.loc 1 335 26
GAS LISTING C:\Users\jisu8\AppData\Local\Temp\ccbDR4WJ.s 			page 35


 1432 0ae9 8B55D8   		movl	-40(%ebp), %edx
 1433 0aec 89D0     		movl	%edx, %eax
 1434 0aee 01C0     		addl	%eax, %eax
 1435 0af0 01D0     		addl	%edx, %eax
 1436 0af2 C1E003   		sall	$3, %eax
 1437 0af5 89C2     		movl	%eax, %edx
 1438 0af7 8B45CC   		movl	-52(%ebp), %eax
 1439 0afa 01D0     		addl	%edx, %eax
 1440              		.loc 1 335 15
 1441 0afc 8B4014   		movl	20(%eax), %eax
 1442 0aff 8945E4   		movl	%eax, -28(%ebp)
 336:src/pdf417/PDFDetectionResultColumn.c **** 			currentRowHeight = 1;
 1443              		.loc 1 336 21
 1444 0b02 C745DC01 		movl	$1, -36(%ebp)
 1444      000000
 1445 0b09 EB01     		jmp	L78
 1446              	L84:
 310:src/pdf417/PDFDetectionResultColumn.c **** 		}
 1447              		.loc 1 310 4
 1448 0b0b 90       		nop
 1449              	L78:
 1450              	LBE13:
 306:src/pdf417/PDFDetectionResultColumn.c **** 	{
 1451              		.loc 1 306 72 discriminator 2
 1452 0b0c 8345D801 		addl	$1, -40(%ebp)
 1453              	L76:
 306:src/pdf417/PDFDetectionResultColumn.c **** 	{
 1454              		.loc 1 306 2 discriminator 1
 1455 0b10 8B45D8   		movl	-40(%ebp), %eax
 1456 0b13 3B45D0   		cmpl	-48(%ebp), %eax
 1457 0b16 0F8CF7FE 		jl	L82
 1457      FFFF
 1458 0b1c EB01     		jmp	L85
 1459              	L83:
 1460              	LBE12:
 294:src/pdf417/PDFDetectionResultColumn.c **** 	}
 1461              		.loc 1 294 3
 1462 0b1e 90       		nop
 1463              	L85:
 337:src/pdf417/PDFDetectionResultColumn.c **** 		}
 338:src/pdf417/PDFDetectionResultColumn.c **** 	}
 339:src/pdf417/PDFDetectionResultColumn.c **** }
 1464              		.loc 1 339 1
 1465 0b1f 81C4BC00 		addl	$188, %esp
 1465      0000
 1466 0b25 5B       		popl	%ebx
 1467              		.cfi_restore 3
 1468 0b26 5E       		popl	%esi
 1469              		.cfi_restore 6
 1470 0b27 5F       		popl	%edi
 1471              		.cfi_restore 7
 1472 0b28 5D       		popl	%ebp
 1473              	LCFI29:
 1474              		.cfi_restore 5
 1475              		.cfi_def_cfa 4, 4
 1476 0b29 C3       		ret
 1477              		.cfi_endproc
GAS LISTING C:\Users\jisu8\AppData\Local\Temp\ccbDR4WJ.s 			page 36


 1478              	LFE25:
 1479              		.section .rdata,"dr"
 1480 00c3 00       		.align 4
 1481              	LC5:
 1482 00c4 44657465 		.ascii "DetectionResultColumn::getRowHeights : \0"
 1482      6374696F 
 1482      6E526573 
 1482      756C7443 
 1482      6F6C756D 
 1483              		.text
 1484              		.globl	_getRowHeights
 1486              	_getRowHeights:
 1487              	LFB26:
 340:src/pdf417/PDFDetectionResultColumn.c **** 
 341:src/pdf417/PDFDetectionResultColumn.c **** // This is example of bad design, a getter should not modify object's state
 342:src/pdf417/PDFDetectionResultColumn.c **** uint8_t getRowHeights(DetectionResultColumn_t * rowIndicatorColumn,int * result,int length,int * si
 343:src/pdf417/PDFDetectionResultColumn.c **** {
 1488              		.loc 1 343 1
 1489              		.cfi_startproc
 1490 0b2a 55       		pushl	%ebp
 1491              	LCFI30:
 1492              		.cfi_def_cfa_offset 8
 1493              		.cfi_offset 5, -8
 1494 0b2b 89E5     		movl	%esp, %ebp
 1495              	LCFI31:
 1496              		.cfi_def_cfa_register 5
 1497 0b2d 53       		pushl	%ebx
 1498 0b2e 83EC44   		subl	$68, %esp
 1499              		.cfi_offset 3, -12
 1500              		.loc 1 343 1
 1501 0b31 89E0     		movl	%esp, %eax
 1502 0b33 89C3     		movl	%eax, %ebx
 344:src/pdf417/PDFDetectionResultColumn.c **** 	printf("DetectionResultColumn::getRowHeights : \n");
 1503              		.loc 1 344 2
 1504 0b35 C70424C4 		movl	$LC5, (%esp)
 1504      000000
 1505 0b3c E8000000 		call	_puts
 1505      00
 345:src/pdf417/PDFDetectionResultColumn.c **** 
 346:src/pdf417/PDFDetectionResultColumn.c **** 	BarcodeMetadata_t barcodeMetadata;
 347:src/pdf417/PDFDetectionResultColumn.c **** 
 348:src/pdf417/PDFDetectionResultColumn.c **** 	if (!getBarcodeMetadata(rowIndicatorColumn,&barcodeMetadata,length)) 
 1506              		.loc 1 348 7
 1507 0b41 8B4510   		movl	16(%ebp), %eax
 1508 0b44 89442408 		movl	%eax, 8(%esp)
 1509 0b48 8D45C8   		leal	-56(%ebp), %eax
 1510 0b4b 89442404 		movl	%eax, 4(%esp)
 1511 0b4f 8B4508   		movl	8(%ebp), %eax
 1512 0b52 890424   		movl	%eax, (%esp)
 1513 0b55 E8830100 		call	_getBarcodeMetadata
 1513      00
 1514              		.loc 1 348 5
 1515 0b5a 84C0     		testb	%al, %al
 1516 0b5c 750A     		jne	L87
 349:src/pdf417/PDFDetectionResultColumn.c **** 	{
 350:src/pdf417/PDFDetectionResultColumn.c **** 		return 0;
 1517              		.loc 1 350 10
GAS LISTING C:\Users\jisu8\AppData\Local\Temp\ccbDR4WJ.s 			page 37


 1518 0b5e B8000000 		movl	$0, %eax
 1518      00
 1519 0b63 E9200100 		jmp	L88
 1519      00
 1520              	L87:
 351:src/pdf417/PDFDetectionResultColumn.c **** 	}
 352:src/pdf417/PDFDetectionResultColumn.c **** 
 353:src/pdf417/PDFDetectionResultColumn.c **** 	adjustIncompleteIndicatorColumnRowNumbers(rowIndicatorColumn,&barcodeMetadata);
 1521              		.loc 1 353 2
 1522 0b68 8D45C8   		leal	-56(%ebp), %eax
 1523 0b6b 89442404 		movl	%eax, 4(%esp)
 1524 0b6f 8B4508   		movl	8(%ebp), %eax
 1525 0b72 890424   		movl	%eax, (%esp)
 1526 0b75 E845FDFF 		call	_adjustIncompleteIndicatorColumnRowNumbers
 1526      FF
 354:src/pdf417/PDFDetectionResultColumn.c **** 
 355:src/pdf417/PDFDetectionResultColumn.c **** 	int sizeRow = rowCount(&barcodeMetadata);
 1527              		.loc 1 355 16
 1528 0b7a 8D45C8   		leal	-56(%ebp), %eax
 1529 0b7d 890424   		movl	%eax, (%esp)
 1530 0b80 E8000000 		call	_rowCount
 1530      00
 1531 0b85 8945EC   		movl	%eax, -20(%ebp)
 356:src/pdf417/PDFDetectionResultColumn.c **** 	int ret[sizeRow];
 1532              		.loc 1 356 2
 1533 0b88 8B45EC   		movl	-20(%ebp), %eax
 1534              		.loc 1 356 6
 1535 0b8b 8D50FF   		leal	-1(%eax), %edx
 1536 0b8e 8955E8   		movl	%edx, -24(%ebp)
 1537 0b91 8D148500 		leal	0(,%eax,4), %edx
 1537      000000
 1538 0b98 B8100000 		movl	$16, %eax
 1538      00
 1539 0b9d 83E801   		subl	$1, %eax
 1540 0ba0 01D0     		addl	%edx, %eax
 1541 0ba2 B9100000 		movl	$16, %ecx
 1541      00
 1542 0ba7 BA000000 		movl	$0, %edx
 1542      00
 1543 0bac F7F1     		divl	%ecx
 1544 0bae 6BC010   		imull	$16, %eax, %eax
 1545 0bb1 E8000000 		call	___chkstk_ms
 1545      00
 1546 0bb6 29C4     		subl	%eax, %esp
 1547 0bb8 8D44240C 		leal	12(%esp), %eax
 1548 0bbc 83C003   		addl	$3, %eax
 1549 0bbf C1E802   		shrl	$2, %eax
 1550 0bc2 C1E002   		sall	$2, %eax
 1551 0bc5 8945E4   		movl	%eax, -28(%ebp)
 357:src/pdf417/PDFDetectionResultColumn.c **** 	fill(sizeRow,ret,0);
 1552              		.loc 1 357 2
 1553 0bc8 8B45E4   		movl	-28(%ebp), %eax
 1554 0bcb C7442408 		movl	$0, 8(%esp)
 1554      00000000 
 1555 0bd3 89442404 		movl	%eax, 4(%esp)
 1556 0bd7 8B45EC   		movl	-20(%ebp), %eax
 1557 0bda 890424   		movl	%eax, (%esp)
GAS LISTING C:\Users\jisu8\AppData\Local\Temp\ccbDR4WJ.s 			page 38


 1558 0bdd E8000000 		call	_fill
 1558      00
 1559              	LBB14:
 358:src/pdf417/PDFDetectionResultColumn.c **** 	for (int i=0;i<length;i++) 
 1560              		.loc 1 358 11
 1561 0be2 C745F000 		movl	$0, -16(%ebp)
 1561      000000
 1562              		.loc 1 358 2
 1563 0be9 EB58     		jmp	L89
 1564              	L92:
 1565              	LBB15:
 359:src/pdf417/PDFDetectionResultColumn.c **** 	{
 360:src/pdf417/PDFDetectionResultColumn.c **** 		Codeword_t * item = (rowIndicatorColumn->m_value._codewords+i);
 1566              		.loc 1 360 24
 1567 0beb 8B4508   		movl	8(%ebp), %eax
 1568 0bee 8D4850   		leal	80(%eax), %ecx
 1569              		.loc 1 360 62
 1570 0bf1 8B55F0   		movl	-16(%ebp), %edx
 1571 0bf4 89D0     		movl	%edx, %eax
 1572 0bf6 01C0     		addl	%eax, %eax
 1573 0bf8 01D0     		addl	%edx, %eax
 1574 0bfa C1E003   		sall	$3, %eax
 1575              		.loc 1 360 16
 1576 0bfd 01C8     		addl	%ecx, %eax
 1577 0bff 8945E0   		movl	%eax, -32(%ebp)
 361:src/pdf417/PDFDetectionResultColumn.c **** 		if (item->m_hasValue != 0) 
 1578              		.loc 1 361 11
 1579 0c02 8B45E0   		movl	-32(%ebp), %eax
 1580 0c05 0FB600   		movzbl	(%eax), %eax
 1581              		.loc 1 361 6
 1582 0c08 84C0     		testb	%al, %al
 1583 0c0a 7433     		je	L90
 1584              	LBB16:
 362:src/pdf417/PDFDetectionResultColumn.c **** 		{
 363:src/pdf417/PDFDetectionResultColumn.c **** 			uint64_t rowNumber = item->m_value._rowNumber;
 1585              		.loc 1 363 38
 1586 0c0c 8B45E0   		movl	-32(%ebp), %eax
 1587 0c0f 8B4014   		movl	20(%eax), %eax
 1588              		.loc 1 363 13
 1589 0c12 99       		cltd
 1590 0c13 8945D8   		movl	%eax, -40(%ebp)
 1591 0c16 8955DC   		movl	%edx, -36(%ebp)
 364:src/pdf417/PDFDetectionResultColumn.c **** 			if (rowNumber >= sizeRow) 
 1592              		.loc 1 364 18
 1593 0c19 8B45EC   		movl	-20(%ebp), %eax
 1594 0c1c 99       		cltd
 1595              		.loc 1 364 7
 1596 0c1d 8B4DDC   		movl	-36(%ebp), %ecx
 1597 0c20 3945D8   		cmpl	%eax, -40(%ebp)
 1598 0c23 19D1     		sbbl	%edx, %ecx
 1599 0c25 7317     		jnc	L96
 365:src/pdf417/PDFDetectionResultColumn.c **** 			{
 366:src/pdf417/PDFDetectionResultColumn.c **** 				// We have more rows than the barcode metadata allows for, ignore them.
 367:src/pdf417/PDFDetectionResultColumn.c **** 				continue;
 368:src/pdf417/PDFDetectionResultColumn.c **** 			}
 369:src/pdf417/PDFDetectionResultColumn.c **** 			ret[rowNumber]++;
 1600              		.loc 1 369 7
GAS LISTING C:\Users\jisu8\AppData\Local\Temp\ccbDR4WJ.s 			page 39


 1601 0c27 8B45E4   		movl	-28(%ebp), %eax
 1602 0c2a 8B55D8   		movl	-40(%ebp), %edx
 1603 0c2d 8B0490   		movl	(%eax,%edx,4), %eax
 1604              		.loc 1 369 18
 1605 0c30 8D4801   		leal	1(%eax), %ecx
 1606 0c33 8B45E4   		movl	-28(%ebp), %eax
 1607 0c36 8B55D8   		movl	-40(%ebp), %edx
 1608 0c39 890C90   		movl	%ecx, (%eax,%edx,4)
 1609 0c3c EB01     		jmp	L90
 1610              	L96:
 367:src/pdf417/PDFDetectionResultColumn.c **** 			}
 1611              		.loc 1 367 5
 1612 0c3e 90       		nop
 1613              	L90:
 1614              	LBE16:
 1615              	LBE15:
 358:src/pdf417/PDFDetectionResultColumn.c **** 	{
 1616              		.loc 1 358 25 discriminator 2
 1617 0c3f 8345F001 		addl	$1, -16(%ebp)
 1618              	L89:
 358:src/pdf417/PDFDetectionResultColumn.c **** 	{
 1619              		.loc 1 358 2 discriminator 1
 1620 0c43 8B45F0   		movl	-16(%ebp), %eax
 1621 0c46 3B4510   		cmpl	16(%ebp), %eax
 1622 0c49 7CA0     		jl	L92
 1623              	LBE14:
 1624              	LBB17:
 370:src/pdf417/PDFDetectionResultColumn.c **** 		} // else throw exception?
 371:src/pdf417/PDFDetectionResultColumn.c **** 	}
 372:src/pdf417/PDFDetectionResultColumn.c **** 
 373:src/pdf417/PDFDetectionResultColumn.c **** 	for(int i=0;i<sizeRow;i++)
 1625              		.loc 1 373 10
 1626 0c4b C745F400 		movl	$0, -12(%ebp)
 1626      000000
 1627              		.loc 1 373 2
 1628 0c52 EB1F     		jmp	L93
 1629              	L94:
 374:src/pdf417/PDFDetectionResultColumn.c **** 	{
 375:src/pdf417/PDFDetectionResultColumn.c **** 		result[i] = ret[i];
 1630              		.loc 1 375 9 discriminator 3
 1631 0c54 8B45F4   		movl	-12(%ebp), %eax
 1632 0c57 8D148500 		leal	0(,%eax,4), %edx
 1632      000000
 1633 0c5e 8B450C   		movl	12(%ebp), %eax
 1634 0c61 8D0C02   		leal	(%edx,%eax), %ecx
 1635              		.loc 1 375 18 discriminator 3
 1636 0c64 8B45E4   		movl	-28(%ebp), %eax
 1637 0c67 8B55F4   		movl	-12(%ebp), %edx
 1638 0c6a 8B0490   		movl	(%eax,%edx,4), %eax
 1639              		.loc 1 375 13 discriminator 3
 1640 0c6d 8901     		movl	%eax, (%ecx)
 373:src/pdf417/PDFDetectionResultColumn.c **** 	{
 1641              		.loc 1 373 25 discriminator 3
 1642 0c6f 8345F401 		addl	$1, -12(%ebp)
 1643              	L93:
 373:src/pdf417/PDFDetectionResultColumn.c **** 	{
 1644              		.loc 1 373 2 discriminator 1
GAS LISTING C:\Users\jisu8\AppData\Local\Temp\ccbDR4WJ.s 			page 40


 1645 0c73 8B45F4   		movl	-12(%ebp), %eax
 1646 0c76 3B45EC   		cmpl	-20(%ebp), %eax
 1647 0c79 7CD9     		jl	L94
 1648              	LBE17:
 376:src/pdf417/PDFDetectionResultColumn.c **** 	}
 377:src/pdf417/PDFDetectionResultColumn.c **** 
 378:src/pdf417/PDFDetectionResultColumn.c **** 	*size = sizeRow;
 1649              		.loc 1 378 8
 1650 0c7b 8B4514   		movl	20(%ebp), %eax
 1651 0c7e 8B55EC   		movl	-20(%ebp), %edx
 1652 0c81 8910     		movl	%edx, (%eax)
 379:src/pdf417/PDFDetectionResultColumn.c **** 
 380:src/pdf417/PDFDetectionResultColumn.c **** 	return 1;
 1653              		.loc 1 380 9
 1654 0c83 B8010000 		movl	$1, %eax
 1654      00
 1655              	L88:
 1656 0c88 89DC     		movl	%ebx, %esp
 381:src/pdf417/PDFDetectionResultColumn.c **** }
 1657              		.loc 1 381 1
 1658 0c8a 8B5DFC   		movl	-4(%ebp), %ebx
 1659 0c8d C9       		leave
 1660              	LCFI32:
 1661              		.cfi_restore 5
 1662              		.cfi_restore 3
 1663              		.cfi_def_cfa 4, 4
 1664 0c8e C3       		ret
 1665              		.cfi_endproc
 1666              	LFE26:
 1667              		.globl	_setRowNumberAsRowIndicatorColumn
 1669              	_setRowNumberAsRowIndicatorColumn:
 1670              	LFB27:
 382:src/pdf417/PDFDetectionResultColumn.c **** 
 383:src/pdf417/PDFDetectionResultColumn.c **** void setRowNumberAsRowIndicatorColumn(Codeword_t * Codewords) 
 384:src/pdf417/PDFDetectionResultColumn.c **** {
 1671              		.loc 1 384 1
 1672              		.cfi_startproc
 1673 0c8f 55       		pushl	%ebp
 1674              	LCFI33:
 1675              		.cfi_def_cfa_offset 8
 1676              		.cfi_offset 5, -8
 1677 0c90 89E5     		movl	%esp, %ebp
 1678              	LCFI34:
 1679              		.cfi_def_cfa_register 5
 1680 0c92 53       		pushl	%ebx
 1681              		.cfi_offset 3, -12
 385:src/pdf417/PDFDetectionResultColumn.c **** 	Codewords->m_value._rowNumber = (Codewords->m_value._value / 30) * 3 + Codewords->m_value._bucket 
 1682              		.loc 1 385 53
 1683 0c93 8B4508   		movl	8(%ebp), %eax
 1684 0c96 8B4810   		movl	16(%eax), %ecx
 1685              		.loc 1 385 61
 1686 0c99 BA898888 		movl	$-2004318071, %edx
 1686      88
 1687 0c9e 89C8     		movl	%ecx, %eax
 1688 0ca0 F7EA     		imull	%edx
 1689 0ca2 8D040A   		leal	(%edx,%ecx), %eax
 1690 0ca5 C1F804   		sarl	$4, %eax
GAS LISTING C:\Users\jisu8\AppData\Local\Temp\ccbDR4WJ.s 			page 41


 1691 0ca8 89C2     		movl	%eax, %edx
 1692 0caa 89C8     		movl	%ecx, %eax
 1693 0cac C1F81F   		sarl	$31, %eax
 1694 0caf 29C2     		subl	%eax, %edx
 1695              		.loc 1 385 67
 1696 0cb1 89D0     		movl	%edx, %eax
 1697 0cb3 01C0     		addl	%eax, %eax
 1698 0cb5 8D1C10   		leal	(%eax,%edx), %ebx
 1699              		.loc 1 385 91
 1700 0cb8 8B4508   		movl	8(%ebp), %eax
 1701 0cbb 8B480C   		movl	12(%eax), %ecx
 1702              		.loc 1 385 100
 1703 0cbe BA565555 		movl	$1431655766, %edx
 1703      55
 1704 0cc3 89C8     		movl	%ecx, %eax
 1705 0cc5 F7EA     		imull	%edx
 1706 0cc7 89C8     		movl	%ecx, %eax
 1707 0cc9 C1F81F   		sarl	$31, %eax
 1708 0ccc 29C2     		subl	%eax, %edx
 1709 0cce 89D0     		movl	%edx, %eax
 1710              		.loc 1 385 71
 1711 0cd0 8D1403   		leal	(%ebx,%eax), %edx
 1712              		.loc 1 385 32
 1713 0cd3 8B4508   		movl	8(%ebp), %eax
 1714 0cd6 895014   		movl	%edx, 20(%eax)
 386:src/pdf417/PDFDetectionResultColumn.c **** }
 1715              		.loc 1 386 1
 1716 0cd9 90       		nop
 1717 0cda 5B       		popl	%ebx
 1718              		.cfi_restore 3
 1719 0cdb 5D       		popl	%ebp
 1720              	LCFI35:
 1721              		.cfi_restore 5
 1722              		.cfi_def_cfa 4, 4
 1723 0cdc C3       		ret
 1724              		.cfi_endproc
 1725              	LFE27:
 1726              		.section .rdata,"dr"
 1727              		.align 4
 1728              	LC6:
 1729 00ec 44657465 		.ascii "DetectionResultColumn::getBarcodeMetadata : \0"
 1729      6374696F 
 1729      6E526573 
 1729      756C7443 
 1729      6F6C756D 
 1730 0119 000000   		.text
 1731              		.globl	_getBarcodeMetadata
 1733              	_getBarcodeMetadata:
 1734              	LFB28:
 387:src/pdf417/PDFDetectionResultColumn.c **** 
 388:src/pdf417/PDFDetectionResultColumn.c **** // This is example of bad design, a getter should not modify object's state
 389:src/pdf417/PDFDetectionResultColumn.c **** uint8_t getBarcodeMetadata(DetectionResultColumn_t * RowIndicatorColumn, BarcodeMetadata_t * result
 390:src/pdf417/PDFDetectionResultColumn.c **** {
 1735              		.loc 1 390 1
 1736              		.cfi_startproc
 1737 0cdd 55       		pushl	%ebp
 1738              	LCFI36:
GAS LISTING C:\Users\jisu8\AppData\Local\Temp\ccbDR4WJ.s 			page 42


 1739              		.cfi_def_cfa_offset 8
 1740              		.cfi_offset 5, -8
 1741 0cde 89E5     		movl	%esp, %ebp
 1742              	LCFI37:
 1743              		.cfi_def_cfa_register 5
 1744 0ce0 B8B83E00 		movl	$16056, %eax
 1744      00
 1745 0ce5 E8000000 		call	___chkstk_ms
 1745      00
 1746 0cea 29C4     		subl	%eax, %esp
 391:src/pdf417/PDFDetectionResultColumn.c **** 	printf("DetectionResultColumn::getBarcodeMetadata : \n");
 1747              		.loc 1 391 2
 1748 0cec C70424EC 		movl	$LC6, (%esp)
 1748      000000
 1749 0cf3 E8000000 		call	_puts
 1749      00
 392:src/pdf417/PDFDetectionResultColumn.c **** 
 393:src/pdf417/PDFDetectionResultColumn.c **** 	if (!isRowIndicator(RowIndicatorColumn))
 1750              		.loc 1 393 7
 1751 0cf8 8B4508   		movl	8(%ebp), %eax
 1752 0cfb 890424   		movl	%eax, (%esp)
 1753 0cfe E8EEF3FF 		call	_isRowIndicator
 1753      FF
 1754              		.loc 1 393 5
 1755 0d03 84C0     		testb	%al, %al
 1756 0d05 750A     		jne	L99
 394:src/pdf417/PDFDetectionResultColumn.c **** 	{
 395:src/pdf417/PDFDetectionResultColumn.c **** 		return 0;
 1757              		.loc 1 395 10
 1758 0d07 B8000000 		movl	$0, %eax
 1758      00
 1759 0d0c E9DE0200 		jmp	L112
 1759      00
 1760              	L99:
 396:src/pdf417/PDFDetectionResultColumn.c **** 	}
 397:src/pdf417/PDFDetectionResultColumn.c **** 
 398:src/pdf417/PDFDetectionResultColumn.c **** 	Codeword_t * codewords = allCodewords(RowIndicatorColumn);
 1761              		.loc 1 398 27
 1762 0d11 8B4508   		movl	8(%ebp), %eax
 1763 0d14 890424   		movl	%eax, (%esp)
 1764 0d17 E8CAF3FF 		call	_allCodewords
 1764      FF
 1765 0d1c 8945EC   		movl	%eax, -20(%ebp)
 1766              	LBB18:
 399:src/pdf417/PDFDetectionResultColumn.c **** 	BarcodeValue_t barcodeColumnCount;
 400:src/pdf417/PDFDetectionResultColumn.c **** 	BarcodeValue_t barcodeRowCountUpperPart;
 401:src/pdf417/PDFDetectionResultColumn.c **** 	BarcodeValue_t barcodeRowCountLowerPart;
 402:src/pdf417/PDFDetectionResultColumn.c **** 	BarcodeValue_t barcodeECLevel;
 403:src/pdf417/PDFDetectionResultColumn.c **** 	for (uint16_t i=0;i<length;i++)
 1767              		.loc 1 403 16
 1768 0d1f 66C745F6 		movw	$0, -10(%ebp)
 1768      0000
 1769              		.loc 1 403 2
 1770 0d25 EB47     		jmp	L101
 1771              	L102:
 404:src/pdf417/PDFDetectionResultColumn.c **** 	{
 405:src/pdf417/PDFDetectionResultColumn.c **** 		barcodeColumnCount._values[i] = 0;
GAS LISTING C:\Users\jisu8\AppData\Local\Temp\ccbDR4WJ.s 			page 43


 1772              		.loc 1 405 29 discriminator 3
 1773 0d27 0FB745F6 		movzwl	-10(%ebp), %eax
 1774              		.loc 1 405 33 discriminator 3
 1775 0d2b C7848538 		movl	$0, -4040(%ebp,%eax,4)
 1775      F0FFFF00 
 1775      000000
 406:src/pdf417/PDFDetectionResultColumn.c **** 		barcodeRowCountUpperPart._values[i] = 0;
 1776              		.loc 1 406 35 discriminator 3
 1777 0d36 0FB745F6 		movzwl	-10(%ebp), %eax
 1778              		.loc 1 406 39 discriminator 3
 1779 0d3a C7848598 		movl	$0, -8040(%ebp,%eax,4)
 1779      E0FFFF00 
 1779      000000
 407:src/pdf417/PDFDetectionResultColumn.c **** 		barcodeRowCountLowerPart._values[i] = 0;
 1780              		.loc 1 407 35 discriminator 3
 1781 0d45 0FB745F6 		movzwl	-10(%ebp), %eax
 1782              		.loc 1 407 39 discriminator 3
 1783 0d49 C78485F8 		movl	$0, -12040(%ebp,%eax,4)
 1783      D0FFFF00 
 1783      000000
 408:src/pdf417/PDFDetectionResultColumn.c **** 		barcodeECLevel._values[i] = 0;
 1784              		.loc 1 408 25 discriminator 3
 1785 0d54 0FB745F6 		movzwl	-10(%ebp), %eax
 1786              		.loc 1 408 29 discriminator 3
 1787 0d58 C7848558 		movl	$0, -16040(%ebp,%eax,4)
 1787      C1FFFF00 
 1787      000000
 403:src/pdf417/PDFDetectionResultColumn.c **** 	{
 1788              		.loc 1 403 30 discriminator 3
 1789 0d63 0FB745F6 		movzwl	-10(%ebp), %eax
 1790 0d67 83C001   		addl	$1, %eax
 1791 0d6a 668945F6 		movw	%ax, -10(%ebp)
 1792              	L101:
 403:src/pdf417/PDFDetectionResultColumn.c **** 	{
 1793              		.loc 1 403 21 discriminator 1
 1794 0d6e 0FB745F6 		movzwl	-10(%ebp), %eax
 403:src/pdf417/PDFDetectionResultColumn.c **** 	{
 1795              		.loc 1 403 2 discriminator 1
 1796 0d72 394510   		cmpl	%eax, 16(%ebp)
 1797 0d75 7FB0     		jg	L102
 1798              	LBE18:
 1799              	LBB19:
 409:src/pdf417/PDFDetectionResultColumn.c **** 	}
 410:src/pdf417/PDFDetectionResultColumn.c **** 	for (uint16_t i=0;i<length;i++) 
 1800              		.loc 1 410 16
 1801 0d77 66C745F4 		movw	$0, -12(%ebp)
 1801      0000
 1802              		.loc 1 410 2
 1803 0d7d E97E0100 		jmp	L103
 1803      00
 1804              	L109:
 1805              	LBB20:
 411:src/pdf417/PDFDetectionResultColumn.c **** 	{
 412:src/pdf417/PDFDetectionResultColumn.c **** 		if (codewords[i].m_hasValue == 0) 
 1806              		.loc 1 412 16
 1807 0d82 0FB755F4 		movzwl	-12(%ebp), %edx
 1808 0d86 89D0     		movl	%edx, %eax
GAS LISTING C:\Users\jisu8\AppData\Local\Temp\ccbDR4WJ.s 			page 44


 1809 0d88 01C0     		addl	%eax, %eax
 1810 0d8a 01D0     		addl	%edx, %eax
 1811 0d8c C1E003   		sall	$3, %eax
 1812 0d8f 89C2     		movl	%eax, %edx
 1813 0d91 8B45EC   		movl	-20(%ebp), %eax
 1814 0d94 01D0     		addl	%edx, %eax
 1815              		.loc 1 412 19
 1816 0d96 0FB600   		movzbl	(%eax), %eax
 1817              		.loc 1 412 6
 1818 0d99 84C0     		testb	%al, %al
 1819 0d9b 0F845301 		je	L113
 1819      0000
 413:src/pdf417/PDFDetectionResultColumn.c **** 		{
 414:src/pdf417/PDFDetectionResultColumn.c **** 			continue;
 415:src/pdf417/PDFDetectionResultColumn.c **** 		}
 416:src/pdf417/PDFDetectionResultColumn.c **** 
 417:src/pdf417/PDFDetectionResultColumn.c **** 		setRowNumberAsRowIndicatorColumn(codewords+i);
 1820              		.loc 1 417 45
 1821 0da1 0FB755F4 		movzwl	-12(%ebp), %edx
 1822 0da5 89D0     		movl	%edx, %eax
 1823 0da7 01C0     		addl	%eax, %eax
 1824 0da9 01D0     		addl	%edx, %eax
 1825 0dab C1E003   		sall	$3, %eax
 1826 0dae 89C2     		movl	%eax, %edx
 1827              		.loc 1 417 3
 1828 0db0 8B45EC   		movl	-20(%ebp), %eax
 1829 0db3 01D0     		addl	%edx, %eax
 1830 0db5 890424   		movl	%eax, (%esp)
 1831 0db8 E8D2FEFF 		call	_setRowNumberAsRowIndicatorColumn
 1831      FF
 418:src/pdf417/PDFDetectionResultColumn.c **** 		int rowIndicatorValue = codewords[i].m_value._value % 30;
 1832              		.loc 1 418 36
 1833 0dbd 0FB755F4 		movzwl	-12(%ebp), %edx
 1834 0dc1 89D0     		movl	%edx, %eax
 1835 0dc3 01C0     		addl	%eax, %eax
 1836 0dc5 01D0     		addl	%edx, %eax
 1837 0dc7 C1E003   		sall	$3, %eax
 1838 0dca 89C2     		movl	%eax, %edx
 1839 0dcc 8B45EC   		movl	-20(%ebp), %eax
 1840 0dcf 01D0     		addl	%edx, %eax
 1841              		.loc 1 418 47
 1842 0dd1 8B4810   		movl	16(%eax), %ecx
 1843              		.loc 1 418 7
 1844 0dd4 BA898888 		movl	$-2004318071, %edx
 1844      88
 1845 0dd9 89C8     		movl	%ecx, %eax
 1846 0ddb F7EA     		imull	%edx
 1847 0ddd 8D040A   		leal	(%edx,%ecx), %eax
 1848 0de0 C1F804   		sarl	$4, %eax
 1849 0de3 89C2     		movl	%eax, %edx
 1850 0de5 89C8     		movl	%ecx, %eax
 1851 0de7 C1F81F   		sarl	$31, %eax
 1852 0dea 29C2     		subl	%eax, %edx
 1853 0dec 89D0     		movl	%edx, %eax
 1854 0dee 8945E8   		movl	%eax, -24(%ebp)
 1855 0df1 8B45E8   		movl	-24(%ebp), %eax
 1856 0df4 6BC01E   		imull	$30, %eax, %eax
GAS LISTING C:\Users\jisu8\AppData\Local\Temp\ccbDR4WJ.s 			page 45


 1857 0df7 29C1     		subl	%eax, %ecx
 1858 0df9 89C8     		movl	%ecx, %eax
 1859 0dfb 8945E8   		movl	%eax, -24(%ebp)
 419:src/pdf417/PDFDetectionResultColumn.c **** 		int codewordRowNumber = codewords[i].m_value._rowNumber;
 1860              		.loc 1 419 36
 1861 0dfe 0FB755F4 		movzwl	-12(%ebp), %edx
 1862 0e02 89D0     		movl	%edx, %eax
 1863 0e04 01C0     		addl	%eax, %eax
 1864 0e06 01D0     		addl	%edx, %eax
 1865 0e08 C1E003   		sall	$3, %eax
 1866 0e0b 89C2     		movl	%eax, %edx
 1867 0e0d 8B45EC   		movl	-20(%ebp), %eax
 1868 0e10 01D0     		addl	%edx, %eax
 1869              		.loc 1 419 7
 1870 0e12 8B4014   		movl	20(%eax), %eax
 1871 0e15 8945F0   		movl	%eax, -16(%ebp)
 420:src/pdf417/PDFDetectionResultColumn.c **** 		if (!isLeftRowIndicator(RowIndicatorColumn)) 
 1872              		.loc 1 420 8
 1873 0e18 8B4508   		movl	8(%ebp), %eax
 1874 0e1b 890424   		movl	%eax, (%esp)
 1875 0e1e E8E1F2FF 		call	_isLeftRowIndicator
 1875      FF
 1876              		.loc 1 420 6
 1877 0e23 84C0     		testb	%al, %al
 1878 0e25 7504     		jne	L106
 421:src/pdf417/PDFDetectionResultColumn.c **** 		{
 422:src/pdf417/PDFDetectionResultColumn.c **** 			codewordRowNumber += 2;
 1879              		.loc 1 422 22
 1880 0e27 8345F002 		addl	$2, -16(%ebp)
 1881              	L106:
 423:src/pdf417/PDFDetectionResultColumn.c **** 		}
 424:src/pdf417/PDFDetectionResultColumn.c **** 		switch (codewordRowNumber % 3) 
 1882              		.loc 1 424 29
 1883 0e2b 8B4DF0   		movl	-16(%ebp), %ecx
 1884 0e2e BA565555 		movl	$1431655766, %edx
 1884      55
 1885 0e33 89C8     		movl	%ecx, %eax
 1886 0e35 F7EA     		imull	%edx
 1887 0e37 89C8     		movl	%ecx, %eax
 1888 0e39 C1F81F   		sarl	$31, %eax
 1889 0e3c 29C2     		subl	%eax, %edx
 1890 0e3e 89D0     		movl	%edx, %eax
 1891 0e40 89C2     		movl	%eax, %edx
 1892 0e42 01D2     		addl	%edx, %edx
 1893 0e44 01C2     		addl	%eax, %edx
 1894 0e46 89C8     		movl	%ecx, %eax
 1895 0e48 29D0     		subl	%edx, %eax
 1896 0e4a 83F801   		cmpl	$1, %eax
 1897 0e4d 7431     		je	L107
 1898 0e4f 83F802   		cmpl	$2, %eax
 1899 0e52 0F848200 		je	L108
 1899      0000
 1900 0e58 85C0     		testl	%eax, %eax
 1901 0e5a 0F859500 		jne	L105
 1901      0000
 425:src/pdf417/PDFDetectionResultColumn.c **** 		{
 426:src/pdf417/PDFDetectionResultColumn.c **** 			case 0:
GAS LISTING C:\Users\jisu8\AppData\Local\Temp\ccbDR4WJ.s 			page 46


 427:src/pdf417/PDFDetectionResultColumn.c **** 			BarcodeSetValue(&barcodeRowCountUpperPart,rowIndicatorValue * 3 + 1);
 1902              		.loc 1 427 64
 1903 0e60 8B55E8   		movl	-24(%ebp), %edx
 1904 0e63 89D0     		movl	%edx, %eax
 1905 0e65 01C0     		addl	%eax, %eax
 1906 0e67 01D0     		addl	%edx, %eax
 1907              		.loc 1 427 4
 1908 0e69 83C001   		addl	$1, %eax
 1909 0e6c 89442404 		movl	%eax, 4(%esp)
 1910 0e70 8D8598E0 		leal	-8040(%ebp), %eax
 1910      FFFF
 1911 0e76 890424   		movl	%eax, (%esp)
 1912 0e79 E8000000 		call	_BarcodeSetValue
 1912      00
 428:src/pdf417/PDFDetectionResultColumn.c **** 			break;
 1913              		.loc 1 428 4
 1914 0e7e EB75     		jmp	L105
 1915              	L107:
 429:src/pdf417/PDFDetectionResultColumn.c **** 			case 1:
 430:src/pdf417/PDFDetectionResultColumn.c **** 			BarcodeSetValue(&barcodeECLevel,rowIndicatorValue / 3);
 1916              		.loc 1 430 4
 1917 0e80 8B4DE8   		movl	-24(%ebp), %ecx
 1918 0e83 BA565555 		movl	$1431655766, %edx
 1918      55
 1919 0e88 89C8     		movl	%ecx, %eax
 1920 0e8a F7EA     		imull	%edx
 1921 0e8c 89C8     		movl	%ecx, %eax
 1922 0e8e C1F81F   		sarl	$31, %eax
 1923 0e91 29C2     		subl	%eax, %edx
 1924 0e93 89D0     		movl	%edx, %eax
 1925 0e95 89442404 		movl	%eax, 4(%esp)
 1926 0e99 8D8558C1 		leal	-16040(%ebp), %eax
 1926      FFFF
 1927 0e9f 890424   		movl	%eax, (%esp)
 1928 0ea2 E8000000 		call	_BarcodeSetValue
 1928      00
 431:src/pdf417/PDFDetectionResultColumn.c **** 			BarcodeSetValue(&barcodeRowCountLowerPart,rowIndicatorValue % 3);
 1929              		.loc 1 431 4
 1930 0ea7 8B4DE8   		movl	-24(%ebp), %ecx
 1931 0eaa BA565555 		movl	$1431655766, %edx
 1931      55
 1932 0eaf 89C8     		movl	%ecx, %eax
 1933 0eb1 F7EA     		imull	%edx
 1934 0eb3 89C8     		movl	%ecx, %eax
 1935 0eb5 C1F81F   		sarl	$31, %eax
 1936 0eb8 29C2     		subl	%eax, %edx
 1937 0eba 89D0     		movl	%edx, %eax
 1938 0ebc 89C2     		movl	%eax, %edx
 1939 0ebe 01D2     		addl	%edx, %edx
 1940 0ec0 01C2     		addl	%eax, %edx
 1941 0ec2 89C8     		movl	%ecx, %eax
 1942 0ec4 29D0     		subl	%edx, %eax
 1943 0ec6 89442404 		movl	%eax, 4(%esp)
 1944 0eca 8D85F8D0 		leal	-12040(%ebp), %eax
 1944      FFFF
 1945 0ed0 890424   		movl	%eax, (%esp)
 1946 0ed3 E8000000 		call	_BarcodeSetValue
GAS LISTING C:\Users\jisu8\AppData\Local\Temp\ccbDR4WJ.s 			page 47


 1946      00
 432:src/pdf417/PDFDetectionResultColumn.c **** 			break;
 1947              		.loc 1 432 4
 1948 0ed8 EB1B     		jmp	L105
 1949              	L108:
 433:src/pdf417/PDFDetectionResultColumn.c **** 			case 2:
 434:src/pdf417/PDFDetectionResultColumn.c **** 			BarcodeSetValue(&barcodeColumnCount,rowIndicatorValue + 1);
 1950              		.loc 1 434 4
 1951 0eda 8B45E8   		movl	-24(%ebp), %eax
 1952 0edd 83C001   		addl	$1, %eax
 1953 0ee0 89442404 		movl	%eax, 4(%esp)
 1954 0ee4 8D8538F0 		leal	-4040(%ebp), %eax
 1954      FFFF
 1955 0eea 890424   		movl	%eax, (%esp)
 1956 0eed E8000000 		call	_BarcodeSetValue
 1956      00
 435:src/pdf417/PDFDetectionResultColumn.c **** 			break;
 1957              		.loc 1 435 4
 1958 0ef2 EB01     		jmp	L105
 1959              	L113:
 414:src/pdf417/PDFDetectionResultColumn.c **** 		}
 1960              		.loc 1 414 4
 1961 0ef4 90       		nop
 1962              	L105:
 1963              	LBE20:
 410:src/pdf417/PDFDetectionResultColumn.c **** 	{
 1964              		.loc 1 410 30 discriminator 2
 1965 0ef5 0FB745F4 		movzwl	-12(%ebp), %eax
 1966 0ef9 83C001   		addl	$1, %eax
 1967 0efc 668945F4 		movw	%ax, -12(%ebp)
 1968              	L103:
 410:src/pdf417/PDFDetectionResultColumn.c **** 	{
 1969              		.loc 1 410 21 discriminator 1
 1970 0f00 0FB745F4 		movzwl	-12(%ebp), %eax
 410:src/pdf417/PDFDetectionResultColumn.c **** 	{
 1971              		.loc 1 410 2 discriminator 1
 1972 0f04 394510   		cmpl	%eax, 16(%ebp)
 1973 0f07 0F8F75FE 		jg	L109
 1973      FFFF
 1974              	LBE19:
 436:src/pdf417/PDFDetectionResultColumn.c **** 		}
 437:src/pdf417/PDFDetectionResultColumn.c **** 	}
 438:src/pdf417/PDFDetectionResultColumn.c **** 	// Maybe we should check if we have ambiguous values?
 439:src/pdf417/PDFDetectionResultColumn.c **** 	int cc = BarcodeValue(&barcodeColumnCount,length);
 1975              		.loc 1 439 11
 1976 0f0d 8B4510   		movl	16(%ebp), %eax
 1977 0f10 89442404 		movl	%eax, 4(%esp)
 1978 0f14 8D8538F0 		leal	-4040(%ebp), %eax
 1978      FFFF
 1979 0f1a 890424   		movl	%eax, (%esp)
 1980 0f1d E8000000 		call	_BarcodeValue
 1980      00
 1981 0f22 8945E4   		movl	%eax, -28(%ebp)
 440:src/pdf417/PDFDetectionResultColumn.c **** 	int rcu = BarcodeValue(&barcodeRowCountUpperPart,length);
 1982              		.loc 1 440 12
 1983 0f25 8B4510   		movl	16(%ebp), %eax
 1984 0f28 89442404 		movl	%eax, 4(%esp)
GAS LISTING C:\Users\jisu8\AppData\Local\Temp\ccbDR4WJ.s 			page 48


 1985 0f2c 8D8598E0 		leal	-8040(%ebp), %eax
 1985      FFFF
 1986 0f32 890424   		movl	%eax, (%esp)
 1987 0f35 E8000000 		call	_BarcodeValue
 1987      00
 1988 0f3a 8945E0   		movl	%eax, -32(%ebp)
 441:src/pdf417/PDFDetectionResultColumn.c **** 	int rcl = BarcodeValue(&barcodeRowCountLowerPart,length);
 1989              		.loc 1 441 12
 1990 0f3d 8B4510   		movl	16(%ebp), %eax
 1991 0f40 89442404 		movl	%eax, 4(%esp)
 1992 0f44 8D85F8D0 		leal	-12040(%ebp), %eax
 1992      FFFF
 1993 0f4a 890424   		movl	%eax, (%esp)
 1994 0f4d E8000000 		call	_BarcodeValue
 1994      00
 1995 0f52 8945DC   		movl	%eax, -36(%ebp)
 442:src/pdf417/PDFDetectionResultColumn.c **** 	int ec = BarcodeValue(&barcodeECLevel,length);
 1996              		.loc 1 442 11
 1997 0f55 8B4510   		movl	16(%ebp), %eax
 1998 0f58 89442404 		movl	%eax, 4(%esp)
 1999 0f5c 8D8558C1 		leal	-16040(%ebp), %eax
 1999      FFFF
 2000 0f62 890424   		movl	%eax, (%esp)
 2001 0f65 E8000000 		call	_BarcodeValue
 2001      00
 2002 0f6a 8945D8   		movl	%eax, -40(%ebp)
 443:src/pdf417/PDFDetectionResultColumn.c **** 
 444:src/pdf417/PDFDetectionResultColumn.c **** 	if (cc < 1 || rcu + rcl < MIN_ROWS_IN_BARCODE || rcu + rcl > MAX_ROWS_IN_BARCODE) 
 2003              		.loc 1 444 5
 2004 0f6d 837DE400 		cmpl	$0, -28(%ebp)
 2005 0f71 7E22     		jle	L110
 2006              		.loc 1 444 20 discriminator 1
 2007 0f73 8B55E0   		movl	-32(%ebp), %edx
 2008 0f76 8B45DC   		movl	-36(%ebp), %eax
 2009 0f79 01D0     		addl	%edx, %eax
 2010              		.loc 1 444 26 discriminator 1
 2011 0f7b BA030000 		movl	$3, %edx
 2011      00
 2012              		.loc 1 444 13 discriminator 1
 2013 0f80 39D0     		cmpl	%edx, %eax
 2014 0f82 7C11     		jl	L110
 2015              		.loc 1 444 55 discriminator 2
 2016 0f84 8B55E0   		movl	-32(%ebp), %edx
 2017 0f87 8B45DC   		movl	-36(%ebp), %eax
 2018 0f8a 01D0     		addl	%edx, %eax
 2019              		.loc 1 444 61 discriminator 2
 2020 0f8c BA5A0000 		movl	$90, %edx
 2020      00
 2021              		.loc 1 444 48 discriminator 2
 2022 0f91 39D0     		cmpl	%edx, %eax
 2023 0f93 7E07     		jle	L111
 2024              	L110:
 445:src/pdf417/PDFDetectionResultColumn.c **** 	{
 446:src/pdf417/PDFDetectionResultColumn.c **** 		return 0;
 2025              		.loc 1 446 10
 2026 0f95 B8000000 		movl	$0, %eax
 2026      00
GAS LISTING C:\Users\jisu8\AppData\Local\Temp\ccbDR4WJ.s 			page 49


 2027 0f9a EB53     		jmp	L112
 2028              	L111:
 447:src/pdf417/PDFDetectionResultColumn.c **** 	}
 448:src/pdf417/PDFDetectionResultColumn.c **** 
 449:src/pdf417/PDFDetectionResultColumn.c **** 	result->_columnCount = cc;
 2029              		.loc 1 449 23
 2030 0f9c 8B450C   		movl	12(%ebp), %eax
 2031 0f9f 8B55E4   		movl	-28(%ebp), %edx
 2032 0fa2 8910     		movl	%edx, (%eax)
 450:src/pdf417/PDFDetectionResultColumn.c **** 	result->_errorCorrectionLevel = ec;
 2033              		.loc 1 450 32
 2034 0fa4 8B450C   		movl	12(%ebp), %eax
 2035 0fa7 8B55D8   		movl	-40(%ebp), %edx
 2036 0faa 895004   		movl	%edx, 4(%eax)
 451:src/pdf417/PDFDetectionResultColumn.c **** 	result->_rowCountUpperPart = rcu;
 2037              		.loc 1 451 29
 2038 0fad 8B450C   		movl	12(%ebp), %eax
 2039 0fb0 8B55E0   		movl	-32(%ebp), %edx
 2040 0fb3 895008   		movl	%edx, 8(%eax)
 452:src/pdf417/PDFDetectionResultColumn.c **** 	result->_rowCountLowerPart = rcl;
 2041              		.loc 1 452 29
 2042 0fb6 8B450C   		movl	12(%ebp), %eax
 2043 0fb9 8B55DC   		movl	-36(%ebp), %edx
 2044 0fbc 89500C   		movl	%edx, 12(%eax)
 453:src/pdf417/PDFDetectionResultColumn.c **** 	
 454:src/pdf417/PDFDetectionResultColumn.c **** 	RemoveIncorrectCodewords(isLeftRowIndicator(RowIndicatorColumn), codewords, result,length);
 2045              		.loc 1 454 27
 2046 0fbf 8B4508   		movl	8(%ebp), %eax
 2047 0fc2 890424   		movl	%eax, (%esp)
 2048 0fc5 E83AF1FF 		call	_isLeftRowIndicator
 2048      FF
 2049              		.loc 1 454 2
 2050 0fca 0FB6C0   		movzbl	%al, %eax
 2051 0fcd 8B5510   		movl	16(%ebp), %edx
 2052 0fd0 8954240C 		movl	%edx, 12(%esp)
 2053 0fd4 8B550C   		movl	12(%ebp), %edx
 2054 0fd7 89542408 		movl	%edx, 8(%esp)
 2055 0fdb 8B55EC   		movl	-20(%ebp), %edx
 2056 0fde 89542404 		movl	%edx, 4(%esp)
 2057 0fe2 890424   		movl	%eax, (%esp)
 2058 0fe5 E866F3FF 		call	_RemoveIncorrectCodewords
 2058      FF
 455:src/pdf417/PDFDetectionResultColumn.c **** 
 456:src/pdf417/PDFDetectionResultColumn.c **** 	return 1;
 2059              		.loc 1 456 9
 2060 0fea B8010000 		movl	$1, %eax
 2060      00
 2061              	L112:
 457:src/pdf417/PDFDetectionResultColumn.c **** }
 2062              		.loc 1 457 1 discriminator 1
 2063 0fef C9       		leave
 2064              	LCFI38:
 2065              		.cfi_restore 5
 2066              		.cfi_def_cfa 4, 4
 2067 0ff0 C3       		ret
 2068              		.cfi_endproc
 2069              	LFE28:
GAS LISTING C:\Users\jisu8\AppData\Local\Temp\ccbDR4WJ.s 			page 50


 2070              	Letext0:
 2071              		.file 2 "src/pdf417/PDFBarcodeMetadata.h"
 2072              		.file 3 "src/pdf417/PDFBarcodeValue.h"
 2073              		.file 4 "D:/3.tools/mingw/mingw32/i686-w64-mingw32/include/crtdefs.h"
 2074              		.file 5 "D:/3.tools/mingw/mingw32/i686-w64-mingw32/include/stdint.h"
 2075              		.file 6 "src/ResultPoint.h"
 2076              		.file 7 "src/pdf417/PDFBoundingBox.h"
 2077              		.file 8 "src/pdf417/PDFCodeword.h"
 2078              		.file 9 "src/pdf417/PDFDetectionResultColumn.h"
 2079              		.file 10 "src/pdf417/PDFScanningDecoder.h"
 2080              		.file 11 "D:/3.tools/mingw/mingw32/i686-w64-mingw32/include/stdlib.h"
 2081              		.file 12 "D:/3.tools/mingw/mingw32/i686-w64-mingw32/include/malloc.h"
 2082              		.file 13 "D:/3.tools/mingw/mingw32/i686-w64-mingw32/include/stdio.h"
 2083 0ff1 909090   		.section	.debug_info,"dr"
 2084              	Ldebug_info0:
 2085 0000 8F120000 		.long	0x128f
 2086 0004 0200     		.word	0x2
 2087 0006 00000000 		.secrel32	Ldebug_abbrev0
 2088 000a 04       		.byte	0x4
 2089 000b 01       		.uleb128 0x1
 2090 000c 474E5520 		.ascii "GNU C17 8.1.0 -mtune=generic -march=i686 -g -gdwarf-2 -O0\0"
 2090      43313720 
 2090      382E312E 
 2090      30202D6D 
 2090      74756E65 
 2091 0046 0C       		.byte	0xc
 2092 0047 7372632F 		.ascii "src/pdf417/PDFDetectionResultColumn.c\0"
 2092      70646634 
 2092      31372F50 
 2092      44464465 
 2092      74656374 
 2093 006d 443A5C31 		.ascii "D:\\1.Project_workspace\\PDF_BARCODE\0"
 2093      2E50726F 
 2093      6A656374 
 2093      5F776F72 
 2093      6B737061 
 2094 0090 00000000 		.long	Ltext0
 2095 0094 F10F0000 		.long	Letext0
 2096 0098 00000000 		.secrel32	Ldebug_line0
 2097 009c 02       		.uleb128 0x2
 2098 009d 10       		.byte	0x10
 2099 009e 02       		.byte	0x2
 2100 009f 07       		.byte	0x7
 2101 00a0 09       		.byte	0x9
 2102 00a1 1B010000 		.long	0x11b
 2103 00a5 03       		.uleb128 0x3
 2104 00a6 5F636F6C 		.ascii "_columnCount\0"
 2104      756D6E43 
 2104      6F756E74 
 2104      00
 2105 00b3 02       		.byte	0x2
 2106 00b4 09       		.byte	0x9
 2107 00b5 06       		.byte	0x6
 2108 00b6 1B010000 		.long	0x11b
 2109 00ba 02       		.byte	0x2
 2110 00bb 23       		.byte	0x23
 2111 00bc 00       		.uleb128 0
GAS LISTING C:\Users\jisu8\AppData\Local\Temp\ccbDR4WJ.s 			page 51


 2112 00bd 03       		.uleb128 0x3
 2113 00be 5F657272 		.ascii "_errorCorrectionLevel\0"
 2113      6F72436F 
 2113      72726563 
 2113      74696F6E 
 2113      4C657665 
 2114 00d4 02       		.byte	0x2
 2115 00d5 0A       		.byte	0xa
 2116 00d6 06       		.byte	0x6
 2117 00d7 1B010000 		.long	0x11b
 2118 00db 02       		.byte	0x2
 2119 00dc 23       		.byte	0x23
 2120 00dd 04       		.uleb128 0x4
 2121 00de 03       		.uleb128 0x3
 2122 00df 5F726F77 		.ascii "_rowCountUpperPart\0"
 2122      436F756E 
 2122      74557070 
 2122      65725061 
 2122      727400
 2123 00f2 02       		.byte	0x2
 2124 00f3 0B       		.byte	0xb
 2125 00f4 06       		.byte	0x6
 2126 00f5 1B010000 		.long	0x11b
 2127 00f9 02       		.byte	0x2
 2128 00fa 23       		.byte	0x23
 2129 00fb 08       		.uleb128 0x8
 2130 00fc 03       		.uleb128 0x3
 2131 00fd 5F726F77 		.ascii "_rowCountLowerPart\0"
 2131      436F756E 
 2131      744C6F77 
 2131      65725061 
 2131      727400
 2132 0110 02       		.byte	0x2
 2133 0111 0C       		.byte	0xc
 2134 0112 06       		.byte	0x6
 2135 0113 1B010000 		.long	0x11b
 2136 0117 02       		.byte	0x2
 2137 0118 23       		.byte	0x23
 2138 0119 0C       		.uleb128 0xc
 2139 011a 00       		.byte	0
 2140 011b 04       		.uleb128 0x4
 2141 011c 04       		.byte	0x4
 2142 011d 05       		.byte	0x5
 2143 011e 696E7400 		.ascii "int\0"
 2144 0122 05       		.uleb128 0x5
 2145 0123 1B010000 		.long	0x11b
 2146 0127 06       		.uleb128 0x6
 2147 0128 42617263 		.ascii "BarcodeMetadata_t\0"
 2147      6F64654D 
 2147      65746164 
 2147      6174615F 
 2147      7400
 2148 013a 02       		.byte	0x2
 2149 013b 0D       		.byte	0xd
 2150 013c 02       		.byte	0x2
 2151 013d 9C000000 		.long	0x9c
 2152 0141 05       		.uleb128 0x5
GAS LISTING C:\Users\jisu8\AppData\Local\Temp\ccbDR4WJ.s 			page 52


 2153 0142 27010000 		.long	0x127
 2154 0146 07       		.uleb128 0x7
 2155 0147 A00F     		.word	0xfa0
 2156 0149 03       		.byte	0x3
 2157 014a 04       		.byte	0x4
 2158 014b 09       		.byte	0x9
 2159 014c 64010000 		.long	0x164
 2160 0150 03       		.uleb128 0x3
 2161 0151 5F76616C 		.ascii "_values\0"
 2161      75657300 
 2162 0159 03       		.byte	0x3
 2163 015a 06       		.byte	0x6
 2164 015b 06       		.byte	0x6
 2165 015c 64010000 		.long	0x164
 2166 0160 02       		.byte	0x2
 2167 0161 23       		.byte	0x23
 2168 0162 00       		.uleb128 0
 2169 0163 00       		.byte	0
 2170 0164 08       		.uleb128 0x8
 2171 0165 1B010000 		.long	0x11b
 2172 0169 75010000 		.long	0x175
 2173 016d 09       		.uleb128 0x9
 2174 016e 75010000 		.long	0x175
 2175 0172 E703     		.word	0x3e7
 2176 0174 00       		.byte	0
 2177 0175 04       		.uleb128 0x4
 2178 0176 04       		.byte	0x4
 2179 0177 07       		.byte	0x7
 2180 0178 756E7369 		.ascii "unsigned int\0"
 2180      676E6564 
 2180      20696E74 
 2180      00
 2181 0185 06       		.uleb128 0x6
 2182 0186 42617263 		.ascii "BarcodeValue_t\0"
 2182      6F646556 
 2182      616C7565 
 2182      5F7400
 2183 0195 03       		.byte	0x3
 2184 0196 07       		.byte	0x7
 2185 0197 02       		.byte	0x2
 2186 0198 46010000 		.long	0x146
 2187 019c 0A       		.uleb128 0xa
 2188 019d 04       		.byte	0x4
 2189 019e A2010000 		.long	0x1a2
 2190 01a2 04       		.uleb128 0x4
 2191 01a3 01       		.byte	0x1
 2192 01a4 06       		.byte	0x6
 2193 01a5 63686172 		.ascii "char\0"
 2193      00
 2194 01aa 06       		.uleb128 0x6
 2195 01ab 77636861 		.ascii "wchar_t\0"
 2195      725F7400 
 2196 01b3 04       		.byte	0x4
 2197 01b4 62       		.byte	0x62
 2198 01b5 18       		.byte	0x18
 2199 01b6 BA010000 		.long	0x1ba
 2200 01ba 04       		.uleb128 0x4
GAS LISTING C:\Users\jisu8\AppData\Local\Temp\ccbDR4WJ.s 			page 53


 2201 01bb 02       		.byte	0x2
 2202 01bc 07       		.byte	0x7
 2203 01bd 73686F72 		.ascii "short unsigned int\0"
 2203      7420756E 
 2203      7369676E 
 2203      65642069 
 2203      6E7400
 2204 01d0 04       		.uleb128 0x4
 2205 01d1 04       		.byte	0x4
 2206 01d2 05       		.byte	0x5
 2207 01d3 6C6F6E67 		.ascii "long int\0"
 2207      20696E74 
 2207      00
 2208 01dc 04       		.uleb128 0x4
 2209 01dd 08       		.byte	0x8
 2210 01de 05       		.byte	0x5
 2211 01df 6C6F6E67 		.ascii "long long int\0"
 2211      206C6F6E 
 2211      6720696E 
 2211      7400
 2212 01ed 0A       		.uleb128 0xa
 2213 01ee 04       		.byte	0x4
 2214 01ef AA010000 		.long	0x1aa
 2215 01f3 0A       		.uleb128 0xa
 2216 01f4 04       		.byte	0x4
 2217 01f5 1B010000 		.long	0x11b
 2218 01f9 04       		.uleb128 0x4
 2219 01fa 04       		.byte	0x4
 2220 01fb 07       		.byte	0x7
 2221 01fc 6C6F6E67 		.ascii "long unsigned int\0"
 2221      20756E73 
 2221      69676E65 
 2221      6420696E 
 2221      7400
 2222 020e 04       		.uleb128 0x4
 2223 020f 01       		.byte	0x1
 2224 0210 08       		.byte	0x8
 2225 0211 756E7369 		.ascii "unsigned char\0"
 2225      676E6564 
 2225      20636861 
 2225      7200
 2226 021f 04       		.uleb128 0x4
 2227 0220 0C       		.byte	0xc
 2228 0221 04       		.byte	0x4
 2229 0222 6C6F6E67 		.ascii "long double\0"
 2229      20646F75 
 2229      626C6500 
 2230 022e 04       		.uleb128 0x4
 2231 022f 10       		.byte	0x10
 2232 0230 04       		.byte	0x4
 2233 0231 5F466C6F 		.ascii "_Float128\0"
 2233      61743132 
 2233      3800
 2234 023b 04       		.uleb128 0x4
 2235 023c 01       		.byte	0x1
 2236 023d 06       		.byte	0x6
 2237 023e 7369676E 		.ascii "signed char\0"
GAS LISTING C:\Users\jisu8\AppData\Local\Temp\ccbDR4WJ.s 			page 54


 2237      65642063 
 2237      68617200 
 2238 024a 06       		.uleb128 0x6
 2239 024b 75696E74 		.ascii "uint8_t\0"
 2239      385F7400 
 2240 0253 05       		.byte	0x5
 2241 0254 24       		.byte	0x24
 2242 0255 19       		.byte	0x19
 2243 0256 0E020000 		.long	0x20e
 2244 025a 04       		.uleb128 0x4
 2245 025b 02       		.byte	0x2
 2246 025c 05       		.byte	0x5
 2247 025d 73686F72 		.ascii "short int\0"
 2247      7420696E 
 2247      7400
 2248 0267 06       		.uleb128 0x6
 2249 0268 75696E74 		.ascii "uint16_t\0"
 2249      31365F74 
 2249      00
 2250 0271 05       		.byte	0x5
 2251 0272 26       		.byte	0x26
 2252 0273 19       		.byte	0x19
 2253 0274 BA010000 		.long	0x1ba
 2254 0278 06       		.uleb128 0x6
 2255 0279 75696E74 		.ascii "uint64_t\0"
 2255      36345F74 
 2255      00
 2256 0282 05       		.byte	0x5
 2257 0283 2A       		.byte	0x2a
 2258 0284 30       		.byte	0x30
 2259 0285 89020000 		.long	0x289
 2260 0289 04       		.uleb128 0x4
 2261 028a 08       		.byte	0x8
 2262 028b 07       		.byte	0x7
 2263 028c 6C6F6E67 		.ascii "long long unsigned int\0"
 2263      206C6F6E 
 2263      6720756E 
 2263      7369676E 
 2263      65642069 
 2264 02a3 02       		.uleb128 0x2
 2265 02a4 08       		.byte	0x8
 2266 02a5 06       		.byte	0x6
 2267 02a6 14       		.byte	0x14
 2268 02a7 09       		.byte	0x9
 2269 02a8 C7020000 		.long	0x2c7
 2270 02ac 03       		.uleb128 0x3
 2271 02ad 7800     		.ascii "x\0"
 2272 02af 06       		.byte	0x6
 2273 02b0 16       		.byte	0x16
 2274 02b1 08       		.byte	0x8
 2275 02b2 C7020000 		.long	0x2c7
 2276 02b6 02       		.byte	0x2
 2277 02b7 23       		.byte	0x23
 2278 02b8 00       		.uleb128 0
 2279 02b9 03       		.uleb128 0x3
 2280 02ba 7900     		.ascii "y\0"
 2281 02bc 06       		.byte	0x6
GAS LISTING C:\Users\jisu8\AppData\Local\Temp\ccbDR4WJ.s 			page 55


 2282 02bd 17       		.byte	0x17
 2283 02be 08       		.byte	0x8
 2284 02bf C7020000 		.long	0x2c7
 2285 02c3 02       		.byte	0x2
 2286 02c4 23       		.byte	0x23
 2287 02c5 04       		.uleb128 0x4
 2288 02c6 00       		.byte	0
 2289 02c7 04       		.uleb128 0x4
 2290 02c8 04       		.byte	0x4
 2291 02c9 04       		.byte	0x4
 2292 02ca 666C6F61 		.ascii "float\0"
 2292      7400
 2293 02d0 06       		.uleb128 0x6
 2294 02d1 506F696E 		.ascii "PointT_t\0"
 2294      74545F74 
 2294      00
 2295 02da 06       		.byte	0x6
 2296 02db 18       		.byte	0x18
 2297 02dc 02       		.byte	0x2
 2298 02dd A3020000 		.long	0x2a3
 2299 02e1 04       		.uleb128 0x4
 2300 02e2 08       		.byte	0x8
 2301 02e3 04       		.byte	0x4
 2302 02e4 646F7562 		.ascii "double\0"
 2302      6C6500
 2303 02eb 02       		.uleb128 0x2
 2304 02ec 0C       		.byte	0xc
 2305 02ed 06       		.byte	0x6
 2306 02ee 23       		.byte	0x23
 2307 02ef 09       		.byte	0x9
 2308 02f0 13030000 		.long	0x313
 2309 02f4 0B       		.uleb128 0xb
 2310 02f5 92000000 		.secrel32	LASF0
 2311 02f9 06       		.byte	0x6
 2312 02fa 25       		.byte	0x25
 2313 02fb 0A       		.byte	0xa
 2314 02fc 4A020000 		.long	0x24a
 2315 0300 02       		.byte	0x2
 2316 0301 23       		.byte	0x23
 2317 0302 00       		.uleb128 0
 2318 0303 0B       		.uleb128 0xb
 2319 0304 E4000000 		.secrel32	LASF1
 2320 0308 06       		.byte	0x6
 2321 0309 26       		.byte	0x26
 2322 030a 0B       		.byte	0xb
 2323 030b D0020000 		.long	0x2d0
 2324 030f 02       		.byte	0x2
 2325 0310 23       		.byte	0x23
 2326 0311 04       		.uleb128 0x4
 2327 0312 00       		.byte	0
 2328 0313 06       		.uleb128 0x6
 2329 0314 52657375 		.ascii "ResultPoint_t\0"
 2329      6C74506F 
 2329      696E745F 
 2329      7400
 2330 0322 06       		.byte	0x6
 2331 0323 27       		.byte	0x27
GAS LISTING C:\Users\jisu8\AppData\Local\Temp\ccbDR4WJ.s 			page 56


 2332 0324 02       		.byte	0x2
 2333 0325 EB020000 		.long	0x2eb
 2334 0329 02       		.uleb128 0x2
 2335 032a 48       		.byte	0x48
 2336 032b 07       		.byte	0x7
 2337 032c 06       		.byte	0x6
 2338 032d 09       		.byte	0x9
 2339 032e FA030000 		.long	0x3fa
 2340 0332 03       		.uleb128 0x3
 2341 0333 5F696D67 		.ascii "_imgWidth\0"
 2341      57696474 
 2341      6800
 2342 033d 07       		.byte	0x7
 2343 033e 08       		.byte	0x8
 2344 033f 06       		.byte	0x6
 2345 0340 1B010000 		.long	0x11b
 2346 0344 02       		.byte	0x2
 2347 0345 23       		.byte	0x23
 2348 0346 00       		.uleb128 0
 2349 0347 03       		.uleb128 0x3
 2350 0348 5F696D67 		.ascii "_imgHeight\0"
 2350      48656967 
 2350      687400
 2351 0353 07       		.byte	0x7
 2352 0354 09       		.byte	0x9
 2353 0355 06       		.byte	0x6
 2354 0356 1B010000 		.long	0x11b
 2355 035a 02       		.byte	0x2
 2356 035b 23       		.byte	0x23
 2357 035c 04       		.uleb128 0x4
 2358 035d 03       		.uleb128 0x3
 2359 035e 5F746F70 		.ascii "_topLeft\0"
 2359      4C656674 
 2359      00
 2360 0367 07       		.byte	0x7
 2361 0368 0A       		.byte	0xa
 2362 0369 10       		.byte	0x10
 2363 036a 13030000 		.long	0x313
 2364 036e 02       		.byte	0x2
 2365 036f 23       		.byte	0x23
 2366 0370 08       		.uleb128 0x8
 2367 0371 03       		.uleb128 0x3
 2368 0372 5F626F74 		.ascii "_bottomLeft\0"
 2368      746F6D4C 
 2368      65667400 
 2369 037e 07       		.byte	0x7
 2370 037f 0B       		.byte	0xb
 2371 0380 10       		.byte	0x10
 2372 0381 13030000 		.long	0x313
 2373 0385 02       		.byte	0x2
 2374 0386 23       		.byte	0x23
 2375 0387 14       		.uleb128 0x14
 2376 0388 03       		.uleb128 0x3
 2377 0389 5F746F70 		.ascii "_topRight\0"
 2377      52696768 
 2377      7400
 2378 0393 07       		.byte	0x7
GAS LISTING C:\Users\jisu8\AppData\Local\Temp\ccbDR4WJ.s 			page 57


 2379 0394 0C       		.byte	0xc
 2380 0395 10       		.byte	0x10
 2381 0396 13030000 		.long	0x313
 2382 039a 02       		.byte	0x2
 2383 039b 23       		.byte	0x23
 2384 039c 20       		.uleb128 0x20
 2385 039d 03       		.uleb128 0x3
 2386 039e 5F626F74 		.ascii "_bottomRight\0"
 2386      746F6D52 
 2386      69676874 
 2386      00
 2387 03ab 07       		.byte	0x7
 2388 03ac 0D       		.byte	0xd
 2389 03ad 10       		.byte	0x10
 2390 03ae 13030000 		.long	0x313
 2391 03b2 02       		.byte	0x2
 2392 03b3 23       		.byte	0x23
 2393 03b4 2C       		.uleb128 0x2c
 2394 03b5 03       		.uleb128 0x3
 2395 03b6 5F6D696E 		.ascii "_minX\0"
 2395      5800
 2396 03bc 07       		.byte	0x7
 2397 03bd 0E       		.byte	0xe
 2398 03be 06       		.byte	0x6
 2399 03bf 1B010000 		.long	0x11b
 2400 03c3 02       		.byte	0x2
 2401 03c4 23       		.byte	0x23
 2402 03c5 38       		.uleb128 0x38
 2403 03c6 03       		.uleb128 0x3
 2404 03c7 5F6D6178 		.ascii "_maxX\0"
 2404      5800
 2405 03cd 07       		.byte	0x7
 2406 03ce 0F       		.byte	0xf
 2407 03cf 06       		.byte	0x6
 2408 03d0 1B010000 		.long	0x11b
 2409 03d4 02       		.byte	0x2
 2410 03d5 23       		.byte	0x23
 2411 03d6 3C       		.uleb128 0x3c
 2412 03d7 03       		.uleb128 0x3
 2413 03d8 5F6D696E 		.ascii "_minY\0"
 2413      5900
 2414 03de 07       		.byte	0x7
 2415 03df 10       		.byte	0x10
 2416 03e0 06       		.byte	0x6
 2417 03e1 1B010000 		.long	0x11b
 2418 03e5 02       		.byte	0x2
 2419 03e6 23       		.byte	0x23
 2420 03e7 40       		.uleb128 0x40
 2421 03e8 03       		.uleb128 0x3
 2422 03e9 5F6D6178 		.ascii "_maxY\0"
 2422      5900
 2423 03ef 07       		.byte	0x7
 2424 03f0 11       		.byte	0x11
 2425 03f1 06       		.byte	0x6
 2426 03f2 1B010000 		.long	0x11b
 2427 03f6 02       		.byte	0x2
 2428 03f7 23       		.byte	0x23
GAS LISTING C:\Users\jisu8\AppData\Local\Temp\ccbDR4WJ.s 			page 58


 2429 03f8 44       		.uleb128 0x44
 2430 03f9 00       		.byte	0
 2431 03fa 06       		.uleb128 0x6
 2432 03fb 426F756E 		.ascii "BoundingBox_val_t\0"
 2432      64696E67 
 2432      426F785F 
 2432      76616C5F 
 2432      7400
 2433 040d 07       		.byte	0x7
 2434 040e 12       		.byte	0x12
 2435 040f 02       		.byte	0x2
 2436 0410 29030000 		.long	0x329
 2437 0414 02       		.uleb128 0x2
 2438 0415 4C       		.byte	0x4c
 2439 0416 07       		.byte	0x7
 2440 0417 14       		.byte	0x14
 2441 0418 09       		.byte	0x9
 2442 0419 3C040000 		.long	0x43c
 2443 041d 0B       		.uleb128 0xb
 2444 041e 92000000 		.secrel32	LASF0
 2445 0422 07       		.byte	0x7
 2446 0423 16       		.byte	0x16
 2447 0424 0A       		.byte	0xa
 2448 0425 4A020000 		.long	0x24a
 2449 0429 02       		.byte	0x2
 2450 042a 23       		.byte	0x23
 2451 042b 00       		.uleb128 0
 2452 042c 0B       		.uleb128 0xb
 2453 042d E4000000 		.secrel32	LASF1
 2454 0431 07       		.byte	0x7
 2455 0432 17       		.byte	0x17
 2456 0433 14       		.byte	0x14
 2457 0434 FA030000 		.long	0x3fa
 2458 0438 02       		.byte	0x2
 2459 0439 23       		.byte	0x23
 2460 043a 04       		.uleb128 0x4
 2461 043b 00       		.byte	0
 2462 043c 06       		.uleb128 0x6
 2463 043d 426F756E 		.ascii "BoundingBox_t\0"
 2463      64696E67 
 2463      426F785F 
 2463      7400
 2464 044b 07       		.byte	0x7
 2465 044c 18       		.byte	0x18
 2466 044d 02       		.byte	0x2
 2467 044e 14040000 		.long	0x414
 2468 0452 05       		.uleb128 0x5
 2469 0453 3C040000 		.long	0x43c
 2470 0457 02       		.uleb128 0x2
 2471 0458 14       		.byte	0x14
 2472 0459 08       		.byte	0x8
 2473 045a 04       		.byte	0x4
 2474 045b 09       		.byte	0x9
 2475 045c C0040000 		.long	0x4c0
 2476 0460 03       		.uleb128 0x3
 2477 0461 5F737461 		.ascii "_startX\0"
 2477      72745800 
GAS LISTING C:\Users\jisu8\AppData\Local\Temp\ccbDR4WJ.s 			page 59


 2478 0469 08       		.byte	0x8
 2479 046a 06       		.byte	0x6
 2480 046b 06       		.byte	0x6
 2481 046c 1B010000 		.long	0x11b
 2482 0470 02       		.byte	0x2
 2483 0471 23       		.byte	0x23
 2484 0472 00       		.uleb128 0
 2485 0473 03       		.uleb128 0x3
 2486 0474 5F656E64 		.ascii "_endX\0"
 2486      5800
 2487 047a 08       		.byte	0x8
 2488 047b 07       		.byte	0x7
 2489 047c 06       		.byte	0x6
 2490 047d 1B010000 		.long	0x11b
 2491 0481 02       		.byte	0x2
 2492 0482 23       		.byte	0x23
 2493 0483 04       		.uleb128 0x4
 2494 0484 03       		.uleb128 0x3
 2495 0485 5F627563 		.ascii "_bucket\0"
 2495      6B657400 
 2496 048d 08       		.byte	0x8
 2497 048e 08       		.byte	0x8
 2498 048f 06       		.byte	0x6
 2499 0490 1B010000 		.long	0x11b
 2500 0494 02       		.byte	0x2
 2501 0495 23       		.byte	0x23
 2502 0496 08       		.uleb128 0x8
 2503 0497 03       		.uleb128 0x3
 2504 0498 5F76616C 		.ascii "_value\0"
 2504      756500
 2505 049f 08       		.byte	0x8
 2506 04a0 09       		.byte	0x9
 2507 04a1 06       		.byte	0x6
 2508 04a2 1B010000 		.long	0x11b
 2509 04a6 02       		.byte	0x2
 2510 04a7 23       		.byte	0x23
 2511 04a8 0C       		.uleb128 0xc
 2512 04a9 03       		.uleb128 0x3
 2513 04aa 5F726F77 		.ascii "_rowNumber\0"
 2513      4E756D62 
 2513      657200
 2514 04b5 08       		.byte	0x8
 2515 04b6 0A       		.byte	0xa
 2516 04b7 06       		.byte	0x6
 2517 04b8 1B010000 		.long	0x11b
 2518 04bc 02       		.byte	0x2
 2519 04bd 23       		.byte	0x23
 2520 04be 10       		.uleb128 0x10
 2521 04bf 00       		.byte	0
 2522 04c0 06       		.uleb128 0x6
 2523 04c1 436F6465 		.ascii "Codeword_val_t\0"
 2523      776F7264 
 2523      5F76616C 
 2523      5F7400
 2524 04d0 08       		.byte	0x8
 2525 04d1 0B       		.byte	0xb
 2526 04d2 02       		.byte	0x2
GAS LISTING C:\Users\jisu8\AppData\Local\Temp\ccbDR4WJ.s 			page 60


 2527 04d3 57040000 		.long	0x457
 2528 04d7 02       		.uleb128 0x2
 2529 04d8 18       		.byte	0x18
 2530 04d9 08       		.byte	0x8
 2531 04da 0C       		.byte	0xc
 2532 04db 09       		.byte	0x9
 2533 04dc FF040000 		.long	0x4ff
 2534 04e0 0B       		.uleb128 0xb
 2535 04e1 92000000 		.secrel32	LASF0
 2536 04e5 08       		.byte	0x8
 2537 04e6 0E       		.byte	0xe
 2538 04e7 0A       		.byte	0xa
 2539 04e8 4A020000 		.long	0x24a
 2540 04ec 02       		.byte	0x2
 2541 04ed 23       		.byte	0x23
 2542 04ee 00       		.uleb128 0
 2543 04ef 0B       		.uleb128 0xb
 2544 04f0 E4000000 		.secrel32	LASF1
 2545 04f4 08       		.byte	0x8
 2546 04f5 0F       		.byte	0xf
 2547 04f6 11       		.byte	0x11
 2548 04f7 C0040000 		.long	0x4c0
 2549 04fb 02       		.byte	0x2
 2550 04fc 23       		.byte	0x23
 2551 04fd 04       		.uleb128 0x4
 2552 04fe 00       		.byte	0
 2553 04ff 06       		.uleb128 0x6
 2554 0500 436F6465 		.ascii "Codeword_t\0"
 2554      776F7264 
 2554      5F7400
 2555 050b 08       		.byte	0x8
 2556 050c 10       		.byte	0x10
 2557 050d 02       		.byte	0x2
 2558 050e D7040000 		.long	0x4d7
 2559 0512 0C       		.uleb128 0xc
 2560 0513 07       		.byte	0x7
 2561 0514 04       		.byte	0x4
 2562 0515 75010000 		.long	0x175
 2563 0519 09       		.byte	0x9
 2564 051a 09       		.byte	0x9
 2565 051b 01       		.byte	0x1
 2566 051c 37050000 		.long	0x537
 2567 0520 0D       		.uleb128 0xd
 2568 0521 4E6F6E65 		.ascii "None\0"
 2568      00
 2569 0526 00       		.byte	0
 2570 0527 0D       		.uleb128 0xd
 2571 0528 4C656674 		.ascii "Left\0"
 2571      00
 2572 052d 01       		.byte	0x1
 2573 052e 0D       		.uleb128 0xd
 2574 052f 52696768 		.ascii "Right\0"
 2574      7400
 2575 0535 02       		.byte	0x2
 2576 0536 00       		.byte	0
 2577 0537 06       		.uleb128 0x6
 2578 0538 526F7749 		.ascii "RowIndicator_t\0"
GAS LISTING C:\Users\jisu8\AppData\Local\Temp\ccbDR4WJ.s 			page 61


 2578      6E646963 
 2578      61746F72 
 2578      5F7400
 2579 0547 09       		.byte	0x9
 2580 0548 0D       		.byte	0xd
 2581 0549 02       		.byte	0x2
 2582 054a 12050000 		.long	0x512
 2583 054e 07       		.uleb128 0x7
 2584 054f 302F     		.word	0x2f30
 2585 0551 09       		.byte	0x9
 2586 0552 0F       		.byte	0xf
 2587 0553 09       		.byte	0x9
 2588 0554 A1050000 		.long	0x5a1
 2589 0558 03       		.uleb128 0x3
 2590 0559 5F626F75 		.ascii "_boundingBox\0"
 2590      6E64696E 
 2590      67426F78 
 2590      00
 2591 0566 09       		.byte	0x9
 2592 0567 11       		.byte	0x11
 2593 0568 10       		.byte	0x10
 2594 0569 3C040000 		.long	0x43c
 2595 056d 02       		.byte	0x2
 2596 056e 23       		.byte	0x23
 2597 056f 00       		.uleb128 0
 2598 0570 03       		.uleb128 0x3
 2599 0571 5F636F64 		.ascii "_codewords\0"
 2599      65776F72 
 2599      647300
 2600 057c 09       		.byte	0x9
 2601 057d 12       		.byte	0x12
 2602 057e 0D       		.byte	0xd
 2603 057f A1050000 		.long	0x5a1
 2604 0583 02       		.byte	0x2
 2605 0584 23       		.byte	0x23
 2606 0585 4C       		.uleb128 0x4c
 2607 0586 03       		.uleb128 0x3
 2608 0587 5F726F77 		.ascii "_rowIndicator\0"
 2608      496E6469 
 2608      6361746F 
 2608      7200
 2609 0595 09       		.byte	0x9
 2610 0596 13       		.byte	0x13
 2611 0597 11       		.byte	0x11
 2612 0598 37050000 		.long	0x537
 2613 059c 03       		.byte	0x3
 2614 059d 23       		.byte	0x23
 2615 059e AC5E     		.uleb128 0x2f2c
 2616 05a0 00       		.byte	0
 2617 05a1 08       		.uleb128 0x8
 2618 05a2 FF040000 		.long	0x4ff
 2619 05a6 B2050000 		.long	0x5b2
 2620 05aa 09       		.uleb128 0x9
 2621 05ab 75010000 		.long	0x175
 2622 05af F301     		.word	0x1f3
 2623 05b1 00       		.byte	0
 2624 05b2 06       		.uleb128 0x6
GAS LISTING C:\Users\jisu8\AppData\Local\Temp\ccbDR4WJ.s 			page 62


 2625 05b3 44657465 		.ascii "DetectionResultColumn_val_t\0"
 2625      6374696F 
 2625      6E526573 
 2625      756C7443 
 2625      6F6C756D 
 2626 05cf 09       		.byte	0x9
 2627 05d0 14       		.byte	0x14
 2628 05d1 02       		.byte	0x2
 2629 05d2 4E050000 		.long	0x54e
 2630 05d6 07       		.uleb128 0x7
 2631 05d7 342F     		.word	0x2f34
 2632 05d9 09       		.byte	0x9
 2633 05da 15       		.byte	0x15
 2634 05db 09       		.byte	0x9
 2635 05dc FF050000 		.long	0x5ff
 2636 05e0 0B       		.uleb128 0xb
 2637 05e1 92000000 		.secrel32	LASF0
 2638 05e5 09       		.byte	0x9
 2639 05e6 17       		.byte	0x17
 2640 05e7 0A       		.byte	0xa
 2641 05e8 4A020000 		.long	0x24a
 2642 05ec 02       		.byte	0x2
 2643 05ed 23       		.byte	0x23
 2644 05ee 00       		.uleb128 0
 2645 05ef 0B       		.uleb128 0xb
 2646 05f0 E4000000 		.secrel32	LASF1
 2647 05f4 09       		.byte	0x9
 2648 05f5 18       		.byte	0x18
 2649 05f6 1E       		.byte	0x1e
 2650 05f7 B2050000 		.long	0x5b2
 2651 05fb 02       		.byte	0x2
 2652 05fc 23       		.byte	0x23
 2653 05fd 04       		.uleb128 0x4
 2654 05fe 00       		.byte	0
 2655 05ff 06       		.uleb128 0x6
 2656 0600 44657465 		.ascii "DetectionResultColumn_t\0"
 2656      6374696F 
 2656      6E526573 
 2656      756C7443 
 2656      6F6C756D 
 2657 0618 09       		.byte	0x9
 2658 0619 19       		.byte	0x19
 2659 061a 02       		.byte	0x2
 2660 061b D6050000 		.long	0x5d6
 2661 061f 0E       		.uleb128 0xe
 2662 0620 42415243 		.ascii "BARCODE_ROW_UNKNOWN\0"
 2662      4F44455F 
 2662      524F575F 
 2662      554E4B4E 
 2662      4F574E00 
 2663 0634 0A       		.byte	0xa
 2664 0635 09       		.byte	0x9
 2665 0636 12       		.byte	0x12
 2666 0637 22010000 		.long	0x122
 2667 063b 01       		.byte	0x1
 2668 063c 01       		.byte	0x1
 2669 063d 0F       		.uleb128 0xf
GAS LISTING C:\Users\jisu8\AppData\Local\Temp\ccbDR4WJ.s 			page 63


 2670 063e D1000000 		.secrel32	LASF2
 2671 0642 0A       		.byte	0xa
 2672 0643 0F       		.byte	0xf
 2673 0644 20       		.byte	0x20
 2674 0645 FF050000 		.long	0x5ff
 2675 0649 01       		.byte	0x1
 2676 064a 01       		.byte	0x1
 2677 064b 0E       		.uleb128 0xe
 2678 064c 5F696D70 		.ascii "_imp____mb_cur_max\0"
 2678      5F5F5F5F 
 2678      6D625F63 
 2678      75725F6D 
 2678      617800
 2679 065f 0B       		.byte	0xb
 2680 0660 73       		.byte	0x73
 2681 0661 10       		.byte	0x10
 2682 0662 F3010000 		.long	0x1f3
 2683 0666 01       		.byte	0x1
 2684 0667 01       		.byte	0x1
 2685 0668 08       		.uleb128 0x8
 2686 0669 9C010000 		.long	0x19c
 2687 066d 78060000 		.long	0x678
 2688 0671 10       		.uleb128 0x10
 2689 0672 75010000 		.long	0x175
 2690 0676 00       		.byte	0
 2691 0677 00       		.byte	0
 2692 0678 0E       		.uleb128 0xe
 2693 0679 5F737973 		.ascii "_sys_errlist\0"
 2693      5F657272 
 2693      6C697374 
 2693      00
 2694 0686 0B       		.byte	0xb
 2695 0687 AC       		.byte	0xac
 2696 0688 26       		.byte	0x26
 2697 0689 68060000 		.long	0x668
 2698 068d 01       		.byte	0x1
 2699 068e 01       		.byte	0x1
 2700 068f 0E       		.uleb128 0xe
 2701 0690 5F737973 		.ascii "_sys_nerr\0"
 2701      5F6E6572 
 2701      7200
 2702 069a 0B       		.byte	0xb
 2703 069b AD       		.byte	0xad
 2704 069c 24       		.byte	0x24
 2705 069d 1B010000 		.long	0x11b
 2706 06a1 01       		.byte	0x1
 2707 06a2 01       		.byte	0x1
 2708 06a3 11       		.uleb128 0x11
 2709 06a4 5F696D70 		.ascii "_imp____argc\0"
 2709      5F5F5F5F 
 2709      61726763 
 2709      00
 2710 06b1 0B       		.byte	0xb
 2711 06b2 1901     		.word	0x119
 2712 06b4 10       		.byte	0x10
 2713 06b5 F3010000 		.long	0x1f3
 2714 06b9 01       		.byte	0x1
GAS LISTING C:\Users\jisu8\AppData\Local\Temp\ccbDR4WJ.s 			page 64


 2715 06ba 01       		.byte	0x1
 2716 06bb 11       		.uleb128 0x11
 2717 06bc 5F696D70 		.ascii "_imp____argv\0"
 2717      5F5F5F5F 
 2717      61726776 
 2717      00
 2718 06c9 0B       		.byte	0xb
 2719 06ca 1D01     		.word	0x11d
 2720 06cc 13       		.byte	0x13
 2721 06cd D3060000 		.long	0x6d3
 2722 06d1 01       		.byte	0x1
 2723 06d2 01       		.byte	0x1
 2724 06d3 0A       		.uleb128 0xa
 2725 06d4 04       		.byte	0x4
 2726 06d5 D9060000 		.long	0x6d9
 2727 06d9 0A       		.uleb128 0xa
 2728 06da 04       		.byte	0x4
 2729 06db 9C010000 		.long	0x19c
 2730 06df 11       		.uleb128 0x11
 2731 06e0 5F696D70 		.ascii "_imp____wargv\0"
 2731      5F5F5F5F 
 2731      77617267 
 2731      7600
 2732 06ee 0B       		.byte	0xb
 2733 06ef 2101     		.word	0x121
 2734 06f1 16       		.byte	0x16
 2735 06f2 F8060000 		.long	0x6f8
 2736 06f6 01       		.byte	0x1
 2737 06f7 01       		.byte	0x1
 2738 06f8 0A       		.uleb128 0xa
 2739 06f9 04       		.byte	0x4
 2740 06fa FE060000 		.long	0x6fe
 2741 06fe 0A       		.uleb128 0xa
 2742 06ff 04       		.byte	0x4
 2743 0700 ED010000 		.long	0x1ed
 2744 0704 11       		.uleb128 0x11
 2745 0705 5F696D70 		.ascii "_imp___environ\0"
 2745      5F5F5F65 
 2745      6E766972 
 2745      6F6E00
 2746 0714 0B       		.byte	0xb
 2747 0715 2701     		.word	0x127
 2748 0717 13       		.byte	0x13
 2749 0718 D3060000 		.long	0x6d3
 2750 071c 01       		.byte	0x1
 2751 071d 01       		.byte	0x1
 2752 071e 11       		.uleb128 0x11
 2753 071f 5F696D70 		.ascii "_imp___wenviron\0"
 2753      5F5F5F77 
 2753      656E7669 
 2753      726F6E00 
 2754 072f 0B       		.byte	0xb
 2755 0730 2C01     		.word	0x12c
 2756 0732 16       		.byte	0x16
 2757 0733 F8060000 		.long	0x6f8
 2758 0737 01       		.byte	0x1
 2759 0738 01       		.byte	0x1
GAS LISTING C:\Users\jisu8\AppData\Local\Temp\ccbDR4WJ.s 			page 65


 2760 0739 11       		.uleb128 0x11
 2761 073a 5F696D70 		.ascii "_imp___pgmptr\0"
 2761      5F5F5F70 
 2761      676D7074 
 2761      7200
 2762 0748 0B       		.byte	0xb
 2763 0749 3201     		.word	0x132
 2764 074b 12       		.byte	0x12
 2765 074c D9060000 		.long	0x6d9
 2766 0750 01       		.byte	0x1
 2767 0751 01       		.byte	0x1
 2768 0752 11       		.uleb128 0x11
 2769 0753 5F696D70 		.ascii "_imp___wpgmptr\0"
 2769      5F5F5F77 
 2769      70676D70 
 2769      747200
 2770 0762 0B       		.byte	0xb
 2771 0763 3701     		.word	0x137
 2772 0765 15       		.byte	0x15
 2773 0766 FE060000 		.long	0x6fe
 2774 076a 01       		.byte	0x1
 2775 076b 01       		.byte	0x1
 2776 076c 11       		.uleb128 0x11
 2777 076d 5F696D70 		.ascii "_imp___osplatform\0"
 2777      5F5F5F6F 
 2777      73706C61 
 2777      74666F72 
 2777      6D00
 2778 077f 0B       		.byte	0xb
 2779 0780 3C01     		.word	0x13c
 2780 0782 19       		.byte	0x19
 2781 0783 89070000 		.long	0x789
 2782 0787 01       		.byte	0x1
 2783 0788 01       		.byte	0x1
 2784 0789 0A       		.uleb128 0xa
 2785 078a 04       		.byte	0x4
 2786 078b 75010000 		.long	0x175
 2787 078f 11       		.uleb128 0x11
 2788 0790 5F696D70 		.ascii "_imp___osver\0"
 2788      5F5F5F6F 
 2788      73766572 
 2788      00
 2789 079d 0B       		.byte	0xb
 2790 079e 4101     		.word	0x141
 2791 07a0 19       		.byte	0x19
 2792 07a1 89070000 		.long	0x789
 2793 07a5 01       		.byte	0x1
 2794 07a6 01       		.byte	0x1
 2795 07a7 11       		.uleb128 0x11
 2796 07a8 5F696D70 		.ascii "_imp___winver\0"
 2796      5F5F5F77 
 2796      696E7665 
 2796      7200
 2797 07b6 0B       		.byte	0xb
 2798 07b7 4601     		.word	0x146
 2799 07b9 19       		.byte	0x19
 2800 07ba 89070000 		.long	0x789
GAS LISTING C:\Users\jisu8\AppData\Local\Temp\ccbDR4WJ.s 			page 66


 2801 07be 01       		.byte	0x1
 2802 07bf 01       		.byte	0x1
 2803 07c0 11       		.uleb128 0x11
 2804 07c1 5F696D70 		.ascii "_imp___winmajor\0"
 2804      5F5F5F77 
 2804      696E6D61 
 2804      6A6F7200 
 2805 07d1 0B       		.byte	0xb
 2806 07d2 4B01     		.word	0x14b
 2807 07d4 19       		.byte	0x19
 2808 07d5 89070000 		.long	0x789
 2809 07d9 01       		.byte	0x1
 2810 07da 01       		.byte	0x1
 2811 07db 11       		.uleb128 0x11
 2812 07dc 5F696D70 		.ascii "_imp___winminor\0"
 2812      5F5F5F77 
 2812      696E6D69 
 2812      6E6F7200 
 2813 07ec 0B       		.byte	0xb
 2814 07ed 5001     		.word	0x150
 2815 07ef 19       		.byte	0x19
 2816 07f0 89070000 		.long	0x789
 2817 07f4 01       		.byte	0x1
 2818 07f5 01       		.byte	0x1
 2819 07f6 0E       		.uleb128 0xe
 2820 07f7 5F616D62 		.ascii "_amblksiz\0"
 2820      6C6B7369 
 2820      7A00
 2821 0801 0C       		.byte	0xc
 2822 0802 35       		.byte	0x35
 2823 0803 17       		.byte	0x17
 2824 0804 75010000 		.long	0x175
 2825 0808 01       		.byte	0x1
 2826 0809 01       		.byte	0x1
 2827 080a 12       		.uleb128 0x12
 2828 080b 5F696F62 		.ascii "_iobuf\0"
 2828      756600
 2829 0812 20       		.byte	0x20
 2830 0813 0D       		.byte	0xd
 2831 0814 1A       		.byte	0x1a
 2832 0815 0A       		.byte	0xa
 2833 0816 AA080000 		.long	0x8aa
 2834 081a 03       		.uleb128 0x3
 2835 081b 5F707472 		.ascii "_ptr\0"
 2835      00
 2836 0820 0D       		.byte	0xd
 2837 0821 1B       		.byte	0x1b
 2838 0822 0B       		.byte	0xb
 2839 0823 9C010000 		.long	0x19c
 2840 0827 02       		.byte	0x2
 2841 0828 23       		.byte	0x23
 2842 0829 00       		.uleb128 0
 2843 082a 03       		.uleb128 0x3
 2844 082b 5F636E74 		.ascii "_cnt\0"
 2844      00
 2845 0830 0D       		.byte	0xd
 2846 0831 1C       		.byte	0x1c
GAS LISTING C:\Users\jisu8\AppData\Local\Temp\ccbDR4WJ.s 			page 67


 2847 0832 09       		.byte	0x9
 2848 0833 1B010000 		.long	0x11b
 2849 0837 02       		.byte	0x2
 2850 0838 23       		.byte	0x23
 2851 0839 04       		.uleb128 0x4
 2852 083a 03       		.uleb128 0x3
 2853 083b 5F626173 		.ascii "_base\0"
 2853      6500
 2854 0841 0D       		.byte	0xd
 2855 0842 1D       		.byte	0x1d
 2856 0843 0B       		.byte	0xb
 2857 0844 9C010000 		.long	0x19c
 2858 0848 02       		.byte	0x2
 2859 0849 23       		.byte	0x23
 2860 084a 08       		.uleb128 0x8
 2861 084b 03       		.uleb128 0x3
 2862 084c 5F666C61 		.ascii "_flag\0"
 2862      6700
 2863 0852 0D       		.byte	0xd
 2864 0853 1E       		.byte	0x1e
 2865 0854 09       		.byte	0x9
 2866 0855 1B010000 		.long	0x11b
 2867 0859 02       		.byte	0x2
 2868 085a 23       		.byte	0x23
 2869 085b 0C       		.uleb128 0xc
 2870 085c 03       		.uleb128 0x3
 2871 085d 5F66696C 		.ascii "_file\0"
 2871      6500
 2872 0863 0D       		.byte	0xd
 2873 0864 1F       		.byte	0x1f
 2874 0865 09       		.byte	0x9
 2875 0866 1B010000 		.long	0x11b
 2876 086a 02       		.byte	0x2
 2877 086b 23       		.byte	0x23
 2878 086c 10       		.uleb128 0x10
 2879 086d 03       		.uleb128 0x3
 2880 086e 5F636861 		.ascii "_charbuf\0"
 2880      72627566 
 2880      00
 2881 0877 0D       		.byte	0xd
 2882 0878 20       		.byte	0x20
 2883 0879 09       		.byte	0x9
 2884 087a 1B010000 		.long	0x11b
 2885 087e 02       		.byte	0x2
 2886 087f 23       		.byte	0x23
 2887 0880 14       		.uleb128 0x14
 2888 0881 03       		.uleb128 0x3
 2889 0882 5F627566 		.ascii "_bufsiz\0"
 2889      73697A00 
 2890 088a 0D       		.byte	0xd
 2891 088b 21       		.byte	0x21
 2892 088c 09       		.byte	0x9
 2893 088d 1B010000 		.long	0x11b
 2894 0891 02       		.byte	0x2
 2895 0892 23       		.byte	0x23
 2896 0893 18       		.uleb128 0x18
 2897 0894 03       		.uleb128 0x3
GAS LISTING C:\Users\jisu8\AppData\Local\Temp\ccbDR4WJ.s 			page 68


 2898 0895 5F746D70 		.ascii "_tmpfname\0"
 2898      666E616D 
 2898      6500
 2899 089f 0D       		.byte	0xd
 2900 08a0 22       		.byte	0x22
 2901 08a1 0B       		.byte	0xb
 2902 08a2 9C010000 		.long	0x19c
 2903 08a6 02       		.byte	0x2
 2904 08a7 23       		.byte	0x23
 2905 08a8 1C       		.uleb128 0x1c
 2906 08a9 00       		.byte	0
 2907 08aa 06       		.uleb128 0x6
 2908 08ab 46494C45 		.ascii "FILE\0"
 2908      00
 2909 08b0 0D       		.byte	0xd
 2910 08b1 24       		.byte	0x24
 2911 08b2 19       		.byte	0x19
 2912 08b3 0A080000 		.long	0x80a
 2913 08b7 08       		.uleb128 0x8
 2914 08b8 AA080000 		.long	0x8aa
 2915 08bc C2080000 		.long	0x8c2
 2916 08c0 13       		.uleb128 0x13
 2917 08c1 00       		.byte	0
 2918 08c2 0E       		.uleb128 0xe
 2919 08c3 5F696D70 		.ascii "_imp___iob\0"
 2919      5F5F5F69 
 2919      6F6200
 2920 08ce 0D       		.byte	0xd
 2921 08cf 5C       		.byte	0x5c
 2922 08d0 10       		.byte	0x10
 2923 08d1 D7080000 		.long	0x8d7
 2924 08d5 01       		.byte	0x1
 2925 08d6 01       		.byte	0x1
 2926 08d7 0A       		.uleb128 0xa
 2927 08d8 04       		.byte	0x4
 2928 08d9 B7080000 		.long	0x8b7
 2929 08dd 14       		.uleb128 0x14
 2930 08de 4D41585F 		.ascii "MAX_NEARBY_DISTANCE\0"
 2930      4E454152 
 2930      42595F44 
 2930      49535441 
 2930      4E434500 
 2931 08f2 01       		.byte	0x1
 2932 08f3 19       		.byte	0x19
 2933 08f4 12       		.byte	0x12
 2934 08f5 22010000 		.long	0x122
 2935 08f9 05       		.byte	0x5
 2936 08fa 03       		.byte	0x3
 2937 08fb 00000000 		.long	_MAX_NEARBY_DISTANCE
 2938 08ff 14       		.uleb128 0x14
 2939 0900 4D494E5F 		.ascii "MIN_ROWS_IN_BARCODE\0"
 2939      524F5753 
 2939      5F494E5F 
 2939      42415243 
 2939      4F444500 
 2940 0914 01       		.byte	0x1
 2941 0915 1A       		.byte	0x1a
GAS LISTING C:\Users\jisu8\AppData\Local\Temp\ccbDR4WJ.s 			page 69


 2942 0916 12       		.byte	0x12
 2943 0917 22010000 		.long	0x122
 2944 091b 05       		.byte	0x5
 2945 091c 03       		.byte	0x3
 2946 091d 04000000 		.long	_MIN_ROWS_IN_BARCODE
 2947 0921 14       		.uleb128 0x14
 2948 0922 4D41585F 		.ascii "MAX_ROWS_IN_BARCODE\0"
 2948      524F5753 
 2948      5F494E5F 
 2948      42415243 
 2948      4F444500 
 2949 0936 01       		.byte	0x1
 2950 0937 1B       		.byte	0x1b
 2951 0938 12       		.byte	0x12
 2952 0939 22010000 		.long	0x122
 2953 093d 05       		.byte	0x5
 2954 093e 03       		.byte	0x3
 2955 093f 08000000 		.long	_MAX_ROWS_IN_BARCODE
 2956 0943 15       		.uleb128 0x15
 2957 0944 76000000 		.secrel32	LASF3
 2958 0948 01       		.byte	0x1
 2959 0949 1D       		.byte	0x1d
 2960 094a 05       		.byte	0x5
 2961 094b 64010000 		.long	0x164
 2962 094f 01       		.byte	0x1
 2963 0950 05       		.byte	0x5
 2964 0951 03       		.byte	0x3
 2965 0952 00000000 		.long	_codewords
 2966 0956 16       		.uleb128 0x16
 2967 0957 01       		.byte	0x1
 2968 0958 67657442 		.ascii "getBarcodeMetadata\0"
 2968      6172636F 
 2968      64654D65 
 2968      74616461 
 2968      746100
 2969 096b 01       		.byte	0x1
 2970 096c 8501     		.word	0x185
 2971 096e 09       		.byte	0x9
 2972 096f 01       		.byte	0x1
 2973 0970 4A020000 		.long	0x24a
 2974 0974 DD0C0000 		.long	LFB28
 2975 0978 F10F0000 		.long	LFE28
 2976 097c 00000000 		.secrel32	LLST12
 2977 0980 01       		.byte	0x1
 2978 0981 EF0A0000 		.long	0xaef
 2979 0985 17       		.uleb128 0x17
 2980 0986 BE000000 		.secrel32	LASF4
 2981 098a 01       		.byte	0x1
 2982 098b 8501     		.word	0x185
 2983 098d 36       		.byte	0x36
 2984 098e EF0A0000 		.long	0xaef
 2985 0992 02       		.byte	0x2
 2986 0993 91       		.byte	0x91
 2987 0994 00       		.sleb128 0
 2988 0995 18       		.uleb128 0x18
 2989 0996 72657375 		.ascii "result\0"
 2989      6C7400
GAS LISTING C:\Users\jisu8\AppData\Local\Temp\ccbDR4WJ.s 			page 70


 2990 099d 01       		.byte	0x1
 2991 099e 8501     		.word	0x185
 2992 09a0 5E       		.byte	0x5e
 2993 09a1 F50A0000 		.long	0xaf5
 2994 09a5 02       		.byte	0x2
 2995 09a6 91       		.byte	0x91
 2996 09a7 04       		.sleb128 4
 2997 09a8 17       		.uleb128 0x17
 2998 09a9 41000000 		.secrel32	LASF5
 2999 09ad 01       		.byte	0x1
 3000 09ae 8501     		.word	0x185
 3001 09b0 69       		.byte	0x69
 3002 09b1 1B010000 		.long	0x11b
 3003 09b5 02       		.byte	0x2
 3004 09b6 91       		.byte	0x91
 3005 09b7 08       		.sleb128 8
 3006 09b8 19       		.uleb128 0x19
 3007 09b9 76000000 		.secrel32	LASF3
 3008 09bd 01       		.byte	0x1
 3009 09be 8E01     		.word	0x18e
 3010 09c0 0F       		.byte	0xf
 3011 09c1 FB0A0000 		.long	0xafb
 3012 09c5 02       		.byte	0x2
 3013 09c6 91       		.byte	0x91
 3014 09c7 64       		.sleb128 -28
 3015 09c8 1A       		.uleb128 0x1a
 3016 09c9 62617263 		.ascii "barcodeColumnCount\0"
 3016      6F646543 
 3016      6F6C756D 
 3016      6E436F75 
 3016      6E7400
 3017 09dc 01       		.byte	0x1
 3018 09dd 8F01     		.word	0x18f
 3019 09df 11       		.byte	0x11
 3020 09e0 85010000 		.long	0x185
 3021 09e4 03       		.byte	0x3
 3022 09e5 91       		.byte	0x91
 3023 09e6 B060     		.sleb128 -4048
 3024 09e8 1A       		.uleb128 0x1a
 3025 09e9 62617263 		.ascii "barcodeRowCountUpperPart\0"
 3025      6F646552 
 3025      6F77436F 
 3025      756E7455 
 3025      70706572 
 3026 0a02 01       		.byte	0x1
 3027 0a03 9001     		.word	0x190
 3028 0a05 11       		.byte	0x11
 3029 0a06 85010000 		.long	0x185
 3030 0a0a 03       		.byte	0x3
 3031 0a0b 91       		.byte	0x91
 3032 0a0c 9041     		.sleb128 -8048
 3033 0a0e 1A       		.uleb128 0x1a
 3034 0a0f 62617263 		.ascii "barcodeRowCountLowerPart\0"
 3034      6F646552 
 3034      6F77436F 
 3034      756E744C 
 3034      6F776572 
GAS LISTING C:\Users\jisu8\AppData\Local\Temp\ccbDR4WJ.s 			page 71


 3035 0a28 01       		.byte	0x1
 3036 0a29 9101     		.word	0x191
 3037 0a2b 11       		.byte	0x11
 3038 0a2c 85010000 		.long	0x185
 3039 0a30 04       		.byte	0x4
 3040 0a31 91       		.byte	0x91
 3041 0a32 F0A17F   		.sleb128 -12048
 3042 0a35 1A       		.uleb128 0x1a
 3043 0a36 62617263 		.ascii "barcodeECLevel\0"
 3043      6F646545 
 3043      434C6576 
 3043      656C00
 3044 0a45 01       		.byte	0x1
 3045 0a46 9201     		.word	0x192
 3046 0a48 11       		.byte	0x11
 3047 0a49 85010000 		.long	0x185
 3048 0a4d 04       		.byte	0x4
 3049 0a4e 91       		.byte	0x91
 3050 0a4f D0827F   		.sleb128 -16048
 3051 0a52 1A       		.uleb128 0x1a
 3052 0a53 636300   		.ascii "cc\0"
 3053 0a56 01       		.byte	0x1
 3054 0a57 B701     		.word	0x1b7
 3055 0a59 06       		.byte	0x6
 3056 0a5a 1B010000 		.long	0x11b
 3057 0a5e 02       		.byte	0x2
 3058 0a5f 91       		.byte	0x91
 3059 0a60 5C       		.sleb128 -36
 3060 0a61 1A       		.uleb128 0x1a
 3061 0a62 72637500 		.ascii "rcu\0"
 3062 0a66 01       		.byte	0x1
 3063 0a67 B801     		.word	0x1b8
 3064 0a69 06       		.byte	0x6
 3065 0a6a 1B010000 		.long	0x11b
 3066 0a6e 02       		.byte	0x2
 3067 0a6f 91       		.byte	0x91
 3068 0a70 58       		.sleb128 -40
 3069 0a71 1A       		.uleb128 0x1a
 3070 0a72 72636C00 		.ascii "rcl\0"
 3071 0a76 01       		.byte	0x1
 3072 0a77 B901     		.word	0x1b9
 3073 0a79 06       		.byte	0x6
 3074 0a7a 1B010000 		.long	0x11b
 3075 0a7e 02       		.byte	0x2
 3076 0a7f 91       		.byte	0x91
 3077 0a80 54       		.sleb128 -44
 3078 0a81 1A       		.uleb128 0x1a
 3079 0a82 656300   		.ascii "ec\0"
 3080 0a85 01       		.byte	0x1
 3081 0a86 BA01     		.word	0x1ba
 3082 0a88 06       		.byte	0x6
 3083 0a89 1B010000 		.long	0x11b
 3084 0a8d 02       		.byte	0x2
 3085 0a8e 91       		.byte	0x91
 3086 0a8f 50       		.sleb128 -48
 3087 0a90 1B       		.uleb128 0x1b
 3088 0a91 1F0D0000 		.long	LBB18
GAS LISTING C:\Users\jisu8\AppData\Local\Temp\ccbDR4WJ.s 			page 72


 3089 0a95 770D0000 		.long	LBE18
 3090 0a99 AC0A0000 		.long	0xaac
 3091 0a9d 1A       		.uleb128 0x1a
 3092 0a9e 6900     		.ascii "i\0"
 3093 0aa0 01       		.byte	0x1
 3094 0aa1 9301     		.word	0x193
 3095 0aa3 10       		.byte	0x10
 3096 0aa4 67020000 		.long	0x267
 3097 0aa8 02       		.byte	0x2
 3098 0aa9 91       		.byte	0x91
 3099 0aaa 6E       		.sleb128 -18
 3100 0aab 00       		.byte	0
 3101 0aac 1C       		.uleb128 0x1c
 3102 0aad 770D0000 		.long	LBB19
 3103 0ab1 0D0F0000 		.long	LBE19
 3104 0ab5 1A       		.uleb128 0x1a
 3105 0ab6 6900     		.ascii "i\0"
 3106 0ab8 01       		.byte	0x1
 3107 0ab9 9A01     		.word	0x19a
 3108 0abb 10       		.byte	0x10
 3109 0abc 67020000 		.long	0x267
 3110 0ac0 02       		.byte	0x2
 3111 0ac1 91       		.byte	0x91
 3112 0ac2 6C       		.sleb128 -20
 3113 0ac3 1C       		.uleb128 0x1c
 3114 0ac4 820D0000 		.long	LBB20
 3115 0ac8 F50E0000 		.long	LBE20
 3116 0acc 19       		.uleb128 0x19
 3117 0acd 80000000 		.secrel32	LASF6
 3118 0ad1 01       		.byte	0x1
 3119 0ad2 A201     		.word	0x1a2
 3120 0ad4 07       		.byte	0x7
 3121 0ad5 1B010000 		.long	0x11b
 3122 0ad9 02       		.byte	0x2
 3123 0ada 91       		.byte	0x91
 3124 0adb 60       		.sleb128 -32
 3125 0adc 19       		.uleb128 0x19
 3126 0add 26000000 		.secrel32	LASF7
 3127 0ae1 01       		.byte	0x1
 3128 0ae2 A301     		.word	0x1a3
 3129 0ae4 07       		.byte	0x7
 3130 0ae5 1B010000 		.long	0x11b
 3131 0ae9 02       		.byte	0x2
 3132 0aea 91       		.byte	0x91
 3133 0aeb 68       		.sleb128 -24
 3134 0aec 00       		.byte	0
 3135 0aed 00       		.byte	0
 3136 0aee 00       		.byte	0
 3137 0aef 0A       		.uleb128 0xa
 3138 0af0 04       		.byte	0x4
 3139 0af1 FF050000 		.long	0x5ff
 3140 0af5 0A       		.uleb128 0xa
 3141 0af6 04       		.byte	0x4
 3142 0af7 27010000 		.long	0x127
 3143 0afb 0A       		.uleb128 0xa
 3144 0afc 04       		.byte	0x4
 3145 0afd FF040000 		.long	0x4ff
GAS LISTING C:\Users\jisu8\AppData\Local\Temp\ccbDR4WJ.s 			page 73


 3146 0b01 1D       		.uleb128 0x1d
 3147 0b02 01       		.byte	0x1
 3148 0b03 9D000000 		.secrel32	LASF9
 3149 0b07 01       		.byte	0x1
 3150 0b08 7F01     		.word	0x17f
 3151 0b0a 06       		.byte	0x6
 3152 0b0b 01       		.byte	0x1
 3153 0b0c 8F0C0000 		.long	LFB27
 3154 0b10 DD0C0000 		.long	LFE27
 3155 0b14 38000000 		.secrel32	LLST11
 3156 0b18 01       		.byte	0x1
 3157 0b19 340B0000 		.long	0xb34
 3158 0b1d 18       		.uleb128 0x18
 3159 0b1e 436F6465 		.ascii "Codewords\0"
 3159      776F7264 
 3159      7300
 3160 0b28 01       		.byte	0x1
 3161 0b29 7F01     		.word	0x17f
 3162 0b2b 34       		.byte	0x34
 3163 0b2c FB0A0000 		.long	0xafb
 3164 0b30 02       		.byte	0x2
 3165 0b31 91       		.byte	0x91
 3166 0b32 00       		.sleb128 0
 3167 0b33 00       		.byte	0
 3168 0b34 16       		.uleb128 0x16
 3169 0b35 01       		.byte	0x1
 3170 0b36 67657452 		.ascii "getRowHeights\0"
 3170      6F774865 
 3170      69676874 
 3170      7300
 3171 0b44 01       		.byte	0x1
 3172 0b45 5601     		.word	0x156
 3173 0b47 09       		.byte	0x9
 3174 0b48 01       		.byte	0x1
 3175 0b49 4A020000 		.long	0x24a
 3176 0b4d 2A0B0000 		.long	LFB26
 3177 0b51 8F0C0000 		.long	LFE26
 3178 0b55 70000000 		.secrel32	LLST10
 3179 0b59 01       		.byte	0x1
 3180 0b5a 470C0000 		.long	0xc47
 3181 0b5e 17       		.uleb128 0x17
 3182 0b5f D1000000 		.secrel32	LASF2
 3183 0b63 01       		.byte	0x1
 3184 0b64 5601     		.word	0x156
 3185 0b66 31       		.byte	0x31
 3186 0b67 EF0A0000 		.long	0xaef
 3187 0b6b 02       		.byte	0x2
 3188 0b6c 91       		.byte	0x91
 3189 0b6d 00       		.sleb128 0
 3190 0b6e 18       		.uleb128 0x18
 3191 0b6f 72657375 		.ascii "result\0"
 3191      6C7400
 3192 0b76 01       		.byte	0x1
 3193 0b77 5601     		.word	0x156
 3194 0b79 4A       		.byte	0x4a
 3195 0b7a F3010000 		.long	0x1f3
 3196 0b7e 02       		.byte	0x2
GAS LISTING C:\Users\jisu8\AppData\Local\Temp\ccbDR4WJ.s 			page 74


 3197 0b7f 91       		.byte	0x91
 3198 0b80 04       		.sleb128 4
 3199 0b81 17       		.uleb128 0x17
 3200 0b82 41000000 		.secrel32	LASF5
 3201 0b86 01       		.byte	0x1
 3202 0b87 5601     		.word	0x156
 3203 0b89 55       		.byte	0x55
 3204 0b8a 1B010000 		.long	0x11b
 3205 0b8e 02       		.byte	0x2
 3206 0b8f 91       		.byte	0x91
 3207 0b90 08       		.sleb128 8
 3208 0b91 18       		.uleb128 0x18
 3209 0b92 73697A65 		.ascii "size\0"
 3209      00
 3210 0b97 01       		.byte	0x1
 3211 0b98 5601     		.word	0x156
 3212 0b9a 62       		.byte	0x62
 3213 0b9b F3010000 		.long	0x1f3
 3214 0b9f 02       		.byte	0x2
 3215 0ba0 91       		.byte	0x91
 3216 0ba1 0C       		.sleb128 12
 3217 0ba2 19       		.uleb128 0x19
 3218 0ba3 66000000 		.secrel32	LASF8
 3219 0ba7 01       		.byte	0x1
 3220 0ba8 5A01     		.word	0x15a
 3221 0baa 14       		.byte	0x14
 3222 0bab 27010000 		.long	0x127
 3223 0baf 02       		.byte	0x2
 3224 0bb0 91       		.byte	0x91
 3225 0bb1 40       		.sleb128 -64
 3226 0bb2 1A       		.uleb128 0x1a
 3227 0bb3 73697A65 		.ascii "sizeRow\0"
 3227      526F7700 
 3228 0bbb 01       		.byte	0x1
 3229 0bbc 6301     		.word	0x163
 3230 0bbe 06       		.byte	0x6
 3231 0bbf 1B010000 		.long	0x11b
 3232 0bc3 02       		.byte	0x2
 3233 0bc4 91       		.byte	0x91
 3234 0bc5 64       		.sleb128 -28
 3235 0bc6 1A       		.uleb128 0x1a
 3236 0bc7 72657400 		.ascii "ret\0"
 3237 0bcb 01       		.byte	0x1
 3238 0bcc 6401     		.word	0x164
 3239 0bce 06       		.byte	0x6
 3240 0bcf 470C0000 		.long	0xc47
 3241 0bd3 03       		.byte	0x3
 3242 0bd4 91       		.byte	0x91
 3243 0bd5 5C       		.sleb128 -36
 3244 0bd6 06       		.byte	0x6
 3245 0bd7 1B       		.uleb128 0x1b
 3246 0bd8 E20B0000 		.long	LBB14
 3247 0bdc 4B0C0000 		.long	LBE14
 3248 0be0 2E0C0000 		.long	0xc2e
 3249 0be4 1A       		.uleb128 0x1a
 3250 0be5 6900     		.ascii "i\0"
 3251 0be7 01       		.byte	0x1
GAS LISTING C:\Users\jisu8\AppData\Local\Temp\ccbDR4WJ.s 			page 75


 3252 0be8 6601     		.word	0x166
 3253 0bea 0B       		.byte	0xb
 3254 0beb 1B010000 		.long	0x11b
 3255 0bef 02       		.byte	0x2
 3256 0bf0 91       		.byte	0x91
 3257 0bf1 68       		.sleb128 -24
 3258 0bf2 1C       		.uleb128 0x1c
 3259 0bf3 EB0B0000 		.long	LBB15
 3260 0bf7 3F0C0000 		.long	LBE15
 3261 0bfb 1A       		.uleb128 0x1a
 3262 0bfc 6974656D 		.ascii "item\0"
 3262      00
 3263 0c01 01       		.byte	0x1
 3264 0c02 6801     		.word	0x168
 3265 0c04 10       		.byte	0x10
 3266 0c05 FB0A0000 		.long	0xafb
 3267 0c09 02       		.byte	0x2
 3268 0c0a 91       		.byte	0x91
 3269 0c0b 58       		.sleb128 -40
 3270 0c0c 1C       		.uleb128 0x1c
 3271 0c0d 0C0C0000 		.long	LBB16
 3272 0c11 3F0C0000 		.long	LBE16
 3273 0c15 1A       		.uleb128 0x1a
 3274 0c16 726F774E 		.ascii "rowNumber\0"
 3274      756D6265 
 3274      7200
 3275 0c20 01       		.byte	0x1
 3276 0c21 6B01     		.word	0x16b
 3277 0c23 0D       		.byte	0xd
 3278 0c24 78020000 		.long	0x278
 3279 0c28 02       		.byte	0x2
 3280 0c29 91       		.byte	0x91
 3281 0c2a 50       		.sleb128 -48
 3282 0c2b 00       		.byte	0
 3283 0c2c 00       		.byte	0
 3284 0c2d 00       		.byte	0
 3285 0c2e 1C       		.uleb128 0x1c
 3286 0c2f 4B0C0000 		.long	LBB17
 3287 0c33 7B0C0000 		.long	LBE17
 3288 0c37 1A       		.uleb128 0x1a
 3289 0c38 6900     		.ascii "i\0"
 3290 0c3a 01       		.byte	0x1
 3291 0c3b 7501     		.word	0x175
 3292 0c3d 0A       		.byte	0xa
 3293 0c3e 1B010000 		.long	0x11b
 3294 0c42 02       		.byte	0x2
 3295 0c43 91       		.byte	0x91
 3296 0c44 6C       		.sleb128 -20
 3297 0c45 00       		.byte	0
 3298 0c46 00       		.byte	0
 3299 0c47 08       		.uleb128 0x8
 3300 0c48 1B010000 		.long	0x11b
 3301 0c4c 5A0C0000 		.long	0xc5a
 3302 0c50 1E       		.uleb128 0x1e
 3303 0c51 75010000 		.long	0x175
 3304 0c55 03       		.byte	0x3
 3305 0c56 91       		.byte	0x91
GAS LISTING C:\Users\jisu8\AppData\Local\Temp\ccbDR4WJ.s 			page 76


 3306 0c57 60       		.sleb128 -32
 3307 0c58 06       		.byte	0x6
 3308 0c59 00       		.byte	0
 3309 0c5a 1F       		.uleb128 0x1f
 3310 0c5b 01       		.byte	0x1
 3311 0c5c 61646A75 		.ascii "adjustIncompleteIndicatorColumnRowNumbers\0"
 3311      7374496E 
 3311      636F6D70 
 3311      6C657465 
 3311      496E6469 
 3312 0c86 01       		.byte	0x1
 3313 0c87 1F01     		.word	0x11f
 3314 0c89 06       		.byte	0x6
 3315 0c8a 01       		.byte	0x1
 3316 0c8b BF080000 		.long	LFB25
 3317 0c8f 2A0B0000 		.long	LFE25
 3318 0c93 A8000000 		.secrel32	LLST9
 3319 0c97 01       		.byte	0x1
 3320 0c98 9E0D0000 		.long	0xd9e
 3321 0c9c 17       		.uleb128 0x17
 3322 0c9d D1000000 		.secrel32	LASF2
 3323 0ca1 01       		.byte	0x1
 3324 0ca2 1F01     		.word	0x11f
 3325 0ca4 4A       		.byte	0x4a
 3326 0ca5 EF0A0000 		.long	0xaef
 3327 0ca9 02       		.byte	0x2
 3328 0caa 91       		.byte	0x91
 3329 0cab 00       		.sleb128 0
 3330 0cac 17       		.uleb128 0x17
 3331 0cad 66000000 		.secrel32	LASF8
 3332 0cb1 01       		.byte	0x1
 3333 0cb2 1F01     		.word	0x11f
 3334 0cb4 79       		.byte	0x79
 3335 0cb5 9E0D0000 		.long	0xd9e
 3336 0cb9 02       		.byte	0x2
 3337 0cba 91       		.byte	0x91
 3338 0cbb 04       		.sleb128 4
 3339 0cbc 1A       		.uleb128 0x1a
 3340 0cbd 626200   		.ascii "bb\0"
 3341 0cc0 01       		.byte	0x1
 3342 0cc1 2901     		.word	0x129
 3343 0cc3 16       		.byte	0x16
 3344 0cc4 52040000 		.long	0x452
 3345 0cc8 03       		.byte	0x3
 3346 0cc9 91       		.byte	0x91
 3347 0cca F47E     		.sleb128 -140
 3348 0ccc 1A       		.uleb128 0x1a
 3349 0ccd 746F7000 		.ascii "top\0"
 3350 0cd1 01       		.byte	0x1
 3351 0cd2 2A01     		.word	0x12a
 3352 0cd4 10       		.byte	0x10
 3353 0cd5 13030000 		.long	0x313
 3354 0cd9 03       		.byte	0x3
 3355 0cda 91       		.byte	0x91
 3356 0cdb E87E     		.sleb128 -152
 3357 0cdd 1A       		.uleb128 0x1a
 3358 0cde 626F7474 		.ascii "bottom\0"
GAS LISTING C:\Users\jisu8\AppData\Local\Temp\ccbDR4WJ.s 			page 77


 3358      6F6D00
 3359 0ce5 01       		.byte	0x1
 3360 0ce6 2B01     		.word	0x12b
 3361 0ce8 10       		.byte	0x10
 3362 0ce9 13030000 		.long	0x313
 3363 0ced 03       		.byte	0x3
 3364 0cee 91       		.byte	0x91
 3365 0cef DC7E     		.sleb128 -164
 3366 0cf1 19       		.uleb128 0x19
 3367 0cf2 38000000 		.secrel32	LASF10
 3368 0cf6 01       		.byte	0x1
 3369 0cf7 2C01     		.word	0x12c
 3370 0cf9 06       		.byte	0x6
 3371 0cfa 1B010000 		.long	0x11b
 3372 0cfe 02       		.byte	0x2
 3373 0cff 91       		.byte	0x91
 3374 0d00 4C       		.sleb128 -52
 3375 0d01 1A       		.uleb128 0x1a
 3376 0d02 6C617374 		.ascii "lastRow\0"
 3376      526F7700 
 3377 0d0a 01       		.byte	0x1
 3378 0d0b 2D01     		.word	0x12d
 3379 0d0d 06       		.byte	0x6
 3380 0d0e 1B010000 		.long	0x11b
 3381 0d12 02       		.byte	0x2
 3382 0d13 91       		.byte	0x91
 3383 0d14 48       		.sleb128 -56
 3384 0d15 19       		.uleb128 0x19
 3385 0d16 76000000 		.secrel32	LASF3
 3386 0d1a 01       		.byte	0x1
 3387 0d1b 2E01     		.word	0x12e
 3388 0d1d 0F       		.byte	0xf
 3389 0d1e FB0A0000 		.long	0xafb
 3390 0d22 02       		.byte	0x2
 3391 0d23 91       		.byte	0x91
 3392 0d24 44       		.sleb128 -60
 3393 0d25 19       		.uleb128 0x19
 3394 0d26 00000000 		.secrel32	LASF11
 3395 0d2a 01       		.byte	0x1
 3396 0d2b 2F01     		.word	0x12f
 3397 0d2d 06       		.byte	0x6
 3398 0d2e 1B010000 		.long	0x11b
 3399 0d32 02       		.byte	0x2
 3400 0d33 91       		.byte	0x91
 3401 0d34 5C       		.sleb128 -36
 3402 0d35 19       		.uleb128 0x19
 3403 0d36 48000000 		.secrel32	LASF12
 3404 0d3a 01       		.byte	0x1
 3405 0d3b 3001     		.word	0x130
 3406 0d3d 06       		.byte	0x6
 3407 0d3e 1B010000 		.long	0x11b
 3408 0d42 02       		.byte	0x2
 3409 0d43 91       		.byte	0x91
 3410 0d44 58       		.sleb128 -40
 3411 0d45 19       		.uleb128 0x19
 3412 0d46 55000000 		.secrel32	LASF13
 3413 0d4a 01       		.byte	0x1
GAS LISTING C:\Users\jisu8\AppData\Local\Temp\ccbDR4WJ.s 			page 78


 3414 0d4b 3101     		.word	0x131
 3415 0d4d 06       		.byte	0x6
 3416 0d4e 1B010000 		.long	0x11b
 3417 0d52 02       		.byte	0x2
 3418 0d53 91       		.byte	0x91
 3419 0d54 54       		.sleb128 -44
 3420 0d55 1C       		.uleb128 0x1c
 3421 0d56 080A0000 		.long	LBB12
 3422 0d5a 1E0B0000 		.long	LBE12
 3423 0d5e 19       		.uleb128 0x19
 3424 0d5f 0B000000 		.secrel32	LASF14
 3425 0d63 01       		.byte	0x1
 3426 0d64 3201     		.word	0x132
 3427 0d66 0B       		.byte	0xb
 3428 0d67 1B010000 		.long	0x11b
 3429 0d6b 02       		.byte	0x2
 3430 0d6c 91       		.byte	0x91
 3431 0d6d 50       		.sleb128 -48
 3432 0d6e 1C       		.uleb128 0x1c
 3433 0d6f 130A0000 		.long	LBB13
 3434 0d73 0C0B0000 		.long	LBE13
 3435 0d77 20       		.uleb128 0x20
 3436 0d78 01       		.byte	0x1
 3437 0d79 9D000000 		.secrel32	LASF9
 3438 0d7d 01       		.byte	0x1
 3439 0d7e 67       		.byte	0x67
 3440 0d7f 04       		.byte	0x4
 3441 0d80 1B010000 		.long	0x11b
 3442 0d84 01       		.byte	0x1
 3443 0d85 8B0D0000 		.long	0xd8b
 3444 0d89 21       		.uleb128 0x21
 3445 0d8a 00       		.byte	0
 3446 0d8b 19       		.uleb128 0x19
 3447 0d8c 18000000 		.secrel32	LASF15
 3448 0d90 01       		.byte	0x1
 3449 0d91 3B01     		.word	0x13b
 3450 0d93 07       		.byte	0x7
 3451 0d94 1B010000 		.long	0x11b
 3452 0d98 02       		.byte	0x2
 3453 0d99 91       		.byte	0x91
 3454 0d9a 40       		.sleb128 -64
 3455 0d9b 00       		.byte	0
 3456 0d9c 00       		.byte	0
 3457 0d9d 00       		.byte	0
 3458 0d9e 0A       		.uleb128 0xa
 3459 0d9f 04       		.byte	0x4
 3460 0da0 41010000 		.long	0x141
 3461 0da4 22       		.uleb128 0x22
 3462 0da5 01       		.byte	0x1
 3463 0da6 61646A75 		.ascii "adjustCompleteIndicatorColumnRowNumbers\0"
 3463      7374436F 
 3463      6D706C65 
 3463      7465496E 
 3463      64696361 
 3464 0dce 01       		.byte	0x1
 3465 0dcf AE       		.byte	0xae
 3466 0dd0 06       		.byte	0x6
GAS LISTING C:\Users\jisu8\AppData\Local\Temp\ccbDR4WJ.s 			page 79


 3467 0dd1 01       		.byte	0x1
 3468 0dd2 3E050000 		.long	LFB24
 3469 0dd6 BF080000 		.long	LFE24
 3470 0dda E0000000 		.secrel32	LLST8
 3471 0dde 01       		.byte	0x1
 3472 0ddf 730F0000 		.long	0xf73
 3473 0de3 23       		.uleb128 0x23
 3474 0de4 64657465 		.ascii "detectionResultColumn\0"
 3474      6374696F 
 3474      6E526573 
 3474      756C7443 
 3474      6F6C756D 
 3475 0dfa 01       		.byte	0x1
 3476 0dfb AE       		.byte	0xae
 3477 0dfc 48       		.byte	0x48
 3478 0dfd EF0A0000 		.long	0xaef
 3479 0e01 02       		.byte	0x2
 3480 0e02 91       		.byte	0x91
 3481 0e03 00       		.sleb128 0
 3482 0e04 24       		.uleb128 0x24
 3483 0e05 66000000 		.secrel32	LASF8
 3484 0e09 01       		.byte	0x1
 3485 0e0a AE       		.byte	0xae
 3486 0e0b 78       		.byte	0x78
 3487 0e0c 9E0D0000 		.long	0xd9e
 3488 0e10 02       		.byte	0x2
 3489 0e11 91       		.byte	0x91
 3490 0e12 04       		.sleb128 4
 3491 0e13 23       		.uleb128 0x23
 3492 0e14 73697A65 		.ascii "size\0"
 3492      00
 3493 0e19 01       		.byte	0x1
 3494 0e1a AE       		.byte	0xae
 3495 0e1b 8C       		.byte	0x8c
 3496 0e1c 1B010000 		.long	0x11b
 3497 0e20 02       		.byte	0x2
 3498 0e21 91       		.byte	0x91
 3499 0e22 08       		.sleb128 8
 3500 0e23 25       		.uleb128 0x25
 3501 0e24 76000000 		.secrel32	LASF3
 3502 0e28 01       		.byte	0x1
 3503 0e29 B7       		.byte	0xb7
 3504 0e2a 0F       		.byte	0xf
 3505 0e2b FB0A0000 		.long	0xafb
 3506 0e2f 03       		.byte	0x3
 3507 0e30 91       		.byte	0x91
 3508 0e31 BC7F     		.sleb128 -68
 3509 0e33 14       		.uleb128 0x14
 3510 0e34 626200   		.ascii "bb\0"
 3511 0e37 01       		.byte	0x1
 3512 0e38 BA       		.byte	0xba
 3513 0e39 16       		.byte	0x16
 3514 0e3a 52040000 		.long	0x452
 3515 0e3e 03       		.byte	0x3
 3516 0e3f 91       		.byte	0x91
 3517 0e40 E47E     		.sleb128 -156
 3518 0e42 14       		.uleb128 0x14
GAS LISTING C:\Users\jisu8\AppData\Local\Temp\ccbDR4WJ.s 			page 80


 3519 0e43 746F7000 		.ascii "top\0"
 3520 0e47 01       		.byte	0x1
 3521 0e48 BB       		.byte	0xbb
 3522 0e49 10       		.byte	0x10
 3523 0e4a 13030000 		.long	0x313
 3524 0e4e 03       		.byte	0x3
 3525 0e4f 91       		.byte	0x91
 3526 0e50 D87E     		.sleb128 -168
 3527 0e52 14       		.uleb128 0x14
 3528 0e53 626F7474 		.ascii "bottom\0"
 3528      6F6D00
 3529 0e5a 01       		.byte	0x1
 3530 0e5b BC       		.byte	0xbc
 3531 0e5c 10       		.byte	0x10
 3532 0e5d 13030000 		.long	0x313
 3533 0e61 03       		.byte	0x3
 3534 0e62 91       		.byte	0x91
 3535 0e63 CC7E     		.sleb128 -180
 3536 0e65 25       		.uleb128 0x25
 3537 0e66 38000000 		.secrel32	LASF10
 3538 0e6a 01       		.byte	0x1
 3539 0e6b BD       		.byte	0xbd
 3540 0e6c 06       		.byte	0x6
 3541 0e6d 1B010000 		.long	0x11b
 3542 0e71 03       		.byte	0x3
 3543 0e72 91       		.byte	0x91
 3544 0e73 B87F     		.sleb128 -72
 3545 0e75 14       		.uleb128 0x14
 3546 0e76 6C617374 		.ascii "lastRow\0"
 3546      526F7700 
 3547 0e7e 01       		.byte	0x1
 3548 0e7f BE       		.byte	0xbe
 3549 0e80 06       		.byte	0x6
 3550 0e81 1B010000 		.long	0x11b
 3551 0e85 03       		.byte	0x3
 3552 0e86 91       		.byte	0x91
 3553 0e87 B47F     		.sleb128 -76
 3554 0e89 25       		.uleb128 0x25
 3555 0e8a 00000000 		.secrel32	LASF11
 3556 0e8e 01       		.byte	0x1
 3557 0e8f C1       		.byte	0xc1
 3558 0e90 06       		.byte	0x6
 3559 0e91 1B010000 		.long	0x11b
 3560 0e95 02       		.byte	0x2
 3561 0e96 91       		.byte	0x91
 3562 0e97 5C       		.sleb128 -36
 3563 0e98 25       		.uleb128 0x25
 3564 0e99 48000000 		.secrel32	LASF12
 3565 0e9d 01       		.byte	0x1
 3566 0e9e C2       		.byte	0xc2
 3567 0e9f 06       		.byte	0x6
 3568 0ea0 1B010000 		.long	0x11b
 3569 0ea4 02       		.byte	0x2
 3570 0ea5 91       		.byte	0x91
 3571 0ea6 58       		.sleb128 -40
 3572 0ea7 25       		.uleb128 0x25
 3573 0ea8 55000000 		.secrel32	LASF13
GAS LISTING C:\Users\jisu8\AppData\Local\Temp\ccbDR4WJ.s 			page 81


 3574 0eac 01       		.byte	0x1
 3575 0ead C3       		.byte	0xc3
 3576 0eae 06       		.byte	0x6
 3577 0eaf 1B010000 		.long	0x11b
 3578 0eb3 02       		.byte	0x2
 3579 0eb4 91       		.byte	0x91
 3580 0eb5 54       		.sleb128 -44
 3581 0eb6 14       		.uleb128 0x14
 3582 0eb7 696E6372 		.ascii "increment\0"
 3582      656D656E 
 3582      7400
 3583 0ec1 01       		.byte	0x1
 3584 0ec2 C4       		.byte	0xc4
 3585 0ec3 06       		.byte	0x6
 3586 0ec4 1B010000 		.long	0x11b
 3587 0ec8 02       		.byte	0x2
 3588 0ec9 91       		.byte	0x91
 3589 0eca 50       		.sleb128 -48
 3590 0ecb 1C       		.uleb128 0x1c
 3591 0ecc D6060000 		.long	LBB8
 3592 0ed0 B3080000 		.long	LBE8
 3593 0ed4 25       		.uleb128 0x25
 3594 0ed5 0B000000 		.secrel32	LASF14
 3595 0ed9 01       		.byte	0x1
 3596 0eda C5       		.byte	0xc5
 3597 0edb 0B       		.byte	0xb
 3598 0edc 1B010000 		.long	0x11b
 3599 0ee0 02       		.byte	0x2
 3600 0ee1 91       		.byte	0x91
 3601 0ee2 4C       		.sleb128 -52
 3602 0ee3 1C       		.uleb128 0x1c
 3603 0ee4 E1060000 		.long	LBB9
 3604 0ee8 A1080000 		.long	LBE9
 3605 0eec 14       		.uleb128 0x14
 3606 0eed 636F6465 		.ascii "codeword\0"
 3606      776F7264 
 3606      00
 3607 0ef6 01       		.byte	0x1
 3608 0ef7 CC       		.byte	0xcc
 3609 0ef8 0E       		.byte	0xe
 3610 0ef9 FF040000 		.long	0x4ff
 3611 0efd 03       		.byte	0x3
 3612 0efe 91       		.byte	0x91
 3613 0eff B47E     		.sleb128 -204
 3614 0f01 25       		.uleb128 0x25
 3615 0f02 18000000 		.secrel32	LASF15
 3616 0f06 01       		.byte	0x1
 3617 0f07 DA       		.byte	0xda
 3618 0f08 07       		.byte	0x7
 3619 0f09 1B010000 		.long	0x11b
 3620 0f0d 03       		.byte	0x3
 3621 0f0e 91       		.byte	0x91
 3622 0f0f B07F     		.sleb128 -80
 3623 0f11 1C       		.uleb128 0x1c
 3624 0f12 FD070000 		.long	LBB10
 3625 0f16 A0080000 		.long	LBE10
 3626 0f1a 14       		.uleb128 0x14
GAS LISTING C:\Users\jisu8\AppData\Local\Temp\ccbDR4WJ.s 			page 82


 3627 0f1b 63686563 		.ascii "checkedRows\0"
 3627      6B656452 
 3627      6F777300 
 3628 0f27 01       		.byte	0x1
 3629 0f28 ED       		.byte	0xed
 3630 0f29 08       		.byte	0x8
 3631 0f2a 1B010000 		.long	0x11b
 3632 0f2e 02       		.byte	0x2
 3633 0f2f 91       		.byte	0x91
 3634 0f30 48       		.sleb128 -56
 3635 0f31 14       		.uleb128 0x14
 3636 0f32 636C6F73 		.ascii "closePreviousCodewordFound\0"
 3636      65507265 
 3636      76696F75 
 3636      73436F64 
 3636      65776F72 
 3637 0f4d 01       		.byte	0x1
 3638 0f4e F7       		.byte	0xf7
 3639 0f4f 0C       		.byte	0xc
 3640 0f50 4A020000 		.long	0x24a
 3641 0f54 02       		.byte	0x2
 3642 0f55 91       		.byte	0x91
 3643 0f56 47       		.sleb128 -57
 3644 0f57 1C       		.uleb128 0x1c
 3645 0f58 2C080000 		.long	LBB11
 3646 0f5c 70080000 		.long	LBE11
 3647 0f60 1A       		.uleb128 0x1a
 3648 0f61 6900     		.ascii "i\0"
 3649 0f63 01       		.byte	0x1
 3650 0f64 0001     		.word	0x100
 3651 0f66 0D       		.byte	0xd
 3652 0f67 1B010000 		.long	0x11b
 3653 0f6b 02       		.byte	0x2
 3654 0f6c 91       		.byte	0x91
 3655 0f6d 40       		.sleb128 -64
 3656 0f6e 00       		.byte	0
 3657 0f6f 00       		.byte	0
 3658 0f70 00       		.byte	0
 3659 0f71 00       		.byte	0
 3660 0f72 00       		.byte	0
 3661 0f73 26       		.uleb128 0x26
 3662 0f74 52656D6F 		.ascii "RemoveIncorrectCodewords\0"
 3662      7665496E 
 3662      636F7272 
 3662      65637443 
 3662      6F646577 
 3663 0f8d 01       		.byte	0x1
 3664 0f8e 75       		.byte	0x75
 3665 0f8f 0D       		.byte	0xd
 3666 0f90 01       		.byte	0x1
 3667 0f91 50030000 		.long	LFB23
 3668 0f95 3E050000 		.long	LFE23
 3669 0f99 18010000 		.secrel32	LLST7
 3670 0f9d 01       		.byte	0x1
 3671 0f9e 21100000 		.long	0x1021
 3672 0fa2 23       		.uleb128 0x23
 3673 0fa3 69734C65 		.ascii "isLeft\0"
GAS LISTING C:\Users\jisu8\AppData\Local\Temp\ccbDR4WJ.s 			page 83


 3673      667400
 3674 0faa 01       		.byte	0x1
 3675 0fab 75       		.byte	0x75
 3676 0fac 2E       		.byte	0x2e
 3677 0fad 4A020000 		.long	0x24a
 3678 0fb1 02       		.byte	0x2
 3679 0fb2 91       		.byte	0x91
 3680 0fb3 5C       		.sleb128 -36
 3681 0fb4 24       		.uleb128 0x24
 3682 0fb5 76000000 		.secrel32	LASF3
 3683 0fb9 01       		.byte	0x1
 3684 0fba 75       		.byte	0x75
 3685 0fbb 43       		.byte	0x43
 3686 0fbc FB0A0000 		.long	0xafb
 3687 0fc0 02       		.byte	0x2
 3688 0fc1 91       		.byte	0x91
 3689 0fc2 04       		.sleb128 4
 3690 0fc3 24       		.uleb128 0x24
 3691 0fc4 66000000 		.secrel32	LASF8
 3692 0fc8 01       		.byte	0x1
 3693 0fc9 75       		.byte	0x75
 3694 0fca 68       		.byte	0x68
 3695 0fcb 9E0D0000 		.long	0xd9e
 3696 0fcf 02       		.byte	0x2
 3697 0fd0 91       		.byte	0x91
 3698 0fd1 08       		.sleb128 8
 3699 0fd2 24       		.uleb128 0x24
 3700 0fd3 41000000 		.secrel32	LASF5
 3701 0fd7 01       		.byte	0x1
 3702 0fd8 75       		.byte	0x75
 3703 0fd9 7C       		.byte	0x7c
 3704 0fda 1B010000 		.long	0x11b
 3705 0fde 02       		.byte	0x2
 3706 0fdf 91       		.byte	0x91
 3707 0fe0 0C       		.sleb128 12
 3708 0fe1 1C       		.uleb128 0x1c
 3709 0fe2 68030000 		.long	LBB6
 3710 0fe6 3B050000 		.long	LBE6
 3711 0fea 14       		.uleb128 0x14
 3712 0feb 6900     		.ascii "i\0"
 3713 0fed 01       		.byte	0x1
 3714 0fee 7C       		.byte	0x7c
 3715 0fef 0B       		.byte	0xb
 3716 0ff0 1B010000 		.long	0x11b
 3717 0ff4 02       		.byte	0x2
 3718 0ff5 91       		.byte	0x91
 3719 0ff6 6C       		.sleb128 -20
 3720 0ff7 1C       		.uleb128 0x1c
 3721 0ff8 74030000 		.long	LBB7
 3722 0ffc 2B050000 		.long	LBE7
 3723 1000 25       		.uleb128 0x25
 3724 1001 80000000 		.secrel32	LASF6
 3725 1005 01       		.byte	0x1
 3726 1006 83       		.byte	0x83
 3727 1007 07       		.byte	0x7
 3728 1008 1B010000 		.long	0x11b
 3729 100c 02       		.byte	0x2
GAS LISTING C:\Users\jisu8\AppData\Local\Temp\ccbDR4WJ.s 			page 84


 3730 100d 91       		.byte	0x91
 3731 100e 64       		.sleb128 -28
 3732 100f 25       		.uleb128 0x25
 3733 1010 26000000 		.secrel32	LASF7
 3734 1014 01       		.byte	0x1
 3735 1015 84       		.byte	0x84
 3736 1016 07       		.byte	0x7
 3737 1017 1B010000 		.long	0x11b
 3738 101b 02       		.byte	0x2
 3739 101c 91       		.byte	0x91
 3740 101d 68       		.sleb128 -24
 3741 101e 00       		.byte	0
 3742 101f 00       		.byte	0
 3743 1020 00       		.byte	0
 3744 1021 27       		.uleb128 0x27
 3745 1022 01       		.byte	0x1
 3746 1023 636C6561 		.ascii "clear_Codewords\0"
 3746      725F436F 
 3746      6465776F 
 3746      72647300 
 3747 1033 01       		.byte	0x1
 3748 1034 6C       		.byte	0x6c
 3749 1035 06       		.byte	0x6
 3750 1036 01       		.byte	0x1
 3751 1037 12030000 		.long	LFB22
 3752 103b 50030000 		.long	LFE22
 3753 103f 50010000 		.secrel32	LLST6
 3754 1043 01       		.byte	0x1
 3755 1044 58100000 		.long	0x1058
 3756 1048 24       		.uleb128 0x24
 3757 1049 76000000 		.secrel32	LASF3
 3758 104d 01       		.byte	0x1
 3759 104e 6C       		.byte	0x6c
 3760 104f 23       		.byte	0x23
 3761 1050 FB0A0000 		.long	0xafb
 3762 1054 02       		.byte	0x2
 3763 1055 91       		.byte	0x91
 3764 1056 00       		.sleb128 0
 3765 1057 00       		.byte	0
 3766 1058 22       		.uleb128 0x22
 3767 1059 01       		.byte	0x1
 3768 105a 73657452 		.ascii "setRowNumbers\0"
 3768      6F774E75 
 3768      6D626572 
 3768      7300
 3769 1068 01       		.byte	0x1
 3770 1069 61       		.byte	0x61
 3771 106a 06       		.byte	0x6
 3772 106b 01       		.byte	0x1
 3773 106c CF020000 		.long	LFB21
 3774 1070 12030000 		.long	LFE21
 3775 1074 88010000 		.secrel32	LLST5
 3776 1078 01       		.byte	0x1
 3777 1079 CE100000 		.long	0x10ce
 3778 107d 24       		.uleb128 0x24
 3779 107e 76000000 		.secrel32	LASF3
 3780 1082 01       		.byte	0x1
GAS LISTING C:\Users\jisu8\AppData\Local\Temp\ccbDR4WJ.s 			page 85


 3781 1083 61       		.byte	0x61
 3782 1084 21       		.byte	0x21
 3783 1085 FB0A0000 		.long	0xafb
 3784 1089 02       		.byte	0x2
 3785 108a 91       		.byte	0x91
 3786 108b 00       		.sleb128 0
 3787 108c 23       		.uleb128 0x23
 3788 108d 73697A65 		.ascii "size\0"
 3788      00
 3789 1092 01       		.byte	0x1
 3790 1093 61       		.byte	0x61
 3791 1094 2F       		.byte	0x2f
 3792 1095 1B010000 		.long	0x11b
 3793 1099 02       		.byte	0x2
 3794 109a 91       		.byte	0x91
 3795 109b 04       		.sleb128 4
 3796 109c 1C       		.uleb128 0x1c
 3797 109d D5020000 		.long	LBB4
 3798 10a1 0F030000 		.long	LBE4
 3799 10a5 14       		.uleb128 0x14
 3800 10a6 6900     		.ascii "i\0"
 3801 10a8 01       		.byte	0x1
 3802 10a9 63       		.byte	0x63
 3803 10aa 0B       		.byte	0xb
 3804 10ab 1B010000 		.long	0x11b
 3805 10af 02       		.byte	0x2
 3806 10b0 91       		.byte	0x91
 3807 10b1 6C       		.sleb128 -20
 3808 10b2 1C       		.uleb128 0x1c
 3809 10b3 E8020000 		.long	LBB5
 3810 10b7 03030000 		.long	LBE5
 3811 10bb 28       		.uleb128 0x28
 3812 10bc 01       		.byte	0x1
 3813 10bd 9D000000 		.secrel32	LASF9
 3814 10c1 01       		.byte	0x1
 3815 10c2 67       		.byte	0x67
 3816 10c3 04       		.byte	0x4
 3817 10c4 1B010000 		.long	0x11b
 3818 10c8 01       		.byte	0x1
 3819 10c9 21       		.uleb128 0x21
 3820 10ca 00       		.byte	0
 3821 10cb 00       		.byte	0
 3822 10cc 00       		.byte	0
 3823 10cd 00       		.byte	0
 3824 10ce 29       		.uleb128 0x29
 3825 10cf 01       		.byte	0x1
 3826 10d0 636F6465 		.ascii "codewordNearby\0"
 3826      776F7264 
 3826      4E656172 
 3826      627900
 3827 10df 01       		.byte	0x1
 3828 10e0 42       		.byte	0x42
 3829 10e1 0C       		.byte	0xc
 3830 10e2 01       		.byte	0x1
 3831 10e3 FF040000 		.long	0x4ff
 3832 10e7 18010000 		.long	LFB20
 3833 10eb CF020000 		.long	LFE20
GAS LISTING C:\Users\jisu8\AppData\Local\Temp\ccbDR4WJ.s 			page 86


 3834 10ef C0010000 		.secrel32	LLST4
 3835 10f3 01       		.byte	0x1
 3836 10f4 76110000 		.long	0x1176
 3837 10f8 24       		.uleb128 0x24
 3838 10f9 BE000000 		.secrel32	LASF4
 3839 10fd 01       		.byte	0x1
 3840 10fe 42       		.byte	0x42
 3841 10ff 35       		.byte	0x35
 3842 1100 EF0A0000 		.long	0xaef
 3843 1104 02       		.byte	0x2
 3844 1105 91       		.byte	0x91
 3845 1106 04       		.sleb128 4
 3846 1107 23       		.uleb128 0x23
 3847 1108 696D6167 		.ascii "imageRow\0"
 3847      65526F77 
 3847      00
 3848 1111 01       		.byte	0x1
 3849 1112 42       		.byte	0x42
 3850 1113 4C       		.byte	0x4c
 3851 1114 1B010000 		.long	0x11b
 3852 1118 02       		.byte	0x2
 3853 1119 91       		.byte	0x91
 3854 111a 08       		.sleb128 8
 3855 111b 23       		.uleb128 0x23
 3856 111c 73697A65 		.ascii "size\0"
 3856      00
 3857 1121 01       		.byte	0x1
 3858 1122 42       		.byte	0x42
 3859 1123 59       		.byte	0x59
 3860 1124 1B010000 		.long	0x11b
 3861 1128 02       		.byte	0x2
 3862 1129 91       		.byte	0x91
 3863 112a 0C       		.sleb128 12
 3864 112b 14       		.uleb128 0x14
 3865 112c 696E6465 		.ascii "index\0"
 3865      7800
 3866 1132 01       		.byte	0x1
 3867 1133 44       		.byte	0x44
 3868 1134 06       		.byte	0x6
 3869 1135 1B010000 		.long	0x11b
 3870 1139 02       		.byte	0x2
 3871 113a 91       		.byte	0x91
 3872 113b 6C       		.sleb128 -20
 3873 113c 1C       		.uleb128 0x1c
 3874 113d 89010000 		.long	LBB2
 3875 1141 8C020000 		.long	LBE2
 3876 1145 14       		.uleb128 0x14
 3877 1146 6900     		.ascii "i\0"
 3878 1148 01       		.byte	0x1
 3879 1149 4A       		.byte	0x4a
 3880 114a 0B       		.byte	0xb
 3881 114b 1B010000 		.long	0x11b
 3882 114f 02       		.byte	0x2
 3883 1150 91       		.byte	0x91
 3884 1151 70       		.sleb128 -16
 3885 1152 1C       		.uleb128 0x1c
 3886 1153 95010000 		.long	LBB3
GAS LISTING C:\Users\jisu8\AppData\Local\Temp\ccbDR4WJ.s 			page 87


 3887 1157 7A020000 		.long	LBE3
 3888 115b 14       		.uleb128 0x14
 3889 115c 6E656172 		.ascii "nearImageRow\0"
 3889      496D6167 
 3889      65526F77 
 3889      00
 3890 1169 01       		.byte	0x1
 3891 116a 4C       		.byte	0x4c
 3892 116b 07       		.byte	0x7
 3893 116c 1B010000 		.long	0x11b
 3894 1170 02       		.byte	0x2
 3895 1171 91       		.byte	0x91
 3896 1172 68       		.sleb128 -24
 3897 1173 00       		.byte	0
 3898 1174 00       		.byte	0
 3899 1175 00       		.byte	0
 3900 1176 29       		.uleb128 0x29
 3901 1177 01       		.byte	0x1
 3902 1178 69734C65 		.ascii "isLeftRowIndicator\0"
 3902      6674526F 
 3902      77496E64 
 3902      69636174 
 3902      6F7200
 3903 118b 01       		.byte	0x1
 3904 118c 3D       		.byte	0x3d
 3905 118d 09       		.byte	0x9
 3906 118e 01       		.byte	0x1
 3907 118f 4A020000 		.long	0x24a
 3908 1193 04010000 		.long	LFB19
 3909 1197 18010000 		.long	LFE19
 3910 119b F8010000 		.secrel32	LLST3
 3911 119f 01       		.byte	0x1
 3912 11a0 B4110000 		.long	0x11b4
 3913 11a4 24       		.uleb128 0x24
 3914 11a5 BE000000 		.secrel32	LASF4
 3915 11a9 01       		.byte	0x1
 3916 11aa 3D       		.byte	0x3d
 3917 11ab 36       		.byte	0x36
 3918 11ac EF0A0000 		.long	0xaef
 3919 11b0 02       		.byte	0x2
 3920 11b1 91       		.byte	0x91
 3921 11b2 00       		.sleb128 0
 3922 11b3 00       		.byte	0
 3923 11b4 29       		.uleb128 0x29
 3924 11b5 01       		.byte	0x1
 3925 11b6 6973526F 		.ascii "isRowIndicator\0"
 3925      77496E64 
 3925      69636174 
 3925      6F7200
 3926 11c5 01       		.byte	0x1
 3927 11c6 39       		.byte	0x39
 3928 11c7 09       		.byte	0x9
 3929 11c8 01       		.byte	0x1
 3930 11c9 4A020000 		.long	0x24a
 3931 11cd F1000000 		.long	LFB18
 3932 11d1 04010000 		.long	LFE18
 3933 11d5 30020000 		.secrel32	LLST2
GAS LISTING C:\Users\jisu8\AppData\Local\Temp\ccbDR4WJ.s 			page 88


 3934 11d9 01       		.byte	0x1
 3935 11da EE110000 		.long	0x11ee
 3936 11de 24       		.uleb128 0x24
 3937 11df BE000000 		.secrel32	LASF4
 3938 11e3 01       		.byte	0x1
 3939 11e4 39       		.byte	0x39
 3940 11e5 32       		.byte	0x32
 3941 11e6 EF0A0000 		.long	0xaef
 3942 11ea 02       		.byte	0x2
 3943 11eb 91       		.byte	0x91
 3944 11ec 00       		.sleb128 0
 3945 11ed 00       		.byte	0
 3946 11ee 29       		.uleb128 0x29
 3947 11ef 01       		.byte	0x1
 3948 11f0 616C6C43 		.ascii "allCodewords\0"
 3948      6F646577 
 3948      6F726473 
 3948      00
 3949 11fd 01       		.byte	0x1
 3950 11fe 35       		.byte	0x35
 3951 11ff 0E       		.byte	0xe
 3952 1200 01       		.byte	0x1
 3953 1201 FB0A0000 		.long	0xafb
 3954 1205 E6000000 		.long	LFB17
 3955 1209 F1000000 		.long	LFE17
 3956 120d 68020000 		.secrel32	LLST1
 3957 1211 01       		.byte	0x1
 3958 1212 26120000 		.long	0x1226
 3959 1216 24       		.uleb128 0x24
 3960 1217 BE000000 		.secrel32	LASF4
 3961 121b 01       		.byte	0x1
 3962 121c 35       		.byte	0x35
 3963 121d 35       		.byte	0x35
 3964 121e EF0A0000 		.long	0xaef
 3965 1222 02       		.byte	0x2
 3966 1223 91       		.byte	0x91
 3967 1224 00       		.sleb128 0
 3968 1225 00       		.byte	0
 3969 1226 22       		.uleb128 0x22
 3970 1227 01       		.byte	0x1
 3971 1228 44657465 		.ascii "DetectionResultColumn\0"
 3971      6374696F 
 3971      6E526573 
 3971      756C7443 
 3971      6F6C756D 
 3972 123e 01       		.byte	0x1
 3973 123f 1F       		.byte	0x1f
 3974 1240 06       		.byte	0x6
 3975 1241 01       		.byte	0x1
 3976 1242 00000000 		.long	LFB16
 3977 1246 E6000000 		.long	LFE16
 3978 124a A0020000 		.secrel32	LLST0
 3979 124e 01       		.byte	0x1
 3980 124f 8C120000 		.long	0x128c
 3981 1253 23       		.uleb128 0x23
 3982 1254 626F756E 		.ascii "boundingBox\0"
 3982      64696E67 
GAS LISTING C:\Users\jisu8\AppData\Local\Temp\ccbDR4WJ.s 			page 89


 3982      426F7800 
 3983 1260 01       		.byte	0x1
 3984 1261 1F       		.byte	0x1f
 3985 1262 32       		.byte	0x32
 3986 1263 8C120000 		.long	0x128c
 3987 1267 02       		.byte	0x2
 3988 1268 91       		.byte	0x91
 3989 1269 00       		.sleb128 0
 3990 126a 23       		.uleb128 0x23
 3991 126b 726F7749 		.ascii "rowInd\0"
 3991      6E6400
 3992 1272 01       		.byte	0x1
 3993 1273 1F       		.byte	0x1f
 3994 1274 4E       		.byte	0x4e
 3995 1275 37050000 		.long	0x537
 3996 1279 02       		.byte	0x2
 3997 127a 91       		.byte	0x91
 3998 127b 04       		.sleb128 4
 3999 127c 24       		.uleb128 0x24
 4000 127d BE000000 		.secrel32	LASF4
 4001 1281 01       		.byte	0x1
 4002 1282 1F       		.byte	0x1f
 4003 1283 70       		.byte	0x70
 4004 1284 EF0A0000 		.long	0xaef
 4005 1288 02       		.byte	0x2
 4006 1289 91       		.byte	0x91
 4007 128a 08       		.sleb128 8
 4008 128b 00       		.byte	0
 4009 128c 0A       		.uleb128 0xa
 4010 128d 04       		.byte	0x4
 4011 128e 52040000 		.long	0x452
 4012 1292 00       		.byte	0
 4013              		.section	.debug_abbrev,"dr"
 4014              	Ldebug_abbrev0:
 4015 0000 01       		.uleb128 0x1
 4016 0001 11       		.uleb128 0x11
 4017 0002 01       		.byte	0x1
 4018 0003 25       		.uleb128 0x25
 4019 0004 08       		.uleb128 0x8
 4020 0005 13       		.uleb128 0x13
 4021 0006 0B       		.uleb128 0xb
 4022 0007 03       		.uleb128 0x3
 4023 0008 08       		.uleb128 0x8
 4024 0009 1B       		.uleb128 0x1b
 4025 000a 08       		.uleb128 0x8
 4026 000b 11       		.uleb128 0x11
 4027 000c 01       		.uleb128 0x1
 4028 000d 12       		.uleb128 0x12
 4029 000e 01       		.uleb128 0x1
 4030 000f 10       		.uleb128 0x10
 4031 0010 06       		.uleb128 0x6
 4032 0011 00       		.byte	0
 4033 0012 00       		.byte	0
 4034 0013 02       		.uleb128 0x2
 4035 0014 13       		.uleb128 0x13
 4036 0015 01       		.byte	0x1
 4037 0016 0B       		.uleb128 0xb
GAS LISTING C:\Users\jisu8\AppData\Local\Temp\ccbDR4WJ.s 			page 90


 4038 0017 0B       		.uleb128 0xb
 4039 0018 3A       		.uleb128 0x3a
 4040 0019 0B       		.uleb128 0xb
 4041 001a 3B       		.uleb128 0x3b
 4042 001b 0B       		.uleb128 0xb
 4043 001c 39       		.uleb128 0x39
 4044 001d 0B       		.uleb128 0xb
 4045 001e 01       		.uleb128 0x1
 4046 001f 13       		.uleb128 0x13
 4047 0020 00       		.byte	0
 4048 0021 00       		.byte	0
 4049 0022 03       		.uleb128 0x3
 4050 0023 0D       		.uleb128 0xd
 4051 0024 00       		.byte	0
 4052 0025 03       		.uleb128 0x3
 4053 0026 08       		.uleb128 0x8
 4054 0027 3A       		.uleb128 0x3a
 4055 0028 0B       		.uleb128 0xb
 4056 0029 3B       		.uleb128 0x3b
 4057 002a 0B       		.uleb128 0xb
 4058 002b 39       		.uleb128 0x39
 4059 002c 0B       		.uleb128 0xb
 4060 002d 49       		.uleb128 0x49
 4061 002e 13       		.uleb128 0x13
 4062 002f 38       		.uleb128 0x38
 4063 0030 0A       		.uleb128 0xa
 4064 0031 00       		.byte	0
 4065 0032 00       		.byte	0
 4066 0033 04       		.uleb128 0x4
 4067 0034 24       		.uleb128 0x24
 4068 0035 00       		.byte	0
 4069 0036 0B       		.uleb128 0xb
 4070 0037 0B       		.uleb128 0xb
 4071 0038 3E       		.uleb128 0x3e
 4072 0039 0B       		.uleb128 0xb
 4073 003a 03       		.uleb128 0x3
 4074 003b 08       		.uleb128 0x8
 4075 003c 00       		.byte	0
 4076 003d 00       		.byte	0
 4077 003e 05       		.uleb128 0x5
 4078 003f 26       		.uleb128 0x26
 4079 0040 00       		.byte	0
 4080 0041 49       		.uleb128 0x49
 4081 0042 13       		.uleb128 0x13
 4082 0043 00       		.byte	0
 4083 0044 00       		.byte	0
 4084 0045 06       		.uleb128 0x6
 4085 0046 16       		.uleb128 0x16
 4086 0047 00       		.byte	0
 4087 0048 03       		.uleb128 0x3
 4088 0049 08       		.uleb128 0x8
 4089 004a 3A       		.uleb128 0x3a
 4090 004b 0B       		.uleb128 0xb
 4091 004c 3B       		.uleb128 0x3b
 4092 004d 0B       		.uleb128 0xb
 4093 004e 39       		.uleb128 0x39
 4094 004f 0B       		.uleb128 0xb
GAS LISTING C:\Users\jisu8\AppData\Local\Temp\ccbDR4WJ.s 			page 91


 4095 0050 49       		.uleb128 0x49
 4096 0051 13       		.uleb128 0x13
 4097 0052 00       		.byte	0
 4098 0053 00       		.byte	0
 4099 0054 07       		.uleb128 0x7
 4100 0055 13       		.uleb128 0x13
 4101 0056 01       		.byte	0x1
 4102 0057 0B       		.uleb128 0xb
 4103 0058 05       		.uleb128 0x5
 4104 0059 3A       		.uleb128 0x3a
 4105 005a 0B       		.uleb128 0xb
 4106 005b 3B       		.uleb128 0x3b
 4107 005c 0B       		.uleb128 0xb
 4108 005d 39       		.uleb128 0x39
 4109 005e 0B       		.uleb128 0xb
 4110 005f 01       		.uleb128 0x1
 4111 0060 13       		.uleb128 0x13
 4112 0061 00       		.byte	0
 4113 0062 00       		.byte	0
 4114 0063 08       		.uleb128 0x8
 4115 0064 01       		.uleb128 0x1
 4116 0065 01       		.byte	0x1
 4117 0066 49       		.uleb128 0x49
 4118 0067 13       		.uleb128 0x13
 4119 0068 01       		.uleb128 0x1
 4120 0069 13       		.uleb128 0x13
 4121 006a 00       		.byte	0
 4122 006b 00       		.byte	0
 4123 006c 09       		.uleb128 0x9
 4124 006d 21       		.uleb128 0x21
 4125 006e 00       		.byte	0
 4126 006f 49       		.uleb128 0x49
 4127 0070 13       		.uleb128 0x13
 4128 0071 2F       		.uleb128 0x2f
 4129 0072 05       		.uleb128 0x5
 4130 0073 00       		.byte	0
 4131 0074 00       		.byte	0
 4132 0075 0A       		.uleb128 0xa
 4133 0076 0F       		.uleb128 0xf
 4134 0077 00       		.byte	0
 4135 0078 0B       		.uleb128 0xb
 4136 0079 0B       		.uleb128 0xb
 4137 007a 49       		.uleb128 0x49
 4138 007b 13       		.uleb128 0x13
 4139 007c 00       		.byte	0
 4140 007d 00       		.byte	0
 4141 007e 0B       		.uleb128 0xb
 4142 007f 0D       		.uleb128 0xd
 4143 0080 00       		.byte	0
 4144 0081 03       		.uleb128 0x3
 4145 0082 0E       		.uleb128 0xe
 4146 0083 3A       		.uleb128 0x3a
 4147 0084 0B       		.uleb128 0xb
 4148 0085 3B       		.uleb128 0x3b
 4149 0086 0B       		.uleb128 0xb
 4150 0087 39       		.uleb128 0x39
 4151 0088 0B       		.uleb128 0xb
GAS LISTING C:\Users\jisu8\AppData\Local\Temp\ccbDR4WJ.s 			page 92


 4152 0089 49       		.uleb128 0x49
 4153 008a 13       		.uleb128 0x13
 4154 008b 38       		.uleb128 0x38
 4155 008c 0A       		.uleb128 0xa
 4156 008d 00       		.byte	0
 4157 008e 00       		.byte	0
 4158 008f 0C       		.uleb128 0xc
 4159 0090 04       		.uleb128 0x4
 4160 0091 01       		.byte	0x1
 4161 0092 3E       		.uleb128 0x3e
 4162 0093 0B       		.uleb128 0xb
 4163 0094 0B       		.uleb128 0xb
 4164 0095 0B       		.uleb128 0xb
 4165 0096 49       		.uleb128 0x49
 4166 0097 13       		.uleb128 0x13
 4167 0098 3A       		.uleb128 0x3a
 4168 0099 0B       		.uleb128 0xb
 4169 009a 3B       		.uleb128 0x3b
 4170 009b 0B       		.uleb128 0xb
 4171 009c 39       		.uleb128 0x39
 4172 009d 0B       		.uleb128 0xb
 4173 009e 01       		.uleb128 0x1
 4174 009f 13       		.uleb128 0x13
 4175 00a0 00       		.byte	0
 4176 00a1 00       		.byte	0
 4177 00a2 0D       		.uleb128 0xd
 4178 00a3 28       		.uleb128 0x28
 4179 00a4 00       		.byte	0
 4180 00a5 03       		.uleb128 0x3
 4181 00a6 08       		.uleb128 0x8
 4182 00a7 1C       		.uleb128 0x1c
 4183 00a8 0B       		.uleb128 0xb
 4184 00a9 00       		.byte	0
 4185 00aa 00       		.byte	0
 4186 00ab 0E       		.uleb128 0xe
 4187 00ac 34       		.uleb128 0x34
 4188 00ad 00       		.byte	0
 4189 00ae 03       		.uleb128 0x3
 4190 00af 08       		.uleb128 0x8
 4191 00b0 3A       		.uleb128 0x3a
 4192 00b1 0B       		.uleb128 0xb
 4193 00b2 3B       		.uleb128 0x3b
 4194 00b3 0B       		.uleb128 0xb
 4195 00b4 39       		.uleb128 0x39
 4196 00b5 0B       		.uleb128 0xb
 4197 00b6 49       		.uleb128 0x49
 4198 00b7 13       		.uleb128 0x13
 4199 00b8 3F       		.uleb128 0x3f
 4200 00b9 0C       		.uleb128 0xc
 4201 00ba 3C       		.uleb128 0x3c
 4202 00bb 0C       		.uleb128 0xc
 4203 00bc 00       		.byte	0
 4204 00bd 00       		.byte	0
 4205 00be 0F       		.uleb128 0xf
 4206 00bf 34       		.uleb128 0x34
 4207 00c0 00       		.byte	0
 4208 00c1 03       		.uleb128 0x3
GAS LISTING C:\Users\jisu8\AppData\Local\Temp\ccbDR4WJ.s 			page 93


 4209 00c2 0E       		.uleb128 0xe
 4210 00c3 3A       		.uleb128 0x3a
 4211 00c4 0B       		.uleb128 0xb
 4212 00c5 3B       		.uleb128 0x3b
 4213 00c6 0B       		.uleb128 0xb
 4214 00c7 39       		.uleb128 0x39
 4215 00c8 0B       		.uleb128 0xb
 4216 00c9 49       		.uleb128 0x49
 4217 00ca 13       		.uleb128 0x13
 4218 00cb 3F       		.uleb128 0x3f
 4219 00cc 0C       		.uleb128 0xc
 4220 00cd 3C       		.uleb128 0x3c
 4221 00ce 0C       		.uleb128 0xc
 4222 00cf 00       		.byte	0
 4223 00d0 00       		.byte	0
 4224 00d1 10       		.uleb128 0x10
 4225 00d2 21       		.uleb128 0x21
 4226 00d3 00       		.byte	0
 4227 00d4 49       		.uleb128 0x49
 4228 00d5 13       		.uleb128 0x13
 4229 00d6 2F       		.uleb128 0x2f
 4230 00d7 0B       		.uleb128 0xb
 4231 00d8 00       		.byte	0
 4232 00d9 00       		.byte	0
 4233 00da 11       		.uleb128 0x11
 4234 00db 34       		.uleb128 0x34
 4235 00dc 00       		.byte	0
 4236 00dd 03       		.uleb128 0x3
 4237 00de 08       		.uleb128 0x8
 4238 00df 3A       		.uleb128 0x3a
 4239 00e0 0B       		.uleb128 0xb
 4240 00e1 3B       		.uleb128 0x3b
 4241 00e2 05       		.uleb128 0x5
 4242 00e3 39       		.uleb128 0x39
 4243 00e4 0B       		.uleb128 0xb
 4244 00e5 49       		.uleb128 0x49
 4245 00e6 13       		.uleb128 0x13
 4246 00e7 3F       		.uleb128 0x3f
 4247 00e8 0C       		.uleb128 0xc
 4248 00e9 3C       		.uleb128 0x3c
 4249 00ea 0C       		.uleb128 0xc
 4250 00eb 00       		.byte	0
 4251 00ec 00       		.byte	0
 4252 00ed 12       		.uleb128 0x12
 4253 00ee 13       		.uleb128 0x13
 4254 00ef 01       		.byte	0x1
 4255 00f0 03       		.uleb128 0x3
 4256 00f1 08       		.uleb128 0x8
 4257 00f2 0B       		.uleb128 0xb
 4258 00f3 0B       		.uleb128 0xb
 4259 00f4 3A       		.uleb128 0x3a
 4260 00f5 0B       		.uleb128 0xb
 4261 00f6 3B       		.uleb128 0x3b
 4262 00f7 0B       		.uleb128 0xb
 4263 00f8 39       		.uleb128 0x39
 4264 00f9 0B       		.uleb128 0xb
 4265 00fa 01       		.uleb128 0x1
GAS LISTING C:\Users\jisu8\AppData\Local\Temp\ccbDR4WJ.s 			page 94


 4266 00fb 13       		.uleb128 0x13
 4267 00fc 00       		.byte	0
 4268 00fd 00       		.byte	0
 4269 00fe 13       		.uleb128 0x13
 4270 00ff 21       		.uleb128 0x21
 4271 0100 00       		.byte	0
 4272 0101 00       		.byte	0
 4273 0102 00       		.byte	0
 4274 0103 14       		.uleb128 0x14
 4275 0104 34       		.uleb128 0x34
 4276 0105 00       		.byte	0
 4277 0106 03       		.uleb128 0x3
 4278 0107 08       		.uleb128 0x8
 4279 0108 3A       		.uleb128 0x3a
 4280 0109 0B       		.uleb128 0xb
 4281 010a 3B       		.uleb128 0x3b
 4282 010b 0B       		.uleb128 0xb
 4283 010c 39       		.uleb128 0x39
 4284 010d 0B       		.uleb128 0xb
 4285 010e 49       		.uleb128 0x49
 4286 010f 13       		.uleb128 0x13
 4287 0110 02       		.uleb128 0x2
 4288 0111 0A       		.uleb128 0xa
 4289 0112 00       		.byte	0
 4290 0113 00       		.byte	0
 4291 0114 15       		.uleb128 0x15
 4292 0115 34       		.uleb128 0x34
 4293 0116 00       		.byte	0
 4294 0117 03       		.uleb128 0x3
 4295 0118 0E       		.uleb128 0xe
 4296 0119 3A       		.uleb128 0x3a
 4297 011a 0B       		.uleb128 0xb
 4298 011b 3B       		.uleb128 0x3b
 4299 011c 0B       		.uleb128 0xb
 4300 011d 39       		.uleb128 0x39
 4301 011e 0B       		.uleb128 0xb
 4302 011f 49       		.uleb128 0x49
 4303 0120 13       		.uleb128 0x13
 4304 0121 3F       		.uleb128 0x3f
 4305 0122 0C       		.uleb128 0xc
 4306 0123 02       		.uleb128 0x2
 4307 0124 0A       		.uleb128 0xa
 4308 0125 00       		.byte	0
 4309 0126 00       		.byte	0
 4310 0127 16       		.uleb128 0x16
 4311 0128 2E       		.uleb128 0x2e
 4312 0129 01       		.byte	0x1
 4313 012a 3F       		.uleb128 0x3f
 4314 012b 0C       		.uleb128 0xc
 4315 012c 03       		.uleb128 0x3
 4316 012d 08       		.uleb128 0x8
 4317 012e 3A       		.uleb128 0x3a
 4318 012f 0B       		.uleb128 0xb
 4319 0130 3B       		.uleb128 0x3b
 4320 0131 05       		.uleb128 0x5
 4321 0132 39       		.uleb128 0x39
 4322 0133 0B       		.uleb128 0xb
GAS LISTING C:\Users\jisu8\AppData\Local\Temp\ccbDR4WJ.s 			page 95


 4323 0134 27       		.uleb128 0x27
 4324 0135 0C       		.uleb128 0xc
 4325 0136 49       		.uleb128 0x49
 4326 0137 13       		.uleb128 0x13
 4327 0138 11       		.uleb128 0x11
 4328 0139 01       		.uleb128 0x1
 4329 013a 12       		.uleb128 0x12
 4330 013b 01       		.uleb128 0x1
 4331 013c 40       		.uleb128 0x40
 4332 013d 06       		.uleb128 0x6
 4333 013e 9642     		.uleb128 0x2116
 4334 0140 0C       		.uleb128 0xc
 4335 0141 01       		.uleb128 0x1
 4336 0142 13       		.uleb128 0x13
 4337 0143 00       		.byte	0
 4338 0144 00       		.byte	0
 4339 0145 17       		.uleb128 0x17
 4340 0146 05       		.uleb128 0x5
 4341 0147 00       		.byte	0
 4342 0148 03       		.uleb128 0x3
 4343 0149 0E       		.uleb128 0xe
 4344 014a 3A       		.uleb128 0x3a
 4345 014b 0B       		.uleb128 0xb
 4346 014c 3B       		.uleb128 0x3b
 4347 014d 05       		.uleb128 0x5
 4348 014e 39       		.uleb128 0x39
 4349 014f 0B       		.uleb128 0xb
 4350 0150 49       		.uleb128 0x49
 4351 0151 13       		.uleb128 0x13
 4352 0152 02       		.uleb128 0x2
 4353 0153 0A       		.uleb128 0xa
 4354 0154 00       		.byte	0
 4355 0155 00       		.byte	0
 4356 0156 18       		.uleb128 0x18
 4357 0157 05       		.uleb128 0x5
 4358 0158 00       		.byte	0
 4359 0159 03       		.uleb128 0x3
 4360 015a 08       		.uleb128 0x8
 4361 015b 3A       		.uleb128 0x3a
 4362 015c 0B       		.uleb128 0xb
 4363 015d 3B       		.uleb128 0x3b
 4364 015e 05       		.uleb128 0x5
 4365 015f 39       		.uleb128 0x39
 4366 0160 0B       		.uleb128 0xb
 4367 0161 49       		.uleb128 0x49
 4368 0162 13       		.uleb128 0x13
 4369 0163 02       		.uleb128 0x2
 4370 0164 0A       		.uleb128 0xa
 4371 0165 00       		.byte	0
 4372 0166 00       		.byte	0
 4373 0167 19       		.uleb128 0x19
 4374 0168 34       		.uleb128 0x34
 4375 0169 00       		.byte	0
 4376 016a 03       		.uleb128 0x3
 4377 016b 0E       		.uleb128 0xe
 4378 016c 3A       		.uleb128 0x3a
 4379 016d 0B       		.uleb128 0xb
GAS LISTING C:\Users\jisu8\AppData\Local\Temp\ccbDR4WJ.s 			page 96


 4380 016e 3B       		.uleb128 0x3b
 4381 016f 05       		.uleb128 0x5
 4382 0170 39       		.uleb128 0x39
 4383 0171 0B       		.uleb128 0xb
 4384 0172 49       		.uleb128 0x49
 4385 0173 13       		.uleb128 0x13
 4386 0174 02       		.uleb128 0x2
 4387 0175 0A       		.uleb128 0xa
 4388 0176 00       		.byte	0
 4389 0177 00       		.byte	0
 4390 0178 1A       		.uleb128 0x1a
 4391 0179 34       		.uleb128 0x34
 4392 017a 00       		.byte	0
 4393 017b 03       		.uleb128 0x3
 4394 017c 08       		.uleb128 0x8
 4395 017d 3A       		.uleb128 0x3a
 4396 017e 0B       		.uleb128 0xb
 4397 017f 3B       		.uleb128 0x3b
 4398 0180 05       		.uleb128 0x5
 4399 0181 39       		.uleb128 0x39
 4400 0182 0B       		.uleb128 0xb
 4401 0183 49       		.uleb128 0x49
 4402 0184 13       		.uleb128 0x13
 4403 0185 02       		.uleb128 0x2
 4404 0186 0A       		.uleb128 0xa
 4405 0187 00       		.byte	0
 4406 0188 00       		.byte	0
 4407 0189 1B       		.uleb128 0x1b
 4408 018a 0B       		.uleb128 0xb
 4409 018b 01       		.byte	0x1
 4410 018c 11       		.uleb128 0x11
 4411 018d 01       		.uleb128 0x1
 4412 018e 12       		.uleb128 0x12
 4413 018f 01       		.uleb128 0x1
 4414 0190 01       		.uleb128 0x1
 4415 0191 13       		.uleb128 0x13
 4416 0192 00       		.byte	0
 4417 0193 00       		.byte	0
 4418 0194 1C       		.uleb128 0x1c
 4419 0195 0B       		.uleb128 0xb
 4420 0196 01       		.byte	0x1
 4421 0197 11       		.uleb128 0x11
 4422 0198 01       		.uleb128 0x1
 4423 0199 12       		.uleb128 0x12
 4424 019a 01       		.uleb128 0x1
 4425 019b 00       		.byte	0
 4426 019c 00       		.byte	0
 4427 019d 1D       		.uleb128 0x1d
 4428 019e 2E       		.uleb128 0x2e
 4429 019f 01       		.byte	0x1
 4430 01a0 3F       		.uleb128 0x3f
 4431 01a1 0C       		.uleb128 0xc
 4432 01a2 03       		.uleb128 0x3
 4433 01a3 0E       		.uleb128 0xe
 4434 01a4 3A       		.uleb128 0x3a
 4435 01a5 0B       		.uleb128 0xb
 4436 01a6 3B       		.uleb128 0x3b
GAS LISTING C:\Users\jisu8\AppData\Local\Temp\ccbDR4WJ.s 			page 97


 4437 01a7 05       		.uleb128 0x5
 4438 01a8 39       		.uleb128 0x39
 4439 01a9 0B       		.uleb128 0xb
 4440 01aa 27       		.uleb128 0x27
 4441 01ab 0C       		.uleb128 0xc
 4442 01ac 11       		.uleb128 0x11
 4443 01ad 01       		.uleb128 0x1
 4444 01ae 12       		.uleb128 0x12
 4445 01af 01       		.uleb128 0x1
 4446 01b0 40       		.uleb128 0x40
 4447 01b1 06       		.uleb128 0x6
 4448 01b2 9742     		.uleb128 0x2117
 4449 01b4 0C       		.uleb128 0xc
 4450 01b5 01       		.uleb128 0x1
 4451 01b6 13       		.uleb128 0x13
 4452 01b7 00       		.byte	0
 4453 01b8 00       		.byte	0
 4454 01b9 1E       		.uleb128 0x1e
 4455 01ba 21       		.uleb128 0x21
 4456 01bb 00       		.byte	0
 4457 01bc 49       		.uleb128 0x49
 4458 01bd 13       		.uleb128 0x13
 4459 01be 2F       		.uleb128 0x2f
 4460 01bf 0A       		.uleb128 0xa
 4461 01c0 00       		.byte	0
 4462 01c1 00       		.byte	0
 4463 01c2 1F       		.uleb128 0x1f
 4464 01c3 2E       		.uleb128 0x2e
 4465 01c4 01       		.byte	0x1
 4466 01c5 3F       		.uleb128 0x3f
 4467 01c6 0C       		.uleb128 0xc
 4468 01c7 03       		.uleb128 0x3
 4469 01c8 08       		.uleb128 0x8
 4470 01c9 3A       		.uleb128 0x3a
 4471 01ca 0B       		.uleb128 0xb
 4472 01cb 3B       		.uleb128 0x3b
 4473 01cc 05       		.uleb128 0x5
 4474 01cd 39       		.uleb128 0x39
 4475 01ce 0B       		.uleb128 0xb
 4476 01cf 27       		.uleb128 0x27
 4477 01d0 0C       		.uleb128 0xc
 4478 01d1 11       		.uleb128 0x11
 4479 01d2 01       		.uleb128 0x1
 4480 01d3 12       		.uleb128 0x12
 4481 01d4 01       		.uleb128 0x1
 4482 01d5 40       		.uleb128 0x40
 4483 01d6 06       		.uleb128 0x6
 4484 01d7 9642     		.uleb128 0x2116
 4485 01d9 0C       		.uleb128 0xc
 4486 01da 01       		.uleb128 0x1
 4487 01db 13       		.uleb128 0x13
 4488 01dc 00       		.byte	0
 4489 01dd 00       		.byte	0
 4490 01de 20       		.uleb128 0x20
 4491 01df 2E       		.uleb128 0x2e
 4492 01e0 01       		.byte	0x1
 4493 01e1 3F       		.uleb128 0x3f
GAS LISTING C:\Users\jisu8\AppData\Local\Temp\ccbDR4WJ.s 			page 98


 4494 01e2 0C       		.uleb128 0xc
 4495 01e3 03       		.uleb128 0x3
 4496 01e4 0E       		.uleb128 0xe
 4497 01e5 3A       		.uleb128 0x3a
 4498 01e6 0B       		.uleb128 0xb
 4499 01e7 3B       		.uleb128 0x3b
 4500 01e8 0B       		.uleb128 0xb
 4501 01e9 39       		.uleb128 0x39
 4502 01ea 0B       		.uleb128 0xb
 4503 01eb 49       		.uleb128 0x49
 4504 01ec 13       		.uleb128 0x13
 4505 01ed 3C       		.uleb128 0x3c
 4506 01ee 0C       		.uleb128 0xc
 4507 01ef 01       		.uleb128 0x1
 4508 01f0 13       		.uleb128 0x13
 4509 01f1 00       		.byte	0
 4510 01f2 00       		.byte	0
 4511 01f3 21       		.uleb128 0x21
 4512 01f4 18       		.uleb128 0x18
 4513 01f5 00       		.byte	0
 4514 01f6 00       		.byte	0
 4515 01f7 00       		.byte	0
 4516 01f8 22       		.uleb128 0x22
 4517 01f9 2E       		.uleb128 0x2e
 4518 01fa 01       		.byte	0x1
 4519 01fb 3F       		.uleb128 0x3f
 4520 01fc 0C       		.uleb128 0xc
 4521 01fd 03       		.uleb128 0x3
 4522 01fe 08       		.uleb128 0x8
 4523 01ff 3A       		.uleb128 0x3a
 4524 0200 0B       		.uleb128 0xb
 4525 0201 3B       		.uleb128 0x3b
 4526 0202 0B       		.uleb128 0xb
 4527 0203 39       		.uleb128 0x39
 4528 0204 0B       		.uleb128 0xb
 4529 0205 27       		.uleb128 0x27
 4530 0206 0C       		.uleb128 0xc
 4531 0207 11       		.uleb128 0x11
 4532 0208 01       		.uleb128 0x1
 4533 0209 12       		.uleb128 0x12
 4534 020a 01       		.uleb128 0x1
 4535 020b 40       		.uleb128 0x40
 4536 020c 06       		.uleb128 0x6
 4537 020d 9642     		.uleb128 0x2116
 4538 020f 0C       		.uleb128 0xc
 4539 0210 01       		.uleb128 0x1
 4540 0211 13       		.uleb128 0x13
 4541 0212 00       		.byte	0
 4542 0213 00       		.byte	0
 4543 0214 23       		.uleb128 0x23
 4544 0215 05       		.uleb128 0x5
 4545 0216 00       		.byte	0
 4546 0217 03       		.uleb128 0x3
 4547 0218 08       		.uleb128 0x8
 4548 0219 3A       		.uleb128 0x3a
 4549 021a 0B       		.uleb128 0xb
 4550 021b 3B       		.uleb128 0x3b
GAS LISTING C:\Users\jisu8\AppData\Local\Temp\ccbDR4WJ.s 			page 99


 4551 021c 0B       		.uleb128 0xb
 4552 021d 39       		.uleb128 0x39
 4553 021e 0B       		.uleb128 0xb
 4554 021f 49       		.uleb128 0x49
 4555 0220 13       		.uleb128 0x13
 4556 0221 02       		.uleb128 0x2
 4557 0222 0A       		.uleb128 0xa
 4558 0223 00       		.byte	0
 4559 0224 00       		.byte	0
 4560 0225 24       		.uleb128 0x24
 4561 0226 05       		.uleb128 0x5
 4562 0227 00       		.byte	0
 4563 0228 03       		.uleb128 0x3
 4564 0229 0E       		.uleb128 0xe
 4565 022a 3A       		.uleb128 0x3a
 4566 022b 0B       		.uleb128 0xb
 4567 022c 3B       		.uleb128 0x3b
 4568 022d 0B       		.uleb128 0xb
 4569 022e 39       		.uleb128 0x39
 4570 022f 0B       		.uleb128 0xb
 4571 0230 49       		.uleb128 0x49
 4572 0231 13       		.uleb128 0x13
 4573 0232 02       		.uleb128 0x2
 4574 0233 0A       		.uleb128 0xa
 4575 0234 00       		.byte	0
 4576 0235 00       		.byte	0
 4577 0236 25       		.uleb128 0x25
 4578 0237 34       		.uleb128 0x34
 4579 0238 00       		.byte	0
 4580 0239 03       		.uleb128 0x3
 4581 023a 0E       		.uleb128 0xe
 4582 023b 3A       		.uleb128 0x3a
 4583 023c 0B       		.uleb128 0xb
 4584 023d 3B       		.uleb128 0x3b
 4585 023e 0B       		.uleb128 0xb
 4586 023f 39       		.uleb128 0x39
 4587 0240 0B       		.uleb128 0xb
 4588 0241 49       		.uleb128 0x49
 4589 0242 13       		.uleb128 0x13
 4590 0243 02       		.uleb128 0x2
 4591 0244 0A       		.uleb128 0xa
 4592 0245 00       		.byte	0
 4593 0246 00       		.byte	0
 4594 0247 26       		.uleb128 0x26
 4595 0248 2E       		.uleb128 0x2e
 4596 0249 01       		.byte	0x1
 4597 024a 03       		.uleb128 0x3
 4598 024b 08       		.uleb128 0x8
 4599 024c 3A       		.uleb128 0x3a
 4600 024d 0B       		.uleb128 0xb
 4601 024e 3B       		.uleb128 0x3b
 4602 024f 0B       		.uleb128 0xb
 4603 0250 39       		.uleb128 0x39
 4604 0251 0B       		.uleb128 0xb
 4605 0252 27       		.uleb128 0x27
 4606 0253 0C       		.uleb128 0xc
 4607 0254 11       		.uleb128 0x11
GAS LISTING C:\Users\jisu8\AppData\Local\Temp\ccbDR4WJ.s 			page 100


 4608 0255 01       		.uleb128 0x1
 4609 0256 12       		.uleb128 0x12
 4610 0257 01       		.uleb128 0x1
 4611 0258 40       		.uleb128 0x40
 4612 0259 06       		.uleb128 0x6
 4613 025a 9642     		.uleb128 0x2116
 4614 025c 0C       		.uleb128 0xc
 4615 025d 01       		.uleb128 0x1
 4616 025e 13       		.uleb128 0x13
 4617 025f 00       		.byte	0
 4618 0260 00       		.byte	0
 4619 0261 27       		.uleb128 0x27
 4620 0262 2E       		.uleb128 0x2e
 4621 0263 01       		.byte	0x1
 4622 0264 3F       		.uleb128 0x3f
 4623 0265 0C       		.uleb128 0xc
 4624 0266 03       		.uleb128 0x3
 4625 0267 08       		.uleb128 0x8
 4626 0268 3A       		.uleb128 0x3a
 4627 0269 0B       		.uleb128 0xb
 4628 026a 3B       		.uleb128 0x3b
 4629 026b 0B       		.uleb128 0xb
 4630 026c 39       		.uleb128 0x39
 4631 026d 0B       		.uleb128 0xb
 4632 026e 27       		.uleb128 0x27
 4633 026f 0C       		.uleb128 0xc
 4634 0270 11       		.uleb128 0x11
 4635 0271 01       		.uleb128 0x1
 4636 0272 12       		.uleb128 0x12
 4637 0273 01       		.uleb128 0x1
 4638 0274 40       		.uleb128 0x40
 4639 0275 06       		.uleb128 0x6
 4640 0276 9742     		.uleb128 0x2117
 4641 0278 0C       		.uleb128 0xc
 4642 0279 01       		.uleb128 0x1
 4643 027a 13       		.uleb128 0x13
 4644 027b 00       		.byte	0
 4645 027c 00       		.byte	0
 4646 027d 28       		.uleb128 0x28
 4647 027e 2E       		.uleb128 0x2e
 4648 027f 01       		.byte	0x1
 4649 0280 3F       		.uleb128 0x3f
 4650 0281 0C       		.uleb128 0xc
 4651 0282 03       		.uleb128 0x3
 4652 0283 0E       		.uleb128 0xe
 4653 0284 3A       		.uleb128 0x3a
 4654 0285 0B       		.uleb128 0xb
 4655 0286 3B       		.uleb128 0x3b
 4656 0287 0B       		.uleb128 0xb
 4657 0288 39       		.uleb128 0x39
 4658 0289 0B       		.uleb128 0xb
 4659 028a 49       		.uleb128 0x49
 4660 028b 13       		.uleb128 0x13
 4661 028c 3C       		.uleb128 0x3c
 4662 028d 0C       		.uleb128 0xc
 4663 028e 00       		.byte	0
 4664 028f 00       		.byte	0
GAS LISTING C:\Users\jisu8\AppData\Local\Temp\ccbDR4WJ.s 			page 101


 4665 0290 29       		.uleb128 0x29
 4666 0291 2E       		.uleb128 0x2e
 4667 0292 01       		.byte	0x1
 4668 0293 3F       		.uleb128 0x3f
 4669 0294 0C       		.uleb128 0xc
 4670 0295 03       		.uleb128 0x3
 4671 0296 08       		.uleb128 0x8
 4672 0297 3A       		.uleb128 0x3a
 4673 0298 0B       		.uleb128 0xb
 4674 0299 3B       		.uleb128 0x3b
 4675 029a 0B       		.uleb128 0xb
 4676 029b 39       		.uleb128 0x39
 4677 029c 0B       		.uleb128 0xb
 4678 029d 27       		.uleb128 0x27
 4679 029e 0C       		.uleb128 0xc
 4680 029f 49       		.uleb128 0x49
 4681 02a0 13       		.uleb128 0x13
 4682 02a1 11       		.uleb128 0x11
 4683 02a2 01       		.uleb128 0x1
 4684 02a3 12       		.uleb128 0x12
 4685 02a4 01       		.uleb128 0x1
 4686 02a5 40       		.uleb128 0x40
 4687 02a6 06       		.uleb128 0x6
 4688 02a7 9742     		.uleb128 0x2117
 4689 02a9 0C       		.uleb128 0xc
 4690 02aa 01       		.uleb128 0x1
 4691 02ab 13       		.uleb128 0x13
 4692 02ac 00       		.byte	0
 4693 02ad 00       		.byte	0
 4694 02ae 00       		.byte	0
 4695              		.section	.debug_loc,"dr"
 4696              	Ldebug_loc0:
 4697              	LLST12:
 4698 0000 DD0C0000 		.long	LFB28-Ltext0
 4699 0004 DE0C0000 		.long	LCFI36-Ltext0
 4700 0008 0200     		.word	0x2
 4701 000a 74       		.byte	0x74
 4702 000b 04       		.sleb128 4
 4703 000c DE0C0000 		.long	LCFI36-Ltext0
 4704 0010 E00C0000 		.long	LCFI37-Ltext0
 4705 0014 0200     		.word	0x2
 4706 0016 74       		.byte	0x74
 4707 0017 08       		.sleb128 8
 4708 0018 E00C0000 		.long	LCFI37-Ltext0
 4709 001c F00F0000 		.long	LCFI38-Ltext0
 4710 0020 0200     		.word	0x2
 4711 0022 75       		.byte	0x75
 4712 0023 08       		.sleb128 8
 4713 0024 F00F0000 		.long	LCFI38-Ltext0
 4714 0028 F10F0000 		.long	LFE28-Ltext0
 4715 002c 0200     		.word	0x2
 4716 002e 74       		.byte	0x74
 4717 002f 04       		.sleb128 4
 4718 0030 00000000 		.long	0
 4719 0034 00000000 		.long	0
 4720              	LLST11:
 4721 0038 8F0C0000 		.long	LFB27-Ltext0
GAS LISTING C:\Users\jisu8\AppData\Local\Temp\ccbDR4WJ.s 			page 102


 4722 003c 900C0000 		.long	LCFI33-Ltext0
 4723 0040 0200     		.word	0x2
 4724 0042 74       		.byte	0x74
 4725 0043 04       		.sleb128 4
 4726 0044 900C0000 		.long	LCFI33-Ltext0
 4727 0048 920C0000 		.long	LCFI34-Ltext0
 4728 004c 0200     		.word	0x2
 4729 004e 74       		.byte	0x74
 4730 004f 08       		.sleb128 8
 4731 0050 920C0000 		.long	LCFI34-Ltext0
 4732 0054 DC0C0000 		.long	LCFI35-Ltext0
 4733 0058 0200     		.word	0x2
 4734 005a 75       		.byte	0x75
 4735 005b 08       		.sleb128 8
 4736 005c DC0C0000 		.long	LCFI35-Ltext0
 4737 0060 DD0C0000 		.long	LFE27-Ltext0
 4738 0064 0200     		.word	0x2
 4739 0066 74       		.byte	0x74
 4740 0067 04       		.sleb128 4
 4741 0068 00000000 		.long	0
 4742 006c 00000000 		.long	0
 4743              	LLST10:
 4744 0070 2A0B0000 		.long	LFB26-Ltext0
 4745 0074 2B0B0000 		.long	LCFI30-Ltext0
 4746 0078 0200     		.word	0x2
 4747 007a 74       		.byte	0x74
 4748 007b 04       		.sleb128 4
 4749 007c 2B0B0000 		.long	LCFI30-Ltext0
 4750 0080 2D0B0000 		.long	LCFI31-Ltext0
 4751 0084 0200     		.word	0x2
 4752 0086 74       		.byte	0x74
 4753 0087 08       		.sleb128 8
 4754 0088 2D0B0000 		.long	LCFI31-Ltext0
 4755 008c 8E0C0000 		.long	LCFI32-Ltext0
 4756 0090 0200     		.word	0x2
 4757 0092 75       		.byte	0x75
 4758 0093 08       		.sleb128 8
 4759 0094 8E0C0000 		.long	LCFI32-Ltext0
 4760 0098 8F0C0000 		.long	LFE26-Ltext0
 4761 009c 0200     		.word	0x2
 4762 009e 74       		.byte	0x74
 4763 009f 04       		.sleb128 4
 4764 00a0 00000000 		.long	0
 4765 00a4 00000000 		.long	0
 4766              	LLST9:
 4767 00a8 BF080000 		.long	LFB25-Ltext0
 4768 00ac C0080000 		.long	LCFI27-Ltext0
 4769 00b0 0200     		.word	0x2
 4770 00b2 74       		.byte	0x74
 4771 00b3 04       		.sleb128 4
 4772 00b4 C0080000 		.long	LCFI27-Ltext0
 4773 00b8 C2080000 		.long	LCFI28-Ltext0
 4774 00bc 0200     		.word	0x2
 4775 00be 74       		.byte	0x74
 4776 00bf 08       		.sleb128 8
 4777 00c0 C2080000 		.long	LCFI28-Ltext0
 4778 00c4 290B0000 		.long	LCFI29-Ltext0
GAS LISTING C:\Users\jisu8\AppData\Local\Temp\ccbDR4WJ.s 			page 103


 4779 00c8 0200     		.word	0x2
 4780 00ca 75       		.byte	0x75
 4781 00cb 08       		.sleb128 8
 4782 00cc 290B0000 		.long	LCFI29-Ltext0
 4783 00d0 2A0B0000 		.long	LFE25-Ltext0
 4784 00d4 0200     		.word	0x2
 4785 00d6 74       		.byte	0x74
 4786 00d7 04       		.sleb128 4
 4787 00d8 00000000 		.long	0
 4788 00dc 00000000 		.long	0
 4789              	LLST8:
 4790 00e0 3E050000 		.long	LFB24-Ltext0
 4791 00e4 3F050000 		.long	LCFI24-Ltext0
 4792 00e8 0200     		.word	0x2
 4793 00ea 74       		.byte	0x74
 4794 00eb 04       		.sleb128 4
 4795 00ec 3F050000 		.long	LCFI24-Ltext0
 4796 00f0 41050000 		.long	LCFI25-Ltext0
 4797 00f4 0200     		.word	0x2
 4798 00f6 74       		.byte	0x74
 4799 00f7 08       		.sleb128 8
 4800 00f8 41050000 		.long	LCFI25-Ltext0
 4801 00fc BE080000 		.long	LCFI26-Ltext0
 4802 0100 0200     		.word	0x2
 4803 0102 75       		.byte	0x75
 4804 0103 08       		.sleb128 8
 4805 0104 BE080000 		.long	LCFI26-Ltext0
 4806 0108 BF080000 		.long	LFE24-Ltext0
 4807 010c 0200     		.word	0x2
 4808 010e 74       		.byte	0x74
 4809 010f 04       		.sleb128 4
 4810 0110 00000000 		.long	0
 4811 0114 00000000 		.long	0
 4812              	LLST7:
 4813 0118 50030000 		.long	LFB23-Ltext0
 4814 011c 51030000 		.long	LCFI21-Ltext0
 4815 0120 0200     		.word	0x2
 4816 0122 74       		.byte	0x74
 4817 0123 04       		.sleb128 4
 4818 0124 51030000 		.long	LCFI21-Ltext0
 4819 0128 53030000 		.long	LCFI22-Ltext0
 4820 012c 0200     		.word	0x2
 4821 012e 74       		.byte	0x74
 4822 012f 08       		.sleb128 8
 4823 0130 53030000 		.long	LCFI22-Ltext0
 4824 0134 3D050000 		.long	LCFI23-Ltext0
 4825 0138 0200     		.word	0x2
 4826 013a 75       		.byte	0x75
 4827 013b 08       		.sleb128 8
 4828 013c 3D050000 		.long	LCFI23-Ltext0
 4829 0140 3E050000 		.long	LFE23-Ltext0
 4830 0144 0200     		.word	0x2
 4831 0146 74       		.byte	0x74
 4832 0147 04       		.sleb128 4
 4833 0148 00000000 		.long	0
 4834 014c 00000000 		.long	0
 4835              	LLST6:
GAS LISTING C:\Users\jisu8\AppData\Local\Temp\ccbDR4WJ.s 			page 104


 4836 0150 12030000 		.long	LFB22-Ltext0
 4837 0154 13030000 		.long	LCFI18-Ltext0
 4838 0158 0200     		.word	0x2
 4839 015a 74       		.byte	0x74
 4840 015b 04       		.sleb128 4
 4841 015c 13030000 		.long	LCFI18-Ltext0
 4842 0160 15030000 		.long	LCFI19-Ltext0
 4843 0164 0200     		.word	0x2
 4844 0166 74       		.byte	0x74
 4845 0167 08       		.sleb128 8
 4846 0168 15030000 		.long	LCFI19-Ltext0
 4847 016c 4F030000 		.long	LCFI20-Ltext0
 4848 0170 0200     		.word	0x2
 4849 0172 75       		.byte	0x75
 4850 0173 08       		.sleb128 8
 4851 0174 4F030000 		.long	LCFI20-Ltext0
 4852 0178 50030000 		.long	LFE22-Ltext0
 4853 017c 0200     		.word	0x2
 4854 017e 74       		.byte	0x74
 4855 017f 04       		.sleb128 4
 4856 0180 00000000 		.long	0
 4857 0184 00000000 		.long	0
 4858              	LLST5:
 4859 0188 CF020000 		.long	LFB21-Ltext0
 4860 018c D0020000 		.long	LCFI15-Ltext0
 4861 0190 0200     		.word	0x2
 4862 0192 74       		.byte	0x74
 4863 0193 04       		.sleb128 4
 4864 0194 D0020000 		.long	LCFI15-Ltext0
 4865 0198 D2020000 		.long	LCFI16-Ltext0
 4866 019c 0200     		.word	0x2
 4867 019e 74       		.byte	0x74
 4868 019f 08       		.sleb128 8
 4869 01a0 D2020000 		.long	LCFI16-Ltext0
 4870 01a4 11030000 		.long	LCFI17-Ltext0
 4871 01a8 0200     		.word	0x2
 4872 01aa 75       		.byte	0x75
 4873 01ab 08       		.sleb128 8
 4874 01ac 11030000 		.long	LCFI17-Ltext0
 4875 01b0 12030000 		.long	LFE21-Ltext0
 4876 01b4 0200     		.word	0x2
 4877 01b6 74       		.byte	0x74
 4878 01b7 04       		.sleb128 4
 4879 01b8 00000000 		.long	0
 4880 01bc 00000000 		.long	0
 4881              	LLST4:
 4882 01c0 18010000 		.long	LFB20-Ltext0
 4883 01c4 19010000 		.long	LCFI12-Ltext0
 4884 01c8 0200     		.word	0x2
 4885 01ca 74       		.byte	0x74
 4886 01cb 04       		.sleb128 4
 4887 01cc 19010000 		.long	LCFI12-Ltext0
 4888 01d0 1B010000 		.long	LCFI13-Ltext0
 4889 01d4 0200     		.word	0x2
 4890 01d6 74       		.byte	0x74
 4891 01d7 08       		.sleb128 8
 4892 01d8 1B010000 		.long	LCFI13-Ltext0
GAS LISTING C:\Users\jisu8\AppData\Local\Temp\ccbDR4WJ.s 			page 105


 4893 01dc CE020000 		.long	LCFI14-Ltext0
 4894 01e0 0200     		.word	0x2
 4895 01e2 75       		.byte	0x75
 4896 01e3 08       		.sleb128 8
 4897 01e4 CE020000 		.long	LCFI14-Ltext0
 4898 01e8 CF020000 		.long	LFE20-Ltext0
 4899 01ec 0200     		.word	0x2
 4900 01ee 74       		.byte	0x74
 4901 01ef 04       		.sleb128 4
 4902 01f0 00000000 		.long	0
 4903 01f4 00000000 		.long	0
 4904              	LLST3:
 4905 01f8 04010000 		.long	LFB19-Ltext0
 4906 01fc 05010000 		.long	LCFI9-Ltext0
 4907 0200 0200     		.word	0x2
 4908 0202 74       		.byte	0x74
 4909 0203 04       		.sleb128 4
 4910 0204 05010000 		.long	LCFI9-Ltext0
 4911 0208 07010000 		.long	LCFI10-Ltext0
 4912 020c 0200     		.word	0x2
 4913 020e 74       		.byte	0x74
 4914 020f 08       		.sleb128 8
 4915 0210 07010000 		.long	LCFI10-Ltext0
 4916 0214 17010000 		.long	LCFI11-Ltext0
 4917 0218 0200     		.word	0x2
 4918 021a 75       		.byte	0x75
 4919 021b 08       		.sleb128 8
 4920 021c 17010000 		.long	LCFI11-Ltext0
 4921 0220 18010000 		.long	LFE19-Ltext0
 4922 0224 0200     		.word	0x2
 4923 0226 74       		.byte	0x74
 4924 0227 04       		.sleb128 4
 4925 0228 00000000 		.long	0
 4926 022c 00000000 		.long	0
 4927              	LLST2:
 4928 0230 F1000000 		.long	LFB18-Ltext0
 4929 0234 F2000000 		.long	LCFI6-Ltext0
 4930 0238 0200     		.word	0x2
 4931 023a 74       		.byte	0x74
 4932 023b 04       		.sleb128 4
 4933 023c F2000000 		.long	LCFI6-Ltext0
 4934 0240 F4000000 		.long	LCFI7-Ltext0
 4935 0244 0200     		.word	0x2
 4936 0246 74       		.byte	0x74
 4937 0247 08       		.sleb128 8
 4938 0248 F4000000 		.long	LCFI7-Ltext0
 4939 024c 03010000 		.long	LCFI8-Ltext0
 4940 0250 0200     		.word	0x2
 4941 0252 75       		.byte	0x75
 4942 0253 08       		.sleb128 8
 4943 0254 03010000 		.long	LCFI8-Ltext0
 4944 0258 04010000 		.long	LFE18-Ltext0
 4945 025c 0200     		.word	0x2
 4946 025e 74       		.byte	0x74
 4947 025f 04       		.sleb128 4
 4948 0260 00000000 		.long	0
 4949 0264 00000000 		.long	0
GAS LISTING C:\Users\jisu8\AppData\Local\Temp\ccbDR4WJ.s 			page 106


 4950              	LLST1:
 4951 0268 E6000000 		.long	LFB17-Ltext0
 4952 026c E7000000 		.long	LCFI3-Ltext0
 4953 0270 0200     		.word	0x2
 4954 0272 74       		.byte	0x74
 4955 0273 04       		.sleb128 4
 4956 0274 E7000000 		.long	LCFI3-Ltext0
 4957 0278 E9000000 		.long	LCFI4-Ltext0
 4958 027c 0200     		.word	0x2
 4959 027e 74       		.byte	0x74
 4960 027f 08       		.sleb128 8
 4961 0280 E9000000 		.long	LCFI4-Ltext0
 4962 0284 F0000000 		.long	LCFI5-Ltext0
 4963 0288 0200     		.word	0x2
 4964 028a 75       		.byte	0x75
 4965 028b 08       		.sleb128 8
 4966 028c F0000000 		.long	LCFI5-Ltext0
 4967 0290 F1000000 		.long	LFE17-Ltext0
 4968 0294 0200     		.word	0x2
 4969 0296 74       		.byte	0x74
 4970 0297 04       		.sleb128 4
 4971 0298 00000000 		.long	0
 4972 029c 00000000 		.long	0
 4973              	LLST0:
 4974 02a0 00000000 		.long	LFB16-Ltext0
 4975 02a4 01000000 		.long	LCFI0-Ltext0
 4976 02a8 0200     		.word	0x2
 4977 02aa 74       		.byte	0x74
 4978 02ab 04       		.sleb128 4
 4979 02ac 01000000 		.long	LCFI0-Ltext0
 4980 02b0 03000000 		.long	LCFI1-Ltext0
 4981 02b4 0200     		.word	0x2
 4982 02b6 74       		.byte	0x74
 4983 02b7 08       		.sleb128 8
 4984 02b8 03000000 		.long	LCFI1-Ltext0
 4985 02bc E5000000 		.long	LCFI2-Ltext0
 4986 02c0 0200     		.word	0x2
 4987 02c2 75       		.byte	0x75
 4988 02c3 08       		.sleb128 8
 4989 02c4 E5000000 		.long	LCFI2-Ltext0
 4990 02c8 E6000000 		.long	LFE16-Ltext0
 4991 02cc 0200     		.word	0x2
 4992 02ce 74       		.byte	0x74
 4993 02cf 04       		.sleb128 4
 4994 02d0 00000000 		.long	0
 4995 02d4 00000000 		.long	0
 4996              		.section	.debug_aranges,"dr"
 4997 0000 1C000000 		.long	0x1c
 4998 0004 0200     		.word	0x2
 4999 0006 00000000 		.secrel32	Ldebug_info0
 5000 000a 04       		.byte	0x4
 5001 000b 00       		.byte	0
 5002 000c 0000     		.word	0
 5003 000e 0000     		.word	0
 5004 0010 00000000 		.long	Ltext0
 5005 0014 F10F0000 		.long	Letext0-Ltext0
 5006 0018 00000000 		.long	0
GAS LISTING C:\Users\jisu8\AppData\Local\Temp\ccbDR4WJ.s 			page 107


 5007 001c 00000000 		.long	0
 5008              		.section	.debug_line,"dr"
 5009              	Ldebug_line0:
 5010 0000 FB060000 		.section	.debug_str,"dr"
 5010      02004701 
 5010      00000101 
 5010      FB0E0D00 
 5010      01010101 
 5011              	LASF11:
 5012 0000 62617263 		.ascii "barcodeRow\0"
 5012      6F646552 
 5012      6F7700
 5013              	LASF14:
 5014 000b 636F6465 		.ascii "codewordsRow\0"
 5014      776F7264 
 5014      73526F77 
 5014      00
 5015              	LASF15:
 5016 0018 726F7744 		.ascii "rowDifference\0"
 5016      69666665 
 5016      72656E63 
 5016      6500
 5017              	LASF7:
 5018 0026 636F6465 		.ascii "codewordRowNumber\0"
 5018      776F7264 
 5018      526F774E 
 5018      756D6265 
 5018      7200
 5019              	LASF10:
 5020 0038 66697273 		.ascii "firstRow\0"
 5020      74526F77 
 5020      00
 5021              	LASF5:
 5022 0041 6C656E67 		.ascii "length\0"
 5022      746800
 5023              	LASF12:
 5024 0048 6D617852 		.ascii "maxRowHeight\0"
 5024      6F774865 
 5024      69676874 
 5024      00
 5025              	LASF13:
 5026 0055 63757272 		.ascii "currentRowHeight\0"
 5026      656E7452 
 5026      6F774865 
 5026      69676874 
 5026      00
 5027              	LASF8:
 5028 0066 62617263 		.ascii "barcodeMetadata\0"
 5028      6F64654D 
 5028      65746164 
 5028      61746100 
 5029              	LASF3:
 5030 0076 636F6465 		.ascii "codewords\0"
 5030      776F7264 
 5030      7300
 5031              	LASF6:
 5032 0080 726F7749 		.ascii "rowIndicatorValue\0"
GAS LISTING C:\Users\jisu8\AppData\Local\Temp\ccbDR4WJ.s 			page 108


 5032      6E646963 
 5032      61746F72 
 5032      56616C75 
 5032      6500
 5033              	LASF0:
 5034 0092 6D5F6861 		.ascii "m_hasValue\0"
 5034      7356616C 
 5034      756500
 5035              	LASF9:
 5036 009d 73657452 		.ascii "setRowNumberAsRowIndicatorColumn\0"
 5036      6F774E75 
 5036      6D626572 
 5036      4173526F 
 5036      77496E64 
 5037              	LASF4:
 5038 00be 526F7749 		.ascii "RowIndicatorColumn\0"
 5038      6E646963 
 5038      61746F72 
 5038      436F6C75 
 5038      6D6E00
 5039              	LASF2:
 5040 00d1 726F7749 		.ascii "rowIndicatorColumn\0"
 5040      6E646963 
 5040      61746F72 
 5040      436F6C75 
 5040      6D6E00
 5041              	LASF1:
 5042 00e4 6D5F7661 		.ascii "m_value\0"
 5042      6C756500 
 5043              		.ident	"GCC: (i686-posix-dwarf-rev0, Built by MinGW-W64 project) 8.1.0"
GAS LISTING C:\Users\jisu8\AppData\Local\Temp\ccbDR4WJ.s 			page 109


DEFINED SYMBOLS
                            *ABS*:00000000 PDFDetectionResultColumn.c
C:\Users\jisu8\AppData\Local\Temp\ccbDR4WJ.s:6      .rdata:00000000 _MAX_NEARBY_DISTANCE
C:\Users\jisu8\AppData\Local\Temp\ccbDR4WJ.s:9      .rdata:00000004 _MIN_ROWS_IN_BARCODE
C:\Users\jisu8\AppData\Local\Temp\ccbDR4WJ.s:12     .rdata:00000008 _MAX_ROWS_IN_BARCODE
                            *COM*:00000fa0 _codewords
C:\Users\jisu8\AppData\Local\Temp\ccbDR4WJ.s:20     .text:00000000 _DetectionResultColumn
C:\Users\jisu8\AppData\Local\Temp\ccbDR4WJ.s:139    .text:000000e6 _allCodewords
C:\Users\jisu8\AppData\Local\Temp\ccbDR4WJ.s:163    .text:000000f1 _isRowIndicator
C:\Users\jisu8\AppData\Local\Temp\ccbDR4WJ.s:190    .text:00000104 _isLeftRowIndicator
C:\Users\jisu8\AppData\Local\Temp\ccbDR4WJ.s:217    .text:00000118 _codewordNearby
C:\Users\jisu8\AppData\Local\Temp\ccbDR4WJ.s:431    .text:000002cf _setRowNumbers
C:\Users\jisu8\AppData\Local\Temp\ccbDR4WJ.s:489    .text:00000312 _clear_Codewords
C:\Users\jisu8\AppData\Local\Temp\ccbDR4WJ.s:532    .text:00000350 _RemoveIncorrectCodewords
C:\Users\jisu8\AppData\Local\Temp\ccbDR4WJ.s:799    .text:0000053e _adjustCompleteIndicatorColumnRowNumbers
C:\Users\jisu8\AppData\Local\Temp\ccbDR4WJ.s:1201   .text:000008bf _adjustIncompleteIndicatorColumnRowNumbers
C:\Users\jisu8\AppData\Local\Temp\ccbDR4WJ.s:1486   .text:00000b2a _getRowHeights
C:\Users\jisu8\AppData\Local\Temp\ccbDR4WJ.s:1669   .text:00000c8f _setRowNumberAsRowIndicatorColumn
C:\Users\jisu8\AppData\Local\Temp\ccbDR4WJ.s:1733   .text:00000cdd _getBarcodeMetadata

UNDEFINED SYMBOLS
___chkstk_ms
_printf
_puts
_rowCount
_topLeft
_topRight
_bottomLeft
_bottomRight
_fill
_BarcodeSetValue
_BarcodeValue
