GAS LISTING C:\Users\jisu8\AppData\Local\Temp\ccIUpqyy.s 			page 1


   1              		.file	"PDFDetectionResultColumn.c"
   2              		.text
   3              	Ltext0:
   4              		.section .rdata,"dr"
   5              		.align 4
   6              	_MAX_NEARBY_DISTANCE:
   7 0000 05000000 		.long	5
   8              		.align 4
   9              	_MIN_ROWS_IN_BARCODE:
  10 0004 03000000 		.long	3
  11              		.align 4
  12              	_MAX_ROWS_IN_BARCODE:
  13 0008 5A000000 		.long	90
  14              		.comm	_codewords, 4000, 5
  15              	LC0:
  16 000c 496E7661 		.ascii "Invalid bounding box\0"
  16      6C696420 
  16      626F756E 
  16      64696E67 
  16      20626F78 
  17              		.text
  18              		.globl	_DetectionResultColumn
  20              	_DetectionResultColumn:
  21              	LFB4:
  22              		.file 1 "src/pdf417/PDFDetectionResultColumn.c"
   1:src/pdf417/PDFDetectionResultColumn.c **** /*
   2:src/pdf417/PDFDetectionResultColumn.c **** * Copyright 2016 Nu-book Inc.
   3:src/pdf417/PDFDetectionResultColumn.c **** * Copyright 2016 ZXing authors
   4:src/pdf417/PDFDetectionResultColumn.c **** *
   5:src/pdf417/PDFDetectionResultColumn.c **** * Licensed under the Apache License, Version 2.0 (the "License");
   6:src/pdf417/PDFDetectionResultColumn.c **** * you may not use this file except in compliance with the License.
   7:src/pdf417/PDFDetectionResultColumn.c **** * You may obtain a copy of the License at
   8:src/pdf417/PDFDetectionResultColumn.c **** *
   9:src/pdf417/PDFDetectionResultColumn.c **** *      http://www.apache.org/licenses/LICENSE-2.0
  10:src/pdf417/PDFDetectionResultColumn.c **** *
  11:src/pdf417/PDFDetectionResultColumn.c **** * Unless required by applicable law or agreed to in writing, software
  12:src/pdf417/PDFDetectionResultColumn.c **** * distributed under the License is distributed on an "AS IS" BASIS,
  13:src/pdf417/PDFDetectionResultColumn.c **** * WITHOUT WARRANTIES OR CONDITIONS OF ANY KIND, either express or implied.
  14:src/pdf417/PDFDetectionResultColumn.c **** * See the License for the specific language governing permissions and
  15:src/pdf417/PDFDetectionResultColumn.c **** * limitations under the License.
  16:src/pdf417/PDFDetectionResultColumn.c **** */
  17:src/pdf417/PDFDetectionResultColumn.c **** 
  18:src/pdf417/PDFDetectionResultColumn.c **** #include "PDFBarcodeMetadata.h"
  19:src/pdf417/PDFDetectionResultColumn.c **** #include "PDFBarcodeValue.h"
  20:src/pdf417/PDFDetectionResultColumn.c **** #include "PDFScanningDecoder.h"
  21:src/pdf417/PDFDetectionResultColumn.c **** #include <stdlib.h>
  22:src/pdf417/PDFDetectionResultColumn.c **** 
  23:src/pdf417/PDFDetectionResultColumn.c **** static const int MAX_NEARBY_DISTANCE = 5;
  24:src/pdf417/PDFDetectionResultColumn.c **** static const int MIN_ROWS_IN_BARCODE = 3;
  25:src/pdf417/PDFDetectionResultColumn.c **** static const int MAX_ROWS_IN_BARCODE = 90;
  26:src/pdf417/PDFDetectionResultColumn.c **** 
  27:src/pdf417/PDFDetectionResultColumn.c **** int codewords[1000];
  28:src/pdf417/PDFDetectionResultColumn.c **** 
  29:src/pdf417/PDFDetectionResultColumn.c **** void DetectionResultColumn(const BoundingBox_t * boundingBox, RowIndicator_t rowInd, DetectionResul
  30:src/pdf417/PDFDetectionResultColumn.c **** {
  23              		.loc 1 30 1
  24              		.cfi_startproc
GAS LISTING C:\Users\jisu8\AppData\Local\Temp\ccIUpqyy.s 			page 2


  25 0000 55       		pushl	%ebp
  26              	LCFI0:
  27              		.cfi_def_cfa_offset 8
  28              		.cfi_offset 5, -8
  29 0001 89E5     		movl	%esp, %ebp
  30              	LCFI1:
  31              		.cfi_def_cfa_register 5
  32 0003 83EC18   		subl	$24, %esp
  31:src/pdf417/PDFDetectionResultColumn.c **** 	RowIndicatorColumn->m_value._boundingBox.m_hasValue = 1;
  33              		.loc 1 31 54
  34 0006 8B4510   		movl	16(%ebp), %eax
  35 0009 C6400401 		movb	$1, 4(%eax)
  32:src/pdf417/PDFDetectionResultColumn.c **** 	RowIndicatorColumn->m_value._boundingBox.m_value._imgWidth = boundingBox->m_value._imgWidth;
  36              		.loc 1 32 83
  37 000d 8B4508   		movl	8(%ebp), %eax
  38 0010 8B5004   		movl	4(%eax), %edx
  39              		.loc 1 32 61
  40 0013 8B4510   		movl	16(%ebp), %eax
  41 0016 895008   		movl	%edx, 8(%eax)
  33:src/pdf417/PDFDetectionResultColumn.c **** 	RowIndicatorColumn->m_value._boundingBox.m_value._imgHeight = boundingBox->m_value._imgHeight;
  42              		.loc 1 33 84
  43 0019 8B4508   		movl	8(%ebp), %eax
  44 001c 8B5008   		movl	8(%eax), %edx
  45              		.loc 1 33 62
  46 001f 8B4510   		movl	16(%ebp), %eax
  47 0022 89500C   		movl	%edx, 12(%eax)
  34:src/pdf417/PDFDetectionResultColumn.c **** 	RowIndicatorColumn->m_value._boundingBox.m_value._topLeft = boundingBox->m_value._topLeft;
  48              		.loc 1 34 60
  49 0025 8B4510   		movl	16(%ebp), %eax
  50 0028 8B5508   		movl	8(%ebp), %edx
  51 002b 8B4A0C   		movl	12(%edx), %ecx
  52 002e 894810   		movl	%ecx, 16(%eax)
  53 0031 8B4A10   		movl	16(%edx), %ecx
  54 0034 894814   		movl	%ecx, 20(%eax)
  55 0037 8B5214   		movl	20(%edx), %edx
  56 003a 895018   		movl	%edx, 24(%eax)
  35:src/pdf417/PDFDetectionResultColumn.c **** 	RowIndicatorColumn->m_value._boundingBox.m_value._bottomLeft = boundingBox->m_value._bottomLeft;
  57              		.loc 1 35 63
  58 003d 8B4510   		movl	16(%ebp), %eax
  59 0040 8B5508   		movl	8(%ebp), %edx
  60 0043 8B4A18   		movl	24(%edx), %ecx
  61 0046 89481C   		movl	%ecx, 28(%eax)
  62 0049 8B4A1C   		movl	28(%edx), %ecx
  63 004c 894820   		movl	%ecx, 32(%eax)
  64 004f 8B5220   		movl	32(%edx), %edx
  65 0052 895024   		movl	%edx, 36(%eax)
  36:src/pdf417/PDFDetectionResultColumn.c **** 	RowIndicatorColumn->m_value._boundingBox.m_value._topRight = boundingBox->m_value._topRight;
  66              		.loc 1 36 61
  67 0055 8B4510   		movl	16(%ebp), %eax
  68 0058 8B5508   		movl	8(%ebp), %edx
  69 005b 8B4A24   		movl	36(%edx), %ecx
  70 005e 894828   		movl	%ecx, 40(%eax)
  71 0061 8B4A28   		movl	40(%edx), %ecx
  72 0064 89482C   		movl	%ecx, 44(%eax)
  73 0067 8B522C   		movl	44(%edx), %edx
  74 006a 895030   		movl	%edx, 48(%eax)
  37:src/pdf417/PDFDetectionResultColumn.c **** 	RowIndicatorColumn->m_value._boundingBox.m_value._bottomRight = boundingBox->m_value._bottomRight;
GAS LISTING C:\Users\jisu8\AppData\Local\Temp\ccIUpqyy.s 			page 3


  75              		.loc 1 37 64
  76 006d 8B4510   		movl	16(%ebp), %eax
  77 0070 8B5508   		movl	8(%ebp), %edx
  78 0073 8B4A30   		movl	48(%edx), %ecx
  79 0076 894834   		movl	%ecx, 52(%eax)
  80 0079 8B4A34   		movl	52(%edx), %ecx
  81 007c 894838   		movl	%ecx, 56(%eax)
  82 007f 8B5238   		movl	56(%edx), %edx
  83 0082 89503C   		movl	%edx, 60(%eax)
  38:src/pdf417/PDFDetectionResultColumn.c **** 	RowIndicatorColumn->m_value._boundingBox.m_value._minX = boundingBox->m_value._minX;
  84              		.loc 1 38 79
  85 0085 8B4508   		movl	8(%ebp), %eax
  86 0088 8B503C   		movl	60(%eax), %edx
  87              		.loc 1 38 57
  88 008b 8B4510   		movl	16(%ebp), %eax
  89 008e 895040   		movl	%edx, 64(%eax)
  39:src/pdf417/PDFDetectionResultColumn.c **** 	RowIndicatorColumn->m_value._boundingBox.m_value._maxX = boundingBox->m_value._maxX;
  90              		.loc 1 39 79
  91 0091 8B4508   		movl	8(%ebp), %eax
  92 0094 8B5040   		movl	64(%eax), %edx
  93              		.loc 1 39 57
  94 0097 8B4510   		movl	16(%ebp), %eax
  95 009a 895044   		movl	%edx, 68(%eax)
  40:src/pdf417/PDFDetectionResultColumn.c **** 	RowIndicatorColumn->m_value._boundingBox.m_value._minY = boundingBox->m_value._minY;
  96              		.loc 1 40 79
  97 009d 8B4508   		movl	8(%ebp), %eax
  98 00a0 8B5044   		movl	68(%eax), %edx
  99              		.loc 1 40 57
 100 00a3 8B4510   		movl	16(%ebp), %eax
 101 00a6 895048   		movl	%edx, 72(%eax)
  41:src/pdf417/PDFDetectionResultColumn.c **** 	RowIndicatorColumn->m_value._boundingBox.m_value._maxY = boundingBox->m_value._maxY;
 102              		.loc 1 41 79
 103 00a9 8B4508   		movl	8(%ebp), %eax
 104 00ac 8B5048   		movl	72(%eax), %edx
 105              		.loc 1 41 57
 106 00af 8B4510   		movl	16(%ebp), %eax
 107 00b2 89504C   		movl	%edx, 76(%eax)
  42:src/pdf417/PDFDetectionResultColumn.c **** 	RowIndicatorColumn->m_value._rowIndicator = rowInd;
 108              		.loc 1 42 44
 109 00b5 8B4510   		movl	16(%ebp), %eax
 110 00b8 8B550C   		movl	12(%ebp), %edx
 111 00bb 8990302F 		movl	%edx, 12080(%eax)
 111      0000
  43:src/pdf417/PDFDetectionResultColumn.c **** 	RowIndicatorColumn->m_hasValue = 1;
 112              		.loc 1 43 33
 113 00c1 8B4510   		movl	16(%ebp), %eax
 114 00c4 C60001   		movb	$1, (%eax)
  44:src/pdf417/PDFDetectionResultColumn.c **** 	
  45:src/pdf417/PDFDetectionResultColumn.c **** 	if (boundingBox->m_value._maxY < boundingBox->m_value._minY) 
 115              		.loc 1 45 26
 116 00c7 8B4508   		movl	8(%ebp), %eax
 117 00ca 8B5048   		movl	72(%eax), %edx
 118              		.loc 1 45 55
 119 00cd 8B4508   		movl	8(%ebp), %eax
 120 00d0 8B4044   		movl	68(%eax), %eax
 121              		.loc 1 45 5
 122 00d3 39C2     		cmpl	%eax, %edx
GAS LISTING C:\Users\jisu8\AppData\Local\Temp\ccIUpqyy.s 			page 4


 123 00d5 7D0C     		jge	L3
 124              	LBB2:
  46:src/pdf417/PDFDetectionResultColumn.c **** 	{
  47:src/pdf417/PDFDetectionResultColumn.c **** 		printf("Invalid bounding box");
 125              		.loc 1 47 3
 126 00d7 C704240C 		movl	$LC0, (%esp)
 126      000000
 127 00de E8000000 		call	_printf
 127      00
 128              	L3:
 129              	LBE2:
  48:src/pdf417/PDFDetectionResultColumn.c **** 	}
  49:src/pdf417/PDFDetectionResultColumn.c **** }
 130              		.loc 1 49 1
 131 00e3 90       		nop
 132 00e4 C9       		leave
 133              	LCFI2:
 134              		.cfi_restore 5
 135              		.cfi_def_cfa 4, 4
 136 00e5 C3       		ret
 137              		.cfi_endproc
 138              	LFE4:
 139              		.globl	_allCodewords
 141              	_allCodewords:
 142              	LFB5:
  50:src/pdf417/PDFDetectionResultColumn.c **** 
  51:src/pdf417/PDFDetectionResultColumn.c **** Codeword_t * allCodewords(DetectionResultColumn_t * RowIndicatorColumn) 
  52:src/pdf417/PDFDetectionResultColumn.c **** {
 143              		.loc 1 52 1
 144              		.cfi_startproc
 145 00e6 55       		pushl	%ebp
 146              	LCFI3:
 147              		.cfi_def_cfa_offset 8
 148              		.cfi_offset 5, -8
 149 00e7 89E5     		movl	%esp, %ebp
 150              	LCFI4:
 151              		.cfi_def_cfa_register 5
  53:src/pdf417/PDFDetectionResultColumn.c **** 	return RowIndicatorColumn->m_value._codewords;
 152              		.loc 1 53 9
 153 00e9 8B4508   		movl	8(%ebp), %eax
 154 00ec 83C050   		addl	$80, %eax
  54:src/pdf417/PDFDetectionResultColumn.c **** }
 155              		.loc 1 54 1
 156 00ef 5D       		popl	%ebp
 157              	LCFI5:
 158              		.cfi_restore 5
 159              		.cfi_def_cfa 4, 4
 160 00f0 C3       		ret
 161              		.cfi_endproc
 162              	LFE5:
 163              		.globl	_isRowIndicator
 165              	_isRowIndicator:
 166              	LFB6:
  55:src/pdf417/PDFDetectionResultColumn.c **** uint8_t isRowIndicator(DetectionResultColumn_t * RowIndicatorColumn)
  56:src/pdf417/PDFDetectionResultColumn.c **** {
 167              		.loc 1 56 1
 168              		.cfi_startproc
GAS LISTING C:\Users\jisu8\AppData\Local\Temp\ccIUpqyy.s 			page 5


 169 00f1 55       		pushl	%ebp
 170              	LCFI6:
 171              		.cfi_def_cfa_offset 8
 172              		.cfi_offset 5, -8
 173 00f2 89E5     		movl	%esp, %ebp
 174              	LCFI7:
 175              		.cfi_def_cfa_register 5
  57:src/pdf417/PDFDetectionResultColumn.c **** 	return RowIndicatorColumn->m_value._rowIndicator != None;
 176              		.loc 1 57 36
 177 00f4 8B4508   		movl	8(%ebp), %eax
 178 00f7 8B80302F 		movl	12080(%eax), %eax
 178      0000
 179              		.loc 1 57 51
 180 00fd 85C0     		testl	%eax, %eax
 181 00ff 0F95C0   		setne	%al
  58:src/pdf417/PDFDetectionResultColumn.c **** }
 182              		.loc 1 58 1
 183 0102 5D       		popl	%ebp
 184              	LCFI8:
 185              		.cfi_restore 5
 186              		.cfi_def_cfa 4, 4
 187 0103 C3       		ret
 188              		.cfi_endproc
 189              	LFE6:
 190              		.globl	_isLeftRowIndicator
 192              	_isLeftRowIndicator:
 193              	LFB7:
  59:src/pdf417/PDFDetectionResultColumn.c **** uint8_t isLeftRowIndicator(DetectionResultColumn_t * RowIndicatorColumn) 
  60:src/pdf417/PDFDetectionResultColumn.c **** {
 194              		.loc 1 60 1
 195              		.cfi_startproc
 196 0104 55       		pushl	%ebp
 197              	LCFI9:
 198              		.cfi_def_cfa_offset 8
 199              		.cfi_offset 5, -8
 200 0105 89E5     		movl	%esp, %ebp
 201              	LCFI10:
 202              		.cfi_def_cfa_register 5
  61:src/pdf417/PDFDetectionResultColumn.c **** 	return RowIndicatorColumn->m_value._rowIndicator == Left;
 203              		.loc 1 61 36
 204 0107 8B4508   		movl	8(%ebp), %eax
 205 010a 8B80302F 		movl	12080(%eax), %eax
 205      0000
 206              		.loc 1 61 51
 207 0110 83F801   		cmpl	$1, %eax
 208 0113 0F94C0   		sete	%al
  62:src/pdf417/PDFDetectionResultColumn.c **** }
 209              		.loc 1 62 1
 210 0116 5D       		popl	%ebp
 211              	LCFI11:
 212              		.cfi_restore 5
 213              		.cfi_def_cfa 4, 4
 214 0117 C3       		ret
 215              		.cfi_endproc
 216              	LFE7:
 218              	_clear_var:
 219              	LFB8:
GAS LISTING C:\Users\jisu8\AppData\Local\Temp\ccIUpqyy.s 			page 6


  63:src/pdf417/PDFDetectionResultColumn.c **** #if 0
  64:src/pdf417/PDFDetectionResultColumn.c **** Nullable<Codeword>
  65:src/pdf417/PDFDetectionResultColumn.c **** DetectionResultColumn::codewordNearby(int imageRow) const
  66:src/pdf417/PDFDetectionResultColumn.c **** {
  67:src/pdf417/PDFDetectionResultColumn.c **** 	int index = imageRowToCodewordIndex(imageRow);
  68:src/pdf417/PDFDetectionResultColumn.c **** 	if (_codewords[index] != nullptr) 
  69:src/pdf417/PDFDetectionResultColumn.c **** 	{
  70:src/pdf417/PDFDetectionResultColumn.c **** 		return _codewords[index];
  71:src/pdf417/PDFDetectionResultColumn.c **** 	}
  72:src/pdf417/PDFDetectionResultColumn.c **** 
  73:src/pdf417/PDFDetectionResultColumn.c **** 	for (int i = 1; i < MAX_NEARBY_DISTANCE; i++) 
  74:src/pdf417/PDFDetectionResultColumn.c **** 	{
  75:src/pdf417/PDFDetectionResultColumn.c **** 		int nearImageRow = imageRowToCodewordIndex(imageRow) - i;
  76:src/pdf417/PDFDetectionResultColumn.c **** 		if (nearImageRow >= 0) 
  77:src/pdf417/PDFDetectionResultColumn.c **** 		{
  78:src/pdf417/PDFDetectionResultColumn.c **** 			if (_codewords[nearImageRow] != nullptr) 
  79:src/pdf417/PDFDetectionResultColumn.c **** 			{
  80:src/pdf417/PDFDetectionResultColumn.c **** 				return _codewords[nearImageRow];
  81:src/pdf417/PDFDetectionResultColumn.c **** 			}
  82:src/pdf417/PDFDetectionResultColumn.c **** 		}
  83:src/pdf417/PDFDetectionResultColumn.c **** 		nearImageRow = imageRowToCodewordIndex(imageRow) + i;
  84:src/pdf417/PDFDetectionResultColumn.c **** 		if (nearImageRow < Size(_codewords)) 
  85:src/pdf417/PDFDetectionResultColumn.c **** 		{
  86:src/pdf417/PDFDetectionResultColumn.c **** 			if (_codewords[nearImageRow] != nullptr) 
  87:src/pdf417/PDFDetectionResultColumn.c **** 			{
  88:src/pdf417/PDFDetectionResultColumn.c **** 				return _codewords[nearImageRow];
  89:src/pdf417/PDFDetectionResultColumn.c **** 			}
  90:src/pdf417/PDFDetectionResultColumn.c **** 		}
  91:src/pdf417/PDFDetectionResultColumn.c **** 	}
  92:src/pdf417/PDFDetectionResultColumn.c **** 
  93:src/pdf417/PDFDetectionResultColumn.c **** 	return nullptr;
  94:src/pdf417/PDFDetectionResultColumn.c **** }
  95:src/pdf417/PDFDetectionResultColumn.c **** 
  96:src/pdf417/PDFDetectionResultColumn.c **** void
  97:src/pdf417/PDFDetectionResultColumn.c **** DetectionResultColumn::setRowNumbers()
  98:src/pdf417/PDFDetectionResultColumn.c **** {
  99:src/pdf417/PDFDetectionResultColumn.c **** 	for (auto& codeword : allCodewords()) 
 100:src/pdf417/PDFDetectionResultColumn.c **** 	{
 101:src/pdf417/PDFDetectionResultColumn.c **** 		if (codeword != nullptr) 
 102:src/pdf417/PDFDetectionResultColumn.c **** 		{
 103:src/pdf417/PDFDetectionResultColumn.c **** 			codeword.value().setRowNumberAsRowIndicatorColumn();
 104:src/pdf417/PDFDetectionResultColumn.c **** 		}
 105:src/pdf417/PDFDetectionResultColumn.c **** 	}
 106:src/pdf417/PDFDetectionResultColumn.c **** }
 107:src/pdf417/PDFDetectionResultColumn.c **** #endif
 108:src/pdf417/PDFDetectionResultColumn.c **** static void clear_var(Codeword_t * codewords)
 109:src/pdf417/PDFDetectionResultColumn.c **** {
 220              		.loc 1 109 1
 221              		.cfi_startproc
 222 0118 55       		pushl	%ebp
 223              	LCFI12:
 224              		.cfi_def_cfa_offset 8
 225              		.cfi_offset 5, -8
 226 0119 89E5     		movl	%esp, %ebp
 227              	LCFI13:
 228              		.cfi_def_cfa_register 5
 110:src/pdf417/PDFDetectionResultColumn.c **** 	codewords->m_hasValue = 0;
GAS LISTING C:\Users\jisu8\AppData\Local\Temp\ccIUpqyy.s 			page 7


 229              		.loc 1 110 24
 230 011b 8B4508   		movl	8(%ebp), %eax
 231 011e C60000   		movb	$0, (%eax)
 111:src/pdf417/PDFDetectionResultColumn.c **** 	codewords->m_value._startX = 0;
 232              		.loc 1 111 29
 233 0121 8B4508   		movl	8(%ebp), %eax
 234 0124 C7400400 		movl	$0, 4(%eax)
 234      000000
 112:src/pdf417/PDFDetectionResultColumn.c **** 	codewords->m_value._endX = 0;
 235              		.loc 1 112 27
 236 012b 8B4508   		movl	8(%ebp), %eax
 237 012e C7400800 		movl	$0, 8(%eax)
 237      000000
 113:src/pdf417/PDFDetectionResultColumn.c **** 	codewords->m_value._bucket = 0;
 238              		.loc 1 113 29
 239 0135 8B4508   		movl	8(%ebp), %eax
 240 0138 C7400C00 		movl	$0, 12(%eax)
 240      000000
 114:src/pdf417/PDFDetectionResultColumn.c **** 	codewords->m_value._value = 0;
 241              		.loc 1 114 28
 242 013f 8B4508   		movl	8(%ebp), %eax
 243 0142 C7401000 		movl	$0, 16(%eax)
 243      000000
 115:src/pdf417/PDFDetectionResultColumn.c **** 	codewords->m_value._rowNumber = -1;
 244              		.loc 1 115 32
 245 0149 8B4508   		movl	8(%ebp), %eax
 246 014c C74014FF 		movl	$-1, 20(%eax)
 246      FFFFFF
 116:src/pdf417/PDFDetectionResultColumn.c **** }
 247              		.loc 1 116 1
 248 0153 90       		nop
 249 0154 5D       		popl	%ebp
 250              	LCFI14:
 251              		.cfi_restore 5
 252              		.cfi_def_cfa 4, 4
 253 0155 C3       		ret
 254              		.cfi_endproc
 255              	LFE8:
 256              		.section .rdata,"dr"
 257              	LC1:
 258 0021 52656D6F 		.ascii "RemoveIncorrectCodewords: \0"
 258      7665496E 
 258      636F7272 
 258      65637443 
 258      6F646577 
 259              		.text
 261              	_RemoveIncorrectCodewords:
 262              	LFB9:
 117:src/pdf417/PDFDetectionResultColumn.c **** static void RemoveIncorrectCodewords(uint8_t isLeft, Codeword_t * codewords, const BarcodeMetadata_
 118:src/pdf417/PDFDetectionResultColumn.c **** {
 263              		.loc 1 118 1
 264              		.cfi_startproc
 265 0156 55       		pushl	%ebp
 266              	LCFI15:
 267              		.cfi_def_cfa_offset 8
 268              		.cfi_offset 5, -8
 269 0157 89E5     		movl	%esp, %ebp
GAS LISTING C:\Users\jisu8\AppData\Local\Temp\ccIUpqyy.s 			page 8


 270              	LCFI16:
 271              		.cfi_def_cfa_register 5
 272 0159 83EC38   		subl	$56, %esp
 273 015c 8B4508   		movl	8(%ebp), %eax
 274 015f 8845E4   		movb	%al, -28(%ebp)
 119:src/pdf417/PDFDetectionResultColumn.c **** 
 120:src/pdf417/PDFDetectionResultColumn.c **** 	printf("RemoveIncorrectCodewords: \n");
 275              		.loc 1 120 2
 276 0162 C7042421 		movl	$LC1, (%esp)
 276      000000
 277 0169 E8000000 		call	_puts
 277      00
 278              	LBB3:
 121:src/pdf417/PDFDetectionResultColumn.c **** 
 122:src/pdf417/PDFDetectionResultColumn.c **** 	// Remove codewords which do not match the metadata
 123:src/pdf417/PDFDetectionResultColumn.c **** 	// TODO Maybe we should keep the incorrect codewords for the start and end positions?
 124:src/pdf417/PDFDetectionResultColumn.c **** 	for (int i=0;i<length;i++) 
 279              		.loc 1 124 11
 280 016e C745F400 		movl	$0, -12(%ebp)
 280      000000
 281              		.loc 1 124 2
 282 0175 E9BB0100 		jmp	L12
 282      00
 283              	L23:
 284              	LBB4:
 125:src/pdf417/PDFDetectionResultColumn.c **** 	{
 126:src/pdf417/PDFDetectionResultColumn.c **** 		if (codewords[i].m_hasValue == 0) 
 285              		.loc 1 126 16
 286 017a 8B55F4   		movl	-12(%ebp), %edx
 287 017d 89D0     		movl	%edx, %eax
 288 017f 01C0     		addl	%eax, %eax
 289 0181 01D0     		addl	%edx, %eax
 290 0183 C1E003   		sall	$3, %eax
 291 0186 89C2     		movl	%eax, %edx
 292 0188 8B450C   		movl	12(%ebp), %eax
 293 018b 01D0     		addl	%edx, %eax
 294              		.loc 1 126 19
 295 018d 0FB600   		movzbl	(%eax), %eax
 296              		.loc 1 126 6
 297 0190 84C0     		testb	%al, %al
 298 0192 0F848F01 		je	L24
 298      0000
 127:src/pdf417/PDFDetectionResultColumn.c **** 		{
 128:src/pdf417/PDFDetectionResultColumn.c **** 			continue;
 129:src/pdf417/PDFDetectionResultColumn.c **** 		}
 130:src/pdf417/PDFDetectionResultColumn.c **** 
 131:src/pdf417/PDFDetectionResultColumn.c **** 		int rowIndicatorValue = codewords[i].m_value._value % 30;
 299              		.loc 1 131 36
 300 0198 8B55F4   		movl	-12(%ebp), %edx
 301 019b 89D0     		movl	%edx, %eax
 302 019d 01C0     		addl	%eax, %eax
 303 019f 01D0     		addl	%edx, %eax
 304 01a1 C1E003   		sall	$3, %eax
 305 01a4 89C2     		movl	%eax, %edx
 306 01a6 8B450C   		movl	12(%ebp), %eax
 307 01a9 01D0     		addl	%edx, %eax
 308              		.loc 1 131 47
GAS LISTING C:\Users\jisu8\AppData\Local\Temp\ccIUpqyy.s 			page 9


 309 01ab 8B4810   		movl	16(%eax), %ecx
 310              		.loc 1 131 7
 311 01ae BA898888 		movl	$-2004318071, %edx
 311      88
 312 01b3 89C8     		movl	%ecx, %eax
 313 01b5 F7EA     		imull	%edx
 314 01b7 8D040A   		leal	(%edx,%ecx), %eax
 315 01ba C1F804   		sarl	$4, %eax
 316 01bd 89C2     		movl	%eax, %edx
 317 01bf 89C8     		movl	%ecx, %eax
 318 01c1 C1F81F   		sarl	$31, %eax
 319 01c4 29C2     		subl	%eax, %edx
 320 01c6 89D0     		movl	%edx, %eax
 321 01c8 8945EC   		movl	%eax, -20(%ebp)
 322 01cb 8B45EC   		movl	-20(%ebp), %eax
 323 01ce 6BC01E   		imull	$30, %eax, %eax
 324 01d1 29C1     		subl	%eax, %ecx
 325 01d3 89C8     		movl	%ecx, %eax
 326 01d5 8945EC   		movl	%eax, -20(%ebp)
 132:src/pdf417/PDFDetectionResultColumn.c **** 		int codewordRowNumber = codewords[i].m_value._rowNumber;
 327              		.loc 1 132 36
 328 01d8 8B55F4   		movl	-12(%ebp), %edx
 329 01db 89D0     		movl	%edx, %eax
 330 01dd 01C0     		addl	%eax, %eax
 331 01df 01D0     		addl	%edx, %eax
 332 01e1 C1E003   		sall	$3, %eax
 333 01e4 89C2     		movl	%eax, %edx
 334 01e6 8B450C   		movl	12(%ebp), %eax
 335 01e9 01D0     		addl	%edx, %eax
 336              		.loc 1 132 7
 337 01eb 8B4014   		movl	20(%eax), %eax
 338 01ee 8945F0   		movl	%eax, -16(%ebp)
 133:src/pdf417/PDFDetectionResultColumn.c **** 		if (codewordRowNumber > rowCount(barcodeMetadata)) 
 339              		.loc 1 133 27
 340 01f1 8B4510   		movl	16(%ebp), %eax
 341 01f4 890424   		movl	%eax, (%esp)
 342 01f7 E8000000 		call	_rowCount
 342      00
 343              		.loc 1 133 6
 344 01fc 3945F0   		cmpl	%eax, -16(%ebp)
 345 01ff 7E20     		jle	L15
 134:src/pdf417/PDFDetectionResultColumn.c **** 		{
 135:src/pdf417/PDFDetectionResultColumn.c **** 			clear_var(codewords+i);
 346              		.loc 1 135 23
 347 0201 8B55F4   		movl	-12(%ebp), %edx
 348 0204 89D0     		movl	%edx, %eax
 349 0206 01C0     		addl	%eax, %eax
 350 0208 01D0     		addl	%edx, %eax
 351 020a C1E003   		sall	$3, %eax
 352 020d 89C2     		movl	%eax, %edx
 353              		.loc 1 135 4
 354 020f 8B450C   		movl	12(%ebp), %eax
 355 0212 01D0     		addl	%edx, %eax
 356 0214 890424   		movl	%eax, (%esp)
 357 0217 E8FCFEFF 		call	_clear_var
 357      FF
 136:src/pdf417/PDFDetectionResultColumn.c **** 			continue;
GAS LISTING C:\Users\jisu8\AppData\Local\Temp\ccIUpqyy.s 			page 10


 358              		.loc 1 136 4
 359 021c E9100100 		jmp	L14
 359      00
 360              	L15:
 137:src/pdf417/PDFDetectionResultColumn.c **** 		}
 138:src/pdf417/PDFDetectionResultColumn.c **** 
 139:src/pdf417/PDFDetectionResultColumn.c **** 		if (!isLeft) 
 361              		.loc 1 139 6
 362 0221 807DE400 		cmpb	$0, -28(%ebp)
 363 0225 7504     		jne	L16
 140:src/pdf417/PDFDetectionResultColumn.c **** 		{
 141:src/pdf417/PDFDetectionResultColumn.c **** 			codewordRowNumber += 2;
 364              		.loc 1 141 22
 365 0227 8345F002 		addl	$2, -16(%ebp)
 366              	L16:
 142:src/pdf417/PDFDetectionResultColumn.c **** 		}
 143:src/pdf417/PDFDetectionResultColumn.c **** 
 144:src/pdf417/PDFDetectionResultColumn.c **** 		switch (codewordRowNumber % 3) 
 367              		.loc 1 144 29
 368 022b 8B4DF0   		movl	-16(%ebp), %ecx
 369 022e BA565555 		movl	$1431655766, %edx
 369      55
 370 0233 89C8     		movl	%ecx, %eax
 371 0235 F7EA     		imull	%edx
 372 0237 89C8     		movl	%ecx, %eax
 373 0239 C1F81F   		sarl	$31, %eax
 374 023c 29C2     		subl	%eax, %edx
 375 023e 89D0     		movl	%edx, %eax
 376 0240 89C2     		movl	%eax, %edx
 377 0242 01D2     		addl	%edx, %edx
 378 0244 01C2     		addl	%eax, %edx
 379 0246 89C8     		movl	%ecx, %eax
 380 0248 29D0     		subl	%edx, %eax
 381 024a 83F801   		cmpl	$1, %eax
 382 024d 744B     		je	L17
 383 024f 83F802   		cmpl	$2, %eax
 384 0252 0F84A300 		je	L18
 384      0000
 385 0258 85C0     		testl	%eax, %eax
 386 025a 0F85D100 		jne	L14
 386      0000
 145:src/pdf417/PDFDetectionResultColumn.c **** 		{
 146:src/pdf417/PDFDetectionResultColumn.c **** 			case 0:
 147:src/pdf417/PDFDetectionResultColumn.c **** 			if (rowIndicatorValue * 3 + 1 != barcodeMetadata->_rowCountUpperPart) 
 387              		.loc 1 147 26
 388 0260 8B55EC   		movl	-20(%ebp), %edx
 389 0263 89D0     		movl	%edx, %eax
 390 0265 01C0     		addl	%eax, %eax
 391 0267 01D0     		addl	%edx, %eax
 392              		.loc 1 147 30
 393 0269 8D5001   		leal	1(%eax), %edx
 394              		.loc 1 147 52
 395 026c 8B4510   		movl	16(%ebp), %eax
 396 026f 8B4008   		movl	8(%eax), %eax
 397              		.loc 1 147 7
 398 0272 39C2     		cmpl	%eax, %edx
 399 0274 0F84B000 		je	L25
GAS LISTING C:\Users\jisu8\AppData\Local\Temp\ccIUpqyy.s 			page 11


 399      0000
 148:src/pdf417/PDFDetectionResultColumn.c **** 			{
 149:src/pdf417/PDFDetectionResultColumn.c **** 				clear_var(codewords+i);
 400              		.loc 1 149 24
 401 027a 8B55F4   		movl	-12(%ebp), %edx
 402 027d 89D0     		movl	%edx, %eax
 403 027f 01C0     		addl	%eax, %eax
 404 0281 01D0     		addl	%edx, %eax
 405 0283 C1E003   		sall	$3, %eax
 406 0286 89C2     		movl	%eax, %edx
 407              		.loc 1 149 5
 408 0288 8B450C   		movl	12(%ebp), %eax
 409 028b 01D0     		addl	%edx, %eax
 410 028d 890424   		movl	%eax, (%esp)
 411 0290 E883FEFF 		call	_clear_var
 411      FF
 150:src/pdf417/PDFDetectionResultColumn.c **** 			}
 151:src/pdf417/PDFDetectionResultColumn.c **** 			break;
 412              		.loc 1 151 4
 413 0295 E9900000 		jmp	L25
 413      00
 414              	L17:
 152:src/pdf417/PDFDetectionResultColumn.c **** 			case 1:
 153:src/pdf417/PDFDetectionResultColumn.c **** 			if (rowIndicatorValue / 3 != barcodeMetadata->_errorCorrectionLevel ||
 415              		.loc 1 153 26
 416 029a 8B4DEC   		movl	-20(%ebp), %ecx
 417 029d BA565555 		movl	$1431655766, %edx
 417      55
 418 02a2 89C8     		movl	%ecx, %eax
 419 02a4 F7EA     		imull	%edx
 420 02a6 89C8     		movl	%ecx, %eax
 421 02a8 C1F81F   		sarl	$31, %eax
 422 02ab 29C2     		subl	%eax, %edx
 423              		.loc 1 153 48
 424 02ad 8B4510   		movl	16(%ebp), %eax
 425 02b0 8B4004   		movl	4(%eax), %eax
 426              		.loc 1 153 7
 427 02b3 39C2     		cmpl	%eax, %edx
 428 02b5 7527     		jne	L20
 154:src/pdf417/PDFDetectionResultColumn.c **** 				rowIndicatorValue % 3 != barcodeMetadata->_rowCountLowerPart) 
 429              		.loc 1 154 23 discriminator 1
 430 02b7 8B4DEC   		movl	-20(%ebp), %ecx
 431 02ba BA565555 		movl	$1431655766, %edx
 431      55
 432 02bf 89C8     		movl	%ecx, %eax
 433 02c1 F7EA     		imull	%edx
 434 02c3 89C8     		movl	%ecx, %eax
 435 02c5 C1F81F   		sarl	$31, %eax
 436 02c8 29C2     		subl	%eax, %edx
 437 02ca 89D0     		movl	%edx, %eax
 438 02cc 01C0     		addl	%eax, %eax
 439 02ce 01D0     		addl	%edx, %eax
 440 02d0 29C1     		subl	%eax, %ecx
 441 02d2 89CA     		movl	%ecx, %edx
 442              		.loc 1 154 45 discriminator 1
 443 02d4 8B4510   		movl	16(%ebp), %eax
 444 02d7 8B400C   		movl	12(%eax), %eax
GAS LISTING C:\Users\jisu8\AppData\Local\Temp\ccIUpqyy.s 			page 12


 153:src/pdf417/PDFDetectionResultColumn.c **** 				rowIndicatorValue % 3 != barcodeMetadata->_rowCountLowerPart) 
 445              		.loc 1 153 72 discriminator 1
 446 02da 39C2     		cmpl	%eax, %edx
 447 02dc 744F     		je	L26
 448              	L20:
 155:src/pdf417/PDFDetectionResultColumn.c **** 			{
 156:src/pdf417/PDFDetectionResultColumn.c **** 				clear_var(codewords+i);
 449              		.loc 1 156 24
 450 02de 8B55F4   		movl	-12(%ebp), %edx
 451 02e1 89D0     		movl	%edx, %eax
 452 02e3 01C0     		addl	%eax, %eax
 453 02e5 01D0     		addl	%edx, %eax
 454 02e7 C1E003   		sall	$3, %eax
 455 02ea 89C2     		movl	%eax, %edx
 456              		.loc 1 156 5
 457 02ec 8B450C   		movl	12(%ebp), %eax
 458 02ef 01D0     		addl	%edx, %eax
 459 02f1 890424   		movl	%eax, (%esp)
 460 02f4 E81FFEFF 		call	_clear_var
 460      FF
 157:src/pdf417/PDFDetectionResultColumn.c **** 			}
 158:src/pdf417/PDFDetectionResultColumn.c **** 			break;
 461              		.loc 1 158 4
 462 02f9 EB32     		jmp	L26
 463              	L18:
 159:src/pdf417/PDFDetectionResultColumn.c **** 			case 2:
 160:src/pdf417/PDFDetectionResultColumn.c **** 			if (rowIndicatorValue + 1 != barcodeMetadata->_columnCount) 
 464              		.loc 1 160 26
 465 02fb 8B45EC   		movl	-20(%ebp), %eax
 466 02fe 8D5001   		leal	1(%eax), %edx
 467              		.loc 1 160 48
 468 0301 8B4510   		movl	16(%ebp), %eax
 469 0304 8B00     		movl	(%eax), %eax
 470              		.loc 1 160 7
 471 0306 39C2     		cmpl	%eax, %edx
 472 0308 7426     		je	L27
 161:src/pdf417/PDFDetectionResultColumn.c **** 			{
 162:src/pdf417/PDFDetectionResultColumn.c **** 				clear_var(codewords+i);
 473              		.loc 1 162 24
 474 030a 8B55F4   		movl	-12(%ebp), %edx
 475 030d 89D0     		movl	%edx, %eax
 476 030f 01C0     		addl	%eax, %eax
 477 0311 01D0     		addl	%edx, %eax
 478 0313 C1E003   		sall	$3, %eax
 479 0316 89C2     		movl	%eax, %edx
 480              		.loc 1 162 5
 481 0318 8B450C   		movl	12(%ebp), %eax
 482 031b 01D0     		addl	%edx, %eax
 483 031d 890424   		movl	%eax, (%esp)
 484 0320 E8F3FDFF 		call	_clear_var
 484      FF
 163:src/pdf417/PDFDetectionResultColumn.c **** 			}
 164:src/pdf417/PDFDetectionResultColumn.c **** 			break;
 485              		.loc 1 164 4
 486 0325 EB09     		jmp	L27
 487              	L24:
 128:src/pdf417/PDFDetectionResultColumn.c **** 		}
GAS LISTING C:\Users\jisu8\AppData\Local\Temp\ccIUpqyy.s 			page 13


 488              		.loc 1 128 4
 489 0327 90       		nop
 490 0328 EB07     		jmp	L14
 491              	L25:
 151:src/pdf417/PDFDetectionResultColumn.c **** 			case 1:
 492              		.loc 1 151 4
 493 032a 90       		nop
 494 032b EB04     		jmp	L14
 495              	L26:
 158:src/pdf417/PDFDetectionResultColumn.c **** 			case 2:
 496              		.loc 1 158 4
 497 032d 90       		nop
 498 032e EB01     		jmp	L14
 499              	L27:
 500              		.loc 1 164 4
 501 0330 90       		nop
 502              	L14:
 503              	LBE4:
 124:src/pdf417/PDFDetectionResultColumn.c **** 	{
 504              		.loc 1 124 25 discriminator 2
 505 0331 8345F401 		addl	$1, -12(%ebp)
 506              	L12:
 124:src/pdf417/PDFDetectionResultColumn.c **** 	{
 507              		.loc 1 124 2 discriminator 1
 508 0335 8B45F4   		movl	-12(%ebp), %eax
 509 0338 3B4514   		cmpl	20(%ebp), %eax
 510 033b 0F8C39FE 		jl	L23
 510      FFFF
 511              	LBE3:
 165:src/pdf417/PDFDetectionResultColumn.c **** 		}
 166:src/pdf417/PDFDetectionResultColumn.c **** 	}
 167:src/pdf417/PDFDetectionResultColumn.c **** 
 168:src/pdf417/PDFDetectionResultColumn.c **** }
 512              		.loc 1 168 1
 513 0341 90       		nop
 514 0342 C9       		leave
 515              	LCFI17:
 516              		.cfi_restore 5
 517              		.cfi_def_cfa 4, 4
 518 0343 C3       		ret
 519              		.cfi_endproc
 520              	LFE9:
 521              		.section .rdata,"dr"
 522              		.align 4
 523              	LC2:
 524 003c 44657465 		.ascii "DetectionResultColumn::adjustIncompleteIndicatorColumnRowNumbers: \0"
 524      6374696F 
 524      6E526573 
 524      756C7443 
 524      6F6C756D 
 525              		.text
 526              		.globl	_adjustIncompleteIndicatorColumnRowNumbers
 528              	_adjustIncompleteIndicatorColumnRowNumbers:
 529              	LFB10:
 169:src/pdf417/PDFDetectionResultColumn.c **** #if 0
 170:src/pdf417/PDFDetectionResultColumn.c **** // TODO implement properly
 171:src/pdf417/PDFDetectionResultColumn.c **** // TODO maybe we should add missing codewords to store the correct row number to make
GAS LISTING C:\Users\jisu8\AppData\Local\Temp\ccIUpqyy.s 			page 14


 172:src/pdf417/PDFDetectionResultColumn.c **** // finding row numbers for other columns easier
 173:src/pdf417/PDFDetectionResultColumn.c **** // use row height count to make detection of invalid row numbers more reliable
 174:src/pdf417/PDFDetectionResultColumn.c **** void
 175:src/pdf417/PDFDetectionResultColumn.c **** DetectionResultColumn::adjustCompleteIndicatorColumnRowNumbers(const BarcodeMetadata& barcodeMetada
 176:src/pdf417/PDFDetectionResultColumn.c **** {
 177:src/pdf417/PDFDetectionResultColumn.c **** #ifdef HK_DEBUG
 178:src/pdf417/PDFDetectionResultColumn.c **** 	printf("DetectionResultColumn::adjustCompleteIndicatorColumnRowNumbers: \n");
 179:src/pdf417/PDFDetectionResultColumn.c **** #endif
 180:src/pdf417/PDFDetectionResultColumn.c **** 	
 181:src/pdf417/PDFDetectionResultColumn.c **** 	if (!isRowIndicator())
 182:src/pdf417/PDFDetectionResultColumn.c **** 	{
 183:src/pdf417/PDFDetectionResultColumn.c **** 		return;
 184:src/pdf417/PDFDetectionResultColumn.c **** 	}
 185:src/pdf417/PDFDetectionResultColumn.c **** 
 186:src/pdf417/PDFDetectionResultColumn.c **** 	auto& codewords = allCodewords();
 187:src/pdf417/PDFDetectionResultColumn.c **** 	setRowNumbers();
 188:src/pdf417/PDFDetectionResultColumn.c **** 	RemoveIncorrectCodewords(isLeftRowIndicator(), codewords, barcodeMetadata);
 189:src/pdf417/PDFDetectionResultColumn.c **** 	const auto& bb = boundingBox();
 190:src/pdf417/PDFDetectionResultColumn.c **** 	auto top = isLeftRowIndicator() ? bb.topLeft() : bb.topRight();
 191:src/pdf417/PDFDetectionResultColumn.c **** 	auto bottom = isLeftRowIndicator() ? bb.bottomLeft() : bb.bottomRight();
 192:src/pdf417/PDFDetectionResultColumn.c **** 	int firstRow = imageRowToCodewordIndex((int)top.value().y());
 193:src/pdf417/PDFDetectionResultColumn.c **** 	int lastRow = imageRowToCodewordIndex((int)bottom.value().y());
 194:src/pdf417/PDFDetectionResultColumn.c **** 	// We need to be careful using the average row height. Barcode could be skewed so that we have sma
 195:src/pdf417/PDFDetectionResultColumn.c **** 	// taller rows
 196:src/pdf417/PDFDetectionResultColumn.c **** 	//float averageRowHeight = (lastRow - firstRow) / (float)barcodeMetadata.rowCount();
 197:src/pdf417/PDFDetectionResultColumn.c **** 	int barcodeRow = -1;
 198:src/pdf417/PDFDetectionResultColumn.c **** 	int maxRowHeight = 1;
 199:src/pdf417/PDFDetectionResultColumn.c **** 	int currentRowHeight = 0;
 200:src/pdf417/PDFDetectionResultColumn.c **** 	int increment = 1;
 201:src/pdf417/PDFDetectionResultColumn.c **** 	for (int codewordsRow = firstRow; codewordsRow < lastRow; codewordsRow++) 
 202:src/pdf417/PDFDetectionResultColumn.c **** 	{
 203:src/pdf417/PDFDetectionResultColumn.c **** 		if (codewords[codewordsRow] == nullptr) 
 204:src/pdf417/PDFDetectionResultColumn.c **** 		{
 205:src/pdf417/PDFDetectionResultColumn.c **** 			continue;
 206:src/pdf417/PDFDetectionResultColumn.c **** 		}
 207:src/pdf417/PDFDetectionResultColumn.c **** 
 208:src/pdf417/PDFDetectionResultColumn.c **** 		Codeword codeword = codewords[codewordsRow];
 209:src/pdf417/PDFDetectionResultColumn.c **** 		if (barcodeRow == -1 && codeword.rowNumber() == barcodeMetadata.rowCount() - 1) 
 210:src/pdf417/PDFDetectionResultColumn.c **** 		{
 211:src/pdf417/PDFDetectionResultColumn.c **** 			increment = -1;
 212:src/pdf417/PDFDetectionResultColumn.c **** 			barcodeRow = barcodeMetadata.rowCount();
 213:src/pdf417/PDFDetectionResultColumn.c **** 		}
 214:src/pdf417/PDFDetectionResultColumn.c **** 		//      float expectedRowNumber = (codewordsRow - firstRow) / averageRowHeight;
 215:src/pdf417/PDFDetectionResultColumn.c **** 		//      if (Math.abs(codeword.getRowNumber() - expectedRowNumber) > 2) {
 216:src/pdf417/PDFDetectionResultColumn.c **** 		//        SimpleLog.log(LEVEL.WARNING,
 217:src/pdf417/PDFDetectionResultColumn.c **** 		//            "Removing codeword, rowNumberSkew too high, codeword[" + codewordsRow + "]: Expecte
 218:src/pdf417/PDFDetectionResultColumn.c **** 		//                expectedRowNumber + ", RealRow: " + codeword.getRowNumber() + ", value: " + cod
 219:src/pdf417/PDFDetectionResultColumn.c **** 		//        codewords[codewordsRow] = null;
 220:src/pdf417/PDFDetectionResultColumn.c **** 		//      }
 221:src/pdf417/PDFDetectionResultColumn.c **** 
 222:src/pdf417/PDFDetectionResultColumn.c **** 		int rowDifference = codeword.rowNumber() - barcodeRow;
 223:src/pdf417/PDFDetectionResultColumn.c **** 
 224:src/pdf417/PDFDetectionResultColumn.c **** 		if (rowDifference == 0) 
 225:src/pdf417/PDFDetectionResultColumn.c **** 		{
 226:src/pdf417/PDFDetectionResultColumn.c **** 			currentRowHeight++;
 227:src/pdf417/PDFDetectionResultColumn.c **** 		}
 228:src/pdf417/PDFDetectionResultColumn.c **** 		else 
GAS LISTING C:\Users\jisu8\AppData\Local\Temp\ccIUpqyy.s 			page 15


 229:src/pdf417/PDFDetectionResultColumn.c **** 		if (rowDifference == increment) 
 230:src/pdf417/PDFDetectionResultColumn.c **** 		{
 231:src/pdf417/PDFDetectionResultColumn.c **** 			maxRowHeight = std::max(maxRowHeight, currentRowHeight);
 232:src/pdf417/PDFDetectionResultColumn.c **** 			currentRowHeight = 1;
 233:src/pdf417/PDFDetectionResultColumn.c **** 			barcodeRow = codeword.rowNumber();
 234:src/pdf417/PDFDetectionResultColumn.c **** 		}
 235:src/pdf417/PDFDetectionResultColumn.c **** 		else 
 236:src/pdf417/PDFDetectionResultColumn.c **** 		if (rowDifference < 0 || codeword.rowNumber() >= barcodeMetadata.rowCount() ||
 237:src/pdf417/PDFDetectionResultColumn.c **** 			rowDifference > codewordsRow) 
 238:src/pdf417/PDFDetectionResultColumn.c **** 		{
 239:src/pdf417/PDFDetectionResultColumn.c **** 			codewords[codewordsRow] = nullptr;
 240:src/pdf417/PDFDetectionResultColumn.c **** 		}
 241:src/pdf417/PDFDetectionResultColumn.c **** 		else 
 242:src/pdf417/PDFDetectionResultColumn.c **** 		{
 243:src/pdf417/PDFDetectionResultColumn.c **** 			int checkedRows;
 244:src/pdf417/PDFDetectionResultColumn.c **** 			if (maxRowHeight > 2) 
 245:src/pdf417/PDFDetectionResultColumn.c **** 			{
 246:src/pdf417/PDFDetectionResultColumn.c **** 				checkedRows = (maxRowHeight - 2) * rowDifference;
 247:src/pdf417/PDFDetectionResultColumn.c **** 			}
 248:src/pdf417/PDFDetectionResultColumn.c **** 			else 
 249:src/pdf417/PDFDetectionResultColumn.c **** 			{
 250:src/pdf417/PDFDetectionResultColumn.c **** 				checkedRows = rowDifference;
 251:src/pdf417/PDFDetectionResultColumn.c **** 			}
 252:src/pdf417/PDFDetectionResultColumn.c **** 
 253:src/pdf417/PDFDetectionResultColumn.c **** 			bool closePreviousCodewordFound = checkedRows >= codewordsRow;
 254:src/pdf417/PDFDetectionResultColumn.c **** 			for (int i = 1; i <= checkedRows && !closePreviousCodewordFound; i++) 
 255:src/pdf417/PDFDetectionResultColumn.c **** 			{
 256:src/pdf417/PDFDetectionResultColumn.c **** 				// there must be (height * rowDifference) number of codewords missing. For now we assume height
 257:src/pdf417/PDFDetectionResultColumn.c **** 				// This should hopefully get rid of most problems already.
 258:src/pdf417/PDFDetectionResultColumn.c **** 				closePreviousCodewordFound = codewords[codewordsRow - i] != nullptr;
 259:src/pdf417/PDFDetectionResultColumn.c **** 			}
 260:src/pdf417/PDFDetectionResultColumn.c **** 
 261:src/pdf417/PDFDetectionResultColumn.c **** 			if (closePreviousCodewordFound) 
 262:src/pdf417/PDFDetectionResultColumn.c **** 			{
 263:src/pdf417/PDFDetectionResultColumn.c **** 				codewords[codewordsRow] = nullptr;
 264:src/pdf417/PDFDetectionResultColumn.c **** 			}
 265:src/pdf417/PDFDetectionResultColumn.c **** 			else 
 266:src/pdf417/PDFDetectionResultColumn.c **** 			{
 267:src/pdf417/PDFDetectionResultColumn.c **** 				barcodeRow = codeword.rowNumber();
 268:src/pdf417/PDFDetectionResultColumn.c **** 				currentRowHeight = 1;
 269:src/pdf417/PDFDetectionResultColumn.c **** 			}
 270:src/pdf417/PDFDetectionResultColumn.c **** 		}
 271:src/pdf417/PDFDetectionResultColumn.c **** 	}
 272:src/pdf417/PDFDetectionResultColumn.c **** 	//return static_cast<int>(averageRowHeight + 0.5);
 273:src/pdf417/PDFDetectionResultColumn.c **** }
 274:src/pdf417/PDFDetectionResultColumn.c **** 
 275:src/pdf417/PDFDetectionResultColumn.c **** #endif
 276:src/pdf417/PDFDetectionResultColumn.c **** // TODO maybe we should add missing codewords to store the correct row number to make
 277:src/pdf417/PDFDetectionResultColumn.c **** // finding row numbers for other columns easier
 278:src/pdf417/PDFDetectionResultColumn.c **** // use row height count to make detection of invalid row numbers more reliable
 279:src/pdf417/PDFDetectionResultColumn.c **** void adjustIncompleteIndicatorColumnRowNumbers(DetectionResultColumn_t * rowIndicatorColumn , const
 280:src/pdf417/PDFDetectionResultColumn.c **** {
 530              		.loc 1 280 1
 531              		.cfi_startproc
 532 0344 55       		pushl	%ebp
 533              	LCFI18:
 534              		.cfi_def_cfa_offset 8
GAS LISTING C:\Users\jisu8\AppData\Local\Temp\ccIUpqyy.s 			page 16


 535              		.cfi_offset 5, -8
 536 0345 89E5     		movl	%esp, %ebp
 537              	LCFI19:
 538              		.cfi_def_cfa_register 5
 539 0347 57       		pushl	%edi
 540 0348 56       		pushl	%esi
 541 0349 53       		pushl	%ebx
 542 034a 81ECBC00 		subl	$188, %esp
 542      0000
 543              		.cfi_offset 7, -12
 544              		.cfi_offset 6, -16
 545              		.cfi_offset 3, -20
 281:src/pdf417/PDFDetectionResultColumn.c **** 
 282:src/pdf417/PDFDetectionResultColumn.c **** 	printf("DetectionResultColumn::adjustIncompleteIndicatorColumnRowNumbers: \n");
 546              		.loc 1 282 2
 547 0350 C704243C 		movl	$LC2, (%esp)
 547      000000
 548 0357 E8000000 		call	_puts
 548      00
 283:src/pdf417/PDFDetectionResultColumn.c **** 	
 284:src/pdf417/PDFDetectionResultColumn.c **** 	if (!isRowIndicator(rowIndicatorColumn))
 549              		.loc 1 284 7
 550 035c 8B4508   		movl	8(%ebp), %eax
 551 035f 890424   		movl	%eax, (%esp)
 552 0362 E88AFDFF 		call	_isRowIndicator
 552      FF
 553              		.loc 1 284 5
 554 0367 84C0     		testb	%al, %al
 555 0369 0F843402 		je	L42
 555      0000
 285:src/pdf417/PDFDetectionResultColumn.c **** 	{
 286:src/pdf417/PDFDetectionResultColumn.c **** 		return;
 287:src/pdf417/PDFDetectionResultColumn.c **** 	}
 288:src/pdf417/PDFDetectionResultColumn.c **** 
 289:src/pdf417/PDFDetectionResultColumn.c **** 	const BoundingBox_t bb = rowIndicatorColumn->m_value._boundingBox;
 556              		.loc 1 289 22
 557 036f 8B5508   		movl	8(%ebp), %edx
 558 0372 8D857CFF 		leal	-132(%ebp), %eax
 558      FFFF
 559 0378 83C204   		addl	$4, %edx
 560 037b B9130000 		movl	$19, %ecx
 560      00
 561 0380 89C7     		movl	%eax, %edi
 562 0382 89D6     		movl	%edx, %esi
 563 0384 F3A5     		rep movsl
 290:src/pdf417/PDFDetectionResultColumn.c **** 	ResultPoint_t top = isLeftRowIndicator(rowIndicatorColumn) ? topLeft(&bb) : topRight(&bb);
 564              		.loc 1 290 22
 565 0386 8B4508   		movl	8(%ebp), %eax
 566 0389 890424   		movl	%eax, (%esp)
 567 038c E873FDFF 		call	_isLeftRowIndicator
 567      FF
 568              		.loc 1 290 16
 569 0391 84C0     		testb	%al, %al
 570 0393 741A     		je	L31
 571              		.loc 1 290 63 discriminator 1
 572 0395 8D8570FF 		leal	-144(%ebp), %eax
 572      FFFF
GAS LISTING C:\Users\jisu8\AppData\Local\Temp\ccIUpqyy.s 			page 17


 573 039b 8D957CFF 		leal	-132(%ebp), %edx
 573      FFFF
 574 03a1 89542404 		movl	%edx, 4(%esp)
 575 03a5 890424   		movl	%eax, (%esp)
 576 03a8 E8000000 		call	_topLeft
 576      00
 577 03ad EB18     		jmp	L32
 578              	L31:
 579              		.loc 1 290 78 discriminator 2
 580 03af 8D8570FF 		leal	-144(%ebp), %eax
 580      FFFF
 581 03b5 8D957CFF 		leal	-132(%ebp), %edx
 581      FFFF
 582 03bb 89542404 		movl	%edx, 4(%esp)
 583 03bf 890424   		movl	%eax, (%esp)
 584 03c2 E8000000 		call	_topRight
 584      00
 585              	L32:
 291:src/pdf417/PDFDetectionResultColumn.c **** 	ResultPoint_t bottom = isLeftRowIndicator(rowIndicatorColumn) ? bottomLeft(&bb) : bottomRight(&bb)
 586              		.loc 1 291 25
 587 03c7 8B4508   		movl	8(%ebp), %eax
 588 03ca 890424   		movl	%eax, (%esp)
 589 03cd E832FDFF 		call	_isLeftRowIndicator
 589      FF
 590              		.loc 1 291 16
 591 03d2 84C0     		testb	%al, %al
 592 03d4 741A     		je	L33
 593              		.loc 1 291 66 discriminator 1
 594 03d6 8D8564FF 		leal	-156(%ebp), %eax
 594      FFFF
 595 03dc 8D957CFF 		leal	-132(%ebp), %edx
 595      FFFF
 596 03e2 89542404 		movl	%edx, 4(%esp)
 597 03e6 890424   		movl	%eax, (%esp)
 598 03e9 E8000000 		call	_bottomLeft
 598      00
 599 03ee EB18     		jmp	L34
 600              	L33:
 601              		.loc 1 291 84 discriminator 2
 602 03f0 8D8564FF 		leal	-156(%ebp), %eax
 602      FFFF
 603 03f6 8D957CFF 		leal	-132(%ebp), %edx
 603      FFFF
 604 03fc 89542404 		movl	%edx, 4(%esp)
 605 0400 890424   		movl	%eax, (%esp)
 606 0403 E8000000 		call	_bottomRight
 606      00
 607              	L34:
 292:src/pdf417/PDFDetectionResultColumn.c **** 	int firstRow = (int)top.m_value.y - bb.m_value._minY;
 608              		.loc 1 292 33
 609 0408 D98578FF 		flds	-136(%ebp)
 609      FFFF
 610              		.loc 1 292 17
 611 040e D9BD56FF 		fnstcw	-170(%ebp)
 611      FFFF
 612 0414 0FB78556 		movzwl	-170(%ebp), %eax
 612      FFFFFF
GAS LISTING C:\Users\jisu8\AppData\Local\Temp\ccIUpqyy.s 			page 18


 613 041b 80CC0C   		orb	$12, %ah
 614 041e 66898554 		movw	%ax, -172(%ebp)
 614      FFFFFF
 615 0425 D9AD54FF 		fldcw	-172(%ebp)
 615      FFFF
 616 042b DB9D50FF 		fistpl	-176(%ebp)
 616      FFFF
 617 0431 D9AD56FF 		fldcw	-170(%ebp)
 617      FFFF
 618 0437 8B9550FF 		movl	-176(%ebp), %edx
 618      FFFF
 619              		.loc 1 292 48
 620 043d 8B45C0   		movl	-64(%ebp), %eax
 621              		.loc 1 292 6
 622 0440 29C2     		subl	%eax, %edx
 623 0442 89D0     		movl	%edx, %eax
 624 0444 8945D4   		movl	%eax, -44(%ebp)
 293:src/pdf417/PDFDetectionResultColumn.c **** 	int lastRow = (int)bottom.m_value.y - bb.m_value._minY;
 625              		.loc 1 293 35
 626 0447 D9856CFF 		flds	-148(%ebp)
 626      FFFF
 627              		.loc 1 293 16
 628 044d D9AD54FF 		fldcw	-172(%ebp)
 628      FFFF
 629 0453 DB9D50FF 		fistpl	-176(%ebp)
 629      FFFF
 630 0459 D9AD56FF 		fldcw	-170(%ebp)
 630      FFFF
 631 045f 8B9550FF 		movl	-176(%ebp), %edx
 631      FFFF
 632              		.loc 1 293 50
 633 0465 8B45C0   		movl	-64(%ebp), %eax
 634              		.loc 1 293 6
 635 0468 29C2     		subl	%eax, %edx
 636 046a 89D0     		movl	%edx, %eax
 637 046c 8945D0   		movl	%eax, -48(%ebp)
 294:src/pdf417/PDFDetectionResultColumn.c **** 	Codeword_t * codewords = rowIndicatorColumn->m_value._codewords;
 638              		.loc 1 294 15
 639 046f 8B4508   		movl	8(%ebp), %eax
 640 0472 83C050   		addl	$80, %eax
 641 0475 8945CC   		movl	%eax, -52(%ebp)
 295:src/pdf417/PDFDetectionResultColumn.c **** 	int barcodeRow = -1;
 642              		.loc 1 295 6
 643 0478 C745E4FF 		movl	$-1, -28(%ebp)
 643      FFFFFF
 296:src/pdf417/PDFDetectionResultColumn.c **** 	int maxRowHeight = 1;
 644              		.loc 1 296 6
 645 047f C745E001 		movl	$1, -32(%ebp)
 645      000000
 297:src/pdf417/PDFDetectionResultColumn.c **** 	int currentRowHeight = 0;
 646              		.loc 1 297 6
 647 0486 C745DC00 		movl	$0, -36(%ebp)
 647      000000
 648              	LBB5:
 298:src/pdf417/PDFDetectionResultColumn.c **** 	for (int codewordsRow = firstRow; codewordsRow < lastRow; codewordsRow++) 
 649              		.loc 1 298 11
 650 048d 8B45D4   		movl	-44(%ebp), %eax
GAS LISTING C:\Users\jisu8\AppData\Local\Temp\ccIUpqyy.s 			page 19


 651 0490 8945D8   		movl	%eax, -40(%ebp)
 652              		.loc 1 298 2
 653 0493 E9FD0000 		jmp	L35
 653      00
 654              	L41:
 655              	LBB6:
 299:src/pdf417/PDFDetectionResultColumn.c **** 	{
 300:src/pdf417/PDFDetectionResultColumn.c **** 		if (codewords[codewordsRow].m_hasValue == 0) 
 656              		.loc 1 300 16
 657 0498 8B55D8   		movl	-40(%ebp), %edx
 658 049b 89D0     		movl	%edx, %eax
 659 049d 01C0     		addl	%eax, %eax
 660 049f 01D0     		addl	%edx, %eax
 661 04a1 C1E003   		sall	$3, %eax
 662 04a4 89C2     		movl	%eax, %edx
 663 04a6 8B45CC   		movl	-52(%ebp), %eax
 664 04a9 01D0     		addl	%edx, %eax
 665              		.loc 1 300 30
 666 04ab 0FB600   		movzbl	(%eax), %eax
 667              		.loc 1 300 6
 668 04ae 84C0     		testb	%al, %al
 669 04b0 0F84DA00 		je	L43
 669      0000
 301:src/pdf417/PDFDetectionResultColumn.c **** 		{
 302:src/pdf417/PDFDetectionResultColumn.c **** 			continue;
 303:src/pdf417/PDFDetectionResultColumn.c **** 		}
 304:src/pdf417/PDFDetectionResultColumn.c **** 
 305:src/pdf417/PDFDetectionResultColumn.c **** 		setRowNumberAsRowIndicatorColumn(codewords+codewordsRow);
 670              		.loc 1 305 45
 671 04b6 8B55D8   		movl	-40(%ebp), %edx
 672 04b9 89D0     		movl	%edx, %eax
 673 04bb 01C0     		addl	%eax, %eax
 674 04bd 01D0     		addl	%edx, %eax
 675 04bf C1E003   		sall	$3, %eax
 676 04c2 89C2     		movl	%eax, %edx
 677              		.loc 1 305 3
 678 04c4 8B45CC   		movl	-52(%ebp), %eax
 679 04c7 01D0     		addl	%edx, %eax
 680 04c9 890424   		movl	%eax, (%esp)
 681 04cc E8430200 		call	_setRowNumberAsRowIndicatorColumn
 681      00
 306:src/pdf417/PDFDetectionResultColumn.c **** 
 307:src/pdf417/PDFDetectionResultColumn.c **** 		int rowDifference = codewords[codewordsRow].m_value._rowNumber - barcodeRow;
 682              		.loc 1 307 32
 683 04d1 8B55D8   		movl	-40(%ebp), %edx
 684 04d4 89D0     		movl	%edx, %eax
 685 04d6 01C0     		addl	%eax, %eax
 686 04d8 01D0     		addl	%edx, %eax
 687 04da C1E003   		sall	$3, %eax
 688 04dd 89C2     		movl	%eax, %edx
 689 04df 8B45CC   		movl	-52(%ebp), %eax
 690 04e2 01D0     		addl	%edx, %eax
 691              		.loc 1 307 54
 692 04e4 8B4014   		movl	20(%eax), %eax
 693              		.loc 1 307 7
 694 04e7 2B45E4   		subl	-28(%ebp), %eax
 695 04ea 8945C8   		movl	%eax, -56(%ebp)
GAS LISTING C:\Users\jisu8\AppData\Local\Temp\ccIUpqyy.s 			page 20


 308:src/pdf417/PDFDetectionResultColumn.c **** 
 309:src/pdf417/PDFDetectionResultColumn.c **** 		// TODO improve handling with case where first row indicator doesn't start with 0
 310:src/pdf417/PDFDetectionResultColumn.c **** 
 311:src/pdf417/PDFDetectionResultColumn.c **** 		if (rowDifference == 0) 
 696              		.loc 1 311 6
 697 04ed 837DC800 		cmpl	$0, -56(%ebp)
 698 04f1 7509     		jne	L38
 312:src/pdf417/PDFDetectionResultColumn.c **** 		{
 313:src/pdf417/PDFDetectionResultColumn.c **** 			currentRowHeight++;
 699              		.loc 1 313 20
 700 04f3 8345DC01 		addl	$1, -36(%ebp)
 701 04f7 E9950000 		jmp	L37
 701      00
 702              	L38:
 314:src/pdf417/PDFDetectionResultColumn.c **** 		}
 315:src/pdf417/PDFDetectionResultColumn.c **** 		else if (rowDifference == 1) 
 703              		.loc 1 315 11
 704 04fc 837DC801 		cmpl	$1, -56(%ebp)
 705 0500 752F     		jne	L39
 316:src/pdf417/PDFDetectionResultColumn.c **** 		{
 317:src/pdf417/PDFDetectionResultColumn.c **** 			maxRowHeight = __max(maxRowHeight, currentRowHeight);
 706              		.loc 1 317 17
 707 0502 8B45E0   		movl	-32(%ebp), %eax
 708 0505 3945DC   		cmpl	%eax, -36(%ebp)
 709 0508 0F4D45DC 		cmovge	-36(%ebp), %eax
 710 050c 8945E0   		movl	%eax, -32(%ebp)
 318:src/pdf417/PDFDetectionResultColumn.c **** 			currentRowHeight = 1;
 711              		.loc 1 318 21
 712 050f C745DC01 		movl	$1, -36(%ebp)
 712      000000
 319:src/pdf417/PDFDetectionResultColumn.c **** 			barcodeRow = codewords[codewordsRow].m_value._rowNumber;
 713              		.loc 1 319 26
 714 0516 8B55D8   		movl	-40(%ebp), %edx
 715 0519 89D0     		movl	%edx, %eax
 716 051b 01C0     		addl	%eax, %eax
 717 051d 01D0     		addl	%edx, %eax
 718 051f C1E003   		sall	$3, %eax
 719 0522 89C2     		movl	%eax, %edx
 720 0524 8B45CC   		movl	-52(%ebp), %eax
 721 0527 01D0     		addl	%edx, %eax
 722              		.loc 1 319 15
 723 0529 8B4014   		movl	20(%eax), %eax
 724 052c 8945E4   		movl	%eax, -28(%ebp)
 725 052f EB60     		jmp	L37
 726              	L39:
 320:src/pdf417/PDFDetectionResultColumn.c **** 		}
 321:src/pdf417/PDFDetectionResultColumn.c **** 		else if (codewords[codewordsRow].m_value._rowNumber >= rowCount(barcodeMetadata)) 
 727              		.loc 1 321 21
 728 0531 8B55D8   		movl	-40(%ebp), %edx
 729 0534 89D0     		movl	%edx, %eax
 730 0536 01C0     		addl	%eax, %eax
 731 0538 01D0     		addl	%edx, %eax
 732 053a C1E003   		sall	$3, %eax
 733 053d 89C2     		movl	%eax, %edx
 734 053f 8B45CC   		movl	-52(%ebp), %eax
 735 0542 01D0     		addl	%edx, %eax
 736              		.loc 1 321 43
GAS LISTING C:\Users\jisu8\AppData\Local\Temp\ccIUpqyy.s 			page 21


 737 0544 8B5814   		movl	20(%eax), %ebx
 738              		.loc 1 321 58
 739 0547 8B450C   		movl	12(%ebp), %eax
 740 054a 890424   		movl	%eax, (%esp)
 741 054d E8000000 		call	_rowCount
 741      00
 742              		.loc 1 321 11
 743 0552 39C3     		cmpl	%eax, %ebx
 744 0554 7C18     		jl	L40
 322:src/pdf417/PDFDetectionResultColumn.c **** 		{
 323:src/pdf417/PDFDetectionResultColumn.c **** 			codewords[codewordsRow].m_hasValue = 0;
 745              		.loc 1 323 13
 746 0556 8B55D8   		movl	-40(%ebp), %edx
 747 0559 89D0     		movl	%edx, %eax
 748 055b 01C0     		addl	%eax, %eax
 749 055d 01D0     		addl	%edx, %eax
 750 055f C1E003   		sall	$3, %eax
 751 0562 89C2     		movl	%eax, %edx
 752 0564 8B45CC   		movl	-52(%ebp), %eax
 753 0567 01D0     		addl	%edx, %eax
 754              		.loc 1 323 39
 755 0569 C60000   		movb	$0, (%eax)
 756 056c EB23     		jmp	L37
 757              	L40:
 324:src/pdf417/PDFDetectionResultColumn.c **** 		}
 325:src/pdf417/PDFDetectionResultColumn.c **** 		else 
 326:src/pdf417/PDFDetectionResultColumn.c **** 		{
 327:src/pdf417/PDFDetectionResultColumn.c **** 			barcodeRow = codewords[codewordsRow].m_value._rowNumber;
 758              		.loc 1 327 26
 759 056e 8B55D8   		movl	-40(%ebp), %edx
 760 0571 89D0     		movl	%edx, %eax
 761 0573 01C0     		addl	%eax, %eax
 762 0575 01D0     		addl	%edx, %eax
 763 0577 C1E003   		sall	$3, %eax
 764 057a 89C2     		movl	%eax, %edx
 765 057c 8B45CC   		movl	-52(%ebp), %eax
 766 057f 01D0     		addl	%edx, %eax
 767              		.loc 1 327 15
 768 0581 8B4014   		movl	20(%eax), %eax
 769 0584 8945E4   		movl	%eax, -28(%ebp)
 328:src/pdf417/PDFDetectionResultColumn.c **** 			currentRowHeight = 1;
 770              		.loc 1 328 21
 771 0587 C745DC01 		movl	$1, -36(%ebp)
 771      000000
 772 058e EB01     		jmp	L37
 773              	L43:
 302:src/pdf417/PDFDetectionResultColumn.c **** 		}
 774              		.loc 1 302 4
 775 0590 90       		nop
 776              	L37:
 777              	LBE6:
 298:src/pdf417/PDFDetectionResultColumn.c **** 	{
 778              		.loc 1 298 72 discriminator 2
 779 0591 8345D801 		addl	$1, -40(%ebp)
 780              	L35:
 298:src/pdf417/PDFDetectionResultColumn.c **** 	{
 781              		.loc 1 298 2 discriminator 1
GAS LISTING C:\Users\jisu8\AppData\Local\Temp\ccIUpqyy.s 			page 22


 782 0595 8B45D8   		movl	-40(%ebp), %eax
 783 0598 3B45D0   		cmpl	-48(%ebp), %eax
 784 059b 0F8CF7FE 		jl	L41
 784      FFFF
 785 05a1 EB01     		jmp	L44
 786              	L42:
 787              	LBE5:
 286:src/pdf417/PDFDetectionResultColumn.c **** 	}
 788              		.loc 1 286 3
 789 05a3 90       		nop
 790              	L44:
 329:src/pdf417/PDFDetectionResultColumn.c **** 		}
 330:src/pdf417/PDFDetectionResultColumn.c **** 	}
 331:src/pdf417/PDFDetectionResultColumn.c **** }
 791              		.loc 1 331 1
 792 05a4 81C4BC00 		addl	$188, %esp
 792      0000
 793 05aa 5B       		popl	%ebx
 794              		.cfi_restore 3
 795 05ab 5E       		popl	%esi
 796              		.cfi_restore 6
 797 05ac 5F       		popl	%edi
 798              		.cfi_restore 7
 799 05ad 5D       		popl	%ebp
 800              	LCFI20:
 801              		.cfi_restore 5
 802              		.cfi_def_cfa 4, 4
 803 05ae C3       		ret
 804              		.cfi_endproc
 805              	LFE10:
 806              		.section .rdata,"dr"
 807 007f 00       		.align 4
 808              	LC4:
 809 0080 44657465 		.ascii "DetectionResultColumn::getRowHeights : \0"
 809      6374696F 
 809      6E526573 
 809      756C7443 
 809      6F6C756D 
 810              		.text
 811              		.globl	_getRowHeights
 813              	_getRowHeights:
 814              	LFB11:
 332:src/pdf417/PDFDetectionResultColumn.c **** 
 333:src/pdf417/PDFDetectionResultColumn.c **** // This is example of bad design, a getter should not modify object's state
 334:src/pdf417/PDFDetectionResultColumn.c **** uint8_t getRowHeights(DetectionResultColumn_t * rowIndicatorColumn,int * result,int length,int * si
 335:src/pdf417/PDFDetectionResultColumn.c **** {
 815              		.loc 1 335 1
 816              		.cfi_startproc
 817 05af 55       		pushl	%ebp
 818              	LCFI21:
 819              		.cfi_def_cfa_offset 8
 820              		.cfi_offset 5, -8
 821 05b0 89E5     		movl	%esp, %ebp
 822              	LCFI22:
 823              		.cfi_def_cfa_register 5
 824 05b2 53       		pushl	%ebx
 825 05b3 83EC44   		subl	$68, %esp
GAS LISTING C:\Users\jisu8\AppData\Local\Temp\ccIUpqyy.s 			page 23


 826              		.cfi_offset 3, -12
 827              		.loc 1 335 1
 828 05b6 89E0     		movl	%esp, %eax
 829 05b8 89C3     		movl	%eax, %ebx
 336:src/pdf417/PDFDetectionResultColumn.c **** 
 337:src/pdf417/PDFDetectionResultColumn.c **** 	printf("DetectionResultColumn::getRowHeights : \n");
 830              		.loc 1 337 2
 831 05ba C7042480 		movl	$LC4, (%esp)
 831      000000
 832 05c1 E8000000 		call	_puts
 832      00
 338:src/pdf417/PDFDetectionResultColumn.c **** 
 339:src/pdf417/PDFDetectionResultColumn.c **** 	BarcodeMetadata_t barcodeMetadata;
 340:src/pdf417/PDFDetectionResultColumn.c **** 
 341:src/pdf417/PDFDetectionResultColumn.c **** 	if (!getBarcodeMetadata(rowIndicatorColumn,&barcodeMetadata,length)) 
 833              		.loc 1 341 7
 834 05c6 8B4510   		movl	16(%ebp), %eax
 835 05c9 89442408 		movl	%eax, 8(%esp)
 836 05cd 8D45C8   		leal	-56(%ebp), %eax
 837 05d0 89442404 		movl	%eax, 4(%esp)
 838 05d4 8B4508   		movl	8(%ebp), %eax
 839 05d7 890424   		movl	%eax, (%esp)
 840 05da E8830100 		call	_getBarcodeMetadata
 840      00
 841              		.loc 1 341 5
 842 05df 84C0     		testb	%al, %al
 843 05e1 750A     		jne	L46
 342:src/pdf417/PDFDetectionResultColumn.c **** 	{
 343:src/pdf417/PDFDetectionResultColumn.c **** 		return 0;
 844              		.loc 1 343 10
 845 05e3 B8000000 		movl	$0, %eax
 845      00
 846 05e8 E9200100 		jmp	L47
 846      00
 847              	L46:
 344:src/pdf417/PDFDetectionResultColumn.c **** 	}
 345:src/pdf417/PDFDetectionResultColumn.c **** 
 346:src/pdf417/PDFDetectionResultColumn.c **** 	adjustIncompleteIndicatorColumnRowNumbers(rowIndicatorColumn,&barcodeMetadata);
 848              		.loc 1 346 2
 849 05ed 8D45C8   		leal	-56(%ebp), %eax
 850 05f0 89442404 		movl	%eax, 4(%esp)
 851 05f4 8B4508   		movl	8(%ebp), %eax
 852 05f7 890424   		movl	%eax, (%esp)
 853 05fa E845FDFF 		call	_adjustIncompleteIndicatorColumnRowNumbers
 853      FF
 347:src/pdf417/PDFDetectionResultColumn.c **** 
 348:src/pdf417/PDFDetectionResultColumn.c **** 	int sizeRow = rowCount(&barcodeMetadata);
 854              		.loc 1 348 16
 855 05ff 8D45C8   		leal	-56(%ebp), %eax
 856 0602 890424   		movl	%eax, (%esp)
 857 0605 E8000000 		call	_rowCount
 857      00
 858 060a 8945EC   		movl	%eax, -20(%ebp)
 349:src/pdf417/PDFDetectionResultColumn.c **** 	int ret[sizeRow];
 859              		.loc 1 349 2
 860 060d 8B45EC   		movl	-20(%ebp), %eax
 861              		.loc 1 349 6
GAS LISTING C:\Users\jisu8\AppData\Local\Temp\ccIUpqyy.s 			page 24


 862 0610 8D50FF   		leal	-1(%eax), %edx
 863 0613 8955E8   		movl	%edx, -24(%ebp)
 864 0616 8D148500 		leal	0(,%eax,4), %edx
 864      000000
 865 061d B8100000 		movl	$16, %eax
 865      00
 866 0622 83E801   		subl	$1, %eax
 867 0625 01D0     		addl	%edx, %eax
 868 0627 B9100000 		movl	$16, %ecx
 868      00
 869 062c BA000000 		movl	$0, %edx
 869      00
 870 0631 F7F1     		divl	%ecx
 871 0633 6BC010   		imull	$16, %eax, %eax
 872 0636 E8000000 		call	___chkstk_ms
 872      00
 873 063b 29C4     		subl	%eax, %esp
 874 063d 8D44240C 		leal	12(%esp), %eax
 875 0641 83C003   		addl	$3, %eax
 876 0644 C1E802   		shrl	$2, %eax
 877 0647 C1E002   		sall	$2, %eax
 878 064a 8945E4   		movl	%eax, -28(%ebp)
 350:src/pdf417/PDFDetectionResultColumn.c **** 	fill(sizeRow,ret,0);
 879              		.loc 1 350 2
 880 064d 8B45E4   		movl	-28(%ebp), %eax
 881 0650 C7442408 		movl	$0, 8(%esp)
 881      00000000 
 882 0658 89442404 		movl	%eax, 4(%esp)
 883 065c 8B45EC   		movl	-20(%ebp), %eax
 884 065f 890424   		movl	%eax, (%esp)
 885 0662 E8000000 		call	_fill
 885      00
 886              	LBB7:
 351:src/pdf417/PDFDetectionResultColumn.c **** 	for (int i=0;i<length;i++) 
 887              		.loc 1 351 11
 888 0667 C745F000 		movl	$0, -16(%ebp)
 888      000000
 889              		.loc 1 351 2
 890 066e EB58     		jmp	L48
 891              	L51:
 892              	LBB8:
 352:src/pdf417/PDFDetectionResultColumn.c **** 	{
 353:src/pdf417/PDFDetectionResultColumn.c **** 		Codeword_t * item = (rowIndicatorColumn->m_value._codewords+i);
 893              		.loc 1 353 24
 894 0670 8B4508   		movl	8(%ebp), %eax
 895 0673 8D4850   		leal	80(%eax), %ecx
 896              		.loc 1 353 62
 897 0676 8B55F0   		movl	-16(%ebp), %edx
 898 0679 89D0     		movl	%edx, %eax
 899 067b 01C0     		addl	%eax, %eax
 900 067d 01D0     		addl	%edx, %eax
 901 067f C1E003   		sall	$3, %eax
 902              		.loc 1 353 16
 903 0682 01C8     		addl	%ecx, %eax
 904 0684 8945E0   		movl	%eax, -32(%ebp)
 354:src/pdf417/PDFDetectionResultColumn.c **** 		if (item->m_hasValue != 0) 
 905              		.loc 1 354 11
GAS LISTING C:\Users\jisu8\AppData\Local\Temp\ccIUpqyy.s 			page 25


 906 0687 8B45E0   		movl	-32(%ebp), %eax
 907 068a 0FB600   		movzbl	(%eax), %eax
 908              		.loc 1 354 6
 909 068d 84C0     		testb	%al, %al
 910 068f 7433     		je	L49
 911              	LBB9:
 355:src/pdf417/PDFDetectionResultColumn.c **** 		{
 356:src/pdf417/PDFDetectionResultColumn.c **** 			uint64_t rowNumber = item->m_value._rowNumber;
 912              		.loc 1 356 38
 913 0691 8B45E0   		movl	-32(%ebp), %eax
 914 0694 8B4014   		movl	20(%eax), %eax
 915              		.loc 1 356 13
 916 0697 99       		cltd
 917 0698 8945D8   		movl	%eax, -40(%ebp)
 918 069b 8955DC   		movl	%edx, -36(%ebp)
 357:src/pdf417/PDFDetectionResultColumn.c **** 			if (rowNumber >= sizeRow) 
 919              		.loc 1 357 18
 920 069e 8B45EC   		movl	-20(%ebp), %eax
 921 06a1 99       		cltd
 922              		.loc 1 357 7
 923 06a2 8B4DDC   		movl	-36(%ebp), %ecx
 924 06a5 3945D8   		cmpl	%eax, -40(%ebp)
 925 06a8 19D1     		sbbl	%edx, %ecx
 926 06aa 7317     		jnc	L55
 358:src/pdf417/PDFDetectionResultColumn.c **** 			{
 359:src/pdf417/PDFDetectionResultColumn.c **** 				// We have more rows than the barcode metadata allows for, ignore them.
 360:src/pdf417/PDFDetectionResultColumn.c **** 				continue;
 361:src/pdf417/PDFDetectionResultColumn.c **** 			}
 362:src/pdf417/PDFDetectionResultColumn.c **** 			ret[rowNumber]++;
 927              		.loc 1 362 7
 928 06ac 8B45E4   		movl	-28(%ebp), %eax
 929 06af 8B55D8   		movl	-40(%ebp), %edx
 930 06b2 8B0490   		movl	(%eax,%edx,4), %eax
 931              		.loc 1 362 18
 932 06b5 8D4801   		leal	1(%eax), %ecx
 933 06b8 8B45E4   		movl	-28(%ebp), %eax
 934 06bb 8B55D8   		movl	-40(%ebp), %edx
 935 06be 890C90   		movl	%ecx, (%eax,%edx,4)
 936 06c1 EB01     		jmp	L49
 937              	L55:
 360:src/pdf417/PDFDetectionResultColumn.c **** 			}
 938              		.loc 1 360 5
 939 06c3 90       		nop
 940              	L49:
 941              	LBE9:
 942              	LBE8:
 351:src/pdf417/PDFDetectionResultColumn.c **** 	{
 943              		.loc 1 351 25 discriminator 2
 944 06c4 8345F001 		addl	$1, -16(%ebp)
 945              	L48:
 351:src/pdf417/PDFDetectionResultColumn.c **** 	{
 946              		.loc 1 351 2 discriminator 1
 947 06c8 8B45F0   		movl	-16(%ebp), %eax
 948 06cb 3B4510   		cmpl	16(%ebp), %eax
 949 06ce 7CA0     		jl	L51
 950              	LBE7:
 951              	LBB10:
GAS LISTING C:\Users\jisu8\AppData\Local\Temp\ccIUpqyy.s 			page 26


 363:src/pdf417/PDFDetectionResultColumn.c **** 		} // else throw exception?
 364:src/pdf417/PDFDetectionResultColumn.c **** 	}
 365:src/pdf417/PDFDetectionResultColumn.c **** 
 366:src/pdf417/PDFDetectionResultColumn.c **** 	for(int i=0;i<sizeRow;i++)
 952              		.loc 1 366 10
 953 06d0 C745F400 		movl	$0, -12(%ebp)
 953      000000
 954              		.loc 1 366 2
 955 06d7 EB1F     		jmp	L52
 956              	L53:
 367:src/pdf417/PDFDetectionResultColumn.c **** 	{
 368:src/pdf417/PDFDetectionResultColumn.c **** 		result[i] = ret[i];
 957              		.loc 1 368 9 discriminator 3
 958 06d9 8B45F4   		movl	-12(%ebp), %eax
 959 06dc 8D148500 		leal	0(,%eax,4), %edx
 959      000000
 960 06e3 8B450C   		movl	12(%ebp), %eax
 961 06e6 8D0C02   		leal	(%edx,%eax), %ecx
 962              		.loc 1 368 18 discriminator 3
 963 06e9 8B45E4   		movl	-28(%ebp), %eax
 964 06ec 8B55F4   		movl	-12(%ebp), %edx
 965 06ef 8B0490   		movl	(%eax,%edx,4), %eax
 966              		.loc 1 368 13 discriminator 3
 967 06f2 8901     		movl	%eax, (%ecx)
 366:src/pdf417/PDFDetectionResultColumn.c **** 	{
 968              		.loc 1 366 25 discriminator 3
 969 06f4 8345F401 		addl	$1, -12(%ebp)
 970              	L52:
 366:src/pdf417/PDFDetectionResultColumn.c **** 	{
 971              		.loc 1 366 2 discriminator 1
 972 06f8 8B45F4   		movl	-12(%ebp), %eax
 973 06fb 3B45EC   		cmpl	-20(%ebp), %eax
 974 06fe 7CD9     		jl	L53
 975              	LBE10:
 369:src/pdf417/PDFDetectionResultColumn.c **** 	}
 370:src/pdf417/PDFDetectionResultColumn.c **** 
 371:src/pdf417/PDFDetectionResultColumn.c **** 	*size = sizeRow;
 976              		.loc 1 371 8
 977 0700 8B4514   		movl	20(%ebp), %eax
 978 0703 8B55EC   		movl	-20(%ebp), %edx
 979 0706 8910     		movl	%edx, (%eax)
 372:src/pdf417/PDFDetectionResultColumn.c **** 
 373:src/pdf417/PDFDetectionResultColumn.c **** 	return 1;
 980              		.loc 1 373 9
 981 0708 B8010000 		movl	$1, %eax
 981      00
 982              	L47:
 983 070d 89DC     		movl	%ebx, %esp
 374:src/pdf417/PDFDetectionResultColumn.c **** }
 984              		.loc 1 374 1
 985 070f 8B5DFC   		movl	-4(%ebp), %ebx
 986 0712 C9       		leave
 987              	LCFI23:
 988              		.cfi_restore 5
 989              		.cfi_restore 3
 990              		.cfi_def_cfa 4, 4
 991 0713 C3       		ret
GAS LISTING C:\Users\jisu8\AppData\Local\Temp\ccIUpqyy.s 			page 27


 992              		.cfi_endproc
 993              	LFE11:
 994              		.globl	_setRowNumberAsRowIndicatorColumn
 996              	_setRowNumberAsRowIndicatorColumn:
 997              	LFB12:
 375:src/pdf417/PDFDetectionResultColumn.c **** 
 376:src/pdf417/PDFDetectionResultColumn.c **** void setRowNumberAsRowIndicatorColumn(Codeword_t * Codewords) 
 377:src/pdf417/PDFDetectionResultColumn.c **** {
 998              		.loc 1 377 1
 999              		.cfi_startproc
 1000 0714 55       		pushl	%ebp
 1001              	LCFI24:
 1002              		.cfi_def_cfa_offset 8
 1003              		.cfi_offset 5, -8
 1004 0715 89E5     		movl	%esp, %ebp
 1005              	LCFI25:
 1006              		.cfi_def_cfa_register 5
 1007 0717 53       		pushl	%ebx
 1008              		.cfi_offset 3, -12
 378:src/pdf417/PDFDetectionResultColumn.c **** 	Codewords->m_value._rowNumber = (Codewords->m_value._value / 30) * 3 + Codewords->m_value._bucket 
 1009              		.loc 1 378 53
 1010 0718 8B4508   		movl	8(%ebp), %eax
 1011 071b 8B4810   		movl	16(%eax), %ecx
 1012              		.loc 1 378 61
 1013 071e BA898888 		movl	$-2004318071, %edx
 1013      88
 1014 0723 89C8     		movl	%ecx, %eax
 1015 0725 F7EA     		imull	%edx
 1016 0727 8D040A   		leal	(%edx,%ecx), %eax
 1017 072a C1F804   		sarl	$4, %eax
 1018 072d 89C2     		movl	%eax, %edx
 1019 072f 89C8     		movl	%ecx, %eax
 1020 0731 C1F81F   		sarl	$31, %eax
 1021 0734 29C2     		subl	%eax, %edx
 1022              		.loc 1 378 67
 1023 0736 89D0     		movl	%edx, %eax
 1024 0738 01C0     		addl	%eax, %eax
 1025 073a 8D1C10   		leal	(%eax,%edx), %ebx
 1026              		.loc 1 378 91
 1027 073d 8B4508   		movl	8(%ebp), %eax
 1028 0740 8B480C   		movl	12(%eax), %ecx
 1029              		.loc 1 378 100
 1030 0743 BA565555 		movl	$1431655766, %edx
 1030      55
 1031 0748 89C8     		movl	%ecx, %eax
 1032 074a F7EA     		imull	%edx
 1033 074c 89C8     		movl	%ecx, %eax
 1034 074e C1F81F   		sarl	$31, %eax
 1035 0751 29C2     		subl	%eax, %edx
 1036 0753 89D0     		movl	%edx, %eax
 1037              		.loc 1 378 71
 1038 0755 8D1403   		leal	(%ebx,%eax), %edx
 1039              		.loc 1 378 32
 1040 0758 8B4508   		movl	8(%ebp), %eax
 1041 075b 895014   		movl	%edx, 20(%eax)
 379:src/pdf417/PDFDetectionResultColumn.c **** }
 1042              		.loc 1 379 1
GAS LISTING C:\Users\jisu8\AppData\Local\Temp\ccIUpqyy.s 			page 28


 1043 075e 90       		nop
 1044 075f 5B       		popl	%ebx
 1045              		.cfi_restore 3
 1046 0760 5D       		popl	%ebp
 1047              	LCFI26:
 1048              		.cfi_restore 5
 1049              		.cfi_def_cfa 4, 4
 1050 0761 C3       		ret
 1051              		.cfi_endproc
 1052              	LFE12:
 1053              		.section .rdata,"dr"
 1054              		.align 4
 1055              	LC5:
 1056 00a8 44657465 		.ascii "DetectionResultColumn::getBarcodeMetadata : \0"
 1056      6374696F 
 1056      6E526573 
 1056      756C7443 
 1056      6F6C756D 
 1057 00d5 000000   		.text
 1058              		.globl	_getBarcodeMetadata
 1060              	_getBarcodeMetadata:
 1061              	LFB13:
 380:src/pdf417/PDFDetectionResultColumn.c **** 
 381:src/pdf417/PDFDetectionResultColumn.c **** // This is example of bad design, a getter should not modify object's state
 382:src/pdf417/PDFDetectionResultColumn.c **** uint8_t getBarcodeMetadata(DetectionResultColumn_t * RowIndicatorColumn, BarcodeMetadata_t * result
 383:src/pdf417/PDFDetectionResultColumn.c **** {
 1062              		.loc 1 383 1
 1063              		.cfi_startproc
 1064 0762 55       		pushl	%ebp
 1065              	LCFI27:
 1066              		.cfi_def_cfa_offset 8
 1067              		.cfi_offset 5, -8
 1068 0763 89E5     		movl	%esp, %ebp
 1069              	LCFI28:
 1070              		.cfi_def_cfa_register 5
 1071 0765 B8781F00 		movl	$8056, %eax
 1071      00
 1072 076a E8000000 		call	___chkstk_ms
 1072      00
 1073 076f 29C4     		subl	%eax, %esp
 384:src/pdf417/PDFDetectionResultColumn.c **** 	printf("DetectionResultColumn::getBarcodeMetadata : \n");
 1074              		.loc 1 384 2
 1075 0771 C70424A8 		movl	$LC5, (%esp)
 1075      000000
 1076 0778 E8000000 		call	_puts
 1076      00
 385:src/pdf417/PDFDetectionResultColumn.c **** 
 386:src/pdf417/PDFDetectionResultColumn.c **** 	if (!isRowIndicator(RowIndicatorColumn))
 1077              		.loc 1 386 7
 1078 077d 8B4508   		movl	8(%ebp), %eax
 1079 0780 890424   		movl	%eax, (%esp)
 1080 0783 E869F9FF 		call	_isRowIndicator
 1080      FF
 1081              		.loc 1 386 5
 1082 0788 84C0     		testb	%al, %al
 1083 078a 750A     		jne	L58
 387:src/pdf417/PDFDetectionResultColumn.c **** 	{
GAS LISTING C:\Users\jisu8\AppData\Local\Temp\ccIUpqyy.s 			page 29


 388:src/pdf417/PDFDetectionResultColumn.c **** 		return 0;
 1084              		.loc 1 388 10
 1085 078c B8000000 		movl	$0, %eax
 1085      00
 1086 0791 E9DE0200 		jmp	L71
 1086      00
 1087              	L58:
 389:src/pdf417/PDFDetectionResultColumn.c **** 	}
 390:src/pdf417/PDFDetectionResultColumn.c **** 
 391:src/pdf417/PDFDetectionResultColumn.c **** 	Codeword_t * codewords = allCodewords(RowIndicatorColumn);
 1088              		.loc 1 391 27
 1089 0796 8B4508   		movl	8(%ebp), %eax
 1090 0799 890424   		movl	%eax, (%esp)
 1091 079c E845F9FF 		call	_allCodewords
 1091      FF
 1092 07a1 8945EC   		movl	%eax, -20(%ebp)
 1093              	LBB11:
 392:src/pdf417/PDFDetectionResultColumn.c **** 	BarcodeValue_t barcodeColumnCount;
 393:src/pdf417/PDFDetectionResultColumn.c **** 	BarcodeValue_t barcodeRowCountUpperPart;
 394:src/pdf417/PDFDetectionResultColumn.c **** 	BarcodeValue_t barcodeRowCountLowerPart;
 395:src/pdf417/PDFDetectionResultColumn.c **** 	BarcodeValue_t barcodeECLevel;
 396:src/pdf417/PDFDetectionResultColumn.c **** 	for (uint16_t i=0;i<length;i++)
 1094              		.loc 1 396 16
 1095 07a4 66C745F6 		movw	$0, -10(%ebp)
 1095      0000
 1096              		.loc 1 396 2
 1097 07aa EB47     		jmp	L60
 1098              	L61:
 397:src/pdf417/PDFDetectionResultColumn.c **** 	{
 398:src/pdf417/PDFDetectionResultColumn.c **** 		barcodeColumnCount._values[i] = 0;
 1099              		.loc 1 398 29 discriminator 3
 1100 07ac 0FB745F6 		movzwl	-10(%ebp), %eax
 1101              		.loc 1 398 33 discriminator 3
 1102 07b0 C7848508 		movl	$0, -2040(%ebp,%eax,4)
 1102      F8FFFF00 
 1102      000000
 399:src/pdf417/PDFDetectionResultColumn.c **** 		barcodeRowCountUpperPart._values[i] = 0;
 1103              		.loc 1 399 35 discriminator 3
 1104 07bb 0FB745F6 		movzwl	-10(%ebp), %eax
 1105              		.loc 1 399 39 discriminator 3
 1106 07bf C7848538 		movl	$0, -4040(%ebp,%eax,4)
 1106      F0FFFF00 
 1106      000000
 400:src/pdf417/PDFDetectionResultColumn.c **** 		barcodeRowCountLowerPart._values[i] = 0;
 1107              		.loc 1 400 35 discriminator 3
 1108 07ca 0FB745F6 		movzwl	-10(%ebp), %eax
 1109              		.loc 1 400 39 discriminator 3
 1110 07ce C7848568 		movl	$0, -6040(%ebp,%eax,4)
 1110      E8FFFF00 
 1110      000000
 401:src/pdf417/PDFDetectionResultColumn.c **** 		barcodeECLevel._values[i] = 0;
 1111              		.loc 1 401 25 discriminator 3
 1112 07d9 0FB745F6 		movzwl	-10(%ebp), %eax
 1113              		.loc 1 401 29 discriminator 3
 1114 07dd C7848598 		movl	$0, -8040(%ebp,%eax,4)
 1114      E0FFFF00 
 1114      000000
GAS LISTING C:\Users\jisu8\AppData\Local\Temp\ccIUpqyy.s 			page 30


 396:src/pdf417/PDFDetectionResultColumn.c **** 	{
 1115              		.loc 1 396 30 discriminator 3
 1116 07e8 0FB745F6 		movzwl	-10(%ebp), %eax
 1117 07ec 83C001   		addl	$1, %eax
 1118 07ef 668945F6 		movw	%ax, -10(%ebp)
 1119              	L60:
 396:src/pdf417/PDFDetectionResultColumn.c **** 	{
 1120              		.loc 1 396 21 discriminator 1
 1121 07f3 0FB745F6 		movzwl	-10(%ebp), %eax
 396:src/pdf417/PDFDetectionResultColumn.c **** 	{
 1122              		.loc 1 396 2 discriminator 1
 1123 07f7 394510   		cmpl	%eax, 16(%ebp)
 1124 07fa 7FB0     		jg	L61
 1125              	LBE11:
 1126              	LBB12:
 402:src/pdf417/PDFDetectionResultColumn.c **** 	}
 403:src/pdf417/PDFDetectionResultColumn.c **** 	for (uint16_t i=0;i<length;i++) 
 1127              		.loc 1 403 16
 1128 07fc 66C745F4 		movw	$0, -12(%ebp)
 1128      0000
 1129              		.loc 1 403 2
 1130 0802 E97E0100 		jmp	L62
 1130      00
 1131              	L68:
 1132              	LBB13:
 404:src/pdf417/PDFDetectionResultColumn.c **** 	{
 405:src/pdf417/PDFDetectionResultColumn.c **** 		if (codewords[i].m_hasValue == 0) 
 1133              		.loc 1 405 16
 1134 0807 0FB755F4 		movzwl	-12(%ebp), %edx
 1135 080b 89D0     		movl	%edx, %eax
 1136 080d 01C0     		addl	%eax, %eax
 1137 080f 01D0     		addl	%edx, %eax
 1138 0811 C1E003   		sall	$3, %eax
 1139 0814 89C2     		movl	%eax, %edx
 1140 0816 8B45EC   		movl	-20(%ebp), %eax
 1141 0819 01D0     		addl	%edx, %eax
 1142              		.loc 1 405 19
 1143 081b 0FB600   		movzbl	(%eax), %eax
 1144              		.loc 1 405 6
 1145 081e 84C0     		testb	%al, %al
 1146 0820 0F845301 		je	L72
 1146      0000
 406:src/pdf417/PDFDetectionResultColumn.c **** 		{
 407:src/pdf417/PDFDetectionResultColumn.c **** 			continue;
 408:src/pdf417/PDFDetectionResultColumn.c **** 		}
 409:src/pdf417/PDFDetectionResultColumn.c **** 
 410:src/pdf417/PDFDetectionResultColumn.c **** 		setRowNumberAsRowIndicatorColumn(codewords+i);
 1147              		.loc 1 410 45
 1148 0826 0FB755F4 		movzwl	-12(%ebp), %edx
 1149 082a 89D0     		movl	%edx, %eax
 1150 082c 01C0     		addl	%eax, %eax
 1151 082e 01D0     		addl	%edx, %eax
 1152 0830 C1E003   		sall	$3, %eax
 1153 0833 89C2     		movl	%eax, %edx
 1154              		.loc 1 410 3
 1155 0835 8B45EC   		movl	-20(%ebp), %eax
 1156 0838 01D0     		addl	%edx, %eax
GAS LISTING C:\Users\jisu8\AppData\Local\Temp\ccIUpqyy.s 			page 31


 1157 083a 890424   		movl	%eax, (%esp)
 1158 083d E8D2FEFF 		call	_setRowNumberAsRowIndicatorColumn
 1158      FF
 411:src/pdf417/PDFDetectionResultColumn.c **** 		int rowIndicatorValue = codewords[i].m_value._value % 30;
 1159              		.loc 1 411 36
 1160 0842 0FB755F4 		movzwl	-12(%ebp), %edx
 1161 0846 89D0     		movl	%edx, %eax
 1162 0848 01C0     		addl	%eax, %eax
 1163 084a 01D0     		addl	%edx, %eax
 1164 084c C1E003   		sall	$3, %eax
 1165 084f 89C2     		movl	%eax, %edx
 1166 0851 8B45EC   		movl	-20(%ebp), %eax
 1167 0854 01D0     		addl	%edx, %eax
 1168              		.loc 1 411 47
 1169 0856 8B4810   		movl	16(%eax), %ecx
 1170              		.loc 1 411 7
 1171 0859 BA898888 		movl	$-2004318071, %edx
 1171      88
 1172 085e 89C8     		movl	%ecx, %eax
 1173 0860 F7EA     		imull	%edx
 1174 0862 8D040A   		leal	(%edx,%ecx), %eax
 1175 0865 C1F804   		sarl	$4, %eax
 1176 0868 89C2     		movl	%eax, %edx
 1177 086a 89C8     		movl	%ecx, %eax
 1178 086c C1F81F   		sarl	$31, %eax
 1179 086f 29C2     		subl	%eax, %edx
 1180 0871 89D0     		movl	%edx, %eax
 1181 0873 8945E8   		movl	%eax, -24(%ebp)
 1182 0876 8B45E8   		movl	-24(%ebp), %eax
 1183 0879 6BC01E   		imull	$30, %eax, %eax
 1184 087c 29C1     		subl	%eax, %ecx
 1185 087e 89C8     		movl	%ecx, %eax
 1186 0880 8945E8   		movl	%eax, -24(%ebp)
 412:src/pdf417/PDFDetectionResultColumn.c **** 		int codewordRowNumber = codewords[i].m_value._rowNumber;
 1187              		.loc 1 412 36
 1188 0883 0FB755F4 		movzwl	-12(%ebp), %edx
 1189 0887 89D0     		movl	%edx, %eax
 1190 0889 01C0     		addl	%eax, %eax
 1191 088b 01D0     		addl	%edx, %eax
 1192 088d C1E003   		sall	$3, %eax
 1193 0890 89C2     		movl	%eax, %edx
 1194 0892 8B45EC   		movl	-20(%ebp), %eax
 1195 0895 01D0     		addl	%edx, %eax
 1196              		.loc 1 412 7
 1197 0897 8B4014   		movl	20(%eax), %eax
 1198 089a 8945F0   		movl	%eax, -16(%ebp)
 413:src/pdf417/PDFDetectionResultColumn.c **** 		if (!isLeftRowIndicator(RowIndicatorColumn)) 
 1199              		.loc 1 413 8
 1200 089d 8B4508   		movl	8(%ebp), %eax
 1201 08a0 890424   		movl	%eax, (%esp)
 1202 08a3 E85CF8FF 		call	_isLeftRowIndicator
 1202      FF
 1203              		.loc 1 413 6
 1204 08a8 84C0     		testb	%al, %al
 1205 08aa 7504     		jne	L65
 414:src/pdf417/PDFDetectionResultColumn.c **** 		{
 415:src/pdf417/PDFDetectionResultColumn.c **** 			codewordRowNumber += 2;
GAS LISTING C:\Users\jisu8\AppData\Local\Temp\ccIUpqyy.s 			page 32


 1206              		.loc 1 415 22
 1207 08ac 8345F002 		addl	$2, -16(%ebp)
 1208              	L65:
 416:src/pdf417/PDFDetectionResultColumn.c **** 		}
 417:src/pdf417/PDFDetectionResultColumn.c **** 		switch (codewordRowNumber % 3) 
 1209              		.loc 1 417 29
 1210 08b0 8B4DF0   		movl	-16(%ebp), %ecx
 1211 08b3 BA565555 		movl	$1431655766, %edx
 1211      55
 1212 08b8 89C8     		movl	%ecx, %eax
 1213 08ba F7EA     		imull	%edx
 1214 08bc 89C8     		movl	%ecx, %eax
 1215 08be C1F81F   		sarl	$31, %eax
 1216 08c1 29C2     		subl	%eax, %edx
 1217 08c3 89D0     		movl	%edx, %eax
 1218 08c5 89C2     		movl	%eax, %edx
 1219 08c7 01D2     		addl	%edx, %edx
 1220 08c9 01C2     		addl	%eax, %edx
 1221 08cb 89C8     		movl	%ecx, %eax
 1222 08cd 29D0     		subl	%edx, %eax
 1223 08cf 83F801   		cmpl	$1, %eax
 1224 08d2 7431     		je	L66
 1225 08d4 83F802   		cmpl	$2, %eax
 1226 08d7 0F848200 		je	L67
 1226      0000
 1227 08dd 85C0     		testl	%eax, %eax
 1228 08df 0F859500 		jne	L64
 1228      0000
 418:src/pdf417/PDFDetectionResultColumn.c **** 		{
 419:src/pdf417/PDFDetectionResultColumn.c **** 			case 0:
 420:src/pdf417/PDFDetectionResultColumn.c **** 			BarcodeSetValue(&barcodeRowCountUpperPart,rowIndicatorValue * 3 + 1);
 1229              		.loc 1 420 64
 1230 08e5 8B55E8   		movl	-24(%ebp), %edx
 1231 08e8 89D0     		movl	%edx, %eax
 1232 08ea 01C0     		addl	%eax, %eax
 1233 08ec 01D0     		addl	%edx, %eax
 1234              		.loc 1 420 4
 1235 08ee 83C001   		addl	$1, %eax
 1236 08f1 89442404 		movl	%eax, 4(%esp)
 1237 08f5 8D8538F0 		leal	-4040(%ebp), %eax
 1237      FFFF
 1238 08fb 890424   		movl	%eax, (%esp)
 1239 08fe E8000000 		call	_BarcodeSetValue
 1239      00
 421:src/pdf417/PDFDetectionResultColumn.c **** 			break;
 1240              		.loc 1 421 4
 1241 0903 EB75     		jmp	L64
 1242              	L66:
 422:src/pdf417/PDFDetectionResultColumn.c **** 			case 1:
 423:src/pdf417/PDFDetectionResultColumn.c **** 			BarcodeSetValue(&barcodeECLevel,rowIndicatorValue / 3);
 1243              		.loc 1 423 4
 1244 0905 8B4DE8   		movl	-24(%ebp), %ecx
 1245 0908 BA565555 		movl	$1431655766, %edx
 1245      55
 1246 090d 89C8     		movl	%ecx, %eax
 1247 090f F7EA     		imull	%edx
 1248 0911 89C8     		movl	%ecx, %eax
GAS LISTING C:\Users\jisu8\AppData\Local\Temp\ccIUpqyy.s 			page 33


 1249 0913 C1F81F   		sarl	$31, %eax
 1250 0916 29C2     		subl	%eax, %edx
 1251 0918 89D0     		movl	%edx, %eax
 1252 091a 89442404 		movl	%eax, 4(%esp)
 1253 091e 8D8598E0 		leal	-8040(%ebp), %eax
 1253      FFFF
 1254 0924 890424   		movl	%eax, (%esp)
 1255 0927 E8000000 		call	_BarcodeSetValue
 1255      00
 424:src/pdf417/PDFDetectionResultColumn.c **** 			BarcodeSetValue(&barcodeRowCountLowerPart,rowIndicatorValue % 3);
 1256              		.loc 1 424 4
 1257 092c 8B4DE8   		movl	-24(%ebp), %ecx
 1258 092f BA565555 		movl	$1431655766, %edx
 1258      55
 1259 0934 89C8     		movl	%ecx, %eax
 1260 0936 F7EA     		imull	%edx
 1261 0938 89C8     		movl	%ecx, %eax
 1262 093a C1F81F   		sarl	$31, %eax
 1263 093d 29C2     		subl	%eax, %edx
 1264 093f 89D0     		movl	%edx, %eax
 1265 0941 89C2     		movl	%eax, %edx
 1266 0943 01D2     		addl	%edx, %edx
 1267 0945 01C2     		addl	%eax, %edx
 1268 0947 89C8     		movl	%ecx, %eax
 1269 0949 29D0     		subl	%edx, %eax
 1270 094b 89442404 		movl	%eax, 4(%esp)
 1271 094f 8D8568E8 		leal	-6040(%ebp), %eax
 1271      FFFF
 1272 0955 890424   		movl	%eax, (%esp)
 1273 0958 E8000000 		call	_BarcodeSetValue
 1273      00
 425:src/pdf417/PDFDetectionResultColumn.c **** 			break;
 1274              		.loc 1 425 4
 1275 095d EB1B     		jmp	L64
 1276              	L67:
 426:src/pdf417/PDFDetectionResultColumn.c **** 			case 2:
 427:src/pdf417/PDFDetectionResultColumn.c **** 			BarcodeSetValue(&barcodeColumnCount,rowIndicatorValue + 1);
 1277              		.loc 1 427 4
 1278 095f 8B45E8   		movl	-24(%ebp), %eax
 1279 0962 83C001   		addl	$1, %eax
 1280 0965 89442404 		movl	%eax, 4(%esp)
 1281 0969 8D8508F8 		leal	-2040(%ebp), %eax
 1281      FFFF
 1282 096f 890424   		movl	%eax, (%esp)
 1283 0972 E8000000 		call	_BarcodeSetValue
 1283      00
 428:src/pdf417/PDFDetectionResultColumn.c **** 			break;
 1284              		.loc 1 428 4
 1285 0977 EB01     		jmp	L64
 1286              	L72:
 407:src/pdf417/PDFDetectionResultColumn.c **** 		}
 1287              		.loc 1 407 4
 1288 0979 90       		nop
 1289              	L64:
 1290              	LBE13:
 403:src/pdf417/PDFDetectionResultColumn.c **** 	{
 1291              		.loc 1 403 30 discriminator 2
GAS LISTING C:\Users\jisu8\AppData\Local\Temp\ccIUpqyy.s 			page 34


 1292 097a 0FB745F4 		movzwl	-12(%ebp), %eax
 1293 097e 83C001   		addl	$1, %eax
 1294 0981 668945F4 		movw	%ax, -12(%ebp)
 1295              	L62:
 403:src/pdf417/PDFDetectionResultColumn.c **** 	{
 1296              		.loc 1 403 21 discriminator 1
 1297 0985 0FB745F4 		movzwl	-12(%ebp), %eax
 403:src/pdf417/PDFDetectionResultColumn.c **** 	{
 1298              		.loc 1 403 2 discriminator 1
 1299 0989 394510   		cmpl	%eax, 16(%ebp)
 1300 098c 0F8F75FE 		jg	L68
 1300      FFFF
 1301              	LBE12:
 429:src/pdf417/PDFDetectionResultColumn.c **** 		}
 430:src/pdf417/PDFDetectionResultColumn.c **** 	}
 431:src/pdf417/PDFDetectionResultColumn.c **** 	// Maybe we should check if we have ambiguous values?
 432:src/pdf417/PDFDetectionResultColumn.c **** 	int cc = BarcodeValue(&barcodeColumnCount,length);
 1302              		.loc 1 432 11
 1303 0992 8B4510   		movl	16(%ebp), %eax
 1304 0995 89442404 		movl	%eax, 4(%esp)
 1305 0999 8D8508F8 		leal	-2040(%ebp), %eax
 1305      FFFF
 1306 099f 890424   		movl	%eax, (%esp)
 1307 09a2 E8000000 		call	_BarcodeValue
 1307      00
 1308 09a7 8945E4   		movl	%eax, -28(%ebp)
 433:src/pdf417/PDFDetectionResultColumn.c **** 	int rcu = BarcodeValue(&barcodeRowCountUpperPart,length);
 1309              		.loc 1 433 12
 1310 09aa 8B4510   		movl	16(%ebp), %eax
 1311 09ad 89442404 		movl	%eax, 4(%esp)
 1312 09b1 8D8538F0 		leal	-4040(%ebp), %eax
 1312      FFFF
 1313 09b7 890424   		movl	%eax, (%esp)
 1314 09ba E8000000 		call	_BarcodeValue
 1314      00
 1315 09bf 8945E0   		movl	%eax, -32(%ebp)
 434:src/pdf417/PDFDetectionResultColumn.c **** 	int rcl = BarcodeValue(&barcodeRowCountLowerPart,length);
 1316              		.loc 1 434 12
 1317 09c2 8B4510   		movl	16(%ebp), %eax
 1318 09c5 89442404 		movl	%eax, 4(%esp)
 1319 09c9 8D8568E8 		leal	-6040(%ebp), %eax
 1319      FFFF
 1320 09cf 890424   		movl	%eax, (%esp)
 1321 09d2 E8000000 		call	_BarcodeValue
 1321      00
 1322 09d7 8945DC   		movl	%eax, -36(%ebp)
 435:src/pdf417/PDFDetectionResultColumn.c **** 	int ec = BarcodeValue(&barcodeECLevel,length);
 1323              		.loc 1 435 11
 1324 09da 8B4510   		movl	16(%ebp), %eax
 1325 09dd 89442404 		movl	%eax, 4(%esp)
 1326 09e1 8D8598E0 		leal	-8040(%ebp), %eax
 1326      FFFF
 1327 09e7 890424   		movl	%eax, (%esp)
 1328 09ea E8000000 		call	_BarcodeValue
 1328      00
 1329 09ef 8945D8   		movl	%eax, -40(%ebp)
 436:src/pdf417/PDFDetectionResultColumn.c **** 
GAS LISTING C:\Users\jisu8\AppData\Local\Temp\ccIUpqyy.s 			page 35


 437:src/pdf417/PDFDetectionResultColumn.c **** 	if (cc < 1 || rcu + rcl < MIN_ROWS_IN_BARCODE || rcu + rcl > MAX_ROWS_IN_BARCODE) 
 1330              		.loc 1 437 5
 1331 09f2 837DE400 		cmpl	$0, -28(%ebp)
 1332 09f6 7E22     		jle	L69
 1333              		.loc 1 437 20 discriminator 1
 1334 09f8 8B55E0   		movl	-32(%ebp), %edx
 1335 09fb 8B45DC   		movl	-36(%ebp), %eax
 1336 09fe 01D0     		addl	%edx, %eax
 1337              		.loc 1 437 26 discriminator 1
 1338 0a00 BA030000 		movl	$3, %edx
 1338      00
 1339              		.loc 1 437 13 discriminator 1
 1340 0a05 39D0     		cmpl	%edx, %eax
 1341 0a07 7C11     		jl	L69
 1342              		.loc 1 437 55 discriminator 2
 1343 0a09 8B55E0   		movl	-32(%ebp), %edx
 1344 0a0c 8B45DC   		movl	-36(%ebp), %eax
 1345 0a0f 01D0     		addl	%edx, %eax
 1346              		.loc 1 437 61 discriminator 2
 1347 0a11 BA5A0000 		movl	$90, %edx
 1347      00
 1348              		.loc 1 437 48 discriminator 2
 1349 0a16 39D0     		cmpl	%edx, %eax
 1350 0a18 7E07     		jle	L70
 1351              	L69:
 438:src/pdf417/PDFDetectionResultColumn.c **** 	{
 439:src/pdf417/PDFDetectionResultColumn.c **** 		return 0;
 1352              		.loc 1 439 10
 1353 0a1a B8000000 		movl	$0, %eax
 1353      00
 1354 0a1f EB53     		jmp	L71
 1355              	L70:
 440:src/pdf417/PDFDetectionResultColumn.c **** 	}
 441:src/pdf417/PDFDetectionResultColumn.c **** 
 442:src/pdf417/PDFDetectionResultColumn.c **** 	result->_columnCount = cc;
 1356              		.loc 1 442 23
 1357 0a21 8B450C   		movl	12(%ebp), %eax
 1358 0a24 8B55E4   		movl	-28(%ebp), %edx
 1359 0a27 8910     		movl	%edx, (%eax)
 443:src/pdf417/PDFDetectionResultColumn.c **** 	result->_errorCorrectionLevel = ec;
 1360              		.loc 1 443 32
 1361 0a29 8B450C   		movl	12(%ebp), %eax
 1362 0a2c 8B55D8   		movl	-40(%ebp), %edx
 1363 0a2f 895004   		movl	%edx, 4(%eax)
 444:src/pdf417/PDFDetectionResultColumn.c **** 	result->_rowCountUpperPart = rcu;
 1364              		.loc 1 444 29
 1365 0a32 8B450C   		movl	12(%ebp), %eax
 1366 0a35 8B55E0   		movl	-32(%ebp), %edx
 1367 0a38 895008   		movl	%edx, 8(%eax)
 445:src/pdf417/PDFDetectionResultColumn.c **** 	result->_rowCountLowerPart = rcl;
 1368              		.loc 1 445 29
 1369 0a3b 8B450C   		movl	12(%ebp), %eax
 1370 0a3e 8B55DC   		movl	-36(%ebp), %edx
 1371 0a41 89500C   		movl	%edx, 12(%eax)
 446:src/pdf417/PDFDetectionResultColumn.c **** 	
 447:src/pdf417/PDFDetectionResultColumn.c **** 	RemoveIncorrectCodewords(isLeftRowIndicator(RowIndicatorColumn), codewords, result,length);
 1372              		.loc 1 447 27
GAS LISTING C:\Users\jisu8\AppData\Local\Temp\ccIUpqyy.s 			page 36


 1373 0a44 8B4508   		movl	8(%ebp), %eax
 1374 0a47 890424   		movl	%eax, (%esp)
 1375 0a4a E8B5F6FF 		call	_isLeftRowIndicator
 1375      FF
 1376              		.loc 1 447 2
 1377 0a4f 0FB6C0   		movzbl	%al, %eax
 1378 0a52 8B5510   		movl	16(%ebp), %edx
 1379 0a55 8954240C 		movl	%edx, 12(%esp)
 1380 0a59 8B550C   		movl	12(%ebp), %edx
 1381 0a5c 89542408 		movl	%edx, 8(%esp)
 1382 0a60 8B55EC   		movl	-20(%ebp), %edx
 1383 0a63 89542404 		movl	%edx, 4(%esp)
 1384 0a67 890424   		movl	%eax, (%esp)
 1385 0a6a E8E7F6FF 		call	_RemoveIncorrectCodewords
 1385      FF
 448:src/pdf417/PDFDetectionResultColumn.c **** 
 449:src/pdf417/PDFDetectionResultColumn.c **** 	return 1;
 1386              		.loc 1 449 9
 1387 0a6f B8010000 		movl	$1, %eax
 1387      00
 1388              	L71:
 450:src/pdf417/PDFDetectionResultColumn.c **** }
 1389              		.loc 1 450 1 discriminator 1
 1390 0a74 C9       		leave
 1391              	LCFI29:
 1392              		.cfi_restore 5
 1393              		.cfi_def_cfa 4, 4
 1394 0a75 C3       		ret
 1395              		.cfi_endproc
 1396              	LFE13:
 1397              	Letext0:
 1398              		.file 2 "src/pdf417/PDFBarcodeMetadata.h"
 1399              		.file 3 "src/pdf417/PDFBarcodeValue.h"
 1400              		.file 4 "D:/3.tools/mingw/mingw32/i686-w64-mingw32/include/crtdefs.h"
 1401              		.file 5 "D:/3.tools/mingw/mingw32/i686-w64-mingw32/include/stdint.h"
 1402              		.file 6 "src/ResultPoint.h"
 1403              		.file 7 "src/pdf417/PDFBoundingBox.h"
 1404              		.file 8 "src/pdf417/PDFCodeword.h"
 1405              		.file 9 "src/pdf417/PDFDetectionResultColumn.h"
 1406              		.file 10 "D:/3.tools/mingw/mingw32/i686-w64-mingw32/include/stdlib.h"
 1407              		.file 11 "D:/3.tools/mingw/mingw32/i686-w64-mingw32/include/malloc.h"
 1408              		.file 12 "src/pdf417/PDFScanningDecoder.h"
 1409              		.file 13 "<built-in>"