GAS LISTING C:\Users\jisu8\AppData\Local\Temp\cc7tZZLv.s 			page 1


   1              		.file	"PDFDetectionResult.c"
   2              		.text
   3              	Ltext0:
   4              		.section .rdata,"dr"
   5              		.align 4
   6              	_ADJUST_ROW_NUMBER_SKIP:
   7 0000 02000000 		.long	2
   8              		.text
   9              		.globl	_Detection_Result_init
  11              	_Detection_Result_init:
  12              	LFB1:
  13              		.file 1 "src/pdf417/PDFDetectionResult.c"
   1:src/pdf417/PDFDetectionResult.c **** 
   2:src/pdf417/PDFDetectionResult.c **** #include "PDFDetectionResult.h"
   3:src/pdf417/PDFDetectionResult.c **** #include "PDFCodewordDecoder.h"
   4:src/pdf417/PDFDetectionResult.c **** #include "PDFScanningDecoder.h"
   5:src/pdf417/PDFDetectionResult.c **** 
   6:src/pdf417/PDFDetectionResult.c **** static const int ADJUST_ROW_NUMBER_SKIP = 2;
   7:src/pdf417/PDFDetectionResult.c **** 
   8:src/pdf417/PDFDetectionResult.c **** void Detection_Result_init(const BarcodeMetadata_t * barcodeMetadata, const BoundingBox_t * boundin
   9:src/pdf417/PDFDetectionResult.c **** {
  14              		.loc 1 9 1
  15              		.cfi_startproc
  16 0000 55       		pushl	%ebp
  17              	LCFI0:
  18              		.cfi_def_cfa_offset 8
  19              		.cfi_offset 5, -8
  20 0001 89E5     		movl	%esp, %ebp
  21              	LCFI1:
  22              		.cfi_def_cfa_register 5
  23 0003 57       		pushl	%edi
  24 0004 56       		pushl	%esi
  25 0005 53       		pushl	%ebx
  26              		.cfi_offset 7, -12
  27              		.cfi_offset 6, -16
  28              		.cfi_offset 3, -20
  10:src/pdf417/PDFDetectionResult.c **** 	result->_barcodeMetadata = *barcodeMetadata;
  29              		.loc 1 10 27
  30 0006 8B4510   		movl	16(%ebp), %eax
  31 0009 8B5508   		movl	8(%ebp), %edx
  32 000c 8B0A     		movl	(%edx), %ecx
  33 000e 8908     		movl	%ecx, (%eax)
  34 0010 8B4A04   		movl	4(%edx), %ecx
  35 0013 894804   		movl	%ecx, 4(%eax)
  36 0016 8B4A08   		movl	8(%edx), %ecx
  37 0019 894808   		movl	%ecx, 8(%eax)
  38 001c 8B520C   		movl	12(%edx), %edx
  39 001f 89500C   		movl	%edx, 12(%eax)
  11:src/pdf417/PDFDetectionResult.c **** 	result->_boundingBox = *boundingBox;
  40              		.loc 1 11 23
  41 0022 8B4510   		movl	16(%ebp), %eax
  42 0025 8B550C   		movl	12(%ebp), %edx
  43 0028 05607012 		addl	$1208416, %eax
  43      00
  44 002d 89D3     		movl	%edx, %ebx
  45 002f BA130000 		movl	$19, %edx
  45      00
GAS LISTING C:\Users\jisu8\AppData\Local\Temp\cc7tZZLv.s 			page 2


  46 0034 89C7     		movl	%eax, %edi
  47 0036 89DE     		movl	%ebx, %esi
  48 0038 89D1     		movl	%edx, %ecx
  49 003a F3A5     		rep movsl
  12:src/pdf417/PDFDetectionResult.c **** 	result->_detectionResultColumns[barcodeMetadata->_columnCount + 2];
  13:src/pdf417/PDFDetectionResult.c **** 	//std::fill(_detectionResultColumns.begin(), _detectionResultColumns.end(), nullptr);
  14:src/pdf417/PDFDetectionResult.c **** }
  50              		.loc 1 14 1
  51 003c 90       		nop
  52 003d 5B       		popl	%ebx
  53              		.cfi_restore 3
  54 003e 5E       		popl	%esi
  55              		.cfi_restore 6
  56 003f 5F       		popl	%edi
  57              		.cfi_restore 7
  58 0040 5D       		popl	%ebp
  59              	LCFI2:
  60              		.cfi_restore 5
  61              		.cfi_def_cfa 4, 4
  62 0041 C3       		ret
  63              		.cfi_endproc
  64              	LFE1:
  66              	_AdjustIndicatorColumnRowNumbers:
  67              	LFB2:
  15:src/pdf417/PDFDetectionResult.c **** 
  16:src/pdf417/PDFDetectionResult.c **** static void AdjustIndicatorColumnRowNumbers(DetectionResultColumn_t * detectionResultColumn, const 
  17:src/pdf417/PDFDetectionResult.c **** {
  68              		.loc 1 17 1
  69              		.cfi_startproc
  70 0042 55       		pushl	%ebp
  71              	LCFI3:
  72              		.cfi_def_cfa_offset 8
  73              		.cfi_offset 5, -8
  74 0043 89E5     		movl	%esp, %ebp
  75              	LCFI4:
  76              		.cfi_def_cfa_register 5
  77 0045 83EC18   		subl	$24, %esp
  18:src/pdf417/PDFDetectionResult.c **** 	if (detectionResultColumn->m_hasValue != 0) 
  78              		.loc 1 18 27
  79 0048 8B4508   		movl	8(%ebp), %eax
  80 004b 0FB600   		movzbl	(%eax), %eax
  81              		.loc 1 18 5
  82 004e 84C0     		testb	%al, %al
  83 0050 7419     		je	L4
  19:src/pdf417/PDFDetectionResult.c **** 	{
  20:src/pdf417/PDFDetectionResult.c **** 		adjustCompleteIndicatorColumnRowNumbers(detectionResultColumn,barcodeMetadata,size);
  84              		.loc 1 20 3
  85 0052 8B4510   		movl	16(%ebp), %eax
  86 0055 89442408 		movl	%eax, 8(%esp)
  87 0059 8B450C   		movl	12(%ebp), %eax
  88 005c 89442404 		movl	%eax, 4(%esp)
  89 0060 8B4508   		movl	8(%ebp), %eax
  90 0063 890424   		movl	%eax, (%esp)
  91 0066 E8000000 		call	_adjustCompleteIndicatorColumnRowNumbers
  91      00
  92              	L4:
  21:src/pdf417/PDFDetectionResult.c **** 	}
GAS LISTING C:\Users\jisu8\AppData\Local\Temp\cc7tZZLv.s 			page 3


  22:src/pdf417/PDFDetectionResult.c **** }
  93              		.loc 1 22 1
  94 006b 90       		nop
  95 006c C9       		leave
  96              	LCFI5:
  97              		.cfi_restore 5
  98              		.cfi_def_cfa 4, 4
  99 006d C3       		ret
 100              		.cfi_endproc
 101              	LFE2:
 103              	_AdjustRowNumbersFromBothRI:
 104              	LFB3:
  23:src/pdf417/PDFDetectionResult.c **** 
  24:src/pdf417/PDFDetectionResult.c **** static void AdjustRowNumbersFromBothRI(DetectionResultColumn_t * detectionResultColumns,int column,
  25:src/pdf417/PDFDetectionResult.c **** {
 105              		.loc 1 25 1
 106              		.cfi_startproc
 107 006e 55       		pushl	%ebp
 108              	LCFI6:
 109              		.cfi_def_cfa_offset 8
 110              		.cfi_offset 5, -8
 111 006f 89E5     		movl	%esp, %ebp
 112              	LCFI7:
 113              		.cfi_def_cfa_register 5
 114 0071 53       		pushl	%ebx
 115 0072 83EC44   		subl	$68, %esp
 116              		.cfi_offset 3, -12
  26:src/pdf417/PDFDetectionResult.c **** 	if ((detectionResultColumns[0].m_hasValue == 0) || detectionResultColumns[column-1].m_hasValue == 
 117              		.loc 1 26 32
 118 0075 8B4508   		movl	8(%ebp), %eax
 119 0078 0FB600   		movzbl	(%eax), %eax
 120              		.loc 1 26 5
 121 007b 84C0     		testb	%al, %al
 122 007d 0F84FD01 		je	L19
 122      0000
 123              		.loc 1 26 75 discriminator 1
 124 0083 8B450C   		movl	12(%ebp), %eax
 125 0086 69C0342F 		imull	$12084, %eax, %eax
 125      0000
 126 008c 8D90CCD0 		leal	-12084(%eax), %edx
 126      FFFF
 127 0092 8B4508   		movl	8(%ebp), %eax
 128 0095 01D0     		addl	%edx, %eax
 129              		.loc 1 26 85 discriminator 1
 130 0097 0FB600   		movzbl	(%eax), %eax
 131              		.loc 1 26 50 discriminator 1
 132 009a 84C0     		testb	%al, %al
 133 009c 0F84DE01 		je	L19
 133      0000
  27:src/pdf417/PDFDetectionResult.c **** 	{
  28:src/pdf417/PDFDetectionResult.c **** 		return;
  29:src/pdf417/PDFDetectionResult.c **** 	}
  30:src/pdf417/PDFDetectionResult.c **** 
  31:src/pdf417/PDFDetectionResult.c **** 	Codeword_t * LRIcodewords = allCodewords(&detectionResultColumns[0]);
 134              		.loc 1 31 30
 135 00a2 8B4508   		movl	8(%ebp), %eax
 136 00a5 890424   		movl	%eax, (%esp)
GAS LISTING C:\Users\jisu8\AppData\Local\Temp\cc7tZZLv.s 			page 4


 137 00a8 E8000000 		call	_allCodewords
 137      00
 138 00ad 8945EC   		movl	%eax, -20(%ebp)
  32:src/pdf417/PDFDetectionResult.c **** 	Codeword_t * RRIcodewords = allCodewords(&detectionResultColumns[column-1]);
 139              		.loc 1 32 66
 140 00b0 8B450C   		movl	12(%ebp), %eax
 141 00b3 69C0342F 		imull	$12084, %eax, %eax
 141      0000
 142 00b9 8D90CCD0 		leal	-12084(%eax), %edx
 142      FFFF
 143              		.loc 1 32 30
 144 00bf 8B4508   		movl	8(%ebp), %eax
 145 00c2 01D0     		addl	%edx, %eax
 146 00c4 890424   		movl	%eax, (%esp)
 147 00c7 E8000000 		call	_allCodewords
 147      00
 148 00cc 8945E8   		movl	%eax, -24(%ebp)
 149              	LBB2:
  33:src/pdf417/PDFDetectionResult.c **** 
  34:src/pdf417/PDFDetectionResult.c **** 	for (size_t codewordsRow = 0; codewordsRow < size; codewordsRow++) 
 150              		.loc 1 34 14
 151 00cf C745F400 		movl	$0, -12(%ebp)
 151      000000
 152              		.loc 1 34 2
 153 00d6 E9970100 		jmp	L9
 153      00
 154              	L18:
  35:src/pdf417/PDFDetectionResult.c **** 	{
  36:src/pdf417/PDFDetectionResult.c **** 
  37:src/pdf417/PDFDetectionResult.c **** 		if ((LRIcodewords[codewordsRow].m_hasValue != 0) && (RRIcodewords[codewordsRow].m_hasValue != 0) 
 155              		.loc 1 37 20
 156 00db 8B55F4   		movl	-12(%ebp), %edx
 157 00de 89D0     		movl	%edx, %eax
 158 00e0 01C0     		addl	%eax, %eax
 159 00e2 01D0     		addl	%edx, %eax
 160 00e4 C1E003   		sall	$3, %eax
 161 00e7 89C2     		movl	%eax, %edx
 162 00e9 8B45EC   		movl	-20(%ebp), %eax
 163 00ec 01D0     		addl	%edx, %eax
 164              		.loc 1 37 34
 165 00ee 0FB600   		movzbl	(%eax), %eax
 166              		.loc 1 37 6
 167 00f1 84C0     		testb	%al, %al
 168 00f3 0F847501 		je	L10
 168      0000
 169              		.loc 1 37 68 discriminator 1
 170 00f9 8B55F4   		movl	-12(%ebp), %edx
 171 00fc 89D0     		movl	%edx, %eax
 172 00fe 01C0     		addl	%eax, %eax
 173 0100 01D0     		addl	%edx, %eax
 174 0102 C1E003   		sall	$3, %eax
 175 0105 89C2     		movl	%eax, %edx
 176 0107 8B45E8   		movl	-24(%ebp), %eax
 177 010a 01D0     		addl	%edx, %eax
 178              		.loc 1 37 82 discriminator 1
 179 010c 0FB600   		movzbl	(%eax), %eax
 180              		.loc 1 37 52 discriminator 1
GAS LISTING C:\Users\jisu8\AppData\Local\Temp\cc7tZZLv.s 			page 5


 181 010f 84C0     		testb	%al, %al
 182 0111 0F845701 		je	L10
 182      0000
  38:src/pdf417/PDFDetectionResult.c **** 			(LRIcodewords[codewordsRow].m_value._rowNumber == RRIcodewords[codewordsRow].m_value._rowNumber)
 183              		.loc 1 38 17 discriminator 2
 184 0117 8B55F4   		movl	-12(%ebp), %edx
 185 011a 89D0     		movl	%edx, %eax
 186 011c 01C0     		addl	%eax, %eax
 187 011e 01D0     		addl	%edx, %eax
 188 0120 C1E003   		sall	$3, %eax
 189 0123 89C2     		movl	%eax, %edx
 190 0125 8B45EC   		movl	-20(%ebp), %eax
 191 0128 01D0     		addl	%edx, %eax
 192              		.loc 1 38 39 discriminator 2
 193 012a 8B4814   		movl	20(%eax), %ecx
 194              		.loc 1 38 66 discriminator 2
 195 012d 8B55F4   		movl	-12(%ebp), %edx
 196 0130 89D0     		movl	%edx, %eax
 197 0132 01C0     		addl	%eax, %eax
 198 0134 01D0     		addl	%edx, %eax
 199 0136 C1E003   		sall	$3, %eax
 200 0139 89C2     		movl	%eax, %edx
 201 013b 8B45E8   		movl	-24(%ebp), %eax
 202 013e 01D0     		addl	%edx, %eax
 203              		.loc 1 38 88 discriminator 2
 204 0140 8B4014   		movl	20(%eax), %eax
  37:src/pdf417/PDFDetectionResult.c **** 			(LRIcodewords[codewordsRow].m_value._rowNumber == RRIcodewords[codewordsRow].m_value._rowNumber)
 205              		.loc 1 37 100 discriminator 2
 206 0143 39C1     		cmpl	%eax, %ecx
 207 0145 0F852301 		jne	L10
 207      0000
 208              	LBB3:
  39:src/pdf417/PDFDetectionResult.c **** 		{
  40:src/pdf417/PDFDetectionResult.c **** 
  41:src/pdf417/PDFDetectionResult.c **** 			DetectionResultColumn_t * lastColumn = &detectionResultColumns[column-1];
 209              		.loc 1 41 66
 210 014b 8B450C   		movl	12(%ebp), %eax
 211 014e 69C0342F 		imull	$12084, %eax, %eax
 211      0000
 212 0154 8D90CCD0 		leal	-12084(%eax), %edx
 212      FFFF
 213              		.loc 1 41 30
 214 015a 8B4508   		movl	8(%ebp), %eax
 215 015d 01D0     		addl	%edx, %eax
 216 015f 8945E4   		movl	%eax, -28(%ebp)
 217              	LBB4:
  42:src/pdf417/PDFDetectionResult.c **** 			for (DetectionResultColumn_t * columnIter = (&detectionResultColumns[0] + 1); columnIter != last
 218              		.loc 1 42 35
 219 0162 8B4508   		movl	8(%ebp), %eax
 220 0165 05342F00 		addl	$12084, %eax
 220      00
 221 016a 8945F0   		movl	%eax, -16(%ebp)
 222              		.loc 1 42 4
 223 016d E9F00000 		jmp	L11
 223      00
 224              	L17:
 225              	LBB5:
GAS LISTING C:\Users\jisu8\AppData\Local\Temp\cc7tZZLv.s 			page 6


  43:src/pdf417/PDFDetectionResult.c **** 			{
  44:src/pdf417/PDFDetectionResult.c **** 				if (!(columnIter->m_hasValue)) 
 226              		.loc 1 44 21
 227 0172 8B45F0   		movl	-16(%ebp), %eax
 228 0175 0FB600   		movzbl	(%eax), %eax
 229              		.loc 1 44 8
 230 0178 84C0     		testb	%al, %al
 231 017a 0F84DA00 		je	L20
 231      0000
  45:src/pdf417/PDFDetectionResult.c **** 				{
  46:src/pdf417/PDFDetectionResult.c **** 					continue;
  47:src/pdf417/PDFDetectionResult.c **** 				}
  48:src/pdf417/PDFDetectionResult.c **** 				Codeword_t codeword = columnIter->m_value._codewords[codewordsRow];
 232              		.loc 1 48 16
 233 0180 8B4DF0   		movl	-16(%ebp), %ecx
 234 0183 8B55F4   		movl	-12(%ebp), %edx
 235 0186 89D0     		movl	%edx, %eax
 236 0188 01C0     		addl	%eax, %eax
 237 018a 01D0     		addl	%edx, %eax
 238 018c C1E003   		sall	$3, %eax
 239 018f 01C8     		addl	%ecx, %eax
 240 0191 83C040   		addl	$64, %eax
 241 0194 8B5010   		movl	16(%eax), %edx
 242 0197 8955CC   		movl	%edx, -52(%ebp)
 243 019a 8B5014   		movl	20(%eax), %edx
 244 019d 8955D0   		movl	%edx, -48(%ebp)
 245 01a0 8B5018   		movl	24(%eax), %edx
 246 01a3 8955D4   		movl	%edx, -44(%ebp)
 247 01a6 8B501C   		movl	28(%eax), %edx
 248 01a9 8955D8   		movl	%edx, -40(%ebp)
 249 01ac 8B5020   		movl	32(%eax), %edx
 250 01af 8955DC   		movl	%edx, -36(%ebp)
 251 01b2 8B4024   		movl	36(%eax), %eax
 252 01b5 8945E0   		movl	%eax, -32(%ebp)
  49:src/pdf417/PDFDetectionResult.c **** 				if (codeword.m_hasValue != 0) 
 253              		.loc 1 49 17
 254 01b8 0FB645CC 		movzbl	-52(%ebp), %eax
 255              		.loc 1 49 8
 256 01bc 84C0     		testb	%al, %al
 257 01be 0F849700 		je	L13
 257      0000
  50:src/pdf417/PDFDetectionResult.c **** 				{
  51:src/pdf417/PDFDetectionResult.c **** 					codeword.m_value._rowNumber = LRIcodewords[codewordsRow].m_value._rowNumber;
 258              		.loc 1 51 48
 259 01c4 8B55F4   		movl	-12(%ebp), %edx
 260 01c7 89D0     		movl	%edx, %eax
 261 01c9 01C0     		addl	%eax, %eax
 262 01cb 01D0     		addl	%edx, %eax
 263 01cd C1E003   		sall	$3, %eax
 264 01d0 89C2     		movl	%eax, %edx
 265 01d2 8B45EC   		movl	-20(%ebp), %eax
 266 01d5 01D0     		addl	%edx, %eax
 267              		.loc 1 51 70
 268 01d7 8B4014   		movl	20(%eax), %eax
 269              		.loc 1 51 34
 270 01da 8945E0   		movl	%eax, -32(%ebp)
  52:src/pdf417/PDFDetectionResult.c **** 					if (!(codeword.m_value._rowNumber != BARCODE_ROW_UNKNOWN && codeword.m_value._bucket == (codew
GAS LISTING C:\Users\jisu8\AppData\Local\Temp\cc7tZZLv.s 			page 7


 271              		.loc 1 52 28
 272 01dd 8B55E0   		movl	-32(%ebp), %edx
 273              		.loc 1 52 40
 274 01e0 A1000000 		movl	_BARCODE_ROW_UNKNOWN, %eax
 274      00
 275              		.loc 1 52 9
 276 01e5 39C2     		cmpl	%eax, %edx
 277 01e7 742C     		je	L15
 278              		.loc 1 52 82 discriminator 1
 279 01e9 8B5DD8   		movl	-40(%ebp), %ebx
 280              		.loc 1 52 111 discriminator 1
 281 01ec 8B4DE0   		movl	-32(%ebp), %ecx
 282              		.loc 1 52 123 discriminator 1
 283 01ef BA565555 		movl	$1431655766, %edx
 283      55
 284 01f4 89C8     		movl	%ecx, %eax
 285 01f6 F7EA     		imull	%edx
 286 01f8 89C8     		movl	%ecx, %eax
 287 01fa C1F81F   		sarl	$31, %eax
 288 01fd 29C2     		subl	%eax, %edx
 289 01ff 89D0     		movl	%edx, %eax
 290 0201 89C2     		movl	%eax, %edx
 291 0203 01D2     		addl	%edx, %edx
 292 0205 01C2     		addl	%eax, %edx
 293 0207 89C8     		movl	%ecx, %eax
 294 0209 29D0     		subl	%edx, %eax
 295              		.loc 1 52 128 discriminator 1
 296 020b 89C2     		movl	%eax, %edx
 297 020d 01D2     		addl	%edx, %edx
 298 020f 01D0     		addl	%edx, %eax
 299              		.loc 1 52 10 discriminator 1
 300 0211 39C3     		cmpl	%eax, %ebx
 301 0213 740B     		je	L16
 302              	L15:
  53:src/pdf417/PDFDetectionResult.c **** 					{
  54:src/pdf417/PDFDetectionResult.c **** 						clear_Codewords(&codeword);
 303              		.loc 1 54 7
 304 0215 8D45CC   		leal	-52(%ebp), %eax
 305 0218 890424   		movl	%eax, (%esp)
 306 021b E8000000 		call	_clear_Codewords
 306      00
 307              	L16:
  55:src/pdf417/PDFDetectionResult.c **** 					}
  56:src/pdf417/PDFDetectionResult.c **** 					columnIter->m_value._codewords[codewordsRow] = codeword;
 308              		.loc 1 56 51
 309 0220 8B4DF0   		movl	-16(%ebp), %ecx
 310 0223 8B55F4   		movl	-12(%ebp), %edx
 311 0226 89D0     		movl	%edx, %eax
 312 0228 01C0     		addl	%eax, %eax
 313 022a 01D0     		addl	%edx, %eax
 314 022c C1E003   		sall	$3, %eax
 315 022f 01C8     		addl	%ecx, %eax
 316 0231 83C040   		addl	$64, %eax
 317 0234 8B55CC   		movl	-52(%ebp), %edx
 318 0237 895010   		movl	%edx, 16(%eax)
 319 023a 8B55D0   		movl	-48(%ebp), %edx
 320 023d 895014   		movl	%edx, 20(%eax)
GAS LISTING C:\Users\jisu8\AppData\Local\Temp\cc7tZZLv.s 			page 8


 321 0240 8B55D4   		movl	-44(%ebp), %edx
 322 0243 895018   		movl	%edx, 24(%eax)
 323 0246 8B55D8   		movl	-40(%ebp), %edx
 324 0249 89501C   		movl	%edx, 28(%eax)
 325 024c 8B55DC   		movl	-36(%ebp), %edx
 326 024f 895020   		movl	%edx, 32(%eax)
 327 0252 8B55E0   		movl	-32(%ebp), %edx
 328 0255 895024   		movl	%edx, 36(%eax)
 329 0258 EB01     		jmp	L13
 330              	L20:
  46:src/pdf417/PDFDetectionResult.c **** 				}
 331              		.loc 1 46 6
 332 025a 90       		nop
 333              	L13:
 334              	LBE5:
  42:src/pdf417/PDFDetectionResult.c **** 			{
 335              		.loc 1 42 108 discriminator 2
 336 025b 8145F034 		addl	$12084, -16(%ebp)
 336      2F0000
 337              	L11:
  42:src/pdf417/PDFDetectionResult.c **** 			{
 338              		.loc 1 42 4 discriminator 1
 339 0262 8B45F0   		movl	-16(%ebp), %eax
 340 0265 3B45E4   		cmpl	-28(%ebp), %eax
 341 0268 0F8504FF 		jne	L17
 341      FFFF
 342              	L10:
 343              	LBE4:
 344              	LBE3:
  34:src/pdf417/PDFDetectionResult.c **** 	{
 345              		.loc 1 34 65 discriminator 2
 346 026e 8345F401 		addl	$1, -12(%ebp)
 347              	L9:
  34:src/pdf417/PDFDetectionResult.c **** 	{
 348              		.loc 1 34 45 discriminator 1
 349 0272 8B4510   		movl	16(%ebp), %eax
  34:src/pdf417/PDFDetectionResult.c **** 	{
 350              		.loc 1 34 2 discriminator 1
 351 0275 3945F4   		cmpl	%eax, -12(%ebp)
 352 0278 0F825DFE 		jb	L18
 352      FFFF
 353 027e EB01     		jmp	L5
 354              	L19:
 355              	LBE2:
  28:src/pdf417/PDFDetectionResult.c **** 	}
 356              		.loc 1 28 3
 357 0280 90       		nop
 358              	L5:
  57:src/pdf417/PDFDetectionResult.c **** 				}
  58:src/pdf417/PDFDetectionResult.c **** 			}
  59:src/pdf417/PDFDetectionResult.c **** 
  60:src/pdf417/PDFDetectionResult.c **** 		}
  61:src/pdf417/PDFDetectionResult.c **** 
  62:src/pdf417/PDFDetectionResult.c **** 	}
  63:src/pdf417/PDFDetectionResult.c **** }
 359              		.loc 1 63 1
 360 0281 83C444   		addl	$68, %esp
GAS LISTING C:\Users\jisu8\AppData\Local\Temp\cc7tZZLv.s 			page 9


 361 0284 5B       		popl	%ebx
 362              		.cfi_restore 3
 363 0285 5D       		popl	%ebp
 364              	LCFI8:
 365              		.cfi_restore 5
 366              		.cfi_def_cfa 4, 4
 367 0286 C3       		ret
 368              		.cfi_endproc
 369              	LFE3:
 371              	_AdjustRowNumberIfValid:
 372              	LFB4:
  64:src/pdf417/PDFDetectionResult.c **** 
  65:src/pdf417/PDFDetectionResult.c **** static int AdjustRowNumberIfValid(int rowIndicatorRowNumber, int invalidRowCounts, Codeword_t * cod
  66:src/pdf417/PDFDetectionResult.c **** {
 373              		.loc 1 66 1
 374              		.cfi_startproc
 375 0287 55       		pushl	%ebp
 376              	LCFI9:
 377              		.cfi_def_cfa_offset 8
 378              		.cfi_offset 5, -8
 379 0288 89E5     		movl	%esp, %ebp
 380              	LCFI10:
 381              		.cfi_def_cfa_register 5
 382 028a 53       		pushl	%ebx
 383              		.cfi_offset 3, -12
  67:src/pdf417/PDFDetectionResult.c **** 	if (!(codeword->m_value._rowNumber != BARCODE_ROW_UNKNOWN && codeword->m_value._bucket == (codewor
 384              		.loc 1 67 25
 385 028b 8B4510   		movl	16(%ebp), %eax
 386 028e 8B5014   		movl	20(%eax), %edx
 387              		.loc 1 67 37
 388 0291 A1000000 		movl	_BARCODE_ROW_UNKNOWN, %eax
 388      00
 389              		.loc 1 67 5
 390 0296 39C2     		cmpl	%eax, %edx
 391 0298 7432     		je	L22
 392              		.loc 1 67 80 discriminator 1
 393 029a 8B4510   		movl	16(%ebp), %eax
 394 029d 8B580C   		movl	12(%eax), %ebx
 395              		.loc 1 67 110 discriminator 1
 396 02a0 8B4510   		movl	16(%ebp), %eax
 397 02a3 8B4814   		movl	20(%eax), %ecx
 398              		.loc 1 67 122 discriminator 1
 399 02a6 BA565555 		movl	$1431655766, %edx
 399      55
 400 02ab 89C8     		movl	%ecx, %eax
 401 02ad F7EA     		imull	%edx
 402 02af 89C8     		movl	%ecx, %eax
 403 02b1 C1F81F   		sarl	$31, %eax
 404 02b4 29C2     		subl	%eax, %edx
 405 02b6 89D0     		movl	%edx, %eax
 406 02b8 89C2     		movl	%eax, %edx
 407 02ba 01D2     		addl	%edx, %edx
 408 02bc 01C2     		addl	%eax, %edx
 409 02be 89C8     		movl	%ecx, %eax
 410 02c0 29D0     		subl	%edx, %eax
 411              		.loc 1 67 127 discriminator 1
 412 02c2 89C2     		movl	%eax, %edx
GAS LISTING C:\Users\jisu8\AppData\Local\Temp\cc7tZZLv.s 			page 10


 413 02c4 01D2     		addl	%edx, %edx
 414 02c6 01D0     		addl	%edx, %eax
 415              		.loc 1 67 6 discriminator 1
 416 02c8 39C3     		cmpl	%eax, %ebx
 417 02ca 744F     		je	L23
 418              	L22:
  68:src/pdf417/PDFDetectionResult.c **** 	{
  69:src/pdf417/PDFDetectionResult.c **** 		if (rowIndicatorRowNumber != BARCODE_ROW_UNKNOWN && codeword->m_value._bucket == (rowIndicatorRow
 419              		.loc 1 69 29
 420 02cc A1000000 		movl	_BARCODE_ROW_UNKNOWN, %eax
 420      00
 421              		.loc 1 69 6
 422 02d1 394508   		cmpl	%eax, 8(%ebp)
 423 02d4 7441     		je	L24
 424              		.loc 1 69 72 discriminator 1
 425 02d6 8B4510   		movl	16(%ebp), %eax
 426 02d9 8B580C   		movl	12(%eax), %ebx
 427              		.loc 1 69 107 discriminator 1
 428 02dc 8B4D08   		movl	8(%ebp), %ecx
 429 02df BA565555 		movl	$1431655766, %edx
 429      55
 430 02e4 89C8     		movl	%ecx, %eax
 431 02e6 F7EA     		imull	%edx
 432 02e8 89C8     		movl	%ecx, %eax
 433 02ea C1F81F   		sarl	$31, %eax
 434 02ed 29C2     		subl	%eax, %edx
 435 02ef 89D0     		movl	%edx, %eax
 436 02f1 89C2     		movl	%eax, %edx
 437 02f3 01D2     		addl	%edx, %edx
 438 02f5 01C2     		addl	%eax, %edx
 439 02f7 89C8     		movl	%ecx, %eax
 440 02f9 29D0     		subl	%edx, %eax
 441              		.loc 1 69 112 discriminator 1
 442 02fb 89C2     		movl	%eax, %edx
 443 02fd 01D2     		addl	%edx, %edx
 444 02ff 01D0     		addl	%edx, %eax
 445              		.loc 1 69 52 discriminator 1
 446 0301 39C3     		cmpl	%eax, %ebx
 447 0303 7512     		jne	L24
  70:src/pdf417/PDFDetectionResult.c **** 		{
  71:src/pdf417/PDFDetectionResult.c **** 			codeword->m_value._rowNumber = rowIndicatorRowNumber;
 448              		.loc 1 71 33
 449 0305 8B4510   		movl	16(%ebp), %eax
 450 0308 8B5508   		movl	8(%ebp), %edx
 451 030b 895014   		movl	%edx, 20(%eax)
  72:src/pdf417/PDFDetectionResult.c **** 			invalidRowCounts = 0;
 452              		.loc 1 72 21
 453 030e C7450C00 		movl	$0, 12(%ebp)
 453      000000
 454 0315 EB04     		jmp	L23
 455              	L24:
  73:src/pdf417/PDFDetectionResult.c **** 		}
  74:src/pdf417/PDFDetectionResult.c **** 		else 
  75:src/pdf417/PDFDetectionResult.c **** 		{
  76:src/pdf417/PDFDetectionResult.c **** 			++invalidRowCounts;
 456              		.loc 1 76 4
 457 0317 83450C01 		addl	$1, 12(%ebp)
GAS LISTING C:\Users\jisu8\AppData\Local\Temp\cc7tZZLv.s 			page 11


 458              	L23:
  77:src/pdf417/PDFDetectionResult.c **** 		}
  78:src/pdf417/PDFDetectionResult.c **** 	}
  79:src/pdf417/PDFDetectionResult.c **** 	return invalidRowCounts;
 459              		.loc 1 79 9
 460 031b 8B450C   		movl	12(%ebp), %eax
  80:src/pdf417/PDFDetectionResult.c **** }
 461              		.loc 1 80 1
 462 031e 5B       		popl	%ebx
 463              		.cfi_restore 3
 464 031f 5D       		popl	%ebp
 465              	LCFI11:
 466              		.cfi_restore 5
 467              		.cfi_def_cfa 4, 4
 468 0320 C3       		ret
 469              		.cfi_endproc
 470              	LFE4:
 472              	_AdjustRowNumbersFromLRI:
 473              	LFB5:
  81:src/pdf417/PDFDetectionResult.c **** 
  82:src/pdf417/PDFDetectionResult.c **** static int AdjustRowNumbersFromLRI(DetectionResultColumn_t * detectionResultColumns,int column,int 
  83:src/pdf417/PDFDetectionResult.c **** {
 474              		.loc 1 83 1
 475              		.cfi_startproc
 476 0321 55       		pushl	%ebp
 477              	LCFI12:
 478              		.cfi_def_cfa_offset 8
 479              		.cfi_offset 5, -8
 480 0322 89E5     		movl	%esp, %ebp
 481              	LCFI13:
 482              		.cfi_def_cfa_register 5
 483 0324 53       		pushl	%ebx
 484 0325 83EC54   		subl	$84, %esp
 485              		.cfi_offset 3, -12
  84:src/pdf417/PDFDetectionResult.c **** 	if (detectionResultColumns[0].m_hasValue == 0) 
 486              		.loc 1 84 31
 487 0328 8B4508   		movl	8(%ebp), %eax
 488 032b 0FB600   		movzbl	(%eax), %eax
 489              		.loc 1 84 5
 490 032e 84C0     		testb	%al, %al
 491 0330 750A     		jne	L27
  85:src/pdf417/PDFDetectionResult.c **** 	{
  86:src/pdf417/PDFDetectionResult.c **** 		return 0;
 492              		.loc 1 86 10
 493 0332 B8000000 		movl	$0, %eax
 493      00
 494 0337 E9950100 		jmp	L28
 494      00
 495              	L27:
  87:src/pdf417/PDFDetectionResult.c **** 	}
  88:src/pdf417/PDFDetectionResult.c **** 	int unadjustedCount = 0;
 496              		.loc 1 88 6
 497 033c C745F400 		movl	$0, -12(%ebp)
 497      000000
  89:src/pdf417/PDFDetectionResult.c **** 	Codeword_t * codewords = detectionResultColumns[0].m_value._codewords;
 498              		.loc 1 89 15
 499 0343 8B4508   		movl	8(%ebp), %eax
GAS LISTING C:\Users\jisu8\AppData\Local\Temp\cc7tZZLv.s 			page 12


 500 0346 83C050   		addl	$80, %eax
 501 0349 8945E4   		movl	%eax, -28(%ebp)
 502              	LBB6:
  90:src/pdf417/PDFDetectionResult.c **** 	for (size_t codewordsRow = 0; codewordsRow < size; codewordsRow++) 
 503              		.loc 1 90 14
 504 034c C745F000 		movl	$0, -16(%ebp)
 504      000000
 505              		.loc 1 90 2
 506 0353 E96A0100 		jmp	L29
 506      00
 507              	L38:
 508              	LBB7:
  91:src/pdf417/PDFDetectionResult.c **** 	{
  92:src/pdf417/PDFDetectionResult.c **** 		if (codewords[codewordsRow].m_hasValue == 0) 
 509              		.loc 1 92 16
 510 0358 8B55F0   		movl	-16(%ebp), %edx
 511 035b 89D0     		movl	%edx, %eax
 512 035d 01C0     		addl	%eax, %eax
 513 035f 01D0     		addl	%edx, %eax
 514 0361 C1E003   		sall	$3, %eax
 515 0364 89C2     		movl	%eax, %edx
 516 0366 8B45E4   		movl	-28(%ebp), %eax
 517 0369 01D0     		addl	%edx, %eax
 518              		.loc 1 92 30
 519 036b 0FB600   		movzbl	(%eax), %eax
 520              		.loc 1 92 6
 521 036e 84C0     		testb	%al, %al
 522 0370 0F844701 		je	L39
 522      0000
  93:src/pdf417/PDFDetectionResult.c **** 		{
  94:src/pdf417/PDFDetectionResult.c **** 			continue;
  95:src/pdf417/PDFDetectionResult.c **** 		}
  96:src/pdf417/PDFDetectionResult.c **** 		int rowIndicatorRowNumber = codewords[codewordsRow].m_value._rowNumber;
 523              		.loc 1 96 40
 524 0376 8B55F0   		movl	-16(%ebp), %edx
 525 0379 89D0     		movl	%edx, %eax
 526 037b 01C0     		addl	%eax, %eax
 527 037d 01D0     		addl	%edx, %eax
 528 037f C1E003   		sall	$3, %eax
 529 0382 89C2     		movl	%eax, %edx
 530 0384 8B45E4   		movl	-28(%ebp), %eax
 531 0387 01D0     		addl	%edx, %eax
 532              		.loc 1 96 7
 533 0389 8B4014   		movl	20(%eax), %eax
 534 038c 8945E0   		movl	%eax, -32(%ebp)
  97:src/pdf417/PDFDetectionResult.c **** 		int invalidRowCounts = 0;
 535              		.loc 1 97 7
 536 038f C745EC00 		movl	$0, -20(%ebp)
 536      000000
  98:src/pdf417/PDFDetectionResult.c **** 		DetectionResultColumn_t * lastColumn = &detectionResultColumns[column-1];
 537              		.loc 1 98 65
 538 0396 8B450C   		movl	12(%ebp), %eax
 539 0399 69C0342F 		imull	$12084, %eax, %eax
 539      0000
 540 039f 8D90CCD0 		leal	-12084(%eax), %edx
 540      FFFF
 541              		.loc 1 98 29
GAS LISTING C:\Users\jisu8\AppData\Local\Temp\cc7tZZLv.s 			page 13


 542 03a5 8B4508   		movl	8(%ebp), %eax
 543 03a8 01D0     		addl	%edx, %eax
 544 03aa 8945DC   		movl	%eax, -36(%ebp)
 545              	LBB8:
  99:src/pdf417/PDFDetectionResult.c **** 		for (DetectionResultColumn_t * columnIter = &detectionResultColumns[0] + 1; columnIter != lastCol
 546              		.loc 1 99 34
 547 03ad 8B4508   		movl	8(%ebp), %eax
 548 03b0 05342F00 		addl	$12084, %eax
 548      00
 549 03b5 8945E8   		movl	%eax, -24(%ebp)
 550              		.loc 1 99 3
 551 03b8 E9E80000 		jmp	L32
 551      00
 552              	L37:
 553              	LBB9:
 100:src/pdf417/PDFDetectionResult.c **** 		{
 101:src/pdf417/PDFDetectionResult.c **** 			if (!(columnIter->m_hasValue)) 
 554              		.loc 1 101 20
 555 03bd 8B45E8   		movl	-24(%ebp), %eax
 556 03c0 0FB600   		movzbl	(%eax), %eax
 557              		.loc 1 101 7
 558 03c3 84C0     		testb	%al, %al
 559 03c5 0F84D200 		je	L40
 559      0000
 102:src/pdf417/PDFDetectionResult.c **** 			{
 103:src/pdf417/PDFDetectionResult.c **** 				continue;
 104:src/pdf417/PDFDetectionResult.c **** 			}
 105:src/pdf417/PDFDetectionResult.c **** 			Codeword_t codeword = columnIter->m_value._codewords[codewordsRow];
 560              		.loc 1 105 15
 561 03cb 8B4DE8   		movl	-24(%ebp), %ecx
 562 03ce 8B55F0   		movl	-16(%ebp), %edx
 563 03d1 89D0     		movl	%edx, %eax
 564 03d3 01C0     		addl	%eax, %eax
 565 03d5 01D0     		addl	%edx, %eax
 566 03d7 C1E003   		sall	$3, %eax
 567 03da 01C8     		addl	%ecx, %eax
 568 03dc 83C040   		addl	$64, %eax
 569 03df 8B5010   		movl	16(%eax), %edx
 570 03e2 8955C4   		movl	%edx, -60(%ebp)
 571 03e5 8B5014   		movl	20(%eax), %edx
 572 03e8 8955C8   		movl	%edx, -56(%ebp)
 573 03eb 8B5018   		movl	24(%eax), %edx
 574 03ee 8955CC   		movl	%edx, -52(%ebp)
 575 03f1 8B501C   		movl	28(%eax), %edx
 576 03f4 8955D0   		movl	%edx, -48(%ebp)
 577 03f7 8B5020   		movl	32(%eax), %edx
 578 03fa 8955D4   		movl	%edx, -44(%ebp)
 579 03fd 8B4024   		movl	36(%eax), %eax
 580 0400 8945D8   		movl	%eax, -40(%ebp)
 106:src/pdf417/PDFDetectionResult.c **** 			if (codeword.m_hasValue != 0) 
 581              		.loc 1 106 16
 582 0403 0FB645C4 		movzbl	-60(%ebp), %eax
 583              		.loc 1 106 7
 584 0407 84C0     		testb	%al, %al
 585 0409 7458     		je	L35
 107:src/pdf417/PDFDetectionResult.c **** 			{
 108:src/pdf417/PDFDetectionResult.c **** 				invalidRowCounts = AdjustRowNumberIfValid(rowIndicatorRowNumber, invalidRowCounts, &codeword);
GAS LISTING C:\Users\jisu8\AppData\Local\Temp\cc7tZZLv.s 			page 14


 586              		.loc 1 108 24
 587 040b 8D45C4   		leal	-60(%ebp), %eax
 588 040e 89442408 		movl	%eax, 8(%esp)
 589 0412 8B45EC   		movl	-20(%ebp), %eax
 590 0415 89442404 		movl	%eax, 4(%esp)
 591 0419 8B45E0   		movl	-32(%ebp), %eax
 592 041c 890424   		movl	%eax, (%esp)
 593 041f E863FEFF 		call	_AdjustRowNumberIfValid
 593      FF
 594 0424 8945EC   		movl	%eax, -20(%ebp)
 109:src/pdf417/PDFDetectionResult.c **** 				if (!(codeword.m_value._rowNumber != BARCODE_ROW_UNKNOWN && codeword.m_value._bucket == (codewo
 595              		.loc 1 109 27
 596 0427 8B55D8   		movl	-40(%ebp), %edx
 597              		.loc 1 109 39
 598 042a A1000000 		movl	_BARCODE_ROW_UNKNOWN, %eax
 598      00
 599              		.loc 1 109 8
 600 042f 39C2     		cmpl	%eax, %edx
 601 0431 742C     		je	L36
 602              		.loc 1 109 81 discriminator 1
 603 0433 8B5DD0   		movl	-48(%ebp), %ebx
 604              		.loc 1 109 110 discriminator 1
 605 0436 8B4DD8   		movl	-40(%ebp), %ecx
 606              		.loc 1 109 122 discriminator 1
 607 0439 BA565555 		movl	$1431655766, %edx
 607      55
 608 043e 89C8     		movl	%ecx, %eax
 609 0440 F7EA     		imull	%edx
 610 0442 89C8     		movl	%ecx, %eax
 611 0444 C1F81F   		sarl	$31, %eax
 612 0447 29C2     		subl	%eax, %edx
 613 0449 89D0     		movl	%edx, %eax
 614 044b 89C2     		movl	%eax, %edx
 615 044d 01D2     		addl	%edx, %edx
 616 044f 01C2     		addl	%eax, %edx
 617 0451 89C8     		movl	%ecx, %eax
 618 0453 29D0     		subl	%edx, %eax
 619              		.loc 1 109 127 discriminator 1
 620 0455 89C2     		movl	%eax, %edx
 621 0457 01D2     		addl	%edx, %edx
 622 0459 01D0     		addl	%edx, %eax
 623              		.loc 1 109 9 discriminator 1
 624 045b 39C3     		cmpl	%eax, %ebx
 625 045d 7404     		je	L35
 626              	L36:
 110:src/pdf417/PDFDetectionResult.c **** 				{
 111:src/pdf417/PDFDetectionResult.c **** 					unadjustedCount++;
 627              		.loc 1 111 21
 628 045f 8345F401 		addl	$1, -12(%ebp)
 629              	L35:
 112:src/pdf417/PDFDetectionResult.c **** 				}
 113:src/pdf417/PDFDetectionResult.c **** 			}
 114:src/pdf417/PDFDetectionResult.c **** 			columnIter->m_value._codewords[codewordsRow] = codeword;
 630              		.loc 1 114 49
 631 0463 8B4DE8   		movl	-24(%ebp), %ecx
 632 0466 8B55F0   		movl	-16(%ebp), %edx
 633 0469 89D0     		movl	%edx, %eax
GAS LISTING C:\Users\jisu8\AppData\Local\Temp\cc7tZZLv.s 			page 15


 634 046b 01C0     		addl	%eax, %eax
 635 046d 01D0     		addl	%edx, %eax
 636 046f C1E003   		sall	$3, %eax
 637 0472 01C8     		addl	%ecx, %eax
 638 0474 83C040   		addl	$64, %eax
 639 0477 8B55C4   		movl	-60(%ebp), %edx
 640 047a 895010   		movl	%edx, 16(%eax)
 641 047d 8B55C8   		movl	-56(%ebp), %edx
 642 0480 895014   		movl	%edx, 20(%eax)
 643 0483 8B55CC   		movl	-52(%ebp), %edx
 644 0486 895018   		movl	%edx, 24(%eax)
 645 0489 8B55D0   		movl	-48(%ebp), %edx
 646 048c 89501C   		movl	%edx, 28(%eax)
 647 048f 8B55D4   		movl	-44(%ebp), %edx
 648 0492 895020   		movl	%edx, 32(%eax)
 649 0495 8B55D8   		movl	-40(%ebp), %edx
 650 0498 895024   		movl	%edx, 36(%eax)
 651 049b EB01     		jmp	L34
 652              	L40:
 103:src/pdf417/PDFDetectionResult.c **** 			}
 653              		.loc 1 103 5
 654 049d 90       		nop
 655              	L34:
 656              	LBE9:
  99:src/pdf417/PDFDetectionResult.c **** 		{
 657              		.loc 1 99 150 discriminator 2
 658 049e 8145E834 		addl	$12084, -24(%ebp)
 658      2F0000
 659              	L32:
  99:src/pdf417/PDFDetectionResult.c **** 		{
 660              		.loc 1 99 3 discriminator 1
 661 04a5 8B45E8   		movl	-24(%ebp), %eax
 662 04a8 3B45DC   		cmpl	-36(%ebp), %eax
 663 04ab 7411     		je	L31
  99:src/pdf417/PDFDetectionResult.c **** 		{
 664              		.loc 1 99 124 discriminator 3
 665 04ad B8020000 		movl	$2, %eax
 665      00
  99:src/pdf417/PDFDetectionResult.c **** 		{
 666              		.loc 1 99 104 discriminator 3
 667 04b2 3945EC   		cmpl	%eax, -20(%ebp)
 668 04b5 0F8C02FF 		jl	L37
 668      FFFF
 669 04bb EB01     		jmp	L31
 670              	L39:
 671              	LBE8:
  94:src/pdf417/PDFDetectionResult.c **** 		}
 672              		.loc 1 94 4
 673 04bd 90       		nop
 674              	L31:
 675              	LBE7:
  90:src/pdf417/PDFDetectionResult.c **** 	{
 676              		.loc 1 90 65 discriminator 2
 677 04be 8345F001 		addl	$1, -16(%ebp)
 678              	L29:
  90:src/pdf417/PDFDetectionResult.c **** 	{
 679              		.loc 1 90 45 discriminator 1
GAS LISTING C:\Users\jisu8\AppData\Local\Temp\cc7tZZLv.s 			page 16


 680 04c2 8B4510   		movl	16(%ebp), %eax
  90:src/pdf417/PDFDetectionResult.c **** 	{
 681              		.loc 1 90 2 discriminator 1
 682 04c5 3945F0   		cmpl	%eax, -16(%ebp)
 683 04c8 0F828AFE 		jb	L38
 683      FFFF
 684              	LBE6:
 115:src/pdf417/PDFDetectionResult.c **** 		}
 116:src/pdf417/PDFDetectionResult.c **** 	}
 117:src/pdf417/PDFDetectionResult.c **** 	return unadjustedCount;
 685              		.loc 1 117 9
 686 04ce 8B45F4   		movl	-12(%ebp), %eax
 687              	L28:
 118:src/pdf417/PDFDetectionResult.c **** }
 688              		.loc 1 118 1
 689 04d1 83C454   		addl	$84, %esp
 690 04d4 5B       		popl	%ebx
 691              		.cfi_restore 3
 692 04d5 5D       		popl	%ebp
 693              	LCFI14:
 694              		.cfi_restore 5
 695              		.cfi_def_cfa 4, 4
 696 04d6 C3       		ret
 697              		.cfi_endproc
 698              	LFE5:
 700              	_AdjustRowNumbersFromRRI:
 701              	LFB6:
 119:src/pdf417/PDFDetectionResult.c **** 
 120:src/pdf417/PDFDetectionResult.c **** static int AdjustRowNumbersFromRRI(DetectionResultColumn_t *detectionResultColumns,int column,int s
 121:src/pdf417/PDFDetectionResult.c **** {
 702              		.loc 1 121 1
 703              		.cfi_startproc
 704 04d7 55       		pushl	%ebp
 705              	LCFI15:
 706              		.cfi_def_cfa_offset 8
 707              		.cfi_offset 5, -8
 708 04d8 89E5     		movl	%esp, %ebp
 709              	LCFI16:
 710              		.cfi_def_cfa_register 5
 711 04da 53       		pushl	%ebx
 712 04db 83EC54   		subl	$84, %esp
 713              		.cfi_offset 3, -12
 122:src/pdf417/PDFDetectionResult.c **** 	if (detectionResultColumns[column-1].m_hasValue == 0) 
 714              		.loc 1 122 28
 715 04de 8B450C   		movl	12(%ebp), %eax
 716 04e1 69C0342F 		imull	$12084, %eax, %eax
 716      0000
 717 04e7 8D90CCD0 		leal	-12084(%eax), %edx
 717      FFFF
 718 04ed 8B4508   		movl	8(%ebp), %eax
 719 04f0 01D0     		addl	%edx, %eax
 720              		.loc 1 122 38
 721 04f2 0FB600   		movzbl	(%eax), %eax
 722              		.loc 1 122 5
 723 04f5 84C0     		testb	%al, %al
 724 04f7 750A     		jne	L42
 123:src/pdf417/PDFDetectionResult.c **** 	{
GAS LISTING C:\Users\jisu8\AppData\Local\Temp\cc7tZZLv.s 			page 17


 124:src/pdf417/PDFDetectionResult.c **** 		return 0;
 725              		.loc 1 124 10
 726 04f9 B8000000 		movl	$0, %eax
 726      00
 727 04fe E9A60100 		jmp	L43
 727      00
 728              	L42:
 125:src/pdf417/PDFDetectionResult.c **** 	}
 126:src/pdf417/PDFDetectionResult.c **** 	int unadjustedCount = 0;
 729              		.loc 1 126 6
 730 0503 C745F400 		movl	$0, -12(%ebp)
 730      000000
 127:src/pdf417/PDFDetectionResult.c **** 	Codeword_t * codewords = detectionResultColumns[column-1].m_value._codewords;
 731              		.loc 1 127 49
 732 050a 8B450C   		movl	12(%ebp), %eax
 733 050d 69C0342F 		imull	$12084, %eax, %eax
 733      0000
 734 0513 8D90CCD0 		leal	-12084(%eax), %edx
 734      FFFF
 735 0519 8B4508   		movl	8(%ebp), %eax
 736 051c 01D0     		addl	%edx, %eax
 737              		.loc 1 127 15
 738 051e 83C050   		addl	$80, %eax
 739 0521 8945E4   		movl	%eax, -28(%ebp)
 740              	LBB10:
 128:src/pdf417/PDFDetectionResult.c **** 	for (size_t codewordsRow = 0; codewordsRow < size; codewordsRow++) 
 741              		.loc 1 128 14
 742 0524 C745F000 		movl	$0, -16(%ebp)
 742      000000
 743              		.loc 1 128 2
 744 052b E96A0100 		jmp	L44
 744      00
 745              	L53:
 746              	LBB11:
 129:src/pdf417/PDFDetectionResult.c **** 	{
 130:src/pdf417/PDFDetectionResult.c **** 		if (codewords[codewordsRow].m_hasValue == 0) 
 747              		.loc 1 130 16
 748 0530 8B55F0   		movl	-16(%ebp), %edx
 749 0533 89D0     		movl	%edx, %eax
 750 0535 01C0     		addl	%eax, %eax
 751 0537 01D0     		addl	%edx, %eax
 752 0539 C1E003   		sall	$3, %eax
 753 053c 89C2     		movl	%eax, %edx
 754 053e 8B45E4   		movl	-28(%ebp), %eax
 755 0541 01D0     		addl	%edx, %eax
 756              		.loc 1 130 30
 757 0543 0FB600   		movzbl	(%eax), %eax
 758              		.loc 1 130 6
 759 0546 84C0     		testb	%al, %al
 760 0548 0F844701 		je	L54
 760      0000
 131:src/pdf417/PDFDetectionResult.c **** 		{
 132:src/pdf417/PDFDetectionResult.c **** 			continue;
 133:src/pdf417/PDFDetectionResult.c **** 		}
 134:src/pdf417/PDFDetectionResult.c **** 		int rowIndicatorRowNumber = codewords[codewordsRow].m_value._rowNumber;
 761              		.loc 1 134 40
 762 054e 8B55F0   		movl	-16(%ebp), %edx
GAS LISTING C:\Users\jisu8\AppData\Local\Temp\cc7tZZLv.s 			page 18


 763 0551 89D0     		movl	%edx, %eax
 764 0553 01C0     		addl	%eax, %eax
 765 0555 01D0     		addl	%edx, %eax
 766 0557 C1E003   		sall	$3, %eax
 767 055a 89C2     		movl	%eax, %edx
 768 055c 8B45E4   		movl	-28(%ebp), %eax
 769 055f 01D0     		addl	%edx, %eax
 770              		.loc 1 134 7
 771 0561 8B4014   		movl	20(%eax), %eax
 772 0564 8945E0   		movl	%eax, -32(%ebp)
 135:src/pdf417/PDFDetectionResult.c **** 		int invalidRowCounts = 0;
 773              		.loc 1 135 7
 774 0567 C745EC00 		movl	$0, -20(%ebp)
 774      000000
 136:src/pdf417/PDFDetectionResult.c **** 		DetectionResultColumn_t * lastColumn = &detectionResultColumns[column-1];
 775              		.loc 1 136 65
 776 056e 8B450C   		movl	12(%ebp), %eax
 777 0571 69C0342F 		imull	$12084, %eax, %eax
 777      0000
 778 0577 8D90CCD0 		leal	-12084(%eax), %edx
 778      FFFF
 779              		.loc 1 136 29
 780 057d 8B4508   		movl	8(%ebp), %eax
 781 0580 01D0     		addl	%edx, %eax
 782 0582 8945DC   		movl	%eax, -36(%ebp)
 783              	LBB12:
 137:src/pdf417/PDFDetectionResult.c **** 		for (DetectionResultColumn_t * columnIter = &detectionResultColumns[0] + 1; columnIter != lastCol
 784              		.loc 1 137 34
 785 0585 8B4508   		movl	8(%ebp), %eax
 786 0588 05342F00 		addl	$12084, %eax
 786      00
 787 058d 8945E8   		movl	%eax, -24(%ebp)
 788              		.loc 1 137 3
 789 0590 E9E80000 		jmp	L47
 789      00
 790              	L52:
 791              	LBB13:
 138:src/pdf417/PDFDetectionResult.c **** 		{
 139:src/pdf417/PDFDetectionResult.c **** 			if (!(columnIter->m_hasValue)) 
 792              		.loc 1 139 20
 793 0595 8B45E8   		movl	-24(%ebp), %eax
 794 0598 0FB600   		movzbl	(%eax), %eax
 795              		.loc 1 139 7
 796 059b 84C0     		testb	%al, %al
 797 059d 0F84D200 		je	L55
 797      0000
 140:src/pdf417/PDFDetectionResult.c **** 			{
 141:src/pdf417/PDFDetectionResult.c **** 				continue;
 142:src/pdf417/PDFDetectionResult.c **** 			}
 143:src/pdf417/PDFDetectionResult.c **** 			Codeword_t codeword = columnIter->m_value._codewords[codewordsRow];
 798              		.loc 1 143 15
 799 05a3 8B4DE8   		movl	-24(%ebp), %ecx
 800 05a6 8B55F0   		movl	-16(%ebp), %edx
 801 05a9 89D0     		movl	%edx, %eax
 802 05ab 01C0     		addl	%eax, %eax
 803 05ad 01D0     		addl	%edx, %eax
 804 05af C1E003   		sall	$3, %eax
GAS LISTING C:\Users\jisu8\AppData\Local\Temp\cc7tZZLv.s 			page 19


 805 05b2 01C8     		addl	%ecx, %eax
 806 05b4 83C040   		addl	$64, %eax
 807 05b7 8B5010   		movl	16(%eax), %edx
 808 05ba 8955C4   		movl	%edx, -60(%ebp)
 809 05bd 8B5014   		movl	20(%eax), %edx
 810 05c0 8955C8   		movl	%edx, -56(%ebp)
 811 05c3 8B5018   		movl	24(%eax), %edx
 812 05c6 8955CC   		movl	%edx, -52(%ebp)
 813 05c9 8B501C   		movl	28(%eax), %edx
 814 05cc 8955D0   		movl	%edx, -48(%ebp)
 815 05cf 8B5020   		movl	32(%eax), %edx
 816 05d2 8955D4   		movl	%edx, -44(%ebp)
 817 05d5 8B4024   		movl	36(%eax), %eax
 818 05d8 8945D8   		movl	%eax, -40(%ebp)
 144:src/pdf417/PDFDetectionResult.c **** 			if (codeword.m_hasValue != 0) 
 819              		.loc 1 144 16
 820 05db 0FB645C4 		movzbl	-60(%ebp), %eax
 821              		.loc 1 144 7
 822 05df 84C0     		testb	%al, %al
 823 05e1 7458     		je	L50
 145:src/pdf417/PDFDetectionResult.c **** 			{
 146:src/pdf417/PDFDetectionResult.c **** 				invalidRowCounts = AdjustRowNumberIfValid(rowIndicatorRowNumber, invalidRowCounts, &codeword);
 824              		.loc 1 146 24
 825 05e3 8D45C4   		leal	-60(%ebp), %eax
 826 05e6 89442408 		movl	%eax, 8(%esp)
 827 05ea 8B45EC   		movl	-20(%ebp), %eax
 828 05ed 89442404 		movl	%eax, 4(%esp)
 829 05f1 8B45E0   		movl	-32(%ebp), %eax
 830 05f4 890424   		movl	%eax, (%esp)
 831 05f7 E88BFCFF 		call	_AdjustRowNumberIfValid
 831      FF
 832 05fc 8945EC   		movl	%eax, -20(%ebp)
 147:src/pdf417/PDFDetectionResult.c **** 				if (!(codeword.m_value._rowNumber != BARCODE_ROW_UNKNOWN && codeword.m_value._bucket == (codewo
 833              		.loc 1 147 27
 834 05ff 8B55D8   		movl	-40(%ebp), %edx
 835              		.loc 1 147 39
 836 0602 A1000000 		movl	_BARCODE_ROW_UNKNOWN, %eax
 836      00
 837              		.loc 1 147 8
 838 0607 39C2     		cmpl	%eax, %edx
 839 0609 742C     		je	L51
 840              		.loc 1 147 81 discriminator 1
 841 060b 8B5DD0   		movl	-48(%ebp), %ebx
 842              		.loc 1 147 110 discriminator 1
 843 060e 8B4DD8   		movl	-40(%ebp), %ecx
 844              		.loc 1 147 122 discriminator 1
 845 0611 BA565555 		movl	$1431655766, %edx
 845      55
 846 0616 89C8     		movl	%ecx, %eax
 847 0618 F7EA     		imull	%edx
 848 061a 89C8     		movl	%ecx, %eax
 849 061c C1F81F   		sarl	$31, %eax
 850 061f 29C2     		subl	%eax, %edx
 851 0621 89D0     		movl	%edx, %eax
 852 0623 89C2     		movl	%eax, %edx
 853 0625 01D2     		addl	%edx, %edx
 854 0627 01C2     		addl	%eax, %edx
GAS LISTING C:\Users\jisu8\AppData\Local\Temp\cc7tZZLv.s 			page 20


 855 0629 89C8     		movl	%ecx, %eax
 856 062b 29D0     		subl	%edx, %eax
 857              		.loc 1 147 127 discriminator 1
 858 062d 89C2     		movl	%eax, %edx
 859 062f 01D2     		addl	%edx, %edx
 860 0631 01D0     		addl	%edx, %eax
 861              		.loc 1 147 9 discriminator 1
 862 0633 39C3     		cmpl	%eax, %ebx
 863 0635 7404     		je	L50
 864              	L51:
 148:src/pdf417/PDFDetectionResult.c **** 				{
 149:src/pdf417/PDFDetectionResult.c **** 					unadjustedCount++;
 865              		.loc 1 149 21
 866 0637 8345F401 		addl	$1, -12(%ebp)
 867              	L50:
 150:src/pdf417/PDFDetectionResult.c **** 				}
 151:src/pdf417/PDFDetectionResult.c **** 			}
 152:src/pdf417/PDFDetectionResult.c **** 			columnIter->m_value._codewords[codewordsRow] = codeword;
 868              		.loc 1 152 49
 869 063b 8B4DE8   		movl	-24(%ebp), %ecx
 870 063e 8B55F0   		movl	-16(%ebp), %edx
 871 0641 89D0     		movl	%edx, %eax
 872 0643 01C0     		addl	%eax, %eax
 873 0645 01D0     		addl	%edx, %eax
 874 0647 C1E003   		sall	$3, %eax
 875 064a 01C8     		addl	%ecx, %eax
 876 064c 83C040   		addl	$64, %eax
 877 064f 8B55C4   		movl	-60(%ebp), %edx
 878 0652 895010   		movl	%edx, 16(%eax)
 879 0655 8B55C8   		movl	-56(%ebp), %edx
 880 0658 895014   		movl	%edx, 20(%eax)
 881 065b 8B55CC   		movl	-52(%ebp), %edx
 882 065e 895018   		movl	%edx, 24(%eax)
 883 0661 8B55D0   		movl	-48(%ebp), %edx
 884 0664 89501C   		movl	%edx, 28(%eax)
 885 0667 8B55D4   		movl	-44(%ebp), %edx
 886 066a 895020   		movl	%edx, 32(%eax)
 887 066d 8B55D8   		movl	-40(%ebp), %edx
 888 0670 895024   		movl	%edx, 36(%eax)
 889 0673 EB01     		jmp	L49
 890              	L55:
 141:src/pdf417/PDFDetectionResult.c **** 			}
 891              		.loc 1 141 5
 892 0675 90       		nop
 893              	L49:
 894              	LBE13:
 137:src/pdf417/PDFDetectionResult.c **** 		{
 895              		.loc 1 137 150 discriminator 2
 896 0676 8145E834 		addl	$12084, -24(%ebp)
 896      2F0000
 897              	L47:
 137:src/pdf417/PDFDetectionResult.c **** 		{
 898              		.loc 1 137 3 discriminator 1
 899 067d 8B45E8   		movl	-24(%ebp), %eax
 900 0680 3B45DC   		cmpl	-36(%ebp), %eax
 901 0683 7411     		je	L46
 137:src/pdf417/PDFDetectionResult.c **** 		{
GAS LISTING C:\Users\jisu8\AppData\Local\Temp\cc7tZZLv.s 			page 21


 902              		.loc 1 137 124 discriminator 3
 903 0685 B8020000 		movl	$2, %eax
 903      00
 137:src/pdf417/PDFDetectionResult.c **** 		{
 904              		.loc 1 137 104 discriminator 3
 905 068a 3945EC   		cmpl	%eax, -20(%ebp)
 906 068d 0F8C02FF 		jl	L52
 906      FFFF
 907 0693 EB01     		jmp	L46
 908              	L54:
 909              	LBE12:
 132:src/pdf417/PDFDetectionResult.c **** 		}
 910              		.loc 1 132 4
 911 0695 90       		nop
 912              	L46:
 913              	LBE11:
 128:src/pdf417/PDFDetectionResult.c **** 	{
 914              		.loc 1 128 65 discriminator 2
 915 0696 8345F001 		addl	$1, -16(%ebp)
 916              	L44:
 128:src/pdf417/PDFDetectionResult.c **** 	{
 917              		.loc 1 128 45 discriminator 1
 918 069a 8B4510   		movl	16(%ebp), %eax
 128:src/pdf417/PDFDetectionResult.c **** 	{
 919              		.loc 1 128 2 discriminator 1
 920 069d 3945F0   		cmpl	%eax, -16(%ebp)
 921 06a0 0F828AFE 		jb	L53
 921      FFFF
 922              	LBE10:
 153:src/pdf417/PDFDetectionResult.c **** 		}
 154:src/pdf417/PDFDetectionResult.c **** 	}
 155:src/pdf417/PDFDetectionResult.c **** 
 156:src/pdf417/PDFDetectionResult.c **** 	return unadjustedCount;
 923              		.loc 1 156 9
 924 06a6 8B45F4   		movl	-12(%ebp), %eax
 925              	L43:
 157:src/pdf417/PDFDetectionResult.c **** }
 926              		.loc 1 157 1
 927 06a9 83C454   		addl	$84, %esp
 928 06ac 5B       		popl	%ebx
 929              		.cfi_restore 3
 930 06ad 5D       		popl	%ebp
 931              	LCFI17:
 932              		.cfi_restore 5
 933              		.cfi_def_cfa 4, 4
 934 06ae C3       		ret
 935              		.cfi_endproc
 936              	LFE6:
 938              	_AdjustRowNumbersByRow:
 939              	LFB7:
 158:src/pdf417/PDFDetectionResult.c **** 
 159:src/pdf417/PDFDetectionResult.c **** static int AdjustRowNumbersByRow(DetectionResultColumn_t * detectionResultColumns,int column,int si
 160:src/pdf417/PDFDetectionResult.c **** {
 940              		.loc 1 160 1
 941              		.cfi_startproc
 942 06af 55       		pushl	%ebp
 943              	LCFI18:
GAS LISTING C:\Users\jisu8\AppData\Local\Temp\cc7tZZLv.s 			page 22


 944              		.cfi_def_cfa_offset 8
 945              		.cfi_offset 5, -8
 946 06b0 89E5     		movl	%esp, %ebp
 947              	LCFI19:
 948              		.cfi_def_cfa_register 5
 949 06b2 83EC28   		subl	$40, %esp
 161:src/pdf417/PDFDetectionResult.c **** 
 162:src/pdf417/PDFDetectionResult.c **** 	AdjustRowNumbersFromBothRI(detectionResultColumns,column,size);
 950              		.loc 1 162 2
 951 06b5 8B4510   		movl	16(%ebp), %eax
 952 06b8 89442408 		movl	%eax, 8(%esp)
 953 06bc 8B450C   		movl	12(%ebp), %eax
 954 06bf 89442404 		movl	%eax, 4(%esp)
 955 06c3 8B4508   		movl	8(%ebp), %eax
 956 06c6 890424   		movl	%eax, (%esp)
 957 06c9 E8A0F9FF 		call	_AdjustRowNumbersFromBothRI
 957      FF
 163:src/pdf417/PDFDetectionResult.c **** 	// TODO we should only do full row adjustments if row numbers of left and right row indicator colu
 164:src/pdf417/PDFDetectionResult.c **** 	// Maybe it's even better to calculated the height (in codeword rows) and divide it by the number 
 165:src/pdf417/PDFDetectionResult.c **** 	// rows. This, together with the LRI and RRI row numbers should allow us to get a good estimate wh
 166:src/pdf417/PDFDetectionResult.c **** 	// number starts and ends.
 167:src/pdf417/PDFDetectionResult.c **** 	int unadjustedCount = AdjustRowNumbersFromLRI(detectionResultColumns,column,size);
 958              		.loc 1 167 24
 959 06ce 8B4510   		movl	16(%ebp), %eax
 960 06d1 89442408 		movl	%eax, 8(%esp)
 961 06d5 8B450C   		movl	12(%ebp), %eax
 962 06d8 89442404 		movl	%eax, 4(%esp)
 963 06dc 8B4508   		movl	8(%ebp), %eax
 964 06df 890424   		movl	%eax, (%esp)
 965 06e2 E83AFCFF 		call	_AdjustRowNumbersFromLRI
 965      FF
 966 06e7 8945F4   		movl	%eax, -12(%ebp)
 168:src/pdf417/PDFDetectionResult.c **** 	return unadjustedCount + AdjustRowNumbersFromRRI(detectionResultColumns,column,size);
 967              		.loc 1 168 27
 968 06ea 8B4510   		movl	16(%ebp), %eax
 969 06ed 89442408 		movl	%eax, 8(%esp)
 970 06f1 8B450C   		movl	12(%ebp), %eax
 971 06f4 89442404 		movl	%eax, 4(%esp)
 972 06f8 8B4508   		movl	8(%ebp), %eax
 973 06fb 890424   		movl	%eax, (%esp)
 974 06fe E8D4FDFF 		call	_AdjustRowNumbersFromRRI
 974      FF
 975 0703 89C2     		movl	%eax, %edx
 976              		.loc 1 168 25
 977 0705 8B45F4   		movl	-12(%ebp), %eax
 978 0708 01D0     		addl	%edx, %eax
 169:src/pdf417/PDFDetectionResult.c **** 
 170:src/pdf417/PDFDetectionResult.c **** }
 979              		.loc 1 170 1
 980 070a C9       		leave
 981              	LCFI20:
 982              		.cfi_restore 5
 983              		.cfi_def_cfa 4, 4
 984 070b C3       		ret
 985              		.cfi_endproc
 986              	LFE7:
 988              	_AdjustRowNumber:
GAS LISTING C:\Users\jisu8\AppData\Local\Temp\cc7tZZLv.s 			page 23


 989              	LFB8:
 171:src/pdf417/PDFDetectionResult.c **** 
 172:src/pdf417/PDFDetectionResult.c **** /**
 173:src/pdf417/PDFDetectionResult.c **** * @return true, if row number was adjusted, false otherwise
 174:src/pdf417/PDFDetectionResult.c **** */
 175:src/pdf417/PDFDetectionResult.c **** static uint8_t AdjustRowNumber(Codeword_t * codeword, const Codeword_t * otherCodeword) 
 176:src/pdf417/PDFDetectionResult.c **** {
 990              		.loc 1 176 1
 991              		.cfi_startproc
 992 070c 55       		pushl	%ebp
 993              	LCFI21:
 994              		.cfi_def_cfa_offset 8
 995              		.cfi_offset 5, -8
 996 070d 89E5     		movl	%esp, %ebp
 997              	LCFI22:
 998              		.cfi_def_cfa_register 5
 999 070f 53       		pushl	%ebx
 1000              		.cfi_offset 3, -12
 177:src/pdf417/PDFDetectionResult.c **** 	if ((codeword->m_hasValue != 0) && (otherCodeword->m_hasValue != 0) && 
 1001              		.loc 1 177 15
 1002 0710 8B4508   		movl	8(%ebp), %eax
 1003 0713 0FB600   		movzbl	(%eax), %eax
 1004              		.loc 1 177 5
 1005 0716 84C0     		testb	%al, %al
 1006 0718 746E     		je	L59
 1007              		.loc 1 177 51 discriminator 1
 1008 071a 8B450C   		movl	12(%ebp), %eax
 1009 071d 0FB600   		movzbl	(%eax), %eax
 1010              		.loc 1 177 34 discriminator 1
 1011 0720 84C0     		testb	%al, %al
 1012 0722 7464     		je	L59
 178:src/pdf417/PDFDetectionResult.c **** 	   ((otherCodeword->m_value._rowNumber != BARCODE_ROW_UNKNOWN) && (otherCodeword->m_value._bucket 
 1013              		.loc 1 178 29 discriminator 2
 1014 0724 8B450C   		movl	12(%ebp), %eax
 1015 0727 8B5014   		movl	20(%eax), %edx
 1016              		.loc 1 178 41 discriminator 2
 1017 072a A1000000 		movl	_BARCODE_ROW_UNKNOWN, %eax
 1017      00
 177:src/pdf417/PDFDetectionResult.c **** 	if ((codeword->m_hasValue != 0) && (otherCodeword->m_hasValue != 0) && 
 1018              		.loc 1 177 70 discriminator 2
 1019 072f 39C2     		cmpl	%eax, %edx
 1020 0731 7455     		je	L59
 1021              		.loc 1 178 91
 1022 0733 8B450C   		movl	12(%ebp), %eax
 1023 0736 8B580C   		movl	12(%eax), %ebx
 1024              		.loc 1 178 126
 1025 0739 8B450C   		movl	12(%ebp), %eax
 1026 073c 8B4814   		movl	20(%eax), %ecx
 1027              		.loc 1 178 138
 1028 073f BA565555 		movl	$1431655766, %edx
 1028      55
 1029 0744 89C8     		movl	%ecx, %eax
 1030 0746 F7EA     		imull	%edx
 1031 0748 89C8     		movl	%ecx, %eax
 1032 074a C1F81F   		sarl	$31, %eax
 1033 074d 29C2     		subl	%eax, %edx
 1034 074f 89D0     		movl	%edx, %eax
GAS LISTING C:\Users\jisu8\AppData\Local\Temp\cc7tZZLv.s 			page 24


 1035 0751 89C2     		movl	%eax, %edx
 1036 0753 01D2     		addl	%edx, %edx
 1037 0755 01C2     		addl	%eax, %edx
 1038 0757 89C8     		movl	%ecx, %eax
 1039 0759 29D0     		subl	%edx, %eax
 1040              		.loc 1 178 143
 1041 075b 89C2     		movl	%eax, %edx
 1042 075d 01D2     		addl	%edx, %edx
 1043 075f 01D0     		addl	%edx, %eax
 1044              		.loc 1 178 65
 1045 0761 39C3     		cmpl	%eax, %ebx
 1046 0763 7523     		jne	L59
 179:src/pdf417/PDFDetectionResult.c **** 	   (otherCodeword->m_value._bucket == codeword->m_value._bucket)) 
 1047              		.loc 1 179 28 discriminator 1
 1048 0765 8B450C   		movl	12(%ebp), %eax
 1049 0768 8B500C   		movl	12(%eax), %edx
 1050              		.loc 1 179 57 discriminator 1
 1051 076b 8B4508   		movl	8(%ebp), %eax
 1052 076e 8B400C   		movl	12(%eax), %eax
 178:src/pdf417/PDFDetectionResult.c **** 	   ((otherCodeword->m_value._rowNumber != BARCODE_ROW_UNKNOWN) && (otherCodeword->m_value._bucket 
 1053              		.loc 1 178 149 discriminator 1
 1054 0771 39C2     		cmpl	%eax, %edx
 1055 0773 7513     		jne	L59
 180:src/pdf417/PDFDetectionResult.c **** 	{
 181:src/pdf417/PDFDetectionResult.c **** 		codeword->m_value._rowNumber = (otherCodeword->m_value._rowNumber);
 1056              		.loc 1 181 57
 1057 0775 8B450C   		movl	12(%ebp), %eax
 1058 0778 8B5014   		movl	20(%eax), %edx
 1059              		.loc 1 181 32
 1060 077b 8B4508   		movl	8(%ebp), %eax
 1061 077e 895014   		movl	%edx, 20(%eax)
 182:src/pdf417/PDFDetectionResult.c **** 		return 1;
 1062              		.loc 1 182 10
 1063 0781 B8010000 		movl	$1, %eax
 1063      00
 1064 0786 EB05     		jmp	L60
 1065              	L59:
 183:src/pdf417/PDFDetectionResult.c **** 	}
 184:src/pdf417/PDFDetectionResult.c **** 	return 0;
 1066              		.loc 1 184 9
 1067 0788 B8000000 		movl	$0, %eax
 1067      00
 1068              	L60:
 185:src/pdf417/PDFDetectionResult.c **** }
 1069              		.loc 1 185 1
 1070 078d 5B       		popl	%ebx
 1071              		.cfi_restore 3
 1072 078e 5D       		popl	%ebp
 1073              	LCFI23:
 1074              		.cfi_restore 5
 1075              		.cfi_def_cfa 4, 4
 1076 078f C3       		ret
 1077              		.cfi_endproc
 1078              	LFE8:
 1080              	_AdjustRowNumbers_internal:
 1081              	LFB9:
 186:src/pdf417/PDFDetectionResult.c **** 
GAS LISTING C:\Users\jisu8\AppData\Local\Temp\cc7tZZLv.s 			page 25


 187:src/pdf417/PDFDetectionResult.c **** 
 188:src/pdf417/PDFDetectionResult.c **** static void AdjustRowNumbers_internal(const DetectionResultColumn_t * detectionResultColumns, int b
 189:src/pdf417/PDFDetectionResult.c **** {
 1082              		.loc 1 189 1
 1083              		.cfi_startproc
 1084 0790 55       		pushl	%ebp
 1085              	LCFI24:
 1086              		.cfi_def_cfa_offset 8
 1087              		.cfi_offset 5, -8
 1088 0791 89E5     		movl	%esp, %ebp
 1089              	LCFI25:
 1090              		.cfi_def_cfa_register 5
 1091 0793 81EC9801 		subl	$408, %esp
 1091      0000
 190:src/pdf417/PDFDetectionResult.c **** 	Codeword_t codeword = codewords[codewordsRow];
 1092              		.loc 1 190 33
 1093 0799 8B5510   		movl	16(%ebp), %edx
 1094 079c 89D0     		movl	%edx, %eax
 1095 079e 01C0     		addl	%eax, %eax
 1096 07a0 01D0     		addl	%edx, %eax
 1097 07a2 C1E003   		sall	$3, %eax
 1098 07a5 89C2     		movl	%eax, %edx
 1099 07a7 8B4514   		movl	20(%ebp), %eax
 1100 07aa 01D0     		addl	%edx, %eax
 1101              		.loc 1 190 13
 1102 07ac 8B10     		movl	(%eax), %edx
 1103 07ae 8955D0   		movl	%edx, -48(%ebp)
 1104 07b1 8B5004   		movl	4(%eax), %edx
 1105 07b4 8955D4   		movl	%edx, -44(%ebp)
 1106 07b7 8B5008   		movl	8(%eax), %edx
 1107 07ba 8955D8   		movl	%edx, -40(%ebp)
 1108 07bd 8B500C   		movl	12(%eax), %edx
 1109 07c0 8955DC   		movl	%edx, -36(%ebp)
 1110 07c3 8B5010   		movl	16(%eax), %edx
 1111 07c6 8955E0   		movl	%edx, -32(%ebp)
 1112 07c9 8B4014   		movl	20(%eax), %eax
 1113 07cc 8945E4   		movl	%eax, -28(%ebp)
 191:src/pdf417/PDFDetectionResult.c **** 	Codeword_t * previousColumnCodewords = allCodewords(&detectionResultColumns[barcodeColumn - 1]);
 1114              		.loc 1 191 77
 1115 07cf 8B450C   		movl	12(%ebp), %eax
 1116 07d2 69C0342F 		imull	$12084, %eax, %eax
 1116      0000
 1117 07d8 8D90CCD0 		leal	-12084(%eax), %edx
 1117      FFFF
 1118              		.loc 1 191 54
 1119 07de 8B4508   		movl	8(%ebp), %eax
 1120 07e1 01D0     		addl	%edx, %eax
 1121              		.loc 1 191 41
 1122 07e3 890424   		movl	%eax, (%esp)
 1123 07e6 E8000000 		call	_allCodewords
 1123      00
 1124 07eb 8945F0   		movl	%eax, -16(%ebp)
 192:src/pdf417/PDFDetectionResult.c **** 	Codeword_t * nextColumnCodewords = detectionResultColumns[barcodeColumn + 1].m_hasValue != 0 ? all
 1125              		.loc 1 192 59
 1126 07ee 8B450C   		movl	12(%ebp), %eax
 1127 07f1 83C001   		addl	$1, %eax
 1128 07f4 69D0342F 		imull	$12084, %eax, %edx
GAS LISTING C:\Users\jisu8\AppData\Local\Temp\cc7tZZLv.s 			page 26


 1128      0000
 1129 07fa 8B4508   		movl	8(%ebp), %eax
 1130 07fd 01D0     		addl	%edx, %eax
 1131              		.loc 1 192 78
 1132 07ff 0FB600   		movzbl	(%eax), %eax
 1133              		.loc 1 192 154
 1134 0802 84C0     		testb	%al, %al
 1135 0804 741B     		je	L62
 1136              		.loc 1 192 133 discriminator 1
 1137 0806 8B450C   		movl	12(%ebp), %eax
 1138              		.loc 1 192 97 discriminator 1
 1139 0809 83C001   		addl	$1, %eax
 1140 080c 69D0342F 		imull	$12084, %eax, %edx
 1140      0000
 1141              		.loc 1 192 110 discriminator 1
 1142 0812 8B4508   		movl	8(%ebp), %eax
 1143 0815 01D0     		addl	%edx, %eax
 1144              		.loc 1 192 97 discriminator 1
 1145 0817 890424   		movl	%eax, (%esp)
 1146 081a E8000000 		call	_allCodewords
 1146      00
 1147 081f EB03     		jmp	L63
 1148              	L62:
 1149              		.loc 1 192 154 discriminator 2
 1150 0821 8B45F0   		movl	-16(%ebp), %eax
 1151              	L63:
 1152              		.loc 1 192 15 discriminator 4
 1153 0824 8945EC   		movl	%eax, -20(%ebp)
 193:src/pdf417/PDFDetectionResult.c **** 
 194:src/pdf417/PDFDetectionResult.c **** 	Codeword_t otherCodewords[14];
 195:src/pdf417/PDFDetectionResult.c **** 	int size1 = sizeof(otherCodewords)/sizeof(otherCodewords[0]);
 1154              		.loc 1 195 6 discriminator 4
 1155 0827 C745E80E 		movl	$14, -24(%ebp)
 1155      000000
 196:src/pdf417/PDFDetectionResult.c **** 
 197:src/pdf417/PDFDetectionResult.c **** 	otherCodewords[2] = previousColumnCodewords[codewordsRow];
 1156              		.loc 1 197 45 discriminator 4
 1157 082e 8B5510   		movl	16(%ebp), %edx
 1158 0831 89D0     		movl	%edx, %eax
 1159 0833 01C0     		addl	%eax, %eax
 1160 0835 01D0     		addl	%edx, %eax
 1161 0837 C1E003   		sall	$3, %eax
 1162 083a 89C2     		movl	%eax, %edx
 1163 083c 8B45F0   		movl	-16(%ebp), %eax
 1164 083f 01D0     		addl	%edx, %eax
 1165              		.loc 1 197 20 discriminator 4
 1166 0841 8B10     		movl	(%eax), %edx
 1167 0843 8995B0FE 		movl	%edx, -336(%ebp)
 1167      FFFF
 1168 0849 8B5004   		movl	4(%eax), %edx
 1169 084c 8995B4FE 		movl	%edx, -332(%ebp)
 1169      FFFF
 1170 0852 8B5008   		movl	8(%eax), %edx
 1171 0855 8995B8FE 		movl	%edx, -328(%ebp)
 1171      FFFF
 1172 085b 8B500C   		movl	12(%eax), %edx
 1173 085e 8995BCFE 		movl	%edx, -324(%ebp)
GAS LISTING C:\Users\jisu8\AppData\Local\Temp\cc7tZZLv.s 			page 27


 1173      FFFF
 1174 0864 8B5010   		movl	16(%eax), %edx
 1175 0867 8995C0FE 		movl	%edx, -320(%ebp)
 1175      FFFF
 1176 086d 8B4014   		movl	20(%eax), %eax
 1177 0870 8985C4FE 		movl	%eax, -316(%ebp)
 1177      FFFF
 198:src/pdf417/PDFDetectionResult.c **** 	otherCodewords[3] = nextColumnCodewords[codewordsRow];
 1178              		.loc 1 198 41 discriminator 4
 1179 0876 8B5510   		movl	16(%ebp), %edx
 1180 0879 89D0     		movl	%edx, %eax
 1181 087b 01C0     		addl	%eax, %eax
 1182 087d 01D0     		addl	%edx, %eax
 1183 087f C1E003   		sall	$3, %eax
 1184 0882 89C2     		movl	%eax, %edx
 1185 0884 8B45EC   		movl	-20(%ebp), %eax
 1186 0887 01D0     		addl	%edx, %eax
 1187              		.loc 1 198 20 discriminator 4
 1188 0889 8B10     		movl	(%eax), %edx
 1189 088b 8995C8FE 		movl	%edx, -312(%ebp)
 1189      FFFF
 1190 0891 8B5004   		movl	4(%eax), %edx
 1191 0894 8995CCFE 		movl	%edx, -308(%ebp)
 1191      FFFF
 1192 089a 8B5008   		movl	8(%eax), %edx
 1193 089d 8995D0FE 		movl	%edx, -304(%ebp)
 1193      FFFF
 1194 08a3 8B500C   		movl	12(%eax), %edx
 1195 08a6 8995D4FE 		movl	%edx, -300(%ebp)
 1195      FFFF
 1196 08ac 8B5010   		movl	16(%eax), %edx
 1197 08af 8995D8FE 		movl	%edx, -296(%ebp)
 1197      FFFF
 1198 08b5 8B4014   		movl	20(%eax), %eax
 1199 08b8 8985DCFE 		movl	%eax, -292(%ebp)
 1199      FFFF
 199:src/pdf417/PDFDetectionResult.c **** 
 200:src/pdf417/PDFDetectionResult.c **** 	if (codewordsRow > 0) 
 1200              		.loc 1 200 5 discriminator 4
 1201 08be 837D1000 		cmpl	$0, 16(%ebp)
 1202 08c2 0F8EDB00 		jle	L64
 1202      0000
 201:src/pdf417/PDFDetectionResult.c **** 	{
 202:src/pdf417/PDFDetectionResult.c **** 		otherCodewords[0] = codewords[codewordsRow - 1];
 1203              		.loc 1 202 32
 1204 08c8 8B5510   		movl	16(%ebp), %edx
 1205 08cb 89D0     		movl	%edx, %eax
 1206 08cd 01C0     		addl	%eax, %eax
 1207 08cf 01D0     		addl	%edx, %eax
 1208 08d1 C1E003   		sall	$3, %eax
 1209 08d4 8D50E8   		leal	-24(%eax), %edx
 1210 08d7 8B4514   		movl	20(%ebp), %eax
 1211 08da 01D0     		addl	%edx, %eax
 1212              		.loc 1 202 21
 1213 08dc 8B10     		movl	(%eax), %edx
 1214 08de 899580FE 		movl	%edx, -384(%ebp)
 1214      FFFF
GAS LISTING C:\Users\jisu8\AppData\Local\Temp\cc7tZZLv.s 			page 28


 1215 08e4 8B5004   		movl	4(%eax), %edx
 1216 08e7 899584FE 		movl	%edx, -380(%ebp)
 1216      FFFF
 1217 08ed 8B5008   		movl	8(%eax), %edx
 1218 08f0 899588FE 		movl	%edx, -376(%ebp)
 1218      FFFF
 1219 08f6 8B500C   		movl	12(%eax), %edx
 1220 08f9 89958CFE 		movl	%edx, -372(%ebp)
 1220      FFFF
 1221 08ff 8B5010   		movl	16(%eax), %edx
 1222 0902 899590FE 		movl	%edx, -368(%ebp)
 1222      FFFF
 1223 0908 8B4014   		movl	20(%eax), %eax
 1224 090b 898594FE 		movl	%eax, -364(%ebp)
 1224      FFFF
 203:src/pdf417/PDFDetectionResult.c **** 		otherCodewords[4] = previousColumnCodewords[codewordsRow - 1];
 1225              		.loc 1 203 46
 1226 0911 8B5510   		movl	16(%ebp), %edx
 1227 0914 89D0     		movl	%edx, %eax
 1228 0916 01C0     		addl	%eax, %eax
 1229 0918 01D0     		addl	%edx, %eax
 1230 091a C1E003   		sall	$3, %eax
 1231 091d 8D50E8   		leal	-24(%eax), %edx
 1232 0920 8B45F0   		movl	-16(%ebp), %eax
 1233 0923 01D0     		addl	%edx, %eax
 1234              		.loc 1 203 21
 1235 0925 8B10     		movl	(%eax), %edx
 1236 0927 8995E0FE 		movl	%edx, -288(%ebp)
 1236      FFFF
 1237 092d 8B5004   		movl	4(%eax), %edx
 1238 0930 8995E4FE 		movl	%edx, -284(%ebp)
 1238      FFFF
 1239 0936 8B5008   		movl	8(%eax), %edx
 1240 0939 8995E8FE 		movl	%edx, -280(%ebp)
 1240      FFFF
 1241 093f 8B500C   		movl	12(%eax), %edx
 1242 0942 8995ECFE 		movl	%edx, -276(%ebp)
 1242      FFFF
 1243 0948 8B5010   		movl	16(%eax), %edx
 1244 094b 8995F0FE 		movl	%edx, -272(%ebp)
 1244      FFFF
 1245 0951 8B4014   		movl	20(%eax), %eax
 1246 0954 8985F4FE 		movl	%eax, -268(%ebp)
 1246      FFFF
 204:src/pdf417/PDFDetectionResult.c **** 		otherCodewords[5] = nextColumnCodewords[codewordsRow - 1];
 1247              		.loc 1 204 42
 1248 095a 8B5510   		movl	16(%ebp), %edx
 1249 095d 89D0     		movl	%edx, %eax
 1250 095f 01C0     		addl	%eax, %eax
 1251 0961 01D0     		addl	%edx, %eax
 1252 0963 C1E003   		sall	$3, %eax
 1253 0966 8D50E8   		leal	-24(%eax), %edx
 1254 0969 8B45EC   		movl	-20(%ebp), %eax
 1255 096c 01D0     		addl	%edx, %eax
 1256              		.loc 1 204 21
 1257 096e 8B10     		movl	(%eax), %edx
 1258 0970 8995F8FE 		movl	%edx, -264(%ebp)
GAS LISTING C:\Users\jisu8\AppData\Local\Temp\cc7tZZLv.s 			page 29


 1258      FFFF
 1259 0976 8B5004   		movl	4(%eax), %edx
 1260 0979 8995FCFE 		movl	%edx, -260(%ebp)
 1260      FFFF
 1261 097f 8B5008   		movl	8(%eax), %edx
 1262 0982 899500FF 		movl	%edx, -256(%ebp)
 1262      FFFF
 1263 0988 8B500C   		movl	12(%eax), %edx
 1264 098b 899504FF 		movl	%edx, -252(%ebp)
 1264      FFFF
 1265 0991 8B5010   		movl	16(%eax), %edx
 1266 0994 899508FF 		movl	%edx, -248(%ebp)
 1266      FFFF
 1267 099a 8B4014   		movl	20(%eax), %eax
 1268 099d 89850CFF 		movl	%eax, -244(%ebp)
 1268      FFFF
 1269              	L64:
 205:src/pdf417/PDFDetectionResult.c **** 	}
 206:src/pdf417/PDFDetectionResult.c **** 	if (codewordsRow > 1) 
 1270              		.loc 1 206 5
 1271 09a3 837D1001 		cmpl	$1, 16(%ebp)
 1272 09a7 0F8EC300 		jle	L65
 1272      0000
 207:src/pdf417/PDFDetectionResult.c **** 	{
 208:src/pdf417/PDFDetectionResult.c **** 		otherCodewords[8] = codewords[codewordsRow - 2];
 1273              		.loc 1 208 32
 1274 09ad 8B5510   		movl	16(%ebp), %edx
 1275 09b0 89D0     		movl	%edx, %eax
 1276 09b2 01C0     		addl	%eax, %eax
 1277 09b4 01D0     		addl	%edx, %eax
 1278 09b6 C1E003   		sall	$3, %eax
 1279 09b9 8D50D0   		leal	-48(%eax), %edx
 1280 09bc 8B4514   		movl	20(%ebp), %eax
 1281 09bf 01D0     		addl	%edx, %eax
 1282              		.loc 1 208 21
 1283 09c1 8B10     		movl	(%eax), %edx
 1284 09c3 899540FF 		movl	%edx, -192(%ebp)
 1284      FFFF
 1285 09c9 8B5004   		movl	4(%eax), %edx
 1286 09cc 899544FF 		movl	%edx, -188(%ebp)
 1286      FFFF
 1287 09d2 8B5008   		movl	8(%eax), %edx
 1288 09d5 899548FF 		movl	%edx, -184(%ebp)
 1288      FFFF
 1289 09db 8B500C   		movl	12(%eax), %edx
 1290 09de 89954CFF 		movl	%edx, -180(%ebp)
 1290      FFFF
 1291 09e4 8B5010   		movl	16(%eax), %edx
 1292 09e7 899550FF 		movl	%edx, -176(%ebp)
 1292      FFFF
 1293 09ed 8B4014   		movl	20(%eax), %eax
 1294 09f0 898554FF 		movl	%eax, -172(%ebp)
 1294      FFFF
 209:src/pdf417/PDFDetectionResult.c **** 		otherCodewords[10] = previousColumnCodewords[codewordsRow - 2];
 1295              		.loc 1 209 47
 1296 09f6 8B5510   		movl	16(%ebp), %edx
 1297 09f9 89D0     		movl	%edx, %eax
GAS LISTING C:\Users\jisu8\AppData\Local\Temp\cc7tZZLv.s 			page 30


 1298 09fb 01C0     		addl	%eax, %eax
 1299 09fd 01D0     		addl	%edx, %eax
 1300 09ff C1E003   		sall	$3, %eax
 1301 0a02 8D50D0   		leal	-48(%eax), %edx
 1302 0a05 8B45F0   		movl	-16(%ebp), %eax
 1303 0a08 01D0     		addl	%edx, %eax
 1304              		.loc 1 209 22
 1305 0a0a 8B10     		movl	(%eax), %edx
 1306 0a0c 899570FF 		movl	%edx, -144(%ebp)
 1306      FFFF
 1307 0a12 8B5004   		movl	4(%eax), %edx
 1308 0a15 899574FF 		movl	%edx, -140(%ebp)
 1308      FFFF
 1309 0a1b 8B5008   		movl	8(%eax), %edx
 1310 0a1e 899578FF 		movl	%edx, -136(%ebp)
 1310      FFFF
 1311 0a24 8B500C   		movl	12(%eax), %edx
 1312 0a27 89957CFF 		movl	%edx, -132(%ebp)
 1312      FFFF
 1313 0a2d 8B5010   		movl	16(%eax), %edx
 1314 0a30 895580   		movl	%edx, -128(%ebp)
 1315 0a33 8B4014   		movl	20(%eax), %eax
 1316 0a36 894584   		movl	%eax, -124(%ebp)
 210:src/pdf417/PDFDetectionResult.c **** 		otherCodewords[11] = nextColumnCodewords[codewordsRow - 2];
 1317              		.loc 1 210 43
 1318 0a39 8B5510   		movl	16(%ebp), %edx
 1319 0a3c 89D0     		movl	%edx, %eax
 1320 0a3e 01C0     		addl	%eax, %eax
 1321 0a40 01D0     		addl	%edx, %eax
 1322 0a42 C1E003   		sall	$3, %eax
 1323 0a45 8D50D0   		leal	-48(%eax), %edx
 1324 0a48 8B45EC   		movl	-20(%ebp), %eax
 1325 0a4b 01D0     		addl	%edx, %eax
 1326              		.loc 1 210 22
 1327 0a4d 8B10     		movl	(%eax), %edx
 1328 0a4f 895588   		movl	%edx, -120(%ebp)
 1329 0a52 8B5004   		movl	4(%eax), %edx
 1330 0a55 89558C   		movl	%edx, -116(%ebp)
 1331 0a58 8B5008   		movl	8(%eax), %edx
 1332 0a5b 895590   		movl	%edx, -112(%ebp)
 1333 0a5e 8B500C   		movl	12(%eax), %edx
 1334 0a61 895594   		movl	%edx, -108(%ebp)
 1335 0a64 8B5010   		movl	16(%eax), %edx
 1336 0a67 895598   		movl	%edx, -104(%ebp)
 1337 0a6a 8B4014   		movl	20(%eax), %eax
 1338 0a6d 89459C   		movl	%eax, -100(%ebp)
 1339              	L65:
 211:src/pdf417/PDFDetectionResult.c **** 	}
 212:src/pdf417/PDFDetectionResult.c **** 
 213:src/pdf417/PDFDetectionResult.c **** 	if (codewordsRow < size - 1) 
 1340              		.loc 1 213 26
 1341 0a70 8B4518   		movl	24(%ebp), %eax
 1342 0a73 83E801   		subl	$1, %eax
 1343              		.loc 1 213 5
 1344 0a76 394510   		cmpl	%eax, 16(%ebp)
 1345 0a79 0F8DE100 		jge	L66
 1345      0000
GAS LISTING C:\Users\jisu8\AppData\Local\Temp\cc7tZZLv.s 			page 31


 214:src/pdf417/PDFDetectionResult.c **** 	{
 215:src/pdf417/PDFDetectionResult.c **** 		otherCodewords[1] = codewords[codewordsRow + 1];
 1346              		.loc 1 215 32
 1347 0a7f 8B4510   		movl	16(%ebp), %eax
 1348 0a82 8D5001   		leal	1(%eax), %edx
 1349 0a85 89D0     		movl	%edx, %eax
 1350 0a87 01C0     		addl	%eax, %eax
 1351 0a89 01D0     		addl	%edx, %eax
 1352 0a8b C1E003   		sall	$3, %eax
 1353 0a8e 89C2     		movl	%eax, %edx
 1354 0a90 8B4514   		movl	20(%ebp), %eax
 1355 0a93 01D0     		addl	%edx, %eax
 1356              		.loc 1 215 21
 1357 0a95 8B10     		movl	(%eax), %edx
 1358 0a97 899598FE 		movl	%edx, -360(%ebp)
 1358      FFFF
 1359 0a9d 8B5004   		movl	4(%eax), %edx
 1360 0aa0 89959CFE 		movl	%edx, -356(%ebp)
 1360      FFFF
 1361 0aa6 8B5008   		movl	8(%eax), %edx
 1362 0aa9 8995A0FE 		movl	%edx, -352(%ebp)
 1362      FFFF
 1363 0aaf 8B500C   		movl	12(%eax), %edx
 1364 0ab2 8995A4FE 		movl	%edx, -348(%ebp)
 1364      FFFF
 1365 0ab8 8B5010   		movl	16(%eax), %edx
 1366 0abb 8995A8FE 		movl	%edx, -344(%ebp)
 1366      FFFF
 1367 0ac1 8B4014   		movl	20(%eax), %eax
 1368 0ac4 8985ACFE 		movl	%eax, -340(%ebp)
 1368      FFFF
 216:src/pdf417/PDFDetectionResult.c **** 		otherCodewords[6] = previousColumnCodewords[codewordsRow + 1];
 1369              		.loc 1 216 46
 1370 0aca 8B4510   		movl	16(%ebp), %eax
 1371 0acd 8D5001   		leal	1(%eax), %edx
 1372 0ad0 89D0     		movl	%edx, %eax
 1373 0ad2 01C0     		addl	%eax, %eax
 1374 0ad4 01D0     		addl	%edx, %eax
 1375 0ad6 C1E003   		sall	$3, %eax
 1376 0ad9 89C2     		movl	%eax, %edx
 1377 0adb 8B45F0   		movl	-16(%ebp), %eax
 1378 0ade 01D0     		addl	%edx, %eax
 1379              		.loc 1 216 21
 1380 0ae0 8B10     		movl	(%eax), %edx
 1381 0ae2 899510FF 		movl	%edx, -240(%ebp)
 1381      FFFF
 1382 0ae8 8B5004   		movl	4(%eax), %edx
 1383 0aeb 899514FF 		movl	%edx, -236(%ebp)
 1383      FFFF
 1384 0af1 8B5008   		movl	8(%eax), %edx
 1385 0af4 899518FF 		movl	%edx, -232(%ebp)
 1385      FFFF
 1386 0afa 8B500C   		movl	12(%eax), %edx
 1387 0afd 89951CFF 		movl	%edx, -228(%ebp)
 1387      FFFF
 1388 0b03 8B5010   		movl	16(%eax), %edx
 1389 0b06 899520FF 		movl	%edx, -224(%ebp)
GAS LISTING C:\Users\jisu8\AppData\Local\Temp\cc7tZZLv.s 			page 32


 1389      FFFF
 1390 0b0c 8B4014   		movl	20(%eax), %eax
 1391 0b0f 898524FF 		movl	%eax, -220(%ebp)
 1391      FFFF
 217:src/pdf417/PDFDetectionResult.c **** 		otherCodewords[7] = nextColumnCodewords[codewordsRow + 1];
 1392              		.loc 1 217 42
 1393 0b15 8B4510   		movl	16(%ebp), %eax
 1394 0b18 8D5001   		leal	1(%eax), %edx
 1395 0b1b 89D0     		movl	%edx, %eax
 1396 0b1d 01C0     		addl	%eax, %eax
 1397 0b1f 01D0     		addl	%edx, %eax
 1398 0b21 C1E003   		sall	$3, %eax
 1399 0b24 89C2     		movl	%eax, %edx
 1400 0b26 8B45EC   		movl	-20(%ebp), %eax
 1401 0b29 01D0     		addl	%edx, %eax
 1402              		.loc 1 217 21
 1403 0b2b 8B10     		movl	(%eax), %edx
 1404 0b2d 899528FF 		movl	%edx, -216(%ebp)
 1404      FFFF
 1405 0b33 8B5004   		movl	4(%eax), %edx
 1406 0b36 89952CFF 		movl	%edx, -212(%ebp)
 1406      FFFF
 1407 0b3c 8B5008   		movl	8(%eax), %edx
 1408 0b3f 899530FF 		movl	%edx, -208(%ebp)
 1408      FFFF
 1409 0b45 8B500C   		movl	12(%eax), %edx
 1410 0b48 899534FF 		movl	%edx, -204(%ebp)
 1410      FFFF
 1411 0b4e 8B5010   		movl	16(%eax), %edx
 1412 0b51 899538FF 		movl	%edx, -200(%ebp)
 1412      FFFF
 1413 0b57 8B4014   		movl	20(%eax), %eax
 1414 0b5a 89853CFF 		movl	%eax, -196(%ebp)
 1414      FFFF
 1415              	L66:
 218:src/pdf417/PDFDetectionResult.c **** 	}
 219:src/pdf417/PDFDetectionResult.c **** 	if (codewordsRow < size - 2) 
 1416              		.loc 1 219 26
 1417 0b60 8B4518   		movl	24(%ebp), %eax
 1418 0b63 83E802   		subl	$2, %eax
 1419              		.loc 1 219 5
 1420 0b66 394510   		cmpl	%eax, 16(%ebp)
 1421 0b69 0F8DB700 		jge	L67
 1421      0000
 220:src/pdf417/PDFDetectionResult.c **** 	{
 221:src/pdf417/PDFDetectionResult.c **** 		otherCodewords[9] = codewords[codewordsRow + 2];
 1422              		.loc 1 221 32
 1423 0b6f 8B5510   		movl	16(%ebp), %edx
 1424 0b72 89D0     		movl	%edx, %eax
 1425 0b74 01C0     		addl	%eax, %eax
 1426 0b76 01D0     		addl	%edx, %eax
 1427 0b78 C1E003   		sall	$3, %eax
 1428 0b7b 8D5030   		leal	48(%eax), %edx
 1429 0b7e 8B4514   		movl	20(%ebp), %eax
 1430 0b81 01D0     		addl	%edx, %eax
 1431              		.loc 1 221 21
 1432 0b83 8B10     		movl	(%eax), %edx
GAS LISTING C:\Users\jisu8\AppData\Local\Temp\cc7tZZLv.s 			page 33


 1433 0b85 899558FF 		movl	%edx, -168(%ebp)
 1433      FFFF
 1434 0b8b 8B5004   		movl	4(%eax), %edx
 1435 0b8e 89955CFF 		movl	%edx, -164(%ebp)
 1435      FFFF
 1436 0b94 8B5008   		movl	8(%eax), %edx
 1437 0b97 899560FF 		movl	%edx, -160(%ebp)
 1437      FFFF
 1438 0b9d 8B500C   		movl	12(%eax), %edx
 1439 0ba0 899564FF 		movl	%edx, -156(%ebp)
 1439      FFFF
 1440 0ba6 8B5010   		movl	16(%eax), %edx
 1441 0ba9 899568FF 		movl	%edx, -152(%ebp)
 1441      FFFF
 1442 0baf 8B4014   		movl	20(%eax), %eax
 1443 0bb2 89856CFF 		movl	%eax, -148(%ebp)
 1443      FFFF
 222:src/pdf417/PDFDetectionResult.c **** 		otherCodewords[12] = previousColumnCodewords[codewordsRow + 2];
 1444              		.loc 1 222 47
 1445 0bb8 8B5510   		movl	16(%ebp), %edx
 1446 0bbb 89D0     		movl	%edx, %eax
 1447 0bbd 01C0     		addl	%eax, %eax
 1448 0bbf 01D0     		addl	%edx, %eax
 1449 0bc1 C1E003   		sall	$3, %eax
 1450 0bc4 8D5030   		leal	48(%eax), %edx
 1451 0bc7 8B45F0   		movl	-16(%ebp), %eax
 1452 0bca 01D0     		addl	%edx, %eax
 1453              		.loc 1 222 22
 1454 0bcc 8B10     		movl	(%eax), %edx
 1455 0bce 8955A0   		movl	%edx, -96(%ebp)
 1456 0bd1 8B5004   		movl	4(%eax), %edx
 1457 0bd4 8955A4   		movl	%edx, -92(%ebp)
 1458 0bd7 8B5008   		movl	8(%eax), %edx
 1459 0bda 8955A8   		movl	%edx, -88(%ebp)
 1460 0bdd 8B500C   		movl	12(%eax), %edx
 1461 0be0 8955AC   		movl	%edx, -84(%ebp)
 1462 0be3 8B5010   		movl	16(%eax), %edx
 1463 0be6 8955B0   		movl	%edx, -80(%ebp)
 1464 0be9 8B4014   		movl	20(%eax), %eax
 1465 0bec 8945B4   		movl	%eax, -76(%ebp)
 223:src/pdf417/PDFDetectionResult.c **** 		otherCodewords[13] = nextColumnCodewords[codewordsRow + 2];
 1466              		.loc 1 223 43
 1467 0bef 8B5510   		movl	16(%ebp), %edx
 1468 0bf2 89D0     		movl	%edx, %eax
 1469 0bf4 01C0     		addl	%eax, %eax
 1470 0bf6 01D0     		addl	%edx, %eax
 1471 0bf8 C1E003   		sall	$3, %eax
 1472 0bfb 8D5030   		leal	48(%eax), %edx
 1473 0bfe 8B45EC   		movl	-20(%ebp), %eax
 1474 0c01 01D0     		addl	%edx, %eax
 1475              		.loc 1 223 22
 1476 0c03 8B10     		movl	(%eax), %edx
 1477 0c05 8955B8   		movl	%edx, -72(%ebp)
 1478 0c08 8B5004   		movl	4(%eax), %edx
 1479 0c0b 8955BC   		movl	%edx, -68(%ebp)
 1480 0c0e 8B5008   		movl	8(%eax), %edx
 1481 0c11 8955C0   		movl	%edx, -64(%ebp)
GAS LISTING C:\Users\jisu8\AppData\Local\Temp\cc7tZZLv.s 			page 34


 1482 0c14 8B500C   		movl	12(%eax), %edx
 1483 0c17 8955C4   		movl	%edx, -60(%ebp)
 1484 0c1a 8B5010   		movl	16(%eax), %edx
 1485 0c1d 8955C8   		movl	%edx, -56(%ebp)
 1486 0c20 8B4014   		movl	20(%eax), %eax
 1487 0c23 8945CC   		movl	%eax, -52(%ebp)
 1488              	L67:
 1489              	LBB14:
 224:src/pdf417/PDFDetectionResult.c **** 	}
 225:src/pdf417/PDFDetectionResult.c **** 
 226:src/pdf417/PDFDetectionResult.c **** 	for (int i=0;i<size1;i++) 
 1490              		.loc 1 226 11
 1491 0c26 C745F400 		movl	$0, -12(%ebp)
 1491      000000
 1492              		.loc 1 226 2
 1493 0c2d EB1D     		jmp	L68
 1494              	L71:
 227:src/pdf417/PDFDetectionResult.c **** 	{
 228:src/pdf417/PDFDetectionResult.c **** 		if (AdjustRowNumber(&codeword, otherCodewords)) 
 1495              		.loc 1 228 7
 1496 0c2f 8D8580FE 		leal	-384(%ebp), %eax
 1496      FFFF
 1497 0c35 89442404 		movl	%eax, 4(%esp)
 1498 0c39 8D45D0   		leal	-48(%ebp), %eax
 1499 0c3c 890424   		movl	%eax, (%esp)
 1500 0c3f E8C8FAFF 		call	_AdjustRowNumber
 1500      FF
 1501              		.loc 1 228 6
 1502 0c44 84C0     		testb	%al, %al
 1503 0c46 750E     		jne	L72
 226:src/pdf417/PDFDetectionResult.c **** 	{
 1504              		.loc 1 226 24 discriminator 2
 1505 0c48 8345F401 		addl	$1, -12(%ebp)
 1506              	L68:
 226:src/pdf417/PDFDetectionResult.c **** 	{
 1507              		.loc 1 226 2 discriminator 1
 1508 0c4c 8B45F4   		movl	-12(%ebp), %eax
 1509 0c4f 3B45E8   		cmpl	-24(%ebp), %eax
 1510 0c52 7CDB     		jl	L71
 1511 0c54 EB01     		jmp	L61
 1512              	L72:
 1513              	LBE14:
 229:src/pdf417/PDFDetectionResult.c **** 		{
 230:src/pdf417/PDFDetectionResult.c **** 			return;
 1514              		.loc 1 230 4
 1515 0c56 90       		nop
 1516              	L61:
 231:src/pdf417/PDFDetectionResult.c **** 		}
 232:src/pdf417/PDFDetectionResult.c **** 	}
 233:src/pdf417/PDFDetectionResult.c **** }
 1517              		.loc 1 233 1
 1518 0c57 C9       		leave
 1519              	LCFI26:
 1520              		.cfi_restore 5
 1521              		.cfi_def_cfa 4, 4
 1522 0c58 C3       		ret
 1523              		.cfi_endproc
GAS LISTING C:\Users\jisu8\AppData\Local\Temp\cc7tZZLv.s 			page 35


 1524              	LFE9:
 1526              	_AdjustRowNumbers:
 1527              	LFB10:
 234:src/pdf417/PDFDetectionResult.c **** 
 235:src/pdf417/PDFDetectionResult.c **** 
 236:src/pdf417/PDFDetectionResult.c **** // TODO ensure that no detected codewords with unknown row number are left
 237:src/pdf417/PDFDetectionResult.c **** // we should be able to estimate the row height and use it as a hint for the row number
 238:src/pdf417/PDFDetectionResult.c **** // we should also fill the rows top to bottom and bottom to top
 239:src/pdf417/PDFDetectionResult.c **** /**
 240:src/pdf417/PDFDetectionResult.c **** * @return number of codewords which don't have a valid row number. Note that the count is not accur
 241:src/pdf417/PDFDetectionResult.c **** * will be counted several times. It just serves as an indicator to see when we can stop adjusting r
 242:src/pdf417/PDFDetectionResult.c **** */
 243:src/pdf417/PDFDetectionResult.c **** static int AdjustRowNumbers(DetectionResultColumn_t * detectionResultColumns,int column,int size) 
 244:src/pdf417/PDFDetectionResult.c **** {
 1528              		.loc 1 244 1
 1529              		.cfi_startproc
 1530 0c59 55       		pushl	%ebp
 1531              	LCFI27:
 1532              		.cfi_def_cfa_offset 8
 1533              		.cfi_offset 5, -8
 1534 0c5a 89E5     		movl	%esp, %ebp
 1535              	LCFI28:
 1536              		.cfi_def_cfa_register 5
 1537 0c5c 53       		pushl	%ebx
 1538 0c5d 83EC54   		subl	$84, %esp
 1539              		.cfi_offset 3, -12
 245:src/pdf417/PDFDetectionResult.c **** 	int unadjustedCount = AdjustRowNumbersByRow(detectionResultColumns,column,size);
 1540              		.loc 1 245 24
 1541 0c60 8B4510   		movl	16(%ebp), %eax
 1542 0c63 89442408 		movl	%eax, 8(%esp)
 1543 0c67 8B450C   		movl	12(%ebp), %eax
 1544 0c6a 89442404 		movl	%eax, 4(%esp)
 1545 0c6e 8B4508   		movl	8(%ebp), %eax
 1546 0c71 890424   		movl	%eax, (%esp)
 1547 0c74 E836FAFF 		call	_AdjustRowNumbersByRow
 1547      FF
 1548 0c79 8945EC   		movl	%eax, -20(%ebp)
 246:src/pdf417/PDFDetectionResult.c **** 	if (unadjustedCount == 0) 
 1549              		.loc 1 246 5
 1550 0c7c 837DEC00 		cmpl	$0, -20(%ebp)
 1551 0c80 750A     		jne	L74
 247:src/pdf417/PDFDetectionResult.c **** 	{
 248:src/pdf417/PDFDetectionResult.c **** 		return 0;
 1552              		.loc 1 248 10
 1553 0c82 B8000000 		movl	$0, %eax
 1553      00
 1554 0c87 E95A0100 		jmp	L75
 1554      00
 1555              	L74:
 1556              	LBB15:
 249:src/pdf417/PDFDetectionResult.c **** 	}
 250:src/pdf417/PDFDetectionResult.c **** 	
 251:src/pdf417/PDFDetectionResult.c **** 	for (int barcodeColumn = 1; barcodeColumn <column; barcodeColumn++) 
 1557              		.loc 1 251 11
 1558 0c8c C745F401 		movl	$1, -12(%ebp)
 1558      000000
 1559              		.loc 1 251 2
GAS LISTING C:\Users\jisu8\AppData\Local\Temp\cc7tZZLv.s 			page 36


 1560 0c93 E93F0100 		jmp	L76
 1560      00
 1561              	L84:
 1562              	LBB16:
 252:src/pdf417/PDFDetectionResult.c **** 	{
 253:src/pdf417/PDFDetectionResult.c **** 		if (detectionResultColumns[barcodeColumn].m_hasValue == 0) 
 1563              		.loc 1 253 29
 1564 0c98 8B45F4   		movl	-12(%ebp), %eax
 1565 0c9b 69D0342F 		imull	$12084, %eax, %edx
 1565      0000
 1566 0ca1 8B4508   		movl	8(%ebp), %eax
 1567 0ca4 01D0     		addl	%edx, %eax
 1568              		.loc 1 253 44
 1569 0ca6 0FB600   		movzbl	(%eax), %eax
 1570              		.loc 1 253 6
 1571 0ca9 84C0     		testb	%al, %al
 1572 0cab 0F842101 		je	L85
 1572      0000
 254:src/pdf417/PDFDetectionResult.c **** 		{
 255:src/pdf417/PDFDetectionResult.c **** 			continue;
 256:src/pdf417/PDFDetectionResult.c **** 		}
 257:src/pdf417/PDFDetectionResult.c **** 		Codeword_t * codewords = detectionResultColumns[barcodeColumn].m_value._codewords;
 1573              		.loc 1 257 50
 1574 0cb1 8B45F4   		movl	-12(%ebp), %eax
 1575 0cb4 69D0342F 		imull	$12084, %eax, %edx
 1575      0000
 1576 0cba 8B4508   		movl	8(%ebp), %eax
 1577 0cbd 01D0     		addl	%edx, %eax
 1578              		.loc 1 257 16
 1579 0cbf 83C050   		addl	$80, %eax
 1580 0cc2 8945E8   		movl	%eax, -24(%ebp)
 1581              	LBB17:
 258:src/pdf417/PDFDetectionResult.c **** 		Codeword_t codewordst;
 259:src/pdf417/PDFDetectionResult.c **** 		for (int codewordsRow = 0; codewordsRow < size; codewordsRow++) 
 1582              		.loc 1 259 12
 1583 0cc5 C745F000 		movl	$0, -16(%ebp)
 1583      000000
 1584              		.loc 1 259 3
 1585 0ccc E9F30000 		jmp	L79
 1585      00
 1586              	L83:
 260:src/pdf417/PDFDetectionResult.c **** 		{
 261:src/pdf417/PDFDetectionResult.c **** 			codewordst = codewords[codewordsRow];
 1587              		.loc 1 261 26
 1588 0cd1 8B55F0   		movl	-16(%ebp), %edx
 1589 0cd4 89D0     		movl	%edx, %eax
 1590 0cd6 01C0     		addl	%eax, %eax
 1591 0cd8 01D0     		addl	%edx, %eax
 1592 0cda C1E003   		sall	$3, %eax
 1593 0cdd 89C2     		movl	%eax, %edx
 1594 0cdf 8B45E8   		movl	-24(%ebp), %eax
 1595 0ce2 01D0     		addl	%edx, %eax
 1596              		.loc 1 261 15
 1597 0ce4 8B10     		movl	(%eax), %edx
 1598 0ce6 8955D0   		movl	%edx, -48(%ebp)
 1599 0ce9 8B5004   		movl	4(%eax), %edx
 1600 0cec 8955D4   		movl	%edx, -44(%ebp)
GAS LISTING C:\Users\jisu8\AppData\Local\Temp\cc7tZZLv.s 			page 37


 1601 0cef 8B5008   		movl	8(%eax), %edx
 1602 0cf2 8955D8   		movl	%edx, -40(%ebp)
 1603 0cf5 8B500C   		movl	12(%eax), %edx
 1604 0cf8 8955DC   		movl	%edx, -36(%ebp)
 1605 0cfb 8B5010   		movl	16(%eax), %edx
 1606 0cfe 8955E0   		movl	%edx, -32(%ebp)
 1607 0d01 8B4014   		movl	20(%eax), %eax
 1608 0d04 8945E4   		movl	%eax, -28(%ebp)
 262:src/pdf417/PDFDetectionResult.c **** 			if (codewords[codewordsRow].m_hasValue == 0) 
 1609              		.loc 1 262 17
 1610 0d07 8B55F0   		movl	-16(%ebp), %edx
 1611 0d0a 89D0     		movl	%edx, %eax
 1612 0d0c 01C0     		addl	%eax, %eax
 1613 0d0e 01D0     		addl	%edx, %eax
 1614 0d10 C1E003   		sall	$3, %eax
 1615 0d13 89C2     		movl	%eax, %edx
 1616 0d15 8B45E8   		movl	-24(%ebp), %eax
 1617 0d18 01D0     		addl	%edx, %eax
 1618              		.loc 1 262 31
 1619 0d1a 0FB600   		movzbl	(%eax), %eax
 1620              		.loc 1 262 7
 1621 0d1d 84C0     		testb	%al, %al
 1622 0d1f 0F849A00 		je	L86
 1622      0000
 263:src/pdf417/PDFDetectionResult.c **** 			{
 264:src/pdf417/PDFDetectionResult.c **** 				continue;
 265:src/pdf417/PDFDetectionResult.c **** 			}
 266:src/pdf417/PDFDetectionResult.c **** 			if (!((codewords[codewordsRow].m_value._rowNumber) != BARCODE_ROW_UNKNOWN && codewords[codewords
 1623              		.loc 1 266 20
 1624 0d25 8B55F0   		movl	-16(%ebp), %edx
 1625 0d28 89D0     		movl	%edx, %eax
 1626 0d2a 01C0     		addl	%eax, %eax
 1627 0d2c 01D0     		addl	%edx, %eax
 1628 0d2e C1E003   		sall	$3, %eax
 1629 0d31 89C2     		movl	%eax, %edx
 1630 0d33 8B45E8   		movl	-24(%ebp), %eax
 1631 0d36 01D0     		addl	%edx, %eax
 1632              		.loc 1 266 42
 1633 0d38 8B5014   		movl	20(%eax), %edx
 1634              		.loc 1 266 55
 1635 0d3b A1000000 		movl	_BARCODE_ROW_UNKNOWN, %eax
 1635      00
 1636              		.loc 1 266 7
 1637 0d40 39C2     		cmpl	%eax, %edx
 1638 0d42 7452     		je	L82
 1639              		.loc 1 266 90 discriminator 1
 1640 0d44 8B55F0   		movl	-16(%ebp), %edx
 1641 0d47 89D0     		movl	%edx, %eax
 1642 0d49 01C0     		addl	%eax, %eax
 1643 0d4b 01D0     		addl	%edx, %eax
 1644 0d4d C1E003   		sall	$3, %eax
 1645 0d50 89C2     		movl	%eax, %edx
 1646 0d52 8B45E8   		movl	-24(%ebp), %eax
 1647 0d55 01D0     		addl	%edx, %eax
 1648              		.loc 1 266 112 discriminator 1
 1649 0d57 8B580C   		movl	12(%eax), %ebx
 1650              		.loc 1 266 134 discriminator 1
GAS LISTING C:\Users\jisu8\AppData\Local\Temp\cc7tZZLv.s 			page 38


 1651 0d5a 8B55F0   		movl	-16(%ebp), %edx
 1652 0d5d 89D0     		movl	%edx, %eax
 1653 0d5f 01C0     		addl	%eax, %eax
 1654 0d61 01D0     		addl	%edx, %eax
 1655 0d63 C1E003   		sall	$3, %eax
 1656 0d66 89C2     		movl	%eax, %edx
 1657 0d68 8B45E8   		movl	-24(%ebp), %eax
 1658 0d6b 01D0     		addl	%edx, %eax
 1659              		.loc 1 266 156 discriminator 1
 1660 0d6d 8B4814   		movl	20(%eax), %ecx
 1661              		.loc 1 266 168 discriminator 1
 1662 0d70 BA565555 		movl	$1431655766, %edx
 1662      55
 1663 0d75 89C8     		movl	%ecx, %eax
 1664 0d77 F7EA     		imull	%edx
 1665 0d79 89C8     		movl	%ecx, %eax
 1666 0d7b C1F81F   		sarl	$31, %eax
 1667 0d7e 29C2     		subl	%eax, %edx
 1668 0d80 89D0     		movl	%edx, %eax
 1669 0d82 89C2     		movl	%eax, %edx
 1670 0d84 01D2     		addl	%edx, %edx
 1671 0d86 01C2     		addl	%eax, %edx
 1672 0d88 89C8     		movl	%ecx, %eax
 1673 0d8a 29D0     		subl	%edx, %eax
 1674              		.loc 1 266 173 discriminator 1
 1675 0d8c 89C2     		movl	%eax, %edx
 1676 0d8e 01D2     		addl	%edx, %edx
 1677 0d90 01D0     		addl	%edx, %eax
 1678              		.loc 1 266 8 discriminator 1
 1679 0d92 39C3     		cmpl	%eax, %ebx
 1680 0d94 742A     		je	L81
 1681              	L82:
 267:src/pdf417/PDFDetectionResult.c **** 			{
 268:src/pdf417/PDFDetectionResult.c **** 				AdjustRowNumbers_internal(detectionResultColumns, barcodeColumn, codewordsRow, codewords,size);
 1682              		.loc 1 268 5
 1683 0d96 8B4510   		movl	16(%ebp), %eax
 1684 0d99 89442410 		movl	%eax, 16(%esp)
 1685 0d9d 8B45E8   		movl	-24(%ebp), %eax
 1686 0da0 8944240C 		movl	%eax, 12(%esp)
 1687 0da4 8B45F0   		movl	-16(%ebp), %eax
 1688 0da7 89442408 		movl	%eax, 8(%esp)
 1689 0dab 8B45F4   		movl	-12(%ebp), %eax
 1690 0dae 89442404 		movl	%eax, 4(%esp)
 1691 0db2 8B4508   		movl	8(%ebp), %eax
 1692 0db5 890424   		movl	%eax, (%esp)
 1693 0db8 E8D3F9FF 		call	_AdjustRowNumbers_internal
 1693      FF
 1694 0dbd EB01     		jmp	L81
 1695              	L86:
 264:src/pdf417/PDFDetectionResult.c **** 			}
 1696              		.loc 1 264 5
 1697 0dbf 90       		nop
 1698              	L81:
 259:src/pdf417/PDFDetectionResult.c **** 		{
 1699              		.loc 1 259 63 discriminator 2
 1700 0dc0 8345F001 		addl	$1, -16(%ebp)
 1701              	L79:
GAS LISTING C:\Users\jisu8\AppData\Local\Temp\cc7tZZLv.s 			page 39


 259:src/pdf417/PDFDetectionResult.c **** 		{
 1702              		.loc 1 259 3 discriminator 1
 1703 0dc4 8B45F0   		movl	-16(%ebp), %eax
 1704 0dc7 3B4510   		cmpl	16(%ebp), %eax
 1705 0dca 0F8C01FF 		jl	L83
 1705      FFFF
 1706 0dd0 EB01     		jmp	L78
 1707              	L85:
 1708              	LBE17:
 255:src/pdf417/PDFDetectionResult.c **** 		}
 1709              		.loc 1 255 4
 1710 0dd2 90       		nop
 1711              	L78:
 1712              	LBE16:
 251:src/pdf417/PDFDetectionResult.c **** 	{
 1713              		.loc 1 251 66 discriminator 2
 1714 0dd3 8345F401 		addl	$1, -12(%ebp)
 1715              	L76:
 251:src/pdf417/PDFDetectionResult.c **** 	{
 1716              		.loc 1 251 2 discriminator 1
 1717 0dd7 8B45F4   		movl	-12(%ebp), %eax
 1718 0dda 3B450C   		cmpl	12(%ebp), %eax
 1719 0ddd 0F8CB5FE 		jl	L84
 1719      FFFF
 1720              	LBE15:
 269:src/pdf417/PDFDetectionResult.c **** 			}
 270:src/pdf417/PDFDetectionResult.c **** 		}
 271:src/pdf417/PDFDetectionResult.c **** 	}
 272:src/pdf417/PDFDetectionResult.c **** 	return unadjustedCount;
 1721              		.loc 1 272 9
 1722 0de3 8B45EC   		movl	-20(%ebp), %eax
 1723              	L75:
 273:src/pdf417/PDFDetectionResult.c **** }
 1724              		.loc 1 273 1
 1725 0de6 83C454   		addl	$84, %esp
 1726 0de9 5B       		popl	%ebx
 1727              		.cfi_restore 3
 1728 0dea 5D       		popl	%ebp
 1729              	LCFI29:
 1730              		.cfi_restore 5
 1731              		.cfi_def_cfa 4, 4
 1732 0deb C3       		ret
 1733              		.cfi_endproc
 1734              	LFE10:
 1735              		.globl	_allColumns
 1737              	_allColumns:
 1738              	LFB11:
 274:src/pdf417/PDFDetectionResult.c **** 
 275:src/pdf417/PDFDetectionResult.c **** const DetectionResultColumn_t * allColumns(DetectionResult_t * detectionResult,int column,int size)
 276:src/pdf417/PDFDetectionResult.c **** {
 1739              		.loc 1 276 1
 1740              		.cfi_startproc
 1741 0dec 55       		pushl	%ebp
 1742              	LCFI30:
 1743              		.cfi_def_cfa_offset 8
 1744              		.cfi_offset 5, -8
 1745 0ded 89E5     		movl	%esp, %ebp
GAS LISTING C:\Users\jisu8\AppData\Local\Temp\cc7tZZLv.s 			page 40


 1746              	LCFI31:
 1747              		.cfi_def_cfa_register 5
 1748 0def 83EC28   		subl	$40, %esp
 277:src/pdf417/PDFDetectionResult.c **** 	AdjustIndicatorColumnRowNumbers(&(detectionResult->_detectionResultColumns[0]), &(detectionResult-
 1749              		.loc 1 277 82
 1750 0df2 8B4508   		movl	8(%ebp), %eax
 1751              		.loc 1 277 2
 1752 0df5 8B5508   		movl	8(%ebp), %edx
 1753 0df8 8D4A10   		leal	16(%edx), %ecx
 1754 0dfb 8B5510   		movl	16(%ebp), %edx
 1755 0dfe 89542408 		movl	%edx, 8(%esp)
 1756 0e02 89442404 		movl	%eax, 4(%esp)
 1757 0e06 890C24   		movl	%ecx, (%esp)
 1758 0e09 E834F2FF 		call	_AdjustIndicatorColumnRowNumbers
 1758      FF
 278:src/pdf417/PDFDetectionResult.c **** 	AdjustIndicatorColumnRowNumbers(&(detectionResult->_detectionResultColumns[column-1]), &(detection
 1759              		.loc 1 278 89
 1760 0e0e 8B4508   		movl	8(%ebp), %eax
 1761              		.loc 1 278 83
 1762 0e11 8B550C   		movl	12(%ebp), %edx
 1763 0e14 83EA01   		subl	$1, %edx
 1764              		.loc 1 278 2
 1765 0e17 69D2342F 		imull	$12084, %edx, %edx
 1765      0000
 1766 0e1d 8D4A10   		leal	16(%edx), %ecx
 1767 0e20 8B5508   		movl	8(%ebp), %edx
 1768 0e23 01D1     		addl	%edx, %ecx
 1769 0e25 8B5510   		movl	16(%ebp), %edx
 1770 0e28 89542408 		movl	%edx, 8(%esp)
 1771 0e2c 89442404 		movl	%eax, 4(%esp)
 1772 0e30 890C24   		movl	%ecx, (%esp)
 1773 0e33 E80AF2FF 		call	_AdjustIndicatorColumnRowNumbers
 1773      FF
 279:src/pdf417/PDFDetectionResult.c **** 	int unadjustedCodewordCount = MAX_CODEWORDS_IN_BARCODE;
 1774              		.loc 1 279 6
 1775 0e38 A1000000 		movl	_MAX_CODEWORDS_IN_BARCODE, %eax
 1775      00
 1776 0e3d 8945F4   		movl	%eax, -12(%ebp)
 1777              	L89:
 280:src/pdf417/PDFDetectionResult.c **** 	int previousUnadjustedCount;
 281:src/pdf417/PDFDetectionResult.c **** 	do 
 282:src/pdf417/PDFDetectionResult.c **** 	{
 283:src/pdf417/PDFDetectionResult.c **** 		previousUnadjustedCount = unadjustedCodewordCount;
 1778              		.loc 1 283 27 discriminator 2
 1779 0e40 8B45F4   		movl	-12(%ebp), %eax
 1780 0e43 8945F0   		movl	%eax, -16(%ebp)
 284:src/pdf417/PDFDetectionResult.c **** 		unadjustedCodewordCount = AdjustRowNumbers(detectionResult->_detectionResultColumns,column,size);
 1781              		.loc 1 284 61 discriminator 2
 1782 0e46 8B4508   		movl	8(%ebp), %eax
 1783 0e49 8D5010   		leal	16(%eax), %edx
 1784              		.loc 1 284 29 discriminator 2
 1785 0e4c 8B4510   		movl	16(%ebp), %eax
 1786 0e4f 89442408 		movl	%eax, 8(%esp)
 1787 0e53 8B450C   		movl	12(%ebp), %eax
 1788 0e56 89442404 		movl	%eax, 4(%esp)
 1789 0e5a 891424   		movl	%edx, (%esp)
 1790 0e5d E8F7FDFF 		call	_AdjustRowNumbers
GAS LISTING C:\Users\jisu8\AppData\Local\Temp\cc7tZZLv.s 			page 41


 1790      FF
 1791 0e62 8945F4   		movl	%eax, -12(%ebp)
 285:src/pdf417/PDFDetectionResult.c **** 	} while (unadjustedCodewordCount > 0 && unadjustedCodewordCount < previousUnadjustedCount);
 1792              		.loc 1 285 2 discriminator 2
 1793 0e65 837DF400 		cmpl	$0, -12(%ebp)
 1794 0e69 7E08     		jle	L88
 1795              		.loc 1 285 39 discriminator 1
 1796 0e6b 8B45F4   		movl	-12(%ebp), %eax
 1797 0e6e 3B45F0   		cmpl	-16(%ebp), %eax
 1798 0e71 7CCD     		jl	L89
 1799              	L88:
 286:src/pdf417/PDFDetectionResult.c **** 	return (detectionResult->_detectionResultColumns);
 1800              		.loc 1 286 9
 1801 0e73 8B4508   		movl	8(%ebp), %eax
 1802 0e76 83C010   		addl	$16, %eax
 287:src/pdf417/PDFDetectionResult.c **** }
 1803              		.loc 1 287 1
 1804 0e79 C9       		leave
 1805              	LCFI32:
 1806              		.cfi_restore 5
 1807              		.cfi_def_cfa 4, 4
 1808 0e7a C3       		ret
 1809              		.cfi_endproc
 1810              	LFE11:
 1811              	Letext0:
 1812              		.file 2 "src/pdf417/PDFBarcodeMetadata.h"
 1813              		.file 3 "D:/3.tools/mingw/mingw32/i686-w64-mingw32/include/crtdefs.h"
 1814              		.file 4 "D:/3.tools/mingw/mingw32/i686-w64-mingw32/include/stdint.h"
 1815              		.file 5 "src/ResultPoint.h"
 1816              		.file 6 "src/pdf417/PDFBoundingBox.h"
 1817              		.file 7 "src/pdf417/PDFCodeword.h"
 1818              		.file 8 "src/pdf417/PDFDetectionResultColumn.h"
 1819              		.file 9 "src/pdf417/PDFDetectionResult.h"
 1820              		.file 10 "src/pdf417/PDFCodewordDecoder.h"
 1821              		.file 11 "src/pdf417/PDFScanningDecoder.h"
 1822 0e7b 90       		.section	.debug_info,"dr"
 1823              	Ldebug_info0:
 1824 0000 8F0E0000 		.long	0xe8f
 1825 0004 0200     		.word	0x2
 1826 0006 00000000 		.secrel32	Ldebug_abbrev0
 1827 000a 04       		.byte	0x4
 1828 000b 01       		.uleb128 0x1
 1829 000c 474E5520 		.ascii "GNU C17 8.1.0 -mtune=generic -march=i686 -g -gdwarf-2 -O0\0"
 1829      43313720 
 1829      382E312E 
 1829      30202D6D 
 1829      74756E65 
 1830 0046 0C       		.byte	0xc
 1831 0047 7372632F 		.ascii "src/pdf417/PDFDetectionResult.c\0"
 1831      70646634 
 1831      31372F50 
 1831      44464465 
 1831      74656374 
 1832 0067 443A5C31 		.ascii "D:\\1.Project_workspace\\PDF_BARCODE\0"
 1832      2E50726F 
 1832      6A656374 
 1832      5F776F72 
GAS LISTING C:\Users\jisu8\AppData\Local\Temp\cc7tZZLv.s 			page 42


 1832      6B737061 
 1833 008a 00000000 		.long	Ltext0
 1834 008e 7B0E0000 		.long	Letext0
 1835 0092 00000000 		.secrel32	Ldebug_line0
 1836 0096 02       		.uleb128 0x2
 1837 0097 10       		.byte	0x10
 1838 0098 02       		.byte	0x2
 1839 0099 07       		.byte	0x7
 1840 009a 09       		.byte	0x9
 1841 009b 15010000 		.long	0x115
 1842 009f 03       		.uleb128 0x3
 1843 00a0 5F636F6C 		.ascii "_columnCount\0"
 1843      756D6E43 
 1843      6F756E74 
 1843      00
 1844 00ad 02       		.byte	0x2
 1845 00ae 09       		.byte	0x9
 1846 00af 06       		.byte	0x6
 1847 00b0 15010000 		.long	0x115
 1848 00b4 02       		.byte	0x2
 1849 00b5 23       		.byte	0x23
 1850 00b6 00       		.uleb128 0
 1851 00b7 03       		.uleb128 0x3
 1852 00b8 5F657272 		.ascii "_errorCorrectionLevel\0"
 1852      6F72436F 
 1852      72726563 
 1852      74696F6E 
 1852      4C657665 
 1853 00ce 02       		.byte	0x2
 1854 00cf 0A       		.byte	0xa
 1855 00d0 06       		.byte	0x6
 1856 00d1 15010000 		.long	0x115
 1857 00d5 02       		.byte	0x2
 1858 00d6 23       		.byte	0x23
 1859 00d7 04       		.uleb128 0x4
 1860 00d8 03       		.uleb128 0x3
 1861 00d9 5F726F77 		.ascii "_rowCountUpperPart\0"
 1861      436F756E 
 1861      74557070 
 1861      65725061 
 1861      727400
 1862 00ec 02       		.byte	0x2
 1863 00ed 0B       		.byte	0xb
 1864 00ee 06       		.byte	0x6
 1865 00ef 15010000 		.long	0x115
 1866 00f3 02       		.byte	0x2
 1867 00f4 23       		.byte	0x23
 1868 00f5 08       		.uleb128 0x8
 1869 00f6 03       		.uleb128 0x3
 1870 00f7 5F726F77 		.ascii "_rowCountLowerPart\0"
 1870      436F756E 
 1870      744C6F77 
 1870      65725061 
 1870      727400
 1871 010a 02       		.byte	0x2
 1872 010b 0C       		.byte	0xc
 1873 010c 06       		.byte	0x6
GAS LISTING C:\Users\jisu8\AppData\Local\Temp\cc7tZZLv.s 			page 43


 1874 010d 15010000 		.long	0x115
 1875 0111 02       		.byte	0x2
 1876 0112 23       		.byte	0x23
 1877 0113 0C       		.uleb128 0xc
 1878 0114 00       		.byte	0
 1879 0115 04       		.uleb128 0x4
 1880 0116 04       		.byte	0x4
 1881 0117 05       		.byte	0x5
 1882 0118 696E7400 		.ascii "int\0"
 1883 011c 05       		.uleb128 0x5
 1884 011d 15010000 		.long	0x115
 1885 0121 06       		.uleb128 0x6
 1886 0122 42617263 		.ascii "BarcodeMetadata_t\0"
 1886      6F64654D 
 1886      65746164 
 1886      6174615F 
 1886      7400
 1887 0134 02       		.byte	0x2
 1888 0135 0D       		.byte	0xd
 1889 0136 02       		.byte	0x2
 1890 0137 96000000 		.long	0x96
 1891 013b 05       		.uleb128 0x5
 1892 013c 21010000 		.long	0x121
 1893 0140 04       		.uleb128 0x4
 1894 0141 01       		.byte	0x1
 1895 0142 06       		.byte	0x6
 1896 0143 63686172 		.ascii "char\0"
 1896      00
 1897 0148 06       		.uleb128 0x6
 1898 0149 73697A65 		.ascii "size_t\0"
 1898      5F7400
 1899 0150 03       		.byte	0x3
 1900 0151 25       		.byte	0x25
 1901 0152 16       		.byte	0x16
 1902 0153 57010000 		.long	0x157
 1903 0157 04       		.uleb128 0x4
 1904 0158 04       		.byte	0x4
 1905 0159 07       		.byte	0x7
 1906 015a 756E7369 		.ascii "unsigned int\0"
 1906      676E6564 
 1906      20696E74 
 1906      00
 1907 0167 04       		.uleb128 0x4
 1908 0168 02       		.byte	0x2
 1909 0169 07       		.byte	0x7
 1910 016a 73686F72 		.ascii "short unsigned int\0"
 1910      7420756E 
 1910      7369676E 
 1910      65642069 
 1910      6E7400
 1911 017d 04       		.uleb128 0x4
 1912 017e 04       		.byte	0x4
 1913 017f 05       		.byte	0x5
 1914 0180 6C6F6E67 		.ascii "long int\0"
 1914      20696E74 
 1914      00
 1915 0189 04       		.uleb128 0x4
GAS LISTING C:\Users\jisu8\AppData\Local\Temp\cc7tZZLv.s 			page 44


 1916 018a 08       		.byte	0x8
 1917 018b 05       		.byte	0x5
 1918 018c 6C6F6E67 		.ascii "long long int\0"
 1918      206C6F6E 
 1918      6720696E 
 1918      7400
 1919 019a 04       		.uleb128 0x4
 1920 019b 04       		.byte	0x4
 1921 019c 07       		.byte	0x7
 1922 019d 6C6F6E67 		.ascii "long unsigned int\0"
 1922      20756E73 
 1922      69676E65 
 1922      6420696E 
 1922      7400
 1923 01af 04       		.uleb128 0x4
 1924 01b0 01       		.byte	0x1
 1925 01b1 08       		.byte	0x8
 1926 01b2 756E7369 		.ascii "unsigned char\0"
 1926      676E6564 
 1926      20636861 
 1926      7200
 1927 01c0 04       		.uleb128 0x4
 1928 01c1 0C       		.byte	0xc
 1929 01c2 04       		.byte	0x4
 1930 01c3 6C6F6E67 		.ascii "long double\0"
 1930      20646F75 
 1930      626C6500 
 1931 01cf 04       		.uleb128 0x4
 1932 01d0 10       		.byte	0x10
 1933 01d1 04       		.byte	0x4
 1934 01d2 5F466C6F 		.ascii "_Float128\0"
 1934      61743132 
 1934      3800
 1935 01dc 04       		.uleb128 0x4
 1936 01dd 01       		.byte	0x1
 1937 01de 06       		.byte	0x6
 1938 01df 7369676E 		.ascii "signed char\0"
 1938      65642063 
 1938      68617200 
 1939 01eb 06       		.uleb128 0x6
 1940 01ec 75696E74 		.ascii "uint8_t\0"
 1940      385F7400 
 1941 01f4 04       		.byte	0x4
 1942 01f5 24       		.byte	0x24
 1943 01f6 19       		.byte	0x19
 1944 01f7 AF010000 		.long	0x1af
 1945 01fb 04       		.uleb128 0x4
 1946 01fc 02       		.byte	0x2
 1947 01fd 05       		.byte	0x5
 1948 01fe 73686F72 		.ascii "short int\0"
 1948      7420696E 
 1948      7400
 1949 0208 04       		.uleb128 0x4
 1950 0209 08       		.byte	0x8
 1951 020a 07       		.byte	0x7
 1952 020b 6C6F6E67 		.ascii "long long unsigned int\0"
 1952      206C6F6E 
GAS LISTING C:\Users\jisu8\AppData\Local\Temp\cc7tZZLv.s 			page 45


 1952      6720756E 
 1952      7369676E 
 1952      65642069 
 1953 0222 02       		.uleb128 0x2
 1954 0223 08       		.byte	0x8
 1955 0224 05       		.byte	0x5
 1956 0225 14       		.byte	0x14
 1957 0226 09       		.byte	0x9
 1958 0227 46020000 		.long	0x246
 1959 022b 03       		.uleb128 0x3
 1960 022c 7800     		.ascii "x\0"
 1961 022e 05       		.byte	0x5
 1962 022f 16       		.byte	0x16
 1963 0230 08       		.byte	0x8
 1964 0231 46020000 		.long	0x246
 1965 0235 02       		.byte	0x2
 1966 0236 23       		.byte	0x23
 1967 0237 00       		.uleb128 0
 1968 0238 03       		.uleb128 0x3
 1969 0239 7900     		.ascii "y\0"
 1970 023b 05       		.byte	0x5
 1971 023c 17       		.byte	0x17
 1972 023d 08       		.byte	0x8
 1973 023e 46020000 		.long	0x246
 1974 0242 02       		.byte	0x2
 1975 0243 23       		.byte	0x23
 1976 0244 04       		.uleb128 0x4
 1977 0245 00       		.byte	0
 1978 0246 04       		.uleb128 0x4
 1979 0247 04       		.byte	0x4
 1980 0248 04       		.byte	0x4
 1981 0249 666C6F61 		.ascii "float\0"
 1981      7400
 1982 024f 06       		.uleb128 0x6
 1983 0250 506F696E 		.ascii "PointT_t\0"
 1983      74545F74 
 1983      00
 1984 0259 05       		.byte	0x5
 1985 025a 18       		.byte	0x18
 1986 025b 02       		.byte	0x2
 1987 025c 22020000 		.long	0x222
 1988 0260 04       		.uleb128 0x4
 1989 0261 08       		.byte	0x8
 1990 0262 04       		.byte	0x4
 1991 0263 646F7562 		.ascii "double\0"
 1991      6C6500
 1992 026a 02       		.uleb128 0x2
 1993 026b 0C       		.byte	0xc
 1994 026c 05       		.byte	0x5
 1995 026d 23       		.byte	0x23
 1996 026e 09       		.byte	0x9
 1997 026f 92020000 		.long	0x292
 1998 0273 07       		.uleb128 0x7
 1999 0274 26000000 		.secrel32	LASF0
 2000 0278 05       		.byte	0x5
 2001 0279 25       		.byte	0x25
 2002 027a 0A       		.byte	0xa
GAS LISTING C:\Users\jisu8\AppData\Local\Temp\cc7tZZLv.s 			page 46


 2003 027b EB010000 		.long	0x1eb
 2004 027f 02       		.byte	0x2
 2005 0280 23       		.byte	0x23
 2006 0281 00       		.uleb128 0
 2007 0282 07       		.uleb128 0x7
 2008 0283 BB000000 		.secrel32	LASF1
 2009 0287 05       		.byte	0x5
 2010 0288 26       		.byte	0x26
 2011 0289 0B       		.byte	0xb
 2012 028a 4F020000 		.long	0x24f
 2013 028e 02       		.byte	0x2
 2014 028f 23       		.byte	0x23
 2015 0290 04       		.uleb128 0x4
 2016 0291 00       		.byte	0
 2017 0292 06       		.uleb128 0x6
 2018 0293 52657375 		.ascii "ResultPoint_t\0"
 2018      6C74506F 
 2018      696E745F 
 2018      7400
 2019 02a1 05       		.byte	0x5
 2020 02a2 27       		.byte	0x27
 2021 02a3 02       		.byte	0x2
 2022 02a4 6A020000 		.long	0x26a
 2023 02a8 02       		.uleb128 0x2
 2024 02a9 48       		.byte	0x48
 2025 02aa 06       		.byte	0x6
 2026 02ab 06       		.byte	0x6
 2027 02ac 09       		.byte	0x9
 2028 02ad 79030000 		.long	0x379
 2029 02b1 03       		.uleb128 0x3
 2030 02b2 5F696D67 		.ascii "_imgWidth\0"
 2030      57696474 
 2030      6800
 2031 02bc 06       		.byte	0x6
 2032 02bd 08       		.byte	0x8
 2033 02be 06       		.byte	0x6
 2034 02bf 15010000 		.long	0x115
 2035 02c3 02       		.byte	0x2
 2036 02c4 23       		.byte	0x23
 2037 02c5 00       		.uleb128 0
 2038 02c6 03       		.uleb128 0x3
 2039 02c7 5F696D67 		.ascii "_imgHeight\0"
 2039      48656967 
 2039      687400
 2040 02d2 06       		.byte	0x6
 2041 02d3 09       		.byte	0x9
 2042 02d4 06       		.byte	0x6
 2043 02d5 15010000 		.long	0x115
 2044 02d9 02       		.byte	0x2
 2045 02da 23       		.byte	0x23
 2046 02db 04       		.uleb128 0x4
 2047 02dc 03       		.uleb128 0x3
 2048 02dd 5F746F70 		.ascii "_topLeft\0"
 2048      4C656674 
 2048      00
 2049 02e6 06       		.byte	0x6
 2050 02e7 0A       		.byte	0xa
GAS LISTING C:\Users\jisu8\AppData\Local\Temp\cc7tZZLv.s 			page 47


 2051 02e8 10       		.byte	0x10
 2052 02e9 92020000 		.long	0x292
 2053 02ed 02       		.byte	0x2
 2054 02ee 23       		.byte	0x23
 2055 02ef 08       		.uleb128 0x8
 2056 02f0 03       		.uleb128 0x3
 2057 02f1 5F626F74 		.ascii "_bottomLeft\0"
 2057      746F6D4C 
 2057      65667400 
 2058 02fd 06       		.byte	0x6
 2059 02fe 0B       		.byte	0xb
 2060 02ff 10       		.byte	0x10
 2061 0300 92020000 		.long	0x292
 2062 0304 02       		.byte	0x2
 2063 0305 23       		.byte	0x23
 2064 0306 14       		.uleb128 0x14
 2065 0307 03       		.uleb128 0x3
 2066 0308 5F746F70 		.ascii "_topRight\0"
 2066      52696768 
 2066      7400
 2067 0312 06       		.byte	0x6
 2068 0313 0C       		.byte	0xc
 2069 0314 10       		.byte	0x10
 2070 0315 92020000 		.long	0x292
 2071 0319 02       		.byte	0x2
 2072 031a 23       		.byte	0x23
 2073 031b 20       		.uleb128 0x20
 2074 031c 03       		.uleb128 0x3
 2075 031d 5F626F74 		.ascii "_bottomRight\0"
 2075      746F6D52 
 2075      69676874 
 2075      00
 2076 032a 06       		.byte	0x6
 2077 032b 0D       		.byte	0xd
 2078 032c 10       		.byte	0x10
 2079 032d 92020000 		.long	0x292
 2080 0331 02       		.byte	0x2
 2081 0332 23       		.byte	0x23
 2082 0333 2C       		.uleb128 0x2c
 2083 0334 03       		.uleb128 0x3
 2084 0335 5F6D696E 		.ascii "_minX\0"
 2084      5800
 2085 033b 06       		.byte	0x6
 2086 033c 0E       		.byte	0xe
 2087 033d 06       		.byte	0x6
 2088 033e 15010000 		.long	0x115
 2089 0342 02       		.byte	0x2
 2090 0343 23       		.byte	0x23
 2091 0344 38       		.uleb128 0x38
 2092 0345 03       		.uleb128 0x3
 2093 0346 5F6D6178 		.ascii "_maxX\0"
 2093      5800
 2094 034c 06       		.byte	0x6
 2095 034d 0F       		.byte	0xf
 2096 034e 06       		.byte	0x6
 2097 034f 15010000 		.long	0x115
 2098 0353 02       		.byte	0x2
GAS LISTING C:\Users\jisu8\AppData\Local\Temp\cc7tZZLv.s 			page 48


 2099 0354 23       		.byte	0x23
 2100 0355 3C       		.uleb128 0x3c
 2101 0356 03       		.uleb128 0x3
 2102 0357 5F6D696E 		.ascii "_minY\0"
 2102      5900
 2103 035d 06       		.byte	0x6
 2104 035e 10       		.byte	0x10
 2105 035f 06       		.byte	0x6
 2106 0360 15010000 		.long	0x115
 2107 0364 02       		.byte	0x2
 2108 0365 23       		.byte	0x23
 2109 0366 40       		.uleb128 0x40
 2110 0367 03       		.uleb128 0x3
 2111 0368 5F6D6178 		.ascii "_maxY\0"
 2111      5900
 2112 036e 06       		.byte	0x6
 2113 036f 11       		.byte	0x11
 2114 0370 06       		.byte	0x6
 2115 0371 15010000 		.long	0x115
 2116 0375 02       		.byte	0x2
 2117 0376 23       		.byte	0x23
 2118 0377 44       		.uleb128 0x44
 2119 0378 00       		.byte	0
 2120 0379 06       		.uleb128 0x6
 2121 037a 426F756E 		.ascii "BoundingBox_val_t\0"
 2121      64696E67 
 2121      426F785F 
 2121      76616C5F 
 2121      7400
 2122 038c 06       		.byte	0x6
 2123 038d 12       		.byte	0x12
 2124 038e 02       		.byte	0x2
 2125 038f A8020000 		.long	0x2a8
 2126 0393 02       		.uleb128 0x2
 2127 0394 4C       		.byte	0x4c
 2128 0395 06       		.byte	0x6
 2129 0396 14       		.byte	0x14
 2130 0397 09       		.byte	0x9
 2131 0398 BB030000 		.long	0x3bb
 2132 039c 07       		.uleb128 0x7
 2133 039d 26000000 		.secrel32	LASF0
 2134 03a1 06       		.byte	0x6
 2135 03a2 16       		.byte	0x16
 2136 03a3 0A       		.byte	0xa
 2137 03a4 EB010000 		.long	0x1eb
 2138 03a8 02       		.byte	0x2
 2139 03a9 23       		.byte	0x23
 2140 03aa 00       		.uleb128 0
 2141 03ab 07       		.uleb128 0x7
 2142 03ac BB000000 		.secrel32	LASF1
 2143 03b0 06       		.byte	0x6
 2144 03b1 17       		.byte	0x17
 2145 03b2 14       		.byte	0x14
 2146 03b3 79030000 		.long	0x379
 2147 03b7 02       		.byte	0x2
 2148 03b8 23       		.byte	0x23
 2149 03b9 04       		.uleb128 0x4
GAS LISTING C:\Users\jisu8\AppData\Local\Temp\cc7tZZLv.s 			page 49


 2150 03ba 00       		.byte	0
 2151 03bb 06       		.uleb128 0x6
 2152 03bc 426F756E 		.ascii "BoundingBox_t\0"
 2152      64696E67 
 2152      426F785F 
 2152      7400
 2153 03ca 06       		.byte	0x6
 2154 03cb 18       		.byte	0x18
 2155 03cc 02       		.byte	0x2
 2156 03cd 93030000 		.long	0x393
 2157 03d1 05       		.uleb128 0x5
 2158 03d2 BB030000 		.long	0x3bb
 2159 03d6 02       		.uleb128 0x2
 2160 03d7 14       		.byte	0x14
 2161 03d8 07       		.byte	0x7
 2162 03d9 04       		.byte	0x4
 2163 03da 09       		.byte	0x9
 2164 03db 3F040000 		.long	0x43f
 2165 03df 03       		.uleb128 0x3
 2166 03e0 5F737461 		.ascii "_startX\0"
 2166      72745800 
 2167 03e8 07       		.byte	0x7
 2168 03e9 06       		.byte	0x6
 2169 03ea 06       		.byte	0x6
 2170 03eb 15010000 		.long	0x115
 2171 03ef 02       		.byte	0x2
 2172 03f0 23       		.byte	0x23
 2173 03f1 00       		.uleb128 0
 2174 03f2 03       		.uleb128 0x3
 2175 03f3 5F656E64 		.ascii "_endX\0"
 2175      5800
 2176 03f9 07       		.byte	0x7
 2177 03fa 07       		.byte	0x7
 2178 03fb 06       		.byte	0x6
 2179 03fc 15010000 		.long	0x115
 2180 0400 02       		.byte	0x2
 2181 0401 23       		.byte	0x23
 2182 0402 04       		.uleb128 0x4
 2183 0403 03       		.uleb128 0x3
 2184 0404 5F627563 		.ascii "_bucket\0"
 2184      6B657400 
 2185 040c 07       		.byte	0x7
 2186 040d 08       		.byte	0x8
 2187 040e 06       		.byte	0x6
 2188 040f 15010000 		.long	0x115
 2189 0413 02       		.byte	0x2
 2190 0414 23       		.byte	0x23
 2191 0415 08       		.uleb128 0x8
 2192 0416 03       		.uleb128 0x3
 2193 0417 5F76616C 		.ascii "_value\0"
 2193      756500
 2194 041e 07       		.byte	0x7
 2195 041f 09       		.byte	0x9
 2196 0420 06       		.byte	0x6
 2197 0421 15010000 		.long	0x115
 2198 0425 02       		.byte	0x2
 2199 0426 23       		.byte	0x23
GAS LISTING C:\Users\jisu8\AppData\Local\Temp\cc7tZZLv.s 			page 50


 2200 0427 0C       		.uleb128 0xc
 2201 0428 03       		.uleb128 0x3
 2202 0429 5F726F77 		.ascii "_rowNumber\0"
 2202      4E756D62 
 2202      657200
 2203 0434 07       		.byte	0x7
 2204 0435 0A       		.byte	0xa
 2205 0436 06       		.byte	0x6
 2206 0437 15010000 		.long	0x115
 2207 043b 02       		.byte	0x2
 2208 043c 23       		.byte	0x23
 2209 043d 10       		.uleb128 0x10
 2210 043e 00       		.byte	0
 2211 043f 06       		.uleb128 0x6
 2212 0440 436F6465 		.ascii "Codeword_val_t\0"
 2212      776F7264 
 2212      5F76616C 
 2212      5F7400
 2213 044f 07       		.byte	0x7
 2214 0450 0B       		.byte	0xb
 2215 0451 02       		.byte	0x2
 2216 0452 D6030000 		.long	0x3d6
 2217 0456 02       		.uleb128 0x2
 2218 0457 18       		.byte	0x18
 2219 0458 07       		.byte	0x7
 2220 0459 0C       		.byte	0xc
 2221 045a 09       		.byte	0x9
 2222 045b 7E040000 		.long	0x47e
 2223 045f 07       		.uleb128 0x7
 2224 0460 26000000 		.secrel32	LASF0
 2225 0464 07       		.byte	0x7
 2226 0465 0E       		.byte	0xe
 2227 0466 0A       		.byte	0xa
 2228 0467 EB010000 		.long	0x1eb
 2229 046b 02       		.byte	0x2
 2230 046c 23       		.byte	0x23
 2231 046d 00       		.uleb128 0
 2232 046e 07       		.uleb128 0x7
 2233 046f BB000000 		.secrel32	LASF1
 2234 0473 07       		.byte	0x7
 2235 0474 0F       		.byte	0xf
 2236 0475 11       		.byte	0x11
 2237 0476 3F040000 		.long	0x43f
 2238 047a 02       		.byte	0x2
 2239 047b 23       		.byte	0x23
 2240 047c 04       		.uleb128 0x4
 2241 047d 00       		.byte	0
 2242 047e 06       		.uleb128 0x6
 2243 047f 436F6465 		.ascii "Codeword_t\0"
 2243      776F7264 
 2243      5F7400
 2244 048a 07       		.byte	0x7
 2245 048b 10       		.byte	0x10
 2246 048c 02       		.byte	0x2
 2247 048d 56040000 		.long	0x456
 2248 0491 05       		.uleb128 0x5
 2249 0492 7E040000 		.long	0x47e
GAS LISTING C:\Users\jisu8\AppData\Local\Temp\cc7tZZLv.s 			page 51


 2250 0496 08       		.uleb128 0x8
 2251 0497 07       		.byte	0x7
 2252 0498 04       		.byte	0x4
 2253 0499 57010000 		.long	0x157
 2254 049d 08       		.byte	0x8
 2255 049e 09       		.byte	0x9
 2256 049f 01       		.byte	0x1
 2257 04a0 BB040000 		.long	0x4bb
 2258 04a4 09       		.uleb128 0x9
 2259 04a5 4E6F6E65 		.ascii "None\0"
 2259      00
 2260 04aa 00       		.byte	0
 2261 04ab 09       		.uleb128 0x9
 2262 04ac 4C656674 		.ascii "Left\0"
 2262      00
 2263 04b1 01       		.byte	0x1
 2264 04b2 09       		.uleb128 0x9
 2265 04b3 52696768 		.ascii "Right\0"
 2265      7400
 2266 04b9 02       		.byte	0x2
 2267 04ba 00       		.byte	0
 2268 04bb 06       		.uleb128 0x6
 2269 04bc 526F7749 		.ascii "RowIndicator_t\0"
 2269      6E646963 
 2269      61746F72 
 2269      5F7400
 2270 04cb 08       		.byte	0x8
 2271 04cc 0D       		.byte	0xd
 2272 04cd 02       		.byte	0x2
 2273 04ce 96040000 		.long	0x496
 2274 04d2 0A       		.uleb128 0xa
 2275 04d3 302F     		.word	0x2f30
 2276 04d5 08       		.byte	0x8
 2277 04d6 0F       		.byte	0xf
 2278 04d7 09       		.byte	0x9
 2279 04d8 1C050000 		.long	0x51c
 2280 04dc 07       		.uleb128 0x7
 2281 04dd 31000000 		.secrel32	LASF2
 2282 04e1 08       		.byte	0x8
 2283 04e2 11       		.byte	0x11
 2284 04e3 10       		.byte	0x10
 2285 04e4 BB030000 		.long	0x3bb
 2286 04e8 02       		.byte	0x2
 2287 04e9 23       		.byte	0x23
 2288 04ea 00       		.uleb128 0
 2289 04eb 03       		.uleb128 0x3
 2290 04ec 5F636F64 		.ascii "_codewords\0"
 2290      65776F72 
 2290      647300
 2291 04f7 08       		.byte	0x8
 2292 04f8 12       		.byte	0x12
 2293 04f9 0D       		.byte	0xd
 2294 04fa 1C050000 		.long	0x51c
 2295 04fe 02       		.byte	0x2
 2296 04ff 23       		.byte	0x23
 2297 0500 4C       		.uleb128 0x4c
 2298 0501 03       		.uleb128 0x3
GAS LISTING C:\Users\jisu8\AppData\Local\Temp\cc7tZZLv.s 			page 52


 2299 0502 5F726F77 		.ascii "_rowIndicator\0"
 2299      496E6469 
 2299      6361746F 
 2299      7200
 2300 0510 08       		.byte	0x8
 2301 0511 13       		.byte	0x13
 2302 0512 11       		.byte	0x11
 2303 0513 BB040000 		.long	0x4bb
 2304 0517 03       		.byte	0x3
 2305 0518 23       		.byte	0x23
 2306 0519 AC5E     		.uleb128 0x2f2c
 2307 051b 00       		.byte	0
 2308 051c 0B       		.uleb128 0xb
 2309 051d 7E040000 		.long	0x47e
 2310 0521 2D050000 		.long	0x52d
 2311 0525 0C       		.uleb128 0xc
 2312 0526 57010000 		.long	0x157
 2313 052a F301     		.word	0x1f3
 2314 052c 00       		.byte	0
 2315 052d 06       		.uleb128 0x6
 2316 052e 44657465 		.ascii "DetectionResultColumn_val_t\0"
 2316      6374696F 
 2316      6E526573 
 2316      756C7443 
 2316      6F6C756D 
 2317 054a 08       		.byte	0x8
 2318 054b 14       		.byte	0x14
 2319 054c 02       		.byte	0x2
 2320 054d D2040000 		.long	0x4d2
 2321 0551 0A       		.uleb128 0xa
 2322 0552 342F     		.word	0x2f34
 2323 0554 08       		.byte	0x8
 2324 0555 15       		.byte	0x15
 2325 0556 09       		.byte	0x9
 2326 0557 7A050000 		.long	0x57a
 2327 055b 07       		.uleb128 0x7
 2328 055c 26000000 		.secrel32	LASF0
 2329 0560 08       		.byte	0x8
 2330 0561 17       		.byte	0x17
 2331 0562 0A       		.byte	0xa
 2332 0563 EB010000 		.long	0x1eb
 2333 0567 02       		.byte	0x2
 2334 0568 23       		.byte	0x23
 2335 0569 00       		.uleb128 0
 2336 056a 07       		.uleb128 0x7
 2337 056b BB000000 		.secrel32	LASF1
 2338 056f 08       		.byte	0x8
 2339 0570 18       		.byte	0x18
 2340 0571 1E       		.byte	0x1e
 2341 0572 2D050000 		.long	0x52d
 2342 0576 02       		.byte	0x2
 2343 0577 23       		.byte	0x23
 2344 0578 04       		.uleb128 0x4
 2345 0579 00       		.byte	0
 2346 057a 06       		.uleb128 0x6
 2347 057b 44657465 		.ascii "DetectionResultColumn_t\0"
 2347      6374696F 
GAS LISTING C:\Users\jisu8\AppData\Local\Temp\cc7tZZLv.s 			page 53


 2347      6E526573 
 2347      756C7443 
 2347      6F6C756D 
 2348 0593 08       		.byte	0x8
 2349 0594 19       		.byte	0x19
 2350 0595 02       		.byte	0x2
 2351 0596 51050000 		.long	0x551
 2352 059a 05       		.uleb128 0x5
 2353 059b 7A050000 		.long	0x57a
 2354 059f 0D       		.uleb128 0xd
 2355 05a0 AC701200 		.long	0x1270ac
 2356 05a4 09       		.byte	0x9
 2357 05a5 08       		.byte	0x8
 2358 05a6 09       		.byte	0x9
 2359 05a7 FC050000 		.long	0x5fc
 2360 05ab 03       		.uleb128 0x3
 2361 05ac 5F626172 		.ascii "_barcodeMetadata\0"
 2361      636F6465 
 2361      4D657461 
 2361      64617461 
 2361      00
 2362 05bd 09       		.byte	0x9
 2363 05be 0A       		.byte	0xa
 2364 05bf 14       		.byte	0x14
 2365 05c0 21010000 		.long	0x121
 2366 05c4 02       		.byte	0x2
 2367 05c5 23       		.byte	0x23
 2368 05c6 00       		.uleb128 0
 2369 05c7 03       		.uleb128 0x3
 2370 05c8 5F646574 		.ascii "_detectionResultColumns\0"
 2370      65637469 
 2370      6F6E5265 
 2370      73756C74 
 2370      436F6C75 
 2371 05e0 09       		.byte	0x9
 2372 05e1 0B       		.byte	0xb
 2373 05e2 1A       		.byte	0x1a
 2374 05e3 FC050000 		.long	0x5fc
 2375 05e7 02       		.byte	0x2
 2376 05e8 23       		.byte	0x23
 2377 05e9 10       		.uleb128 0x10
 2378 05ea 07       		.uleb128 0x7
 2379 05eb 31000000 		.secrel32	LASF2
 2380 05ef 09       		.byte	0x9
 2381 05f0 0C       		.byte	0xc
 2382 05f1 10       		.byte	0x10
 2383 05f2 BB030000 		.long	0x3bb
 2384 05f6 04       		.byte	0x4
 2385 05f7 23       		.byte	0x23
 2386 05f8 E0E049   		.uleb128 0x127060
 2387 05fb 00       		.byte	0
 2388 05fc 0B       		.uleb128 0xb
 2389 05fd 7A050000 		.long	0x57a
 2390 0601 0C060000 		.long	0x60c
 2391 0605 0E       		.uleb128 0xe
 2392 0606 57010000 		.long	0x157
 2393 060a 63       		.byte	0x63
GAS LISTING C:\Users\jisu8\AppData\Local\Temp\cc7tZZLv.s 			page 54


 2394 060b 00       		.byte	0
 2395 060c 06       		.uleb128 0x6
 2396 060d 44657465 		.ascii "DetectionResult_t\0"
 2396      6374696F 
 2396      6E526573 
 2396      756C745F 
 2396      7400
 2397 061f 09       		.byte	0x9
 2398 0620 0D       		.byte	0xd
 2399 0621 02       		.byte	0x2
 2400 0622 9F050000 		.long	0x59f
 2401 0626 0F       		.uleb128 0xf
 2402 0627 4D4F4455 		.ascii "MODULES_IN_CODEWORD\0"
 2402      4C45535F 
 2402      494E5F43 
 2402      4F444557 
 2402      4F524400 
 2403 063b 0A       		.byte	0xa
 2404 063c 1D       		.byte	0x1d
 2405 063d 12       		.byte	0x12
 2406 063e 1C010000 		.long	0x11c
 2407 0642 01       		.byte	0x1
 2408 0643 01       		.byte	0x1
 2409 0644 0F       		.uleb128 0xf
 2410 0645 42415253 		.ascii "BARS_IN_MODULE\0"
 2410      5F494E5F 
 2410      4D4F4455 
 2410      4C4500
 2411 0654 0A       		.byte	0xa
 2412 0655 1E       		.byte	0x1e
 2413 0656 12       		.byte	0x12
 2414 0657 1C010000 		.long	0x11c
 2415 065b 01       		.byte	0x1
 2416 065c 01       		.byte	0x1
 2417 065d 0F       		.uleb128 0xf
 2418 065e 4D41585F 		.ascii "MAX_CODEWORDS_IN_BARCODE\0"
 2418      434F4445 
 2418      574F5244 
 2418      535F494E 
 2418      5F424152 
 2419 0677 0A       		.byte	0xa
 2420 0678 1F       		.byte	0x1f
 2421 0679 12       		.byte	0x12
 2422 067a 1C010000 		.long	0x11c
 2423 067e 01       		.byte	0x1
 2424 067f 01       		.byte	0x1
 2425 0680 0F       		.uleb128 0xf
 2426 0681 42415243 		.ascii "BARCODE_ROW_UNKNOWN\0"
 2426      4F44455F 
 2426      524F575F 
 2426      554E4B4E 
 2426      4F574E00 
 2427 0695 0B       		.byte	0xb
 2428 0696 09       		.byte	0x9
 2429 0697 12       		.byte	0x12
 2430 0698 1C010000 		.long	0x11c
 2431 069c 01       		.byte	0x1
GAS LISTING C:\Users\jisu8\AppData\Local\Temp\cc7tZZLv.s 			page 55


 2432 069d 01       		.byte	0x1
 2433 069e 0F       		.uleb128 0xf
 2434 069f 726F7749 		.ascii "rowIndicatorColumn\0"
 2434      6E646963 
 2434      61746F72 
 2434      436F6C75 
 2434      6D6E00
 2435 06b2 0B       		.byte	0xb
 2436 06b3 0F       		.byte	0xf
 2437 06b4 20       		.byte	0x20
 2438 06b5 7A050000 		.long	0x57a
 2439 06b9 01       		.byte	0x1
 2440 06ba 01       		.byte	0x1
 2441 06bb 10       		.uleb128 0x10
 2442 06bc 41444A55 		.ascii "ADJUST_ROW_NUMBER_SKIP\0"
 2442      53545F52 
 2442      4F575F4E 
 2442      554D4245 
 2442      525F534B 
 2443 06d3 01       		.byte	0x1
 2444 06d4 06       		.byte	0x6
 2445 06d5 12       		.byte	0x12
 2446 06d6 1C010000 		.long	0x11c
 2447 06da 05       		.byte	0x5
 2448 06db 03       		.byte	0x3
 2449 06dc 00000000 		.long	_ADJUST_ROW_NUMBER_SKIP
 2450 06e0 11       		.uleb128 0x11
 2451 06e1 01       		.byte	0x1
 2452 06e2 616C6C43 		.ascii "allColumns\0"
 2452      6F6C756D 
 2452      6E7300
 2453 06ed 01       		.byte	0x1
 2454 06ee 1301     		.word	0x113
 2455 06f0 21       		.byte	0x21
 2456 06f1 01       		.byte	0x1
 2457 06f2 8C070000 		.long	0x78c
 2458 06f6 EC0D0000 		.long	LFB11
 2459 06fa 7B0E0000 		.long	LFE11
 2460 06fe 00000000 		.secrel32	LLST10
 2461 0702 01       		.byte	0x1
 2462 0703 8C070000 		.long	0x78c
 2463 0707 12       		.uleb128 0x12
 2464 0708 64657465 		.ascii "detectionResult\0"
 2464      6374696F 
 2464      6E526573 
 2464      756C7400 
 2465 0718 01       		.byte	0x1
 2466 0719 1301     		.word	0x113
 2467 071b 40       		.byte	0x40
 2468 071c 92070000 		.long	0x792
 2469 0720 02       		.byte	0x2
 2470 0721 91       		.byte	0x91
 2471 0722 00       		.sleb128 0
 2472 0723 13       		.uleb128 0x13
 2473 0724 48000000 		.secrel32	LASF3
 2474 0728 01       		.byte	0x1
 2475 0729 1301     		.word	0x113
GAS LISTING C:\Users\jisu8\AppData\Local\Temp\cc7tZZLv.s 			page 56


 2476 072b 54       		.byte	0x54
 2477 072c 15010000 		.long	0x115
 2478 0730 02       		.byte	0x2
 2479 0731 91       		.byte	0x91
 2480 0732 04       		.sleb128 4
 2481 0733 13       		.uleb128 0x13
 2482 0734 09000000 		.secrel32	LASF4
 2483 0738 01       		.byte	0x1
 2484 0739 1301     		.word	0x113
 2485 073b 5F       		.byte	0x5f
 2486 073c 15010000 		.long	0x115
 2487 0740 02       		.byte	0x2
 2488 0741 91       		.byte	0x91
 2489 0742 08       		.sleb128 8
 2490 0743 14       		.uleb128 0x14
 2491 0744 756E6164 		.ascii "unadjustedCodewordCount\0"
 2491      6A757374 
 2491      6564436F 
 2491      6465776F 
 2491      7264436F 
 2492 075c 01       		.byte	0x1
 2493 075d 1701     		.word	0x117
 2494 075f 06       		.byte	0x6
 2495 0760 15010000 		.long	0x115
 2496 0764 02       		.byte	0x2
 2497 0765 91       		.byte	0x91
 2498 0766 6C       		.sleb128 -20
 2499 0767 14       		.uleb128 0x14
 2500 0768 70726576 		.ascii "previousUnadjustedCount\0"
 2500      696F7573 
 2500      556E6164 
 2500      6A757374 
 2500      6564436F 
 2501 0780 01       		.byte	0x1
 2502 0781 1801     		.word	0x118
 2503 0783 06       		.byte	0x6
 2504 0784 15010000 		.long	0x115
 2505 0788 02       		.byte	0x2
 2506 0789 91       		.byte	0x91
 2507 078a 68       		.sleb128 -24
 2508 078b 00       		.byte	0
 2509 078c 15       		.uleb128 0x15
 2510 078d 04       		.byte	0x4
 2511 078e 9A050000 		.long	0x59a
 2512 0792 15       		.uleb128 0x15
 2513 0793 04       		.byte	0x4
 2514 0794 0C060000 		.long	0x60c
 2515 0798 16       		.uleb128 0x16
 2516 0799 41646A75 		.ascii "AdjustRowNumbers\0"
 2516      7374526F 
 2516      774E756D 
 2516      62657273 
 2516      00
 2517 07aa 01       		.byte	0x1
 2518 07ab F3       		.byte	0xf3
 2519 07ac 0C       		.byte	0xc
 2520 07ad 01       		.byte	0x1
GAS LISTING C:\Users\jisu8\AppData\Local\Temp\cc7tZZLv.s 			page 57


 2521 07ae 15010000 		.long	0x115
 2522 07b2 590C0000 		.long	LFB10
 2523 07b6 EC0D0000 		.long	LFE10
 2524 07ba 38000000 		.secrel32	LLST9
 2525 07be 01       		.byte	0x1
 2526 07bf 64080000 		.long	0x864
 2527 07c3 17       		.uleb128 0x17
 2528 07c4 4F000000 		.secrel32	LASF5
 2529 07c8 01       		.byte	0x1
 2530 07c9 F3       		.byte	0xf3
 2531 07ca 37       		.byte	0x37
 2532 07cb 64080000 		.long	0x864
 2533 07cf 02       		.byte	0x2
 2534 07d0 91       		.byte	0x91
 2535 07d1 00       		.sleb128 0
 2536 07d2 17       		.uleb128 0x17
 2537 07d3 48000000 		.secrel32	LASF3
 2538 07d7 01       		.byte	0x1
 2539 07d8 F3       		.byte	0xf3
 2540 07d9 52       		.byte	0x52
 2541 07da 15010000 		.long	0x115
 2542 07de 02       		.byte	0x2
 2543 07df 91       		.byte	0x91
 2544 07e0 04       		.sleb128 4
 2545 07e1 17       		.uleb128 0x17
 2546 07e2 09000000 		.secrel32	LASF4
 2547 07e6 01       		.byte	0x1
 2548 07e7 F3       		.byte	0xf3
 2549 07e8 5D       		.byte	0x5d
 2550 07e9 15010000 		.long	0x115
 2551 07ed 02       		.byte	0x2
 2552 07ee 91       		.byte	0x91
 2553 07ef 08       		.sleb128 8
 2554 07f0 18       		.uleb128 0x18
 2555 07f1 95000000 		.secrel32	LASF6
 2556 07f5 01       		.byte	0x1
 2557 07f6 F5       		.byte	0xf5
 2558 07f7 06       		.byte	0x6
 2559 07f8 15010000 		.long	0x115
 2560 07fc 02       		.byte	0x2
 2561 07fd 91       		.byte	0x91
 2562 07fe 64       		.sleb128 -28
 2563 07ff 19       		.uleb128 0x19
 2564 0800 8C0C0000 		.long	LBB15
 2565 0804 E30D0000 		.long	LBE15
 2566 0808 18       		.uleb128 0x18
 2567 0809 66000000 		.secrel32	LASF7
 2568 080d 01       		.byte	0x1
 2569 080e FB       		.byte	0xfb
 2570 080f 0B       		.byte	0xb
 2571 0810 15010000 		.long	0x115
 2572 0814 02       		.byte	0x2
 2573 0815 91       		.byte	0x91
 2574 0816 6C       		.sleb128 -20
 2575 0817 19       		.uleb128 0x19
 2576 0818 980C0000 		.long	LBB16
 2577 081c D30D0000 		.long	LBE16
GAS LISTING C:\Users\jisu8\AppData\Local\Temp\cc7tZZLv.s 			page 58


 2578 0820 1A       		.uleb128 0x1a
 2579 0821 3E000000 		.secrel32	LASF8
 2580 0825 01       		.byte	0x1
 2581 0826 0101     		.word	0x101
 2582 0828 10       		.byte	0x10
 2583 0829 6A080000 		.long	0x86a
 2584 082d 02       		.byte	0x2
 2585 082e 91       		.byte	0x91
 2586 082f 60       		.sleb128 -32
 2587 0830 14       		.uleb128 0x14
 2588 0831 636F6465 		.ascii "codewordst\0"
 2588      776F7264 
 2588      737400
 2589 083c 01       		.byte	0x1
 2590 083d 0201     		.word	0x102
 2591 083f 0E       		.byte	0xe
 2592 0840 7E040000 		.long	0x47e
 2593 0844 02       		.byte	0x2
 2594 0845 91       		.byte	0x91
 2595 0846 48       		.sleb128 -56
 2596 0847 19       		.uleb128 0x19
 2597 0848 C50C0000 		.long	LBB17
 2598 084c D20D0000 		.long	LBE17
 2599 0850 1A       		.uleb128 0x1a
 2600 0851 0E000000 		.secrel32	LASF9
 2601 0855 01       		.byte	0x1
 2602 0856 0301     		.word	0x103
 2603 0858 0C       		.byte	0xc
 2604 0859 15010000 		.long	0x115
 2605 085d 02       		.byte	0x2
 2606 085e 91       		.byte	0x91
 2607 085f 68       		.sleb128 -24
 2608 0860 00       		.byte	0
 2609 0861 00       		.byte	0
 2610 0862 00       		.byte	0
 2611 0863 00       		.byte	0
 2612 0864 15       		.uleb128 0x15
 2613 0865 04       		.byte	0x4
 2614 0866 7A050000 		.long	0x57a
 2615 086a 15       		.uleb128 0x15
 2616 086b 04       		.byte	0x4
 2617 086c 7E040000 		.long	0x47e
 2618 0870 1B       		.uleb128 0x1b
 2619 0871 41646A75 		.ascii "AdjustRowNumbers_internal\0"
 2619      7374526F 
 2619      774E756D 
 2619      62657273 
 2619      5F696E74 
 2620 088b 01       		.byte	0x1
 2621 088c BC       		.byte	0xbc
 2622 088d 0D       		.byte	0xd
 2623 088e 01       		.byte	0x1
 2624 088f 90070000 		.long	LFB9
 2625 0893 590C0000 		.long	LFE9
 2626 0897 70000000 		.secrel32	LLST8
 2627 089b 01       		.byte	0x1
 2628 089c 80090000 		.long	0x980
GAS LISTING C:\Users\jisu8\AppData\Local\Temp\cc7tZZLv.s 			page 59


 2629 08a0 17       		.uleb128 0x17
 2630 08a1 4F000000 		.secrel32	LASF5
 2631 08a5 01       		.byte	0x1
 2632 08a6 BC       		.byte	0xbc
 2633 08a7 47       		.byte	0x47
 2634 08a8 8C070000 		.long	0x78c
 2635 08ac 02       		.byte	0x2
 2636 08ad 91       		.byte	0x91
 2637 08ae 00       		.sleb128 0
 2638 08af 17       		.uleb128 0x17
 2639 08b0 66000000 		.secrel32	LASF7
 2640 08b4 01       		.byte	0x1
 2641 08b5 BC       		.byte	0xbc
 2642 08b6 63       		.byte	0x63
 2643 08b7 15010000 		.long	0x115
 2644 08bb 02       		.byte	0x2
 2645 08bc 91       		.byte	0x91
 2646 08bd 04       		.sleb128 4
 2647 08be 17       		.uleb128 0x17
 2648 08bf 0E000000 		.secrel32	LASF9
 2649 08c3 01       		.byte	0x1
 2650 08c4 BC       		.byte	0xbc
 2651 08c5 76       		.byte	0x76
 2652 08c6 15010000 		.long	0x115
 2653 08ca 02       		.byte	0x2
 2654 08cb 91       		.byte	0x91
 2655 08cc 08       		.sleb128 8
 2656 08cd 17       		.uleb128 0x17
 2657 08ce 3E000000 		.secrel32	LASF8
 2658 08d2 01       		.byte	0x1
 2659 08d3 BC       		.byte	0xbc
 2660 08d4 91       		.byte	0x91
 2661 08d5 6A080000 		.long	0x86a
 2662 08d9 02       		.byte	0x2
 2663 08da 91       		.byte	0x91
 2664 08db 0C       		.sleb128 12
 2665 08dc 17       		.uleb128 0x17
 2666 08dd 09000000 		.secrel32	LASF4
 2667 08e1 01       		.byte	0x1
 2668 08e2 BC       		.byte	0xbc
 2669 08e3 9F       		.byte	0x9f
 2670 08e4 15010000 		.long	0x115
 2671 08e8 02       		.byte	0x2
 2672 08e9 91       		.byte	0x91
 2673 08ea 10       		.sleb128 16
 2674 08eb 18       		.uleb128 0x18
 2675 08ec 00000000 		.secrel32	LASF10
 2676 08f0 01       		.byte	0x1
 2677 08f1 BE       		.byte	0xbe
 2678 08f2 0D       		.byte	0xd
 2679 08f3 7E040000 		.long	0x47e
 2680 08f7 02       		.byte	0x2
 2681 08f8 91       		.byte	0x91
 2682 08f9 48       		.sleb128 -56
 2683 08fa 10       		.uleb128 0x10
 2684 08fb 70726576 		.ascii "previousColumnCodewords\0"
 2684      696F7573 
GAS LISTING C:\Users\jisu8\AppData\Local\Temp\cc7tZZLv.s 			page 60


 2684      436F6C75 
 2684      6D6E436F 
 2684      6465776F 
 2685 0913 01       		.byte	0x1
 2686 0914 BF       		.byte	0xbf
 2687 0915 0F       		.byte	0xf
 2688 0916 6A080000 		.long	0x86a
 2689 091a 02       		.byte	0x2
 2690 091b 91       		.byte	0x91
 2691 091c 68       		.sleb128 -24
 2692 091d 10       		.uleb128 0x10
 2693 091e 6E657874 		.ascii "nextColumnCodewords\0"
 2693      436F6C75 
 2693      6D6E436F 
 2693      6465776F 
 2693      72647300 
 2694 0932 01       		.byte	0x1
 2695 0933 C0       		.byte	0xc0
 2696 0934 0F       		.byte	0xf
 2697 0935 6A080000 		.long	0x86a
 2698 0939 02       		.byte	0x2
 2699 093a 91       		.byte	0x91
 2700 093b 64       		.sleb128 -28
 2701 093c 10       		.uleb128 0x10
 2702 093d 6F746865 		.ascii "otherCodewords\0"
 2702      72436F64 
 2702      65776F72 
 2702      647300
 2703 094c 01       		.byte	0x1
 2704 094d C2       		.byte	0xc2
 2705 094e 0D       		.byte	0xd
 2706 094f 80090000 		.long	0x980
 2707 0953 03       		.byte	0x3
 2708 0954 91       		.byte	0x91
 2709 0955 F87C     		.sleb128 -392
 2710 0957 10       		.uleb128 0x10
 2711 0958 73697A65 		.ascii "size1\0"
 2711      3100
 2712 095e 01       		.byte	0x1
 2713 095f C3       		.byte	0xc3
 2714 0960 06       		.byte	0x6
 2715 0961 15010000 		.long	0x115
 2716 0965 02       		.byte	0x2
 2717 0966 91       		.byte	0x91
 2718 0967 60       		.sleb128 -32
 2719 0968 19       		.uleb128 0x19
 2720 0969 260C0000 		.long	LBB14
 2721 096d 560C0000 		.long	LBE14
 2722 0971 10       		.uleb128 0x10
 2723 0972 6900     		.ascii "i\0"
 2724 0974 01       		.byte	0x1
 2725 0975 E2       		.byte	0xe2
 2726 0976 0B       		.byte	0xb
 2727 0977 15010000 		.long	0x115
 2728 097b 02       		.byte	0x2
 2729 097c 91       		.byte	0x91
 2730 097d 6C       		.sleb128 -20
GAS LISTING C:\Users\jisu8\AppData\Local\Temp\cc7tZZLv.s 			page 61


 2731 097e 00       		.byte	0
 2732 097f 00       		.byte	0
 2733 0980 0B       		.uleb128 0xb
 2734 0981 7E040000 		.long	0x47e
 2735 0985 90090000 		.long	0x990
 2736 0989 0E       		.uleb128 0xe
 2737 098a 57010000 		.long	0x157
 2738 098e 0D       		.byte	0xd
 2739 098f 00       		.byte	0
 2740 0990 1C       		.uleb128 0x1c
 2741 0991 41646A75 		.ascii "AdjustRowNumber\0"
 2741      7374526F 
 2741      774E756D 
 2741      62657200 
 2742 09a1 01       		.byte	0x1
 2743 09a2 AF       		.byte	0xaf
 2744 09a3 10       		.byte	0x10
 2745 09a4 01       		.byte	0x1
 2746 09a5 EB010000 		.long	0x1eb
 2747 09a9 0C070000 		.long	LFB8
 2748 09ad 90070000 		.long	LFE8
 2749 09b1 A8000000 		.secrel32	LLST7
 2750 09b5 01       		.byte	0x1
 2751 09b6 E3090000 		.long	0x9e3
 2752 09ba 17       		.uleb128 0x17
 2753 09bb 00000000 		.secrel32	LASF10
 2754 09bf 01       		.byte	0x1
 2755 09c0 AF       		.byte	0xaf
 2756 09c1 2D       		.byte	0x2d
 2757 09c2 6A080000 		.long	0x86a
 2758 09c6 02       		.byte	0x2
 2759 09c7 91       		.byte	0x91
 2760 09c8 00       		.sleb128 0
 2761 09c9 1D       		.uleb128 0x1d
 2762 09ca 6F746865 		.ascii "otherCodeword\0"
 2762      72436F64 
 2762      65776F72 
 2762      6400
 2763 09d8 01       		.byte	0x1
 2764 09d9 AF       		.byte	0xaf
 2765 09da 4A       		.byte	0x4a
 2766 09db E3090000 		.long	0x9e3
 2767 09df 02       		.byte	0x2
 2768 09e0 91       		.byte	0x91
 2769 09e1 04       		.sleb128 4
 2770 09e2 00       		.byte	0
 2771 09e3 15       		.uleb128 0x15
 2772 09e4 04       		.byte	0x4
 2773 09e5 91040000 		.long	0x491
 2774 09e9 16       		.uleb128 0x16
 2775 09ea 41646A75 		.ascii "AdjustRowNumbersByRow\0"
 2775      7374526F 
 2775      774E756D 
 2775      62657273 
 2775      4279526F 
 2776 0a00 01       		.byte	0x1
 2777 0a01 9F       		.byte	0x9f
GAS LISTING C:\Users\jisu8\AppData\Local\Temp\cc7tZZLv.s 			page 62


 2778 0a02 0C       		.byte	0xc
 2779 0a03 01       		.byte	0x1
 2780 0a04 15010000 		.long	0x115
 2781 0a08 AF060000 		.long	LFB7
 2782 0a0c 0C070000 		.long	LFE7
 2783 0a10 E0000000 		.secrel32	LLST6
 2784 0a14 01       		.byte	0x1
 2785 0a15 560A0000 		.long	0xa56
 2786 0a19 17       		.uleb128 0x17
 2787 0a1a 4F000000 		.secrel32	LASF5
 2788 0a1e 01       		.byte	0x1
 2789 0a1f 9F       		.byte	0x9f
 2790 0a20 3C       		.byte	0x3c
 2791 0a21 64080000 		.long	0x864
 2792 0a25 02       		.byte	0x2
 2793 0a26 91       		.byte	0x91
 2794 0a27 00       		.sleb128 0
 2795 0a28 17       		.uleb128 0x17
 2796 0a29 48000000 		.secrel32	LASF3
 2797 0a2d 01       		.byte	0x1
 2798 0a2e 9F       		.byte	0x9f
 2799 0a2f 57       		.byte	0x57
 2800 0a30 15010000 		.long	0x115
 2801 0a34 02       		.byte	0x2
 2802 0a35 91       		.byte	0x91
 2803 0a36 04       		.sleb128 4
 2804 0a37 17       		.uleb128 0x17
 2805 0a38 09000000 		.secrel32	LASF4
 2806 0a3c 01       		.byte	0x1
 2807 0a3d 9F       		.byte	0x9f
 2808 0a3e 62       		.byte	0x62
 2809 0a3f 15010000 		.long	0x115
 2810 0a43 02       		.byte	0x2
 2811 0a44 91       		.byte	0x91
 2812 0a45 08       		.sleb128 8
 2813 0a46 18       		.uleb128 0x18
 2814 0a47 95000000 		.secrel32	LASF6
 2815 0a4b 01       		.byte	0x1
 2816 0a4c A7       		.byte	0xa7
 2817 0a4d 06       		.byte	0x6
 2818 0a4e 15010000 		.long	0x115
 2819 0a52 02       		.byte	0x2
 2820 0a53 91       		.byte	0x91
 2821 0a54 6C       		.sleb128 -20
 2822 0a55 00       		.byte	0
 2823 0a56 16       		.uleb128 0x16
 2824 0a57 41646A75 		.ascii "AdjustRowNumbersFromRRI\0"
 2824      7374526F 
 2824      774E756D 
 2824      62657273 
 2824      46726F6D 
 2825 0a6f 01       		.byte	0x1
 2826 0a70 78       		.byte	0x78
 2827 0a71 0C       		.byte	0xc
 2828 0a72 01       		.byte	0x1
 2829 0a73 15010000 		.long	0x115
 2830 0a77 D7040000 		.long	LFB6
GAS LISTING C:\Users\jisu8\AppData\Local\Temp\cc7tZZLv.s 			page 63


 2831 0a7b AF060000 		.long	LFE6
 2832 0a7f 18010000 		.secrel32	LLST5
 2833 0a83 01       		.byte	0x1
 2834 0a84 570B0000 		.long	0xb57
 2835 0a88 17       		.uleb128 0x17
 2836 0a89 4F000000 		.secrel32	LASF5
 2837 0a8d 01       		.byte	0x1
 2838 0a8e 78       		.byte	0x78
 2839 0a8f 3D       		.byte	0x3d
 2840 0a90 64080000 		.long	0x864
 2841 0a94 02       		.byte	0x2
 2842 0a95 91       		.byte	0x91
 2843 0a96 00       		.sleb128 0
 2844 0a97 17       		.uleb128 0x17
 2845 0a98 48000000 		.secrel32	LASF3
 2846 0a9c 01       		.byte	0x1
 2847 0a9d 78       		.byte	0x78
 2848 0a9e 58       		.byte	0x58
 2849 0a9f 15010000 		.long	0x115
 2850 0aa3 02       		.byte	0x2
 2851 0aa4 91       		.byte	0x91
 2852 0aa5 04       		.sleb128 4
 2853 0aa6 17       		.uleb128 0x17
 2854 0aa7 09000000 		.secrel32	LASF4
 2855 0aab 01       		.byte	0x1
 2856 0aac 78       		.byte	0x78
 2857 0aad 63       		.byte	0x63
 2858 0aae 15010000 		.long	0x115
 2859 0ab2 02       		.byte	0x2
 2860 0ab3 91       		.byte	0x91
 2861 0ab4 08       		.sleb128 8
 2862 0ab5 18       		.uleb128 0x18
 2863 0ab6 95000000 		.secrel32	LASF6
 2864 0aba 01       		.byte	0x1
 2865 0abb 7E       		.byte	0x7e
 2866 0abc 06       		.byte	0x6
 2867 0abd 15010000 		.long	0x115
 2868 0ac1 02       		.byte	0x2
 2869 0ac2 91       		.byte	0x91
 2870 0ac3 6C       		.sleb128 -20
 2871 0ac4 18       		.uleb128 0x18
 2872 0ac5 3E000000 		.secrel32	LASF8
 2873 0ac9 01       		.byte	0x1
 2874 0aca 7F       		.byte	0x7f
 2875 0acb 0F       		.byte	0xf
 2876 0acc 6A080000 		.long	0x86a
 2877 0ad0 02       		.byte	0x2
 2878 0ad1 91       		.byte	0x91
 2879 0ad2 5C       		.sleb128 -36
 2880 0ad3 19       		.uleb128 0x19
 2881 0ad4 24050000 		.long	LBB10
 2882 0ad8 A6060000 		.long	LBE10
 2883 0adc 18       		.uleb128 0x18
 2884 0add 0E000000 		.secrel32	LASF9
 2885 0ae1 01       		.byte	0x1
 2886 0ae2 80       		.byte	0x80
 2887 0ae3 0E       		.byte	0xe
GAS LISTING C:\Users\jisu8\AppData\Local\Temp\cc7tZZLv.s 			page 64


 2888 0ae4 48010000 		.long	0x148
 2889 0ae8 02       		.byte	0x2
 2890 0ae9 91       		.byte	0x91
 2891 0aea 68       		.sleb128 -24
 2892 0aeb 19       		.uleb128 0x19
 2893 0aec 30050000 		.long	LBB11
 2894 0af0 96060000 		.long	LBE11
 2895 0af4 18       		.uleb128 0x18
 2896 0af5 A5000000 		.secrel32	LASF11
 2897 0af9 01       		.byte	0x1
 2898 0afa 86       		.byte	0x86
 2899 0afb 07       		.byte	0x7
 2900 0afc 15010000 		.long	0x115
 2901 0b00 02       		.byte	0x2
 2902 0b01 91       		.byte	0x91
 2903 0b02 58       		.sleb128 -40
 2904 0b03 18       		.uleb128 0x18
 2905 0b04 84000000 		.secrel32	LASF12
 2906 0b08 01       		.byte	0x1
 2907 0b09 87       		.byte	0x87
 2908 0b0a 07       		.byte	0x7
 2909 0b0b 15010000 		.long	0x115
 2910 0b0f 02       		.byte	0x2
 2911 0b10 91       		.byte	0x91
 2912 0b11 64       		.sleb128 -28
 2913 0b12 18       		.uleb128 0x18
 2914 0b13 1B000000 		.secrel32	LASF13
 2915 0b17 01       		.byte	0x1
 2916 0b18 88       		.byte	0x88
 2917 0b19 1D       		.byte	0x1d
 2918 0b1a 64080000 		.long	0x864
 2919 0b1e 02       		.byte	0x2
 2920 0b1f 91       		.byte	0x91
 2921 0b20 54       		.sleb128 -44
 2922 0b21 19       		.uleb128 0x19
 2923 0b22 85050000 		.long	LBB12
 2924 0b26 95060000 		.long	LBE12
 2925 0b2a 18       		.uleb128 0x18
 2926 0b2b C3000000 		.secrel32	LASF14
 2927 0b2f 01       		.byte	0x1
 2928 0b30 89       		.byte	0x89
 2929 0b31 22       		.byte	0x22
 2930 0b32 64080000 		.long	0x864
 2931 0b36 02       		.byte	0x2
 2932 0b37 91       		.byte	0x91
 2933 0b38 60       		.sleb128 -32
 2934 0b39 19       		.uleb128 0x19
 2935 0b3a 95050000 		.long	LBB13
 2936 0b3e 76060000 		.long	LBE13
 2937 0b42 18       		.uleb128 0x18
 2938 0b43 00000000 		.secrel32	LASF10
 2939 0b47 01       		.byte	0x1
 2940 0b48 8F       		.byte	0x8f
 2941 0b49 0F       		.byte	0xf
 2942 0b4a 7E040000 		.long	0x47e
 2943 0b4e 03       		.byte	0x3
 2944 0b4f 91       		.byte	0x91
GAS LISTING C:\Users\jisu8\AppData\Local\Temp\cc7tZZLv.s 			page 65


 2945 0b50 BC7F     		.sleb128 -68
 2946 0b52 00       		.byte	0
 2947 0b53 00       		.byte	0
 2948 0b54 00       		.byte	0
 2949 0b55 00       		.byte	0
 2950 0b56 00       		.byte	0
 2951 0b57 16       		.uleb128 0x16
 2952 0b58 41646A75 		.ascii "AdjustRowNumbersFromLRI\0"
 2952      7374526F 
 2952      774E756D 
 2952      62657273 
 2952      46726F6D 
 2953 0b70 01       		.byte	0x1
 2954 0b71 52       		.byte	0x52
 2955 0b72 0C       		.byte	0xc
 2956 0b73 01       		.byte	0x1
 2957 0b74 15010000 		.long	0x115
 2958 0b78 21030000 		.long	LFB5
 2959 0b7c D7040000 		.long	LFE5
 2960 0b80 50010000 		.secrel32	LLST4
 2961 0b84 01       		.byte	0x1
 2962 0b85 580C0000 		.long	0xc58
 2963 0b89 17       		.uleb128 0x17
 2964 0b8a 4F000000 		.secrel32	LASF5
 2965 0b8e 01       		.byte	0x1
 2966 0b8f 52       		.byte	0x52
 2967 0b90 3E       		.byte	0x3e
 2968 0b91 64080000 		.long	0x864
 2969 0b95 02       		.byte	0x2
 2970 0b96 91       		.byte	0x91
 2971 0b97 00       		.sleb128 0
 2972 0b98 17       		.uleb128 0x17
 2973 0b99 48000000 		.secrel32	LASF3
 2974 0b9d 01       		.byte	0x1
 2975 0b9e 52       		.byte	0x52
 2976 0b9f 59       		.byte	0x59
 2977 0ba0 15010000 		.long	0x115
 2978 0ba4 02       		.byte	0x2
 2979 0ba5 91       		.byte	0x91
 2980 0ba6 04       		.sleb128 4
 2981 0ba7 17       		.uleb128 0x17
 2982 0ba8 09000000 		.secrel32	LASF4
 2983 0bac 01       		.byte	0x1
 2984 0bad 52       		.byte	0x52
 2985 0bae 64       		.byte	0x64
 2986 0baf 15010000 		.long	0x115
 2987 0bb3 02       		.byte	0x2
 2988 0bb4 91       		.byte	0x91
 2989 0bb5 08       		.sleb128 8
 2990 0bb6 18       		.uleb128 0x18
 2991 0bb7 95000000 		.secrel32	LASF6
 2992 0bbb 01       		.byte	0x1
 2993 0bbc 58       		.byte	0x58
 2994 0bbd 06       		.byte	0x6
 2995 0bbe 15010000 		.long	0x115
 2996 0bc2 02       		.byte	0x2
 2997 0bc3 91       		.byte	0x91
GAS LISTING C:\Users\jisu8\AppData\Local\Temp\cc7tZZLv.s 			page 66


 2998 0bc4 6C       		.sleb128 -20
 2999 0bc5 18       		.uleb128 0x18
 3000 0bc6 3E000000 		.secrel32	LASF8
 3001 0bca 01       		.byte	0x1
 3002 0bcb 59       		.byte	0x59
 3003 0bcc 0F       		.byte	0xf
 3004 0bcd 6A080000 		.long	0x86a
 3005 0bd1 02       		.byte	0x2
 3006 0bd2 91       		.byte	0x91
 3007 0bd3 5C       		.sleb128 -36
 3008 0bd4 19       		.uleb128 0x19
 3009 0bd5 4C030000 		.long	LBB6
 3010 0bd9 CE040000 		.long	LBE6
 3011 0bdd 18       		.uleb128 0x18
 3012 0bde 0E000000 		.secrel32	LASF9
 3013 0be2 01       		.byte	0x1
 3014 0be3 5A       		.byte	0x5a
 3015 0be4 0E       		.byte	0xe
 3016 0be5 48010000 		.long	0x148
 3017 0be9 02       		.byte	0x2
 3018 0bea 91       		.byte	0x91
 3019 0beb 68       		.sleb128 -24
 3020 0bec 19       		.uleb128 0x19
 3021 0bed 58030000 		.long	LBB7
 3022 0bf1 BE040000 		.long	LBE7
 3023 0bf5 18       		.uleb128 0x18
 3024 0bf6 A5000000 		.secrel32	LASF11
 3025 0bfa 01       		.byte	0x1
 3026 0bfb 60       		.byte	0x60
 3027 0bfc 07       		.byte	0x7
 3028 0bfd 15010000 		.long	0x115
 3029 0c01 02       		.byte	0x2
 3030 0c02 91       		.byte	0x91
 3031 0c03 58       		.sleb128 -40
 3032 0c04 18       		.uleb128 0x18
 3033 0c05 84000000 		.secrel32	LASF12
 3034 0c09 01       		.byte	0x1
 3035 0c0a 61       		.byte	0x61
 3036 0c0b 07       		.byte	0x7
 3037 0c0c 15010000 		.long	0x115
 3038 0c10 02       		.byte	0x2
 3039 0c11 91       		.byte	0x91
 3040 0c12 64       		.sleb128 -28
 3041 0c13 18       		.uleb128 0x18
 3042 0c14 1B000000 		.secrel32	LASF13
 3043 0c18 01       		.byte	0x1
 3044 0c19 62       		.byte	0x62
 3045 0c1a 1D       		.byte	0x1d
 3046 0c1b 64080000 		.long	0x864
 3047 0c1f 02       		.byte	0x2
 3048 0c20 91       		.byte	0x91
 3049 0c21 54       		.sleb128 -44
 3050 0c22 19       		.uleb128 0x19
 3051 0c23 AD030000 		.long	LBB8
 3052 0c27 BD040000 		.long	LBE8
 3053 0c2b 18       		.uleb128 0x18
 3054 0c2c C3000000 		.secrel32	LASF14
GAS LISTING C:\Users\jisu8\AppData\Local\Temp\cc7tZZLv.s 			page 67


 3055 0c30 01       		.byte	0x1
 3056 0c31 63       		.byte	0x63
 3057 0c32 22       		.byte	0x22
 3058 0c33 64080000 		.long	0x864
 3059 0c37 02       		.byte	0x2
 3060 0c38 91       		.byte	0x91
 3061 0c39 60       		.sleb128 -32
 3062 0c3a 19       		.uleb128 0x19
 3063 0c3b BD030000 		.long	LBB9
 3064 0c3f 9E040000 		.long	LBE9
 3065 0c43 18       		.uleb128 0x18
 3066 0c44 00000000 		.secrel32	LASF10
 3067 0c48 01       		.byte	0x1
 3068 0c49 69       		.byte	0x69
 3069 0c4a 0F       		.byte	0xf
 3070 0c4b 7E040000 		.long	0x47e
 3071 0c4f 03       		.byte	0x3
 3072 0c50 91       		.byte	0x91
 3073 0c51 BC7F     		.sleb128 -68
 3074 0c53 00       		.byte	0
 3075 0c54 00       		.byte	0
 3076 0c55 00       		.byte	0
 3077 0c56 00       		.byte	0
 3078 0c57 00       		.byte	0
 3079 0c58 1C       		.uleb128 0x1c
 3080 0c59 41646A75 		.ascii "AdjustRowNumberIfValid\0"
 3080      7374526F 
 3080      774E756D 
 3080      62657249 
 3080      6656616C 
 3081 0c70 01       		.byte	0x1
 3082 0c71 41       		.byte	0x41
 3083 0c72 0C       		.byte	0xc
 3084 0c73 01       		.byte	0x1
 3085 0c74 15010000 		.long	0x115
 3086 0c78 87020000 		.long	LFB4
 3087 0c7c 21030000 		.long	LFE4
 3088 0c80 88010000 		.secrel32	LLST3
 3089 0c84 01       		.byte	0x1
 3090 0c85 B70C0000 		.long	0xcb7
 3091 0c89 17       		.uleb128 0x17
 3092 0c8a A5000000 		.secrel32	LASF11
 3093 0c8e 01       		.byte	0x1
 3094 0c8f 41       		.byte	0x41
 3095 0c90 27       		.byte	0x27
 3096 0c91 15010000 		.long	0x115
 3097 0c95 02       		.byte	0x2
 3098 0c96 91       		.byte	0x91
 3099 0c97 00       		.sleb128 0
 3100 0c98 17       		.uleb128 0x17
 3101 0c99 84000000 		.secrel32	LASF12
 3102 0c9d 01       		.byte	0x1
 3103 0c9e 41       		.byte	0x41
 3104 0c9f 42       		.byte	0x42
 3105 0ca0 15010000 		.long	0x115
 3106 0ca4 02       		.byte	0x2
 3107 0ca5 91       		.byte	0x91
GAS LISTING C:\Users\jisu8\AppData\Local\Temp\cc7tZZLv.s 			page 68


 3108 0ca6 04       		.sleb128 4
 3109 0ca7 17       		.uleb128 0x17
 3110 0ca8 00000000 		.secrel32	LASF10
 3111 0cac 01       		.byte	0x1
 3112 0cad 41       		.byte	0x41
 3113 0cae 61       		.byte	0x61
 3114 0caf 6A080000 		.long	0x86a
 3115 0cb3 02       		.byte	0x2
 3116 0cb4 91       		.byte	0x91
 3117 0cb5 08       		.sleb128 8
 3118 0cb6 00       		.byte	0
 3119 0cb7 1B       		.uleb128 0x1b
 3120 0cb8 41646A75 		.ascii "AdjustRowNumbersFromBothRI\0"
 3120      7374526F 
 3120      774E756D 
 3120      62657273 
 3120      46726F6D 
 3121 0cd3 01       		.byte	0x1
 3122 0cd4 18       		.byte	0x18
 3123 0cd5 0D       		.byte	0xd
 3124 0cd6 01       		.byte	0x1
 3125 0cd7 6E000000 		.long	LFB3
 3126 0cdb 87020000 		.long	LFE3
 3127 0cdf C0010000 		.secrel32	LLST2
 3128 0ce3 01       		.byte	0x1
 3129 0ce4 AA0D0000 		.long	0xdaa
 3130 0ce8 17       		.uleb128 0x17
 3131 0ce9 4F000000 		.secrel32	LASF5
 3132 0ced 01       		.byte	0x1
 3133 0cee 18       		.byte	0x18
 3134 0cef 42       		.byte	0x42
 3135 0cf0 64080000 		.long	0x864
 3136 0cf4 02       		.byte	0x2
 3137 0cf5 91       		.byte	0x91
 3138 0cf6 00       		.sleb128 0
 3139 0cf7 17       		.uleb128 0x17
 3140 0cf8 48000000 		.secrel32	LASF3
 3141 0cfc 01       		.byte	0x1
 3142 0cfd 18       		.byte	0x18
 3143 0cfe 5D       		.byte	0x5d
 3144 0cff 15010000 		.long	0x115
 3145 0d03 02       		.byte	0x2
 3146 0d04 91       		.byte	0x91
 3147 0d05 04       		.sleb128 4
 3148 0d06 17       		.uleb128 0x17
 3149 0d07 09000000 		.secrel32	LASF4
 3150 0d0b 01       		.byte	0x1
 3151 0d0c 18       		.byte	0x18
 3152 0d0d 68       		.byte	0x68
 3153 0d0e 15010000 		.long	0x115
 3154 0d12 02       		.byte	0x2
 3155 0d13 91       		.byte	0x91
 3156 0d14 08       		.sleb128 8
 3157 0d15 10       		.uleb128 0x10
 3158 0d16 4C524963 		.ascii "LRIcodewords\0"
 3158      6F646577 
 3158      6F726473 
GAS LISTING C:\Users\jisu8\AppData\Local\Temp\cc7tZZLv.s 			page 69


 3158      00
 3159 0d23 01       		.byte	0x1
 3160 0d24 1F       		.byte	0x1f
 3161 0d25 0F       		.byte	0xf
 3162 0d26 6A080000 		.long	0x86a
 3163 0d2a 02       		.byte	0x2
 3164 0d2b 91       		.byte	0x91
 3165 0d2c 64       		.sleb128 -28
 3166 0d2d 10       		.uleb128 0x10
 3167 0d2e 52524963 		.ascii "RRIcodewords\0"
 3167      6F646577 
 3167      6F726473 
 3167      00
 3168 0d3b 01       		.byte	0x1
 3169 0d3c 20       		.byte	0x20
 3170 0d3d 0F       		.byte	0xf
 3171 0d3e 6A080000 		.long	0x86a
 3172 0d42 02       		.byte	0x2
 3173 0d43 91       		.byte	0x91
 3174 0d44 60       		.sleb128 -32
 3175 0d45 19       		.uleb128 0x19
 3176 0d46 CF000000 		.long	LBB2
 3177 0d4a 80020000 		.long	LBE2
 3178 0d4e 18       		.uleb128 0x18
 3179 0d4f 0E000000 		.secrel32	LASF9
 3180 0d53 01       		.byte	0x1
 3181 0d54 22       		.byte	0x22
 3182 0d55 0E       		.byte	0xe
 3183 0d56 48010000 		.long	0x148
 3184 0d5a 02       		.byte	0x2
 3185 0d5b 91       		.byte	0x91
 3186 0d5c 6C       		.sleb128 -20
 3187 0d5d 19       		.uleb128 0x19
 3188 0d5e 4B010000 		.long	LBB3
 3189 0d62 6E020000 		.long	LBE3
 3190 0d66 18       		.uleb128 0x18
 3191 0d67 1B000000 		.secrel32	LASF13
 3192 0d6b 01       		.byte	0x1
 3193 0d6c 29       		.byte	0x29
 3194 0d6d 1E       		.byte	0x1e
 3195 0d6e 64080000 		.long	0x864
 3196 0d72 02       		.byte	0x2
 3197 0d73 91       		.byte	0x91
 3198 0d74 5C       		.sleb128 -36
 3199 0d75 19       		.uleb128 0x19
 3200 0d76 62010000 		.long	LBB4
 3201 0d7a 6E020000 		.long	LBE4
 3202 0d7e 18       		.uleb128 0x18
 3203 0d7f C3000000 		.secrel32	LASF14
 3204 0d83 01       		.byte	0x1
 3205 0d84 2A       		.byte	0x2a
 3206 0d85 23       		.byte	0x23
 3207 0d86 64080000 		.long	0x864
 3208 0d8a 02       		.byte	0x2
 3209 0d8b 91       		.byte	0x91
 3210 0d8c 68       		.sleb128 -24
 3211 0d8d 19       		.uleb128 0x19
GAS LISTING C:\Users\jisu8\AppData\Local\Temp\cc7tZZLv.s 			page 70


 3212 0d8e 72010000 		.long	LBB5
 3213 0d92 5B020000 		.long	LBE5
 3214 0d96 18       		.uleb128 0x18
 3215 0d97 00000000 		.secrel32	LASF10
 3216 0d9b 01       		.byte	0x1
 3217 0d9c 30       		.byte	0x30
 3218 0d9d 10       		.byte	0x10
 3219 0d9e 7E040000 		.long	0x47e
 3220 0da2 02       		.byte	0x2
 3221 0da3 91       		.byte	0x91
 3222 0da4 44       		.sleb128 -60
 3223 0da5 00       		.byte	0
 3224 0da6 00       		.byte	0
 3225 0da7 00       		.byte	0
 3226 0da8 00       		.byte	0
 3227 0da9 00       		.byte	0
 3228 0daa 1B       		.uleb128 0x1b
 3229 0dab 41646A75 		.ascii "AdjustIndicatorColumnRowNumbers\0"
 3229      7374496E 
 3229      64696361 
 3229      746F7243 
 3229      6F6C756D 
 3230 0dcb 01       		.byte	0x1
 3231 0dcc 10       		.byte	0x10
 3232 0dcd 0D       		.byte	0xd
 3233 0dce 01       		.byte	0x1
 3234 0dcf 42000000 		.long	LFB2
 3235 0dd3 6E000000 		.long	LFE2
 3236 0dd7 F8010000 		.secrel32	LLST1
 3237 0ddb 01       		.byte	0x1
 3238 0ddc 200E0000 		.long	0xe20
 3239 0de0 1D       		.uleb128 0x1d
 3240 0de1 64657465 		.ascii "detectionResultColumn\0"
 3240      6374696F 
 3240      6E526573 
 3240      756C7443 
 3240      6F6C756D 
 3241 0df7 01       		.byte	0x1
 3242 0df8 10       		.byte	0x10
 3243 0df9 47       		.byte	0x47
 3244 0dfa 64080000 		.long	0x864
 3245 0dfe 02       		.byte	0x2
 3246 0dff 91       		.byte	0x91
 3247 0e00 00       		.sleb128 0
 3248 0e01 17       		.uleb128 0x17
 3249 0e02 74000000 		.secrel32	LASF15
 3250 0e06 01       		.byte	0x1
 3251 0e07 10       		.byte	0x10
 3252 0e08 78       		.byte	0x78
 3253 0e09 200E0000 		.long	0xe20
 3254 0e0d 02       		.byte	0x2
 3255 0e0e 91       		.byte	0x91
 3256 0e0f 04       		.sleb128 4
 3257 0e10 17       		.uleb128 0x17
 3258 0e11 09000000 		.secrel32	LASF4
 3259 0e15 01       		.byte	0x1
 3260 0e16 10       		.byte	0x10
GAS LISTING C:\Users\jisu8\AppData\Local\Temp\cc7tZZLv.s 			page 71


 3261 0e17 8C       		.byte	0x8c
 3262 0e18 15010000 		.long	0x115
 3263 0e1c 02       		.byte	0x2
 3264 0e1d 91       		.byte	0x91
 3265 0e1e 08       		.sleb128 8
 3266 0e1f 00       		.byte	0
 3267 0e20 15       		.uleb128 0x15
 3268 0e21 04       		.byte	0x4
 3269 0e22 3B010000 		.long	0x13b
 3270 0e26 1E       		.uleb128 0x1e
 3271 0e27 01       		.byte	0x1
 3272 0e28 44657465 		.ascii "Detection_Result_init\0"
 3272      6374696F 
 3272      6E5F5265 
 3272      73756C74 
 3272      5F696E69 
 3273 0e3e 01       		.byte	0x1
 3274 0e3f 08       		.byte	0x8
 3275 0e40 06       		.byte	0x6
 3276 0e41 01       		.byte	0x1
 3277 0e42 00000000 		.long	LFB1
 3278 0e46 42000000 		.long	LFE1
 3279 0e4a 30020000 		.secrel32	LLST0
 3280 0e4e 01       		.byte	0x1
 3281 0e4f 8C0E0000 		.long	0xe8c
 3282 0e53 17       		.uleb128 0x17
 3283 0e54 74000000 		.secrel32	LASF15
 3284 0e58 01       		.byte	0x1
 3285 0e59 08       		.byte	0x8
 3286 0e5a 36       		.byte	0x36
 3287 0e5b 200E0000 		.long	0xe20
 3288 0e5f 02       		.byte	0x2
 3289 0e60 91       		.byte	0x91
 3290 0e61 00       		.sleb128 0
 3291 0e62 1D       		.uleb128 0x1d
 3292 0e63 626F756E 		.ascii "boundingBox\0"
 3292      64696E67 
 3292      426F7800 
 3293 0e6f 01       		.byte	0x1
 3294 0e70 08       		.byte	0x8
 3295 0e71 5D       		.byte	0x5d
 3296 0e72 8C0E0000 		.long	0xe8c
 3297 0e76 02       		.byte	0x2
 3298 0e77 91       		.byte	0x91
 3299 0e78 04       		.sleb128 4
 3300 0e79 1D       		.uleb128 0x1d
 3301 0e7a 72657375 		.ascii "result\0"
 3301      6C7400
 3302 0e81 01       		.byte	0x1
 3303 0e82 08       		.byte	0x8
 3304 0e83 7E       		.byte	0x7e
 3305 0e84 92070000 		.long	0x792
 3306 0e88 02       		.byte	0x2
 3307 0e89 91       		.byte	0x91
 3308 0e8a 08       		.sleb128 8
 3309 0e8b 00       		.byte	0
 3310 0e8c 15       		.uleb128 0x15
GAS LISTING C:\Users\jisu8\AppData\Local\Temp\cc7tZZLv.s 			page 72


 3311 0e8d 04       		.byte	0x4
 3312 0e8e D1030000 		.long	0x3d1
 3313 0e92 00       		.byte	0
 3314              		.section	.debug_abbrev,"dr"
 3315              	Ldebug_abbrev0:
 3316 0000 01       		.uleb128 0x1
 3317 0001 11       		.uleb128 0x11
 3318 0002 01       		.byte	0x1
 3319 0003 25       		.uleb128 0x25
 3320 0004 08       		.uleb128 0x8
 3321 0005 13       		.uleb128 0x13
 3322 0006 0B       		.uleb128 0xb
 3323 0007 03       		.uleb128 0x3
 3324 0008 08       		.uleb128 0x8
 3325 0009 1B       		.uleb128 0x1b
 3326 000a 08       		.uleb128 0x8
 3327 000b 11       		.uleb128 0x11
 3328 000c 01       		.uleb128 0x1
 3329 000d 12       		.uleb128 0x12
 3330 000e 01       		.uleb128 0x1
 3331 000f 10       		.uleb128 0x10
 3332 0010 06       		.uleb128 0x6
 3333 0011 00       		.byte	0
 3334 0012 00       		.byte	0
 3335 0013 02       		.uleb128 0x2
 3336 0014 13       		.uleb128 0x13
 3337 0015 01       		.byte	0x1
 3338 0016 0B       		.uleb128 0xb
 3339 0017 0B       		.uleb128 0xb
 3340 0018 3A       		.uleb128 0x3a
 3341 0019 0B       		.uleb128 0xb
 3342 001a 3B       		.uleb128 0x3b
 3343 001b 0B       		.uleb128 0xb
 3344 001c 39       		.uleb128 0x39
 3345 001d 0B       		.uleb128 0xb
 3346 001e 01       		.uleb128 0x1
 3347 001f 13       		.uleb128 0x13
 3348 0020 00       		.byte	0
 3349 0021 00       		.byte	0
 3350 0022 03       		.uleb128 0x3
 3351 0023 0D       		.uleb128 0xd
 3352 0024 00       		.byte	0
 3353 0025 03       		.uleb128 0x3
 3354 0026 08       		.uleb128 0x8
 3355 0027 3A       		.uleb128 0x3a
 3356 0028 0B       		.uleb128 0xb
 3357 0029 3B       		.uleb128 0x3b
 3358 002a 0B       		.uleb128 0xb
 3359 002b 39       		.uleb128 0x39
 3360 002c 0B       		.uleb128 0xb
 3361 002d 49       		.uleb128 0x49
 3362 002e 13       		.uleb128 0x13
 3363 002f 38       		.uleb128 0x38
 3364 0030 0A       		.uleb128 0xa
 3365 0031 00       		.byte	0
 3366 0032 00       		.byte	0
 3367 0033 04       		.uleb128 0x4
GAS LISTING C:\Users\jisu8\AppData\Local\Temp\cc7tZZLv.s 			page 73


 3368 0034 24       		.uleb128 0x24
 3369 0035 00       		.byte	0
 3370 0036 0B       		.uleb128 0xb
 3371 0037 0B       		.uleb128 0xb
 3372 0038 3E       		.uleb128 0x3e
 3373 0039 0B       		.uleb128 0xb
 3374 003a 03       		.uleb128 0x3
 3375 003b 08       		.uleb128 0x8
 3376 003c 00       		.byte	0
 3377 003d 00       		.byte	0
 3378 003e 05       		.uleb128 0x5
 3379 003f 26       		.uleb128 0x26
 3380 0040 00       		.byte	0
 3381 0041 49       		.uleb128 0x49
 3382 0042 13       		.uleb128 0x13
 3383 0043 00       		.byte	0
 3384 0044 00       		.byte	0
 3385 0045 06       		.uleb128 0x6
 3386 0046 16       		.uleb128 0x16
 3387 0047 00       		.byte	0
 3388 0048 03       		.uleb128 0x3
 3389 0049 08       		.uleb128 0x8
 3390 004a 3A       		.uleb128 0x3a
 3391 004b 0B       		.uleb128 0xb
 3392 004c 3B       		.uleb128 0x3b
 3393 004d 0B       		.uleb128 0xb
 3394 004e 39       		.uleb128 0x39
 3395 004f 0B       		.uleb128 0xb
 3396 0050 49       		.uleb128 0x49
 3397 0051 13       		.uleb128 0x13
 3398 0052 00       		.byte	0
 3399 0053 00       		.byte	0
 3400 0054 07       		.uleb128 0x7
 3401 0055 0D       		.uleb128 0xd
 3402 0056 00       		.byte	0
 3403 0057 03       		.uleb128 0x3
 3404 0058 0E       		.uleb128 0xe
 3405 0059 3A       		.uleb128 0x3a
 3406 005a 0B       		.uleb128 0xb
 3407 005b 3B       		.uleb128 0x3b
 3408 005c 0B       		.uleb128 0xb
 3409 005d 39       		.uleb128 0x39
 3410 005e 0B       		.uleb128 0xb
 3411 005f 49       		.uleb128 0x49
 3412 0060 13       		.uleb128 0x13
 3413 0061 38       		.uleb128 0x38
 3414 0062 0A       		.uleb128 0xa
 3415 0063 00       		.byte	0
 3416 0064 00       		.byte	0
 3417 0065 08       		.uleb128 0x8
 3418 0066 04       		.uleb128 0x4
 3419 0067 01       		.byte	0x1
 3420 0068 3E       		.uleb128 0x3e
 3421 0069 0B       		.uleb128 0xb
 3422 006a 0B       		.uleb128 0xb
 3423 006b 0B       		.uleb128 0xb
 3424 006c 49       		.uleb128 0x49
GAS LISTING C:\Users\jisu8\AppData\Local\Temp\cc7tZZLv.s 			page 74


 3425 006d 13       		.uleb128 0x13
 3426 006e 3A       		.uleb128 0x3a
 3427 006f 0B       		.uleb128 0xb
 3428 0070 3B       		.uleb128 0x3b
 3429 0071 0B       		.uleb128 0xb
 3430 0072 39       		.uleb128 0x39
 3431 0073 0B       		.uleb128 0xb
 3432 0074 01       		.uleb128 0x1
 3433 0075 13       		.uleb128 0x13
 3434 0076 00       		.byte	0
 3435 0077 00       		.byte	0
 3436 0078 09       		.uleb128 0x9
 3437 0079 28       		.uleb128 0x28
 3438 007a 00       		.byte	0
 3439 007b 03       		.uleb128 0x3
 3440 007c 08       		.uleb128 0x8
 3441 007d 1C       		.uleb128 0x1c
 3442 007e 0B       		.uleb128 0xb
 3443 007f 00       		.byte	0
 3444 0080 00       		.byte	0
 3445 0081 0A       		.uleb128 0xa
 3446 0082 13       		.uleb128 0x13
 3447 0083 01       		.byte	0x1
 3448 0084 0B       		.uleb128 0xb
 3449 0085 05       		.uleb128 0x5
 3450 0086 3A       		.uleb128 0x3a
 3451 0087 0B       		.uleb128 0xb
 3452 0088 3B       		.uleb128 0x3b
 3453 0089 0B       		.uleb128 0xb
 3454 008a 39       		.uleb128 0x39
 3455 008b 0B       		.uleb128 0xb
 3456 008c 01       		.uleb128 0x1
 3457 008d 13       		.uleb128 0x13
 3458 008e 00       		.byte	0
 3459 008f 00       		.byte	0
 3460 0090 0B       		.uleb128 0xb
 3461 0091 01       		.uleb128 0x1
 3462 0092 01       		.byte	0x1
 3463 0093 49       		.uleb128 0x49
 3464 0094 13       		.uleb128 0x13
 3465 0095 01       		.uleb128 0x1
 3466 0096 13       		.uleb128 0x13
 3467 0097 00       		.byte	0
 3468 0098 00       		.byte	0
 3469 0099 0C       		.uleb128 0xc
 3470 009a 21       		.uleb128 0x21
 3471 009b 00       		.byte	0
 3472 009c 49       		.uleb128 0x49
 3473 009d 13       		.uleb128 0x13
 3474 009e 2F       		.uleb128 0x2f
 3475 009f 05       		.uleb128 0x5
 3476 00a0 00       		.byte	0
 3477 00a1 00       		.byte	0
 3478 00a2 0D       		.uleb128 0xd
 3479 00a3 13       		.uleb128 0x13
 3480 00a4 01       		.byte	0x1
 3481 00a5 0B       		.uleb128 0xb
GAS LISTING C:\Users\jisu8\AppData\Local\Temp\cc7tZZLv.s 			page 75


 3482 00a6 06       		.uleb128 0x6
 3483 00a7 3A       		.uleb128 0x3a
 3484 00a8 0B       		.uleb128 0xb
 3485 00a9 3B       		.uleb128 0x3b
 3486 00aa 0B       		.uleb128 0xb
 3487 00ab 39       		.uleb128 0x39
 3488 00ac 0B       		.uleb128 0xb
 3489 00ad 01       		.uleb128 0x1
 3490 00ae 13       		.uleb128 0x13
 3491 00af 00       		.byte	0
 3492 00b0 00       		.byte	0
 3493 00b1 0E       		.uleb128 0xe
 3494 00b2 21       		.uleb128 0x21
 3495 00b3 00       		.byte	0
 3496 00b4 49       		.uleb128 0x49
 3497 00b5 13       		.uleb128 0x13
 3498 00b6 2F       		.uleb128 0x2f
 3499 00b7 0B       		.uleb128 0xb
 3500 00b8 00       		.byte	0
 3501 00b9 00       		.byte	0
 3502 00ba 0F       		.uleb128 0xf
 3503 00bb 34       		.uleb128 0x34
 3504 00bc 00       		.byte	0
 3505 00bd 03       		.uleb128 0x3
 3506 00be 08       		.uleb128 0x8
 3507 00bf 3A       		.uleb128 0x3a
 3508 00c0 0B       		.uleb128 0xb
 3509 00c1 3B       		.uleb128 0x3b
 3510 00c2 0B       		.uleb128 0xb
 3511 00c3 39       		.uleb128 0x39
 3512 00c4 0B       		.uleb128 0xb
 3513 00c5 49       		.uleb128 0x49
 3514 00c6 13       		.uleb128 0x13
 3515 00c7 3F       		.uleb128 0x3f
 3516 00c8 0C       		.uleb128 0xc
 3517 00c9 3C       		.uleb128 0x3c
 3518 00ca 0C       		.uleb128 0xc
 3519 00cb 00       		.byte	0
 3520 00cc 00       		.byte	0
 3521 00cd 10       		.uleb128 0x10
 3522 00ce 34       		.uleb128 0x34
 3523 00cf 00       		.byte	0
 3524 00d0 03       		.uleb128 0x3
 3525 00d1 08       		.uleb128 0x8
 3526 00d2 3A       		.uleb128 0x3a
 3527 00d3 0B       		.uleb128 0xb
 3528 00d4 3B       		.uleb128 0x3b
 3529 00d5 0B       		.uleb128 0xb
 3530 00d6 39       		.uleb128 0x39
 3531 00d7 0B       		.uleb128 0xb
 3532 00d8 49       		.uleb128 0x49
 3533 00d9 13       		.uleb128 0x13
 3534 00da 02       		.uleb128 0x2
 3535 00db 0A       		.uleb128 0xa
 3536 00dc 00       		.byte	0
 3537 00dd 00       		.byte	0
 3538 00de 11       		.uleb128 0x11
GAS LISTING C:\Users\jisu8\AppData\Local\Temp\cc7tZZLv.s 			page 76


 3539 00df 2E       		.uleb128 0x2e
 3540 00e0 01       		.byte	0x1
 3541 00e1 3F       		.uleb128 0x3f
 3542 00e2 0C       		.uleb128 0xc
 3543 00e3 03       		.uleb128 0x3
 3544 00e4 08       		.uleb128 0x8
 3545 00e5 3A       		.uleb128 0x3a
 3546 00e6 0B       		.uleb128 0xb
 3547 00e7 3B       		.uleb128 0x3b
 3548 00e8 05       		.uleb128 0x5
 3549 00e9 39       		.uleb128 0x39
 3550 00ea 0B       		.uleb128 0xb
 3551 00eb 27       		.uleb128 0x27
 3552 00ec 0C       		.uleb128 0xc
 3553 00ed 49       		.uleb128 0x49
 3554 00ee 13       		.uleb128 0x13
 3555 00ef 11       		.uleb128 0x11
 3556 00f0 01       		.uleb128 0x1
 3557 00f1 12       		.uleb128 0x12
 3558 00f2 01       		.uleb128 0x1
 3559 00f3 40       		.uleb128 0x40
 3560 00f4 06       		.uleb128 0x6
 3561 00f5 9642     		.uleb128 0x2116
 3562 00f7 0C       		.uleb128 0xc
 3563 00f8 01       		.uleb128 0x1
 3564 00f9 13       		.uleb128 0x13
 3565 00fa 00       		.byte	0
 3566 00fb 00       		.byte	0
 3567 00fc 12       		.uleb128 0x12
 3568 00fd 05       		.uleb128 0x5
 3569 00fe 00       		.byte	0
 3570 00ff 03       		.uleb128 0x3
 3571 0100 08       		.uleb128 0x8
 3572 0101 3A       		.uleb128 0x3a
 3573 0102 0B       		.uleb128 0xb
 3574 0103 3B       		.uleb128 0x3b
 3575 0104 05       		.uleb128 0x5
 3576 0105 39       		.uleb128 0x39
 3577 0106 0B       		.uleb128 0xb
 3578 0107 49       		.uleb128 0x49
 3579 0108 13       		.uleb128 0x13
 3580 0109 02       		.uleb128 0x2
 3581 010a 0A       		.uleb128 0xa
 3582 010b 00       		.byte	0
 3583 010c 00       		.byte	0
 3584 010d 13       		.uleb128 0x13
 3585 010e 05       		.uleb128 0x5
 3586 010f 00       		.byte	0
 3587 0110 03       		.uleb128 0x3
 3588 0111 0E       		.uleb128 0xe
 3589 0112 3A       		.uleb128 0x3a
 3590 0113 0B       		.uleb128 0xb
 3591 0114 3B       		.uleb128 0x3b
 3592 0115 05       		.uleb128 0x5
 3593 0116 39       		.uleb128 0x39
 3594 0117 0B       		.uleb128 0xb
 3595 0118 49       		.uleb128 0x49
GAS LISTING C:\Users\jisu8\AppData\Local\Temp\cc7tZZLv.s 			page 77


 3596 0119 13       		.uleb128 0x13
 3597 011a 02       		.uleb128 0x2
 3598 011b 0A       		.uleb128 0xa
 3599 011c 00       		.byte	0
 3600 011d 00       		.byte	0
 3601 011e 14       		.uleb128 0x14
 3602 011f 34       		.uleb128 0x34
 3603 0120 00       		.byte	0
 3604 0121 03       		.uleb128 0x3
 3605 0122 08       		.uleb128 0x8
 3606 0123 3A       		.uleb128 0x3a
 3607 0124 0B       		.uleb128 0xb
 3608 0125 3B       		.uleb128 0x3b
 3609 0126 05       		.uleb128 0x5
 3610 0127 39       		.uleb128 0x39
 3611 0128 0B       		.uleb128 0xb
 3612 0129 49       		.uleb128 0x49
 3613 012a 13       		.uleb128 0x13
 3614 012b 02       		.uleb128 0x2
 3615 012c 0A       		.uleb128 0xa
 3616 012d 00       		.byte	0
 3617 012e 00       		.byte	0
 3618 012f 15       		.uleb128 0x15
 3619 0130 0F       		.uleb128 0xf
 3620 0131 00       		.byte	0
 3621 0132 0B       		.uleb128 0xb
 3622 0133 0B       		.uleb128 0xb
 3623 0134 49       		.uleb128 0x49
 3624 0135 13       		.uleb128 0x13
 3625 0136 00       		.byte	0
 3626 0137 00       		.byte	0
 3627 0138 16       		.uleb128 0x16
 3628 0139 2E       		.uleb128 0x2e
 3629 013a 01       		.byte	0x1
 3630 013b 03       		.uleb128 0x3
 3631 013c 08       		.uleb128 0x8
 3632 013d 3A       		.uleb128 0x3a
 3633 013e 0B       		.uleb128 0xb
 3634 013f 3B       		.uleb128 0x3b
 3635 0140 0B       		.uleb128 0xb
 3636 0141 39       		.uleb128 0x39
 3637 0142 0B       		.uleb128 0xb
 3638 0143 27       		.uleb128 0x27
 3639 0144 0C       		.uleb128 0xc
 3640 0145 49       		.uleb128 0x49
 3641 0146 13       		.uleb128 0x13
 3642 0147 11       		.uleb128 0x11
 3643 0148 01       		.uleb128 0x1
 3644 0149 12       		.uleb128 0x12
 3645 014a 01       		.uleb128 0x1
 3646 014b 40       		.uleb128 0x40
 3647 014c 06       		.uleb128 0x6
 3648 014d 9642     		.uleb128 0x2116
 3649 014f 0C       		.uleb128 0xc
 3650 0150 01       		.uleb128 0x1
 3651 0151 13       		.uleb128 0x13
 3652 0152 00       		.byte	0
GAS LISTING C:\Users\jisu8\AppData\Local\Temp\cc7tZZLv.s 			page 78


 3653 0153 00       		.byte	0
 3654 0154 17       		.uleb128 0x17
 3655 0155 05       		.uleb128 0x5
 3656 0156 00       		.byte	0
 3657 0157 03       		.uleb128 0x3
 3658 0158 0E       		.uleb128 0xe
 3659 0159 3A       		.uleb128 0x3a
 3660 015a 0B       		.uleb128 0xb
 3661 015b 3B       		.uleb128 0x3b
 3662 015c 0B       		.uleb128 0xb
 3663 015d 39       		.uleb128 0x39
 3664 015e 0B       		.uleb128 0xb
 3665 015f 49       		.uleb128 0x49
 3666 0160 13       		.uleb128 0x13
 3667 0161 02       		.uleb128 0x2
 3668 0162 0A       		.uleb128 0xa
 3669 0163 00       		.byte	0
 3670 0164 00       		.byte	0
 3671 0165 18       		.uleb128 0x18
 3672 0166 34       		.uleb128 0x34
 3673 0167 00       		.byte	0
 3674 0168 03       		.uleb128 0x3
 3675 0169 0E       		.uleb128 0xe
 3676 016a 3A       		.uleb128 0x3a
 3677 016b 0B       		.uleb128 0xb
 3678 016c 3B       		.uleb128 0x3b
 3679 016d 0B       		.uleb128 0xb
 3680 016e 39       		.uleb128 0x39
 3681 016f 0B       		.uleb128 0xb
 3682 0170 49       		.uleb128 0x49
 3683 0171 13       		.uleb128 0x13
 3684 0172 02       		.uleb128 0x2
 3685 0173 0A       		.uleb128 0xa
 3686 0174 00       		.byte	0
 3687 0175 00       		.byte	0
 3688 0176 19       		.uleb128 0x19
 3689 0177 0B       		.uleb128 0xb
 3690 0178 01       		.byte	0x1
 3691 0179 11       		.uleb128 0x11
 3692 017a 01       		.uleb128 0x1
 3693 017b 12       		.uleb128 0x12
 3694 017c 01       		.uleb128 0x1
 3695 017d 00       		.byte	0
 3696 017e 00       		.byte	0
 3697 017f 1A       		.uleb128 0x1a
 3698 0180 34       		.uleb128 0x34
 3699 0181 00       		.byte	0
 3700 0182 03       		.uleb128 0x3
 3701 0183 0E       		.uleb128 0xe
 3702 0184 3A       		.uleb128 0x3a
 3703 0185 0B       		.uleb128 0xb
 3704 0186 3B       		.uleb128 0x3b
 3705 0187 05       		.uleb128 0x5
 3706 0188 39       		.uleb128 0x39
 3707 0189 0B       		.uleb128 0xb
 3708 018a 49       		.uleb128 0x49
 3709 018b 13       		.uleb128 0x13
GAS LISTING C:\Users\jisu8\AppData\Local\Temp\cc7tZZLv.s 			page 79


 3710 018c 02       		.uleb128 0x2
 3711 018d 0A       		.uleb128 0xa
 3712 018e 00       		.byte	0
 3713 018f 00       		.byte	0
 3714 0190 1B       		.uleb128 0x1b
 3715 0191 2E       		.uleb128 0x2e
 3716 0192 01       		.byte	0x1
 3717 0193 03       		.uleb128 0x3
 3718 0194 08       		.uleb128 0x8
 3719 0195 3A       		.uleb128 0x3a
 3720 0196 0B       		.uleb128 0xb
 3721 0197 3B       		.uleb128 0x3b
 3722 0198 0B       		.uleb128 0xb
 3723 0199 39       		.uleb128 0x39
 3724 019a 0B       		.uleb128 0xb
 3725 019b 27       		.uleb128 0x27
 3726 019c 0C       		.uleb128 0xc
 3727 019d 11       		.uleb128 0x11
 3728 019e 01       		.uleb128 0x1
 3729 019f 12       		.uleb128 0x12
 3730 01a0 01       		.uleb128 0x1
 3731 01a1 40       		.uleb128 0x40
 3732 01a2 06       		.uleb128 0x6
 3733 01a3 9642     		.uleb128 0x2116
 3734 01a5 0C       		.uleb128 0xc
 3735 01a6 01       		.uleb128 0x1
 3736 01a7 13       		.uleb128 0x13
 3737 01a8 00       		.byte	0
 3738 01a9 00       		.byte	0
 3739 01aa 1C       		.uleb128 0x1c
 3740 01ab 2E       		.uleb128 0x2e
 3741 01ac 01       		.byte	0x1
 3742 01ad 03       		.uleb128 0x3
 3743 01ae 08       		.uleb128 0x8
 3744 01af 3A       		.uleb128 0x3a
 3745 01b0 0B       		.uleb128 0xb
 3746 01b1 3B       		.uleb128 0x3b
 3747 01b2 0B       		.uleb128 0xb
 3748 01b3 39       		.uleb128 0x39
 3749 01b4 0B       		.uleb128 0xb
 3750 01b5 27       		.uleb128 0x27
 3751 01b6 0C       		.uleb128 0xc
 3752 01b7 49       		.uleb128 0x49
 3753 01b8 13       		.uleb128 0x13
 3754 01b9 11       		.uleb128 0x11
 3755 01ba 01       		.uleb128 0x1
 3756 01bb 12       		.uleb128 0x12
 3757 01bc 01       		.uleb128 0x1
 3758 01bd 40       		.uleb128 0x40
 3759 01be 06       		.uleb128 0x6
 3760 01bf 9742     		.uleb128 0x2117
 3761 01c1 0C       		.uleb128 0xc
 3762 01c2 01       		.uleb128 0x1
 3763 01c3 13       		.uleb128 0x13
 3764 01c4 00       		.byte	0
 3765 01c5 00       		.byte	0
 3766 01c6 1D       		.uleb128 0x1d
GAS LISTING C:\Users\jisu8\AppData\Local\Temp\cc7tZZLv.s 			page 80


 3767 01c7 05       		.uleb128 0x5
 3768 01c8 00       		.byte	0
 3769 01c9 03       		.uleb128 0x3
 3770 01ca 08       		.uleb128 0x8
 3771 01cb 3A       		.uleb128 0x3a
 3772 01cc 0B       		.uleb128 0xb
 3773 01cd 3B       		.uleb128 0x3b
 3774 01ce 0B       		.uleb128 0xb
 3775 01cf 39       		.uleb128 0x39
 3776 01d0 0B       		.uleb128 0xb
 3777 01d1 49       		.uleb128 0x49
 3778 01d2 13       		.uleb128 0x13
 3779 01d3 02       		.uleb128 0x2
 3780 01d4 0A       		.uleb128 0xa
 3781 01d5 00       		.byte	0
 3782 01d6 00       		.byte	0
 3783 01d7 1E       		.uleb128 0x1e
 3784 01d8 2E       		.uleb128 0x2e
 3785 01d9 01       		.byte	0x1
 3786 01da 3F       		.uleb128 0x3f
 3787 01db 0C       		.uleb128 0xc
 3788 01dc 03       		.uleb128 0x3
 3789 01dd 08       		.uleb128 0x8
 3790 01de 3A       		.uleb128 0x3a
 3791 01df 0B       		.uleb128 0xb
 3792 01e0 3B       		.uleb128 0x3b
 3793 01e1 0B       		.uleb128 0xb
 3794 01e2 39       		.uleb128 0x39
 3795 01e3 0B       		.uleb128 0xb
 3796 01e4 27       		.uleb128 0x27
 3797 01e5 0C       		.uleb128 0xc
 3798 01e6 11       		.uleb128 0x11
 3799 01e7 01       		.uleb128 0x1
 3800 01e8 12       		.uleb128 0x12
 3801 01e9 01       		.uleb128 0x1
 3802 01ea 40       		.uleb128 0x40
 3803 01eb 06       		.uleb128 0x6
 3804 01ec 9742     		.uleb128 0x2117
 3805 01ee 0C       		.uleb128 0xc
 3806 01ef 01       		.uleb128 0x1
 3807 01f0 13       		.uleb128 0x13
 3808 01f1 00       		.byte	0
 3809 01f2 00       		.byte	0
 3810 01f3 00       		.byte	0
 3811              		.section	.debug_loc,"dr"
 3812              	Ldebug_loc0:
 3813              	LLST10:
 3814 0000 EC0D0000 		.long	LFB11-Ltext0
 3815 0004 ED0D0000 		.long	LCFI30-Ltext0
 3816 0008 0200     		.word	0x2
 3817 000a 74       		.byte	0x74
 3818 000b 04       		.sleb128 4
 3819 000c ED0D0000 		.long	LCFI30-Ltext0
 3820 0010 EF0D0000 		.long	LCFI31-Ltext0
 3821 0014 0200     		.word	0x2
 3822 0016 74       		.byte	0x74
 3823 0017 08       		.sleb128 8
GAS LISTING C:\Users\jisu8\AppData\Local\Temp\cc7tZZLv.s 			page 81


 3824 0018 EF0D0000 		.long	LCFI31-Ltext0
 3825 001c 7A0E0000 		.long	LCFI32-Ltext0
 3826 0020 0200     		.word	0x2
 3827 0022 75       		.byte	0x75
 3828 0023 08       		.sleb128 8
 3829 0024 7A0E0000 		.long	LCFI32-Ltext0
 3830 0028 7B0E0000 		.long	LFE11-Ltext0
 3831 002c 0200     		.word	0x2
 3832 002e 74       		.byte	0x74
 3833 002f 04       		.sleb128 4
 3834 0030 00000000 		.long	0
 3835 0034 00000000 		.long	0
 3836              	LLST9:
 3837 0038 590C0000 		.long	LFB10-Ltext0
 3838 003c 5A0C0000 		.long	LCFI27-Ltext0
 3839 0040 0200     		.word	0x2
 3840 0042 74       		.byte	0x74
 3841 0043 04       		.sleb128 4
 3842 0044 5A0C0000 		.long	LCFI27-Ltext0
 3843 0048 5C0C0000 		.long	LCFI28-Ltext0
 3844 004c 0200     		.word	0x2
 3845 004e 74       		.byte	0x74
 3846 004f 08       		.sleb128 8
 3847 0050 5C0C0000 		.long	LCFI28-Ltext0
 3848 0054 EB0D0000 		.long	LCFI29-Ltext0
 3849 0058 0200     		.word	0x2
 3850 005a 75       		.byte	0x75
 3851 005b 08       		.sleb128 8
 3852 005c EB0D0000 		.long	LCFI29-Ltext0
 3853 0060 EC0D0000 		.long	LFE10-Ltext0
 3854 0064 0200     		.word	0x2
 3855 0066 74       		.byte	0x74
 3856 0067 04       		.sleb128 4
 3857 0068 00000000 		.long	0
 3858 006c 00000000 		.long	0
 3859              	LLST8:
 3860 0070 90070000 		.long	LFB9-Ltext0
 3861 0074 91070000 		.long	LCFI24-Ltext0
 3862 0078 0200     		.word	0x2
 3863 007a 74       		.byte	0x74
 3864 007b 04       		.sleb128 4
 3865 007c 91070000 		.long	LCFI24-Ltext0
 3866 0080 93070000 		.long	LCFI25-Ltext0
 3867 0084 0200     		.word	0x2
 3868 0086 74       		.byte	0x74
 3869 0087 08       		.sleb128 8
 3870 0088 93070000 		.long	LCFI25-Ltext0
 3871 008c 580C0000 		.long	LCFI26-Ltext0
 3872 0090 0200     		.word	0x2
 3873 0092 75       		.byte	0x75
 3874 0093 08       		.sleb128 8
 3875 0094 580C0000 		.long	LCFI26-Ltext0
 3876 0098 590C0000 		.long	LFE9-Ltext0
 3877 009c 0200     		.word	0x2
 3878 009e 74       		.byte	0x74
 3879 009f 04       		.sleb128 4
 3880 00a0 00000000 		.long	0
GAS LISTING C:\Users\jisu8\AppData\Local\Temp\cc7tZZLv.s 			page 82


 3881 00a4 00000000 		.long	0
 3882              	LLST7:
 3883 00a8 0C070000 		.long	LFB8-Ltext0
 3884 00ac 0D070000 		.long	LCFI21-Ltext0
 3885 00b0 0200     		.word	0x2
 3886 00b2 74       		.byte	0x74
 3887 00b3 04       		.sleb128 4
 3888 00b4 0D070000 		.long	LCFI21-Ltext0
 3889 00b8 0F070000 		.long	LCFI22-Ltext0
 3890 00bc 0200     		.word	0x2
 3891 00be 74       		.byte	0x74
 3892 00bf 08       		.sleb128 8
 3893 00c0 0F070000 		.long	LCFI22-Ltext0
 3894 00c4 8F070000 		.long	LCFI23-Ltext0
 3895 00c8 0200     		.word	0x2
 3896 00ca 75       		.byte	0x75
 3897 00cb 08       		.sleb128 8
 3898 00cc 8F070000 		.long	LCFI23-Ltext0
 3899 00d0 90070000 		.long	LFE8-Ltext0
 3900 00d4 0200     		.word	0x2
 3901 00d6 74       		.byte	0x74
 3902 00d7 04       		.sleb128 4
 3903 00d8 00000000 		.long	0
 3904 00dc 00000000 		.long	0
 3905              	LLST6:
 3906 00e0 AF060000 		.long	LFB7-Ltext0
 3907 00e4 B0060000 		.long	LCFI18-Ltext0
 3908 00e8 0200     		.word	0x2
 3909 00ea 74       		.byte	0x74
 3910 00eb 04       		.sleb128 4
 3911 00ec B0060000 		.long	LCFI18-Ltext0
 3912 00f0 B2060000 		.long	LCFI19-Ltext0
 3913 00f4 0200     		.word	0x2
 3914 00f6 74       		.byte	0x74
 3915 00f7 08       		.sleb128 8
 3916 00f8 B2060000 		.long	LCFI19-Ltext0
 3917 00fc 0B070000 		.long	LCFI20-Ltext0
 3918 0100 0200     		.word	0x2
 3919 0102 75       		.byte	0x75
 3920 0103 08       		.sleb128 8
 3921 0104 0B070000 		.long	LCFI20-Ltext0
 3922 0108 0C070000 		.long	LFE7-Ltext0
 3923 010c 0200     		.word	0x2
 3924 010e 74       		.byte	0x74
 3925 010f 04       		.sleb128 4
 3926 0110 00000000 		.long	0
 3927 0114 00000000 		.long	0
 3928              	LLST5:
 3929 0118 D7040000 		.long	LFB6-Ltext0
 3930 011c D8040000 		.long	LCFI15-Ltext0
 3931 0120 0200     		.word	0x2
 3932 0122 74       		.byte	0x74
 3933 0123 04       		.sleb128 4
 3934 0124 D8040000 		.long	LCFI15-Ltext0
 3935 0128 DA040000 		.long	LCFI16-Ltext0
 3936 012c 0200     		.word	0x2
 3937 012e 74       		.byte	0x74
GAS LISTING C:\Users\jisu8\AppData\Local\Temp\cc7tZZLv.s 			page 83


 3938 012f 08       		.sleb128 8
 3939 0130 DA040000 		.long	LCFI16-Ltext0
 3940 0134 AE060000 		.long	LCFI17-Ltext0
 3941 0138 0200     		.word	0x2
 3942 013a 75       		.byte	0x75
 3943 013b 08       		.sleb128 8
 3944 013c AE060000 		.long	LCFI17-Ltext0
 3945 0140 AF060000 		.long	LFE6-Ltext0
 3946 0144 0200     		.word	0x2
 3947 0146 74       		.byte	0x74
 3948 0147 04       		.sleb128 4
 3949 0148 00000000 		.long	0
 3950 014c 00000000 		.long	0
 3951              	LLST4:
 3952 0150 21030000 		.long	LFB5-Ltext0
 3953 0154 22030000 		.long	LCFI12-Ltext0
 3954 0158 0200     		.word	0x2
 3955 015a 74       		.byte	0x74
 3956 015b 04       		.sleb128 4
 3957 015c 22030000 		.long	LCFI12-Ltext0
 3958 0160 24030000 		.long	LCFI13-Ltext0
 3959 0164 0200     		.word	0x2
 3960 0166 74       		.byte	0x74
 3961 0167 08       		.sleb128 8
 3962 0168 24030000 		.long	LCFI13-Ltext0
 3963 016c D6040000 		.long	LCFI14-Ltext0
 3964 0170 0200     		.word	0x2
 3965 0172 75       		.byte	0x75
 3966 0173 08       		.sleb128 8
 3967 0174 D6040000 		.long	LCFI14-Ltext0
 3968 0178 D7040000 		.long	LFE5-Ltext0
 3969 017c 0200     		.word	0x2
 3970 017e 74       		.byte	0x74
 3971 017f 04       		.sleb128 4
 3972 0180 00000000 		.long	0
 3973 0184 00000000 		.long	0
 3974              	LLST3:
 3975 0188 87020000 		.long	LFB4-Ltext0
 3976 018c 88020000 		.long	LCFI9-Ltext0
 3977 0190 0200     		.word	0x2
 3978 0192 74       		.byte	0x74
 3979 0193 04       		.sleb128 4
 3980 0194 88020000 		.long	LCFI9-Ltext0
 3981 0198 8A020000 		.long	LCFI10-Ltext0
 3982 019c 0200     		.word	0x2
 3983 019e 74       		.byte	0x74
 3984 019f 08       		.sleb128 8
 3985 01a0 8A020000 		.long	LCFI10-Ltext0
 3986 01a4 20030000 		.long	LCFI11-Ltext0
 3987 01a8 0200     		.word	0x2
 3988 01aa 75       		.byte	0x75
 3989 01ab 08       		.sleb128 8
 3990 01ac 20030000 		.long	LCFI11-Ltext0
 3991 01b0 21030000 		.long	LFE4-Ltext0
 3992 01b4 0200     		.word	0x2
 3993 01b6 74       		.byte	0x74
 3994 01b7 04       		.sleb128 4
GAS LISTING C:\Users\jisu8\AppData\Local\Temp\cc7tZZLv.s 			page 84


 3995 01b8 00000000 		.long	0
 3996 01bc 00000000 		.long	0
 3997              	LLST2:
 3998 01c0 6E000000 		.long	LFB3-Ltext0
 3999 01c4 6F000000 		.long	LCFI6-Ltext0
 4000 01c8 0200     		.word	0x2
 4001 01ca 74       		.byte	0x74
 4002 01cb 04       		.sleb128 4
 4003 01cc 6F000000 		.long	LCFI6-Ltext0
 4004 01d0 71000000 		.long	LCFI7-Ltext0
 4005 01d4 0200     		.word	0x2
 4006 01d6 74       		.byte	0x74
 4007 01d7 08       		.sleb128 8
 4008 01d8 71000000 		.long	LCFI7-Ltext0
 4009 01dc 86020000 		.long	LCFI8-Ltext0
 4010 01e0 0200     		.word	0x2
 4011 01e2 75       		.byte	0x75
 4012 01e3 08       		.sleb128 8
 4013 01e4 86020000 		.long	LCFI8-Ltext0
 4014 01e8 87020000 		.long	LFE3-Ltext0
 4015 01ec 0200     		.word	0x2
 4016 01ee 74       		.byte	0x74
 4017 01ef 04       		.sleb128 4
 4018 01f0 00000000 		.long	0
 4019 01f4 00000000 		.long	0
 4020              	LLST1:
 4021 01f8 42000000 		.long	LFB2-Ltext0
 4022 01fc 43000000 		.long	LCFI3-Ltext0
 4023 0200 0200     		.word	0x2
 4024 0202 74       		.byte	0x74
 4025 0203 04       		.sleb128 4
 4026 0204 43000000 		.long	LCFI3-Ltext0
 4027 0208 45000000 		.long	LCFI4-Ltext0
 4028 020c 0200     		.word	0x2
 4029 020e 74       		.byte	0x74
 4030 020f 08       		.sleb128 8
 4031 0210 45000000 		.long	LCFI4-Ltext0
 4032 0214 6D000000 		.long	LCFI5-Ltext0
 4033 0218 0200     		.word	0x2
 4034 021a 75       		.byte	0x75
 4035 021b 08       		.sleb128 8
 4036 021c 6D000000 		.long	LCFI5-Ltext0
 4037 0220 6E000000 		.long	LFE2-Ltext0
 4038 0224 0200     		.word	0x2
 4039 0226 74       		.byte	0x74
 4040 0227 04       		.sleb128 4
 4041 0228 00000000 		.long	0
 4042 022c 00000000 		.long	0
 4043              	LLST0:
 4044 0230 00000000 		.long	LFB1-Ltext0
 4045 0234 01000000 		.long	LCFI0-Ltext0
 4046 0238 0200     		.word	0x2
 4047 023a 74       		.byte	0x74
 4048 023b 04       		.sleb128 4
 4049 023c 01000000 		.long	LCFI0-Ltext0
 4050 0240 03000000 		.long	LCFI1-Ltext0
 4051 0244 0200     		.word	0x2
GAS LISTING C:\Users\jisu8\AppData\Local\Temp\cc7tZZLv.s 			page 85


 4052 0246 74       		.byte	0x74
 4053 0247 08       		.sleb128 8
 4054 0248 03000000 		.long	LCFI1-Ltext0
 4055 024c 41000000 		.long	LCFI2-Ltext0
 4056 0250 0200     		.word	0x2
 4057 0252 75       		.byte	0x75
 4058 0253 08       		.sleb128 8
 4059 0254 41000000 		.long	LCFI2-Ltext0
 4060 0258 42000000 		.long	LFE1-Ltext0
 4061 025c 0200     		.word	0x2
 4062 025e 74       		.byte	0x74
 4063 025f 04       		.sleb128 4
 4064 0260 00000000 		.long	0
 4065 0264 00000000 		.long	0
 4066              		.section	.debug_aranges,"dr"
 4067 0000 1C000000 		.long	0x1c
 4068 0004 0200     		.word	0x2
 4069 0006 00000000 		.secrel32	Ldebug_info0
 4070 000a 04       		.byte	0x4
 4071 000b 00       		.byte	0
 4072 000c 0000     		.word	0
 4073 000e 0000     		.word	0
 4074 0010 00000000 		.long	Ltext0
 4075 0014 7B0E0000 		.long	Letext0-Ltext0
 4076 0018 00000000 		.long	0
 4077 001c 00000000 		.long	0
 4078              		.section	.debug_line,"dr"
 4079              	Ldebug_line0:
 4080 0000 C7060000 		.section	.debug_str,"dr"
 4080      02003901 
 4080      00000101 
 4080      FB0E0D00 
 4080      01010101 
 4081              	LASF10:
 4082 0000 636F6465 		.ascii "codeword\0"
 4082      776F7264 
 4082      00
 4083              	LASF4:
 4084 0009 73697A65 		.ascii "size\0"
 4084      00
 4085              	LASF9:
 4086 000e 636F6465 		.ascii "codewordsRow\0"
 4086      776F7264 
 4086      73526F77 
 4086      00
 4087              	LASF13:
 4088 001b 6C617374 		.ascii "lastColumn\0"
 4088      436F6C75 
 4088      6D6E00
 4089              	LASF0:
 4090 0026 6D5F6861 		.ascii "m_hasValue\0"
 4090      7356616C 
 4090      756500
 4091              	LASF2:
 4092 0031 5F626F75 		.ascii "_boundingBox\0"
 4092      6E64696E 
 4092      67426F78 
GAS LISTING C:\Users\jisu8\AppData\Local\Temp\cc7tZZLv.s 			page 86


 4092      00
 4093              	LASF8:
 4094 003e 636F6465 		.ascii "codewords\0"
 4094      776F7264 
 4094      7300
 4095              	LASF3:
 4096 0048 636F6C75 		.ascii "column\0"
 4096      6D6E00
 4097              	LASF5:
 4098 004f 64657465 		.ascii "detectionResultColumns\0"
 4098      6374696F 
 4098      6E526573 
 4098      756C7443 
 4098      6F6C756D 
 4099              	LASF7:
 4100 0066 62617263 		.ascii "barcodeColumn\0"
 4100      6F646543 
 4100      6F6C756D 
 4100      6E00
 4101              	LASF15:
 4102 0074 62617263 		.ascii "barcodeMetadata\0"
 4102      6F64654D 
 4102      65746164 
 4102      61746100 
 4103              	LASF12:
 4104 0084 696E7661 		.ascii "invalidRowCounts\0"
 4104      6C696452 
 4104      6F77436F 
 4104      756E7473 
 4104      00
 4105              	LASF6:
 4106 0095 756E6164 		.ascii "unadjustedCount\0"
 4106      6A757374 
 4106      6564436F 
 4106      756E7400 
 4107              	LASF11:
 4108 00a5 726F7749 		.ascii "rowIndicatorRowNumber\0"
 4108      6E646963 
 4108      61746F72 
 4108      526F774E 
 4108      756D6265 
 4109              	LASF1:
 4110 00bb 6D5F7661 		.ascii "m_value\0"
 4110      6C756500 
 4111              	LASF14:
 4112 00c3 636F6C75 		.ascii "columnIter\0"
 4112      6D6E4974 
 4112      657200
 4113              		.ident	"GCC: (i686-posix-dwarf-rev0, Built by MinGW-W64 project) 8.1.0"
GAS LISTING C:\Users\jisu8\AppData\Local\Temp\cc7tZZLv.s 			page 87


DEFINED SYMBOLS
                            *ABS*:00000000 PDFDetectionResult.c
C:\Users\jisu8\AppData\Local\Temp\cc7tZZLv.s:6      .rdata:00000000 _ADJUST_ROW_NUMBER_SKIP
C:\Users\jisu8\AppData\Local\Temp\cc7tZZLv.s:11     .text:00000000 _Detection_Result_init
C:\Users\jisu8\AppData\Local\Temp\cc7tZZLv.s:66     .text:00000042 _AdjustIndicatorColumnRowNumbers
C:\Users\jisu8\AppData\Local\Temp\cc7tZZLv.s:103    .text:0000006e _AdjustRowNumbersFromBothRI
C:\Users\jisu8\AppData\Local\Temp\cc7tZZLv.s:371    .text:00000287 _AdjustRowNumberIfValid
C:\Users\jisu8\AppData\Local\Temp\cc7tZZLv.s:472    .text:00000321 _AdjustRowNumbersFromLRI
C:\Users\jisu8\AppData\Local\Temp\cc7tZZLv.s:700    .text:000004d7 _AdjustRowNumbersFromRRI
C:\Users\jisu8\AppData\Local\Temp\cc7tZZLv.s:938    .text:000006af _AdjustRowNumbersByRow
C:\Users\jisu8\AppData\Local\Temp\cc7tZZLv.s:988    .text:0000070c _AdjustRowNumber
C:\Users\jisu8\AppData\Local\Temp\cc7tZZLv.s:1080   .text:00000790 _AdjustRowNumbers_internal
C:\Users\jisu8\AppData\Local\Temp\cc7tZZLv.s:1526   .text:00000c59 _AdjustRowNumbers
C:\Users\jisu8\AppData\Local\Temp\cc7tZZLv.s:1737   .text:00000dec _allColumns

UNDEFINED SYMBOLS
_BARCODE_ROW_UNKNOWN
_MAX_CODEWORDS_IN_BARCODE
_adjustCompleteIndicatorColumnRowNumbers
_allCodewords
_clear_Codewords
