GAS LISTING C:\Users\jisu8\AppData\Local\Temp\ccAhT7z4.s 			page 1


   1              		.file	"PDFReader.c"
   2              		.text
   3              	Ltext0:
   4              		.section .rdata,"dr"
   5              		.align 4
   6              	_MODULES_IN_STOP_PATTERN:
   7 0000 12000000 		.long	18
   8              		.text
  10              	_GetMinWidth:
  11              	LFB16:
  12              		.file 1 "src/pdf417/PDFReader.c"
   1:src/pdf417/PDFReader.c **** 
   2:src/pdf417/PDFReader.c **** #include "PDFReader.h"
   3:src/pdf417/PDFReader.c **** #include "DecodeStatus.h"
   4:src/pdf417/PDFReader.c **** #include "DecodeHints.h"
   5:src/pdf417/PDFReader.c **** #include "PDFDetector.h"
   6:src/pdf417/PDFReader.c **** #include "PDFCodewordDecoder.h"
   7:src/pdf417/PDFReader.c **** #include "PDFScanningDecoder.h"
   8:src/pdf417/PDFReader.c **** #include "DecoderResult.h"
   9:src/pdf417/PDFReader.c **** #include "Result.h"
  10:src/pdf417/PDFReader.c **** #include <stdlib.h>
  11:src/pdf417/PDFReader.c **** 
  12:src/pdf417/PDFReader.c **** static const int MODULES_IN_STOP_PATTERN = 18;
  13:src/pdf417/PDFReader.c **** 
  14:src/pdf417/PDFReader.c **** #define INT_MAX       2147483647
  15:src/pdf417/PDFReader.c **** 
  16:src/pdf417/PDFReader.c **** static int GetMinWidth(ResultPoint_t * p1, ResultPoint_t * p2)
  17:src/pdf417/PDFReader.c **** {
  13              		.loc 1 17 1
  14              		.cfi_startproc
  15 0000 55       		pushl	%ebp
  16              	LCFI0:
  17              		.cfi_def_cfa_offset 8
  18              		.cfi_offset 5, -8
  19 0001 89E5     		movl	%esp, %ebp
  20              	LCFI1:
  21              		.cfi_def_cfa_register 5
  22 0003 83EC08   		subl	$8, %esp
  18:src/pdf417/PDFReader.c **** 	if (p1->m_hasValue == 0 || p2->m_hasValue == 0) 
  23              		.loc 1 18 8
  24 0006 8B4508   		movl	8(%ebp), %eax
  25 0009 0FB600   		movzbl	(%eax), %eax
  26              		.loc 1 18 5
  27 000c 84C0     		testb	%al, %al
  28 000e 740A     		je	L2
  29              		.loc 1 18 31 discriminator 1
  30 0010 8B450C   		movl	12(%ebp), %eax
  31 0013 0FB600   		movzbl	(%eax), %eax
  32              		.loc 1 18 26 discriminator 1
  33 0016 84C0     		testb	%al, %al
  34 0018 7510     		jne	L3
  35              	L2:
  19:src/pdf417/PDFReader.c **** 	{
  20:src/pdf417/PDFReader.c **** 		// the division prevents an integer overflow (see below). 120 million is still sufficiently large
  21:src/pdf417/PDFReader.c **** 		return (int)INT_MAX / MODULES_IN_CODEWORD;
  36              		.loc 1 21 23
  37 001a 8B0D0000 		movl	_MODULES_IN_CODEWORD, %ecx
GAS LISTING C:\Users\jisu8\AppData\Local\Temp\ccAhT7z4.s 			page 2


  37      0000
  38 0020 B8FFFFFF 		movl	$2147483647, %eax
  38      7F
  39 0025 99       		cltd
  40 0026 F7F9     		idivl	%ecx
  41 0028 EB3B     		jmp	L4
  42              	L3:
  22:src/pdf417/PDFReader.c **** 	}
  23:src/pdf417/PDFReader.c **** 
  24:src/pdf417/PDFReader.c **** 	return abs((int)(p1->m_value.x) - (int)(p2->m_value.x));
  43              		.loc 1 24 30
  44 002a 8B4508   		movl	8(%ebp), %eax
  45 002d D94004   		flds	4(%eax)
  46              		.loc 1 24 13
  47 0030 D97DFE   		fnstcw	-2(%ebp)
  48 0033 0FB745FE 		movzwl	-2(%ebp), %eax
  49 0037 80CC0C   		orb	$12, %ah
  50 003a 668945FC 		movw	%ax, -4(%ebp)
  51 003e D96DFC   		fldcw	-4(%ebp)
  52 0041 DB5DF8   		fistpl	-8(%ebp)
  53 0044 D96DFE   		fldcw	-2(%ebp)
  54 0047 8B55F8   		movl	-8(%ebp), %edx
  55              		.loc 1 24 53
  56 004a 8B450C   		movl	12(%ebp), %eax
  57 004d D94004   		flds	4(%eax)
  58              		.loc 1 24 36
  59 0050 D96DFC   		fldcw	-4(%ebp)
  60 0053 DB5DF8   		fistpl	-8(%ebp)
  61 0056 D96DFE   		fldcw	-2(%ebp)
  62 0059 8B45F8   		movl	-8(%ebp), %eax
  63              		.loc 1 24 34
  64 005c 29C2     		subl	%eax, %edx
  65 005e 89D0     		movl	%edx, %eax
  66              		.loc 1 24 9
  67 0060 99       		cltd
  68 0061 31D0     		xorl	%edx, %eax
  69 0063 29D0     		subl	%edx, %eax
  70              	L4:
  25:src/pdf417/PDFReader.c **** }
  71              		.loc 1 25 1
  72 0065 C9       		leave
  73              	LCFI2:
  74              		.cfi_restore 5
  75              		.cfi_def_cfa 4, 4
  76 0066 C3       		ret
  77              		.cfi_endproc
  78              	LFE16:
  80              	_GetMinCodewordWidth:
  81              	LFB17:
  26:src/pdf417/PDFReader.c **** 
  27:src/pdf417/PDFReader.c **** static int GetMinCodewordWidth(ResultPoint_t * p)
  28:src/pdf417/PDFReader.c **** {
  82              		.loc 1 28 1
  83              		.cfi_startproc
  84 0067 55       		pushl	%ebp
  85              	LCFI3:
  86              		.cfi_def_cfa_offset 8
GAS LISTING C:\Users\jisu8\AppData\Local\Temp\ccAhT7z4.s 			page 3


  87              		.cfi_offset 5, -8
  88 0068 89E5     		movl	%esp, %ebp
  89              	LCFI4:
  90              		.cfi_def_cfa_register 5
  91 006a 56       		pushl	%esi
  92 006b 53       		pushl	%ebx
  93 006c 83EC08   		subl	$8, %esp
  94              		.cfi_offset 6, -12
  95              		.cfi_offset 3, -16
  29:src/pdf417/PDFReader.c **** 	return __min(__min(GetMinWidth(p, p+4), GetMinWidth(p+6, p+2) * MODULES_IN_CODEWORD / MODULES_IN_S
  96              		.loc 1 29 9
  97 006f 8B4508   		movl	8(%ebp), %eax
  98 0072 83C030   		addl	$48, %eax
  99 0075 89442404 		movl	%eax, 4(%esp)
 100 0079 8B4508   		movl	8(%ebp), %eax
 101 007c 890424   		movl	%eax, (%esp)
 102 007f E87CFFFF 		call	_GetMinWidth
 102      FF
 103 0084 89C3     		movl	%eax, %ebx
 104 0086 8B4508   		movl	8(%ebp), %eax
 105 0089 8D5018   		leal	24(%eax), %edx
 106 008c 8B4508   		movl	8(%ebp), %eax
 107 008f 83C048   		addl	$72, %eax
 108 0092 89542404 		movl	%edx, 4(%esp)
 109 0096 890424   		movl	%eax, (%esp)
 110 0099 E862FFFF 		call	_GetMinWidth
 110      FF
 111 009e 89C2     		movl	%eax, %edx
 112 00a0 A1000000 		movl	_MODULES_IN_CODEWORD, %eax
 112      00
 113 00a5 0FAFC2   		imull	%edx, %eax
 114 00a8 B9120000 		movl	$18, %ecx
 114      00
 115 00ad 99       		cltd
 116 00ae F7F9     		idivl	%ecx
 117 00b0 39C3     		cmpl	%eax, %ebx
 118 00b2 7D19     		jge	L6
 119              		.loc 1 29 9 is_stmt 0 discriminator 1
 120 00b4 8B4508   		movl	8(%ebp), %eax
 121 00b7 83C030   		addl	$48, %eax
 122 00ba 89442404 		movl	%eax, 4(%esp)
 123 00be 8B4508   		movl	8(%ebp), %eax
 124 00c1 890424   		movl	%eax, (%esp)
 125 00c4 E837FFFF 		call	_GetMinWidth
 125      FF
 126 00c9 89C3     		movl	%eax, %ebx
 127 00cb EB2C     		jmp	L7
 128              	L6:
 129              		.loc 1 29 9 discriminator 2
 130 00cd 8B4508   		movl	8(%ebp), %eax
 131 00d0 8D5018   		leal	24(%eax), %edx
 132 00d3 8B4508   		movl	8(%ebp), %eax
 133 00d6 83C048   		addl	$72, %eax
 134 00d9 89542404 		movl	%edx, 4(%esp)
 135 00dd 890424   		movl	%eax, (%esp)
 136 00e0 E81BFFFF 		call	_GetMinWidth
 136      FF
GAS LISTING C:\Users\jisu8\AppData\Local\Temp\ccAhT7z4.s 			page 4


 137 00e5 89C2     		movl	%eax, %edx
 138 00e7 A1000000 		movl	_MODULES_IN_CODEWORD, %eax
 138      00
 139 00ec 0FAFC2   		imull	%edx, %eax
 140 00ef B9120000 		movl	$18, %ecx
 140      00
 141 00f4 99       		cltd
 142 00f5 F7F9     		idivl	%ecx
 143 00f7 89C3     		movl	%eax, %ebx
 144              	L7:
 145              		.loc 1 29 9 discriminator 4
 146 00f9 8B4508   		movl	8(%ebp), %eax
 147 00fc 8D503C   		leal	60(%eax), %edx
 148 00ff 8B4508   		movl	8(%ebp), %eax
 149 0102 83C00C   		addl	$12, %eax
 150 0105 89542404 		movl	%edx, 4(%esp)
 151 0109 890424   		movl	%eax, (%esp)
 152 010c E8EFFEFF 		call	_GetMinWidth
 152      FF
 153 0111 89C6     		movl	%eax, %esi
 154 0113 8B4508   		movl	8(%ebp), %eax
 155 0116 8D5024   		leal	36(%eax), %edx
 156 0119 8B4508   		movl	8(%ebp), %eax
 157 011c 83C054   		addl	$84, %eax
 158 011f 89542404 		movl	%edx, 4(%esp)
 159 0123 890424   		movl	%eax, (%esp)
 160 0126 E8D5FEFF 		call	_GetMinWidth
 160      FF
 161 012b 89C2     		movl	%eax, %edx
 162 012d A1000000 		movl	_MODULES_IN_CODEWORD, %eax
 162      00
 163 0132 0FAFC2   		imull	%edx, %eax
 164 0135 B9120000 		movl	$18, %ecx
 164      00
 165 013a 99       		cltd
 166 013b F7F9     		idivl	%ecx
 167 013d 39C6     		cmpl	%eax, %esi
 168 013f 7D1A     		jge	L8
 169              		.loc 1 29 9 discriminator 5
 170 0141 8B4508   		movl	8(%ebp), %eax
 171 0144 8D503C   		leal	60(%eax), %edx
 172 0147 8B4508   		movl	8(%ebp), %eax
 173 014a 83C00C   		addl	$12, %eax
 174 014d 89542404 		movl	%edx, 4(%esp)
 175 0151 890424   		movl	%eax, (%esp)
 176 0154 E8A7FEFF 		call	_GetMinWidth
 176      FF
 177 0159 EB2A     		jmp	L9
 178              	L8:
 179              		.loc 1 29 9 discriminator 6
 180 015b 8B4508   		movl	8(%ebp), %eax
 181 015e 8D5024   		leal	36(%eax), %edx
 182 0161 8B4508   		movl	8(%ebp), %eax
 183 0164 83C054   		addl	$84, %eax
 184 0167 89542404 		movl	%edx, 4(%esp)
 185 016b 890424   		movl	%eax, (%esp)
 186 016e E88DFEFF 		call	_GetMinWidth
GAS LISTING C:\Users\jisu8\AppData\Local\Temp\ccAhT7z4.s 			page 5


 186      FF
 187 0173 89C2     		movl	%eax, %edx
 188 0175 A1000000 		movl	_MODULES_IN_CODEWORD, %eax
 188      00
 189 017a 0FAFC2   		imull	%edx, %eax
 190 017d BE120000 		movl	$18, %esi
 190      00
 191 0182 99       		cltd
 192 0183 F7FE     		idivl	%esi
 193              	L9:
 194              		.loc 1 29 9 discriminator 8
 195 0185 39C3     		cmpl	%eax, %ebx
 196 0187 0F8D8E00 		jge	L10
 196      0000
 197              		.loc 1 29 9 discriminator 9
 198 018d 8B4508   		movl	8(%ebp), %eax
 199 0190 83C030   		addl	$48, %eax
 200 0193 89442404 		movl	%eax, 4(%esp)
 201 0197 8B4508   		movl	8(%ebp), %eax
 202 019a 890424   		movl	%eax, (%esp)
 203 019d E85EFEFF 		call	_GetMinWidth
 203      FF
 204 01a2 89C3     		movl	%eax, %ebx
 205 01a4 8B4508   		movl	8(%ebp), %eax
 206 01a7 8D5018   		leal	24(%eax), %edx
 207 01aa 8B4508   		movl	8(%ebp), %eax
 208 01ad 83C048   		addl	$72, %eax
 209 01b0 89542404 		movl	%edx, 4(%esp)
 210 01b4 890424   		movl	%eax, (%esp)
 211 01b7 E844FEFF 		call	_GetMinWidth
 211      FF
 212 01bc 89C2     		movl	%eax, %edx
 213 01be A1000000 		movl	_MODULES_IN_CODEWORD, %eax
 213      00
 214 01c3 0FAFC2   		imull	%edx, %eax
 215 01c6 BE120000 		movl	$18, %esi
 215      00
 216 01cb 99       		cltd
 217 01cc F7FE     		idivl	%esi
 218 01ce 39C3     		cmpl	%eax, %ebx
 219 01d0 7D1A     		jge	L11
 220              		.loc 1 29 9 discriminator 11
 221 01d2 8B4508   		movl	8(%ebp), %eax
 222 01d5 83C030   		addl	$48, %eax
 223 01d8 89442404 		movl	%eax, 4(%esp)
 224 01dc 8B4508   		movl	8(%ebp), %eax
 225 01df 890424   		movl	%eax, (%esp)
 226 01e2 E819FEFF 		call	_GetMinWidth
 226      FF
 227 01e7 E9BB0000 		jmp	L16
 227      00
 228              	L11:
 229              		.loc 1 29 9 discriminator 12
 230 01ec 8B4508   		movl	8(%ebp), %eax
 231 01ef 8D5018   		leal	24(%eax), %edx
 232 01f2 8B4508   		movl	8(%ebp), %eax
 233 01f5 83C048   		addl	$72, %eax
GAS LISTING C:\Users\jisu8\AppData\Local\Temp\ccAhT7z4.s 			page 6


 234 01f8 89542404 		movl	%edx, 4(%esp)
 235 01fc 890424   		movl	%eax, (%esp)
 236 01ff E8FCFDFF 		call	_GetMinWidth
 236      FF
 237 0204 89C2     		movl	%eax, %edx
 238 0206 A1000000 		movl	_MODULES_IN_CODEWORD, %eax
 238      00
 239 020b 0FAFC2   		imull	%edx, %eax
 240 020e B9120000 		movl	$18, %ecx
 240      00
 241 0213 99       		cltd
 242 0214 F7F9     		idivl	%ecx
 243 0216 E98C0000 		jmp	L16
 243      00
 244              	L10:
 245              		.loc 1 29 9 discriminator 10
 246 021b 8B4508   		movl	8(%ebp), %eax
 247 021e 8D503C   		leal	60(%eax), %edx
 248 0221 8B4508   		movl	8(%ebp), %eax
 249 0224 83C00C   		addl	$12, %eax
 250 0227 89542404 		movl	%edx, 4(%esp)
 251 022b 890424   		movl	%eax, (%esp)
 252 022e E8CDFDFF 		call	_GetMinWidth
 252      FF
 253 0233 89C3     		movl	%eax, %ebx
 254 0235 8B4508   		movl	8(%ebp), %eax
 255 0238 8D5024   		leal	36(%eax), %edx
 256 023b 8B4508   		movl	8(%ebp), %eax
 257 023e 83C054   		addl	$84, %eax
 258 0241 89542404 		movl	%edx, 4(%esp)
 259 0245 890424   		movl	%eax, (%esp)
 260 0248 E8B3FDFF 		call	_GetMinWidth
 260      FF
 261 024d 89C2     		movl	%eax, %edx
 262 024f A1000000 		movl	_MODULES_IN_CODEWORD, %eax
 262      00
 263 0254 0FAFC2   		imull	%edx, %eax
 264 0257 BE120000 		movl	$18, %esi
 264      00
 265 025c 99       		cltd
 266 025d F7FE     		idivl	%esi
 267 025f 39C3     		cmpl	%eax, %ebx
 268 0261 7D1A     		jge	L14
 269              		.loc 1 29 9 discriminator 16
 270 0263 8B4508   		movl	8(%ebp), %eax
 271 0266 8D503C   		leal	60(%eax), %edx
 272 0269 8B4508   		movl	8(%ebp), %eax
 273 026c 83C00C   		addl	$12, %eax
 274 026f 89542404 		movl	%edx, 4(%esp)
 275 0273 890424   		movl	%eax, (%esp)
 276 0276 E885FDFF 		call	_GetMinWidth
 276      FF
 277 027b EB2A     		jmp	L16
 278              	L14:
 279              		.loc 1 29 9 discriminator 17
 280 027d 8B4508   		movl	8(%ebp), %eax
 281 0280 8D5024   		leal	36(%eax), %edx
GAS LISTING C:\Users\jisu8\AppData\Local\Temp\ccAhT7z4.s 			page 7


 282 0283 8B4508   		movl	8(%ebp), %eax
 283 0286 83C054   		addl	$84, %eax
 284 0289 89542404 		movl	%edx, 4(%esp)
 285 028d 890424   		movl	%eax, (%esp)
 286 0290 E86BFDFF 		call	_GetMinWidth
 286      FF
 287 0295 89C2     		movl	%eax, %edx
 288 0297 A1000000 		movl	_MODULES_IN_CODEWORD, %eax
 288      00
 289 029c 0FAFC2   		imull	%edx, %eax
 290 029f B9120000 		movl	$18, %ecx
 290      00
 291 02a4 99       		cltd
 292 02a5 F7F9     		idivl	%ecx
 293              	L16:
  30:src/pdf417/PDFReader.c **** 					__min(GetMinWidth(p+1, p+5), GetMinWidth(p+7, p+3) * MODULES_IN_CODEWORD / MODULES_IN_STOP_PAT
  31:src/pdf417/PDFReader.c **** }
 294              		.loc 1 31 1 is_stmt 1 discriminator 21
 295 02a7 83C408   		addl	$8, %esp
 296 02aa 5B       		popl	%ebx
 297              		.cfi_restore 3
 298 02ab 5E       		popl	%esi
 299              		.cfi_restore 6
 300 02ac 5D       		popl	%ebp
 301              	LCFI5:
 302              		.cfi_restore 5
 303              		.cfi_def_cfa 4, 4
 304 02ad C3       		ret
 305              		.cfi_endproc
 306              	LFE17:
 308              	_GetMaxWidth:
 309              	LFB18:
  32:src/pdf417/PDFReader.c **** 
  33:src/pdf417/PDFReader.c **** static int GetMaxWidth(ResultPoint_t * p1, ResultPoint_t * p2)
  34:src/pdf417/PDFReader.c **** {
 310              		.loc 1 34 1
 311              		.cfi_startproc
 312 02ae 55       		pushl	%ebp
 313              	LCFI6:
 314              		.cfi_def_cfa_offset 8
 315              		.cfi_offset 5, -8
 316 02af 89E5     		movl	%esp, %ebp
 317              	LCFI7:
 318              		.cfi_def_cfa_register 5
 319 02b1 83EC08   		subl	$8, %esp
  35:src/pdf417/PDFReader.c **** 	if (p1->m_hasValue == 0 || p2->m_hasValue == 0) 
 320              		.loc 1 35 8
 321 02b4 8B4508   		movl	8(%ebp), %eax
 322 02b7 0FB600   		movzbl	(%eax), %eax
 323              		.loc 1 35 5
 324 02ba 84C0     		testb	%al, %al
 325 02bc 740A     		je	L18
 326              		.loc 1 35 31 discriminator 1
 327 02be 8B450C   		movl	12(%ebp), %eax
 328 02c1 0FB600   		movzbl	(%eax), %eax
 329              		.loc 1 35 26 discriminator 1
 330 02c4 84C0     		testb	%al, %al
GAS LISTING C:\Users\jisu8\AppData\Local\Temp\ccAhT7z4.s 			page 8


 331 02c6 7507     		jne	L19
 332              	L18:
  36:src/pdf417/PDFReader.c **** 	{
  37:src/pdf417/PDFReader.c **** 		return 0;
 333              		.loc 1 37 10
 334 02c8 B8000000 		movl	$0, %eax
 334      00
 335 02cd EB3B     		jmp	L20
 336              	L19:
  38:src/pdf417/PDFReader.c **** 	}
  39:src/pdf417/PDFReader.c **** 
  40:src/pdf417/PDFReader.c **** 	return abs((int)(p1->m_value.x) - (int)(p2->m_value.x));
 337              		.loc 1 40 30
 338 02cf 8B4508   		movl	8(%ebp), %eax
 339 02d2 D94004   		flds	4(%eax)
 340              		.loc 1 40 13
 341 02d5 D97DFE   		fnstcw	-2(%ebp)
 342 02d8 0FB745FE 		movzwl	-2(%ebp), %eax
 343 02dc 80CC0C   		orb	$12, %ah
 344 02df 668945FC 		movw	%ax, -4(%ebp)
 345 02e3 D96DFC   		fldcw	-4(%ebp)
 346 02e6 DB5DF8   		fistpl	-8(%ebp)
 347 02e9 D96DFE   		fldcw	-2(%ebp)
 348 02ec 8B55F8   		movl	-8(%ebp), %edx
 349              		.loc 1 40 53
 350 02ef 8B450C   		movl	12(%ebp), %eax
 351 02f2 D94004   		flds	4(%eax)
 352              		.loc 1 40 36
 353 02f5 D96DFC   		fldcw	-4(%ebp)
 354 02f8 DB5DF8   		fistpl	-8(%ebp)
 355 02fb D96DFE   		fldcw	-2(%ebp)
 356 02fe 8B45F8   		movl	-8(%ebp), %eax
 357              		.loc 1 40 34
 358 0301 29C2     		subl	%eax, %edx
 359 0303 89D0     		movl	%edx, %eax
 360              		.loc 1 40 9
 361 0305 99       		cltd
 362 0306 31D0     		xorl	%edx, %eax
 363 0308 29D0     		subl	%edx, %eax
 364              	L20:
  41:src/pdf417/PDFReader.c **** }
 365              		.loc 1 41 1
 366 030a C9       		leave
 367              	LCFI8:
 368              		.cfi_restore 5
 369              		.cfi_def_cfa 4, 4
 370 030b C3       		ret
 371              		.cfi_endproc
 372              	LFE18:
 374              	_GetMaxCodewordWidth:
 375              	LFB19:
  42:src/pdf417/PDFReader.c **** 
  43:src/pdf417/PDFReader.c **** static int GetMaxCodewordWidth(ResultPoint_t * p)
  44:src/pdf417/PDFReader.c **** {
 376              		.loc 1 44 1
 377              		.cfi_startproc
 378 030c 55       		pushl	%ebp
GAS LISTING C:\Users\jisu8\AppData\Local\Temp\ccAhT7z4.s 			page 9


 379              	LCFI9:
 380              		.cfi_def_cfa_offset 8
 381              		.cfi_offset 5, -8
 382 030d 89E5     		movl	%esp, %ebp
 383              	LCFI10:
 384              		.cfi_def_cfa_register 5
 385 030f 56       		pushl	%esi
 386 0310 53       		pushl	%ebx
 387 0311 83EC08   		subl	$8, %esp
 388              		.cfi_offset 6, -12
 389              		.cfi_offset 3, -16
  45:src/pdf417/PDFReader.c **** 	return __max(__max(GetMaxWidth(p, p+4), GetMaxWidth(p+6, p+2) * MODULES_IN_CODEWORD / MODULES_IN_S
 390              		.loc 1 45 9
 391 0314 8B4508   		movl	8(%ebp), %eax
 392 0317 83C030   		addl	$48, %eax
 393 031a 89442404 		movl	%eax, 4(%esp)
 394 031e 8B4508   		movl	8(%ebp), %eax
 395 0321 890424   		movl	%eax, (%esp)
 396 0324 E885FFFF 		call	_GetMaxWidth
 396      FF
 397 0329 89C3     		movl	%eax, %ebx
 398 032b 8B4508   		movl	8(%ebp), %eax
 399 032e 8D5018   		leal	24(%eax), %edx
 400 0331 8B4508   		movl	8(%ebp), %eax
 401 0334 83C048   		addl	$72, %eax
 402 0337 89542404 		movl	%edx, 4(%esp)
 403 033b 890424   		movl	%eax, (%esp)
 404 033e E86BFFFF 		call	_GetMaxWidth
 404      FF
 405 0343 89C2     		movl	%eax, %edx
 406 0345 A1000000 		movl	_MODULES_IN_CODEWORD, %eax
 406      00
 407 034a 0FAFC2   		imull	%edx, %eax
 408 034d B9120000 		movl	$18, %ecx
 408      00
 409 0352 99       		cltd
 410 0353 F7F9     		idivl	%ecx
 411 0355 39C3     		cmpl	%eax, %ebx
 412 0357 7E19     		jle	L22
 413              		.loc 1 45 9 is_stmt 0 discriminator 1
 414 0359 8B4508   		movl	8(%ebp), %eax
 415 035c 83C030   		addl	$48, %eax
 416 035f 89442404 		movl	%eax, 4(%esp)
 417 0363 8B4508   		movl	8(%ebp), %eax
 418 0366 890424   		movl	%eax, (%esp)
 419 0369 E840FFFF 		call	_GetMaxWidth
 419      FF
 420 036e 89C3     		movl	%eax, %ebx
 421 0370 EB2C     		jmp	L23
 422              	L22:
 423              		.loc 1 45 9 discriminator 2
 424 0372 8B4508   		movl	8(%ebp), %eax
 425 0375 8D5018   		leal	24(%eax), %edx
 426 0378 8B4508   		movl	8(%ebp), %eax
 427 037b 83C048   		addl	$72, %eax
 428 037e 89542404 		movl	%edx, 4(%esp)
 429 0382 890424   		movl	%eax, (%esp)
GAS LISTING C:\Users\jisu8\AppData\Local\Temp\ccAhT7z4.s 			page 10


 430 0385 E824FFFF 		call	_GetMaxWidth
 430      FF
 431 038a 89C2     		movl	%eax, %edx
 432 038c A1000000 		movl	_MODULES_IN_CODEWORD, %eax
 432      00
 433 0391 0FAFC2   		imull	%edx, %eax
 434 0394 B9120000 		movl	$18, %ecx
 434      00
 435 0399 99       		cltd
 436 039a F7F9     		idivl	%ecx
 437 039c 89C3     		movl	%eax, %ebx
 438              	L23:
 439              		.loc 1 45 9 discriminator 4
 440 039e 8B4508   		movl	8(%ebp), %eax
 441 03a1 8D503C   		leal	60(%eax), %edx
 442 03a4 8B4508   		movl	8(%ebp), %eax
 443 03a7 83C00C   		addl	$12, %eax
 444 03aa 89542404 		movl	%edx, 4(%esp)
 445 03ae 890424   		movl	%eax, (%esp)
 446 03b1 E8F8FEFF 		call	_GetMaxWidth
 446      FF
 447 03b6 89C6     		movl	%eax, %esi
 448 03b8 8B4508   		movl	8(%ebp), %eax
 449 03bb 8D5024   		leal	36(%eax), %edx
 450 03be 8B4508   		movl	8(%ebp), %eax
 451 03c1 83C054   		addl	$84, %eax
 452 03c4 89542404 		movl	%edx, 4(%esp)
 453 03c8 890424   		movl	%eax, (%esp)
 454 03cb E8DEFEFF 		call	_GetMaxWidth
 454      FF
 455 03d0 89C2     		movl	%eax, %edx
 456 03d2 A1000000 		movl	_MODULES_IN_CODEWORD, %eax
 456      00
 457 03d7 0FAFC2   		imull	%edx, %eax
 458 03da B9120000 		movl	$18, %ecx
 458      00
 459 03df 99       		cltd
 460 03e0 F7F9     		idivl	%ecx
 461 03e2 39C6     		cmpl	%eax, %esi
 462 03e4 7E1A     		jle	L24
 463              		.loc 1 45 9 discriminator 5
 464 03e6 8B4508   		movl	8(%ebp), %eax
 465 03e9 8D503C   		leal	60(%eax), %edx
 466 03ec 8B4508   		movl	8(%ebp), %eax
 467 03ef 83C00C   		addl	$12, %eax
 468 03f2 89542404 		movl	%edx, 4(%esp)
 469 03f6 890424   		movl	%eax, (%esp)
 470 03f9 E8B0FEFF 		call	_GetMaxWidth
 470      FF
 471 03fe EB2A     		jmp	L25
 472              	L24:
 473              		.loc 1 45 9 discriminator 6
 474 0400 8B4508   		movl	8(%ebp), %eax
 475 0403 8D5024   		leal	36(%eax), %edx
 476 0406 8B4508   		movl	8(%ebp), %eax
 477 0409 83C054   		addl	$84, %eax
 478 040c 89542404 		movl	%edx, 4(%esp)
GAS LISTING C:\Users\jisu8\AppData\Local\Temp\ccAhT7z4.s 			page 11


 479 0410 890424   		movl	%eax, (%esp)
 480 0413 E896FEFF 		call	_GetMaxWidth
 480      FF
 481 0418 89C2     		movl	%eax, %edx
 482 041a A1000000 		movl	_MODULES_IN_CODEWORD, %eax
 482      00
 483 041f 0FAFC2   		imull	%edx, %eax
 484 0422 BE120000 		movl	$18, %esi
 484      00
 485 0427 99       		cltd
 486 0428 F7FE     		idivl	%esi
 487              	L25:
 488              		.loc 1 45 9 discriminator 8
 489 042a 39C3     		cmpl	%eax, %ebx
 490 042c 0F8E8E00 		jle	L26
 490      0000
 491              		.loc 1 45 9 discriminator 9
 492 0432 8B4508   		movl	8(%ebp), %eax
 493 0435 83C030   		addl	$48, %eax
 494 0438 89442404 		movl	%eax, 4(%esp)
 495 043c 8B4508   		movl	8(%ebp), %eax
 496 043f 890424   		movl	%eax, (%esp)
 497 0442 E867FEFF 		call	_GetMaxWidth
 497      FF
 498 0447 89C3     		movl	%eax, %ebx
 499 0449 8B4508   		movl	8(%ebp), %eax
 500 044c 8D5018   		leal	24(%eax), %edx
 501 044f 8B4508   		movl	8(%ebp), %eax
 502 0452 83C048   		addl	$72, %eax
 503 0455 89542404 		movl	%edx, 4(%esp)
 504 0459 890424   		movl	%eax, (%esp)
 505 045c E84DFEFF 		call	_GetMaxWidth
 505      FF
 506 0461 89C2     		movl	%eax, %edx
 507 0463 A1000000 		movl	_MODULES_IN_CODEWORD, %eax
 507      00
 508 0468 0FAFC2   		imull	%edx, %eax
 509 046b BE120000 		movl	$18, %esi
 509      00
 510 0470 99       		cltd
 511 0471 F7FE     		idivl	%esi
 512 0473 39C3     		cmpl	%eax, %ebx
 513 0475 7E1A     		jle	L27
 514              		.loc 1 45 9 discriminator 11
 515 0477 8B4508   		movl	8(%ebp), %eax
 516 047a 83C030   		addl	$48, %eax
 517 047d 89442404 		movl	%eax, 4(%esp)
 518 0481 8B4508   		movl	8(%ebp), %eax
 519 0484 890424   		movl	%eax, (%esp)
 520 0487 E822FEFF 		call	_GetMaxWidth
 520      FF
 521 048c E9BB0000 		jmp	L32
 521      00
 522              	L27:
 523              		.loc 1 45 9 discriminator 12
 524 0491 8B4508   		movl	8(%ebp), %eax
 525 0494 8D5018   		leal	24(%eax), %edx
GAS LISTING C:\Users\jisu8\AppData\Local\Temp\ccAhT7z4.s 			page 12


 526 0497 8B4508   		movl	8(%ebp), %eax
 527 049a 83C048   		addl	$72, %eax
 528 049d 89542404 		movl	%edx, 4(%esp)
 529 04a1 890424   		movl	%eax, (%esp)
 530 04a4 E805FEFF 		call	_GetMaxWidth
 530      FF
 531 04a9 89C2     		movl	%eax, %edx
 532 04ab A1000000 		movl	_MODULES_IN_CODEWORD, %eax
 532      00
 533 04b0 0FAFC2   		imull	%edx, %eax
 534 04b3 B9120000 		movl	$18, %ecx
 534      00
 535 04b8 99       		cltd
 536 04b9 F7F9     		idivl	%ecx
 537 04bb E98C0000 		jmp	L32
 537      00
 538              	L26:
 539              		.loc 1 45 9 discriminator 10
 540 04c0 8B4508   		movl	8(%ebp), %eax
 541 04c3 8D503C   		leal	60(%eax), %edx
 542 04c6 8B4508   		movl	8(%ebp), %eax
 543 04c9 83C00C   		addl	$12, %eax
 544 04cc 89542404 		movl	%edx, 4(%esp)
 545 04d0 890424   		movl	%eax, (%esp)
 546 04d3 E8D6FDFF 		call	_GetMaxWidth
 546      FF
 547 04d8 89C3     		movl	%eax, %ebx
 548 04da 8B4508   		movl	8(%ebp), %eax
 549 04dd 8D5024   		leal	36(%eax), %edx
 550 04e0 8B4508   		movl	8(%ebp), %eax
 551 04e3 83C054   		addl	$84, %eax
 552 04e6 89542404 		movl	%edx, 4(%esp)
 553 04ea 890424   		movl	%eax, (%esp)
 554 04ed E8BCFDFF 		call	_GetMaxWidth
 554      FF
 555 04f2 89C2     		movl	%eax, %edx
 556 04f4 A1000000 		movl	_MODULES_IN_CODEWORD, %eax
 556      00
 557 04f9 0FAFC2   		imull	%edx, %eax
 558 04fc BE120000 		movl	$18, %esi
 558      00
 559 0501 99       		cltd
 560 0502 F7FE     		idivl	%esi
 561 0504 39C3     		cmpl	%eax, %ebx
 562 0506 7E1A     		jle	L30
 563              		.loc 1 45 9 discriminator 16
 564 0508 8B4508   		movl	8(%ebp), %eax
 565 050b 8D503C   		leal	60(%eax), %edx
 566 050e 8B4508   		movl	8(%ebp), %eax
 567 0511 83C00C   		addl	$12, %eax
 568 0514 89542404 		movl	%edx, 4(%esp)
 569 0518 890424   		movl	%eax, (%esp)
 570 051b E88EFDFF 		call	_GetMaxWidth
 570      FF
 571 0520 EB2A     		jmp	L32
 572              	L30:
 573              		.loc 1 45 9 discriminator 17
GAS LISTING C:\Users\jisu8\AppData\Local\Temp\ccAhT7z4.s 			page 13


 574 0522 8B4508   		movl	8(%ebp), %eax
 575 0525 8D5024   		leal	36(%eax), %edx
 576 0528 8B4508   		movl	8(%ebp), %eax
 577 052b 83C054   		addl	$84, %eax
 578 052e 89542404 		movl	%edx, 4(%esp)
 579 0532 890424   		movl	%eax, (%esp)
 580 0535 E874FDFF 		call	_GetMaxWidth
 580      FF
 581 053a 89C2     		movl	%eax, %edx
 582 053c A1000000 		movl	_MODULES_IN_CODEWORD, %eax
 582      00
 583 0541 0FAFC2   		imull	%edx, %eax
 584 0544 B9120000 		movl	$18, %ecx
 584      00
 585 0549 99       		cltd
 586 054a F7F9     		idivl	%ecx
 587              	L32:
  46:src/pdf417/PDFReader.c **** 					__max(GetMaxWidth(p+1, p+5), GetMaxWidth(p+7, p+3) * MODULES_IN_CODEWORD / MODULES_IN_STOP_PAT
  47:src/pdf417/PDFReader.c **** }
 588              		.loc 1 47 1 is_stmt 1 discriminator 21
 589 054c 83C408   		addl	$8, %esp
 590 054f 5B       		popl	%ebx
 591              		.cfi_restore 3
 592 0550 5E       		popl	%esi
 593              		.cfi_restore 6
 594 0551 5D       		popl	%ebp
 595              	LCFI11:
 596              		.cfi_restore 5
 597              		.cfi_def_cfa 4, 4
 598 0552 C3       		ret
 599              		.cfi_endproc
 600              	LFE19:
 601              		.section .rdata,"dr"
 602              		.align 4
 603              	LC1:
 604 0004 20446F44 		.ascii " DoDecode: img=%d, multiple=%d, res=%d, str=%d \12\0"
 604      65636F64 
 604      653A2069 
 604      6D673D25 
 604      642C206D 
 605 0035 000000   		.text
 606              		.globl	_DoDecode
 608              	_DoDecode:
 609              	LFB20:
  48:src/pdf417/PDFReader.c **** 
  49:src/pdf417/PDFReader.c **** DecodeStatus_t DoDecode(GenericLuminanceSource_t * image, unsigned char multiple, result_t * result
  50:src/pdf417/PDFReader.c **** {
 610              		.loc 1 50 1
 611              		.cfi_startproc
 612 0553 55       		pushl	%ebp
 613              	LCFI12:
 614              		.cfi_def_cfa_offset 8
 615              		.cfi_offset 5, -8
 616 0554 89E5     		movl	%esp, %ebp
 617              	LCFI13:
 618              		.cfi_def_cfa_register 5
 619 0556 57       		pushl	%edi
GAS LISTING C:\Users\jisu8\AppData\Local\Temp\ccAhT7z4.s 			page 14


 620 0557 56       		pushl	%esi
 621 0558 53       		pushl	%ebx
 622 0559 81ECFC00 		subl	$252, %esp
 622      0000
 623              		.cfi_offset 7, -12
 624              		.cfi_offset 6, -16
 625              		.cfi_offset 3, -20
 626 055f 8B450C   		movl	12(%ebp), %eax
 627 0562 8845A4   		movb	%al, -92(%ebp)
  51:src/pdf417/PDFReader.c **** 
  52:src/pdf417/PDFReader.c **** 	printf(" DoDecode: img=%d, multiple=%d, res=%d, str=%d \n", image, multiple, results, characterSet
 628              		.loc 1 52 2
 629 0565 0FB645A4 		movzbl	-92(%ebp), %eax
 630 0569 8B5514   		movl	20(%ebp), %edx
 631 056c 89542410 		movl	%edx, 16(%esp)
 632 0570 8B5510   		movl	16(%ebp), %edx
 633 0573 8954240C 		movl	%edx, 12(%esp)
 634 0577 89442408 		movl	%eax, 8(%esp)
 635 057b 8B4508   		movl	8(%ebp), %eax
 636 057e 89442404 		movl	%eax, 4(%esp)
 637 0582 C7042404 		movl	$LC1, (%esp)
 637      000000
 638 0589 E8000000 		call	_printf
 638      00
  53:src/pdf417/PDFReader.c **** 	Detector_Result_t detectorResult;
  54:src/pdf417/PDFReader.c **** 	DecodeStatus_t status;
  55:src/pdf417/PDFReader.c **** 	status = Detect(image, multiple, &detectorResult);
 639              		.loc 1 55 11
 640 058e 0FB645A4 		movzbl	-92(%ebp), %eax
 641 0592 8D55D8   		leal	-40(%ebp), %edx
 642 0595 89542408 		movl	%edx, 8(%esp)
 643 0599 89442404 		movl	%eax, 4(%esp)
 644 059d 8B4508   		movl	8(%ebp), %eax
 645 05a0 890424   		movl	%eax, (%esp)
 646 05a3 E8000000 		call	_Detect
 646      00
 647 05a8 8945E4   		movl	%eax, -28(%ebp)
  56:src/pdf417/PDFReader.c **** 	if (StatusIsError(status)) 
 648              		.loc 1 56 5
 649 05ab 837DE400 		cmpl	$0, -28(%ebp)
 650 05af 7408     		je	L34
  57:src/pdf417/PDFReader.c **** 	{
  58:src/pdf417/PDFReader.c **** 		return status;
 651              		.loc 1 58 10
 652 05b1 8B45E4   		movl	-28(%ebp), %eax
 653 05b4 E9E10200 		jmp	L38
 653      00
 654              	L34:
  59:src/pdf417/PDFReader.c **** 	}
  60:src/pdf417/PDFReader.c **** 
  61:src/pdf417/PDFReader.c **** 	ResultPoint_t * points = detectorResult.points;
 655              		.loc 1 61 18
 656 05b9 8B45DC   		movl	-36(%ebp), %eax
 657 05bc 8945E0   		movl	%eax, -32(%ebp)
  62:src/pdf417/PDFReader.c **** 	DecoderResult_t decoderResult;
  63:src/pdf417/PDFReader.c **** 	result_init(&decoderResult);
 658              		.loc 1 63 2
GAS LISTING C:\Users\jisu8\AppData\Local\Temp\ccAhT7z4.s 			page 15


 659 05bf 8D45A8   		leal	-88(%ebp), %eax
 660 05c2 890424   		movl	%eax, (%esp)
 661 05c5 E8000000 		call	_result_init
 661      00
  64:src/pdf417/PDFReader.c **** 
  65:src/pdf417/PDFReader.c **** 	//for (const auto& points : detectorResult.points) 
  66:src/pdf417/PDFReader.c **** 	//{
  67:src/pdf417/PDFReader.c **** 		decoderResult = Decode(detectorResult.bits, points[4], points[5], points[6], points[7],
 662              		.loc 1 67 19
 663 05ca 8B45E0   		movl	-32(%ebp), %eax
 664 05cd 890424   		movl	%eax, (%esp)
 665 05d0 E837FDFF 		call	_GetMaxCodewordWidth
 665      FF
 666 05d5 89855CFF 		movl	%eax, -164(%ebp)
 666      FFFF
 667 05db 8B45E0   		movl	-32(%ebp), %eax
 668 05de 890424   		movl	%eax, (%esp)
 669 05e1 E881FAFF 		call	_GetMinCodewordWidth
 669      FF
 670 05e6 898558FF 		movl	%eax, -168(%ebp)
 670      FFFF
 671              		.loc 1 67 86
 672 05ec 8B45E0   		movl	-32(%ebp), %eax
 673 05ef 8D7054   		leal	84(%eax), %esi
 674              		.loc 1 67 75
 675 05f2 8B45E0   		movl	-32(%ebp), %eax
 676 05f5 8D5848   		leal	72(%eax), %ebx
 677              		.loc 1 67 64
 678 05f8 8B45E0   		movl	-32(%ebp), %eax
 679 05fb 8D483C   		leal	60(%eax), %ecx
 680              		.loc 1 67 53
 681 05fe 8B45E0   		movl	-32(%ebp), %eax
 682 0601 8D5030   		leal	48(%eax), %edx
 683              		.loc 1 67 40
 684 0604 8B7DD8   		movl	-40(%ebp), %edi
 685 0607 89BD54FF 		movl	%edi, -172(%ebp)
 685      FFFF
 686              		.loc 1 67 19
 687 060d 8DBD68FF 		leal	-152(%ebp), %edi
 687      FFFF
 688 0613 8B4514   		movl	20(%ebp), %eax
 689 0616 89442440 		movl	%eax, 64(%esp)
 690 061a 8B855CFF 		movl	-164(%ebp), %eax
 690      FFFF
 691 0620 8944243C 		movl	%eax, 60(%esp)
 692 0624 8B8558FF 		movl	-168(%ebp), %eax
 692      FFFF
 693 062a 89442438 		movl	%eax, 56(%esp)
 694 062e 8B06     		movl	(%esi), %eax
 695 0630 8944242C 		movl	%eax, 44(%esp)
 696 0634 8B4604   		movl	4(%esi), %eax
 697 0637 89442430 		movl	%eax, 48(%esp)
 698 063b 8B4608   		movl	8(%esi), %eax
 699 063e 89442434 		movl	%eax, 52(%esp)
 700 0642 8B03     		movl	(%ebx), %eax
 701 0644 89442420 		movl	%eax, 32(%esp)
 702 0648 8B4304   		movl	4(%ebx), %eax
GAS LISTING C:\Users\jisu8\AppData\Local\Temp\ccAhT7z4.s 			page 16


 703 064b 89442424 		movl	%eax, 36(%esp)
 704 064f 8B4308   		movl	8(%ebx), %eax
 705 0652 89442428 		movl	%eax, 40(%esp)
 706 0656 8B01     		movl	(%ecx), %eax
 707 0658 89442414 		movl	%eax, 20(%esp)
 708 065c 8B4104   		movl	4(%ecx), %eax
 709 065f 89442418 		movl	%eax, 24(%esp)
 710 0663 8B4108   		movl	8(%ecx), %eax
 711 0666 8944241C 		movl	%eax, 28(%esp)
 712 066a 8B02     		movl	(%edx), %eax
 713 066c 89442408 		movl	%eax, 8(%esp)
 714 0670 8B4204   		movl	4(%edx), %eax
 715 0673 8944240C 		movl	%eax, 12(%esp)
 716 0677 8B4208   		movl	8(%edx), %eax
 717 067a 89442410 		movl	%eax, 16(%esp)
 718 067e 8B8554FF 		movl	-172(%ebp), %eax
 718      FFFF
 719 0684 89442404 		movl	%eax, 4(%esp)
 720 0688 893C24   		movl	%edi, (%esp)
 721 068b E8000000 		call	_Decode
 721      00
 722 0690 8B8568FF 		movl	-152(%ebp), %eax
 722      FFFF
 723 0696 8945A8   		movl	%eax, -88(%ebp)
 724 0699 8B856CFF 		movl	-148(%ebp), %eax
 724      FFFF
 725 069f 8945AC   		movl	%eax, -84(%ebp)
 726 06a2 8B8570FF 		movl	-144(%ebp), %eax
 726      FFFF
 727 06a8 8945B0   		movl	%eax, -80(%ebp)
 728 06ab 8B8574FF 		movl	-140(%ebp), %eax
 728      FFFF
 729 06b1 8945B4   		movl	%eax, -76(%ebp)
 730 06b4 8B8578FF 		movl	-136(%ebp), %eax
 730      FFFF
 731 06ba 8945B8   		movl	%eax, -72(%ebp)
 732 06bd 8B857CFF 		movl	-132(%ebp), %eax
 732      FFFF
 733 06c3 8945BC   		movl	%eax, -68(%ebp)
 734 06c6 8B4580   		movl	-128(%ebp), %eax
 735 06c9 8945C0   		movl	%eax, -64(%ebp)
 736 06cc 8B4584   		movl	-124(%ebp), %eax
 737 06cf 8945C4   		movl	%eax, -60(%ebp)
 738 06d2 8B4588   		movl	-120(%ebp), %eax
 739 06d5 8945C8   		movl	%eax, -56(%ebp)
 740 06d8 8B458C   		movl	-116(%ebp), %eax
 741 06db 8945CC   		movl	%eax, -52(%ebp)
 742 06de 8B4590   		movl	-112(%ebp), %eax
 743 06e1 8945D0   		movl	%eax, -48(%ebp)
 744 06e4 8B4594   		movl	-108(%ebp), %eax
 745 06e7 8945D4   		movl	%eax, -44(%ebp)
  68:src/pdf417/PDFReader.c **** 									GetMinCodewordWidth(points), GetMaxCodewordWidth(points), characterSet);
  69:src/pdf417/PDFReader.c **** 
  70:src/pdf417/PDFReader.c **** 		if (decoderResult.status == NoError) 
 746              		.loc 1 70 20
 747 06ea 8B45A8   		movl	-88(%ebp), %eax
 748              		.loc 1 70 6
GAS LISTING C:\Users\jisu8\AppData\Local\Temp\ccAhT7z4.s 			page 17


 749 06ed 85C0     		testl	%eax, %eax
 750 06ef 0F858D01 		jne	L36
 750      0000
  71:src/pdf417/PDFReader.c **** 		{
  72:src/pdf417/PDFReader.c **** 			results->_status = decoderResult.status;
 751              		.loc 1 72 36
 752 06f5 8B55A8   		movl	-88(%ebp), %edx
 753              		.loc 1 72 21
 754 06f8 8B4510   		movl	16(%ebp), %eax
 755 06fb 8910     		movl	%edx, (%eax)
  73:src/pdf417/PDFReader.c **** 			results->_format = PDF417;
 756              		.loc 1 73 21
 757 06fd 8B4510   		movl	16(%ebp), %eax
 758 0700 C7400400 		movl	$4096, 4(%eax)
 758      100000
  74:src/pdf417/PDFReader.c **** 			results->_text = decoderResult._text;
 759              		.loc 1 74 34
 760 0707 8B55B4   		movl	-76(%ebp), %edx
 761              		.loc 1 74 19
 762 070a 8B4510   		movl	16(%ebp), %eax
 763 070d 895008   		movl	%edx, 8(%eax)
  75:src/pdf417/PDFReader.c **** 			results->_position[0].x = (int)points[0].m_value.x;
 764              		.loc 1 75 52
 765 0710 8B45E0   		movl	-32(%ebp), %eax
 766 0713 D94004   		flds	4(%eax)
 767              		.loc 1 75 30
 768 0716 D97DA6   		fnstcw	-90(%ebp)
 769 0719 0FB745A6 		movzwl	-90(%ebp), %eax
 770 071d 80CC0C   		orb	$12, %ah
 771 0720 66898566 		movw	%ax, -154(%ebp)
 771      FFFFFF
 772 0727 D9AD66FF 		fldcw	-154(%ebp)
 772      FFFF
 773 072d DB9D60FF 		fistpl	-160(%ebp)
 773      FFFF
 774 0733 D96DA6   		fldcw	-90(%ebp)
 775 0736 8B9560FF 		movl	-160(%ebp), %edx
 775      FFFF
 776              		.loc 1 75 28
 777 073c 8B4510   		movl	16(%ebp), %eax
 778 073f 89500C   		movl	%edx, 12(%eax)
  76:src/pdf417/PDFReader.c **** 			results->_position[0].y = (int)points[0].m_value.y;
 779              		.loc 1 76 52
 780 0742 8B45E0   		movl	-32(%ebp), %eax
 781 0745 D94008   		flds	8(%eax)
 782              		.loc 1 76 30
 783 0748 D9AD66FF 		fldcw	-154(%ebp)
 783      FFFF
 784 074e DB9D60FF 		fistpl	-160(%ebp)
 784      FFFF
 785 0754 D96DA6   		fldcw	-90(%ebp)
 786 0757 8B9560FF 		movl	-160(%ebp), %edx
 786      FFFF
 787              		.loc 1 76 28
 788 075d 8B4510   		movl	16(%ebp), %eax
 789 0760 895010   		movl	%edx, 16(%eax)
  77:src/pdf417/PDFReader.c **** 			results->_position[1].x = (int)points[2].m_value.x;
GAS LISTING C:\Users\jisu8\AppData\Local\Temp\ccAhT7z4.s 			page 18


 790              		.loc 1 77 41
 791 0763 8B45E0   		movl	-32(%ebp), %eax
 792 0766 83C018   		addl	$24, %eax
 793              		.loc 1 77 52
 794 0769 D94004   		flds	4(%eax)
 795              		.loc 1 77 30
 796 076c D9AD66FF 		fldcw	-154(%ebp)
 796      FFFF
 797 0772 DB9D60FF 		fistpl	-160(%ebp)
 797      FFFF
 798 0778 D96DA6   		fldcw	-90(%ebp)
 799 077b 8B9560FF 		movl	-160(%ebp), %edx
 799      FFFF
 800              		.loc 1 77 28
 801 0781 8B4510   		movl	16(%ebp), %eax
 802 0784 895014   		movl	%edx, 20(%eax)
  78:src/pdf417/PDFReader.c **** 			results->_position[1].y = (int)points[2].m_value.y;
 803              		.loc 1 78 41
 804 0787 8B45E0   		movl	-32(%ebp), %eax
 805 078a 83C018   		addl	$24, %eax
 806              		.loc 1 78 52
 807 078d D94008   		flds	8(%eax)
 808              		.loc 1 78 30
 809 0790 D9AD66FF 		fldcw	-154(%ebp)
 809      FFFF
 810 0796 DB9D60FF 		fistpl	-160(%ebp)
 810      FFFF
 811 079c D96DA6   		fldcw	-90(%ebp)
 812 079f 8B9560FF 		movl	-160(%ebp), %edx
 812      FFFF
 813              		.loc 1 78 28
 814 07a5 8B4510   		movl	16(%ebp), %eax
 815 07a8 895018   		movl	%edx, 24(%eax)
  79:src/pdf417/PDFReader.c **** 			results->_position[2].x = (int)points[3].m_value.x;
 816              		.loc 1 79 41
 817 07ab 8B45E0   		movl	-32(%ebp), %eax
 818 07ae 83C024   		addl	$36, %eax
 819              		.loc 1 79 52
 820 07b1 D94004   		flds	4(%eax)
 821              		.loc 1 79 30
 822 07b4 D9AD66FF 		fldcw	-154(%ebp)
 822      FFFF
 823 07ba DB9D60FF 		fistpl	-160(%ebp)
 823      FFFF
 824 07c0 D96DA6   		fldcw	-90(%ebp)
 825 07c3 8B9560FF 		movl	-160(%ebp), %edx
 825      FFFF
 826              		.loc 1 79 28
 827 07c9 8B4510   		movl	16(%ebp), %eax
 828 07cc 89501C   		movl	%edx, 28(%eax)
  80:src/pdf417/PDFReader.c **** 			results->_position[2].y = (int)points[3].m_value.y;
 829              		.loc 1 80 41
 830 07cf 8B45E0   		movl	-32(%ebp), %eax
 831 07d2 83C024   		addl	$36, %eax
 832              		.loc 1 80 52
 833 07d5 D94008   		flds	8(%eax)
 834              		.loc 1 80 30
GAS LISTING C:\Users\jisu8\AppData\Local\Temp\ccAhT7z4.s 			page 19


 835 07d8 D9AD66FF 		fldcw	-154(%ebp)
 835      FFFF
 836 07de DB9D60FF 		fistpl	-160(%ebp)
 836      FFFF
 837 07e4 D96DA6   		fldcw	-90(%ebp)
 838 07e7 8B9560FF 		movl	-160(%ebp), %edx
 838      FFFF
 839              		.loc 1 80 28
 840 07ed 8B4510   		movl	16(%ebp), %eax
 841 07f0 895020   		movl	%edx, 32(%eax)
  81:src/pdf417/PDFReader.c **** 			results->_position[3].x = (int)points[1].m_value.x;
 842              		.loc 1 81 41
 843 07f3 8B45E0   		movl	-32(%ebp), %eax
 844 07f6 83C00C   		addl	$12, %eax
 845              		.loc 1 81 52
 846 07f9 D94004   		flds	4(%eax)
 847              		.loc 1 81 30
 848 07fc D9AD66FF 		fldcw	-154(%ebp)
 848      FFFF
 849 0802 DB9D60FF 		fistpl	-160(%ebp)
 849      FFFF
 850 0808 D96DA6   		fldcw	-90(%ebp)
 851 080b 8B9560FF 		movl	-160(%ebp), %edx
 851      FFFF
 852              		.loc 1 81 28
 853 0811 8B4510   		movl	16(%ebp), %eax
 854 0814 895024   		movl	%edx, 36(%eax)
  82:src/pdf417/PDFReader.c **** 			results->_position[3].y = (int)points[1].m_value.y;
 855              		.loc 1 82 41
 856 0817 8B45E0   		movl	-32(%ebp), %eax
 857 081a 83C00C   		addl	$12, %eax
 858              		.loc 1 82 52
 859 081d D94008   		flds	8(%eax)
 860              		.loc 1 82 30
 861 0820 D9AD66FF 		fldcw	-154(%ebp)
 861      FFFF
 862 0826 DB9D60FF 		fistpl	-160(%ebp)
 862      FFFF
 863 082c D96DA6   		fldcw	-90(%ebp)
 864 082f 8B9560FF 		movl	-160(%ebp), %edx
 864      FFFF
 865              		.loc 1 82 28
 866 0835 8B4510   		movl	16(%ebp), %eax
 867 0838 895028   		movl	%edx, 40(%eax)
  83:src/pdf417/PDFReader.c **** 			results->_rawBytes = decoderResult._rawBytes;
 868              		.loc 1 83 38
 869 083b 8B55AC   		movl	-84(%ebp), %edx
 870              		.loc 1 83 23
 871 083e 8B4510   		movl	16(%ebp), %eax
 872 0841 89502C   		movl	%edx, 44(%eax)
  84:src/pdf417/PDFReader.c **** 			results->_numBits = decoderResult._numBits;
 873              		.loc 1 84 37
 874 0844 8B55B0   		movl	-80(%ebp), %edx
 875              		.loc 1 84 22
 876 0847 8B4510   		movl	16(%ebp), %eax
 877 084a 895030   		movl	%edx, 48(%eax)
  85:src/pdf417/PDFReader.c **** 			results->_ecLevel = decoderResult._ecLevel;
GAS LISTING C:\Users\jisu8\AppData\Local\Temp\ccAhT7z4.s 			page 20


 878              		.loc 1 85 37
 879 084d 8B55B8   		movl	-72(%ebp), %edx
 880              		.loc 1 85 22
 881 0850 8B4510   		movl	16(%ebp), %eax
 882 0853 895034   		movl	%edx, 52(%eax)
  86:src/pdf417/PDFReader.c **** 			//results->_metadata = decoderResult.;
  87:src/pdf417/PDFReader.c **** 			results->_sai = decoderResult._structuredAppend;
 883              		.loc 1 87 18
 884 0856 8B4510   		movl	16(%ebp), %eax
 885 0859 8B55C4   		movl	-60(%ebp), %edx
 886 085c 89503C   		movl	%edx, 60(%eax)
 887 085f 8B55C8   		movl	-56(%ebp), %edx
 888 0862 895040   		movl	%edx, 64(%eax)
 889 0865 8B55CC   		movl	-52(%ebp), %edx
 890 0868 895044   		movl	%edx, 68(%eax)
  88:src/pdf417/PDFReader.c **** 			results->_readerInit = decoderResult._readerInit;
 891              		.loc 1 88 40
 892 086b 0FB655D0 		movzbl	-48(%ebp), %edx
 893              		.loc 1 88 25
 894 086f 8B4510   		movl	16(%ebp), %eax
 895 0872 885048   		movb	%dl, 72(%eax)
  89:src/pdf417/PDFReader.c **** 
  90:src/pdf417/PDFReader.c **** 			if (!multiple) 
 896              		.loc 1 90 7
 897 0875 807DA400 		cmpb	$0, -92(%ebp)
 898 0879 7512     		jne	L37
  91:src/pdf417/PDFReader.c **** 			{
  92:src/pdf417/PDFReader.c **** 				return NoError;
 899              		.loc 1 92 12
 900 087b B8000000 		movl	$0, %eax
 900      00
 901 0880 EB18     		jmp	L38
 902              	L36:
  93:src/pdf417/PDFReader.c **** 			}
  94:src/pdf417/PDFReader.c **** 		}
  95:src/pdf417/PDFReader.c **** 		else if (!multiple) 
 903              		.loc 1 95 11
 904 0882 807DA400 		cmpb	$0, -92(%ebp)
 905 0886 7505     		jne	L37
  96:src/pdf417/PDFReader.c **** 		{
  97:src/pdf417/PDFReader.c **** 			return decoderResult.status;
 906              		.loc 1 97 24
 907 0888 8B45A8   		movl	-88(%ebp), %eax
 908 088b EB0D     		jmp	L38
 909              	L37:
  98:src/pdf417/PDFReader.c **** 		}
  99:src/pdf417/PDFReader.c **** 
 100:src/pdf417/PDFReader.c **** 	//}
 101:src/pdf417/PDFReader.c **** 
 102:src/pdf417/PDFReader.c **** 	return results->_status ? NotFound : NoError;
 910              		.loc 1 102 16
 911 088d 8B4510   		movl	16(%ebp), %eax
 912 0890 8B00     		movl	(%eax), %eax
 913              		.loc 1 102 37
 914 0892 85C0     		testl	%eax, %eax
 915 0894 0F95C0   		setne	%al
 916 0897 0FB6C0   		movzbl	%al, %eax
GAS LISTING C:\Users\jisu8\AppData\Local\Temp\ccAhT7z4.s 			page 21


 917              	L38:
 103:src/pdf417/PDFReader.c **** 
 104:src/pdf417/PDFReader.c **** }
 918              		.loc 1 104 1 discriminator 1
 919 089a 81C4FC00 		addl	$252, %esp
 919      0000
 920 08a0 5B       		popl	%ebx
 921              		.cfi_restore 3
 922 08a1 5E       		popl	%esi
 923              		.cfi_restore 6
 924 08a2 5F       		popl	%edi
 925              		.cfi_restore 7
 926 08a3 5D       		popl	%ebp
 927              	LCFI14:
 928              		.cfi_restore 5
 929              		.cfi_def_cfa 4, 4
 930 08a4 C3       		ret
 931              		.cfi_endproc
 932              	LFE20:
 933              		.globl	_decode
 935              	_decode:
 936              	LFB21:
 105:src/pdf417/PDFReader.c **** 
 106:src/pdf417/PDFReader.c **** result_t decode(GenericLuminanceSource_t * image,DecodeHints_t * hints)
 107:src/pdf417/PDFReader.c **** {
 937              		.loc 1 107 1
 938              		.cfi_startproc
 939 08a5 55       		pushl	%ebp
 940              	LCFI15:
 941              		.cfi_def_cfa_offset 8
 942              		.cfi_offset 5, -8
 943 08a6 89E5     		movl	%esp, %ebp
 944              	LCFI16:
 945              		.cfi_def_cfa_register 5
 946 08a8 57       		pushl	%edi
 947 08a9 56       		pushl	%esi
 948 08aa 53       		pushl	%ebx
 949 08ab 83EC7C   		subl	$124, %esp
 950              		.cfi_offset 7, -12
 951              		.cfi_offset 6, -16
 952              		.cfi_offset 3, -20
 108:src/pdf417/PDFReader.c **** 	unsigned int isPure = hints->isPure;
 953              		.loc 1 108 29
 954 08ae 8B4510   		movl	16(%ebp), %eax
 955 08b1 0FB64002 		movzbl	2(%eax), %eax
 956              		.loc 1 108 15
 957 08b5 0FB6C0   		movzbl	%al, %eax
 958 08b8 8945E4   		movl	%eax, -28(%ebp)
 109:src/pdf417/PDFReader.c **** 	unsigned int characterSet = hints->characterSet;
 959              		.loc 1 109 35
 960 08bb 8B4510   		movl	16(%ebp), %eax
 961 08be 8B400C   		movl	12(%eax), %eax
 962              		.loc 1 109 15
 963 08c1 8945E0   		movl	%eax, -32(%ebp)
 110:src/pdf417/PDFReader.c **** 	result_t results;
 111:src/pdf417/PDFReader.c **** 	DecodeStatus_t status;
 112:src/pdf417/PDFReader.c **** 	
GAS LISTING C:\Users\jisu8\AppData\Local\Temp\ccAhT7z4.s 			page 22


 113:src/pdf417/PDFReader.c **** 	if (isPure) 
 964              		.loc 1 113 5
 965 08c4 837DE400 		cmpl	$0, -28(%ebp)
 966 08c8 7417     		je	L40
 114:src/pdf417/PDFReader.c **** 	{
 115:src/pdf417/PDFReader.c **** 		//result = DecodePure(image, characterSet);
 116:src/pdf417/PDFReader.c **** 		//if (res.status() != DecodeStatus::ChecksumError)
 117:src/pdf417/PDFReader.c **** 		return results;
 967              		.loc 1 117 10
 968 08ca 8B4508   		movl	8(%ebp), %eax
 969 08cd 89C3     		movl	%eax, %ebx
 970 08cf 8D4590   		leal	-112(%ebp), %eax
 971 08d2 BA130000 		movl	$19, %edx
 971      00
 972 08d7 89DF     		movl	%ebx, %edi
 973 08d9 89C6     		movl	%eax, %esi
 974 08db 89D1     		movl	%edx, %ecx
 975 08dd F3A5     		rep movsl
 976 08df EB56     		jmp	L39
 977              	L40:
 118:src/pdf417/PDFReader.c **** 		// This falls through and tries the non-pure code path if we have a checksum error. This approach
 119:src/pdf417/PDFReader.c **** 		// currently the best option to deal with 'aliased' input like e.g. 03-aliased.png
 120:src/pdf417/PDFReader.c **** 	}
 121:src/pdf417/PDFReader.c **** 
 122:src/pdf417/PDFReader.c **** 	status = DoDecode(image, 0, &results, characterSet);
 978              		.loc 1 122 11
 979 08e1 8B45E0   		movl	-32(%ebp), %eax
 980 08e4 8944240C 		movl	%eax, 12(%esp)
 981 08e8 8D4590   		leal	-112(%ebp), %eax
 982 08eb 89442408 		movl	%eax, 8(%esp)
 983 08ef C7442404 		movl	$0, 4(%esp)
 983      00000000 
 984 08f7 8B450C   		movl	12(%ebp), %eax
 985 08fa 890424   		movl	%eax, (%esp)
 986 08fd E851FCFF 		call	_DoDecode
 986      FF
 987 0902 8945DC   		movl	%eax, -36(%ebp)
 123:src/pdf417/PDFReader.c **** 
 124:src/pdf417/PDFReader.c **** 	if (StatusIsOK(status)) 
 988              		.loc 1 124 5
 989 0905 837DDC00 		cmpl	$0, -36(%ebp)
 990 0909 7517     		jne	L42
 125:src/pdf417/PDFReader.c **** 	{
 126:src/pdf417/PDFReader.c **** 		return results;
 991              		.loc 1 126 10
 992 090b 8B4508   		movl	8(%ebp), %eax
 993 090e 89C3     		movl	%eax, %ebx
 994 0910 8D4590   		leal	-112(%ebp), %eax
 995 0913 BA130000 		movl	$19, %edx
 995      00
 996 0918 89DF     		movl	%ebx, %edi
 997 091a 89C6     		movl	%eax, %esi
 998 091c 89D1     		movl	%edx, %ecx
 999 091e F3A5     		rep movsl
 1000 0920 EB15     		jmp	L39
 1001              	L42:
 127:src/pdf417/PDFReader.c **** 	}
GAS LISTING C:\Users\jisu8\AppData\Local\Temp\ccAhT7z4.s 			page 23


 128:src/pdf417/PDFReader.c **** 
 129:src/pdf417/PDFReader.c **** 	return results;
 1002              		.loc 1 129 9
 1003 0922 8B4508   		movl	8(%ebp), %eax
 1004 0925 89C3     		movl	%eax, %ebx
 1005 0927 8D4590   		leal	-112(%ebp), %eax
 1006 092a BA130000 		movl	$19, %edx
 1006      00
 1007 092f 89DF     		movl	%ebx, %edi
 1008 0931 89C6     		movl	%eax, %esi
 1009 0933 89D1     		movl	%edx, %ecx
 1010 0935 F3A5     		rep movsl
 1011              	L39:
 130:src/pdf417/PDFReader.c **** }
 1012              		.loc 1 130 1
 1013 0937 8B4508   		movl	8(%ebp), %eax
 1014 093a 83C47C   		addl	$124, %esp
 1015 093d 5B       		popl	%ebx
 1016              		.cfi_restore 3
 1017 093e 5E       		popl	%esi
 1018              		.cfi_restore 6
 1019 093f 5F       		popl	%edi
 1020              		.cfi_restore 7
 1021 0940 5D       		popl	%ebp
 1022              	LCFI17:
 1023              		.cfi_restore 5
 1024              		.cfi_def_cfa 4, 4
 1025 0941 C3       		ret
 1026              		.cfi_endproc
 1027              	LFE21:
 1028              	Letext0:
 1029              		.file 2 "D:/3.tools/mingw/mingw32/i686-w64-mingw32/include/crtdefs.h"
 1030              		.file 3 "D:/3.tools/mingw/mingw32/i686-w64-mingw32/include/stdint.h"
 1031              		.file 4 "D:/3.tools/mingw/mingw32/i686-w64-mingw32/include/stdio.h"
 1032              		.file 5 "src/DecodeStatus.h"
 1033              		.file 6 "src/BarcodeFormat.h"
 1034              		.file 7 "src/DecodeHints.h"
 1035              		.file 8 "src/GenericLuminanceSource.h"
 1036              		.file 9 "src/ResultPoint.h"
 1037              		.file 10 "src/StructuredAppend.h"
 1038              		.file 11 "src/Result.h"
 1039              		.file 12 "src/BitMatrix.h"
 1040              		.file 13 "src/pdf417/PDFDetector.h"
 1041              		.file 14 "src/pdf417/PDFCodewordDecoder.h"
 1042              		.file 15 "src/DecoderResult.h"
 1043              		.file 16 "src/pdf417/PDFBoundingBox.h"
 1044              		.file 17 "src/pdf417/PDFCodeword.h"
 1045              		.file 18 "src/pdf417/PDFDetectionResultColumn.h"
 1046              		.file 19 "src/pdf417/PDFScanningDecoder.h"
 1047              		.file 20 "D:/3.tools/mingw/mingw32/i686-w64-mingw32/include/stdlib.h"
 1048              		.file 21 "D:/3.tools/mingw/mingw32/i686-w64-mingw32/include/malloc.h"
 1049 0942 9090     		.section	.debug_info,"dr"
 1050              	Ldebug_info0:
 1051 0000 F7100000 		.long	0x10f7
 1052 0004 0200     		.word	0x2
 1053 0006 00000000 		.secrel32	Ldebug_abbrev0
 1054 000a 04       		.byte	0x4
GAS LISTING C:\Users\jisu8\AppData\Local\Temp\ccAhT7z4.s 			page 24


 1055 000b 01       		.uleb128 0x1
 1056 000c 474E5520 		.ascii "GNU C17 8.1.0 -mtune=generic -march=i686 -g -gdwarf-2 -O0\0"
 1056      43313720 
 1056      382E312E 
 1056      30202D6D 
 1056      74756E65 
 1057 0046 0C       		.byte	0xc
 1058 0047 7372632F 		.ascii "src/pdf417/PDFReader.c\0"
 1058      70646634 
 1058      31372F50 
 1058      44465265 
 1058      61646572 
 1059 005e 443A5C31 		.ascii "D:\\1.Project_workspace\\PDF_BARCODE\0"
 1059      2E50726F 
 1059      6A656374 
 1059      5F776F72 
 1059      6B737061 
 1060 0081 00000000 		.long	Ltext0
 1061 0085 42090000 		.long	Letext0
 1062 0089 00000000 		.secrel32	Ldebug_line0
 1063 008d 02       		.uleb128 0x2
 1064 008e 01       		.byte	0x1
 1065 008f 06       		.byte	0x6
 1066 0090 63686172 		.ascii "char\0"
 1066      00
 1067 0095 02       		.uleb128 0x2
 1068 0096 04       		.byte	0x4
 1069 0097 07       		.byte	0x7
 1070 0098 756E7369 		.ascii "unsigned int\0"
 1070      676E6564 
 1070      20696E74 
 1070      00
 1071 00a5 02       		.uleb128 0x2
 1072 00a6 04       		.byte	0x4
 1073 00a7 05       		.byte	0x5
 1074 00a8 696E7400 		.ascii "int\0"
 1075 00ac 03       		.uleb128 0x3
 1076 00ad A5000000 		.long	0xa5
 1077 00b1 04       		.uleb128 0x4
 1078 00b2 77636861 		.ascii "wchar_t\0"
 1078      725F7400 
 1079 00ba 02       		.byte	0x2
 1080 00bb 62       		.byte	0x62
 1081 00bc 18       		.byte	0x18
 1082 00bd C1000000 		.long	0xc1
 1083 00c1 02       		.uleb128 0x2
 1084 00c2 02       		.byte	0x2
 1085 00c3 07       		.byte	0x7
 1086 00c4 73686F72 		.ascii "short unsigned int\0"
 1086      7420756E 
 1086      7369676E 
 1086      65642069 
 1086      6E7400
 1087 00d7 02       		.uleb128 0x2
 1088 00d8 04       		.byte	0x4
 1089 00d9 05       		.byte	0x5
 1090 00da 6C6F6E67 		.ascii "long int\0"
GAS LISTING C:\Users\jisu8\AppData\Local\Temp\ccAhT7z4.s 			page 25


 1090      20696E74 
 1090      00
 1091 00e3 02       		.uleb128 0x2
 1092 00e4 08       		.byte	0x8
 1093 00e5 05       		.byte	0x5
 1094 00e6 6C6F6E67 		.ascii "long long int\0"
 1094      206C6F6E 
 1094      6720696E 
 1094      7400
 1095 00f4 05       		.uleb128 0x5
 1096 00f5 04       		.byte	0x4
 1097 00f6 8D000000 		.long	0x8d
 1098 00fa 05       		.uleb128 0x5
 1099 00fb 04       		.byte	0x4
 1100 00fc B1000000 		.long	0xb1
 1101 0100 05       		.uleb128 0x5
 1102 0101 04       		.byte	0x4
 1103 0102 A5000000 		.long	0xa5
 1104 0106 02       		.uleb128 0x2
 1105 0107 04       		.byte	0x4
 1106 0108 07       		.byte	0x7
 1107 0109 6C6F6E67 		.ascii "long unsigned int\0"
 1107      20756E73 
 1107      69676E65 
 1107      6420696E 
 1107      7400
 1108 011b 02       		.uleb128 0x2
 1109 011c 01       		.byte	0x1
 1110 011d 08       		.byte	0x8
 1111 011e 756E7369 		.ascii "unsigned char\0"
 1111      676E6564 
 1111      20636861 
 1111      7200
 1112 012c 02       		.uleb128 0x2
 1113 012d 0C       		.byte	0xc
 1114 012e 04       		.byte	0x4
 1115 012f 6C6F6E67 		.ascii "long double\0"
 1115      20646F75 
 1115      626C6500 
 1116 013b 02       		.uleb128 0x2
 1117 013c 10       		.byte	0x10
 1118 013d 04       		.byte	0x4
 1119 013e 5F466C6F 		.ascii "_Float128\0"
 1119      61743132 
 1119      3800
 1120 0148 02       		.uleb128 0x2
 1121 0149 01       		.byte	0x1
 1122 014a 06       		.byte	0x6
 1123 014b 7369676E 		.ascii "signed char\0"
 1123      65642063 
 1123      68617200 
 1124 0157 04       		.uleb128 0x4
 1125 0158 75696E74 		.ascii "uint8_t\0"
 1125      385F7400 
 1126 0160 03       		.byte	0x3
 1127 0161 24       		.byte	0x24
 1128 0162 19       		.byte	0x19
GAS LISTING C:\Users\jisu8\AppData\Local\Temp\ccAhT7z4.s 			page 26


 1129 0163 1B010000 		.long	0x11b
 1130 0167 02       		.uleb128 0x2
 1131 0168 02       		.byte	0x2
 1132 0169 05       		.byte	0x5
 1133 016a 73686F72 		.ascii "short int\0"
 1133      7420696E 
 1133      7400
 1134 0174 04       		.uleb128 0x4
 1135 0175 75696E74 		.ascii "uint64_t\0"
 1135      36345F74 
 1135      00
 1136 017e 03       		.byte	0x3
 1137 017f 2A       		.byte	0x2a
 1138 0180 30       		.byte	0x30
 1139 0181 85010000 		.long	0x185
 1140 0185 02       		.uleb128 0x2
 1141 0186 08       		.byte	0x8
 1142 0187 07       		.byte	0x7
 1143 0188 6C6F6E67 		.ascii "long long unsigned int\0"
 1143      206C6F6E 
 1143      6720756E 
 1143      7369676E 
 1143      65642069 
 1144 019f 06       		.uleb128 0x6
 1145 01a0 5F696F62 		.ascii "_iobuf\0"
 1145      756600
 1146 01a7 20       		.byte	0x20
 1147 01a8 04       		.byte	0x4
 1148 01a9 1A       		.byte	0x1a
 1149 01aa 0A       		.byte	0xa
 1150 01ab 3F020000 		.long	0x23f
 1151 01af 07       		.uleb128 0x7
 1152 01b0 5F707472 		.ascii "_ptr\0"
 1152      00
 1153 01b5 04       		.byte	0x4
 1154 01b6 1B       		.byte	0x1b
 1155 01b7 0B       		.byte	0xb
 1156 01b8 F4000000 		.long	0xf4
 1157 01bc 02       		.byte	0x2
 1158 01bd 23       		.byte	0x23
 1159 01be 00       		.uleb128 0
 1160 01bf 07       		.uleb128 0x7
 1161 01c0 5F636E74 		.ascii "_cnt\0"
 1161      00
 1162 01c5 04       		.byte	0x4
 1163 01c6 1C       		.byte	0x1c
 1164 01c7 09       		.byte	0x9
 1165 01c8 A5000000 		.long	0xa5
 1166 01cc 02       		.byte	0x2
 1167 01cd 23       		.byte	0x23
 1168 01ce 04       		.uleb128 0x4
 1169 01cf 07       		.uleb128 0x7
 1170 01d0 5F626173 		.ascii "_base\0"
 1170      6500
 1171 01d6 04       		.byte	0x4
 1172 01d7 1D       		.byte	0x1d
 1173 01d8 0B       		.byte	0xb
GAS LISTING C:\Users\jisu8\AppData\Local\Temp\ccAhT7z4.s 			page 27


 1174 01d9 F4000000 		.long	0xf4
 1175 01dd 02       		.byte	0x2
 1176 01de 23       		.byte	0x23
 1177 01df 08       		.uleb128 0x8
 1178 01e0 07       		.uleb128 0x7
 1179 01e1 5F666C61 		.ascii "_flag\0"
 1179      6700
 1180 01e7 04       		.byte	0x4
 1181 01e8 1E       		.byte	0x1e
 1182 01e9 09       		.byte	0x9
 1183 01ea A5000000 		.long	0xa5
 1184 01ee 02       		.byte	0x2
 1185 01ef 23       		.byte	0x23
 1186 01f0 0C       		.uleb128 0xc
 1187 01f1 07       		.uleb128 0x7
 1188 01f2 5F66696C 		.ascii "_file\0"
 1188      6500
 1189 01f8 04       		.byte	0x4
 1190 01f9 1F       		.byte	0x1f
 1191 01fa 09       		.byte	0x9
 1192 01fb A5000000 		.long	0xa5
 1193 01ff 02       		.byte	0x2
 1194 0200 23       		.byte	0x23
 1195 0201 10       		.uleb128 0x10
 1196 0202 07       		.uleb128 0x7
 1197 0203 5F636861 		.ascii "_charbuf\0"
 1197      72627566 
 1197      00
 1198 020c 04       		.byte	0x4
 1199 020d 20       		.byte	0x20
 1200 020e 09       		.byte	0x9
 1201 020f A5000000 		.long	0xa5
 1202 0213 02       		.byte	0x2
 1203 0214 23       		.byte	0x23
 1204 0215 14       		.uleb128 0x14
 1205 0216 07       		.uleb128 0x7
 1206 0217 5F627566 		.ascii "_bufsiz\0"
 1206      73697A00 
 1207 021f 04       		.byte	0x4
 1208 0220 21       		.byte	0x21
 1209 0221 09       		.byte	0x9
 1210 0222 A5000000 		.long	0xa5
 1211 0226 02       		.byte	0x2
 1212 0227 23       		.byte	0x23
 1213 0228 18       		.uleb128 0x18
 1214 0229 07       		.uleb128 0x7
 1215 022a 5F746D70 		.ascii "_tmpfname\0"
 1215      666E616D 
 1215      6500
 1216 0234 04       		.byte	0x4
 1217 0235 22       		.byte	0x22
 1218 0236 0B       		.byte	0xb
 1219 0237 F4000000 		.long	0xf4
 1220 023b 02       		.byte	0x2
 1221 023c 23       		.byte	0x23
 1222 023d 1C       		.uleb128 0x1c
 1223 023e 00       		.byte	0
GAS LISTING C:\Users\jisu8\AppData\Local\Temp\ccAhT7z4.s 			page 28


 1224 023f 04       		.uleb128 0x4
 1225 0240 46494C45 		.ascii "FILE\0"
 1225      00
 1226 0245 04       		.byte	0x4
 1227 0246 24       		.byte	0x24
 1228 0247 19       		.byte	0x19
 1229 0248 9F010000 		.long	0x19f
 1230 024c 08       		.uleb128 0x8
 1231 024d 3F020000 		.long	0x23f
 1232 0251 57020000 		.long	0x257
 1233 0255 09       		.uleb128 0x9
 1234 0256 00       		.byte	0
 1235 0257 0A       		.uleb128 0xa
 1236 0258 5F696D70 		.ascii "_imp___iob\0"
 1236      5F5F5F69 
 1236      6F6200
 1237 0263 04       		.byte	0x4
 1238 0264 5C       		.byte	0x5c
 1239 0265 10       		.byte	0x10
 1240 0266 6C020000 		.long	0x26c
 1241 026a 01       		.byte	0x1
 1242 026b 01       		.byte	0x1
 1243 026c 05       		.uleb128 0x5
 1244 026d 04       		.byte	0x4
 1245 026e 4C020000 		.long	0x24c
 1246 0272 0B       		.uleb128 0xb
 1247 0273 07       		.byte	0x7
 1248 0274 04       		.byte	0x4
 1249 0275 95000000 		.long	0x95
 1250 0279 05       		.byte	0x5
 1251 027a 04       		.byte	0x4
 1252 027b 01       		.byte	0x1
 1253 027c B4020000 		.long	0x2b4
 1254 0280 0C       		.uleb128 0xc
 1255 0281 4E6F4572 		.ascii "NoError\0"
 1255      726F7200 
 1256 0289 00       		.byte	0
 1257 028a 0C       		.uleb128 0xc
 1258 028b 4E6F7446 		.ascii "NotFound\0"
 1258      6F756E64 
 1258      00
 1259 0294 01       		.byte	0x1
 1260 0295 0C       		.uleb128 0xc
 1261 0296 466F726D 		.ascii "FormatError\0"
 1261      61744572 
 1261      726F7200 
 1262 02a2 02       		.byte	0x2
 1263 02a3 0C       		.uleb128 0xc
 1264 02a4 43686563 		.ascii "ChecksumError\0"
 1264      6B73756D 
 1264      4572726F 
 1264      7200
 1265 02b2 03       		.byte	0x3
 1266 02b3 00       		.byte	0
 1267 02b4 04       		.uleb128 0x4
 1268 02b5 4465636F 		.ascii "DecodeStatus_t\0"
 1268      64655374 
GAS LISTING C:\Users\jisu8\AppData\Local\Temp\ccAhT7z4.s 			page 29


 1268      61747573 
 1268      5F7400
 1269 02c4 05       		.byte	0x5
 1270 02c5 09       		.byte	0x9
 1271 02c6 02       		.byte	0x2
 1272 02c7 72020000 		.long	0x272
 1273 02cb 0B       		.uleb128 0xb
 1274 02cc 07       		.byte	0x7
 1275 02cd 04       		.byte	0x4
 1276 02ce 95000000 		.long	0x95
 1277 02d2 06       		.byte	0x6
 1278 02d3 07       		.byte	0x7
 1279 02d4 01       		.byte	0x1
 1280 02d5 A1030000 		.long	0x3a1
 1281 02d9 0C       		.uleb128 0xc
 1282 02da 4E4F4E45 		.ascii "NONE\0"
 1282      00
 1283 02df 00       		.byte	0
 1284 02e0 0C       		.uleb128 0xc
 1285 02e1 417A7465 		.ascii "Aztec\0"
 1285      6300
 1286 02e7 01       		.byte	0x1
 1287 02e8 0C       		.uleb128 0xc
 1288 02e9 436F6461 		.ascii "Codabar\0"
 1288      62617200 
 1289 02f1 02       		.byte	0x2
 1290 02f2 0C       		.uleb128 0xc
 1291 02f3 436F6465 		.ascii "Code39\0"
 1291      333900
 1292 02fa 04       		.byte	0x4
 1293 02fb 0C       		.uleb128 0xc
 1294 02fc 436F6465 		.ascii "Code93\0"
 1294      393300
 1295 0303 08       		.byte	0x8
 1296 0304 0C       		.uleb128 0xc
 1297 0305 436F6465 		.ascii "Code128\0"
 1297      31323800 
 1298 030d 10       		.byte	0x10
 1299 030e 0C       		.uleb128 0xc
 1300 030f 44617461 		.ascii "DataBar\0"
 1300      42617200 
 1301 0317 20       		.byte	0x20
 1302 0318 0C       		.uleb128 0xc
 1303 0319 44617461 		.ascii "DataBarExpanded\0"
 1303      42617245 
 1303      7870616E 
 1303      64656400 
 1304 0329 40       		.byte	0x40
 1305 032a 0C       		.uleb128 0xc
 1306 032b 44617461 		.ascii "DataMatrix\0"
 1306      4D617472 
 1306      697800
 1307 0336 80       		.byte	0x80
 1308 0337 0D       		.uleb128 0xd
 1309 0338 45414E38 		.ascii "EAN8\0"
 1309      00
 1310 033d 0001     		.word	0x100
GAS LISTING C:\Users\jisu8\AppData\Local\Temp\ccAhT7z4.s 			page 30


 1311 033f 0D       		.uleb128 0xd
 1312 0340 45414E31 		.ascii "EAN13\0"
 1312      3300
 1313 0346 0002     		.word	0x200
 1314 0348 0D       		.uleb128 0xd
 1315 0349 49544600 		.ascii "ITF\0"
 1316 034d 0004     		.word	0x400
 1317 034f 0D       		.uleb128 0xd
 1318 0350 4D617869 		.ascii "MaxiCode\0"
 1318      436F6465 
 1318      00
 1319 0359 0008     		.word	0x800
 1320 035b 0D       		.uleb128 0xd
 1321 035c 50444634 		.ascii "PDF417\0"
 1321      313700
 1322 0363 0010     		.word	0x1000
 1323 0365 0D       		.uleb128 0xd
 1324 0366 5152436F 		.ascii "QRCode\0"
 1324      646500
 1325 036d 0020     		.word	0x2000
 1326 036f 0D       		.uleb128 0xd
 1327 0370 55504341 		.ascii "UPCA\0"
 1327      00
 1328 0375 0040     		.word	0x4000
 1329 0377 0D       		.uleb128 0xd
 1330 0378 55504345 		.ascii "UPCE\0"
 1330      00
 1331 037d 0080     		.word	0x8000
 1332 037f 0D       		.uleb128 0xd
 1333 0380 4F6E6544 		.ascii "OneDCodes\0"
 1333      436F6465 
 1333      7300
 1334 038a 7EC7     		.word	0xc77e
 1335 038c 0D       		.uleb128 0xd
 1336 038d 54776F44 		.ascii "TwoDCodes\0"
 1336      436F6465 
 1336      7300
 1337 0397 8138     		.word	0x3881
 1338 0399 0D       		.uleb128 0xd
 1339 039a 416E7900 		.ascii "Any\0"
 1340 039e FFFF     		.word	0xffff
 1341 03a0 00       		.byte	0
 1342 03a1 04       		.uleb128 0x4
 1343 03a2 42617263 		.ascii "BarcodeFormats_t\0"
 1343      6F646546 
 1343      6F726D61 
 1343      74735F74 
 1343      00
 1344 03b3 06       		.byte	0x6
 1345 03b4 20       		.byte	0x20
 1346 03b5 02       		.byte	0x2
 1347 03b6 CB020000 		.long	0x2cb
 1348 03ba 0B       		.uleb128 0xb
 1349 03bb 07       		.byte	0x7
 1350 03bc 04       		.byte	0x4
 1351 03bd 95000000 		.long	0x95
 1352 03c1 07       		.byte	0x7
GAS LISTING C:\Users\jisu8\AppData\Local\Temp\ccAhT7z4.s 			page 31


 1353 03c2 08       		.byte	0x8
 1354 03c3 01       		.byte	0x1
 1355 03c4 EA030000 		.long	0x3ea
 1356 03c8 0C       		.uleb128 0xc
 1357 03c9 4C6F6361 		.ascii "LocalAverage\0"
 1357      6C417665 
 1357      72616765 
 1357      00
 1358 03d6 00       		.byte	0
 1359 03d7 0C       		.uleb128 0xc
 1360 03d8 476C6F62 		.ascii "GlobalHistogram\0"
 1360      616C4869 
 1360      73746F67 
 1360      72616D00 
 1361 03e8 01       		.byte	0x1
 1362 03e9 00       		.byte	0
 1363 03ea 04       		.uleb128 0x4
 1364 03eb 42696E61 		.ascii "Binarizer_t\0"
 1364      72697A65 
 1364      725F7400 
 1365 03f7 07       		.byte	0x7
 1366 03f8 0B       		.byte	0xb
 1367 03f9 02       		.byte	0x2
 1368 03fa BA030000 		.long	0x3ba
 1369 03fe 06       		.uleb128 0x6
 1370 03ff 4465636F 		.ascii "DecodeHints\0"
 1370      64654869 
 1370      6E747300 
 1371 040b 14       		.byte	0x14
 1372 040c 07       		.byte	0x7
 1373 040d 0D       		.byte	0xd
 1374 040e 10       		.byte	0x10
 1375 040f C2040000 		.long	0x4c2
 1376 0413 07       		.uleb128 0x7
 1377 0414 74727948 		.ascii "tryHarder\0"
 1377      61726465 
 1377      7200
 1378 041e 07       		.byte	0x7
 1379 041f 0F       		.byte	0xf
 1380 0420 0A       		.byte	0xa
 1381 0421 57010000 		.long	0x157
 1382 0425 02       		.byte	0x2
 1383 0426 23       		.byte	0x23
 1384 0427 00       		.uleb128 0
 1385 0428 07       		.uleb128 0x7
 1386 0429 74727952 		.ascii "tryRotate\0"
 1386      6F746174 
 1386      6500
 1387 0433 07       		.byte	0x7
 1388 0434 10       		.byte	0x10
 1389 0435 0A       		.byte	0xa
 1390 0436 57010000 		.long	0x157
 1391 043a 02       		.byte	0x2
 1392 043b 23       		.byte	0x23
 1393 043c 01       		.uleb128 0x1
 1394 043d 07       		.uleb128 0x7
 1395 043e 69735075 		.ascii "isPure\0"
GAS LISTING C:\Users\jisu8\AppData\Local\Temp\ccAhT7z4.s 			page 32


 1395      726500
 1396 0445 07       		.byte	0x7
 1397 0446 11       		.byte	0x11
 1398 0447 0A       		.byte	0xa
 1399 0448 57010000 		.long	0x157
 1400 044c 02       		.byte	0x2
 1401 044d 23       		.byte	0x23
 1402 044e 02       		.uleb128 0x2
 1403 044f 07       		.uleb128 0x7
 1404 0450 72657475 		.ascii "returnCodabarStartEnd\0"
 1404      726E436F 
 1404      64616261 
 1404      72537461 
 1404      7274456E 
 1405 0466 07       		.byte	0x7
 1406 0467 12       		.byte	0x12
 1407 0468 0A       		.byte	0xa
 1408 0469 57010000 		.long	0x157
 1409 046d 02       		.byte	0x2
 1410 046e 23       		.byte	0x23
 1411 046f 03       		.uleb128 0x3
 1412 0470 07       		.uleb128 0x7
 1413 0471 42696E61 		.ascii "Binarizer\0"
 1413      72697A65 
 1413      7200
 1414 047b 07       		.byte	0x7
 1415 047c 13       		.byte	0x13
 1416 047d 0E       		.byte	0xe
 1417 047e EA030000 		.long	0x3ea
 1418 0482 02       		.byte	0x2
 1419 0483 23       		.byte	0x23
 1420 0484 04       		.uleb128 0x4
 1421 0485 07       		.uleb128 0x7
 1422 0486 666F726D 		.ascii "formats\0"
 1422      61747300 
 1423 048e 07       		.byte	0x7
 1424 048f 14       		.byte	0x14
 1425 0490 13       		.byte	0x13
 1426 0491 A1030000 		.long	0x3a1
 1427 0495 02       		.byte	0x2
 1428 0496 23       		.byte	0x23
 1429 0497 08       		.uleb128 0x8
 1430 0498 0E       		.uleb128 0xe
 1431 0499 07000000 		.secrel32	LASF0
 1432 049d 07       		.byte	0x7
 1433 049e 15       		.byte	0x15
 1434 049f 0D       		.byte	0xd
 1435 04a0 C2040000 		.long	0x4c2
 1436 04a4 02       		.byte	0x2
 1437 04a5 23       		.byte	0x23
 1438 04a6 0C       		.uleb128 0xc
 1439 04a7 07       		.uleb128 0x7
 1440 04a8 616C6C6F 		.ascii "allowedLengths\0"
 1440      7765644C 
 1440      656E6774 
 1440      687300
 1441 04b7 07       		.byte	0x7
GAS LISTING C:\Users\jisu8\AppData\Local\Temp\ccAhT7z4.s 			page 33


 1442 04b8 16       		.byte	0x16
 1443 04b9 0D       		.byte	0xd
 1444 04ba C2040000 		.long	0x4c2
 1445 04be 02       		.byte	0x2
 1446 04bf 23       		.byte	0x23
 1447 04c0 10       		.uleb128 0x10
 1448 04c1 00       		.byte	0
 1449 04c2 05       		.uleb128 0x5
 1450 04c3 04       		.byte	0x4
 1451 04c4 74010000 		.long	0x174
 1452 04c8 04       		.uleb128 0x4
 1453 04c9 4465636F 		.ascii "DecodeHints_t\0"
 1453      64654869 
 1453      6E74735F 
 1453      7400
 1454 04d7 07       		.byte	0x7
 1455 04d8 17       		.byte	0x17
 1456 04d9 02       		.byte	0x2
 1457 04da FE030000 		.long	0x3fe
 1458 04de 0F       		.uleb128 0xf
 1459 04df 18       		.byte	0x18
 1460 04e0 08       		.byte	0x8
 1461 04e1 06       		.byte	0x6
 1462 04e2 09       		.byte	0x9
 1463 04e3 50050000 		.long	0x550
 1464 04e7 07       		.uleb128 0x7
 1465 04e8 70697865 		.ascii "pixels\0"
 1465      6C7300
 1466 04ef 08       		.byte	0x8
 1467 04f0 08       		.byte	0x8
 1468 04f1 15       		.byte	0x15
 1469 04f2 50050000 		.long	0x550
 1470 04f6 02       		.byte	0x2
 1471 04f7 23       		.byte	0x23
 1472 04f8 00       		.uleb128 0
 1473 04f9 07       		.uleb128 0x7
 1474 04fa 6C656674 		.ascii "left\0"
 1474      00
 1475 04ff 08       		.byte	0x8
 1476 0500 09       		.byte	0x9
 1477 0501 09       		.byte	0x9
 1478 0502 A5000000 		.long	0xa5
 1479 0506 02       		.byte	0x2
 1480 0507 23       		.byte	0x23
 1481 0508 04       		.uleb128 0x4
 1482 0509 07       		.uleb128 0x7
 1483 050a 746F7000 		.ascii "top\0"
 1484 050e 08       		.byte	0x8
 1485 050f 0A       		.byte	0xa
 1486 0510 09       		.byte	0x9
 1487 0511 A5000000 		.long	0xa5
 1488 0515 02       		.byte	0x2
 1489 0516 23       		.byte	0x23
 1490 0517 08       		.uleb128 0x8
 1491 0518 07       		.uleb128 0x7
 1492 0519 77696474 		.ascii "width\0"
 1492      6800
GAS LISTING C:\Users\jisu8\AppData\Local\Temp\ccAhT7z4.s 			page 34


 1493 051f 08       		.byte	0x8
 1494 0520 0B       		.byte	0xb
 1495 0521 09       		.byte	0x9
 1496 0522 A5000000 		.long	0xa5
 1497 0526 02       		.byte	0x2
 1498 0527 23       		.byte	0x23
 1499 0528 0C       		.uleb128 0xc
 1500 0529 07       		.uleb128 0x7
 1501 052a 68656967 		.ascii "height\0"
 1501      687400
 1502 0531 08       		.byte	0x8
 1503 0532 0C       		.byte	0xc
 1504 0533 09       		.byte	0x9
 1505 0534 A5000000 		.long	0xa5
 1506 0538 02       		.byte	0x2
 1507 0539 23       		.byte	0x23
 1508 053a 10       		.uleb128 0x10
 1509 053b 07       		.uleb128 0x7
 1510 053c 726F7742 		.ascii "rowBytes\0"
 1510      79746573 
 1510      00
 1511 0545 08       		.byte	0x8
 1512 0546 0D       		.byte	0xd
 1513 0547 09       		.byte	0x9
 1514 0548 A5000000 		.long	0xa5
 1515 054c 02       		.byte	0x2
 1516 054d 23       		.byte	0x23
 1517 054e 14       		.uleb128 0x14
 1518 054f 00       		.byte	0
 1519 0550 05       		.uleb128 0x5
 1520 0551 04       		.byte	0x4
 1521 0552 1B010000 		.long	0x11b
 1522 0556 04       		.uleb128 0x4
 1523 0557 47656E65 		.ascii "GenericLuminanceSource_t\0"
 1523      7269634C 
 1523      756D696E 
 1523      616E6365 
 1523      536F7572 
 1524 0570 08       		.byte	0x8
 1525 0571 0E       		.byte	0xe
 1526 0572 02       		.byte	0x2
 1527 0573 DE040000 		.long	0x4de
 1528 0577 0F       		.uleb128 0xf
 1529 0578 08       		.byte	0x8
 1530 0579 09       		.byte	0x9
 1531 057a 14       		.byte	0x14
 1532 057b 09       		.byte	0x9
 1533 057c 9B050000 		.long	0x59b
 1534 0580 07       		.uleb128 0x7
 1535 0581 7800     		.ascii "x\0"
 1536 0583 09       		.byte	0x9
 1537 0584 16       		.byte	0x16
 1538 0585 08       		.byte	0x8
 1539 0586 9B050000 		.long	0x59b
 1540 058a 02       		.byte	0x2
 1541 058b 23       		.byte	0x23
 1542 058c 00       		.uleb128 0
GAS LISTING C:\Users\jisu8\AppData\Local\Temp\ccAhT7z4.s 			page 35


 1543 058d 07       		.uleb128 0x7
 1544 058e 7900     		.ascii "y\0"
 1545 0590 09       		.byte	0x9
 1546 0591 17       		.byte	0x17
 1547 0592 08       		.byte	0x8
 1548 0593 9B050000 		.long	0x59b
 1549 0597 02       		.byte	0x2
 1550 0598 23       		.byte	0x23
 1551 0599 04       		.uleb128 0x4
 1552 059a 00       		.byte	0
 1553 059b 02       		.uleb128 0x2
 1554 059c 04       		.byte	0x4
 1555 059d 04       		.byte	0x4
 1556 059e 666C6F61 		.ascii "float\0"
 1556      7400
 1557 05a4 04       		.uleb128 0x4
 1558 05a5 506F696E 		.ascii "PointT_t\0"
 1558      74545F74 
 1558      00
 1559 05ae 09       		.byte	0x9
 1560 05af 18       		.byte	0x18
 1561 05b0 02       		.byte	0x2
 1562 05b1 77050000 		.long	0x577
 1563 05b5 0F       		.uleb128 0xf
 1564 05b6 08       		.byte	0x8
 1565 05b7 09       		.byte	0x9
 1566 05b8 19       		.byte	0x19
 1567 05b9 09       		.byte	0x9
 1568 05ba D9050000 		.long	0x5d9
 1569 05be 07       		.uleb128 0x7
 1570 05bf 7800     		.ascii "x\0"
 1571 05c1 09       		.byte	0x9
 1572 05c2 1B       		.byte	0x1b
 1573 05c3 06       		.byte	0x6
 1574 05c4 A5000000 		.long	0xa5
 1575 05c8 02       		.byte	0x2
 1576 05c9 23       		.byte	0x23
 1577 05ca 00       		.uleb128 0
 1578 05cb 07       		.uleb128 0x7
 1579 05cc 7900     		.ascii "y\0"
 1580 05ce 09       		.byte	0x9
 1581 05cf 1C       		.byte	0x1c
 1582 05d0 06       		.byte	0x6
 1583 05d1 A5000000 		.long	0xa5
 1584 05d5 02       		.byte	0x2
 1585 05d6 23       		.byte	0x23
 1586 05d7 04       		.uleb128 0x4
 1587 05d8 00       		.byte	0
 1588 05d9 04       		.uleb128 0x4
 1589 05da 506F696E 		.ascii "PointI_t\0"
 1589      74495F74 
 1589      00
 1590 05e3 09       		.byte	0x9
 1591 05e4 1D       		.byte	0x1d
 1592 05e5 02       		.byte	0x2
 1593 05e6 B5050000 		.long	0x5b5
 1594 05ea 02       		.uleb128 0x2
GAS LISTING C:\Users\jisu8\AppData\Local\Temp\ccAhT7z4.s 			page 36


 1595 05eb 08       		.byte	0x8
 1596 05ec 04       		.byte	0x4
 1597 05ed 646F7562 		.ascii "double\0"
 1597      6C6500
 1598 05f4 0F       		.uleb128 0xf
 1599 05f5 0C       		.byte	0xc
 1600 05f6 09       		.byte	0x9
 1601 05f7 23       		.byte	0x23
 1602 05f8 09       		.byte	0x9
 1603 05f9 1C060000 		.long	0x61c
 1604 05fd 0E       		.uleb128 0xe
 1605 05fe 33000000 		.secrel32	LASF1
 1606 0602 09       		.byte	0x9
 1607 0603 25       		.byte	0x25
 1608 0604 0A       		.byte	0xa
 1609 0605 57010000 		.long	0x157
 1610 0609 02       		.byte	0x2
 1611 060a 23       		.byte	0x23
 1612 060b 00       		.uleb128 0
 1613 060c 0E       		.uleb128 0xe
 1614 060d 47000000 		.secrel32	LASF2
 1615 0611 09       		.byte	0x9
 1616 0612 26       		.byte	0x26
 1617 0613 0B       		.byte	0xb
 1618 0614 A4050000 		.long	0x5a4
 1619 0618 02       		.byte	0x2
 1620 0619 23       		.byte	0x23
 1621 061a 04       		.uleb128 0x4
 1622 061b 00       		.byte	0
 1623 061c 04       		.uleb128 0x4
 1624 061d 52657375 		.ascii "ResultPoint_t\0"
 1624      6C74506F 
 1624      696E745F 
 1624      7400
 1625 062b 09       		.byte	0x9
 1626 062c 27       		.byte	0x27
 1627 062d 02       		.byte	0x2
 1628 062e F4050000 		.long	0x5f4
 1629 0632 0F       		.uleb128 0xf
 1630 0633 0C       		.byte	0xc
 1631 0634 0A       		.byte	0xa
 1632 0635 04       		.byte	0x4
 1633 0636 09       		.byte	0x9
 1634 0637 6C060000 		.long	0x66c
 1635 063b 07       		.uleb128 0x7
 1636 063c 696E6465 		.ascii "index\0"
 1636      7800
 1637 0642 0A       		.byte	0xa
 1638 0643 06       		.byte	0x6
 1639 0644 06       		.byte	0x6
 1640 0645 A5000000 		.long	0xa5
 1641 0649 02       		.byte	0x2
 1642 064a 23       		.byte	0x23
 1643 064b 00       		.uleb128 0
 1644 064c 07       		.uleb128 0x7
 1645 064d 636F756E 		.ascii "count\0"
 1645      7400
GAS LISTING C:\Users\jisu8\AppData\Local\Temp\ccAhT7z4.s 			page 37


 1646 0653 0A       		.byte	0xa
 1647 0654 07       		.byte	0x7
 1648 0655 06       		.byte	0x6
 1649 0656 A5000000 		.long	0xa5
 1650 065a 02       		.byte	0x2
 1651 065b 23       		.byte	0x23
 1652 065c 04       		.uleb128 0x4
 1653 065d 07       		.uleb128 0x7
 1654 065e 696400   		.ascii "id\0"
 1655 0661 0A       		.byte	0xa
 1656 0662 08       		.byte	0x8
 1657 0663 09       		.byte	0x9
 1658 0664 F4000000 		.long	0xf4
 1659 0668 02       		.byte	0x2
 1660 0669 23       		.byte	0x23
 1661 066a 08       		.uleb128 0x8
 1662 066b 00       		.byte	0
 1663 066c 04       		.uleb128 0x4
 1664 066d 53747275 		.ascii "StructuredAppendInfo_t\0"
 1664      63747572 
 1664      65644170 
 1664      70656E64 
 1664      496E666F 
 1665 0684 0A       		.byte	0xa
 1666 0685 09       		.byte	0x9
 1667 0686 02       		.byte	0x2
 1668 0687 32060000 		.long	0x632
 1669 068b 0F       		.uleb128 0xf
 1670 068c 04       		.byte	0x4
 1671 068d 0B       		.byte	0xb
 1672 068e 0A       		.byte	0xa
 1673 068f 09       		.byte	0x9
 1674 0690 AA060000 		.long	0x6aa
 1675 0694 07       		.uleb128 0x7
 1676 0695 5F636F6E 		.ascii "_contents\0"
 1676      74656E74 
 1676      7300
 1677 069f 0B       		.byte	0xb
 1678 06a0 0C       		.byte	0xc
 1679 06a1 08       		.byte	0x8
 1680 06a2 00010000 		.long	0x100
 1681 06a6 02       		.byte	0x2
 1682 06a7 23       		.byte	0x23
 1683 06a8 00       		.uleb128 0
 1684 06a9 00       		.byte	0
 1685 06aa 04       		.uleb128 0x4
 1686 06ab 52657375 		.ascii "ResultMetadata_t\0"
 1686      6C744D65 
 1686      74616461 
 1686      74615F74 
 1686      00
 1687 06bc 0B       		.byte	0xb
 1688 06bd 0D       		.byte	0xd
 1689 06be 02       		.byte	0x2
 1690 06bf 8B060000 		.long	0x68b
 1691 06c3 0F       		.uleb128 0xf
 1692 06c4 4C       		.byte	0x4c
GAS LISTING C:\Users\jisu8\AppData\Local\Temp\ccAhT7z4.s 			page 38


 1693 06c5 0B       		.byte	0xb
 1694 06c6 0F       		.byte	0xf
 1695 06c7 09       		.byte	0x9
 1696 06c8 7A070000 		.long	0x77a
 1697 06cc 07       		.uleb128 0x7
 1698 06cd 5F737461 		.ascii "_status\0"
 1698      74757300 
 1699 06d5 0B       		.byte	0xb
 1700 06d6 11       		.byte	0x11
 1701 06d7 11       		.byte	0x11
 1702 06d8 B4020000 		.long	0x2b4
 1703 06dc 02       		.byte	0x2
 1704 06dd 23       		.byte	0x23
 1705 06de 00       		.uleb128 0
 1706 06df 07       		.uleb128 0x7
 1707 06e0 5F666F72 		.ascii "_format\0"
 1707      6D617400 
 1708 06e8 0B       		.byte	0xb
 1709 06e9 12       		.byte	0x12
 1710 06ea 13       		.byte	0x13
 1711 06eb A1030000 		.long	0x3a1
 1712 06ef 02       		.byte	0x2
 1713 06f0 23       		.byte	0x23
 1714 06f1 04       		.uleb128 0x4
 1715 06f2 07       		.uleb128 0x7
 1716 06f3 5F746578 		.ascii "_text\0"
 1716      7400
 1717 06f9 0B       		.byte	0xb
 1718 06fa 13       		.byte	0x13
 1719 06fb 12       		.byte	0x12
 1720 06fc 50050000 		.long	0x550
 1721 0700 02       		.byte	0x2
 1722 0701 23       		.byte	0x23
 1723 0702 08       		.uleb128 0x8
 1724 0703 07       		.uleb128 0x7
 1725 0704 5F706F73 		.ascii "_position\0"
 1725      6974696F 
 1725      6E00
 1726 070e 0B       		.byte	0xb
 1727 070f 14       		.byte	0x14
 1728 0710 0B       		.byte	0xb
 1729 0711 7A070000 		.long	0x77a
 1730 0715 02       		.byte	0x2
 1731 0716 23       		.byte	0x23
 1732 0717 0C       		.uleb128 0xc
 1733 0718 0E       		.uleb128 0xe
 1734 0719 14000000 		.secrel32	LASF3
 1735 071d 0B       		.byte	0xb
 1736 071e 15       		.byte	0x15
 1737 071f 0C       		.byte	0xc
 1738 0720 8A070000 		.long	0x78a
 1739 0724 02       		.byte	0x2
 1740 0725 23       		.byte	0x23
 1741 0726 2C       		.uleb128 0x2c
 1742 0727 0E       		.uleb128 0xe
 1743 0728 3E000000 		.secrel32	LASF4
 1744 072c 0B       		.byte	0xb
GAS LISTING C:\Users\jisu8\AppData\Local\Temp\ccAhT7z4.s 			page 39


 1745 072d 16       		.byte	0x16
 1746 072e 06       		.byte	0x6
 1747 072f A5000000 		.long	0xa5
 1748 0733 02       		.byte	0x2
 1749 0734 23       		.byte	0x23
 1750 0735 30       		.uleb128 0x30
 1751 0736 0E       		.uleb128 0xe
 1752 0737 2A000000 		.secrel32	LASF5
 1753 073b 0B       		.byte	0xb
 1754 073c 17       		.byte	0x17
 1755 073d 12       		.byte	0x12
 1756 073e 50050000 		.long	0x550
 1757 0742 02       		.byte	0x2
 1758 0743 23       		.byte	0x23
 1759 0744 34       		.uleb128 0x34
 1760 0745 07       		.uleb128 0x7
 1761 0746 5F6D6574 		.ascii "_metadata\0"
 1761      61646174 
 1761      6100
 1762 0750 0B       		.byte	0xb
 1763 0751 18       		.byte	0x18
 1764 0752 13       		.byte	0x13
 1765 0753 AA060000 		.long	0x6aa
 1766 0757 02       		.byte	0x2
 1767 0758 23       		.byte	0x23
 1768 0759 38       		.uleb128 0x38
 1769 075a 07       		.uleb128 0x7
 1770 075b 5F736169 		.ascii "_sai\0"
 1770      00
 1771 0760 0B       		.byte	0xb
 1772 0761 19       		.byte	0x19
 1773 0762 19       		.byte	0x19
 1774 0763 6C060000 		.long	0x66c
 1775 0767 02       		.byte	0x2
 1776 0768 23       		.byte	0x23
 1777 0769 3C       		.uleb128 0x3c
 1778 076a 0E       		.uleb128 0xe
 1779 076b 1E000000 		.secrel32	LASF6
 1780 076f 0B       		.byte	0xb
 1781 0770 1A       		.byte	0x1a
 1782 0771 0A       		.byte	0xa
 1783 0772 57010000 		.long	0x157
 1784 0776 02       		.byte	0x2
 1785 0777 23       		.byte	0x23
 1786 0778 48       		.uleb128 0x48
 1787 0779 00       		.byte	0
 1788 077a 08       		.uleb128 0x8
 1789 077b D9050000 		.long	0x5d9
 1790 077f 8A070000 		.long	0x78a
 1791 0783 10       		.uleb128 0x10
 1792 0784 95000000 		.long	0x95
 1793 0788 03       		.byte	0x3
 1794 0789 00       		.byte	0
 1795 078a 05       		.uleb128 0x5
 1796 078b 04       		.byte	0x4
 1797 078c 57010000 		.long	0x157
 1798 0790 04       		.uleb128 0x4
GAS LISTING C:\Users\jisu8\AppData\Local\Temp\ccAhT7z4.s 			page 40


 1799 0791 72657375 		.ascii "result_t\0"
 1799      6C745F74 
 1799      00
 1800 079a 0B       		.byte	0xb
 1801 079b 1B       		.byte	0x1b
 1802 079c 02       		.byte	0x2
 1803 079d C3060000 		.long	0x6c3
 1804 07a1 0F       		.uleb128 0xf
 1805 07a2 10       		.byte	0x10
 1806 07a3 0C       		.byte	0xc
 1807 07a4 06       		.byte	0x6
 1808 07a5 09       		.byte	0x9
 1809 07a6 F4070000 		.long	0x7f4
 1810 07aa 07       		.uleb128 0x7
 1811 07ab 5F776964 		.ascii "_width\0"
 1811      746800
 1812 07b2 0C       		.byte	0xc
 1813 07b3 08       		.byte	0x8
 1814 07b4 06       		.byte	0x6
 1815 07b5 A5000000 		.long	0xa5
 1816 07b9 02       		.byte	0x2
 1817 07ba 23       		.byte	0x23
 1818 07bb 00       		.uleb128 0
 1819 07bc 07       		.uleb128 0x7
 1820 07bd 5F686569 		.ascii "_height\0"
 1820      67687400 
 1821 07c5 0C       		.byte	0xc
 1822 07c6 09       		.byte	0x9
 1823 07c7 06       		.byte	0x6
 1824 07c8 A5000000 		.long	0xa5
 1825 07cc 02       		.byte	0x2
 1826 07cd 23       		.byte	0x23
 1827 07ce 04       		.uleb128 0x4
 1828 07cf 07       		.uleb128 0x7
 1829 07d0 5F726F77 		.ascii "_rowSize\0"
 1829      53697A65 
 1829      00
 1830 07d9 0C       		.byte	0xc
 1831 07da 0A       		.byte	0xa
 1832 07db 06       		.byte	0x6
 1833 07dc A5000000 		.long	0xa5
 1834 07e0 02       		.byte	0x2
 1835 07e1 23       		.byte	0x23
 1836 07e2 08       		.uleb128 0x8
 1837 07e3 07       		.uleb128 0x7
 1838 07e4 62697473 		.ascii "bits\0"
 1838      00
 1839 07e9 0C       		.byte	0xc
 1840 07ea 0B       		.byte	0xb
 1841 07eb 0C       		.byte	0xc
 1842 07ec 8A070000 		.long	0x78a
 1843 07f0 02       		.byte	0x2
 1844 07f1 23       		.byte	0x23
 1845 07f2 0C       		.uleb128 0xc
 1846 07f3 00       		.byte	0
 1847 07f4 04       		.uleb128 0x4
 1848 07f5 4269744D 		.ascii "BitMatrix_t\0"
GAS LISTING C:\Users\jisu8\AppData\Local\Temp\ccAhT7z4.s 			page 41


 1848      61747269 
 1848      785F7400 
 1849 0801 0C       		.byte	0xc
 1850 0802 0E       		.byte	0xe
 1851 0803 02       		.byte	0x2
 1852 0804 A1070000 		.long	0x7a1
 1853 0808 0F       		.uleb128 0xf
 1854 0809 08       		.byte	0x8
 1855 080a 0D       		.byte	0xd
 1856 080b 09       		.byte	0x9
 1857 080c 09       		.byte	0x9
 1858 080d 34080000 		.long	0x834
 1859 0811 07       		.uleb128 0x7
 1860 0812 62697473 		.ascii "bits\0"
 1860      00
 1861 0817 0D       		.byte	0xd
 1862 0818 0B       		.byte	0xb
 1863 0819 10       		.byte	0x10
 1864 081a 34080000 		.long	0x834
 1865 081e 02       		.byte	0x2
 1866 081f 23       		.byte	0x23
 1867 0820 00       		.uleb128 0
 1868 0821 07       		.uleb128 0x7
 1869 0822 706F696E 		.ascii "points\0"
 1869      747300
 1870 0829 0D       		.byte	0xd
 1871 082a 0C       		.byte	0xc
 1872 082b 12       		.byte	0x12
 1873 082c 3A080000 		.long	0x83a
 1874 0830 02       		.byte	0x2
 1875 0831 23       		.byte	0x23
 1876 0832 04       		.uleb128 0x4
 1877 0833 00       		.byte	0
 1878 0834 05       		.uleb128 0x5
 1879 0835 04       		.byte	0x4
 1880 0836 F4070000 		.long	0x7f4
 1881 083a 05       		.uleb128 0x5
 1882 083b 04       		.byte	0x4
 1883 083c 1C060000 		.long	0x61c
 1884 0840 04       		.uleb128 0x4
 1885 0841 44657465 		.ascii "Detector_Result_t\0"
 1885      63746F72 
 1885      5F526573 
 1885      756C745F 
 1885      7400
 1886 0853 0D       		.byte	0xd
 1887 0854 0D       		.byte	0xd
 1888 0855 02       		.byte	0x2
 1889 0856 08080000 		.long	0x808
 1890 085a 0A       		.uleb128 0xa
 1891 085b 4D4F4455 		.ascii "MODULES_IN_CODEWORD\0"
 1891      4C45535F 
 1891      494E5F43 
 1891      4F444557 
 1891      4F524400 
 1892 086f 0E       		.byte	0xe
 1893 0870 1D       		.byte	0x1d
GAS LISTING C:\Users\jisu8\AppData\Local\Temp\ccAhT7z4.s 			page 42


 1894 0871 12       		.byte	0x12
 1895 0872 AC000000 		.long	0xac
 1896 0876 01       		.byte	0x1
 1897 0877 01       		.byte	0x1
 1898 0878 0A       		.uleb128 0xa
 1899 0879 42415253 		.ascii "BARS_IN_MODULE\0"
 1899      5F494E5F 
 1899      4D4F4455 
 1899      4C4500
 1900 0888 0E       		.byte	0xe
 1901 0889 1E       		.byte	0x1e
 1902 088a 12       		.byte	0x12
 1903 088b AC000000 		.long	0xac
 1904 088f 01       		.byte	0x1
 1905 0890 01       		.byte	0x1
 1906 0891 0A       		.uleb128 0xa
 1907 0892 4D41585F 		.ascii "MAX_CODEWORDS_IN_BARCODE\0"
 1907      434F4445 
 1907      574F5244 
 1907      535F494E 
 1907      5F424152 
 1908 08ab 0E       		.byte	0xe
 1909 08ac 1F       		.byte	0x1f
 1910 08ad 12       		.byte	0x12
 1911 08ae AC000000 		.long	0xac
 1912 08b2 01       		.byte	0x1
 1913 08b3 01       		.byte	0x1
 1914 08b4 0F       		.uleb128 0xf
 1915 08b5 30       		.byte	0x30
 1916 08b6 0F       		.byte	0xf
 1917 08b7 06       		.byte	0x6
 1918 08b8 09       		.byte	0x9
 1919 08b9 7A090000 		.long	0x97a
 1920 08bd 0E       		.uleb128 0xe
 1921 08be 00000000 		.secrel32	LASF7
 1922 08c2 0F       		.byte	0xf
 1923 08c3 08       		.byte	0x8
 1924 08c4 11       		.byte	0x11
 1925 08c5 B4020000 		.long	0x2b4
 1926 08c9 02       		.byte	0x2
 1927 08ca 23       		.byte	0x23
 1928 08cb 00       		.uleb128 0
 1929 08cc 0E       		.uleb128 0xe
 1930 08cd 14000000 		.secrel32	LASF3
 1931 08d1 0F       		.byte	0xf
 1932 08d2 09       		.byte	0x9
 1933 08d3 0C       		.byte	0xc
 1934 08d4 8A070000 		.long	0x78a
 1935 08d8 02       		.byte	0x2
 1936 08d9 23       		.byte	0x23
 1937 08da 04       		.uleb128 0x4
 1938 08db 0E       		.uleb128 0xe
 1939 08dc 3E000000 		.secrel32	LASF4
 1940 08e0 0F       		.byte	0xf
 1941 08e1 0A       		.byte	0xa
 1942 08e2 06       		.byte	0x6
 1943 08e3 A5000000 		.long	0xa5
GAS LISTING C:\Users\jisu8\AppData\Local\Temp\ccAhT7z4.s 			page 43


 1944 08e7 02       		.byte	0x2
 1945 08e8 23       		.byte	0x23
 1946 08e9 08       		.uleb128 0x8
 1947 08ea 07       		.uleb128 0x7
 1948 08eb 5F746578 		.ascii "_text\0"
 1948      7400
 1949 08f1 0F       		.byte	0xf
 1950 08f2 0B       		.byte	0xb
 1951 08f3 12       		.byte	0x12
 1952 08f4 50050000 		.long	0x550
 1953 08f8 02       		.byte	0x2
 1954 08f9 23       		.byte	0x23
 1955 08fa 0C       		.uleb128 0xc
 1956 08fb 0E       		.uleb128 0xe
 1957 08fc 2A000000 		.secrel32	LASF5
 1958 0900 0F       		.byte	0xf
 1959 0901 0C       		.byte	0xc
 1960 0902 12       		.byte	0x12
 1961 0903 50050000 		.long	0x550
 1962 0907 02       		.byte	0x2
 1963 0908 23       		.byte	0x23
 1964 0909 10       		.uleb128 0x10
 1965 090a 07       		.uleb128 0x7
 1966 090b 5F657272 		.ascii "_errorsCorrected\0"
 1966      6F727343 
 1966      6F727265 
 1966      63746564 
 1966      00
 1967 091c 0F       		.byte	0xf
 1968 091d 0D       		.byte	0xd
 1969 091e 06       		.byte	0x6
 1970 091f A5000000 		.long	0xa5
 1971 0923 02       		.byte	0x2
 1972 0924 23       		.byte	0x23
 1973 0925 14       		.uleb128 0x14
 1974 0926 07       		.uleb128 0x7
 1975 0927 5F657261 		.ascii "_erasures\0"
 1975      73757265 
 1975      7300
 1976 0931 0F       		.byte	0xf
 1977 0932 0E       		.byte	0xe
 1978 0933 06       		.byte	0x6
 1979 0934 A5000000 		.long	0xa5
 1980 0938 02       		.byte	0x2
 1981 0939 23       		.byte	0x23
 1982 093a 18       		.uleb128 0x18
 1983 093b 07       		.uleb128 0x7
 1984 093c 5F737472 		.ascii "_structuredAppend\0"
 1984      75637475 
 1984      72656441 
 1984      7070656E 
 1984      6400
 1985 094e 0F       		.byte	0xf
 1986 094f 0F       		.byte	0xf
 1987 0950 19       		.byte	0x19
 1988 0951 6C060000 		.long	0x66c
 1989 0955 02       		.byte	0x2
GAS LISTING C:\Users\jisu8\AppData\Local\Temp\ccAhT7z4.s 			page 44


 1990 0956 23       		.byte	0x23
 1991 0957 1C       		.uleb128 0x1c
 1992 0958 0E       		.uleb128 0xe
 1993 0959 1E000000 		.secrel32	LASF6
 1994 095d 0F       		.byte	0xf
 1995 095e 10       		.byte	0x10
 1996 095f 0A       		.byte	0xa
 1997 0960 57010000 		.long	0x157
 1998 0964 02       		.byte	0x2
 1999 0965 23       		.byte	0x23
 2000 0966 28       		.uleb128 0x28
 2001 0967 07       		.uleb128 0x7
 2002 0968 5F657874 		.ascii "_extra\0"
 2002      726100
 2003 096f 0F       		.byte	0xf
 2004 0970 11       		.byte	0x11
 2005 0971 0C       		.byte	0xc
 2006 0972 8A070000 		.long	0x78a
 2007 0976 02       		.byte	0x2
 2008 0977 23       		.byte	0x23
 2009 0978 2C       		.uleb128 0x2c
 2010 0979 00       		.byte	0
 2011 097a 04       		.uleb128 0x4
 2012 097b 4465636F 		.ascii "DecoderResult_t\0"
 2012      64657252 
 2012      6573756C 
 2012      745F7400 
 2013 098b 0F       		.byte	0xf
 2014 098c 12       		.byte	0x12
 2015 098d 02       		.byte	0x2
 2016 098e B4080000 		.long	0x8b4
 2017 0992 0F       		.uleb128 0xf
 2018 0993 48       		.byte	0x48
 2019 0994 10       		.byte	0x10
 2020 0995 06       		.byte	0x6
 2021 0996 09       		.byte	0x9
 2022 0997 630A0000 		.long	0xa63
 2023 099b 07       		.uleb128 0x7
 2024 099c 5F696D67 		.ascii "_imgWidth\0"
 2024      57696474 
 2024      6800
 2025 09a6 10       		.byte	0x10
 2026 09a7 08       		.byte	0x8
 2027 09a8 06       		.byte	0x6
 2028 09a9 A5000000 		.long	0xa5
 2029 09ad 02       		.byte	0x2
 2030 09ae 23       		.byte	0x23
 2031 09af 00       		.uleb128 0
 2032 09b0 07       		.uleb128 0x7
 2033 09b1 5F696D67 		.ascii "_imgHeight\0"
 2033      48656967 
 2033      687400
 2034 09bc 10       		.byte	0x10
 2035 09bd 09       		.byte	0x9
 2036 09be 06       		.byte	0x6
 2037 09bf A5000000 		.long	0xa5
 2038 09c3 02       		.byte	0x2
GAS LISTING C:\Users\jisu8\AppData\Local\Temp\ccAhT7z4.s 			page 45


 2039 09c4 23       		.byte	0x23
 2040 09c5 04       		.uleb128 0x4
 2041 09c6 07       		.uleb128 0x7
 2042 09c7 5F746F70 		.ascii "_topLeft\0"
 2042      4C656674 
 2042      00
 2043 09d0 10       		.byte	0x10
 2044 09d1 0A       		.byte	0xa
 2045 09d2 10       		.byte	0x10
 2046 09d3 1C060000 		.long	0x61c
 2047 09d7 02       		.byte	0x2
 2048 09d8 23       		.byte	0x23
 2049 09d9 08       		.uleb128 0x8
 2050 09da 07       		.uleb128 0x7
 2051 09db 5F626F74 		.ascii "_bottomLeft\0"
 2051      746F6D4C 
 2051      65667400 
 2052 09e7 10       		.byte	0x10
 2053 09e8 0B       		.byte	0xb
 2054 09e9 10       		.byte	0x10
 2055 09ea 1C060000 		.long	0x61c
 2056 09ee 02       		.byte	0x2
 2057 09ef 23       		.byte	0x23
 2058 09f0 14       		.uleb128 0x14
 2059 09f1 07       		.uleb128 0x7
 2060 09f2 5F746F70 		.ascii "_topRight\0"
 2060      52696768 
 2060      7400
 2061 09fc 10       		.byte	0x10
 2062 09fd 0C       		.byte	0xc
 2063 09fe 10       		.byte	0x10
 2064 09ff 1C060000 		.long	0x61c
 2065 0a03 02       		.byte	0x2
 2066 0a04 23       		.byte	0x23
 2067 0a05 20       		.uleb128 0x20
 2068 0a06 07       		.uleb128 0x7
 2069 0a07 5F626F74 		.ascii "_bottomRight\0"
 2069      746F6D52 
 2069      69676874 
 2069      00
 2070 0a14 10       		.byte	0x10
 2071 0a15 0D       		.byte	0xd
 2072 0a16 10       		.byte	0x10
 2073 0a17 1C060000 		.long	0x61c
 2074 0a1b 02       		.byte	0x2
 2075 0a1c 23       		.byte	0x23
 2076 0a1d 2C       		.uleb128 0x2c
 2077 0a1e 07       		.uleb128 0x7
 2078 0a1f 5F6D696E 		.ascii "_minX\0"
 2078      5800
 2079 0a25 10       		.byte	0x10
 2080 0a26 0E       		.byte	0xe
 2081 0a27 06       		.byte	0x6
 2082 0a28 A5000000 		.long	0xa5
 2083 0a2c 02       		.byte	0x2
 2084 0a2d 23       		.byte	0x23
 2085 0a2e 38       		.uleb128 0x38
GAS LISTING C:\Users\jisu8\AppData\Local\Temp\ccAhT7z4.s 			page 46


 2086 0a2f 07       		.uleb128 0x7
 2087 0a30 5F6D6178 		.ascii "_maxX\0"
 2087      5800
 2088 0a36 10       		.byte	0x10
 2089 0a37 0F       		.byte	0xf
 2090 0a38 06       		.byte	0x6
 2091 0a39 A5000000 		.long	0xa5
 2092 0a3d 02       		.byte	0x2
 2093 0a3e 23       		.byte	0x23
 2094 0a3f 3C       		.uleb128 0x3c
 2095 0a40 07       		.uleb128 0x7
 2096 0a41 5F6D696E 		.ascii "_minY\0"
 2096      5900
 2097 0a47 10       		.byte	0x10
 2098 0a48 10       		.byte	0x10
 2099 0a49 06       		.byte	0x6
 2100 0a4a A5000000 		.long	0xa5
 2101 0a4e 02       		.byte	0x2
 2102 0a4f 23       		.byte	0x23
 2103 0a50 40       		.uleb128 0x40
 2104 0a51 07       		.uleb128 0x7
 2105 0a52 5F6D6178 		.ascii "_maxY\0"
 2105      5900
 2106 0a58 10       		.byte	0x10
 2107 0a59 11       		.byte	0x11
 2108 0a5a 06       		.byte	0x6
 2109 0a5b A5000000 		.long	0xa5
 2110 0a5f 02       		.byte	0x2
 2111 0a60 23       		.byte	0x23
 2112 0a61 44       		.uleb128 0x44
 2113 0a62 00       		.byte	0
 2114 0a63 04       		.uleb128 0x4
 2115 0a64 426F756E 		.ascii "BoundingBox_val_t\0"
 2115      64696E67 
 2115      426F785F 
 2115      76616C5F 
 2115      7400
 2116 0a76 10       		.byte	0x10
 2117 0a77 12       		.byte	0x12
 2118 0a78 02       		.byte	0x2
 2119 0a79 92090000 		.long	0x992
 2120 0a7d 0F       		.uleb128 0xf
 2121 0a7e 4C       		.byte	0x4c
 2122 0a7f 10       		.byte	0x10
 2123 0a80 14       		.byte	0x14
 2124 0a81 09       		.byte	0x9
 2125 0a82 A50A0000 		.long	0xaa5
 2126 0a86 0E       		.uleb128 0xe
 2127 0a87 33000000 		.secrel32	LASF1
 2128 0a8b 10       		.byte	0x10
 2129 0a8c 16       		.byte	0x16
 2130 0a8d 0A       		.byte	0xa
 2131 0a8e 57010000 		.long	0x157
 2132 0a92 02       		.byte	0x2
 2133 0a93 23       		.byte	0x23
 2134 0a94 00       		.uleb128 0
 2135 0a95 0E       		.uleb128 0xe
GAS LISTING C:\Users\jisu8\AppData\Local\Temp\ccAhT7z4.s 			page 47


 2136 0a96 47000000 		.secrel32	LASF2
 2137 0a9a 10       		.byte	0x10
 2138 0a9b 17       		.byte	0x17
 2139 0a9c 14       		.byte	0x14
 2140 0a9d 630A0000 		.long	0xa63
 2141 0aa1 02       		.byte	0x2
 2142 0aa2 23       		.byte	0x23
 2143 0aa3 04       		.uleb128 0x4
 2144 0aa4 00       		.byte	0
 2145 0aa5 04       		.uleb128 0x4
 2146 0aa6 426F756E 		.ascii "BoundingBox_t\0"
 2146      64696E67 
 2146      426F785F 
 2146      7400
 2147 0ab4 10       		.byte	0x10
 2148 0ab5 18       		.byte	0x18
 2149 0ab6 02       		.byte	0x2
 2150 0ab7 7D0A0000 		.long	0xa7d
 2151 0abb 0F       		.uleb128 0xf
 2152 0abc 14       		.byte	0x14
 2153 0abd 11       		.byte	0x11
 2154 0abe 04       		.byte	0x4
 2155 0abf 09       		.byte	0x9
 2156 0ac0 240B0000 		.long	0xb24
 2157 0ac4 07       		.uleb128 0x7
 2158 0ac5 5F737461 		.ascii "_startX\0"
 2158      72745800 
 2159 0acd 11       		.byte	0x11
 2160 0ace 06       		.byte	0x6
 2161 0acf 06       		.byte	0x6
 2162 0ad0 A5000000 		.long	0xa5
 2163 0ad4 02       		.byte	0x2
 2164 0ad5 23       		.byte	0x23
 2165 0ad6 00       		.uleb128 0
 2166 0ad7 07       		.uleb128 0x7
 2167 0ad8 5F656E64 		.ascii "_endX\0"
 2167      5800
 2168 0ade 11       		.byte	0x11
 2169 0adf 07       		.byte	0x7
 2170 0ae0 06       		.byte	0x6
 2171 0ae1 A5000000 		.long	0xa5
 2172 0ae5 02       		.byte	0x2
 2173 0ae6 23       		.byte	0x23
 2174 0ae7 04       		.uleb128 0x4
 2175 0ae8 07       		.uleb128 0x7
 2176 0ae9 5F627563 		.ascii "_bucket\0"
 2176      6B657400 
 2177 0af1 11       		.byte	0x11
 2178 0af2 08       		.byte	0x8
 2179 0af3 06       		.byte	0x6
 2180 0af4 A5000000 		.long	0xa5
 2181 0af8 02       		.byte	0x2
 2182 0af9 23       		.byte	0x23
 2183 0afa 08       		.uleb128 0x8
 2184 0afb 07       		.uleb128 0x7
 2185 0afc 5F76616C 		.ascii "_value\0"
 2185      756500
GAS LISTING C:\Users\jisu8\AppData\Local\Temp\ccAhT7z4.s 			page 48


 2186 0b03 11       		.byte	0x11
 2187 0b04 09       		.byte	0x9
 2188 0b05 06       		.byte	0x6
 2189 0b06 A5000000 		.long	0xa5
 2190 0b0a 02       		.byte	0x2
 2191 0b0b 23       		.byte	0x23
 2192 0b0c 0C       		.uleb128 0xc
 2193 0b0d 07       		.uleb128 0x7
 2194 0b0e 5F726F77 		.ascii "_rowNumber\0"
 2194      4E756D62 
 2194      657200
 2195 0b19 11       		.byte	0x11
 2196 0b1a 0A       		.byte	0xa
 2197 0b1b 06       		.byte	0x6
 2198 0b1c A5000000 		.long	0xa5
 2199 0b20 02       		.byte	0x2
 2200 0b21 23       		.byte	0x23
 2201 0b22 10       		.uleb128 0x10
 2202 0b23 00       		.byte	0
 2203 0b24 04       		.uleb128 0x4
 2204 0b25 436F6465 		.ascii "Codeword_val_t\0"
 2204      776F7264 
 2204      5F76616C 
 2204      5F7400
 2205 0b34 11       		.byte	0x11
 2206 0b35 0B       		.byte	0xb
 2207 0b36 02       		.byte	0x2
 2208 0b37 BB0A0000 		.long	0xabb
 2209 0b3b 0F       		.uleb128 0xf
 2210 0b3c 18       		.byte	0x18
 2211 0b3d 11       		.byte	0x11
 2212 0b3e 0C       		.byte	0xc
 2213 0b3f 09       		.byte	0x9
 2214 0b40 630B0000 		.long	0xb63
 2215 0b44 0E       		.uleb128 0xe
 2216 0b45 33000000 		.secrel32	LASF1
 2217 0b49 11       		.byte	0x11
 2218 0b4a 0E       		.byte	0xe
 2219 0b4b 0A       		.byte	0xa
 2220 0b4c 57010000 		.long	0x157
 2221 0b50 02       		.byte	0x2
 2222 0b51 23       		.byte	0x23
 2223 0b52 00       		.uleb128 0
 2224 0b53 0E       		.uleb128 0xe
 2225 0b54 47000000 		.secrel32	LASF2
 2226 0b58 11       		.byte	0x11
 2227 0b59 0F       		.byte	0xf
 2228 0b5a 11       		.byte	0x11
 2229 0b5b 240B0000 		.long	0xb24
 2230 0b5f 02       		.byte	0x2
 2231 0b60 23       		.byte	0x23
 2232 0b61 04       		.uleb128 0x4
 2233 0b62 00       		.byte	0
 2234 0b63 04       		.uleb128 0x4
 2235 0b64 436F6465 		.ascii "Codeword_t\0"
 2235      776F7264 
 2235      5F7400
GAS LISTING C:\Users\jisu8\AppData\Local\Temp\ccAhT7z4.s 			page 49


 2236 0b6f 11       		.byte	0x11
 2237 0b70 10       		.byte	0x10
 2238 0b71 02       		.byte	0x2
 2239 0b72 3B0B0000 		.long	0xb3b
 2240 0b76 0B       		.uleb128 0xb
 2241 0b77 07       		.byte	0x7
 2242 0b78 04       		.byte	0x4
 2243 0b79 95000000 		.long	0x95
 2244 0b7d 12       		.byte	0x12
 2245 0b7e 09       		.byte	0x9
 2246 0b7f 01       		.byte	0x1
 2247 0b80 9B0B0000 		.long	0xb9b
 2248 0b84 0C       		.uleb128 0xc
 2249 0b85 4E6F6E65 		.ascii "None\0"
 2249      00
 2250 0b8a 00       		.byte	0
 2251 0b8b 0C       		.uleb128 0xc
 2252 0b8c 4C656674 		.ascii "Left\0"
 2252      00
 2253 0b91 01       		.byte	0x1
 2254 0b92 0C       		.uleb128 0xc
 2255 0b93 52696768 		.ascii "Right\0"
 2255      7400
 2256 0b99 02       		.byte	0x2
 2257 0b9a 00       		.byte	0
 2258 0b9b 04       		.uleb128 0x4
 2259 0b9c 526F7749 		.ascii "RowIndicator_t\0"
 2259      6E646963 
 2259      61746F72 
 2259      5F7400
 2260 0bab 12       		.byte	0x12
 2261 0bac 0D       		.byte	0xd
 2262 0bad 02       		.byte	0x2
 2263 0bae 760B0000 		.long	0xb76
 2264 0bb2 11       		.uleb128 0x11
 2265 0bb3 302F     		.word	0x2f30
 2266 0bb5 12       		.byte	0x12
 2267 0bb6 0F       		.byte	0xf
 2268 0bb7 09       		.byte	0x9
 2269 0bb8 050C0000 		.long	0xc05
 2270 0bbc 07       		.uleb128 0x7
 2271 0bbd 5F626F75 		.ascii "_boundingBox\0"
 2271      6E64696E 
 2271      67426F78 
 2271      00
 2272 0bca 12       		.byte	0x12
 2273 0bcb 11       		.byte	0x11
 2274 0bcc 10       		.byte	0x10
 2275 0bcd A50A0000 		.long	0xaa5
 2276 0bd1 02       		.byte	0x2
 2277 0bd2 23       		.byte	0x23
 2278 0bd3 00       		.uleb128 0
 2279 0bd4 07       		.uleb128 0x7
 2280 0bd5 5F636F64 		.ascii "_codewords\0"
 2280      65776F72 
 2280      647300
 2281 0be0 12       		.byte	0x12
GAS LISTING C:\Users\jisu8\AppData\Local\Temp\ccAhT7z4.s 			page 50


 2282 0be1 12       		.byte	0x12
 2283 0be2 0D       		.byte	0xd
 2284 0be3 050C0000 		.long	0xc05
 2285 0be7 02       		.byte	0x2
 2286 0be8 23       		.byte	0x23
 2287 0be9 4C       		.uleb128 0x4c
 2288 0bea 07       		.uleb128 0x7
 2289 0beb 5F726F77 		.ascii "_rowIndicator\0"
 2289      496E6469 
 2289      6361746F 
 2289      7200
 2290 0bf9 12       		.byte	0x12
 2291 0bfa 13       		.byte	0x13
 2292 0bfb 11       		.byte	0x11
 2293 0bfc 9B0B0000 		.long	0xb9b
 2294 0c00 03       		.byte	0x3
 2295 0c01 23       		.byte	0x23
 2296 0c02 AC5E     		.uleb128 0x2f2c
 2297 0c04 00       		.byte	0
 2298 0c05 08       		.uleb128 0x8
 2299 0c06 630B0000 		.long	0xb63
 2300 0c0a 160C0000 		.long	0xc16
 2301 0c0e 12       		.uleb128 0x12
 2302 0c0f 95000000 		.long	0x95
 2303 0c13 F301     		.word	0x1f3
 2304 0c15 00       		.byte	0
 2305 0c16 04       		.uleb128 0x4
 2306 0c17 44657465 		.ascii "DetectionResultColumn_val_t\0"
 2306      6374696F 
 2306      6E526573 
 2306      756C7443 
 2306      6F6C756D 
 2307 0c33 12       		.byte	0x12
 2308 0c34 14       		.byte	0x14
 2309 0c35 02       		.byte	0x2
 2310 0c36 B20B0000 		.long	0xbb2
 2311 0c3a 11       		.uleb128 0x11
 2312 0c3b 342F     		.word	0x2f34
 2313 0c3d 12       		.byte	0x12
 2314 0c3e 15       		.byte	0x15
 2315 0c3f 09       		.byte	0x9
 2316 0c40 630C0000 		.long	0xc63
 2317 0c44 0E       		.uleb128 0xe
 2318 0c45 33000000 		.secrel32	LASF1
 2319 0c49 12       		.byte	0x12
 2320 0c4a 17       		.byte	0x17
 2321 0c4b 0A       		.byte	0xa
 2322 0c4c 57010000 		.long	0x157
 2323 0c50 02       		.byte	0x2
 2324 0c51 23       		.byte	0x23
 2325 0c52 00       		.uleb128 0
 2326 0c53 0E       		.uleb128 0xe
 2327 0c54 47000000 		.secrel32	LASF2
 2328 0c58 12       		.byte	0x12
 2329 0c59 18       		.byte	0x18
 2330 0c5a 1E       		.byte	0x1e
 2331 0c5b 160C0000 		.long	0xc16
GAS LISTING C:\Users\jisu8\AppData\Local\Temp\ccAhT7z4.s 			page 51


 2332 0c5f 02       		.byte	0x2
 2333 0c60 23       		.byte	0x23
 2334 0c61 04       		.uleb128 0x4
 2335 0c62 00       		.byte	0
 2336 0c63 04       		.uleb128 0x4
 2337 0c64 44657465 		.ascii "DetectionResultColumn_t\0"
 2337      6374696F 
 2337      6E526573 
 2337      756C7443 
 2337      6F6C756D 
 2338 0c7c 12       		.byte	0x12
 2339 0c7d 19       		.byte	0x19
 2340 0c7e 02       		.byte	0x2
 2341 0c7f 3A0C0000 		.long	0xc3a
 2342 0c83 0A       		.uleb128 0xa
 2343 0c84 42415243 		.ascii "BARCODE_ROW_UNKNOWN\0"
 2343      4F44455F 
 2343      524F575F 
 2343      554E4B4E 
 2343      4F574E00 
 2344 0c98 13       		.byte	0x13
 2345 0c99 09       		.byte	0x9
 2346 0c9a 12       		.byte	0x12
 2347 0c9b AC000000 		.long	0xac
 2348 0c9f 01       		.byte	0x1
 2349 0ca0 01       		.byte	0x1
 2350 0ca1 0A       		.uleb128 0xa
 2351 0ca2 726F7749 		.ascii "rowIndicatorColumn\0"
 2351      6E646963 
 2351      61746F72 
 2351      436F6C75 
 2351      6D6E00
 2352 0cb5 13       		.byte	0x13
 2353 0cb6 0F       		.byte	0xf
 2354 0cb7 20       		.byte	0x20
 2355 0cb8 630C0000 		.long	0xc63
 2356 0cbc 01       		.byte	0x1
 2357 0cbd 01       		.byte	0x1
 2358 0cbe 0A       		.uleb128 0xa
 2359 0cbf 5F696D70 		.ascii "_imp____mb_cur_max\0"
 2359      5F5F5F5F 
 2359      6D625F63 
 2359      75725F6D 
 2359      617800
 2360 0cd2 14       		.byte	0x14
 2361 0cd3 73       		.byte	0x73
 2362 0cd4 10       		.byte	0x10
 2363 0cd5 00010000 		.long	0x100
 2364 0cd9 01       		.byte	0x1
 2365 0cda 01       		.byte	0x1
 2366 0cdb 08       		.uleb128 0x8
 2367 0cdc F4000000 		.long	0xf4
 2368 0ce0 EB0C0000 		.long	0xceb
 2369 0ce4 10       		.uleb128 0x10
 2370 0ce5 95000000 		.long	0x95
 2371 0ce9 00       		.byte	0
 2372 0cea 00       		.byte	0
GAS LISTING C:\Users\jisu8\AppData\Local\Temp\ccAhT7z4.s 			page 52


 2373 0ceb 0A       		.uleb128 0xa
 2374 0cec 5F737973 		.ascii "_sys_errlist\0"
 2374      5F657272 
 2374      6C697374 
 2374      00
 2375 0cf9 14       		.byte	0x14
 2376 0cfa AC       		.byte	0xac
 2377 0cfb 26       		.byte	0x26
 2378 0cfc DB0C0000 		.long	0xcdb
 2379 0d00 01       		.byte	0x1
 2380 0d01 01       		.byte	0x1
 2381 0d02 0A       		.uleb128 0xa
 2382 0d03 5F737973 		.ascii "_sys_nerr\0"
 2382      5F6E6572 
 2382      7200
 2383 0d0d 14       		.byte	0x14
 2384 0d0e AD       		.byte	0xad
 2385 0d0f 24       		.byte	0x24
 2386 0d10 A5000000 		.long	0xa5
 2387 0d14 01       		.byte	0x1
 2388 0d15 01       		.byte	0x1
 2389 0d16 13       		.uleb128 0x13
 2390 0d17 5F696D70 		.ascii "_imp____argc\0"
 2390      5F5F5F5F 
 2390      61726763 
 2390      00
 2391 0d24 14       		.byte	0x14
 2392 0d25 1901     		.word	0x119
 2393 0d27 10       		.byte	0x10
 2394 0d28 00010000 		.long	0x100
 2395 0d2c 01       		.byte	0x1
 2396 0d2d 01       		.byte	0x1
 2397 0d2e 13       		.uleb128 0x13
 2398 0d2f 5F696D70 		.ascii "_imp____argv\0"
 2398      5F5F5F5F 
 2398      61726776 
 2398      00
 2399 0d3c 14       		.byte	0x14
 2400 0d3d 1D01     		.word	0x11d
 2401 0d3f 13       		.byte	0x13
 2402 0d40 460D0000 		.long	0xd46
 2403 0d44 01       		.byte	0x1
 2404 0d45 01       		.byte	0x1
 2405 0d46 05       		.uleb128 0x5
 2406 0d47 04       		.byte	0x4
 2407 0d48 4C0D0000 		.long	0xd4c
 2408 0d4c 05       		.uleb128 0x5
 2409 0d4d 04       		.byte	0x4
 2410 0d4e F4000000 		.long	0xf4
 2411 0d52 13       		.uleb128 0x13
 2412 0d53 5F696D70 		.ascii "_imp____wargv\0"
 2412      5F5F5F5F 
 2412      77617267 
 2412      7600
 2413 0d61 14       		.byte	0x14
 2414 0d62 2101     		.word	0x121
 2415 0d64 16       		.byte	0x16
GAS LISTING C:\Users\jisu8\AppData\Local\Temp\ccAhT7z4.s 			page 53


 2416 0d65 6B0D0000 		.long	0xd6b
 2417 0d69 01       		.byte	0x1
 2418 0d6a 01       		.byte	0x1
 2419 0d6b 05       		.uleb128 0x5
 2420 0d6c 04       		.byte	0x4
 2421 0d6d 710D0000 		.long	0xd71
 2422 0d71 05       		.uleb128 0x5
 2423 0d72 04       		.byte	0x4
 2424 0d73 FA000000 		.long	0xfa
 2425 0d77 13       		.uleb128 0x13
 2426 0d78 5F696D70 		.ascii "_imp___environ\0"
 2426      5F5F5F65 
 2426      6E766972 
 2426      6F6E00
 2427 0d87 14       		.byte	0x14
 2428 0d88 2701     		.word	0x127
 2429 0d8a 13       		.byte	0x13
 2430 0d8b 460D0000 		.long	0xd46
 2431 0d8f 01       		.byte	0x1
 2432 0d90 01       		.byte	0x1
 2433 0d91 13       		.uleb128 0x13
 2434 0d92 5F696D70 		.ascii "_imp___wenviron\0"
 2434      5F5F5F77 
 2434      656E7669 
 2434      726F6E00 
 2435 0da2 14       		.byte	0x14
 2436 0da3 2C01     		.word	0x12c
 2437 0da5 16       		.byte	0x16
 2438 0da6 6B0D0000 		.long	0xd6b
 2439 0daa 01       		.byte	0x1
 2440 0dab 01       		.byte	0x1
 2441 0dac 13       		.uleb128 0x13
 2442 0dad 5F696D70 		.ascii "_imp___pgmptr\0"
 2442      5F5F5F70 
 2442      676D7074 
 2442      7200
 2443 0dbb 14       		.byte	0x14
 2444 0dbc 3201     		.word	0x132
 2445 0dbe 12       		.byte	0x12
 2446 0dbf 4C0D0000 		.long	0xd4c
 2447 0dc3 01       		.byte	0x1
 2448 0dc4 01       		.byte	0x1
 2449 0dc5 13       		.uleb128 0x13
 2450 0dc6 5F696D70 		.ascii "_imp___wpgmptr\0"
 2450      5F5F5F77 
 2450      70676D70 
 2450      747200
 2451 0dd5 14       		.byte	0x14
 2452 0dd6 3701     		.word	0x137
 2453 0dd8 15       		.byte	0x15
 2454 0dd9 710D0000 		.long	0xd71
 2455 0ddd 01       		.byte	0x1
 2456 0dde 01       		.byte	0x1
 2457 0ddf 13       		.uleb128 0x13
 2458 0de0 5F696D70 		.ascii "_imp___osplatform\0"
 2458      5F5F5F6F 
 2458      73706C61 
GAS LISTING C:\Users\jisu8\AppData\Local\Temp\ccAhT7z4.s 			page 54


 2458      74666F72 
 2458      6D00
 2459 0df2 14       		.byte	0x14
 2460 0df3 3C01     		.word	0x13c
 2461 0df5 19       		.byte	0x19
 2462 0df6 FC0D0000 		.long	0xdfc
 2463 0dfa 01       		.byte	0x1
 2464 0dfb 01       		.byte	0x1
 2465 0dfc 05       		.uleb128 0x5
 2466 0dfd 04       		.byte	0x4
 2467 0dfe 95000000 		.long	0x95
 2468 0e02 13       		.uleb128 0x13
 2469 0e03 5F696D70 		.ascii "_imp___osver\0"
 2469      5F5F5F6F 
 2469      73766572 
 2469      00
 2470 0e10 14       		.byte	0x14
 2471 0e11 4101     		.word	0x141
 2472 0e13 19       		.byte	0x19
 2473 0e14 FC0D0000 		.long	0xdfc
 2474 0e18 01       		.byte	0x1
 2475 0e19 01       		.byte	0x1
 2476 0e1a 13       		.uleb128 0x13
 2477 0e1b 5F696D70 		.ascii "_imp___winver\0"
 2477      5F5F5F77 
 2477      696E7665 
 2477      7200
 2478 0e29 14       		.byte	0x14
 2479 0e2a 4601     		.word	0x146
 2480 0e2c 19       		.byte	0x19
 2481 0e2d FC0D0000 		.long	0xdfc
 2482 0e31 01       		.byte	0x1
 2483 0e32 01       		.byte	0x1
 2484 0e33 13       		.uleb128 0x13
 2485 0e34 5F696D70 		.ascii "_imp___winmajor\0"
 2485      5F5F5F77 
 2485      696E6D61 
 2485      6A6F7200 
 2486 0e44 14       		.byte	0x14
 2487 0e45 4B01     		.word	0x14b
 2488 0e47 19       		.byte	0x19
 2489 0e48 FC0D0000 		.long	0xdfc
 2490 0e4c 01       		.byte	0x1
 2491 0e4d 01       		.byte	0x1
 2492 0e4e 13       		.uleb128 0x13
 2493 0e4f 5F696D70 		.ascii "_imp___winminor\0"
 2493      5F5F5F77 
 2493      696E6D69 
 2493      6E6F7200 
 2494 0e5f 14       		.byte	0x14
 2495 0e60 5001     		.word	0x150
 2496 0e62 19       		.byte	0x19
 2497 0e63 FC0D0000 		.long	0xdfc
 2498 0e67 01       		.byte	0x1
 2499 0e68 01       		.byte	0x1
 2500 0e69 0A       		.uleb128 0xa
 2501 0e6a 5F616D62 		.ascii "_amblksiz\0"
GAS LISTING C:\Users\jisu8\AppData\Local\Temp\ccAhT7z4.s 			page 55


 2501      6C6B7369 
 2501      7A00
 2502 0e74 15       		.byte	0x15
 2503 0e75 35       		.byte	0x35
 2504 0e76 17       		.byte	0x17
 2505 0e77 95000000 		.long	0x95
 2506 0e7b 01       		.byte	0x1
 2507 0e7c 01       		.byte	0x1
 2508 0e7d 14       		.uleb128 0x14
 2509 0e7e 4D4F4455 		.ascii "MODULES_IN_STOP_PATTERN\0"
 2509      4C45535F 
 2509      494E5F53 
 2509      544F505F 
 2509      50415454 
 2510 0e96 01       		.byte	0x1
 2511 0e97 0C       		.byte	0xc
 2512 0e98 12       		.byte	0x12
 2513 0e99 AC000000 		.long	0xac
 2514 0e9d 05       		.byte	0x5
 2515 0e9e 03       		.byte	0x3
 2516 0e9f 00000000 		.long	_MODULES_IN_STOP_PATTERN
 2517 0ea3 15       		.uleb128 0x15
 2518 0ea4 01       		.byte	0x1
 2519 0ea5 6465636F 		.ascii "decode\0"
 2519      646500
 2520 0eac 01       		.byte	0x1
 2521 0ead 6A       		.byte	0x6a
 2522 0eae 0A       		.byte	0xa
 2523 0eaf 01       		.byte	0x1
 2524 0eb0 90070000 		.long	0x790
 2525 0eb4 A5080000 		.long	LFB21
 2526 0eb8 42090000 		.long	LFE21
 2527 0ebc 00000000 		.secrel32	LLST5
 2528 0ec0 01       		.byte	0x1
 2529 0ec1 2C0F0000 		.long	0xf2c
 2530 0ec5 16       		.uleb128 0x16
 2531 0ec6 696D6167 		.ascii "image\0"
 2531      6500
 2532 0ecc 01       		.byte	0x1
 2533 0ecd 6A       		.byte	0x6a
 2534 0ece 2C       		.byte	0x2c
 2535 0ecf 2C0F0000 		.long	0xf2c
 2536 0ed3 02       		.byte	0x2
 2537 0ed4 91       		.byte	0x91
 2538 0ed5 04       		.sleb128 4
 2539 0ed6 16       		.uleb128 0x16
 2540 0ed7 68696E74 		.ascii "hints\0"
 2540      7300
 2541 0edd 01       		.byte	0x1
 2542 0ede 6A       		.byte	0x6a
 2543 0edf 42       		.byte	0x42
 2544 0ee0 320F0000 		.long	0xf32
 2545 0ee4 02       		.byte	0x2
 2546 0ee5 91       		.byte	0x91
 2547 0ee6 08       		.sleb128 8
 2548 0ee7 14       		.uleb128 0x14
 2549 0ee8 69735075 		.ascii "isPure\0"
GAS LISTING C:\Users\jisu8\AppData\Local\Temp\ccAhT7z4.s 			page 56


 2549      726500
 2550 0eef 01       		.byte	0x1
 2551 0ef0 6C       		.byte	0x6c
 2552 0ef1 0F       		.byte	0xf
 2553 0ef2 95000000 		.long	0x95
 2554 0ef6 02       		.byte	0x2
 2555 0ef7 91       		.byte	0x91
 2556 0ef8 5C       		.sleb128 -36
 2557 0ef9 17       		.uleb128 0x17
 2558 0efa 07000000 		.secrel32	LASF0
 2559 0efe 01       		.byte	0x1
 2560 0eff 6D       		.byte	0x6d
 2561 0f00 0F       		.byte	0xf
 2562 0f01 95000000 		.long	0x95
 2563 0f05 02       		.byte	0x2
 2564 0f06 91       		.byte	0x91
 2565 0f07 58       		.sleb128 -40
 2566 0f08 14       		.uleb128 0x14
 2567 0f09 72657375 		.ascii "results\0"
 2567      6C747300 
 2568 0f11 01       		.byte	0x1
 2569 0f12 6E       		.byte	0x6e
 2570 0f13 0B       		.byte	0xb
 2571 0f14 90070000 		.long	0x790
 2572 0f18 03       		.byte	0x3
 2573 0f19 91       		.byte	0x91
 2574 0f1a 887F     		.sleb128 -120
 2575 0f1c 17       		.uleb128 0x17
 2576 0f1d 00000000 		.secrel32	LASF7
 2577 0f21 01       		.byte	0x1
 2578 0f22 6F       		.byte	0x6f
 2579 0f23 11       		.byte	0x11
 2580 0f24 B4020000 		.long	0x2b4
 2581 0f28 02       		.byte	0x2
 2582 0f29 91       		.byte	0x91
 2583 0f2a 54       		.sleb128 -44
 2584 0f2b 00       		.byte	0
 2585 0f2c 05       		.uleb128 0x5
 2586 0f2d 04       		.byte	0x4
 2587 0f2e 56050000 		.long	0x556
 2588 0f32 05       		.uleb128 0x5
 2589 0f33 04       		.byte	0x4
 2590 0f34 C8040000 		.long	0x4c8
 2591 0f38 15       		.uleb128 0x15
 2592 0f39 01       		.byte	0x1
 2593 0f3a 446F4465 		.ascii "DoDecode\0"
 2593      636F6465 
 2593      00
 2594 0f43 01       		.byte	0x1
 2595 0f44 31       		.byte	0x31
 2596 0f45 10       		.byte	0x10
 2597 0f46 01       		.byte	0x1
 2598 0f47 B4020000 		.long	0x2b4
 2599 0f4b 53050000 		.long	LFB20
 2600 0f4f A5080000 		.long	LFE20
 2601 0f53 38000000 		.secrel32	LLST4
 2602 0f57 01       		.byte	0x1
GAS LISTING C:\Users\jisu8\AppData\Local\Temp\ccAhT7z4.s 			page 57


 2603 0f58 FA0F0000 		.long	0xffa
 2604 0f5c 16       		.uleb128 0x16
 2605 0f5d 696D6167 		.ascii "image\0"
 2605      6500
 2606 0f63 01       		.byte	0x1
 2607 0f64 31       		.byte	0x31
 2608 0f65 34       		.byte	0x34
 2609 0f66 2C0F0000 		.long	0xf2c
 2610 0f6a 02       		.byte	0x2
 2611 0f6b 91       		.byte	0x91
 2612 0f6c 00       		.sleb128 0
 2613 0f6d 16       		.uleb128 0x16
 2614 0f6e 6D756C74 		.ascii "multiple\0"
 2614      69706C65 
 2614      00
 2615 0f77 01       		.byte	0x1
 2616 0f78 31       		.byte	0x31
 2617 0f79 49       		.byte	0x49
 2618 0f7a 1B010000 		.long	0x11b
 2619 0f7e 03       		.byte	0x3
 2620 0f7f 91       		.byte	0x91
 2621 0f80 9C7F     		.sleb128 -100
 2622 0f82 16       		.uleb128 0x16
 2623 0f83 72657375 		.ascii "results\0"
 2623      6C747300 
 2624 0f8b 01       		.byte	0x1
 2625 0f8c 31       		.byte	0x31
 2626 0f8d 5E       		.byte	0x5e
 2627 0f8e FA0F0000 		.long	0xffa
 2628 0f92 02       		.byte	0x2
 2629 0f93 91       		.byte	0x91
 2630 0f94 08       		.sleb128 8
 2631 0f95 18       		.uleb128 0x18
 2632 0f96 07000000 		.secrel32	LASF0
 2633 0f9a 01       		.byte	0x1
 2634 0f9b 31       		.byte	0x31
 2635 0f9c 76       		.byte	0x76
 2636 0f9d 50050000 		.long	0x550
 2637 0fa1 02       		.byte	0x2
 2638 0fa2 91       		.byte	0x91
 2639 0fa3 0C       		.sleb128 12
 2640 0fa4 14       		.uleb128 0x14
 2641 0fa5 64657465 		.ascii "detectorResult\0"
 2641      63746F72 
 2641      52657375 
 2641      6C7400
 2642 0fb4 01       		.byte	0x1
 2643 0fb5 35       		.byte	0x35
 2644 0fb6 14       		.byte	0x14
 2645 0fb7 40080000 		.long	0x840
 2646 0fbb 02       		.byte	0x2
 2647 0fbc 91       		.byte	0x91
 2648 0fbd 50       		.sleb128 -48
 2649 0fbe 17       		.uleb128 0x17
 2650 0fbf 00000000 		.secrel32	LASF7
 2651 0fc3 01       		.byte	0x1
 2652 0fc4 36       		.byte	0x36
GAS LISTING C:\Users\jisu8\AppData\Local\Temp\ccAhT7z4.s 			page 58


 2653 0fc5 11       		.byte	0x11
 2654 0fc6 B4020000 		.long	0x2b4
 2655 0fca 02       		.byte	0x2
 2656 0fcb 91       		.byte	0x91
 2657 0fcc 5C       		.sleb128 -36
 2658 0fcd 14       		.uleb128 0x14
 2659 0fce 706F696E 		.ascii "points\0"
 2659      747300
 2660 0fd5 01       		.byte	0x1
 2661 0fd6 3D       		.byte	0x3d
 2662 0fd7 12       		.byte	0x12
 2663 0fd8 3A080000 		.long	0x83a
 2664 0fdc 02       		.byte	0x2
 2665 0fdd 91       		.byte	0x91
 2666 0fde 58       		.sleb128 -40
 2667 0fdf 14       		.uleb128 0x14
 2668 0fe0 6465636F 		.ascii "decoderResult\0"
 2668      64657252 
 2668      6573756C 
 2668      7400
 2669 0fee 01       		.byte	0x1
 2670 0fef 3E       		.byte	0x3e
 2671 0ff0 12       		.byte	0x12
 2672 0ff1 7A090000 		.long	0x97a
 2673 0ff5 03       		.byte	0x3
 2674 0ff6 91       		.byte	0x91
 2675 0ff7 A07F     		.sleb128 -96
 2676 0ff9 00       		.byte	0
 2677 0ffa 05       		.uleb128 0x5
 2678 0ffb 04       		.byte	0x4
 2679 0ffc 90070000 		.long	0x790
 2680 1000 19       		.uleb128 0x19
 2681 1001 4765744D 		.ascii "GetMaxCodewordWidth\0"
 2681      6178436F 
 2681      6465776F 
 2681      72645769 
 2681      64746800 
 2682 1015 01       		.byte	0x1
 2683 1016 2B       		.byte	0x2b
 2684 1017 0C       		.byte	0xc
 2685 1018 01       		.byte	0x1
 2686 1019 A5000000 		.long	0xa5
 2687 101d 0C030000 		.long	LFB19
 2688 1021 53050000 		.long	LFE19
 2689 1025 70000000 		.secrel32	LLST3
 2690 1029 01       		.byte	0x1
 2691 102a 3C100000 		.long	0x103c
 2692 102e 16       		.uleb128 0x16
 2693 102f 7000     		.ascii "p\0"
 2694 1031 01       		.byte	0x1
 2695 1032 2B       		.byte	0x2b
 2696 1033 30       		.byte	0x30
 2697 1034 3A080000 		.long	0x83a
 2698 1038 02       		.byte	0x2
 2699 1039 91       		.byte	0x91
 2700 103a 00       		.sleb128 0
 2701 103b 00       		.byte	0
GAS LISTING C:\Users\jisu8\AppData\Local\Temp\ccAhT7z4.s 			page 59


 2702 103c 1A       		.uleb128 0x1a
 2703 103d 4765744D 		.ascii "GetMaxWidth\0"
 2703      61785769 
 2703      64746800 
 2704 1049 01       		.byte	0x1
 2705 104a 21       		.byte	0x21
 2706 104b 0C       		.byte	0xc
 2707 104c 01       		.byte	0x1
 2708 104d A5000000 		.long	0xa5
 2709 1051 AE020000 		.long	LFB18
 2710 1055 0C030000 		.long	LFE18
 2711 1059 A8000000 		.secrel32	LLST2
 2712 105d 01       		.byte	0x1
 2713 105e 7F100000 		.long	0x107f
 2714 1062 16       		.uleb128 0x16
 2715 1063 703100   		.ascii "p1\0"
 2716 1066 01       		.byte	0x1
 2717 1067 21       		.byte	0x21
 2718 1068 28       		.byte	0x28
 2719 1069 3A080000 		.long	0x83a
 2720 106d 02       		.byte	0x2
 2721 106e 91       		.byte	0x91
 2722 106f 00       		.sleb128 0
 2723 1070 16       		.uleb128 0x16
 2724 1071 703200   		.ascii "p2\0"
 2725 1074 01       		.byte	0x1
 2726 1075 21       		.byte	0x21
 2727 1076 3C       		.byte	0x3c
 2728 1077 3A080000 		.long	0x83a
 2729 107b 02       		.byte	0x2
 2730 107c 91       		.byte	0x91
 2731 107d 04       		.sleb128 4
 2732 107e 00       		.byte	0
 2733 107f 19       		.uleb128 0x19
 2734 1080 4765744D 		.ascii "GetMinCodewordWidth\0"
 2734      696E436F 
 2734      6465776F 
 2734      72645769 
 2734      64746800 
 2735 1094 01       		.byte	0x1
 2736 1095 1B       		.byte	0x1b
 2737 1096 0C       		.byte	0xc
 2738 1097 01       		.byte	0x1
 2739 1098 A5000000 		.long	0xa5
 2740 109c 67000000 		.long	LFB17
 2741 10a0 AE020000 		.long	LFE17
 2742 10a4 E0000000 		.secrel32	LLST1
 2743 10a8 01       		.byte	0x1
 2744 10a9 BB100000 		.long	0x10bb
 2745 10ad 16       		.uleb128 0x16
 2746 10ae 7000     		.ascii "p\0"
 2747 10b0 01       		.byte	0x1
 2748 10b1 1B       		.byte	0x1b
 2749 10b2 30       		.byte	0x30
 2750 10b3 3A080000 		.long	0x83a
 2751 10b7 02       		.byte	0x2
 2752 10b8 91       		.byte	0x91
GAS LISTING C:\Users\jisu8\AppData\Local\Temp\ccAhT7z4.s 			page 60


 2753 10b9 00       		.sleb128 0
 2754 10ba 00       		.byte	0
 2755 10bb 1B       		.uleb128 0x1b
 2756 10bc 4765744D 		.ascii "GetMinWidth\0"
 2756      696E5769 
 2756      64746800 
 2757 10c8 01       		.byte	0x1
 2758 10c9 10       		.byte	0x10
 2759 10ca 0C       		.byte	0xc
 2760 10cb 01       		.byte	0x1
 2761 10cc A5000000 		.long	0xa5
 2762 10d0 00000000 		.long	LFB16
 2763 10d4 67000000 		.long	LFE16
 2764 10d8 18010000 		.secrel32	LLST0
 2765 10dc 01       		.byte	0x1
 2766 10dd 16       		.uleb128 0x16
 2767 10de 703100   		.ascii "p1\0"
 2768 10e1 01       		.byte	0x1
 2769 10e2 10       		.byte	0x10
 2770 10e3 28       		.byte	0x28
 2771 10e4 3A080000 		.long	0x83a
 2772 10e8 02       		.byte	0x2
 2773 10e9 91       		.byte	0x91
 2774 10ea 00       		.sleb128 0
 2775 10eb 16       		.uleb128 0x16
 2776 10ec 703200   		.ascii "p2\0"
 2777 10ef 01       		.byte	0x1
 2778 10f0 10       		.byte	0x10
 2779 10f1 3C       		.byte	0x3c
 2780 10f2 3A080000 		.long	0x83a
 2781 10f6 02       		.byte	0x2
 2782 10f7 91       		.byte	0x91
 2783 10f8 04       		.sleb128 4
 2784 10f9 00       		.byte	0
 2785 10fa 00       		.byte	0
 2786              		.section	.debug_abbrev,"dr"
 2787              	Ldebug_abbrev0:
 2788 0000 01       		.uleb128 0x1
 2789 0001 11       		.uleb128 0x11
 2790 0002 01       		.byte	0x1
 2791 0003 25       		.uleb128 0x25
 2792 0004 08       		.uleb128 0x8
 2793 0005 13       		.uleb128 0x13
 2794 0006 0B       		.uleb128 0xb
 2795 0007 03       		.uleb128 0x3
 2796 0008 08       		.uleb128 0x8
 2797 0009 1B       		.uleb128 0x1b
 2798 000a 08       		.uleb128 0x8
 2799 000b 11       		.uleb128 0x11
 2800 000c 01       		.uleb128 0x1
 2801 000d 12       		.uleb128 0x12
 2802 000e 01       		.uleb128 0x1
 2803 000f 10       		.uleb128 0x10
 2804 0010 06       		.uleb128 0x6
 2805 0011 00       		.byte	0
 2806 0012 00       		.byte	0
 2807 0013 02       		.uleb128 0x2
GAS LISTING C:\Users\jisu8\AppData\Local\Temp\ccAhT7z4.s 			page 61


 2808 0014 24       		.uleb128 0x24
 2809 0015 00       		.byte	0
 2810 0016 0B       		.uleb128 0xb
 2811 0017 0B       		.uleb128 0xb
 2812 0018 3E       		.uleb128 0x3e
 2813 0019 0B       		.uleb128 0xb
 2814 001a 03       		.uleb128 0x3
 2815 001b 08       		.uleb128 0x8
 2816 001c 00       		.byte	0
 2817 001d 00       		.byte	0
 2818 001e 03       		.uleb128 0x3
 2819 001f 26       		.uleb128 0x26
 2820 0020 00       		.byte	0
 2821 0021 49       		.uleb128 0x49
 2822 0022 13       		.uleb128 0x13
 2823 0023 00       		.byte	0
 2824 0024 00       		.byte	0
 2825 0025 04       		.uleb128 0x4
 2826 0026 16       		.uleb128 0x16
 2827 0027 00       		.byte	0
 2828 0028 03       		.uleb128 0x3
 2829 0029 08       		.uleb128 0x8
 2830 002a 3A       		.uleb128 0x3a
 2831 002b 0B       		.uleb128 0xb
 2832 002c 3B       		.uleb128 0x3b
 2833 002d 0B       		.uleb128 0xb
 2834 002e 39       		.uleb128 0x39
 2835 002f 0B       		.uleb128 0xb
 2836 0030 49       		.uleb128 0x49
 2837 0031 13       		.uleb128 0x13
 2838 0032 00       		.byte	0
 2839 0033 00       		.byte	0
 2840 0034 05       		.uleb128 0x5
 2841 0035 0F       		.uleb128 0xf
 2842 0036 00       		.byte	0
 2843 0037 0B       		.uleb128 0xb
 2844 0038 0B       		.uleb128 0xb
 2845 0039 49       		.uleb128 0x49
 2846 003a 13       		.uleb128 0x13
 2847 003b 00       		.byte	0
 2848 003c 00       		.byte	0
 2849 003d 06       		.uleb128 0x6
 2850 003e 13       		.uleb128 0x13
 2851 003f 01       		.byte	0x1
 2852 0040 03       		.uleb128 0x3
 2853 0041 08       		.uleb128 0x8
 2854 0042 0B       		.uleb128 0xb
 2855 0043 0B       		.uleb128 0xb
 2856 0044 3A       		.uleb128 0x3a
 2857 0045 0B       		.uleb128 0xb
 2858 0046 3B       		.uleb128 0x3b
 2859 0047 0B       		.uleb128 0xb
 2860 0048 39       		.uleb128 0x39
 2861 0049 0B       		.uleb128 0xb
 2862 004a 01       		.uleb128 0x1
 2863 004b 13       		.uleb128 0x13
 2864 004c 00       		.byte	0
GAS LISTING C:\Users\jisu8\AppData\Local\Temp\ccAhT7z4.s 			page 62


 2865 004d 00       		.byte	0
 2866 004e 07       		.uleb128 0x7
 2867 004f 0D       		.uleb128 0xd
 2868 0050 00       		.byte	0
 2869 0051 03       		.uleb128 0x3
 2870 0052 08       		.uleb128 0x8
 2871 0053 3A       		.uleb128 0x3a
 2872 0054 0B       		.uleb128 0xb
 2873 0055 3B       		.uleb128 0x3b
 2874 0056 0B       		.uleb128 0xb
 2875 0057 39       		.uleb128 0x39
 2876 0058 0B       		.uleb128 0xb
 2877 0059 49       		.uleb128 0x49
 2878 005a 13       		.uleb128 0x13
 2879 005b 38       		.uleb128 0x38
 2880 005c 0A       		.uleb128 0xa
 2881 005d 00       		.byte	0
 2882 005e 00       		.byte	0
 2883 005f 08       		.uleb128 0x8
 2884 0060 01       		.uleb128 0x1
 2885 0061 01       		.byte	0x1
 2886 0062 49       		.uleb128 0x49
 2887 0063 13       		.uleb128 0x13
 2888 0064 01       		.uleb128 0x1
 2889 0065 13       		.uleb128 0x13
 2890 0066 00       		.byte	0
 2891 0067 00       		.byte	0
 2892 0068 09       		.uleb128 0x9
 2893 0069 21       		.uleb128 0x21
 2894 006a 00       		.byte	0
 2895 006b 00       		.byte	0
 2896 006c 00       		.byte	0
 2897 006d 0A       		.uleb128 0xa
 2898 006e 34       		.uleb128 0x34
 2899 006f 00       		.byte	0
 2900 0070 03       		.uleb128 0x3
 2901 0071 08       		.uleb128 0x8
 2902 0072 3A       		.uleb128 0x3a
 2903 0073 0B       		.uleb128 0xb
 2904 0074 3B       		.uleb128 0x3b
 2905 0075 0B       		.uleb128 0xb
 2906 0076 39       		.uleb128 0x39
 2907 0077 0B       		.uleb128 0xb
 2908 0078 49       		.uleb128 0x49
 2909 0079 13       		.uleb128 0x13
 2910 007a 3F       		.uleb128 0x3f
 2911 007b 0C       		.uleb128 0xc
 2912 007c 3C       		.uleb128 0x3c
 2913 007d 0C       		.uleb128 0xc
 2914 007e 00       		.byte	0
 2915 007f 00       		.byte	0
 2916 0080 0B       		.uleb128 0xb
 2917 0081 04       		.uleb128 0x4
 2918 0082 01       		.byte	0x1
 2919 0083 3E       		.uleb128 0x3e
 2920 0084 0B       		.uleb128 0xb
 2921 0085 0B       		.uleb128 0xb
GAS LISTING C:\Users\jisu8\AppData\Local\Temp\ccAhT7z4.s 			page 63


 2922 0086 0B       		.uleb128 0xb
 2923 0087 49       		.uleb128 0x49
 2924 0088 13       		.uleb128 0x13
 2925 0089 3A       		.uleb128 0x3a
 2926 008a 0B       		.uleb128 0xb
 2927 008b 3B       		.uleb128 0x3b
 2928 008c 0B       		.uleb128 0xb
 2929 008d 39       		.uleb128 0x39
 2930 008e 0B       		.uleb128 0xb
 2931 008f 01       		.uleb128 0x1
 2932 0090 13       		.uleb128 0x13
 2933 0091 00       		.byte	0
 2934 0092 00       		.byte	0
 2935 0093 0C       		.uleb128 0xc
 2936 0094 28       		.uleb128 0x28
 2937 0095 00       		.byte	0
 2938 0096 03       		.uleb128 0x3
 2939 0097 08       		.uleb128 0x8
 2940 0098 1C       		.uleb128 0x1c
 2941 0099 0B       		.uleb128 0xb
 2942 009a 00       		.byte	0
 2943 009b 00       		.byte	0
 2944 009c 0D       		.uleb128 0xd
 2945 009d 28       		.uleb128 0x28
 2946 009e 00       		.byte	0
 2947 009f 03       		.uleb128 0x3
 2948 00a0 08       		.uleb128 0x8
 2949 00a1 1C       		.uleb128 0x1c
 2950 00a2 05       		.uleb128 0x5
 2951 00a3 00       		.byte	0
 2952 00a4 00       		.byte	0
 2953 00a5 0E       		.uleb128 0xe
 2954 00a6 0D       		.uleb128 0xd
 2955 00a7 00       		.byte	0
 2956 00a8 03       		.uleb128 0x3
 2957 00a9 0E       		.uleb128 0xe
 2958 00aa 3A       		.uleb128 0x3a
 2959 00ab 0B       		.uleb128 0xb
 2960 00ac 3B       		.uleb128 0x3b
 2961 00ad 0B       		.uleb128 0xb
 2962 00ae 39       		.uleb128 0x39
 2963 00af 0B       		.uleb128 0xb
 2964 00b0 49       		.uleb128 0x49
 2965 00b1 13       		.uleb128 0x13
 2966 00b2 38       		.uleb128 0x38
 2967 00b3 0A       		.uleb128 0xa
 2968 00b4 00       		.byte	0
 2969 00b5 00       		.byte	0
 2970 00b6 0F       		.uleb128 0xf
 2971 00b7 13       		.uleb128 0x13
 2972 00b8 01       		.byte	0x1
 2973 00b9 0B       		.uleb128 0xb
 2974 00ba 0B       		.uleb128 0xb
 2975 00bb 3A       		.uleb128 0x3a
 2976 00bc 0B       		.uleb128 0xb
 2977 00bd 3B       		.uleb128 0x3b
 2978 00be 0B       		.uleb128 0xb
GAS LISTING C:\Users\jisu8\AppData\Local\Temp\ccAhT7z4.s 			page 64


 2979 00bf 39       		.uleb128 0x39
 2980 00c0 0B       		.uleb128 0xb
 2981 00c1 01       		.uleb128 0x1
 2982 00c2 13       		.uleb128 0x13
 2983 00c3 00       		.byte	0
 2984 00c4 00       		.byte	0
 2985 00c5 10       		.uleb128 0x10
 2986 00c6 21       		.uleb128 0x21
 2987 00c7 00       		.byte	0
 2988 00c8 49       		.uleb128 0x49
 2989 00c9 13       		.uleb128 0x13
 2990 00ca 2F       		.uleb128 0x2f
 2991 00cb 0B       		.uleb128 0xb
 2992 00cc 00       		.byte	0
 2993 00cd 00       		.byte	0
 2994 00ce 11       		.uleb128 0x11
 2995 00cf 13       		.uleb128 0x13
 2996 00d0 01       		.byte	0x1
 2997 00d1 0B       		.uleb128 0xb
 2998 00d2 05       		.uleb128 0x5
 2999 00d3 3A       		.uleb128 0x3a
 3000 00d4 0B       		.uleb128 0xb
 3001 00d5 3B       		.uleb128 0x3b
 3002 00d6 0B       		.uleb128 0xb
 3003 00d7 39       		.uleb128 0x39
 3004 00d8 0B       		.uleb128 0xb
 3005 00d9 01       		.uleb128 0x1
 3006 00da 13       		.uleb128 0x13
 3007 00db 00       		.byte	0
 3008 00dc 00       		.byte	0
 3009 00dd 12       		.uleb128 0x12
 3010 00de 21       		.uleb128 0x21
 3011 00df 00       		.byte	0
 3012 00e0 49       		.uleb128 0x49
 3013 00e1 13       		.uleb128 0x13
 3014 00e2 2F       		.uleb128 0x2f
 3015 00e3 05       		.uleb128 0x5
 3016 00e4 00       		.byte	0
 3017 00e5 00       		.byte	0
 3018 00e6 13       		.uleb128 0x13
 3019 00e7 34       		.uleb128 0x34
 3020 00e8 00       		.byte	0
 3021 00e9 03       		.uleb128 0x3
 3022 00ea 08       		.uleb128 0x8
 3023 00eb 3A       		.uleb128 0x3a
 3024 00ec 0B       		.uleb128 0xb
 3025 00ed 3B       		.uleb128 0x3b
 3026 00ee 05       		.uleb128 0x5
 3027 00ef 39       		.uleb128 0x39
 3028 00f0 0B       		.uleb128 0xb
 3029 00f1 49       		.uleb128 0x49
 3030 00f2 13       		.uleb128 0x13
 3031 00f3 3F       		.uleb128 0x3f
 3032 00f4 0C       		.uleb128 0xc
 3033 00f5 3C       		.uleb128 0x3c
 3034 00f6 0C       		.uleb128 0xc
 3035 00f7 00       		.byte	0
GAS LISTING C:\Users\jisu8\AppData\Local\Temp\ccAhT7z4.s 			page 65


 3036 00f8 00       		.byte	0
 3037 00f9 14       		.uleb128 0x14
 3038 00fa 34       		.uleb128 0x34
 3039 00fb 00       		.byte	0
 3040 00fc 03       		.uleb128 0x3
 3041 00fd 08       		.uleb128 0x8
 3042 00fe 3A       		.uleb128 0x3a
 3043 00ff 0B       		.uleb128 0xb
 3044 0100 3B       		.uleb128 0x3b
 3045 0101 0B       		.uleb128 0xb
 3046 0102 39       		.uleb128 0x39
 3047 0103 0B       		.uleb128 0xb
 3048 0104 49       		.uleb128 0x49
 3049 0105 13       		.uleb128 0x13
 3050 0106 02       		.uleb128 0x2
 3051 0107 0A       		.uleb128 0xa
 3052 0108 00       		.byte	0
 3053 0109 00       		.byte	0
 3054 010a 15       		.uleb128 0x15
 3055 010b 2E       		.uleb128 0x2e
 3056 010c 01       		.byte	0x1
 3057 010d 3F       		.uleb128 0x3f
 3058 010e 0C       		.uleb128 0xc
 3059 010f 03       		.uleb128 0x3
 3060 0110 08       		.uleb128 0x8
 3061 0111 3A       		.uleb128 0x3a
 3062 0112 0B       		.uleb128 0xb
 3063 0113 3B       		.uleb128 0x3b
 3064 0114 0B       		.uleb128 0xb
 3065 0115 39       		.uleb128 0x39
 3066 0116 0B       		.uleb128 0xb
 3067 0117 27       		.uleb128 0x27
 3068 0118 0C       		.uleb128 0xc
 3069 0119 49       		.uleb128 0x49
 3070 011a 13       		.uleb128 0x13
 3071 011b 11       		.uleb128 0x11
 3072 011c 01       		.uleb128 0x1
 3073 011d 12       		.uleb128 0x12
 3074 011e 01       		.uleb128 0x1
 3075 011f 40       		.uleb128 0x40
 3076 0120 06       		.uleb128 0x6
 3077 0121 9642     		.uleb128 0x2116
 3078 0123 0C       		.uleb128 0xc
 3079 0124 01       		.uleb128 0x1
 3080 0125 13       		.uleb128 0x13
 3081 0126 00       		.byte	0
 3082 0127 00       		.byte	0
 3083 0128 16       		.uleb128 0x16
 3084 0129 05       		.uleb128 0x5
 3085 012a 00       		.byte	0
 3086 012b 03       		.uleb128 0x3
 3087 012c 08       		.uleb128 0x8
 3088 012d 3A       		.uleb128 0x3a
 3089 012e 0B       		.uleb128 0xb
 3090 012f 3B       		.uleb128 0x3b
 3091 0130 0B       		.uleb128 0xb
 3092 0131 39       		.uleb128 0x39
GAS LISTING C:\Users\jisu8\AppData\Local\Temp\ccAhT7z4.s 			page 66


 3093 0132 0B       		.uleb128 0xb
 3094 0133 49       		.uleb128 0x49
 3095 0134 13       		.uleb128 0x13
 3096 0135 02       		.uleb128 0x2
 3097 0136 0A       		.uleb128 0xa
 3098 0137 00       		.byte	0
 3099 0138 00       		.byte	0
 3100 0139 17       		.uleb128 0x17
 3101 013a 34       		.uleb128 0x34
 3102 013b 00       		.byte	0
 3103 013c 03       		.uleb128 0x3
 3104 013d 0E       		.uleb128 0xe
 3105 013e 3A       		.uleb128 0x3a
 3106 013f 0B       		.uleb128 0xb
 3107 0140 3B       		.uleb128 0x3b
 3108 0141 0B       		.uleb128 0xb
 3109 0142 39       		.uleb128 0x39
 3110 0143 0B       		.uleb128 0xb
 3111 0144 49       		.uleb128 0x49
 3112 0145 13       		.uleb128 0x13
 3113 0146 02       		.uleb128 0x2
 3114 0147 0A       		.uleb128 0xa
 3115 0148 00       		.byte	0
 3116 0149 00       		.byte	0
 3117 014a 18       		.uleb128 0x18
 3118 014b 05       		.uleb128 0x5
 3119 014c 00       		.byte	0
 3120 014d 03       		.uleb128 0x3
 3121 014e 0E       		.uleb128 0xe
 3122 014f 3A       		.uleb128 0x3a
 3123 0150 0B       		.uleb128 0xb
 3124 0151 3B       		.uleb128 0x3b
 3125 0152 0B       		.uleb128 0xb
 3126 0153 39       		.uleb128 0x39
 3127 0154 0B       		.uleb128 0xb
 3128 0155 49       		.uleb128 0x49
 3129 0156 13       		.uleb128 0x13
 3130 0157 02       		.uleb128 0x2
 3131 0158 0A       		.uleb128 0xa
 3132 0159 00       		.byte	0
 3133 015a 00       		.byte	0
 3134 015b 19       		.uleb128 0x19
 3135 015c 2E       		.uleb128 0x2e
 3136 015d 01       		.byte	0x1
 3137 015e 03       		.uleb128 0x3
 3138 015f 08       		.uleb128 0x8
 3139 0160 3A       		.uleb128 0x3a
 3140 0161 0B       		.uleb128 0xb
 3141 0162 3B       		.uleb128 0x3b
 3142 0163 0B       		.uleb128 0xb
 3143 0164 39       		.uleb128 0x39
 3144 0165 0B       		.uleb128 0xb
 3145 0166 27       		.uleb128 0x27
 3146 0167 0C       		.uleb128 0xc
 3147 0168 49       		.uleb128 0x49
 3148 0169 13       		.uleb128 0x13
 3149 016a 11       		.uleb128 0x11
GAS LISTING C:\Users\jisu8\AppData\Local\Temp\ccAhT7z4.s 			page 67


 3150 016b 01       		.uleb128 0x1
 3151 016c 12       		.uleb128 0x12
 3152 016d 01       		.uleb128 0x1
 3153 016e 40       		.uleb128 0x40
 3154 016f 06       		.uleb128 0x6
 3155 0170 9642     		.uleb128 0x2116
 3156 0172 0C       		.uleb128 0xc
 3157 0173 01       		.uleb128 0x1
 3158 0174 13       		.uleb128 0x13
 3159 0175 00       		.byte	0
 3160 0176 00       		.byte	0
 3161 0177 1A       		.uleb128 0x1a
 3162 0178 2E       		.uleb128 0x2e
 3163 0179 01       		.byte	0x1
 3164 017a 03       		.uleb128 0x3
 3165 017b 08       		.uleb128 0x8
 3166 017c 3A       		.uleb128 0x3a
 3167 017d 0B       		.uleb128 0xb
 3168 017e 3B       		.uleb128 0x3b
 3169 017f 0B       		.uleb128 0xb
 3170 0180 39       		.uleb128 0x39
 3171 0181 0B       		.uleb128 0xb
 3172 0182 27       		.uleb128 0x27
 3173 0183 0C       		.uleb128 0xc
 3174 0184 49       		.uleb128 0x49
 3175 0185 13       		.uleb128 0x13
 3176 0186 11       		.uleb128 0x11
 3177 0187 01       		.uleb128 0x1
 3178 0188 12       		.uleb128 0x12
 3179 0189 01       		.uleb128 0x1
 3180 018a 40       		.uleb128 0x40
 3181 018b 06       		.uleb128 0x6
 3182 018c 9742     		.uleb128 0x2117
 3183 018e 0C       		.uleb128 0xc
 3184 018f 01       		.uleb128 0x1
 3185 0190 13       		.uleb128 0x13
 3186 0191 00       		.byte	0
 3187 0192 00       		.byte	0
 3188 0193 1B       		.uleb128 0x1b
 3189 0194 2E       		.uleb128 0x2e
 3190 0195 01       		.byte	0x1
 3191 0196 03       		.uleb128 0x3
 3192 0197 08       		.uleb128 0x8
 3193 0198 3A       		.uleb128 0x3a
 3194 0199 0B       		.uleb128 0xb
 3195 019a 3B       		.uleb128 0x3b
 3196 019b 0B       		.uleb128 0xb
 3197 019c 39       		.uleb128 0x39
 3198 019d 0B       		.uleb128 0xb
 3199 019e 27       		.uleb128 0x27
 3200 019f 0C       		.uleb128 0xc
 3201 01a0 49       		.uleb128 0x49
 3202 01a1 13       		.uleb128 0x13
 3203 01a2 11       		.uleb128 0x11
 3204 01a3 01       		.uleb128 0x1
 3205 01a4 12       		.uleb128 0x12
 3206 01a5 01       		.uleb128 0x1
GAS LISTING C:\Users\jisu8\AppData\Local\Temp\ccAhT7z4.s 			page 68


 3207 01a6 40       		.uleb128 0x40
 3208 01a7 06       		.uleb128 0x6
 3209 01a8 9742     		.uleb128 0x2117
 3210 01aa 0C       		.uleb128 0xc
 3211 01ab 00       		.byte	0
 3212 01ac 00       		.byte	0
 3213 01ad 00       		.byte	0
 3214              		.section	.debug_loc,"dr"
 3215              	Ldebug_loc0:
 3216              	LLST5:
 3217 0000 A5080000 		.long	LFB21-Ltext0
 3218 0004 A6080000 		.long	LCFI15-Ltext0
 3219 0008 0200     		.word	0x2
 3220 000a 74       		.byte	0x74
 3221 000b 04       		.sleb128 4
 3222 000c A6080000 		.long	LCFI15-Ltext0
 3223 0010 A8080000 		.long	LCFI16-Ltext0
 3224 0014 0200     		.word	0x2
 3225 0016 74       		.byte	0x74
 3226 0017 08       		.sleb128 8
 3227 0018 A8080000 		.long	LCFI16-Ltext0
 3228 001c 41090000 		.long	LCFI17-Ltext0
 3229 0020 0200     		.word	0x2
 3230 0022 75       		.byte	0x75
 3231 0023 08       		.sleb128 8
 3232 0024 41090000 		.long	LCFI17-Ltext0
 3233 0028 42090000 		.long	LFE21-Ltext0
 3234 002c 0200     		.word	0x2
 3235 002e 74       		.byte	0x74
 3236 002f 04       		.sleb128 4
 3237 0030 00000000 		.long	0
 3238 0034 00000000 		.long	0
 3239              	LLST4:
 3240 0038 53050000 		.long	LFB20-Ltext0
 3241 003c 54050000 		.long	LCFI12-Ltext0
 3242 0040 0200     		.word	0x2
 3243 0042 74       		.byte	0x74
 3244 0043 04       		.sleb128 4
 3245 0044 54050000 		.long	LCFI12-Ltext0
 3246 0048 56050000 		.long	LCFI13-Ltext0
 3247 004c 0200     		.word	0x2
 3248 004e 74       		.byte	0x74
 3249 004f 08       		.sleb128 8
 3250 0050 56050000 		.long	LCFI13-Ltext0
 3251 0054 A4080000 		.long	LCFI14-Ltext0
 3252 0058 0200     		.word	0x2
 3253 005a 75       		.byte	0x75
 3254 005b 08       		.sleb128 8
 3255 005c A4080000 		.long	LCFI14-Ltext0
 3256 0060 A5080000 		.long	LFE20-Ltext0
 3257 0064 0200     		.word	0x2
 3258 0066 74       		.byte	0x74
 3259 0067 04       		.sleb128 4
 3260 0068 00000000 		.long	0
 3261 006c 00000000 		.long	0
 3262              	LLST3:
 3263 0070 0C030000 		.long	LFB19-Ltext0
GAS LISTING C:\Users\jisu8\AppData\Local\Temp\ccAhT7z4.s 			page 69


 3264 0074 0D030000 		.long	LCFI9-Ltext0
 3265 0078 0200     		.word	0x2
 3266 007a 74       		.byte	0x74
 3267 007b 04       		.sleb128 4
 3268 007c 0D030000 		.long	LCFI9-Ltext0
 3269 0080 0F030000 		.long	LCFI10-Ltext0
 3270 0084 0200     		.word	0x2
 3271 0086 74       		.byte	0x74
 3272 0087 08       		.sleb128 8
 3273 0088 0F030000 		.long	LCFI10-Ltext0
 3274 008c 52050000 		.long	LCFI11-Ltext0
 3275 0090 0200     		.word	0x2
 3276 0092 75       		.byte	0x75
 3277 0093 08       		.sleb128 8
 3278 0094 52050000 		.long	LCFI11-Ltext0
 3279 0098 53050000 		.long	LFE19-Ltext0
 3280 009c 0200     		.word	0x2
 3281 009e 74       		.byte	0x74
 3282 009f 04       		.sleb128 4
 3283 00a0 00000000 		.long	0
 3284 00a4 00000000 		.long	0
 3285              	LLST2:
 3286 00a8 AE020000 		.long	LFB18-Ltext0
 3287 00ac AF020000 		.long	LCFI6-Ltext0
 3288 00b0 0200     		.word	0x2
 3289 00b2 74       		.byte	0x74
 3290 00b3 04       		.sleb128 4
 3291 00b4 AF020000 		.long	LCFI6-Ltext0
 3292 00b8 B1020000 		.long	LCFI7-Ltext0
 3293 00bc 0200     		.word	0x2
 3294 00be 74       		.byte	0x74
 3295 00bf 08       		.sleb128 8
 3296 00c0 B1020000 		.long	LCFI7-Ltext0
 3297 00c4 0B030000 		.long	LCFI8-Ltext0
 3298 00c8 0200     		.word	0x2
 3299 00ca 75       		.byte	0x75
 3300 00cb 08       		.sleb128 8
 3301 00cc 0B030000 		.long	LCFI8-Ltext0
 3302 00d0 0C030000 		.long	LFE18-Ltext0
 3303 00d4 0200     		.word	0x2
 3304 00d6 74       		.byte	0x74
 3305 00d7 04       		.sleb128 4
 3306 00d8 00000000 		.long	0
 3307 00dc 00000000 		.long	0
 3308              	LLST1:
 3309 00e0 67000000 		.long	LFB17-Ltext0
 3310 00e4 68000000 		.long	LCFI3-Ltext0
 3311 00e8 0200     		.word	0x2
 3312 00ea 74       		.byte	0x74
 3313 00eb 04       		.sleb128 4
 3314 00ec 68000000 		.long	LCFI3-Ltext0
 3315 00f0 6A000000 		.long	LCFI4-Ltext0
 3316 00f4 0200     		.word	0x2
 3317 00f6 74       		.byte	0x74
 3318 00f7 08       		.sleb128 8
 3319 00f8 6A000000 		.long	LCFI4-Ltext0
 3320 00fc AD020000 		.long	LCFI5-Ltext0
GAS LISTING C:\Users\jisu8\AppData\Local\Temp\ccAhT7z4.s 			page 70


 3321 0100 0200     		.word	0x2
 3322 0102 75       		.byte	0x75
 3323 0103 08       		.sleb128 8
 3324 0104 AD020000 		.long	LCFI5-Ltext0
 3325 0108 AE020000 		.long	LFE17-Ltext0
 3326 010c 0200     		.word	0x2
 3327 010e 74       		.byte	0x74
 3328 010f 04       		.sleb128 4
 3329 0110 00000000 		.long	0
 3330 0114 00000000 		.long	0
 3331              	LLST0:
 3332 0118 00000000 		.long	LFB16-Ltext0
 3333 011c 01000000 		.long	LCFI0-Ltext0
 3334 0120 0200     		.word	0x2
 3335 0122 74       		.byte	0x74
 3336 0123 04       		.sleb128 4
 3337 0124 01000000 		.long	LCFI0-Ltext0
 3338 0128 03000000 		.long	LCFI1-Ltext0
 3339 012c 0200     		.word	0x2
 3340 012e 74       		.byte	0x74
 3341 012f 08       		.sleb128 8
 3342 0130 03000000 		.long	LCFI1-Ltext0
 3343 0134 66000000 		.long	LCFI2-Ltext0
 3344 0138 0200     		.word	0x2
 3345 013a 75       		.byte	0x75
 3346 013b 08       		.sleb128 8
 3347 013c 66000000 		.long	LCFI2-Ltext0
 3348 0140 67000000 		.long	LFE16-Ltext0
 3349 0144 0200     		.word	0x2
 3350 0146 74       		.byte	0x74
 3351 0147 04       		.sleb128 4
 3352 0148 00000000 		.long	0
 3353 014c 00000000 		.long	0
 3354              		.section	.debug_aranges,"dr"
 3355 0000 1C000000 		.long	0x1c
 3356 0004 0200     		.word	0x2
 3357 0006 00000000 		.secrel32	Ldebug_info0
 3358 000a 04       		.byte	0x4
 3359 000b 00       		.byte	0
 3360 000c 0000     		.word	0
 3361 000e 0000     		.word	0
 3362 0010 00000000 		.long	Ltext0
 3363 0014 42090000 		.long	Letext0-Ltext0
 3364 0018 00000000 		.long	0
 3365 001c 00000000 		.long	0
 3366              		.section	.debug_line,"dr"
 3367              	Ldebug_line0:
 3368 0000 F9030000 		.section	.debug_str,"dr"
 3368      0200CA01 
 3368      00000101 
 3368      FB0E0D00 
 3368      01010101 
 3369              	LASF7:
 3370 0000 73746174 		.ascii "status\0"
 3370      757300
 3371              	LASF0:
 3372 0007 63686172 		.ascii "characterSet\0"
GAS LISTING C:\Users\jisu8\AppData\Local\Temp\ccAhT7z4.s 			page 71


 3372      61637465 
 3372      72536574 
 3372      00
 3373              	LASF3:
 3374 0014 5F726177 		.ascii "_rawBytes\0"
 3374      42797465 
 3374      7300
 3375              	LASF6:
 3376 001e 5F726561 		.ascii "_readerInit\0"
 3376      64657249 
 3376      6E697400 
 3377              	LASF5:
 3378 002a 5F65634C 		.ascii "_ecLevel\0"
 3378      6576656C 
 3378      00
 3379              	LASF1:
 3380 0033 6D5F6861 		.ascii "m_hasValue\0"
 3380      7356616C 
 3380      756500
 3381              	LASF4:
 3382 003e 5F6E756D 		.ascii "_numBits\0"
 3382      42697473 
 3382      00
 3383              	LASF2:
 3384 0047 6D5F7661 		.ascii "m_value\0"
 3384      6C756500 
 3385              		.ident	"GCC: (i686-posix-dwarf-rev0, Built by MinGW-W64 project) 8.1.0"
GAS LISTING C:\Users\jisu8\AppData\Local\Temp\ccAhT7z4.s 			page 72


DEFINED SYMBOLS
                            *ABS*:00000000 PDFReader.c
C:\Users\jisu8\AppData\Local\Temp\ccAhT7z4.s:6      .rdata:00000000 _MODULES_IN_STOP_PATTERN
C:\Users\jisu8\AppData\Local\Temp\ccAhT7z4.s:10     .text:00000000 _GetMinWidth
C:\Users\jisu8\AppData\Local\Temp\ccAhT7z4.s:80     .text:00000067 _GetMinCodewordWidth
C:\Users\jisu8\AppData\Local\Temp\ccAhT7z4.s:308    .text:000002ae _GetMaxWidth
C:\Users\jisu8\AppData\Local\Temp\ccAhT7z4.s:374    .text:0000030c _GetMaxCodewordWidth
C:\Users\jisu8\AppData\Local\Temp\ccAhT7z4.s:608    .text:00000553 _DoDecode
C:\Users\jisu8\AppData\Local\Temp\ccAhT7z4.s:935    .text:000008a5 _decode

UNDEFINED SYMBOLS
_MODULES_IN_CODEWORD
_printf
_Detect
_result_init
_Decode
