GAS LISTING C:\Users\jisu8\AppData\Local\Temp\ccLTtEny.s 			page 1


   1              		.file	"PDFReader.c"
   2              		.text
   3              	Ltext0:
   4              		.section .rdata,"dr"
   5              		.align 4
   6              	_MODULES_IN_STOP_PATTERN:
   7 0000 12000000 		.long	18
   8              		.text
  10              	_GetMinWidth:
  11              	LFB16:
  12              		.file 1 "src/pdf417/PDFReader.c"
   1:src/pdf417/PDFReader.c **** 
   2:src/pdf417/PDFReader.c **** #include "PDFReader.h"
   3:src/pdf417/PDFReader.c **** #include "DecodeStatus.h"
   4:src/pdf417/PDFReader.c **** #include "DecodeHints.h"
   5:src/pdf417/PDFReader.c **** #include "PDFDetector.h"
   6:src/pdf417/PDFReader.c **** #include "PDFCodewordDecoder.h"
   7:src/pdf417/PDFReader.c **** #include "PDFScanningDecoder.h"
   8:src/pdf417/PDFReader.c **** #include "DecoderResult.h"
   9:src/pdf417/PDFReader.c **** #include <stdlib.h>
  10:src/pdf417/PDFReader.c **** 
  11:src/pdf417/PDFReader.c **** static const int MODULES_IN_STOP_PATTERN = 18;
  12:src/pdf417/PDFReader.c **** 
  13:src/pdf417/PDFReader.c **** #define INT_MAX       2147483647
  14:src/pdf417/PDFReader.c **** 
  15:src/pdf417/PDFReader.c **** static int GetMinWidth(ResultPoint_t * p1, ResultPoint_t * p2)
  16:src/pdf417/PDFReader.c **** {
  13              		.loc 1 16 1
  14              		.cfi_startproc
  15 0000 55       		pushl	%ebp
  16              	LCFI0:
  17              		.cfi_def_cfa_offset 8
  18              		.cfi_offset 5, -8
  19 0001 89E5     		movl	%esp, %ebp
  20              	LCFI1:
  21              		.cfi_def_cfa_register 5
  22 0003 83EC08   		subl	$8, %esp
  17:src/pdf417/PDFReader.c **** 	if (p1->m_hasValue == 0 || p2->m_hasValue == 0) 
  23              		.loc 1 17 8
  24 0006 8B4508   		movl	8(%ebp), %eax
  25 0009 0FB600   		movzbl	(%eax), %eax
  26              		.loc 1 17 5
  27 000c 84C0     		testb	%al, %al
  28 000e 740A     		je	L2
  29              		.loc 1 17 31 discriminator 1
  30 0010 8B450C   		movl	12(%ebp), %eax
  31 0013 0FB600   		movzbl	(%eax), %eax
  32              		.loc 1 17 26 discriminator 1
  33 0016 84C0     		testb	%al, %al
  34 0018 7510     		jne	L3
  35              	L2:
  18:src/pdf417/PDFReader.c **** 	{
  19:src/pdf417/PDFReader.c **** 		// the division prevents an integer overflow (see below). 120 million is still sufficiently large
  20:src/pdf417/PDFReader.c **** 		return (int)INT_MAX / MODULES_IN_CODEWORD;
  36              		.loc 1 20 23
  37 001a 8B0D0000 		movl	_MODULES_IN_CODEWORD, %ecx
  37      0000
GAS LISTING C:\Users\jisu8\AppData\Local\Temp\ccLTtEny.s 			page 2


  38 0020 B8FFFFFF 		movl	$2147483647, %eax
  38      7F
  39 0025 99       		cltd
  40 0026 F7F9     		idivl	%ecx
  41 0028 EB3B     		jmp	L4
  42              	L3:
  21:src/pdf417/PDFReader.c **** 	}
  22:src/pdf417/PDFReader.c **** 
  23:src/pdf417/PDFReader.c **** 	return abs((int)(p1->m_value.x) - (int)(p2->m_value.x));
  43              		.loc 1 23 30
  44 002a 8B4508   		movl	8(%ebp), %eax
  45 002d D94004   		flds	4(%eax)
  46              		.loc 1 23 13
  47 0030 D97DFE   		fnstcw	-2(%ebp)
  48 0033 0FB745FE 		movzwl	-2(%ebp), %eax
  49 0037 80CC0C   		orb	$12, %ah
  50 003a 668945FC 		movw	%ax, -4(%ebp)
  51 003e D96DFC   		fldcw	-4(%ebp)
  52 0041 DB5DF8   		fistpl	-8(%ebp)
  53 0044 D96DFE   		fldcw	-2(%ebp)
  54 0047 8B55F8   		movl	-8(%ebp), %edx
  55              		.loc 1 23 53
  56 004a 8B450C   		movl	12(%ebp), %eax
  57 004d D94004   		flds	4(%eax)
  58              		.loc 1 23 36
  59 0050 D96DFC   		fldcw	-4(%ebp)
  60 0053 DB5DF8   		fistpl	-8(%ebp)
  61 0056 D96DFE   		fldcw	-2(%ebp)
  62 0059 8B45F8   		movl	-8(%ebp), %eax
  63              		.loc 1 23 34
  64 005c 29C2     		subl	%eax, %edx
  65 005e 89D0     		movl	%edx, %eax
  66              		.loc 1 23 9
  67 0060 99       		cltd
  68 0061 31D0     		xorl	%edx, %eax
  69 0063 29D0     		subl	%edx, %eax
  70              	L4:
  24:src/pdf417/PDFReader.c **** }
  71              		.loc 1 24 1
  72 0065 C9       		leave
  73              	LCFI2:
  74              		.cfi_restore 5
  75              		.cfi_def_cfa 4, 4
  76 0066 C3       		ret
  77              		.cfi_endproc
  78              	LFE16:
  80              	_GetMinCodewordWidth:
  81              	LFB17:
  25:src/pdf417/PDFReader.c **** 
  26:src/pdf417/PDFReader.c **** static int GetMinCodewordWidth(ResultPoint_t * p)
  27:src/pdf417/PDFReader.c **** {
  82              		.loc 1 27 1
  83              		.cfi_startproc
  84 0067 55       		pushl	%ebp
  85              	LCFI3:
  86              		.cfi_def_cfa_offset 8
  87              		.cfi_offset 5, -8
GAS LISTING C:\Users\jisu8\AppData\Local\Temp\ccLTtEny.s 			page 3


  88 0068 89E5     		movl	%esp, %ebp
  89              	LCFI4:
  90              		.cfi_def_cfa_register 5
  91 006a 56       		pushl	%esi
  92 006b 53       		pushl	%ebx
  93 006c 83EC08   		subl	$8, %esp
  94              		.cfi_offset 6, -12
  95              		.cfi_offset 3, -16
  28:src/pdf417/PDFReader.c **** 	return __min(__min(GetMinWidth(p, p+4), GetMinWidth(p+6, p+2) * MODULES_IN_CODEWORD / MODULES_IN_S
  96              		.loc 1 28 9
  97 006f 8B4508   		movl	8(%ebp), %eax
  98 0072 83C030   		addl	$48, %eax
  99 0075 89442404 		movl	%eax, 4(%esp)
 100 0079 8B4508   		movl	8(%ebp), %eax
 101 007c 890424   		movl	%eax, (%esp)
 102 007f E87CFFFF 		call	_GetMinWidth
 102      FF
 103 0084 89C3     		movl	%eax, %ebx
 104 0086 8B4508   		movl	8(%ebp), %eax
 105 0089 8D5018   		leal	24(%eax), %edx
 106 008c 8B4508   		movl	8(%ebp), %eax
 107 008f 83C048   		addl	$72, %eax
 108 0092 89542404 		movl	%edx, 4(%esp)
 109 0096 890424   		movl	%eax, (%esp)
 110 0099 E862FFFF 		call	_GetMinWidth
 110      FF
 111 009e 89C2     		movl	%eax, %edx
 112 00a0 A1000000 		movl	_MODULES_IN_CODEWORD, %eax
 112      00
 113 00a5 0FAFC2   		imull	%edx, %eax
 114 00a8 B9120000 		movl	$18, %ecx
 114      00
 115 00ad 99       		cltd
 116 00ae F7F9     		idivl	%ecx
 117 00b0 39C3     		cmpl	%eax, %ebx
 118 00b2 7D19     		jge	L6
 119              		.loc 1 28 9 is_stmt 0 discriminator 1
 120 00b4 8B4508   		movl	8(%ebp), %eax
 121 00b7 83C030   		addl	$48, %eax
 122 00ba 89442404 		movl	%eax, 4(%esp)
 123 00be 8B4508   		movl	8(%ebp), %eax
 124 00c1 890424   		movl	%eax, (%esp)
 125 00c4 E837FFFF 		call	_GetMinWidth
 125      FF
 126 00c9 89C3     		movl	%eax, %ebx
 127 00cb EB2C     		jmp	L7
 128              	L6:
 129              		.loc 1 28 9 discriminator 2
 130 00cd 8B4508   		movl	8(%ebp), %eax
 131 00d0 8D5018   		leal	24(%eax), %edx
 132 00d3 8B4508   		movl	8(%ebp), %eax
 133 00d6 83C048   		addl	$72, %eax
 134 00d9 89542404 		movl	%edx, 4(%esp)
 135 00dd 890424   		movl	%eax, (%esp)
 136 00e0 E81BFFFF 		call	_GetMinWidth
 136      FF
 137 00e5 89C2     		movl	%eax, %edx
GAS LISTING C:\Users\jisu8\AppData\Local\Temp\ccLTtEny.s 			page 4


 138 00e7 A1000000 		movl	_MODULES_IN_CODEWORD, %eax
 138      00
 139 00ec 0FAFC2   		imull	%edx, %eax
 140 00ef B9120000 		movl	$18, %ecx
 140      00
 141 00f4 99       		cltd
 142 00f5 F7F9     		idivl	%ecx
 143 00f7 89C3     		movl	%eax, %ebx
 144              	L7:
 145              		.loc 1 28 9 discriminator 4
 146 00f9 8B4508   		movl	8(%ebp), %eax
 147 00fc 8D503C   		leal	60(%eax), %edx
 148 00ff 8B4508   		movl	8(%ebp), %eax
 149 0102 83C00C   		addl	$12, %eax
 150 0105 89542404 		movl	%edx, 4(%esp)
 151 0109 890424   		movl	%eax, (%esp)
 152 010c E8EFFEFF 		call	_GetMinWidth
 152      FF
 153 0111 89C6     		movl	%eax, %esi
 154 0113 8B4508   		movl	8(%ebp), %eax
 155 0116 8D5024   		leal	36(%eax), %edx
 156 0119 8B4508   		movl	8(%ebp), %eax
 157 011c 83C054   		addl	$84, %eax
 158 011f 89542404 		movl	%edx, 4(%esp)
 159 0123 890424   		movl	%eax, (%esp)
 160 0126 E8D5FEFF 		call	_GetMinWidth
 160      FF
 161 012b 89C2     		movl	%eax, %edx
 162 012d A1000000 		movl	_MODULES_IN_CODEWORD, %eax
 162      00
 163 0132 0FAFC2   		imull	%edx, %eax
 164 0135 B9120000 		movl	$18, %ecx
 164      00
 165 013a 99       		cltd
 166 013b F7F9     		idivl	%ecx
 167 013d 39C6     		cmpl	%eax, %esi
 168 013f 7D1A     		jge	L8
 169              		.loc 1 28 9 discriminator 5
 170 0141 8B4508   		movl	8(%ebp), %eax
 171 0144 8D503C   		leal	60(%eax), %edx
 172 0147 8B4508   		movl	8(%ebp), %eax
 173 014a 83C00C   		addl	$12, %eax
 174 014d 89542404 		movl	%edx, 4(%esp)
 175 0151 890424   		movl	%eax, (%esp)
 176 0154 E8A7FEFF 		call	_GetMinWidth
 176      FF
 177 0159 EB2A     		jmp	L9
 178              	L8:
 179              		.loc 1 28 9 discriminator 6
 180 015b 8B4508   		movl	8(%ebp), %eax
 181 015e 8D5024   		leal	36(%eax), %edx
 182 0161 8B4508   		movl	8(%ebp), %eax
 183 0164 83C054   		addl	$84, %eax
 184 0167 89542404 		movl	%edx, 4(%esp)
 185 016b 890424   		movl	%eax, (%esp)
 186 016e E88DFEFF 		call	_GetMinWidth
 186      FF
GAS LISTING C:\Users\jisu8\AppData\Local\Temp\ccLTtEny.s 			page 5


 187 0173 89C2     		movl	%eax, %edx
 188 0175 A1000000 		movl	_MODULES_IN_CODEWORD, %eax
 188      00
 189 017a 0FAFC2   		imull	%edx, %eax
 190 017d BE120000 		movl	$18, %esi
 190      00
 191 0182 99       		cltd
 192 0183 F7FE     		idivl	%esi
 193              	L9:
 194              		.loc 1 28 9 discriminator 8
 195 0185 39C3     		cmpl	%eax, %ebx
 196 0187 0F8D8E00 		jge	L10
 196      0000
 197              		.loc 1 28 9 discriminator 9
 198 018d 8B4508   		movl	8(%ebp), %eax
 199 0190 83C030   		addl	$48, %eax
 200 0193 89442404 		movl	%eax, 4(%esp)
 201 0197 8B4508   		movl	8(%ebp), %eax
 202 019a 890424   		movl	%eax, (%esp)
 203 019d E85EFEFF 		call	_GetMinWidth
 203      FF
 204 01a2 89C3     		movl	%eax, %ebx
 205 01a4 8B4508   		movl	8(%ebp), %eax
 206 01a7 8D5018   		leal	24(%eax), %edx
 207 01aa 8B4508   		movl	8(%ebp), %eax
 208 01ad 83C048   		addl	$72, %eax
 209 01b0 89542404 		movl	%edx, 4(%esp)
 210 01b4 890424   		movl	%eax, (%esp)
 211 01b7 E844FEFF 		call	_GetMinWidth
 211      FF
 212 01bc 89C2     		movl	%eax, %edx
 213 01be A1000000 		movl	_MODULES_IN_CODEWORD, %eax
 213      00
 214 01c3 0FAFC2   		imull	%edx, %eax
 215 01c6 BE120000 		movl	$18, %esi
 215      00
 216 01cb 99       		cltd
 217 01cc F7FE     		idivl	%esi
 218 01ce 39C3     		cmpl	%eax, %ebx
 219 01d0 7D1A     		jge	L11
 220              		.loc 1 28 9 discriminator 11
 221 01d2 8B4508   		movl	8(%ebp), %eax
 222 01d5 83C030   		addl	$48, %eax
 223 01d8 89442404 		movl	%eax, 4(%esp)
 224 01dc 8B4508   		movl	8(%ebp), %eax
 225 01df 890424   		movl	%eax, (%esp)
 226 01e2 E819FEFF 		call	_GetMinWidth
 226      FF
 227 01e7 E9BB0000 		jmp	L16
 227      00
 228              	L11:
 229              		.loc 1 28 9 discriminator 12
 230 01ec 8B4508   		movl	8(%ebp), %eax
 231 01ef 8D5018   		leal	24(%eax), %edx
 232 01f2 8B4508   		movl	8(%ebp), %eax
 233 01f5 83C048   		addl	$72, %eax
 234 01f8 89542404 		movl	%edx, 4(%esp)
GAS LISTING C:\Users\jisu8\AppData\Local\Temp\ccLTtEny.s 			page 6


 235 01fc 890424   		movl	%eax, (%esp)
 236 01ff E8FCFDFF 		call	_GetMinWidth
 236      FF
 237 0204 89C2     		movl	%eax, %edx
 238 0206 A1000000 		movl	_MODULES_IN_CODEWORD, %eax
 238      00
 239 020b 0FAFC2   		imull	%edx, %eax
 240 020e B9120000 		movl	$18, %ecx
 240      00
 241 0213 99       		cltd
 242 0214 F7F9     		idivl	%ecx
 243 0216 E98C0000 		jmp	L16
 243      00
 244              	L10:
 245              		.loc 1 28 9 discriminator 10
 246 021b 8B4508   		movl	8(%ebp), %eax
 247 021e 8D503C   		leal	60(%eax), %edx
 248 0221 8B4508   		movl	8(%ebp), %eax
 249 0224 83C00C   		addl	$12, %eax
 250 0227 89542404 		movl	%edx, 4(%esp)
 251 022b 890424   		movl	%eax, (%esp)
 252 022e E8CDFDFF 		call	_GetMinWidth
 252      FF
 253 0233 89C3     		movl	%eax, %ebx
 254 0235 8B4508   		movl	8(%ebp), %eax
 255 0238 8D5024   		leal	36(%eax), %edx
 256 023b 8B4508   		movl	8(%ebp), %eax
 257 023e 83C054   		addl	$84, %eax
 258 0241 89542404 		movl	%edx, 4(%esp)
 259 0245 890424   		movl	%eax, (%esp)
 260 0248 E8B3FDFF 		call	_GetMinWidth
 260      FF
 261 024d 89C2     		movl	%eax, %edx
 262 024f A1000000 		movl	_MODULES_IN_CODEWORD, %eax
 262      00
 263 0254 0FAFC2   		imull	%edx, %eax
 264 0257 BE120000 		movl	$18, %esi
 264      00
 265 025c 99       		cltd
 266 025d F7FE     		idivl	%esi
 267 025f 39C3     		cmpl	%eax, %ebx
 268 0261 7D1A     		jge	L14
 269              		.loc 1 28 9 discriminator 16
 270 0263 8B4508   		movl	8(%ebp), %eax
 271 0266 8D503C   		leal	60(%eax), %edx
 272 0269 8B4508   		movl	8(%ebp), %eax
 273 026c 83C00C   		addl	$12, %eax
 274 026f 89542404 		movl	%edx, 4(%esp)
 275 0273 890424   		movl	%eax, (%esp)
 276 0276 E885FDFF 		call	_GetMinWidth
 276      FF
 277 027b EB2A     		jmp	L16
 278              	L14:
 279              		.loc 1 28 9 discriminator 17
 280 027d 8B4508   		movl	8(%ebp), %eax
 281 0280 8D5024   		leal	36(%eax), %edx
 282 0283 8B4508   		movl	8(%ebp), %eax
GAS LISTING C:\Users\jisu8\AppData\Local\Temp\ccLTtEny.s 			page 7


 283 0286 83C054   		addl	$84, %eax
 284 0289 89542404 		movl	%edx, 4(%esp)
 285 028d 890424   		movl	%eax, (%esp)
 286 0290 E86BFDFF 		call	_GetMinWidth
 286      FF
 287 0295 89C2     		movl	%eax, %edx
 288 0297 A1000000 		movl	_MODULES_IN_CODEWORD, %eax
 288      00
 289 029c 0FAFC2   		imull	%edx, %eax
 290 029f B9120000 		movl	$18, %ecx
 290      00
 291 02a4 99       		cltd
 292 02a5 F7F9     		idivl	%ecx
 293              	L16:
  29:src/pdf417/PDFReader.c **** 					__min(GetMinWidth(p+1, p+5), GetMinWidth(p+7, p+3) * MODULES_IN_CODEWORD / MODULES_IN_STOP_PAT
  30:src/pdf417/PDFReader.c **** }
 294              		.loc 1 30 1 is_stmt 1 discriminator 21
 295 02a7 83C408   		addl	$8, %esp
 296 02aa 5B       		popl	%ebx
 297              		.cfi_restore 3
 298 02ab 5E       		popl	%esi
 299              		.cfi_restore 6
 300 02ac 5D       		popl	%ebp
 301              	LCFI5:
 302              		.cfi_restore 5
 303              		.cfi_def_cfa 4, 4
 304 02ad C3       		ret
 305              		.cfi_endproc
 306              	LFE17:
 308              	_GetMaxWidth:
 309              	LFB18:
  31:src/pdf417/PDFReader.c **** 
  32:src/pdf417/PDFReader.c **** static int GetMaxWidth(ResultPoint_t * p1, ResultPoint_t * p2)
  33:src/pdf417/PDFReader.c **** {
 310              		.loc 1 33 1
 311              		.cfi_startproc
 312 02ae 55       		pushl	%ebp
 313              	LCFI6:
 314              		.cfi_def_cfa_offset 8
 315              		.cfi_offset 5, -8
 316 02af 89E5     		movl	%esp, %ebp
 317              	LCFI7:
 318              		.cfi_def_cfa_register 5
 319 02b1 83EC08   		subl	$8, %esp
  34:src/pdf417/PDFReader.c **** 	if (p1->m_hasValue == 0 || p2->m_hasValue == 0) 
 320              		.loc 1 34 8
 321 02b4 8B4508   		movl	8(%ebp), %eax
 322 02b7 0FB600   		movzbl	(%eax), %eax
 323              		.loc 1 34 5
 324 02ba 84C0     		testb	%al, %al
 325 02bc 740A     		je	L18
 326              		.loc 1 34 31 discriminator 1
 327 02be 8B450C   		movl	12(%ebp), %eax
 328 02c1 0FB600   		movzbl	(%eax), %eax
 329              		.loc 1 34 26 discriminator 1
 330 02c4 84C0     		testb	%al, %al
 331 02c6 7507     		jne	L19
GAS LISTING C:\Users\jisu8\AppData\Local\Temp\ccLTtEny.s 			page 8


 332              	L18:
  35:src/pdf417/PDFReader.c **** 	{
  36:src/pdf417/PDFReader.c **** 		return 0;
 333              		.loc 1 36 10
 334 02c8 B8000000 		movl	$0, %eax
 334      00
 335 02cd EB3B     		jmp	L20
 336              	L19:
  37:src/pdf417/PDFReader.c **** 	}
  38:src/pdf417/PDFReader.c **** 
  39:src/pdf417/PDFReader.c **** 	return abs((int)(p1->m_value.x) - (int)(p2->m_value.x));
 337              		.loc 1 39 30
 338 02cf 8B4508   		movl	8(%ebp), %eax
 339 02d2 D94004   		flds	4(%eax)
 340              		.loc 1 39 13
 341 02d5 D97DFE   		fnstcw	-2(%ebp)
 342 02d8 0FB745FE 		movzwl	-2(%ebp), %eax
 343 02dc 80CC0C   		orb	$12, %ah
 344 02df 668945FC 		movw	%ax, -4(%ebp)
 345 02e3 D96DFC   		fldcw	-4(%ebp)
 346 02e6 DB5DF8   		fistpl	-8(%ebp)
 347 02e9 D96DFE   		fldcw	-2(%ebp)
 348 02ec 8B55F8   		movl	-8(%ebp), %edx
 349              		.loc 1 39 53
 350 02ef 8B450C   		movl	12(%ebp), %eax
 351 02f2 D94004   		flds	4(%eax)
 352              		.loc 1 39 36
 353 02f5 D96DFC   		fldcw	-4(%ebp)
 354 02f8 DB5DF8   		fistpl	-8(%ebp)
 355 02fb D96DFE   		fldcw	-2(%ebp)
 356 02fe 8B45F8   		movl	-8(%ebp), %eax
 357              		.loc 1 39 34
 358 0301 29C2     		subl	%eax, %edx
 359 0303 89D0     		movl	%edx, %eax
 360              		.loc 1 39 9
 361 0305 99       		cltd
 362 0306 31D0     		xorl	%edx, %eax
 363 0308 29D0     		subl	%edx, %eax
 364              	L20:
  40:src/pdf417/PDFReader.c **** }
 365              		.loc 1 40 1
 366 030a C9       		leave
 367              	LCFI8:
 368              		.cfi_restore 5
 369              		.cfi_def_cfa 4, 4
 370 030b C3       		ret
 371              		.cfi_endproc
 372              	LFE18:
 374              	_GetMaxCodewordWidth:
 375              	LFB19:
  41:src/pdf417/PDFReader.c **** 
  42:src/pdf417/PDFReader.c **** static int GetMaxCodewordWidth(ResultPoint_t * p)
  43:src/pdf417/PDFReader.c **** {
 376              		.loc 1 43 1
 377              		.cfi_startproc
 378 030c 55       		pushl	%ebp
 379              	LCFI9:
GAS LISTING C:\Users\jisu8\AppData\Local\Temp\ccLTtEny.s 			page 9


 380              		.cfi_def_cfa_offset 8
 381              		.cfi_offset 5, -8
 382 030d 89E5     		movl	%esp, %ebp
 383              	LCFI10:
 384              		.cfi_def_cfa_register 5
 385 030f 56       		pushl	%esi
 386 0310 53       		pushl	%ebx
 387 0311 83EC08   		subl	$8, %esp
 388              		.cfi_offset 6, -12
 389              		.cfi_offset 3, -16
  44:src/pdf417/PDFReader.c **** 	return __max(__max(GetMaxWidth(p, p+4), GetMaxWidth(p+6, p+2) * MODULES_IN_CODEWORD / MODULES_IN_S
 390              		.loc 1 44 9
 391 0314 8B4508   		movl	8(%ebp), %eax
 392 0317 83C030   		addl	$48, %eax
 393 031a 89442404 		movl	%eax, 4(%esp)
 394 031e 8B4508   		movl	8(%ebp), %eax
 395 0321 890424   		movl	%eax, (%esp)
 396 0324 E885FFFF 		call	_GetMaxWidth
 396      FF
 397 0329 89C3     		movl	%eax, %ebx
 398 032b 8B4508   		movl	8(%ebp), %eax
 399 032e 8D5018   		leal	24(%eax), %edx
 400 0331 8B4508   		movl	8(%ebp), %eax
 401 0334 83C048   		addl	$72, %eax
 402 0337 89542404 		movl	%edx, 4(%esp)
 403 033b 890424   		movl	%eax, (%esp)
 404 033e E86BFFFF 		call	_GetMaxWidth
 404      FF
 405 0343 89C2     		movl	%eax, %edx
 406 0345 A1000000 		movl	_MODULES_IN_CODEWORD, %eax
 406      00
 407 034a 0FAFC2   		imull	%edx, %eax
 408 034d B9120000 		movl	$18, %ecx
 408      00
 409 0352 99       		cltd
 410 0353 F7F9     		idivl	%ecx
 411 0355 39C3     		cmpl	%eax, %ebx
 412 0357 7E19     		jle	L22
 413              		.loc 1 44 9 is_stmt 0 discriminator 1
 414 0359 8B4508   		movl	8(%ebp), %eax
 415 035c 83C030   		addl	$48, %eax
 416 035f 89442404 		movl	%eax, 4(%esp)
 417 0363 8B4508   		movl	8(%ebp), %eax
 418 0366 890424   		movl	%eax, (%esp)
 419 0369 E840FFFF 		call	_GetMaxWidth
 419      FF
 420 036e 89C3     		movl	%eax, %ebx
 421 0370 EB2C     		jmp	L23
 422              	L22:
 423              		.loc 1 44 9 discriminator 2
 424 0372 8B4508   		movl	8(%ebp), %eax
 425 0375 8D5018   		leal	24(%eax), %edx
 426 0378 8B4508   		movl	8(%ebp), %eax
 427 037b 83C048   		addl	$72, %eax
 428 037e 89542404 		movl	%edx, 4(%esp)
 429 0382 890424   		movl	%eax, (%esp)
 430 0385 E824FFFF 		call	_GetMaxWidth
GAS LISTING C:\Users\jisu8\AppData\Local\Temp\ccLTtEny.s 			page 10


 430      FF
 431 038a 89C2     		movl	%eax, %edx
 432 038c A1000000 		movl	_MODULES_IN_CODEWORD, %eax
 432      00
 433 0391 0FAFC2   		imull	%edx, %eax
 434 0394 B9120000 		movl	$18, %ecx
 434      00
 435 0399 99       		cltd
 436 039a F7F9     		idivl	%ecx
 437 039c 89C3     		movl	%eax, %ebx
 438              	L23:
 439              		.loc 1 44 9 discriminator 4
 440 039e 8B4508   		movl	8(%ebp), %eax
 441 03a1 8D503C   		leal	60(%eax), %edx
 442 03a4 8B4508   		movl	8(%ebp), %eax
 443 03a7 83C00C   		addl	$12, %eax
 444 03aa 89542404 		movl	%edx, 4(%esp)
 445 03ae 890424   		movl	%eax, (%esp)
 446 03b1 E8F8FEFF 		call	_GetMaxWidth
 446      FF
 447 03b6 89C6     		movl	%eax, %esi
 448 03b8 8B4508   		movl	8(%ebp), %eax
 449 03bb 8D5024   		leal	36(%eax), %edx
 450 03be 8B4508   		movl	8(%ebp), %eax
 451 03c1 83C054   		addl	$84, %eax
 452 03c4 89542404 		movl	%edx, 4(%esp)
 453 03c8 890424   		movl	%eax, (%esp)
 454 03cb E8DEFEFF 		call	_GetMaxWidth
 454      FF
 455 03d0 89C2     		movl	%eax, %edx
 456 03d2 A1000000 		movl	_MODULES_IN_CODEWORD, %eax
 456      00
 457 03d7 0FAFC2   		imull	%edx, %eax
 458 03da B9120000 		movl	$18, %ecx
 458      00
 459 03df 99       		cltd
 460 03e0 F7F9     		idivl	%ecx
 461 03e2 39C6     		cmpl	%eax, %esi
 462 03e4 7E1A     		jle	L24
 463              		.loc 1 44 9 discriminator 5
 464 03e6 8B4508   		movl	8(%ebp), %eax
 465 03e9 8D503C   		leal	60(%eax), %edx
 466 03ec 8B4508   		movl	8(%ebp), %eax
 467 03ef 83C00C   		addl	$12, %eax
 468 03f2 89542404 		movl	%edx, 4(%esp)
 469 03f6 890424   		movl	%eax, (%esp)
 470 03f9 E8B0FEFF 		call	_GetMaxWidth
 470      FF
 471 03fe EB2A     		jmp	L25
 472              	L24:
 473              		.loc 1 44 9 discriminator 6
 474 0400 8B4508   		movl	8(%ebp), %eax
 475 0403 8D5024   		leal	36(%eax), %edx
 476 0406 8B4508   		movl	8(%ebp), %eax
 477 0409 83C054   		addl	$84, %eax
 478 040c 89542404 		movl	%edx, 4(%esp)
 479 0410 890424   		movl	%eax, (%esp)
GAS LISTING C:\Users\jisu8\AppData\Local\Temp\ccLTtEny.s 			page 11


 480 0413 E896FEFF 		call	_GetMaxWidth
 480      FF
 481 0418 89C2     		movl	%eax, %edx
 482 041a A1000000 		movl	_MODULES_IN_CODEWORD, %eax
 482      00
 483 041f 0FAFC2   		imull	%edx, %eax
 484 0422 BE120000 		movl	$18, %esi
 484      00
 485 0427 99       		cltd
 486 0428 F7FE     		idivl	%esi
 487              	L25:
 488              		.loc 1 44 9 discriminator 8
 489 042a 39C3     		cmpl	%eax, %ebx
 490 042c 0F8E8E00 		jle	L26
 490      0000
 491              		.loc 1 44 9 discriminator 9
 492 0432 8B4508   		movl	8(%ebp), %eax
 493 0435 83C030   		addl	$48, %eax
 494 0438 89442404 		movl	%eax, 4(%esp)
 495 043c 8B4508   		movl	8(%ebp), %eax
 496 043f 890424   		movl	%eax, (%esp)
 497 0442 E867FEFF 		call	_GetMaxWidth
 497      FF
 498 0447 89C3     		movl	%eax, %ebx
 499 0449 8B4508   		movl	8(%ebp), %eax
 500 044c 8D5018   		leal	24(%eax), %edx
 501 044f 8B4508   		movl	8(%ebp), %eax
 502 0452 83C048   		addl	$72, %eax
 503 0455 89542404 		movl	%edx, 4(%esp)
 504 0459 890424   		movl	%eax, (%esp)
 505 045c E84DFEFF 		call	_GetMaxWidth
 505      FF
 506 0461 89C2     		movl	%eax, %edx
 507 0463 A1000000 		movl	_MODULES_IN_CODEWORD, %eax
 507      00
 508 0468 0FAFC2   		imull	%edx, %eax
 509 046b BE120000 		movl	$18, %esi
 509      00
 510 0470 99       		cltd
 511 0471 F7FE     		idivl	%esi
 512 0473 39C3     		cmpl	%eax, %ebx
 513 0475 7E1A     		jle	L27
 514              		.loc 1 44 9 discriminator 11
 515 0477 8B4508   		movl	8(%ebp), %eax
 516 047a 83C030   		addl	$48, %eax
 517 047d 89442404 		movl	%eax, 4(%esp)
 518 0481 8B4508   		movl	8(%ebp), %eax
 519 0484 890424   		movl	%eax, (%esp)
 520 0487 E822FEFF 		call	_GetMaxWidth
 520      FF
 521 048c E9BB0000 		jmp	L32
 521      00
 522              	L27:
 523              		.loc 1 44 9 discriminator 12
 524 0491 8B4508   		movl	8(%ebp), %eax
 525 0494 8D5018   		leal	24(%eax), %edx
 526 0497 8B4508   		movl	8(%ebp), %eax
GAS LISTING C:\Users\jisu8\AppData\Local\Temp\ccLTtEny.s 			page 12


 527 049a 83C048   		addl	$72, %eax
 528 049d 89542404 		movl	%edx, 4(%esp)
 529 04a1 890424   		movl	%eax, (%esp)
 530 04a4 E805FEFF 		call	_GetMaxWidth
 530      FF
 531 04a9 89C2     		movl	%eax, %edx
 532 04ab A1000000 		movl	_MODULES_IN_CODEWORD, %eax
 532      00
 533 04b0 0FAFC2   		imull	%edx, %eax
 534 04b3 B9120000 		movl	$18, %ecx
 534      00
 535 04b8 99       		cltd
 536 04b9 F7F9     		idivl	%ecx
 537 04bb E98C0000 		jmp	L32
 537      00
 538              	L26:
 539              		.loc 1 44 9 discriminator 10
 540 04c0 8B4508   		movl	8(%ebp), %eax
 541 04c3 8D503C   		leal	60(%eax), %edx
 542 04c6 8B4508   		movl	8(%ebp), %eax
 543 04c9 83C00C   		addl	$12, %eax
 544 04cc 89542404 		movl	%edx, 4(%esp)
 545 04d0 890424   		movl	%eax, (%esp)
 546 04d3 E8D6FDFF 		call	_GetMaxWidth
 546      FF
 547 04d8 89C3     		movl	%eax, %ebx
 548 04da 8B4508   		movl	8(%ebp), %eax
 549 04dd 8D5024   		leal	36(%eax), %edx
 550 04e0 8B4508   		movl	8(%ebp), %eax
 551 04e3 83C054   		addl	$84, %eax
 552 04e6 89542404 		movl	%edx, 4(%esp)
 553 04ea 890424   		movl	%eax, (%esp)
 554 04ed E8BCFDFF 		call	_GetMaxWidth
 554      FF
 555 04f2 89C2     		movl	%eax, %edx
 556 04f4 A1000000 		movl	_MODULES_IN_CODEWORD, %eax
 556      00
 557 04f9 0FAFC2   		imull	%edx, %eax
 558 04fc BE120000 		movl	$18, %esi
 558      00
 559 0501 99       		cltd
 560 0502 F7FE     		idivl	%esi
 561 0504 39C3     		cmpl	%eax, %ebx
 562 0506 7E1A     		jle	L30
 563              		.loc 1 44 9 discriminator 16
 564 0508 8B4508   		movl	8(%ebp), %eax
 565 050b 8D503C   		leal	60(%eax), %edx
 566 050e 8B4508   		movl	8(%ebp), %eax
 567 0511 83C00C   		addl	$12, %eax
 568 0514 89542404 		movl	%edx, 4(%esp)
 569 0518 890424   		movl	%eax, (%esp)
 570 051b E88EFDFF 		call	_GetMaxWidth
 570      FF
 571 0520 EB2A     		jmp	L32
 572              	L30:
 573              		.loc 1 44 9 discriminator 17
 574 0522 8B4508   		movl	8(%ebp), %eax
GAS LISTING C:\Users\jisu8\AppData\Local\Temp\ccLTtEny.s 			page 13


 575 0525 8D5024   		leal	36(%eax), %edx
 576 0528 8B4508   		movl	8(%ebp), %eax
 577 052b 83C054   		addl	$84, %eax
 578 052e 89542404 		movl	%edx, 4(%esp)
 579 0532 890424   		movl	%eax, (%esp)
 580 0535 E874FDFF 		call	_GetMaxWidth
 580      FF
 581 053a 89C2     		movl	%eax, %edx
 582 053c A1000000 		movl	_MODULES_IN_CODEWORD, %eax
 582      00
 583 0541 0FAFC2   		imull	%edx, %eax
 584 0544 B9120000 		movl	$18, %ecx
 584      00
 585 0549 99       		cltd
 586 054a F7F9     		idivl	%ecx
 587              	L32:
  45:src/pdf417/PDFReader.c **** 					__max(GetMaxWidth(p+1, p+5), GetMaxWidth(p+7, p+3) * MODULES_IN_CODEWORD / MODULES_IN_STOP_PAT
  46:src/pdf417/PDFReader.c **** }
 588              		.loc 1 46 1 is_stmt 1 discriminator 21
 589 054c 83C408   		addl	$8, %esp
 590 054f 5B       		popl	%ebx
 591              		.cfi_restore 3
 592 0550 5E       		popl	%esi
 593              		.cfi_restore 6
 594 0551 5D       		popl	%ebp
 595              	LCFI11:
 596              		.cfi_restore 5
 597              		.cfi_def_cfa 4, 4
 598 0552 C3       		ret
 599              		.cfi_endproc
 600              	LFE19:
 601              		.section .rdata,"dr"
 602              		.align 4
 603              	LC1:
 604 0004 20446F44 		.ascii " DoDecode: img=%d, multiple=%d, res=%d, str=%d \12\0"
 604      65636F64 
 604      653A2069 
 604      6D673D25 
 604      642C206D 
 605 0035 000000   		.text
 606              		.globl	_DoDecode
 608              	_DoDecode:
 609              	LFB20:
  47:src/pdf417/PDFReader.c **** 
  48:src/pdf417/PDFReader.c **** DecodeStatus_t DoDecode(GenericLuminanceSource_t * image, unsigned char multiple, unsigned char * r
  49:src/pdf417/PDFReader.c **** {
 610              		.loc 1 49 1
 611              		.cfi_startproc
 612 0553 55       		pushl	%ebp
 613              	LCFI12:
 614              		.cfi_def_cfa_offset 8
 615              		.cfi_offset 5, -8
 616 0554 89E5     		movl	%esp, %ebp
 617              	LCFI13:
 618              		.cfi_def_cfa_register 5
 619 0556 57       		pushl	%edi
 620 0557 56       		pushl	%esi
GAS LISTING C:\Users\jisu8\AppData\Local\Temp\ccLTtEny.s 			page 14


 621 0558 53       		pushl	%ebx
 622 0559 83EC7C   		subl	$124, %esp
 623              		.cfi_offset 7, -12
 624              		.cfi_offset 6, -16
 625              		.cfi_offset 3, -20
 626 055c 8B450C   		movl	12(%ebp), %eax
 627 055f 8845C4   		movb	%al, -60(%ebp)
  50:src/pdf417/PDFReader.c **** 
  51:src/pdf417/PDFReader.c **** 	printf(" DoDecode: img=%d, multiple=%d, res=%d, str=%d \n", image, multiple, results, characterSet
 628              		.loc 1 51 2
 629 0562 0FB645C4 		movzbl	-60(%ebp), %eax
 630 0566 8B5514   		movl	20(%ebp), %edx
 631 0569 89542410 		movl	%edx, 16(%esp)
 632 056d 8B5510   		movl	16(%ebp), %edx
 633 0570 8954240C 		movl	%edx, 12(%esp)
 634 0574 89442408 		movl	%eax, 8(%esp)
 635 0578 8B4508   		movl	8(%ebp), %eax
 636 057b 89442404 		movl	%eax, 4(%esp)
 637 057f C7042404 		movl	$LC1, (%esp)
 637      000000
 638 0586 E8000000 		call	_printf
 638      00
  52:src/pdf417/PDFReader.c **** 	Detector_Result_t detectorResult;
  53:src/pdf417/PDFReader.c **** 	DecodeStatus_t status;
  54:src/pdf417/PDFReader.c **** 	status = Detect(image, multiple, &detectorResult);
 639              		.loc 1 54 11
 640 058b 0FB645C4 		movzbl	-60(%ebp), %eax
 641 058f 8D55D4   		leal	-44(%ebp), %edx
 642 0592 89542408 		movl	%edx, 8(%esp)
 643 0596 89442404 		movl	%eax, 4(%esp)
 644 059a 8B4508   		movl	8(%ebp), %eax
 645 059d 890424   		movl	%eax, (%esp)
 646 05a0 E8000000 		call	_Detect
 646      00
 647 05a5 8945E4   		movl	%eax, -28(%ebp)
  55:src/pdf417/PDFReader.c **** 	if (StatusIsError(status)) 
 648              		.loc 1 55 5
 649 05a8 837DE400 		cmpl	$0, -28(%ebp)
 650 05ac 7408     		je	L34
  56:src/pdf417/PDFReader.c **** 	{
  57:src/pdf417/PDFReader.c **** 		return status;
 651              		.loc 1 57 10
 652 05ae 8B45E4   		movl	-28(%ebp), %eax
 653 05b1 E9B40000 		jmp	L33
 653      00
 654              	L34:
  58:src/pdf417/PDFReader.c **** 	}
  59:src/pdf417/PDFReader.c **** 
  60:src/pdf417/PDFReader.c **** 	ResultPoint_t * points = detectorResult.points;
 655              		.loc 1 60 18
 656 05b6 8B45D8   		movl	-40(%ebp), %eax
 657 05b9 8945E0   		movl	%eax, -32(%ebp)
  61:src/pdf417/PDFReader.c **** 	DecoderResult_t * decoderResult = NULL;
 658              		.loc 1 61 20
 659 05bc C745DC00 		movl	$0, -36(%ebp)
 659      000000
  62:src/pdf417/PDFReader.c **** 	//for (const auto& points : detectorResult.points) 
GAS LISTING C:\Users\jisu8\AppData\Local\Temp\ccLTtEny.s 			page 15


  63:src/pdf417/PDFReader.c **** 	//{
  64:src/pdf417/PDFReader.c **** 		decoderResult = Decode(detectorResult.bits, points[4], points[5], points[6], points[7],
 660              		.loc 1 64 19
 661 05c3 8B45E0   		movl	-32(%ebp), %eax
 662 05c6 890424   		movl	%eax, (%esp)
 663 05c9 E83EFDFF 		call	_GetMaxCodewordWidth
 663      FF
 664 05ce 8945C0   		movl	%eax, -64(%ebp)
 665 05d1 8B45E0   		movl	-32(%ebp), %eax
 666 05d4 890424   		movl	%eax, (%esp)
 667 05d7 E88BFAFF 		call	_GetMinCodewordWidth
 667      FF
 668 05dc 8945BC   		movl	%eax, -68(%ebp)
 669              		.loc 1 64 86
 670 05df 8B45E0   		movl	-32(%ebp), %eax
 671 05e2 8D7054   		leal	84(%eax), %esi
 672              		.loc 1 64 75
 673 05e5 8B45E0   		movl	-32(%ebp), %eax
 674 05e8 8D5848   		leal	72(%eax), %ebx
 675              		.loc 1 64 64
 676 05eb 8B45E0   		movl	-32(%ebp), %eax
 677 05ee 8D483C   		leal	60(%eax), %ecx
 678              		.loc 1 64 53
 679 05f1 8B45E0   		movl	-32(%ebp), %eax
 680 05f4 8D5030   		leal	48(%eax), %edx
 681              		.loc 1 64 40
 682 05f7 8B7DD4   		movl	-44(%ebp), %edi
 683              		.loc 1 64 19
 684 05fa 8B4514   		movl	20(%ebp), %eax
 685 05fd 8944243C 		movl	%eax, 60(%esp)
 686 0601 8B45C0   		movl	-64(%ebp), %eax
 687 0604 89442438 		movl	%eax, 56(%esp)
 688 0608 8B45BC   		movl	-68(%ebp), %eax
 689 060b 89442434 		movl	%eax, 52(%esp)
 690 060f 8B06     		movl	(%esi), %eax
 691 0611 89442428 		movl	%eax, 40(%esp)
 692 0615 8B4604   		movl	4(%esi), %eax
 693 0618 8944242C 		movl	%eax, 44(%esp)
 694 061c 8B4608   		movl	8(%esi), %eax
 695 061f 89442430 		movl	%eax, 48(%esp)
 696 0623 8B03     		movl	(%ebx), %eax
 697 0625 8944241C 		movl	%eax, 28(%esp)
 698 0629 8B4304   		movl	4(%ebx), %eax
 699 062c 89442420 		movl	%eax, 32(%esp)
 700 0630 8B4308   		movl	8(%ebx), %eax
 701 0633 89442424 		movl	%eax, 36(%esp)
 702 0637 8B01     		movl	(%ecx), %eax
 703 0639 89442410 		movl	%eax, 16(%esp)
 704 063d 8B4104   		movl	4(%ecx), %eax
 705 0640 89442414 		movl	%eax, 20(%esp)
 706 0644 8B4108   		movl	8(%ecx), %eax
 707 0647 89442418 		movl	%eax, 24(%esp)
 708 064b 8B02     		movl	(%edx), %eax
 709 064d 89442404 		movl	%eax, 4(%esp)
 710 0651 8B4204   		movl	4(%edx), %eax
 711 0654 89442408 		movl	%eax, 8(%esp)
 712 0658 8B4208   		movl	8(%edx), %eax
GAS LISTING C:\Users\jisu8\AppData\Local\Temp\ccLTtEny.s 			page 16


 713 065b 8944240C 		movl	%eax, 12(%esp)
 714 065f 893C24   		movl	%edi, (%esp)
 715 0662 E8000000 		call	_Decode
 715      00
 716 0667 8945DC   		movl	%eax, -36(%ebp)
 717              	L33:
  65:src/pdf417/PDFReader.c **** 									GetMinCodewordWidth(points), GetMaxCodewordWidth(points), characterSet);
  66:src/pdf417/PDFReader.c **** 		#if 0
  67:src/pdf417/PDFReader.c **** 		if (decoderResult.isValid()) 
  68:src/pdf417/PDFReader.c **** 		{
  69:src/pdf417/PDFReader.c **** 			auto point = [&](int i) { return points[i].value(); };
  70:src/pdf417/PDFReader.c **** 
  71:src/pdf417/PDFReader.c **** 			Result result(std::move(decoderResult), {point(0), point(2), point(3), point(1)}, BarcodeFormat:
  72:src/pdf417/PDFReader.c **** 			results.push_back(result);
  73:src/pdf417/PDFReader.c **** 
  74:src/pdf417/PDFReader.c **** 			if (!multiple) 
  75:src/pdf417/PDFReader.c **** 			{
  76:src/pdf417/PDFReader.c **** 				return DecodeStatus::NoError;
  77:src/pdf417/PDFReader.c **** 			}
  78:src/pdf417/PDFReader.c **** 		}
  79:src/pdf417/PDFReader.c **** 		else
  80:src/pdf417/PDFReader.c **** 		if (!multiple) 
  81:src/pdf417/PDFReader.c **** 		{
  82:src/pdf417/PDFReader.c **** 			return decoderResult.errorCode();
  83:src/pdf417/PDFReader.c **** 		}
  84:src/pdf417/PDFReader.c **** 	}
  85:src/pdf417/PDFReader.c **** 
  86:src/pdf417/PDFReader.c **** 	return results.empty() ? DecodeStatus::NotFound : DecodeStatus::NoError;
  87:src/pdf417/PDFReader.c **** 	#endif
  88:src/pdf417/PDFReader.c **** }
 718              		.loc 1 88 1
 719 066a 83C47C   		addl	$124, %esp
 720 066d 5B       		popl	%ebx
 721              		.cfi_restore 3
 722 066e 5E       		popl	%esi
 723              		.cfi_restore 6
 724 066f 5F       		popl	%edi
 725              		.cfi_restore 7
 726 0670 5D       		popl	%ebp
 727              	LCFI14:
 728              		.cfi_restore 5
 729              		.cfi_def_cfa 4, 4
 730 0671 C3       		ret
 731              		.cfi_endproc
 732              	LFE20:
 733              		.globl	_decode
 735              	_decode:
 736              	LFB21:
  89:src/pdf417/PDFReader.c **** 
  90:src/pdf417/PDFReader.c **** unsigned char * decode(GenericLuminanceSource_t * image,DecodeHints_t * hints)
  91:src/pdf417/PDFReader.c **** {
 737              		.loc 1 91 1
 738              		.cfi_startproc
 739 0672 55       		pushl	%ebp
 740              	LCFI15:
 741              		.cfi_def_cfa_offset 8
 742              		.cfi_offset 5, -8
GAS LISTING C:\Users\jisu8\AppData\Local\Temp\ccLTtEny.s 			page 17


 743 0673 89E5     		movl	%esp, %ebp
 744              	LCFI16:
 745              		.cfi_def_cfa_register 5
 746 0675 83EC28   		subl	$40, %esp
  92:src/pdf417/PDFReader.c **** 	unsigned int isPure = hints->isPure;
 747              		.loc 1 92 29
 748 0678 8B450C   		movl	12(%ebp), %eax
 749 067b 0FB64002 		movzbl	2(%eax), %eax
 750              		.loc 1 92 15
 751 067f 0FB6C0   		movzbl	%al, %eax
 752 0682 8945F4   		movl	%eax, -12(%ebp)
  93:src/pdf417/PDFReader.c **** 	unsigned int characterSet = hints->characterSet;
 753              		.loc 1 93 35
 754 0685 8B450C   		movl	12(%ebp), %eax
 755 0688 8B400C   		movl	12(%eax), %eax
 756              		.loc 1 93 15
 757 068b 8945F0   		movl	%eax, -16(%ebp)
  94:src/pdf417/PDFReader.c **** 	unsigned char result = 0;
 758              		.loc 1 94 16
 759 068e C645EF00 		movb	$0, -17(%ebp)
  95:src/pdf417/PDFReader.c **** 	unsigned char results = 0;
 760              		.loc 1 95 16
 761 0692 C645EE00 		movb	$0, -18(%ebp)
  96:src/pdf417/PDFReader.c **** 	DecodeStatus_t status;
  97:src/pdf417/PDFReader.c **** 	
  98:src/pdf417/PDFReader.c **** 	if (isPure) 
 762              		.loc 1 98 5
 763 0696 837DF400 		cmpl	$0, -12(%ebp)
 764 069a 7406     		je	L37
  99:src/pdf417/PDFReader.c **** 	{
 100:src/pdf417/PDFReader.c **** 		//result = DecodePure(image, characterSet);
 101:src/pdf417/PDFReader.c **** 		//if (res.status() != DecodeStatus::ChecksumError)
 102:src/pdf417/PDFReader.c **** 		return result;
 765              		.loc 1 102 10
 766 069c 0FB645EF 		movzbl	-17(%ebp), %eax
 767 06a0 EB35     		jmp	L38
 768              	L37:
 103:src/pdf417/PDFReader.c **** 		// This falls through and tries the non-pure code path if we have a checksum error. This approach
 104:src/pdf417/PDFReader.c **** 		// currently the best option to deal with 'aliased' input like e.g. 03-aliased.png
 105:src/pdf417/PDFReader.c **** 	}
 106:src/pdf417/PDFReader.c **** 
 107:src/pdf417/PDFReader.c **** 	status = DoDecode(image, 0, results, characterSet);
 769              		.loc 1 107 11
 770 06a2 8B45F0   		movl	-16(%ebp), %eax
 771 06a5 0FB655EE 		movzbl	-18(%ebp), %edx
 772 06a9 8944240C 		movl	%eax, 12(%esp)
 773 06ad 89542408 		movl	%edx, 8(%esp)
 774 06b1 C7442404 		movl	$0, 4(%esp)
 774      00000000 
 775 06b9 8B4508   		movl	8(%ebp), %eax
 776 06bc 890424   		movl	%eax, (%esp)
 777 06bf E88FFEFF 		call	_DoDecode
 777      FF
 778 06c4 8945E8   		movl	%eax, -24(%ebp)
 108:src/pdf417/PDFReader.c **** 
 109:src/pdf417/PDFReader.c **** 	if (StatusIsOK(status)) 
 779              		.loc 1 109 5
GAS LISTING C:\Users\jisu8\AppData\Local\Temp\ccLTtEny.s 			page 18


 780 06c7 837DE800 		cmpl	$0, -24(%ebp)
 781 06cb 7506     		jne	L39
 110:src/pdf417/PDFReader.c **** 	{
 111:src/pdf417/PDFReader.c **** 		return result;
 782              		.loc 1 111 10
 783 06cd 0FB645EF 		movzbl	-17(%ebp), %eax
 784 06d1 EB04     		jmp	L38
 785              	L39:
 112:src/pdf417/PDFReader.c **** 	}
 113:src/pdf417/PDFReader.c **** 	return result;
 786              		.loc 1 113 9
 787 06d3 0FB645EF 		movzbl	-17(%ebp), %eax
 788              	L38:
 114:src/pdf417/PDFReader.c **** }
 789              		.loc 1 114 1
 790 06d7 C9       		leave
 791              	LCFI17:
 792              		.cfi_restore 5
 793              		.cfi_def_cfa 4, 4
 794 06d8 C3       		ret
 795              		.cfi_endproc
 796              	LFE21:
 797              	Letext0:
 798              		.file 2 "D:/3.tools/mingw/mingw32/i686-w64-mingw32/include/crtdefs.h"
 799              		.file 3 "D:/3.tools/mingw/mingw32/i686-w64-mingw32/include/stdint.h"
 800              		.file 4 "D:/3.tools/mingw/mingw32/i686-w64-mingw32/include/stdio.h"
 801              		.file 5 "src/BarcodeFormat.h"
 802              		.file 6 "src/DecodeHints.h"
 803              		.file 7 "src/GenericLuminanceSource.h"
 804              		.file 8 "src/DecodeStatus.h"
 805              		.file 9 "src/BitMatrix.h"
 806              		.file 10 "src/ResultPoint.h"
 807              		.file 11 "src/pdf417/PDFDetector.h"
 808              		.file 12 "src/pdf417/PDFCodewordDecoder.h"
 809              		.file 13 "src/StructuredAppend.h"
 810              		.file 14 "src/DecoderResult.h"
 811              		.file 15 "src/pdf417/PDFBoundingBox.h"
 812              		.file 16 "src/pdf417/PDFCodeword.h"
 813              		.file 17 "src/pdf417/PDFDetectionResultColumn.h"
 814              		.file 18 "src/pdf417/PDFScanningDecoder.h"
 815              		.file 19 "D:/3.tools/mingw/mingw32/i686-w64-mingw32/include/stdlib.h"
 816              		.file 20 "D:/3.tools/mingw/mingw32/i686-w64-mingw32/include/malloc.h"
 817 06d9 909090   		.section	.debug_info,"dr"
 818              	Ldebug_info0:
 819 0000 990F0000 		.long	0xf99
 820 0004 0200     		.word	0x2
 821 0006 00000000 		.secrel32	Ldebug_abbrev0
 822 000a 04       		.byte	0x4
 823 000b 01       		.uleb128 0x1
 824 000c 474E5520 		.ascii "GNU C17 8.1.0 -mtune=generic -march=i686 -g -gdwarf-2 -O0\0"
 824      43313720 
 824      382E312E 
 824      30202D6D 
 824      74756E65 
 825 0046 0C       		.byte	0xc
 826 0047 7372632F 		.ascii "src/pdf417/PDFReader.c\0"
 826      70646634 
GAS LISTING C:\Users\jisu8\AppData\Local\Temp\ccLTtEny.s 			page 19


 826      31372F50 
 826      44465265 
 826      61646572 
 827 005e 443A5C31 		.ascii "D:\\1.Project_workspace\\PDF_BARCODE\0"
 827      2E50726F 
 827      6A656374 
 827      5F776F72 
 827      6B737061 
 828 0081 00000000 		.long	Ltext0
 829 0085 D9060000 		.long	Letext0
 830 0089 00000000 		.secrel32	Ldebug_line0
 831 008d 02       		.uleb128 0x2
 832 008e 01       		.byte	0x1
 833 008f 06       		.byte	0x6
 834 0090 63686172 		.ascii "char\0"
 834      00
 835 0095 02       		.uleb128 0x2
 836 0096 04       		.byte	0x4
 837 0097 07       		.byte	0x7
 838 0098 756E7369 		.ascii "unsigned int\0"
 838      676E6564 
 838      20696E74 
 838      00
 839 00a5 02       		.uleb128 0x2
 840 00a6 04       		.byte	0x4
 841 00a7 05       		.byte	0x5
 842 00a8 696E7400 		.ascii "int\0"
 843 00ac 03       		.uleb128 0x3
 844 00ad A5000000 		.long	0xa5
 845 00b1 04       		.uleb128 0x4
 846 00b2 77636861 		.ascii "wchar_t\0"
 846      725F7400 
 847 00ba 02       		.byte	0x2
 848 00bb 62       		.byte	0x62
 849 00bc 18       		.byte	0x18
 850 00bd C1000000 		.long	0xc1
 851 00c1 02       		.uleb128 0x2
 852 00c2 02       		.byte	0x2
 853 00c3 07       		.byte	0x7
 854 00c4 73686F72 		.ascii "short unsigned int\0"
 854      7420756E 
 854      7369676E 
 854      65642069 
 854      6E7400
 855 00d7 02       		.uleb128 0x2
 856 00d8 04       		.byte	0x4
 857 00d9 05       		.byte	0x5
 858 00da 6C6F6E67 		.ascii "long int\0"
 858      20696E74 
 858      00
 859 00e3 02       		.uleb128 0x2
 860 00e4 08       		.byte	0x8
 861 00e5 05       		.byte	0x5
 862 00e6 6C6F6E67 		.ascii "long long int\0"
 862      206C6F6E 
 862      6720696E 
 862      7400
GAS LISTING C:\Users\jisu8\AppData\Local\Temp\ccLTtEny.s 			page 20


 863 00f4 05       		.uleb128 0x5
 864 00f5 04       		.byte	0x4
 865 00f6 8D000000 		.long	0x8d
 866 00fa 05       		.uleb128 0x5
 867 00fb 04       		.byte	0x4
 868 00fc B1000000 		.long	0xb1
 869 0100 05       		.uleb128 0x5
 870 0101 04       		.byte	0x4
 871 0102 A5000000 		.long	0xa5
 872 0106 02       		.uleb128 0x2
 873 0107 04       		.byte	0x4
 874 0108 07       		.byte	0x7
 875 0109 6C6F6E67 		.ascii "long unsigned int\0"
 875      20756E73 
 875      69676E65 
 875      6420696E 
 875      7400
 876 011b 02       		.uleb128 0x2
 877 011c 01       		.byte	0x1
 878 011d 08       		.byte	0x8
 879 011e 756E7369 		.ascii "unsigned char\0"
 879      676E6564 
 879      20636861 
 879      7200
 880 012c 02       		.uleb128 0x2
 881 012d 0C       		.byte	0xc
 882 012e 04       		.byte	0x4
 883 012f 6C6F6E67 		.ascii "long double\0"
 883      20646F75 
 883      626C6500 
 884 013b 02       		.uleb128 0x2
 885 013c 10       		.byte	0x10
 886 013d 04       		.byte	0x4
 887 013e 5F466C6F 		.ascii "_Float128\0"
 887      61743132 
 887      3800
 888 0148 02       		.uleb128 0x2
 889 0149 01       		.byte	0x1
 890 014a 06       		.byte	0x6
 891 014b 7369676E 		.ascii "signed char\0"
 891      65642063 
 891      68617200 
 892 0157 04       		.uleb128 0x4
 893 0158 75696E74 		.ascii "uint8_t\0"
 893      385F7400 
 894 0160 03       		.byte	0x3
 895 0161 24       		.byte	0x24
 896 0162 19       		.byte	0x19
 897 0163 1B010000 		.long	0x11b
 898 0167 02       		.uleb128 0x2
 899 0168 02       		.byte	0x2
 900 0169 05       		.byte	0x5
 901 016a 73686F72 		.ascii "short int\0"
 901      7420696E 
 901      7400
 902 0174 04       		.uleb128 0x4
 903 0175 75696E74 		.ascii "uint64_t\0"
GAS LISTING C:\Users\jisu8\AppData\Local\Temp\ccLTtEny.s 			page 21


 903      36345F74 
 903      00
 904 017e 03       		.byte	0x3
 905 017f 2A       		.byte	0x2a
 906 0180 30       		.byte	0x30
 907 0181 85010000 		.long	0x185
 908 0185 02       		.uleb128 0x2
 909 0186 08       		.byte	0x8
 910 0187 07       		.byte	0x7
 911 0188 6C6F6E67 		.ascii "long long unsigned int\0"
 911      206C6F6E 
 911      6720756E 
 911      7369676E 
 911      65642069 
 912 019f 06       		.uleb128 0x6
 913 01a0 5F696F62 		.ascii "_iobuf\0"
 913      756600
 914 01a7 20       		.byte	0x20
 915 01a8 04       		.byte	0x4
 916 01a9 1A       		.byte	0x1a
 917 01aa 0A       		.byte	0xa
 918 01ab 3F020000 		.long	0x23f
 919 01af 07       		.uleb128 0x7
 920 01b0 5F707472 		.ascii "_ptr\0"
 920      00
 921 01b5 04       		.byte	0x4
 922 01b6 1B       		.byte	0x1b
 923 01b7 0B       		.byte	0xb
 924 01b8 F4000000 		.long	0xf4
 925 01bc 02       		.byte	0x2
 926 01bd 23       		.byte	0x23
 927 01be 00       		.uleb128 0
 928 01bf 07       		.uleb128 0x7
 929 01c0 5F636E74 		.ascii "_cnt\0"
 929      00
 930 01c5 04       		.byte	0x4
 931 01c6 1C       		.byte	0x1c
 932 01c7 09       		.byte	0x9
 933 01c8 A5000000 		.long	0xa5
 934 01cc 02       		.byte	0x2
 935 01cd 23       		.byte	0x23
 936 01ce 04       		.uleb128 0x4
 937 01cf 07       		.uleb128 0x7
 938 01d0 5F626173 		.ascii "_base\0"
 938      6500
 939 01d6 04       		.byte	0x4
 940 01d7 1D       		.byte	0x1d
 941 01d8 0B       		.byte	0xb
 942 01d9 F4000000 		.long	0xf4
 943 01dd 02       		.byte	0x2
 944 01de 23       		.byte	0x23
 945 01df 08       		.uleb128 0x8
 946 01e0 07       		.uleb128 0x7
 947 01e1 5F666C61 		.ascii "_flag\0"
 947      6700
 948 01e7 04       		.byte	0x4
 949 01e8 1E       		.byte	0x1e
GAS LISTING C:\Users\jisu8\AppData\Local\Temp\ccLTtEny.s 			page 22


 950 01e9 09       		.byte	0x9
 951 01ea A5000000 		.long	0xa5
 952 01ee 02       		.byte	0x2
 953 01ef 23       		.byte	0x23
 954 01f0 0C       		.uleb128 0xc
 955 01f1 07       		.uleb128 0x7
 956 01f2 5F66696C 		.ascii "_file\0"
 956      6500
 957 01f8 04       		.byte	0x4
 958 01f9 1F       		.byte	0x1f
 959 01fa 09       		.byte	0x9
 960 01fb A5000000 		.long	0xa5
 961 01ff 02       		.byte	0x2
 962 0200 23       		.byte	0x23
 963 0201 10       		.uleb128 0x10
 964 0202 07       		.uleb128 0x7
 965 0203 5F636861 		.ascii "_charbuf\0"
 965      72627566 
 965      00
 966 020c 04       		.byte	0x4
 967 020d 20       		.byte	0x20
 968 020e 09       		.byte	0x9
 969 020f A5000000 		.long	0xa5
 970 0213 02       		.byte	0x2
 971 0214 23       		.byte	0x23
 972 0215 14       		.uleb128 0x14
 973 0216 07       		.uleb128 0x7
 974 0217 5F627566 		.ascii "_bufsiz\0"
 974      73697A00 
 975 021f 04       		.byte	0x4
 976 0220 21       		.byte	0x21
 977 0221 09       		.byte	0x9
 978 0222 A5000000 		.long	0xa5
 979 0226 02       		.byte	0x2
 980 0227 23       		.byte	0x23
 981 0228 18       		.uleb128 0x18
 982 0229 07       		.uleb128 0x7
 983 022a 5F746D70 		.ascii "_tmpfname\0"
 983      666E616D 
 983      6500
 984 0234 04       		.byte	0x4
 985 0235 22       		.byte	0x22
 986 0236 0B       		.byte	0xb
 987 0237 F4000000 		.long	0xf4
 988 023b 02       		.byte	0x2
 989 023c 23       		.byte	0x23
 990 023d 1C       		.uleb128 0x1c
 991 023e 00       		.byte	0
 992 023f 04       		.uleb128 0x4
 993 0240 46494C45 		.ascii "FILE\0"
 993      00
 994 0245 04       		.byte	0x4
 995 0246 24       		.byte	0x24
 996 0247 19       		.byte	0x19
 997 0248 9F010000 		.long	0x19f
 998 024c 08       		.uleb128 0x8
 999 024d 3F020000 		.long	0x23f
GAS LISTING C:\Users\jisu8\AppData\Local\Temp\ccLTtEny.s 			page 23


 1000 0251 57020000 		.long	0x257
 1001 0255 09       		.uleb128 0x9
 1002 0256 00       		.byte	0
 1003 0257 0A       		.uleb128 0xa
 1004 0258 5F696D70 		.ascii "_imp___iob\0"
 1004      5F5F5F69 
 1004      6F6200
 1005 0263 04       		.byte	0x4
 1006 0264 5C       		.byte	0x5c
 1007 0265 10       		.byte	0x10
 1008 0266 6C020000 		.long	0x26c
 1009 026a 01       		.byte	0x1
 1010 026b 01       		.byte	0x1
 1011 026c 05       		.uleb128 0x5
 1012 026d 04       		.byte	0x4
 1013 026e 4C020000 		.long	0x24c
 1014 0272 0B       		.uleb128 0xb
 1015 0273 07       		.byte	0x7
 1016 0274 04       		.byte	0x4
 1017 0275 95000000 		.long	0x95
 1018 0279 05       		.byte	0x5
 1019 027a 04       		.byte	0x4
 1020 027b 01       		.byte	0x1
 1021 027c 48030000 		.long	0x348
 1022 0280 0C       		.uleb128 0xc
 1023 0281 4E4F4E45 		.ascii "NONE\0"
 1023      00
 1024 0286 00       		.byte	0
 1025 0287 0C       		.uleb128 0xc
 1026 0288 417A7465 		.ascii "Aztec\0"
 1026      6300
 1027 028e 01       		.byte	0x1
 1028 028f 0C       		.uleb128 0xc
 1029 0290 436F6461 		.ascii "Codabar\0"
 1029      62617200 
 1030 0298 02       		.byte	0x2
 1031 0299 0C       		.uleb128 0xc
 1032 029a 436F6465 		.ascii "Code39\0"
 1032      333900
 1033 02a1 04       		.byte	0x4
 1034 02a2 0C       		.uleb128 0xc
 1035 02a3 436F6465 		.ascii "Code93\0"
 1035      393300
 1036 02aa 08       		.byte	0x8
 1037 02ab 0C       		.uleb128 0xc
 1038 02ac 436F6465 		.ascii "Code128\0"
 1038      31323800 
 1039 02b4 10       		.byte	0x10
 1040 02b5 0C       		.uleb128 0xc
 1041 02b6 44617461 		.ascii "DataBar\0"
 1041      42617200 
 1042 02be 20       		.byte	0x20
 1043 02bf 0C       		.uleb128 0xc
 1044 02c0 44617461 		.ascii "DataBarExpanded\0"
 1044      42617245 
 1044      7870616E 
 1044      64656400 
GAS LISTING C:\Users\jisu8\AppData\Local\Temp\ccLTtEny.s 			page 24


 1045 02d0 40       		.byte	0x40
 1046 02d1 0C       		.uleb128 0xc
 1047 02d2 44617461 		.ascii "DataMatrix\0"
 1047      4D617472 
 1047      697800
 1048 02dd 80       		.byte	0x80
 1049 02de 0D       		.uleb128 0xd
 1050 02df 45414E38 		.ascii "EAN8\0"
 1050      00
 1051 02e4 0001     		.word	0x100
 1052 02e6 0D       		.uleb128 0xd
 1053 02e7 45414E31 		.ascii "EAN13\0"
 1053      3300
 1054 02ed 0002     		.word	0x200
 1055 02ef 0D       		.uleb128 0xd
 1056 02f0 49544600 		.ascii "ITF\0"
 1057 02f4 0004     		.word	0x400
 1058 02f6 0D       		.uleb128 0xd
 1059 02f7 4D617869 		.ascii "MaxiCode\0"
 1059      436F6465 
 1059      00
 1060 0300 0008     		.word	0x800
 1061 0302 0D       		.uleb128 0xd
 1062 0303 50444634 		.ascii "PDF417\0"
 1062      313700
 1063 030a 0010     		.word	0x1000
 1064 030c 0D       		.uleb128 0xd
 1065 030d 5152436F 		.ascii "QRCode\0"
 1065      646500
 1066 0314 0020     		.word	0x2000
 1067 0316 0D       		.uleb128 0xd
 1068 0317 55504341 		.ascii "UPCA\0"
 1068      00
 1069 031c 0040     		.word	0x4000
 1070 031e 0D       		.uleb128 0xd
 1071 031f 55504345 		.ascii "UPCE\0"
 1071      00
 1072 0324 0080     		.word	0x8000
 1073 0326 0D       		.uleb128 0xd
 1074 0327 4F6E6544 		.ascii "OneDCodes\0"
 1074      436F6465 
 1074      7300
 1075 0331 7EC7     		.word	0xc77e
 1076 0333 0D       		.uleb128 0xd
 1077 0334 54776F44 		.ascii "TwoDCodes\0"
 1077      436F6465 
 1077      7300
 1078 033e 8138     		.word	0x3881
 1079 0340 0D       		.uleb128 0xd
 1080 0341 416E7900 		.ascii "Any\0"
 1081 0345 FFFF     		.word	0xffff
 1082 0347 00       		.byte	0
 1083 0348 04       		.uleb128 0x4
 1084 0349 42617263 		.ascii "BarcodeFormats_t\0"
 1084      6F646546 
 1084      6F726D61 
 1084      74735F74 
GAS LISTING C:\Users\jisu8\AppData\Local\Temp\ccLTtEny.s 			page 25


 1084      00
 1085 035a 05       		.byte	0x5
 1086 035b 1D       		.byte	0x1d
 1087 035c 02       		.byte	0x2
 1088 035d 72020000 		.long	0x272
 1089 0361 0B       		.uleb128 0xb
 1090 0362 07       		.byte	0x7
 1091 0363 04       		.byte	0x4
 1092 0364 95000000 		.long	0x95
 1093 0368 06       		.byte	0x6
 1094 0369 08       		.byte	0x8
 1095 036a 01       		.byte	0x1
 1096 036b 91030000 		.long	0x391
 1097 036f 0C       		.uleb128 0xc
 1098 0370 4C6F6361 		.ascii "LocalAverage\0"
 1098      6C417665 
 1098      72616765 
 1098      00
 1099 037d 00       		.byte	0
 1100 037e 0C       		.uleb128 0xc
 1101 037f 476C6F62 		.ascii "GlobalHistogram\0"
 1101      616C4869 
 1101      73746F67 
 1101      72616D00 
 1102 038f 01       		.byte	0x1
 1103 0390 00       		.byte	0
 1104 0391 04       		.uleb128 0x4
 1105 0392 42696E61 		.ascii "Binarizer_t\0"
 1105      72697A65 
 1105      725F7400 
 1106 039e 06       		.byte	0x6
 1107 039f 0B       		.byte	0xb
 1108 03a0 02       		.byte	0x2
 1109 03a1 61030000 		.long	0x361
 1110 03a5 06       		.uleb128 0x6
 1111 03a6 4465636F 		.ascii "DecodeHints\0"
 1111      64654869 
 1111      6E747300 
 1112 03b2 14       		.byte	0x14
 1113 03b3 06       		.byte	0x6
 1114 03b4 0D       		.byte	0xd
 1115 03b5 10       		.byte	0x10
 1116 03b6 69040000 		.long	0x469
 1117 03ba 07       		.uleb128 0x7
 1118 03bb 74727948 		.ascii "tryHarder\0"
 1118      61726465 
 1118      7200
 1119 03c5 06       		.byte	0x6
 1120 03c6 0F       		.byte	0xf
 1121 03c7 0A       		.byte	0xa
 1122 03c8 57010000 		.long	0x157
 1123 03cc 02       		.byte	0x2
 1124 03cd 23       		.byte	0x23
 1125 03ce 00       		.uleb128 0
 1126 03cf 07       		.uleb128 0x7
 1127 03d0 74727952 		.ascii "tryRotate\0"
 1127      6F746174 
GAS LISTING C:\Users\jisu8\AppData\Local\Temp\ccLTtEny.s 			page 26


 1127      6500
 1128 03da 06       		.byte	0x6
 1129 03db 10       		.byte	0x10
 1130 03dc 0A       		.byte	0xa
 1131 03dd 57010000 		.long	0x157
 1132 03e1 02       		.byte	0x2
 1133 03e2 23       		.byte	0x23
 1134 03e3 01       		.uleb128 0x1
 1135 03e4 07       		.uleb128 0x7
 1136 03e5 69735075 		.ascii "isPure\0"
 1136      726500
 1137 03ec 06       		.byte	0x6
 1138 03ed 11       		.byte	0x11
 1139 03ee 0A       		.byte	0xa
 1140 03ef 57010000 		.long	0x157
 1141 03f3 02       		.byte	0x2
 1142 03f4 23       		.byte	0x23
 1143 03f5 02       		.uleb128 0x2
 1144 03f6 07       		.uleb128 0x7
 1145 03f7 72657475 		.ascii "returnCodabarStartEnd\0"
 1145      726E436F 
 1145      64616261 
 1145      72537461 
 1145      7274456E 
 1146 040d 06       		.byte	0x6
 1147 040e 12       		.byte	0x12
 1148 040f 0A       		.byte	0xa
 1149 0410 57010000 		.long	0x157
 1150 0414 02       		.byte	0x2
 1151 0415 23       		.byte	0x23
 1152 0416 03       		.uleb128 0x3
 1153 0417 07       		.uleb128 0x7
 1154 0418 42696E61 		.ascii "Binarizer\0"
 1154      72697A65 
 1154      7200
 1155 0422 06       		.byte	0x6
 1156 0423 13       		.byte	0x13
 1157 0424 0E       		.byte	0xe
 1158 0425 91030000 		.long	0x391
 1159 0429 02       		.byte	0x2
 1160 042a 23       		.byte	0x23
 1161 042b 04       		.uleb128 0x4
 1162 042c 07       		.uleb128 0x7
 1163 042d 666F726D 		.ascii "formats\0"
 1163      61747300 
 1164 0435 06       		.byte	0x6
 1165 0436 14       		.byte	0x14
 1166 0437 13       		.byte	0x13
 1167 0438 48030000 		.long	0x348
 1168 043c 02       		.byte	0x2
 1169 043d 23       		.byte	0x23
 1170 043e 08       		.uleb128 0x8
 1171 043f 0E       		.uleb128 0xe
 1172 0440 1A000000 		.secrel32	LASF0
 1173 0444 06       		.byte	0x6
 1174 0445 15       		.byte	0x15
 1175 0446 0D       		.byte	0xd
GAS LISTING C:\Users\jisu8\AppData\Local\Temp\ccLTtEny.s 			page 27


 1176 0447 69040000 		.long	0x469
 1177 044b 02       		.byte	0x2
 1178 044c 23       		.byte	0x23
 1179 044d 0C       		.uleb128 0xc
 1180 044e 07       		.uleb128 0x7
 1181 044f 616C6C6F 		.ascii "allowedLengths\0"
 1181      7765644C 
 1181      656E6774 
 1181      687300
 1182 045e 06       		.byte	0x6
 1183 045f 16       		.byte	0x16
 1184 0460 0D       		.byte	0xd
 1185 0461 69040000 		.long	0x469
 1186 0465 02       		.byte	0x2
 1187 0466 23       		.byte	0x23
 1188 0467 10       		.uleb128 0x10
 1189 0468 00       		.byte	0
 1190 0469 05       		.uleb128 0x5
 1191 046a 04       		.byte	0x4
 1192 046b 74010000 		.long	0x174
 1193 046f 04       		.uleb128 0x4
 1194 0470 4465636F 		.ascii "DecodeHints_t\0"
 1194      64654869 
 1194      6E74735F 
 1194      7400
 1195 047e 06       		.byte	0x6
 1196 047f 17       		.byte	0x17
 1197 0480 02       		.byte	0x2
 1198 0481 A5030000 		.long	0x3a5
 1199 0485 0F       		.uleb128 0xf
 1200 0486 18       		.byte	0x18
 1201 0487 07       		.byte	0x7
 1202 0488 06       		.byte	0x6
 1203 0489 09       		.byte	0x9
 1204 048a F7040000 		.long	0x4f7
 1205 048e 07       		.uleb128 0x7
 1206 048f 70697865 		.ascii "pixels\0"
 1206      6C7300
 1207 0496 07       		.byte	0x7
 1208 0497 08       		.byte	0x8
 1209 0498 15       		.byte	0x15
 1210 0499 F7040000 		.long	0x4f7
 1211 049d 02       		.byte	0x2
 1212 049e 23       		.byte	0x23
 1213 049f 00       		.uleb128 0
 1214 04a0 07       		.uleb128 0x7
 1215 04a1 6C656674 		.ascii "left\0"
 1215      00
 1216 04a6 07       		.byte	0x7
 1217 04a7 09       		.byte	0x9
 1218 04a8 09       		.byte	0x9
 1219 04a9 A5000000 		.long	0xa5
 1220 04ad 02       		.byte	0x2
 1221 04ae 23       		.byte	0x23
 1222 04af 04       		.uleb128 0x4
 1223 04b0 07       		.uleb128 0x7
 1224 04b1 746F7000 		.ascii "top\0"
GAS LISTING C:\Users\jisu8\AppData\Local\Temp\ccLTtEny.s 			page 28


 1225 04b5 07       		.byte	0x7
 1226 04b6 0A       		.byte	0xa
 1227 04b7 09       		.byte	0x9
 1228 04b8 A5000000 		.long	0xa5
 1229 04bc 02       		.byte	0x2
 1230 04bd 23       		.byte	0x23
 1231 04be 08       		.uleb128 0x8
 1232 04bf 07       		.uleb128 0x7
 1233 04c0 77696474 		.ascii "width\0"
 1233      6800
 1234 04c6 07       		.byte	0x7
 1235 04c7 0B       		.byte	0xb
 1236 04c8 09       		.byte	0x9
 1237 04c9 A5000000 		.long	0xa5
 1238 04cd 02       		.byte	0x2
 1239 04ce 23       		.byte	0x23
 1240 04cf 0C       		.uleb128 0xc
 1241 04d0 07       		.uleb128 0x7
 1242 04d1 68656967 		.ascii "height\0"
 1242      687400
 1243 04d8 07       		.byte	0x7
 1244 04d9 0C       		.byte	0xc
 1245 04da 09       		.byte	0x9
 1246 04db A5000000 		.long	0xa5
 1247 04df 02       		.byte	0x2
 1248 04e0 23       		.byte	0x23
 1249 04e1 10       		.uleb128 0x10
 1250 04e2 07       		.uleb128 0x7
 1251 04e3 726F7742 		.ascii "rowBytes\0"
 1251      79746573 
 1251      00
 1252 04ec 07       		.byte	0x7
 1253 04ed 0D       		.byte	0xd
 1254 04ee 09       		.byte	0x9
 1255 04ef A5000000 		.long	0xa5
 1256 04f3 02       		.byte	0x2
 1257 04f4 23       		.byte	0x23
 1258 04f5 14       		.uleb128 0x14
 1259 04f6 00       		.byte	0
 1260 04f7 05       		.uleb128 0x5
 1261 04f8 04       		.byte	0x4
 1262 04f9 1B010000 		.long	0x11b
 1263 04fd 04       		.uleb128 0x4
 1264 04fe 47656E65 		.ascii "GenericLuminanceSource_t\0"
 1264      7269634C 
 1264      756D696E 
 1264      616E6365 
 1264      536F7572 
 1265 0517 07       		.byte	0x7
 1266 0518 0E       		.byte	0xe
 1267 0519 02       		.byte	0x2
 1268 051a 85040000 		.long	0x485
 1269 051e 0B       		.uleb128 0xb
 1270 051f 07       		.byte	0x7
 1271 0520 04       		.byte	0x4
 1272 0521 95000000 		.long	0x95
 1273 0525 08       		.byte	0x8
GAS LISTING C:\Users\jisu8\AppData\Local\Temp\ccLTtEny.s 			page 29


 1274 0526 04       		.byte	0x4
 1275 0527 01       		.byte	0x1
 1276 0528 60050000 		.long	0x560
 1277 052c 0C       		.uleb128 0xc
 1278 052d 4E6F4572 		.ascii "NoError\0"
 1278      726F7200 
 1279 0535 00       		.byte	0
 1280 0536 0C       		.uleb128 0xc
 1281 0537 4E6F7446 		.ascii "NotFound\0"
 1281      6F756E64 
 1281      00
 1282 0540 01       		.byte	0x1
 1283 0541 0C       		.uleb128 0xc
 1284 0542 466F726D 		.ascii "FormatError\0"
 1284      61744572 
 1284      726F7200 
 1285 054e 02       		.byte	0x2
 1286 054f 0C       		.uleb128 0xc
 1287 0550 43686563 		.ascii "ChecksumError\0"
 1287      6B73756D 
 1287      4572726F 
 1287      7200
 1288 055e 03       		.byte	0x3
 1289 055f 00       		.byte	0
 1290 0560 04       		.uleb128 0x4
 1291 0561 4465636F 		.ascii "DecodeStatus_t\0"
 1291      64655374 
 1291      61747573 
 1291      5F7400
 1292 0570 08       		.byte	0x8
 1293 0571 09       		.byte	0x9
 1294 0572 02       		.byte	0x2
 1295 0573 1E050000 		.long	0x51e
 1296 0577 0F       		.uleb128 0xf
 1297 0578 10       		.byte	0x10
 1298 0579 09       		.byte	0x9
 1299 057a 06       		.byte	0x6
 1300 057b 09       		.byte	0x9
 1301 057c CA050000 		.long	0x5ca
 1302 0580 07       		.uleb128 0x7
 1303 0581 5F776964 		.ascii "_width\0"
 1303      746800
 1304 0588 09       		.byte	0x9
 1305 0589 08       		.byte	0x8
 1306 058a 06       		.byte	0x6
 1307 058b A5000000 		.long	0xa5
 1308 058f 02       		.byte	0x2
 1309 0590 23       		.byte	0x23
 1310 0591 00       		.uleb128 0
 1311 0592 07       		.uleb128 0x7
 1312 0593 5F686569 		.ascii "_height\0"
 1312      67687400 
 1313 059b 09       		.byte	0x9
 1314 059c 09       		.byte	0x9
 1315 059d 06       		.byte	0x6
 1316 059e A5000000 		.long	0xa5
 1317 05a2 02       		.byte	0x2
GAS LISTING C:\Users\jisu8\AppData\Local\Temp\ccLTtEny.s 			page 30


 1318 05a3 23       		.byte	0x23
 1319 05a4 04       		.uleb128 0x4
 1320 05a5 07       		.uleb128 0x7
 1321 05a6 5F726F77 		.ascii "_rowSize\0"
 1321      53697A65 
 1321      00
 1322 05af 09       		.byte	0x9
 1323 05b0 0A       		.byte	0xa
 1324 05b1 06       		.byte	0x6
 1325 05b2 A5000000 		.long	0xa5
 1326 05b6 02       		.byte	0x2
 1327 05b7 23       		.byte	0x23
 1328 05b8 08       		.uleb128 0x8
 1329 05b9 07       		.uleb128 0x7
 1330 05ba 62697473 		.ascii "bits\0"
 1330      00
 1331 05bf 09       		.byte	0x9
 1332 05c0 0B       		.byte	0xb
 1333 05c1 0C       		.byte	0xc
 1334 05c2 CA050000 		.long	0x5ca
 1335 05c6 02       		.byte	0x2
 1336 05c7 23       		.byte	0x23
 1337 05c8 0C       		.uleb128 0xc
 1338 05c9 00       		.byte	0
 1339 05ca 05       		.uleb128 0x5
 1340 05cb 04       		.byte	0x4
 1341 05cc 57010000 		.long	0x157
 1342 05d0 04       		.uleb128 0x4
 1343 05d1 4269744D 		.ascii "BitMatrix_t\0"
 1343      61747269 
 1343      785F7400 
 1344 05dd 09       		.byte	0x9
 1345 05de 0E       		.byte	0xe
 1346 05df 02       		.byte	0x2
 1347 05e0 77050000 		.long	0x577
 1348 05e4 0F       		.uleb128 0xf
 1349 05e5 08       		.byte	0x8
 1350 05e6 0A       		.byte	0xa
 1351 05e7 14       		.byte	0x14
 1352 05e8 09       		.byte	0x9
 1353 05e9 08060000 		.long	0x608
 1354 05ed 07       		.uleb128 0x7
 1355 05ee 7800     		.ascii "x\0"
 1356 05f0 0A       		.byte	0xa
 1357 05f1 16       		.byte	0x16
 1358 05f2 08       		.byte	0x8
 1359 05f3 08060000 		.long	0x608
 1360 05f7 02       		.byte	0x2
 1361 05f8 23       		.byte	0x23
 1362 05f9 00       		.uleb128 0
 1363 05fa 07       		.uleb128 0x7
 1364 05fb 7900     		.ascii "y\0"
 1365 05fd 0A       		.byte	0xa
 1366 05fe 17       		.byte	0x17
 1367 05ff 08       		.byte	0x8
 1368 0600 08060000 		.long	0x608
 1369 0604 02       		.byte	0x2
GAS LISTING C:\Users\jisu8\AppData\Local\Temp\ccLTtEny.s 			page 31


 1370 0605 23       		.byte	0x23
 1371 0606 04       		.uleb128 0x4
 1372 0607 00       		.byte	0
 1373 0608 02       		.uleb128 0x2
 1374 0609 04       		.byte	0x4
 1375 060a 04       		.byte	0x4
 1376 060b 666C6F61 		.ascii "float\0"
 1376      7400
 1377 0611 04       		.uleb128 0x4
 1378 0612 506F696E 		.ascii "PointT_t\0"
 1378      74545F74 
 1378      00
 1379 061b 0A       		.byte	0xa
 1380 061c 18       		.byte	0x18
 1381 061d 02       		.byte	0x2
 1382 061e E4050000 		.long	0x5e4
 1383 0622 0F       		.uleb128 0xf
 1384 0623 0C       		.byte	0xc
 1385 0624 0A       		.byte	0xa
 1386 0625 1A       		.byte	0x1a
 1387 0626 09       		.byte	0x9
 1388 0627 4A060000 		.long	0x64a
 1389 062b 0E       		.uleb128 0xe
 1390 062c 00000000 		.secrel32	LASF1
 1391 0630 0A       		.byte	0xa
 1392 0631 1C       		.byte	0x1c
 1393 0632 0A       		.byte	0xa
 1394 0633 57010000 		.long	0x157
 1395 0637 02       		.byte	0x2
 1396 0638 23       		.byte	0x23
 1397 0639 00       		.uleb128 0
 1398 063a 0E       		.uleb128 0xe
 1399 063b 12000000 		.secrel32	LASF2
 1400 063f 0A       		.byte	0xa
 1401 0640 1D       		.byte	0x1d
 1402 0641 0B       		.byte	0xb
 1403 0642 11060000 		.long	0x611
 1404 0646 02       		.byte	0x2
 1405 0647 23       		.byte	0x23
 1406 0648 04       		.uleb128 0x4
 1407 0649 00       		.byte	0
 1408 064a 04       		.uleb128 0x4
 1409 064b 52657375 		.ascii "ResultPoint_t\0"
 1409      6C74506F 
 1409      696E745F 
 1409      7400
 1410 0659 0A       		.byte	0xa
 1411 065a 1E       		.byte	0x1e
 1412 065b 02       		.byte	0x2
 1413 065c 22060000 		.long	0x622
 1414 0660 0F       		.uleb128 0xf
 1415 0661 08       		.byte	0x8
 1416 0662 0B       		.byte	0xb
 1417 0663 09       		.byte	0x9
 1418 0664 09       		.byte	0x9
 1419 0665 8C060000 		.long	0x68c
 1420 0669 07       		.uleb128 0x7
GAS LISTING C:\Users\jisu8\AppData\Local\Temp\ccLTtEny.s 			page 32


 1421 066a 62697473 		.ascii "bits\0"
 1421      00
 1422 066f 0B       		.byte	0xb
 1423 0670 0B       		.byte	0xb
 1424 0671 10       		.byte	0x10
 1425 0672 8C060000 		.long	0x68c
 1426 0676 02       		.byte	0x2
 1427 0677 23       		.byte	0x23
 1428 0678 00       		.uleb128 0
 1429 0679 07       		.uleb128 0x7
 1430 067a 706F696E 		.ascii "points\0"
 1430      747300
 1431 0681 0B       		.byte	0xb
 1432 0682 0C       		.byte	0xc
 1433 0683 12       		.byte	0x12
 1434 0684 92060000 		.long	0x692
 1435 0688 02       		.byte	0x2
 1436 0689 23       		.byte	0x23
 1437 068a 04       		.uleb128 0x4
 1438 068b 00       		.byte	0
 1439 068c 05       		.uleb128 0x5
 1440 068d 04       		.byte	0x4
 1441 068e D0050000 		.long	0x5d0
 1442 0692 05       		.uleb128 0x5
 1443 0693 04       		.byte	0x4
 1444 0694 4A060000 		.long	0x64a
 1445 0698 04       		.uleb128 0x4
 1446 0699 44657465 		.ascii "Detector_Result_t\0"
 1446      63746F72 
 1446      5F526573 
 1446      756C745F 
 1446      7400
 1447 06ab 0B       		.byte	0xb
 1448 06ac 0D       		.byte	0xd
 1449 06ad 02       		.byte	0x2
 1450 06ae 60060000 		.long	0x660
 1451 06b2 0A       		.uleb128 0xa
 1452 06b3 4D4F4455 		.ascii "MODULES_IN_CODEWORD\0"
 1452      4C45535F 
 1452      494E5F43 
 1452      4F444557 
 1452      4F524400 
 1453 06c7 0C       		.byte	0xc
 1454 06c8 1D       		.byte	0x1d
 1455 06c9 12       		.byte	0x12
 1456 06ca AC000000 		.long	0xac
 1457 06ce 01       		.byte	0x1
 1458 06cf 01       		.byte	0x1
 1459 06d0 0A       		.uleb128 0xa
 1460 06d1 42415253 		.ascii "BARS_IN_MODULE\0"
 1460      5F494E5F 
 1460      4D4F4455 
 1460      4C4500
 1461 06e0 0C       		.byte	0xc
 1462 06e1 1E       		.byte	0x1e
 1463 06e2 12       		.byte	0x12
 1464 06e3 AC000000 		.long	0xac
GAS LISTING C:\Users\jisu8\AppData\Local\Temp\ccLTtEny.s 			page 33


 1465 06e7 01       		.byte	0x1
 1466 06e8 01       		.byte	0x1
 1467 06e9 0F       		.uleb128 0xf
 1468 06ea 0C       		.byte	0xc
 1469 06eb 0D       		.byte	0xd
 1470 06ec 04       		.byte	0x4
 1471 06ed 09       		.byte	0x9
 1472 06ee 23070000 		.long	0x723
 1473 06f2 07       		.uleb128 0x7
 1474 06f3 696E6465 		.ascii "index\0"
 1474      7800
 1475 06f9 0D       		.byte	0xd
 1476 06fa 06       		.byte	0x6
 1477 06fb 06       		.byte	0x6
 1478 06fc A5000000 		.long	0xa5
 1479 0700 02       		.byte	0x2
 1480 0701 23       		.byte	0x23
 1481 0702 00       		.uleb128 0
 1482 0703 07       		.uleb128 0x7
 1483 0704 636F756E 		.ascii "count\0"
 1483      7400
 1484 070a 0D       		.byte	0xd
 1485 070b 07       		.byte	0x7
 1486 070c 06       		.byte	0x6
 1487 070d A5000000 		.long	0xa5
 1488 0711 02       		.byte	0x2
 1489 0712 23       		.byte	0x23
 1490 0713 04       		.uleb128 0x4
 1491 0714 07       		.uleb128 0x7
 1492 0715 696400   		.ascii "id\0"
 1493 0718 0D       		.byte	0xd
 1494 0719 08       		.byte	0x8
 1495 071a 09       		.byte	0x9
 1496 071b F4000000 		.long	0xf4
 1497 071f 02       		.byte	0x2
 1498 0720 23       		.byte	0x23
 1499 0721 08       		.uleb128 0x8
 1500 0722 00       		.byte	0
 1501 0723 04       		.uleb128 0x4
 1502 0724 53747275 		.ascii "StructuredAppendInfo_t\0"
 1502      63747572 
 1502      65644170 
 1502      70656E64 
 1502      496E666F 
 1503 073b 0D       		.byte	0xd
 1504 073c 09       		.byte	0x9
 1505 073d 02       		.byte	0x2
 1506 073e E9060000 		.long	0x6e9
 1507 0742 0F       		.uleb128 0xf
 1508 0743 30       		.byte	0x30
 1509 0744 0E       		.byte	0xe
 1510 0745 06       		.byte	0x6
 1511 0746 09       		.byte	0x9
 1512 0747 20080000 		.long	0x820
 1513 074b 0E       		.uleb128 0xe
 1514 074c 0B000000 		.secrel32	LASF3
 1515 0750 0E       		.byte	0xe
GAS LISTING C:\Users\jisu8\AppData\Local\Temp\ccLTtEny.s 			page 34


 1516 0751 08       		.byte	0x8
 1517 0752 11       		.byte	0x11
 1518 0753 60050000 		.long	0x560
 1519 0757 02       		.byte	0x2
 1520 0758 23       		.byte	0x23
 1521 0759 00       		.uleb128 0
 1522 075a 07       		.uleb128 0x7
 1523 075b 5F726177 		.ascii "_rawBytes\0"
 1523      42797465 
 1523      7300
 1524 0765 0E       		.byte	0xe
 1525 0766 09       		.byte	0x9
 1526 0767 0C       		.byte	0xc
 1527 0768 CA050000 		.long	0x5ca
 1528 076c 02       		.byte	0x2
 1529 076d 23       		.byte	0x23
 1530 076e 04       		.uleb128 0x4
 1531 076f 07       		.uleb128 0x7
 1532 0770 5F6E756D 		.ascii "_numBits\0"
 1532      42697473 
 1532      00
 1533 0779 0E       		.byte	0xe
 1534 077a 0A       		.byte	0xa
 1535 077b 06       		.byte	0x6
 1536 077c A5000000 		.long	0xa5
 1537 0780 02       		.byte	0x2
 1538 0781 23       		.byte	0x23
 1539 0782 08       		.uleb128 0x8
 1540 0783 07       		.uleb128 0x7
 1541 0784 5F746578 		.ascii "_text\0"
 1541      7400
 1542 078a 0E       		.byte	0xe
 1543 078b 0B       		.byte	0xb
 1544 078c 12       		.byte	0x12
 1545 078d F7040000 		.long	0x4f7
 1546 0791 02       		.byte	0x2
 1547 0792 23       		.byte	0x23
 1548 0793 0C       		.uleb128 0xc
 1549 0794 07       		.uleb128 0x7
 1550 0795 5F65634C 		.ascii "_ecLevel\0"
 1550      6576656C 
 1550      00
 1551 079e 0E       		.byte	0xe
 1552 079f 0C       		.byte	0xc
 1553 07a0 12       		.byte	0x12
 1554 07a1 F7040000 		.long	0x4f7
 1555 07a5 02       		.byte	0x2
 1556 07a6 23       		.byte	0x23
 1557 07a7 10       		.uleb128 0x10
 1558 07a8 07       		.uleb128 0x7
 1559 07a9 5F657272 		.ascii "_errorsCorrected\0"
 1559      6F727343 
 1559      6F727265 
 1559      63746564 
 1559      00
 1560 07ba 0E       		.byte	0xe
 1561 07bb 0D       		.byte	0xd
GAS LISTING C:\Users\jisu8\AppData\Local\Temp\ccLTtEny.s 			page 35


 1562 07bc 06       		.byte	0x6
 1563 07bd A5000000 		.long	0xa5
 1564 07c1 02       		.byte	0x2
 1565 07c2 23       		.byte	0x23
 1566 07c3 14       		.uleb128 0x14
 1567 07c4 07       		.uleb128 0x7
 1568 07c5 5F657261 		.ascii "_erasures\0"
 1568      73757265 
 1568      7300
 1569 07cf 0E       		.byte	0xe
 1570 07d0 0E       		.byte	0xe
 1571 07d1 06       		.byte	0x6
 1572 07d2 A5000000 		.long	0xa5
 1573 07d6 02       		.byte	0x2
 1574 07d7 23       		.byte	0x23
 1575 07d8 18       		.uleb128 0x18
 1576 07d9 07       		.uleb128 0x7
 1577 07da 5F737472 		.ascii "_structuredAppend\0"
 1577      75637475 
 1577      72656441 
 1577      7070656E 
 1577      6400
 1578 07ec 0E       		.byte	0xe
 1579 07ed 0F       		.byte	0xf
 1580 07ee 19       		.byte	0x19
 1581 07ef 23070000 		.long	0x723
 1582 07f3 02       		.byte	0x2
 1583 07f4 23       		.byte	0x23
 1584 07f5 1C       		.uleb128 0x1c
 1585 07f6 07       		.uleb128 0x7
 1586 07f7 5F726561 		.ascii "_readerInit\0"
 1586      64657249 
 1586      6E697400 
 1587 0803 0E       		.byte	0xe
 1588 0804 10       		.byte	0x10
 1589 0805 0A       		.byte	0xa
 1590 0806 57010000 		.long	0x157
 1591 080a 02       		.byte	0x2
 1592 080b 23       		.byte	0x23
 1593 080c 28       		.uleb128 0x28
 1594 080d 07       		.uleb128 0x7
 1595 080e 5F657874 		.ascii "_extra\0"
 1595      726100
 1596 0815 0E       		.byte	0xe
 1597 0816 11       		.byte	0x11
 1598 0817 0C       		.byte	0xc
 1599 0818 CA050000 		.long	0x5ca
 1600 081c 02       		.byte	0x2
 1601 081d 23       		.byte	0x23
 1602 081e 2C       		.uleb128 0x2c
 1603 081f 00       		.byte	0
 1604 0820 04       		.uleb128 0x4
 1605 0821 4465636F 		.ascii "DecoderResult_t\0"
 1605      64657252 
 1605      6573756C 
 1605      745F7400 
 1606 0831 0E       		.byte	0xe
GAS LISTING C:\Users\jisu8\AppData\Local\Temp\ccLTtEny.s 			page 36


 1607 0832 12       		.byte	0x12
 1608 0833 02       		.byte	0x2
 1609 0834 42070000 		.long	0x742
 1610 0838 0F       		.uleb128 0xf
 1611 0839 48       		.byte	0x48
 1612 083a 0F       		.byte	0xf
 1613 083b 06       		.byte	0x6
 1614 083c 09       		.byte	0x9
 1615 083d 09090000 		.long	0x909
 1616 0841 07       		.uleb128 0x7
 1617 0842 5F696D67 		.ascii "_imgWidth\0"
 1617      57696474 
 1617      6800
 1618 084c 0F       		.byte	0xf
 1619 084d 08       		.byte	0x8
 1620 084e 06       		.byte	0x6
 1621 084f A5000000 		.long	0xa5
 1622 0853 02       		.byte	0x2
 1623 0854 23       		.byte	0x23
 1624 0855 00       		.uleb128 0
 1625 0856 07       		.uleb128 0x7
 1626 0857 5F696D67 		.ascii "_imgHeight\0"
 1626      48656967 
 1626      687400
 1627 0862 0F       		.byte	0xf
 1628 0863 09       		.byte	0x9
 1629 0864 06       		.byte	0x6
 1630 0865 A5000000 		.long	0xa5
 1631 0869 02       		.byte	0x2
 1632 086a 23       		.byte	0x23
 1633 086b 04       		.uleb128 0x4
 1634 086c 07       		.uleb128 0x7
 1635 086d 5F746F70 		.ascii "_topLeft\0"
 1635      4C656674 
 1635      00
 1636 0876 0F       		.byte	0xf
 1637 0877 0A       		.byte	0xa
 1638 0878 10       		.byte	0x10
 1639 0879 4A060000 		.long	0x64a
 1640 087d 02       		.byte	0x2
 1641 087e 23       		.byte	0x23
 1642 087f 08       		.uleb128 0x8
 1643 0880 07       		.uleb128 0x7
 1644 0881 5F626F74 		.ascii "_bottomLeft\0"
 1644      746F6D4C 
 1644      65667400 
 1645 088d 0F       		.byte	0xf
 1646 088e 0B       		.byte	0xb
 1647 088f 10       		.byte	0x10
 1648 0890 4A060000 		.long	0x64a
 1649 0894 02       		.byte	0x2
 1650 0895 23       		.byte	0x23
 1651 0896 14       		.uleb128 0x14
 1652 0897 07       		.uleb128 0x7
 1653 0898 5F746F70 		.ascii "_topRight\0"
 1653      52696768 
 1653      7400
GAS LISTING C:\Users\jisu8\AppData\Local\Temp\ccLTtEny.s 			page 37


 1654 08a2 0F       		.byte	0xf
 1655 08a3 0C       		.byte	0xc
 1656 08a4 10       		.byte	0x10
 1657 08a5 4A060000 		.long	0x64a
 1658 08a9 02       		.byte	0x2
 1659 08aa 23       		.byte	0x23
 1660 08ab 20       		.uleb128 0x20
 1661 08ac 07       		.uleb128 0x7
 1662 08ad 5F626F74 		.ascii "_bottomRight\0"
 1662      746F6D52 
 1662      69676874 
 1662      00
 1663 08ba 0F       		.byte	0xf
 1664 08bb 0D       		.byte	0xd
 1665 08bc 10       		.byte	0x10
 1666 08bd 4A060000 		.long	0x64a
 1667 08c1 02       		.byte	0x2
 1668 08c2 23       		.byte	0x23
 1669 08c3 2C       		.uleb128 0x2c
 1670 08c4 07       		.uleb128 0x7
 1671 08c5 5F6D696E 		.ascii "_minX\0"
 1671      5800
 1672 08cb 0F       		.byte	0xf
 1673 08cc 0E       		.byte	0xe
 1674 08cd 06       		.byte	0x6
 1675 08ce A5000000 		.long	0xa5
 1676 08d2 02       		.byte	0x2
 1677 08d3 23       		.byte	0x23
 1678 08d4 38       		.uleb128 0x38
 1679 08d5 07       		.uleb128 0x7
 1680 08d6 5F6D6178 		.ascii "_maxX\0"
 1680      5800
 1681 08dc 0F       		.byte	0xf
 1682 08dd 0F       		.byte	0xf
 1683 08de 06       		.byte	0x6
 1684 08df A5000000 		.long	0xa5
 1685 08e3 02       		.byte	0x2
 1686 08e4 23       		.byte	0x23
 1687 08e5 3C       		.uleb128 0x3c
 1688 08e6 07       		.uleb128 0x7
 1689 08e7 5F6D696E 		.ascii "_minY\0"
 1689      5900
 1690 08ed 0F       		.byte	0xf
 1691 08ee 10       		.byte	0x10
 1692 08ef 06       		.byte	0x6
 1693 08f0 A5000000 		.long	0xa5
 1694 08f4 02       		.byte	0x2
 1695 08f5 23       		.byte	0x23
 1696 08f6 40       		.uleb128 0x40
 1697 08f7 07       		.uleb128 0x7
 1698 08f8 5F6D6178 		.ascii "_maxY\0"
 1698      5900
 1699 08fe 0F       		.byte	0xf
 1700 08ff 11       		.byte	0x11
 1701 0900 06       		.byte	0x6
 1702 0901 A5000000 		.long	0xa5
 1703 0905 02       		.byte	0x2
GAS LISTING C:\Users\jisu8\AppData\Local\Temp\ccLTtEny.s 			page 38


 1704 0906 23       		.byte	0x23
 1705 0907 44       		.uleb128 0x44
 1706 0908 00       		.byte	0
 1707 0909 04       		.uleb128 0x4
 1708 090a 426F756E 		.ascii "BoundingBox_val_t\0"
 1708      64696E67 
 1708      426F785F 
 1708      76616C5F 
 1708      7400
 1709 091c 0F       		.byte	0xf
 1710 091d 12       		.byte	0x12
 1711 091e 02       		.byte	0x2
 1712 091f 38080000 		.long	0x838
 1713 0923 0F       		.uleb128 0xf
 1714 0924 4C       		.byte	0x4c
 1715 0925 0F       		.byte	0xf
 1716 0926 14       		.byte	0x14
 1717 0927 09       		.byte	0x9
 1718 0928 4B090000 		.long	0x94b
 1719 092c 0E       		.uleb128 0xe
 1720 092d 00000000 		.secrel32	LASF1
 1721 0931 0F       		.byte	0xf
 1722 0932 16       		.byte	0x16
 1723 0933 0A       		.byte	0xa
 1724 0934 57010000 		.long	0x157
 1725 0938 02       		.byte	0x2
 1726 0939 23       		.byte	0x23
 1727 093a 00       		.uleb128 0
 1728 093b 0E       		.uleb128 0xe
 1729 093c 12000000 		.secrel32	LASF2
 1730 0940 0F       		.byte	0xf
 1731 0941 17       		.byte	0x17
 1732 0942 14       		.byte	0x14
 1733 0943 09090000 		.long	0x909
 1734 0947 02       		.byte	0x2
 1735 0948 23       		.byte	0x23
 1736 0949 04       		.uleb128 0x4
 1737 094a 00       		.byte	0
 1738 094b 04       		.uleb128 0x4
 1739 094c 426F756E 		.ascii "BoundingBox_t\0"
 1739      64696E67 
 1739      426F785F 
 1739      7400
 1740 095a 0F       		.byte	0xf
 1741 095b 18       		.byte	0x18
 1742 095c 02       		.byte	0x2
 1743 095d 23090000 		.long	0x923
 1744 0961 0F       		.uleb128 0xf
 1745 0962 14       		.byte	0x14
 1746 0963 10       		.byte	0x10
 1747 0964 04       		.byte	0x4
 1748 0965 09       		.byte	0x9
 1749 0966 CA090000 		.long	0x9ca
 1750 096a 07       		.uleb128 0x7
 1751 096b 5F737461 		.ascii "_startX\0"
 1751      72745800 
 1752 0973 10       		.byte	0x10
GAS LISTING C:\Users\jisu8\AppData\Local\Temp\ccLTtEny.s 			page 39


 1753 0974 06       		.byte	0x6
 1754 0975 06       		.byte	0x6
 1755 0976 A5000000 		.long	0xa5
 1756 097a 02       		.byte	0x2
 1757 097b 23       		.byte	0x23
 1758 097c 00       		.uleb128 0
 1759 097d 07       		.uleb128 0x7
 1760 097e 5F656E64 		.ascii "_endX\0"
 1760      5800
 1761 0984 10       		.byte	0x10
 1762 0985 07       		.byte	0x7
 1763 0986 06       		.byte	0x6
 1764 0987 A5000000 		.long	0xa5
 1765 098b 02       		.byte	0x2
 1766 098c 23       		.byte	0x23
 1767 098d 04       		.uleb128 0x4
 1768 098e 07       		.uleb128 0x7
 1769 098f 5F627563 		.ascii "_bucket\0"
 1769      6B657400 
 1770 0997 10       		.byte	0x10
 1771 0998 08       		.byte	0x8
 1772 0999 06       		.byte	0x6
 1773 099a A5000000 		.long	0xa5
 1774 099e 02       		.byte	0x2
 1775 099f 23       		.byte	0x23
 1776 09a0 08       		.uleb128 0x8
 1777 09a1 07       		.uleb128 0x7
 1778 09a2 5F76616C 		.ascii "_value\0"
 1778      756500
 1779 09a9 10       		.byte	0x10
 1780 09aa 09       		.byte	0x9
 1781 09ab 06       		.byte	0x6
 1782 09ac A5000000 		.long	0xa5
 1783 09b0 02       		.byte	0x2
 1784 09b1 23       		.byte	0x23
 1785 09b2 0C       		.uleb128 0xc
 1786 09b3 07       		.uleb128 0x7
 1787 09b4 5F726F77 		.ascii "_rowNumber\0"
 1787      4E756D62 
 1787      657200
 1788 09bf 10       		.byte	0x10
 1789 09c0 0A       		.byte	0xa
 1790 09c1 06       		.byte	0x6
 1791 09c2 A5000000 		.long	0xa5
 1792 09c6 02       		.byte	0x2
 1793 09c7 23       		.byte	0x23
 1794 09c8 10       		.uleb128 0x10
 1795 09c9 00       		.byte	0
 1796 09ca 04       		.uleb128 0x4
 1797 09cb 436F6465 		.ascii "Codeword_val_t\0"
 1797      776F7264 
 1797      5F76616C 
 1797      5F7400
 1798 09da 10       		.byte	0x10
 1799 09db 0B       		.byte	0xb
 1800 09dc 02       		.byte	0x2
 1801 09dd 61090000 		.long	0x961
GAS LISTING C:\Users\jisu8\AppData\Local\Temp\ccLTtEny.s 			page 40


 1802 09e1 0F       		.uleb128 0xf
 1803 09e2 18       		.byte	0x18
 1804 09e3 10       		.byte	0x10
 1805 09e4 0C       		.byte	0xc
 1806 09e5 09       		.byte	0x9
 1807 09e6 090A0000 		.long	0xa09
 1808 09ea 0E       		.uleb128 0xe
 1809 09eb 00000000 		.secrel32	LASF1
 1810 09ef 10       		.byte	0x10
 1811 09f0 0E       		.byte	0xe
 1812 09f1 0A       		.byte	0xa
 1813 09f2 57010000 		.long	0x157
 1814 09f6 02       		.byte	0x2
 1815 09f7 23       		.byte	0x23
 1816 09f8 00       		.uleb128 0
 1817 09f9 0E       		.uleb128 0xe
 1818 09fa 12000000 		.secrel32	LASF2
 1819 09fe 10       		.byte	0x10
 1820 09ff 0F       		.byte	0xf
 1821 0a00 11       		.byte	0x11
 1822 0a01 CA090000 		.long	0x9ca
 1823 0a05 02       		.byte	0x2
 1824 0a06 23       		.byte	0x23
 1825 0a07 04       		.uleb128 0x4
 1826 0a08 00       		.byte	0
 1827 0a09 04       		.uleb128 0x4
 1828 0a0a 436F6465 		.ascii "Codeword_t\0"
 1828      776F7264 
 1828      5F7400
 1829 0a15 10       		.byte	0x10
 1830 0a16 10       		.byte	0x10
 1831 0a17 02       		.byte	0x2
 1832 0a18 E1090000 		.long	0x9e1
 1833 0a1c 0B       		.uleb128 0xb
 1834 0a1d 07       		.byte	0x7
 1835 0a1e 04       		.byte	0x4
 1836 0a1f 95000000 		.long	0x95
 1837 0a23 11       		.byte	0x11
 1838 0a24 09       		.byte	0x9
 1839 0a25 01       		.byte	0x1
 1840 0a26 410A0000 		.long	0xa41
 1841 0a2a 0C       		.uleb128 0xc
 1842 0a2b 4E6F6E65 		.ascii "None\0"
 1842      00
 1843 0a30 00       		.byte	0
 1844 0a31 0C       		.uleb128 0xc
 1845 0a32 4C656674 		.ascii "Left\0"
 1845      00
 1846 0a37 01       		.byte	0x1
 1847 0a38 0C       		.uleb128 0xc
 1848 0a39 52696768 		.ascii "Right\0"
 1848      7400
 1849 0a3f 02       		.byte	0x2
 1850 0a40 00       		.byte	0
 1851 0a41 04       		.uleb128 0x4
 1852 0a42 526F7749 		.ascii "RowIndicator_t\0"
 1852      6E646963 
GAS LISTING C:\Users\jisu8\AppData\Local\Temp\ccLTtEny.s 			page 41


 1852      61746F72 
 1852      5F7400
 1853 0a51 11       		.byte	0x11
 1854 0a52 0D       		.byte	0xd
 1855 0a53 02       		.byte	0x2
 1856 0a54 1C0A0000 		.long	0xa1c
 1857 0a58 10       		.uleb128 0x10
 1858 0a59 302F     		.word	0x2f30
 1859 0a5b 11       		.byte	0x11
 1860 0a5c 0F       		.byte	0xf
 1861 0a5d 09       		.byte	0x9
 1862 0a5e AB0A0000 		.long	0xaab
 1863 0a62 07       		.uleb128 0x7
 1864 0a63 5F626F75 		.ascii "_boundingBox\0"
 1864      6E64696E 
 1864      67426F78 
 1864      00
 1865 0a70 11       		.byte	0x11
 1866 0a71 11       		.byte	0x11
 1867 0a72 10       		.byte	0x10
 1868 0a73 4B090000 		.long	0x94b
 1869 0a77 02       		.byte	0x2
 1870 0a78 23       		.byte	0x23
 1871 0a79 00       		.uleb128 0
 1872 0a7a 07       		.uleb128 0x7
 1873 0a7b 5F636F64 		.ascii "_codewords\0"
 1873      65776F72 
 1873      647300
 1874 0a86 11       		.byte	0x11
 1875 0a87 12       		.byte	0x12
 1876 0a88 0D       		.byte	0xd
 1877 0a89 AB0A0000 		.long	0xaab
 1878 0a8d 02       		.byte	0x2
 1879 0a8e 23       		.byte	0x23
 1880 0a8f 4C       		.uleb128 0x4c
 1881 0a90 07       		.uleb128 0x7
 1882 0a91 5F726F77 		.ascii "_rowIndicator\0"
 1882      496E6469 
 1882      6361746F 
 1882      7200
 1883 0a9f 11       		.byte	0x11
 1884 0aa0 13       		.byte	0x13
 1885 0aa1 11       		.byte	0x11
 1886 0aa2 410A0000 		.long	0xa41
 1887 0aa6 03       		.byte	0x3
 1888 0aa7 23       		.byte	0x23
 1889 0aa8 AC5E     		.uleb128 0x2f2c
 1890 0aaa 00       		.byte	0
 1891 0aab 08       		.uleb128 0x8
 1892 0aac 090A0000 		.long	0xa09
 1893 0ab0 BC0A0000 		.long	0xabc
 1894 0ab4 11       		.uleb128 0x11
 1895 0ab5 95000000 		.long	0x95
 1896 0ab9 F301     		.word	0x1f3
 1897 0abb 00       		.byte	0
 1898 0abc 04       		.uleb128 0x4
 1899 0abd 44657465 		.ascii "DetectionResultColumn_val_t\0"
GAS LISTING C:\Users\jisu8\AppData\Local\Temp\ccLTtEny.s 			page 42


 1899      6374696F 
 1899      6E526573 
 1899      756C7443 
 1899      6F6C756D 
 1900 0ad9 11       		.byte	0x11
 1901 0ada 14       		.byte	0x14
 1902 0adb 02       		.byte	0x2
 1903 0adc 580A0000 		.long	0xa58
 1904 0ae0 10       		.uleb128 0x10
 1905 0ae1 342F     		.word	0x2f34
 1906 0ae3 11       		.byte	0x11
 1907 0ae4 15       		.byte	0x15
 1908 0ae5 09       		.byte	0x9
 1909 0ae6 090B0000 		.long	0xb09
 1910 0aea 0E       		.uleb128 0xe
 1911 0aeb 00000000 		.secrel32	LASF1
 1912 0aef 11       		.byte	0x11
 1913 0af0 17       		.byte	0x17
 1914 0af1 0A       		.byte	0xa
 1915 0af2 57010000 		.long	0x157
 1916 0af6 02       		.byte	0x2
 1917 0af7 23       		.byte	0x23
 1918 0af8 00       		.uleb128 0
 1919 0af9 0E       		.uleb128 0xe
 1920 0afa 12000000 		.secrel32	LASF2
 1921 0afe 11       		.byte	0x11
 1922 0aff 18       		.byte	0x18
 1923 0b00 1E       		.byte	0x1e
 1924 0b01 BC0A0000 		.long	0xabc
 1925 0b05 02       		.byte	0x2
 1926 0b06 23       		.byte	0x23
 1927 0b07 04       		.uleb128 0x4
 1928 0b08 00       		.byte	0
 1929 0b09 04       		.uleb128 0x4
 1930 0b0a 44657465 		.ascii "DetectionResultColumn_t\0"
 1930      6374696F 
 1930      6E526573 
 1930      756C7443 
 1930      6F6C756D 
 1931 0b22 11       		.byte	0x11
 1932 0b23 19       		.byte	0x19
 1933 0b24 02       		.byte	0x2
 1934 0b25 E00A0000 		.long	0xae0
 1935 0b29 0A       		.uleb128 0xa
 1936 0b2a 726F7749 		.ascii "rowIndicatorColumn\0"
 1936      6E646963 
 1936      61746F72 
 1936      436F6C75 
 1936      6D6E00
 1937 0b3d 12       		.byte	0x12
 1938 0b3e 0D       		.byte	0xd
 1939 0b3f 20       		.byte	0x20
 1940 0b40 090B0000 		.long	0xb09
 1941 0b44 01       		.byte	0x1
 1942 0b45 01       		.byte	0x1
 1943 0b46 02       		.uleb128 0x2
 1944 0b47 08       		.byte	0x8
GAS LISTING C:\Users\jisu8\AppData\Local\Temp\ccLTtEny.s 			page 43


 1945 0b48 04       		.byte	0x4
 1946 0b49 646F7562 		.ascii "double\0"
 1946      6C6500
 1947 0b50 0A       		.uleb128 0xa
 1948 0b51 5F696D70 		.ascii "_imp____mb_cur_max\0"
 1948      5F5F5F5F 
 1948      6D625F63 
 1948      75725F6D 
 1948      617800
 1949 0b64 13       		.byte	0x13
 1950 0b65 73       		.byte	0x73
 1951 0b66 10       		.byte	0x10
 1952 0b67 00010000 		.long	0x100
 1953 0b6b 01       		.byte	0x1
 1954 0b6c 01       		.byte	0x1
 1955 0b6d 08       		.uleb128 0x8
 1956 0b6e F4000000 		.long	0xf4
 1957 0b72 7D0B0000 		.long	0xb7d
 1958 0b76 12       		.uleb128 0x12
 1959 0b77 95000000 		.long	0x95
 1960 0b7b 00       		.byte	0
 1961 0b7c 00       		.byte	0
 1962 0b7d 0A       		.uleb128 0xa
 1963 0b7e 5F737973 		.ascii "_sys_errlist\0"
 1963      5F657272 
 1963      6C697374 
 1963      00
 1964 0b8b 13       		.byte	0x13
 1965 0b8c AC       		.byte	0xac
 1966 0b8d 26       		.byte	0x26
 1967 0b8e 6D0B0000 		.long	0xb6d
 1968 0b92 01       		.byte	0x1
 1969 0b93 01       		.byte	0x1
 1970 0b94 0A       		.uleb128 0xa
 1971 0b95 5F737973 		.ascii "_sys_nerr\0"
 1971      5F6E6572 
 1971      7200
 1972 0b9f 13       		.byte	0x13
 1973 0ba0 AD       		.byte	0xad
 1974 0ba1 24       		.byte	0x24
 1975 0ba2 A5000000 		.long	0xa5
 1976 0ba6 01       		.byte	0x1
 1977 0ba7 01       		.byte	0x1
 1978 0ba8 13       		.uleb128 0x13
 1979 0ba9 5F696D70 		.ascii "_imp____argc\0"
 1979      5F5F5F5F 
 1979      61726763 
 1979      00
 1980 0bb6 13       		.byte	0x13
 1981 0bb7 1901     		.word	0x119
 1982 0bb9 10       		.byte	0x10
 1983 0bba 00010000 		.long	0x100
 1984 0bbe 01       		.byte	0x1
 1985 0bbf 01       		.byte	0x1
 1986 0bc0 13       		.uleb128 0x13
 1987 0bc1 5F696D70 		.ascii "_imp____argv\0"
 1987      5F5F5F5F 
GAS LISTING C:\Users\jisu8\AppData\Local\Temp\ccLTtEny.s 			page 44


 1987      61726776 
 1987      00
 1988 0bce 13       		.byte	0x13
 1989 0bcf 1D01     		.word	0x11d
 1990 0bd1 13       		.byte	0x13
 1991 0bd2 D80B0000 		.long	0xbd8
 1992 0bd6 01       		.byte	0x1
 1993 0bd7 01       		.byte	0x1
 1994 0bd8 05       		.uleb128 0x5
 1995 0bd9 04       		.byte	0x4
 1996 0bda DE0B0000 		.long	0xbde
 1997 0bde 05       		.uleb128 0x5
 1998 0bdf 04       		.byte	0x4
 1999 0be0 F4000000 		.long	0xf4
 2000 0be4 13       		.uleb128 0x13
 2001 0be5 5F696D70 		.ascii "_imp____wargv\0"
 2001      5F5F5F5F 
 2001      77617267 
 2001      7600
 2002 0bf3 13       		.byte	0x13
 2003 0bf4 2101     		.word	0x121
 2004 0bf6 16       		.byte	0x16
 2005 0bf7 FD0B0000 		.long	0xbfd
 2006 0bfb 01       		.byte	0x1
 2007 0bfc 01       		.byte	0x1
 2008 0bfd 05       		.uleb128 0x5
 2009 0bfe 04       		.byte	0x4
 2010 0bff 030C0000 		.long	0xc03
 2011 0c03 05       		.uleb128 0x5
 2012 0c04 04       		.byte	0x4
 2013 0c05 FA000000 		.long	0xfa
 2014 0c09 13       		.uleb128 0x13
 2015 0c0a 5F696D70 		.ascii "_imp___environ\0"
 2015      5F5F5F65 
 2015      6E766972 
 2015      6F6E00
 2016 0c19 13       		.byte	0x13
 2017 0c1a 2701     		.word	0x127
 2018 0c1c 13       		.byte	0x13
 2019 0c1d D80B0000 		.long	0xbd8
 2020 0c21 01       		.byte	0x1
 2021 0c22 01       		.byte	0x1
 2022 0c23 13       		.uleb128 0x13
 2023 0c24 5F696D70 		.ascii "_imp___wenviron\0"
 2023      5F5F5F77 
 2023      656E7669 
 2023      726F6E00 
 2024 0c34 13       		.byte	0x13
 2025 0c35 2C01     		.word	0x12c
 2026 0c37 16       		.byte	0x16
 2027 0c38 FD0B0000 		.long	0xbfd
 2028 0c3c 01       		.byte	0x1
 2029 0c3d 01       		.byte	0x1
 2030 0c3e 13       		.uleb128 0x13
 2031 0c3f 5F696D70 		.ascii "_imp___pgmptr\0"
 2031      5F5F5F70 
 2031      676D7074 
GAS LISTING C:\Users\jisu8\AppData\Local\Temp\ccLTtEny.s 			page 45


 2031      7200
 2032 0c4d 13       		.byte	0x13
 2033 0c4e 3201     		.word	0x132
 2034 0c50 12       		.byte	0x12
 2035 0c51 DE0B0000 		.long	0xbde
 2036 0c55 01       		.byte	0x1
 2037 0c56 01       		.byte	0x1
 2038 0c57 13       		.uleb128 0x13
 2039 0c58 5F696D70 		.ascii "_imp___wpgmptr\0"
 2039      5F5F5F77 
 2039      70676D70 
 2039      747200
 2040 0c67 13       		.byte	0x13
 2041 0c68 3701     		.word	0x137
 2042 0c6a 15       		.byte	0x15
 2043 0c6b 030C0000 		.long	0xc03
 2044 0c6f 01       		.byte	0x1
 2045 0c70 01       		.byte	0x1
 2046 0c71 13       		.uleb128 0x13
 2047 0c72 5F696D70 		.ascii "_imp___osplatform\0"
 2047      5F5F5F6F 
 2047      73706C61 
 2047      74666F72 
 2047      6D00
 2048 0c84 13       		.byte	0x13
 2049 0c85 3C01     		.word	0x13c
 2050 0c87 19       		.byte	0x19
 2051 0c88 8E0C0000 		.long	0xc8e
 2052 0c8c 01       		.byte	0x1
 2053 0c8d 01       		.byte	0x1
 2054 0c8e 05       		.uleb128 0x5
 2055 0c8f 04       		.byte	0x4
 2056 0c90 95000000 		.long	0x95
 2057 0c94 13       		.uleb128 0x13
 2058 0c95 5F696D70 		.ascii "_imp___osver\0"
 2058      5F5F5F6F 
 2058      73766572 
 2058      00
 2059 0ca2 13       		.byte	0x13
 2060 0ca3 4101     		.word	0x141
 2061 0ca5 19       		.byte	0x19
 2062 0ca6 8E0C0000 		.long	0xc8e
 2063 0caa 01       		.byte	0x1
 2064 0cab 01       		.byte	0x1
 2065 0cac 13       		.uleb128 0x13
 2066 0cad 5F696D70 		.ascii "_imp___winver\0"
 2066      5F5F5F77 
 2066      696E7665 
 2066      7200
 2067 0cbb 13       		.byte	0x13
 2068 0cbc 4601     		.word	0x146
 2069 0cbe 19       		.byte	0x19
 2070 0cbf 8E0C0000 		.long	0xc8e
 2071 0cc3 01       		.byte	0x1
 2072 0cc4 01       		.byte	0x1
 2073 0cc5 13       		.uleb128 0x13
 2074 0cc6 5F696D70 		.ascii "_imp___winmajor\0"
GAS LISTING C:\Users\jisu8\AppData\Local\Temp\ccLTtEny.s 			page 46


 2074      5F5F5F77 
 2074      696E6D61 
 2074      6A6F7200 
 2075 0cd6 13       		.byte	0x13
 2076 0cd7 4B01     		.word	0x14b
 2077 0cd9 19       		.byte	0x19
 2078 0cda 8E0C0000 		.long	0xc8e
 2079 0cde 01       		.byte	0x1
 2080 0cdf 01       		.byte	0x1
 2081 0ce0 13       		.uleb128 0x13
 2082 0ce1 5F696D70 		.ascii "_imp___winminor\0"
 2082      5F5F5F77 
 2082      696E6D69 
 2082      6E6F7200 
 2083 0cf1 13       		.byte	0x13
 2084 0cf2 5001     		.word	0x150
 2085 0cf4 19       		.byte	0x19
 2086 0cf5 8E0C0000 		.long	0xc8e
 2087 0cf9 01       		.byte	0x1
 2088 0cfa 01       		.byte	0x1
 2089 0cfb 0A       		.uleb128 0xa
 2090 0cfc 5F616D62 		.ascii "_amblksiz\0"
 2090      6C6B7369 
 2090      7A00
 2091 0d06 14       		.byte	0x14
 2092 0d07 35       		.byte	0x35
 2093 0d08 17       		.byte	0x17
 2094 0d09 95000000 		.long	0x95
 2095 0d0d 01       		.byte	0x1
 2096 0d0e 01       		.byte	0x1
 2097 0d0f 14       		.uleb128 0x14
 2098 0d10 4D4F4455 		.ascii "MODULES_IN_STOP_PATTERN\0"
 2098      4C45535F 
 2098      494E5F53 
 2098      544F505F 
 2098      50415454 
 2099 0d28 01       		.byte	0x1
 2100 0d29 0B       		.byte	0xb
 2101 0d2a 12       		.byte	0x12
 2102 0d2b AC000000 		.long	0xac
 2103 0d2f 05       		.byte	0x5
 2104 0d30 03       		.byte	0x3
 2105 0d31 00000000 		.long	_MODULES_IN_STOP_PATTERN
 2106 0d35 15       		.uleb128 0x15
 2107 0d36 01       		.byte	0x1
 2108 0d37 6465636F 		.ascii "decode\0"
 2108      646500
 2109 0d3e 01       		.byte	0x1
 2110 0d3f 5A       		.byte	0x5a
 2111 0d40 11       		.byte	0x11
 2112 0d41 01       		.byte	0x1
 2113 0d42 F7040000 		.long	0x4f7
 2114 0d46 72060000 		.long	LFB21
 2115 0d4a D9060000 		.long	LFE21
 2116 0d4e 00000000 		.secrel32	LLST5
 2117 0d52 01       		.byte	0x1
 2118 0d53 CF0D0000 		.long	0xdcf
GAS LISTING C:\Users\jisu8\AppData\Local\Temp\ccLTtEny.s 			page 47


 2119 0d57 16       		.uleb128 0x16
 2120 0d58 696D6167 		.ascii "image\0"
 2120      6500
 2121 0d5e 01       		.byte	0x1
 2122 0d5f 5A       		.byte	0x5a
 2123 0d60 33       		.byte	0x33
 2124 0d61 CF0D0000 		.long	0xdcf
 2125 0d65 02       		.byte	0x2
 2126 0d66 91       		.byte	0x91
 2127 0d67 00       		.sleb128 0
 2128 0d68 16       		.uleb128 0x16
 2129 0d69 68696E74 		.ascii "hints\0"
 2129      7300
 2130 0d6f 01       		.byte	0x1
 2131 0d70 5A       		.byte	0x5a
 2132 0d71 49       		.byte	0x49
 2133 0d72 D50D0000 		.long	0xdd5
 2134 0d76 02       		.byte	0x2
 2135 0d77 91       		.byte	0x91
 2136 0d78 04       		.sleb128 4
 2137 0d79 14       		.uleb128 0x14
 2138 0d7a 69735075 		.ascii "isPure\0"
 2138      726500
 2139 0d81 01       		.byte	0x1
 2140 0d82 5C       		.byte	0x5c
 2141 0d83 0F       		.byte	0xf
 2142 0d84 95000000 		.long	0x95
 2143 0d88 02       		.byte	0x2
 2144 0d89 91       		.byte	0x91
 2145 0d8a 6C       		.sleb128 -20
 2146 0d8b 17       		.uleb128 0x17
 2147 0d8c 1A000000 		.secrel32	LASF0
 2148 0d90 01       		.byte	0x1
 2149 0d91 5D       		.byte	0x5d
 2150 0d92 0F       		.byte	0xf
 2151 0d93 95000000 		.long	0x95
 2152 0d97 02       		.byte	0x2
 2153 0d98 91       		.byte	0x91
 2154 0d99 68       		.sleb128 -24
 2155 0d9a 14       		.uleb128 0x14
 2156 0d9b 72657375 		.ascii "result\0"
 2156      6C7400
 2157 0da2 01       		.byte	0x1
 2158 0da3 5E       		.byte	0x5e
 2159 0da4 10       		.byte	0x10
 2160 0da5 1B010000 		.long	0x11b
 2161 0da9 02       		.byte	0x2
 2162 0daa 91       		.byte	0x91
 2163 0dab 67       		.sleb128 -25
 2164 0dac 14       		.uleb128 0x14
 2165 0dad 72657375 		.ascii "results\0"
 2165      6C747300 
 2166 0db5 01       		.byte	0x1
 2167 0db6 5F       		.byte	0x5f
 2168 0db7 10       		.byte	0x10
 2169 0db8 1B010000 		.long	0x11b
 2170 0dbc 02       		.byte	0x2
GAS LISTING C:\Users\jisu8\AppData\Local\Temp\ccLTtEny.s 			page 48


 2171 0dbd 91       		.byte	0x91
 2172 0dbe 66       		.sleb128 -26
 2173 0dbf 17       		.uleb128 0x17
 2174 0dc0 0B000000 		.secrel32	LASF3
 2175 0dc4 01       		.byte	0x1
 2176 0dc5 60       		.byte	0x60
 2177 0dc6 11       		.byte	0x11
 2178 0dc7 60050000 		.long	0x560
 2179 0dcb 02       		.byte	0x2
 2180 0dcc 91       		.byte	0x91
 2181 0dcd 60       		.sleb128 -32
 2182 0dce 00       		.byte	0
 2183 0dcf 05       		.uleb128 0x5
 2184 0dd0 04       		.byte	0x4
 2185 0dd1 FD040000 		.long	0x4fd
 2186 0dd5 05       		.uleb128 0x5
 2187 0dd6 04       		.byte	0x4
 2188 0dd7 6F040000 		.long	0x46f
 2189 0ddb 15       		.uleb128 0x15
 2190 0ddc 01       		.byte	0x1
 2191 0ddd 446F4465 		.ascii "DoDecode\0"
 2191      636F6465 
 2191      00
 2192 0de6 01       		.byte	0x1
 2193 0de7 30       		.byte	0x30
 2194 0de8 10       		.byte	0x10
 2195 0de9 01       		.byte	0x1
 2196 0dea 60050000 		.long	0x560
 2197 0dee 53050000 		.long	LFB20
 2198 0df2 72060000 		.long	LFE20
 2199 0df6 38000000 		.secrel32	LLST4
 2200 0dfa 01       		.byte	0x1
 2201 0dfb 9C0E0000 		.long	0xe9c
 2202 0dff 16       		.uleb128 0x16
 2203 0e00 696D6167 		.ascii "image\0"
 2203      6500
 2204 0e06 01       		.byte	0x1
 2205 0e07 30       		.byte	0x30
 2206 0e08 34       		.byte	0x34
 2207 0e09 CF0D0000 		.long	0xdcf
 2208 0e0d 02       		.byte	0x2
 2209 0e0e 91       		.byte	0x91
 2210 0e0f 00       		.sleb128 0
 2211 0e10 16       		.uleb128 0x16
 2212 0e11 6D756C74 		.ascii "multiple\0"
 2212      69706C65 
 2212      00
 2213 0e1a 01       		.byte	0x1
 2214 0e1b 30       		.byte	0x30
 2215 0e1c 49       		.byte	0x49
 2216 0e1d 1B010000 		.long	0x11b
 2217 0e21 03       		.byte	0x3
 2218 0e22 91       		.byte	0x91
 2219 0e23 BC7F     		.sleb128 -68
 2220 0e25 16       		.uleb128 0x16
 2221 0e26 72657375 		.ascii "results\0"
 2221      6C747300 
GAS LISTING C:\Users\jisu8\AppData\Local\Temp\ccLTtEny.s 			page 49


 2222 0e2e 01       		.byte	0x1
 2223 0e2f 30       		.byte	0x30
 2224 0e30 63       		.byte	0x63
 2225 0e31 F7040000 		.long	0x4f7
 2226 0e35 02       		.byte	0x2
 2227 0e36 91       		.byte	0x91
 2228 0e37 08       		.sleb128 8
 2229 0e38 18       		.uleb128 0x18
 2230 0e39 1A000000 		.secrel32	LASF0
 2231 0e3d 01       		.byte	0x1
 2232 0e3e 30       		.byte	0x30
 2233 0e3f 7B       		.byte	0x7b
 2234 0e40 F7040000 		.long	0x4f7
 2235 0e44 02       		.byte	0x2
 2236 0e45 91       		.byte	0x91
 2237 0e46 0C       		.sleb128 12
 2238 0e47 14       		.uleb128 0x14
 2239 0e48 64657465 		.ascii "detectorResult\0"
 2239      63746F72 
 2239      52657375 
 2239      6C7400
 2240 0e57 01       		.byte	0x1
 2241 0e58 34       		.byte	0x34
 2242 0e59 14       		.byte	0x14
 2243 0e5a 98060000 		.long	0x698
 2244 0e5e 02       		.byte	0x2
 2245 0e5f 91       		.byte	0x91
 2246 0e60 4C       		.sleb128 -52
 2247 0e61 17       		.uleb128 0x17
 2248 0e62 0B000000 		.secrel32	LASF3
 2249 0e66 01       		.byte	0x1
 2250 0e67 35       		.byte	0x35
 2251 0e68 11       		.byte	0x11
 2252 0e69 60050000 		.long	0x560
 2253 0e6d 02       		.byte	0x2
 2254 0e6e 91       		.byte	0x91
 2255 0e6f 5C       		.sleb128 -36
 2256 0e70 14       		.uleb128 0x14
 2257 0e71 706F696E 		.ascii "points\0"
 2257      747300
 2258 0e78 01       		.byte	0x1
 2259 0e79 3C       		.byte	0x3c
 2260 0e7a 12       		.byte	0x12
 2261 0e7b 92060000 		.long	0x692
 2262 0e7f 02       		.byte	0x2
 2263 0e80 91       		.byte	0x91
 2264 0e81 58       		.sleb128 -40
 2265 0e82 14       		.uleb128 0x14
 2266 0e83 6465636F 		.ascii "decoderResult\0"
 2266      64657252 
 2266      6573756C 
 2266      7400
 2267 0e91 01       		.byte	0x1
 2268 0e92 3D       		.byte	0x3d
 2269 0e93 14       		.byte	0x14
 2270 0e94 9C0E0000 		.long	0xe9c
 2271 0e98 02       		.byte	0x2
GAS LISTING C:\Users\jisu8\AppData\Local\Temp\ccLTtEny.s 			page 50


 2272 0e99 91       		.byte	0x91
 2273 0e9a 54       		.sleb128 -44
 2274 0e9b 00       		.byte	0
 2275 0e9c 05       		.uleb128 0x5
 2276 0e9d 04       		.byte	0x4
 2277 0e9e 20080000 		.long	0x820
 2278 0ea2 19       		.uleb128 0x19
 2279 0ea3 4765744D 		.ascii "GetMaxCodewordWidth\0"
 2279      6178436F 
 2279      6465776F 
 2279      72645769 
 2279      64746800 
 2280 0eb7 01       		.byte	0x1
 2281 0eb8 2A       		.byte	0x2a
 2282 0eb9 0C       		.byte	0xc
 2283 0eba 01       		.byte	0x1
 2284 0ebb A5000000 		.long	0xa5
 2285 0ebf 0C030000 		.long	LFB19
 2286 0ec3 53050000 		.long	LFE19
 2287 0ec7 70000000 		.secrel32	LLST3
 2288 0ecb 01       		.byte	0x1
 2289 0ecc DE0E0000 		.long	0xede
 2290 0ed0 16       		.uleb128 0x16
 2291 0ed1 7000     		.ascii "p\0"
 2292 0ed3 01       		.byte	0x1
 2293 0ed4 2A       		.byte	0x2a
 2294 0ed5 30       		.byte	0x30
 2295 0ed6 92060000 		.long	0x692
 2296 0eda 02       		.byte	0x2
 2297 0edb 91       		.byte	0x91
 2298 0edc 00       		.sleb128 0
 2299 0edd 00       		.byte	0
 2300 0ede 1A       		.uleb128 0x1a
 2301 0edf 4765744D 		.ascii "GetMaxWidth\0"
 2301      61785769 
 2301      64746800 
 2302 0eeb 01       		.byte	0x1
 2303 0eec 20       		.byte	0x20
 2304 0eed 0C       		.byte	0xc
 2305 0eee 01       		.byte	0x1
 2306 0eef A5000000 		.long	0xa5
 2307 0ef3 AE020000 		.long	LFB18
 2308 0ef7 0C030000 		.long	LFE18
 2309 0efb A8000000 		.secrel32	LLST2
 2310 0eff 01       		.byte	0x1
 2311 0f00 210F0000 		.long	0xf21
 2312 0f04 16       		.uleb128 0x16
 2313 0f05 703100   		.ascii "p1\0"
 2314 0f08 01       		.byte	0x1
 2315 0f09 20       		.byte	0x20
 2316 0f0a 28       		.byte	0x28
 2317 0f0b 92060000 		.long	0x692
 2318 0f0f 02       		.byte	0x2
 2319 0f10 91       		.byte	0x91
 2320 0f11 00       		.sleb128 0
 2321 0f12 16       		.uleb128 0x16
 2322 0f13 703200   		.ascii "p2\0"
GAS LISTING C:\Users\jisu8\AppData\Local\Temp\ccLTtEny.s 			page 51


 2323 0f16 01       		.byte	0x1
 2324 0f17 20       		.byte	0x20
 2325 0f18 3C       		.byte	0x3c
 2326 0f19 92060000 		.long	0x692
 2327 0f1d 02       		.byte	0x2
 2328 0f1e 91       		.byte	0x91
 2329 0f1f 04       		.sleb128 4
 2330 0f20 00       		.byte	0
 2331 0f21 19       		.uleb128 0x19
 2332 0f22 4765744D 		.ascii "GetMinCodewordWidth\0"
 2332      696E436F 
 2332      6465776F 
 2332      72645769 
 2332      64746800 
 2333 0f36 01       		.byte	0x1
 2334 0f37 1A       		.byte	0x1a
 2335 0f38 0C       		.byte	0xc
 2336 0f39 01       		.byte	0x1
 2337 0f3a A5000000 		.long	0xa5
 2338 0f3e 67000000 		.long	LFB17
 2339 0f42 AE020000 		.long	LFE17
 2340 0f46 E0000000 		.secrel32	LLST1
 2341 0f4a 01       		.byte	0x1
 2342 0f4b 5D0F0000 		.long	0xf5d
 2343 0f4f 16       		.uleb128 0x16
 2344 0f50 7000     		.ascii "p\0"
 2345 0f52 01       		.byte	0x1
 2346 0f53 1A       		.byte	0x1a
 2347 0f54 30       		.byte	0x30
 2348 0f55 92060000 		.long	0x692
 2349 0f59 02       		.byte	0x2
 2350 0f5a 91       		.byte	0x91
 2351 0f5b 00       		.sleb128 0
 2352 0f5c 00       		.byte	0
 2353 0f5d 1B       		.uleb128 0x1b
 2354 0f5e 4765744D 		.ascii "GetMinWidth\0"
 2354      696E5769 
 2354      64746800 
 2355 0f6a 01       		.byte	0x1
 2356 0f6b 0F       		.byte	0xf
 2357 0f6c 0C       		.byte	0xc
 2358 0f6d 01       		.byte	0x1
 2359 0f6e A5000000 		.long	0xa5
 2360 0f72 00000000 		.long	LFB16
 2361 0f76 67000000 		.long	LFE16
 2362 0f7a 18010000 		.secrel32	LLST0
 2363 0f7e 01       		.byte	0x1
 2364 0f7f 16       		.uleb128 0x16
 2365 0f80 703100   		.ascii "p1\0"
 2366 0f83 01       		.byte	0x1
 2367 0f84 0F       		.byte	0xf
 2368 0f85 28       		.byte	0x28
 2369 0f86 92060000 		.long	0x692
 2370 0f8a 02       		.byte	0x2
 2371 0f8b 91       		.byte	0x91
 2372 0f8c 00       		.sleb128 0
 2373 0f8d 16       		.uleb128 0x16
GAS LISTING C:\Users\jisu8\AppData\Local\Temp\ccLTtEny.s 			page 52


 2374 0f8e 703200   		.ascii "p2\0"
 2375 0f91 01       		.byte	0x1
 2376 0f92 0F       		.byte	0xf
 2377 0f93 3C       		.byte	0x3c
 2378 0f94 92060000 		.long	0x692
 2379 0f98 02       		.byte	0x2
 2380 0f99 91       		.byte	0x91
 2381 0f9a 04       		.sleb128 4
 2382 0f9b 00       		.byte	0
 2383 0f9c 00       		.byte	0
 2384              		.section	.debug_abbrev,"dr"
 2385              	Ldebug_abbrev0:
 2386 0000 01       		.uleb128 0x1
 2387 0001 11       		.uleb128 0x11
 2388 0002 01       		.byte	0x1
 2389 0003 25       		.uleb128 0x25
 2390 0004 08       		.uleb128 0x8
 2391 0005 13       		.uleb128 0x13
 2392 0006 0B       		.uleb128 0xb
 2393 0007 03       		.uleb128 0x3
 2394 0008 08       		.uleb128 0x8
 2395 0009 1B       		.uleb128 0x1b
 2396 000a 08       		.uleb128 0x8
 2397 000b 11       		.uleb128 0x11
 2398 000c 01       		.uleb128 0x1
 2399 000d 12       		.uleb128 0x12
 2400 000e 01       		.uleb128 0x1
 2401 000f 10       		.uleb128 0x10
 2402 0010 06       		.uleb128 0x6
 2403 0011 00       		.byte	0
 2404 0012 00       		.byte	0
 2405 0013 02       		.uleb128 0x2
 2406 0014 24       		.uleb128 0x24
 2407 0015 00       		.byte	0
 2408 0016 0B       		.uleb128 0xb
 2409 0017 0B       		.uleb128 0xb
 2410 0018 3E       		.uleb128 0x3e
 2411 0019 0B       		.uleb128 0xb
 2412 001a 03       		.uleb128 0x3
 2413 001b 08       		.uleb128 0x8
 2414 001c 00       		.byte	0
 2415 001d 00       		.byte	0
 2416 001e 03       		.uleb128 0x3
 2417 001f 26       		.uleb128 0x26
 2418 0020 00       		.byte	0
 2419 0021 49       		.uleb128 0x49
 2420 0022 13       		.uleb128 0x13
 2421 0023 00       		.byte	0
 2422 0024 00       		.byte	0
 2423 0025 04       		.uleb128 0x4
 2424 0026 16       		.uleb128 0x16
 2425 0027 00       		.byte	0
 2426 0028 03       		.uleb128 0x3
 2427 0029 08       		.uleb128 0x8
 2428 002a 3A       		.uleb128 0x3a
 2429 002b 0B       		.uleb128 0xb
 2430 002c 3B       		.uleb128 0x3b
GAS LISTING C:\Users\jisu8\AppData\Local\Temp\ccLTtEny.s 			page 53


 2431 002d 0B       		.uleb128 0xb
 2432 002e 39       		.uleb128 0x39
 2433 002f 0B       		.uleb128 0xb
 2434 0030 49       		.uleb128 0x49
 2435 0031 13       		.uleb128 0x13
 2436 0032 00       		.byte	0
 2437 0033 00       		.byte	0
 2438 0034 05       		.uleb128 0x5
 2439 0035 0F       		.uleb128 0xf
 2440 0036 00       		.byte	0
 2441 0037 0B       		.uleb128 0xb
 2442 0038 0B       		.uleb128 0xb
 2443 0039 49       		.uleb128 0x49
 2444 003a 13       		.uleb128 0x13
 2445 003b 00       		.byte	0
 2446 003c 00       		.byte	0
 2447 003d 06       		.uleb128 0x6
 2448 003e 13       		.uleb128 0x13
 2449 003f 01       		.byte	0x1
 2450 0040 03       		.uleb128 0x3
 2451 0041 08       		.uleb128 0x8
 2452 0042 0B       		.uleb128 0xb
 2453 0043 0B       		.uleb128 0xb
 2454 0044 3A       		.uleb128 0x3a
 2455 0045 0B       		.uleb128 0xb
 2456 0046 3B       		.uleb128 0x3b
 2457 0047 0B       		.uleb128 0xb
 2458 0048 39       		.uleb128 0x39
 2459 0049 0B       		.uleb128 0xb
 2460 004a 01       		.uleb128 0x1
 2461 004b 13       		.uleb128 0x13
 2462 004c 00       		.byte	0
 2463 004d 00       		.byte	0
 2464 004e 07       		.uleb128 0x7
 2465 004f 0D       		.uleb128 0xd
 2466 0050 00       		.byte	0
 2467 0051 03       		.uleb128 0x3
 2468 0052 08       		.uleb128 0x8
 2469 0053 3A       		.uleb128 0x3a
 2470 0054 0B       		.uleb128 0xb
 2471 0055 3B       		.uleb128 0x3b
 2472 0056 0B       		.uleb128 0xb
 2473 0057 39       		.uleb128 0x39
 2474 0058 0B       		.uleb128 0xb
 2475 0059 49       		.uleb128 0x49
 2476 005a 13       		.uleb128 0x13
 2477 005b 38       		.uleb128 0x38
 2478 005c 0A       		.uleb128 0xa
 2479 005d 00       		.byte	0
 2480 005e 00       		.byte	0
 2481 005f 08       		.uleb128 0x8
 2482 0060 01       		.uleb128 0x1
 2483 0061 01       		.byte	0x1
 2484 0062 49       		.uleb128 0x49
 2485 0063 13       		.uleb128 0x13
 2486 0064 01       		.uleb128 0x1
 2487 0065 13       		.uleb128 0x13
GAS LISTING C:\Users\jisu8\AppData\Local\Temp\ccLTtEny.s 			page 54


 2488 0066 00       		.byte	0
 2489 0067 00       		.byte	0
 2490 0068 09       		.uleb128 0x9
 2491 0069 21       		.uleb128 0x21
 2492 006a 00       		.byte	0
 2493 006b 00       		.byte	0
 2494 006c 00       		.byte	0
 2495 006d 0A       		.uleb128 0xa
 2496 006e 34       		.uleb128 0x34
 2497 006f 00       		.byte	0
 2498 0070 03       		.uleb128 0x3
 2499 0071 08       		.uleb128 0x8
 2500 0072 3A       		.uleb128 0x3a
 2501 0073 0B       		.uleb128 0xb
 2502 0074 3B       		.uleb128 0x3b
 2503 0075 0B       		.uleb128 0xb
 2504 0076 39       		.uleb128 0x39
 2505 0077 0B       		.uleb128 0xb
 2506 0078 49       		.uleb128 0x49
 2507 0079 13       		.uleb128 0x13
 2508 007a 3F       		.uleb128 0x3f
 2509 007b 0C       		.uleb128 0xc
 2510 007c 3C       		.uleb128 0x3c
 2511 007d 0C       		.uleb128 0xc
 2512 007e 00       		.byte	0
 2513 007f 00       		.byte	0
 2514 0080 0B       		.uleb128 0xb
 2515 0081 04       		.uleb128 0x4
 2516 0082 01       		.byte	0x1
 2517 0083 3E       		.uleb128 0x3e
 2518 0084 0B       		.uleb128 0xb
 2519 0085 0B       		.uleb128 0xb
 2520 0086 0B       		.uleb128 0xb
 2521 0087 49       		.uleb128 0x49
 2522 0088 13       		.uleb128 0x13
 2523 0089 3A       		.uleb128 0x3a
 2524 008a 0B       		.uleb128 0xb
 2525 008b 3B       		.uleb128 0x3b
 2526 008c 0B       		.uleb128 0xb
 2527 008d 39       		.uleb128 0x39
 2528 008e 0B       		.uleb128 0xb
 2529 008f 01       		.uleb128 0x1
 2530 0090 13       		.uleb128 0x13
 2531 0091 00       		.byte	0
 2532 0092 00       		.byte	0
 2533 0093 0C       		.uleb128 0xc
 2534 0094 28       		.uleb128 0x28
 2535 0095 00       		.byte	0
 2536 0096 03       		.uleb128 0x3
 2537 0097 08       		.uleb128 0x8
 2538 0098 1C       		.uleb128 0x1c
 2539 0099 0B       		.uleb128 0xb
 2540 009a 00       		.byte	0
 2541 009b 00       		.byte	0
 2542 009c 0D       		.uleb128 0xd
 2543 009d 28       		.uleb128 0x28
 2544 009e 00       		.byte	0
GAS LISTING C:\Users\jisu8\AppData\Local\Temp\ccLTtEny.s 			page 55


 2545 009f 03       		.uleb128 0x3
 2546 00a0 08       		.uleb128 0x8
 2547 00a1 1C       		.uleb128 0x1c
 2548 00a2 05       		.uleb128 0x5
 2549 00a3 00       		.byte	0
 2550 00a4 00       		.byte	0
 2551 00a5 0E       		.uleb128 0xe
 2552 00a6 0D       		.uleb128 0xd
 2553 00a7 00       		.byte	0
 2554 00a8 03       		.uleb128 0x3
 2555 00a9 0E       		.uleb128 0xe
 2556 00aa 3A       		.uleb128 0x3a
 2557 00ab 0B       		.uleb128 0xb
 2558 00ac 3B       		.uleb128 0x3b
 2559 00ad 0B       		.uleb128 0xb
 2560 00ae 39       		.uleb128 0x39
 2561 00af 0B       		.uleb128 0xb
 2562 00b0 49       		.uleb128 0x49
 2563 00b1 13       		.uleb128 0x13
 2564 00b2 38       		.uleb128 0x38
 2565 00b3 0A       		.uleb128 0xa
 2566 00b4 00       		.byte	0
 2567 00b5 00       		.byte	0
 2568 00b6 0F       		.uleb128 0xf
 2569 00b7 13       		.uleb128 0x13
 2570 00b8 01       		.byte	0x1
 2571 00b9 0B       		.uleb128 0xb
 2572 00ba 0B       		.uleb128 0xb
 2573 00bb 3A       		.uleb128 0x3a
 2574 00bc 0B       		.uleb128 0xb
 2575 00bd 3B       		.uleb128 0x3b
 2576 00be 0B       		.uleb128 0xb
 2577 00bf 39       		.uleb128 0x39
 2578 00c0 0B       		.uleb128 0xb
 2579 00c1 01       		.uleb128 0x1
 2580 00c2 13       		.uleb128 0x13
 2581 00c3 00       		.byte	0
 2582 00c4 00       		.byte	0
 2583 00c5 10       		.uleb128 0x10
 2584 00c6 13       		.uleb128 0x13
 2585 00c7 01       		.byte	0x1
 2586 00c8 0B       		.uleb128 0xb
 2587 00c9 05       		.uleb128 0x5
 2588 00ca 3A       		.uleb128 0x3a
 2589 00cb 0B       		.uleb128 0xb
 2590 00cc 3B       		.uleb128 0x3b
 2591 00cd 0B       		.uleb128 0xb
 2592 00ce 39       		.uleb128 0x39
 2593 00cf 0B       		.uleb128 0xb
 2594 00d0 01       		.uleb128 0x1
 2595 00d1 13       		.uleb128 0x13
 2596 00d2 00       		.byte	0
 2597 00d3 00       		.byte	0
 2598 00d4 11       		.uleb128 0x11
 2599 00d5 21       		.uleb128 0x21
 2600 00d6 00       		.byte	0
 2601 00d7 49       		.uleb128 0x49
GAS LISTING C:\Users\jisu8\AppData\Local\Temp\ccLTtEny.s 			page 56


 2602 00d8 13       		.uleb128 0x13
 2603 00d9 2F       		.uleb128 0x2f
 2604 00da 05       		.uleb128 0x5
 2605 00db 00       		.byte	0
 2606 00dc 00       		.byte	0
 2607 00dd 12       		.uleb128 0x12
 2608 00de 21       		.uleb128 0x21
 2609 00df 00       		.byte	0
 2610 00e0 49       		.uleb128 0x49
 2611 00e1 13       		.uleb128 0x13
 2612 00e2 2F       		.uleb128 0x2f
 2613 00e3 0B       		.uleb128 0xb
 2614 00e4 00       		.byte	0
 2615 00e5 00       		.byte	0
 2616 00e6 13       		.uleb128 0x13
 2617 00e7 34       		.uleb128 0x34
 2618 00e8 00       		.byte	0
 2619 00e9 03       		.uleb128 0x3
 2620 00ea 08       		.uleb128 0x8
 2621 00eb 3A       		.uleb128 0x3a
 2622 00ec 0B       		.uleb128 0xb
 2623 00ed 3B       		.uleb128 0x3b
 2624 00ee 05       		.uleb128 0x5
 2625 00ef 39       		.uleb128 0x39
 2626 00f0 0B       		.uleb128 0xb
 2627 00f1 49       		.uleb128 0x49
 2628 00f2 13       		.uleb128 0x13
 2629 00f3 3F       		.uleb128 0x3f
 2630 00f4 0C       		.uleb128 0xc
 2631 00f5 3C       		.uleb128 0x3c
 2632 00f6 0C       		.uleb128 0xc
 2633 00f7 00       		.byte	0
 2634 00f8 00       		.byte	0
 2635 00f9 14       		.uleb128 0x14
 2636 00fa 34       		.uleb128 0x34
 2637 00fb 00       		.byte	0
 2638 00fc 03       		.uleb128 0x3
 2639 00fd 08       		.uleb128 0x8
 2640 00fe 3A       		.uleb128 0x3a
 2641 00ff 0B       		.uleb128 0xb
 2642 0100 3B       		.uleb128 0x3b
 2643 0101 0B       		.uleb128 0xb
 2644 0102 39       		.uleb128 0x39
 2645 0103 0B       		.uleb128 0xb
 2646 0104 49       		.uleb128 0x49
 2647 0105 13       		.uleb128 0x13
 2648 0106 02       		.uleb128 0x2
 2649 0107 0A       		.uleb128 0xa
 2650 0108 00       		.byte	0
 2651 0109 00       		.byte	0
 2652 010a 15       		.uleb128 0x15
 2653 010b 2E       		.uleb128 0x2e
 2654 010c 01       		.byte	0x1
 2655 010d 3F       		.uleb128 0x3f
 2656 010e 0C       		.uleb128 0xc
 2657 010f 03       		.uleb128 0x3
 2658 0110 08       		.uleb128 0x8
GAS LISTING C:\Users\jisu8\AppData\Local\Temp\ccLTtEny.s 			page 57


 2659 0111 3A       		.uleb128 0x3a
 2660 0112 0B       		.uleb128 0xb
 2661 0113 3B       		.uleb128 0x3b
 2662 0114 0B       		.uleb128 0xb
 2663 0115 39       		.uleb128 0x39
 2664 0116 0B       		.uleb128 0xb
 2665 0117 27       		.uleb128 0x27
 2666 0118 0C       		.uleb128 0xc
 2667 0119 49       		.uleb128 0x49
 2668 011a 13       		.uleb128 0x13
 2669 011b 11       		.uleb128 0x11
 2670 011c 01       		.uleb128 0x1
 2671 011d 12       		.uleb128 0x12
 2672 011e 01       		.uleb128 0x1
 2673 011f 40       		.uleb128 0x40
 2674 0120 06       		.uleb128 0x6
 2675 0121 9642     		.uleb128 0x2116
 2676 0123 0C       		.uleb128 0xc
 2677 0124 01       		.uleb128 0x1
 2678 0125 13       		.uleb128 0x13
 2679 0126 00       		.byte	0
 2680 0127 00       		.byte	0
 2681 0128 16       		.uleb128 0x16
 2682 0129 05       		.uleb128 0x5
 2683 012a 00       		.byte	0
 2684 012b 03       		.uleb128 0x3
 2685 012c 08       		.uleb128 0x8
 2686 012d 3A       		.uleb128 0x3a
 2687 012e 0B       		.uleb128 0xb
 2688 012f 3B       		.uleb128 0x3b
 2689 0130 0B       		.uleb128 0xb
 2690 0131 39       		.uleb128 0x39
 2691 0132 0B       		.uleb128 0xb
 2692 0133 49       		.uleb128 0x49
 2693 0134 13       		.uleb128 0x13
 2694 0135 02       		.uleb128 0x2
 2695 0136 0A       		.uleb128 0xa
 2696 0137 00       		.byte	0
 2697 0138 00       		.byte	0
 2698 0139 17       		.uleb128 0x17
 2699 013a 34       		.uleb128 0x34
 2700 013b 00       		.byte	0
 2701 013c 03       		.uleb128 0x3
 2702 013d 0E       		.uleb128 0xe
 2703 013e 3A       		.uleb128 0x3a
 2704 013f 0B       		.uleb128 0xb
 2705 0140 3B       		.uleb128 0x3b
 2706 0141 0B       		.uleb128 0xb
 2707 0142 39       		.uleb128 0x39
 2708 0143 0B       		.uleb128 0xb
 2709 0144 49       		.uleb128 0x49
 2710 0145 13       		.uleb128 0x13
 2711 0146 02       		.uleb128 0x2
 2712 0147 0A       		.uleb128 0xa
 2713 0148 00       		.byte	0
 2714 0149 00       		.byte	0
 2715 014a 18       		.uleb128 0x18
GAS LISTING C:\Users\jisu8\AppData\Local\Temp\ccLTtEny.s 			page 58


 2716 014b 05       		.uleb128 0x5
 2717 014c 00       		.byte	0
 2718 014d 03       		.uleb128 0x3
 2719 014e 0E       		.uleb128 0xe
 2720 014f 3A       		.uleb128 0x3a
 2721 0150 0B       		.uleb128 0xb
 2722 0151 3B       		.uleb128 0x3b
 2723 0152 0B       		.uleb128 0xb
 2724 0153 39       		.uleb128 0x39
 2725 0154 0B       		.uleb128 0xb
 2726 0155 49       		.uleb128 0x49
 2727 0156 13       		.uleb128 0x13
 2728 0157 02       		.uleb128 0x2
 2729 0158 0A       		.uleb128 0xa
 2730 0159 00       		.byte	0
 2731 015a 00       		.byte	0
 2732 015b 19       		.uleb128 0x19
 2733 015c 2E       		.uleb128 0x2e
 2734 015d 01       		.byte	0x1
 2735 015e 03       		.uleb128 0x3
 2736 015f 08       		.uleb128 0x8
 2737 0160 3A       		.uleb128 0x3a
 2738 0161 0B       		.uleb128 0xb
 2739 0162 3B       		.uleb128 0x3b
 2740 0163 0B       		.uleb128 0xb
 2741 0164 39       		.uleb128 0x39
 2742 0165 0B       		.uleb128 0xb
 2743 0166 27       		.uleb128 0x27
 2744 0167 0C       		.uleb128 0xc
 2745 0168 49       		.uleb128 0x49
 2746 0169 13       		.uleb128 0x13
 2747 016a 11       		.uleb128 0x11
 2748 016b 01       		.uleb128 0x1
 2749 016c 12       		.uleb128 0x12
 2750 016d 01       		.uleb128 0x1
 2751 016e 40       		.uleb128 0x40
 2752 016f 06       		.uleb128 0x6
 2753 0170 9642     		.uleb128 0x2116
 2754 0172 0C       		.uleb128 0xc
 2755 0173 01       		.uleb128 0x1
 2756 0174 13       		.uleb128 0x13
 2757 0175 00       		.byte	0
 2758 0176 00       		.byte	0
 2759 0177 1A       		.uleb128 0x1a
 2760 0178 2E       		.uleb128 0x2e
 2761 0179 01       		.byte	0x1
 2762 017a 03       		.uleb128 0x3
 2763 017b 08       		.uleb128 0x8
 2764 017c 3A       		.uleb128 0x3a
 2765 017d 0B       		.uleb128 0xb
 2766 017e 3B       		.uleb128 0x3b
 2767 017f 0B       		.uleb128 0xb
 2768 0180 39       		.uleb128 0x39
 2769 0181 0B       		.uleb128 0xb
 2770 0182 27       		.uleb128 0x27
 2771 0183 0C       		.uleb128 0xc
 2772 0184 49       		.uleb128 0x49
GAS LISTING C:\Users\jisu8\AppData\Local\Temp\ccLTtEny.s 			page 59


 2773 0185 13       		.uleb128 0x13
 2774 0186 11       		.uleb128 0x11
 2775 0187 01       		.uleb128 0x1
 2776 0188 12       		.uleb128 0x12
 2777 0189 01       		.uleb128 0x1
 2778 018a 40       		.uleb128 0x40
 2779 018b 06       		.uleb128 0x6
 2780 018c 9742     		.uleb128 0x2117
 2781 018e 0C       		.uleb128 0xc
 2782 018f 01       		.uleb128 0x1
 2783 0190 13       		.uleb128 0x13
 2784 0191 00       		.byte	0
 2785 0192 00       		.byte	0
 2786 0193 1B       		.uleb128 0x1b
 2787 0194 2E       		.uleb128 0x2e
 2788 0195 01       		.byte	0x1
 2789 0196 03       		.uleb128 0x3
 2790 0197 08       		.uleb128 0x8
 2791 0198 3A       		.uleb128 0x3a
 2792 0199 0B       		.uleb128 0xb
 2793 019a 3B       		.uleb128 0x3b
 2794 019b 0B       		.uleb128 0xb
 2795 019c 39       		.uleb128 0x39
 2796 019d 0B       		.uleb128 0xb
 2797 019e 27       		.uleb128 0x27
 2798 019f 0C       		.uleb128 0xc
 2799 01a0 49       		.uleb128 0x49
 2800 01a1 13       		.uleb128 0x13
 2801 01a2 11       		.uleb128 0x11
 2802 01a3 01       		.uleb128 0x1
 2803 01a4 12       		.uleb128 0x12
 2804 01a5 01       		.uleb128 0x1
 2805 01a6 40       		.uleb128 0x40
 2806 01a7 06       		.uleb128 0x6
 2807 01a8 9742     		.uleb128 0x2117
 2808 01aa 0C       		.uleb128 0xc
 2809 01ab 00       		.byte	0
 2810 01ac 00       		.byte	0
 2811 01ad 00       		.byte	0
 2812              		.section	.debug_loc,"dr"
 2813              	Ldebug_loc0:
 2814              	LLST5:
 2815 0000 72060000 		.long	LFB21-Ltext0
 2816 0004 73060000 		.long	LCFI15-Ltext0
 2817 0008 0200     		.word	0x2
 2818 000a 74       		.byte	0x74
 2819 000b 04       		.sleb128 4
 2820 000c 73060000 		.long	LCFI15-Ltext0
 2821 0010 75060000 		.long	LCFI16-Ltext0
 2822 0014 0200     		.word	0x2
 2823 0016 74       		.byte	0x74
 2824 0017 08       		.sleb128 8
 2825 0018 75060000 		.long	LCFI16-Ltext0
 2826 001c D8060000 		.long	LCFI17-Ltext0
 2827 0020 0200     		.word	0x2
 2828 0022 75       		.byte	0x75
 2829 0023 08       		.sleb128 8
GAS LISTING C:\Users\jisu8\AppData\Local\Temp\ccLTtEny.s 			page 60


 2830 0024 D8060000 		.long	LCFI17-Ltext0
 2831 0028 D9060000 		.long	LFE21-Ltext0
 2832 002c 0200     		.word	0x2
 2833 002e 74       		.byte	0x74
 2834 002f 04       		.sleb128 4
 2835 0030 00000000 		.long	0
 2836 0034 00000000 		.long	0
 2837              	LLST4:
 2838 0038 53050000 		.long	LFB20-Ltext0
 2839 003c 54050000 		.long	LCFI12-Ltext0
 2840 0040 0200     		.word	0x2
 2841 0042 74       		.byte	0x74
 2842 0043 04       		.sleb128 4
 2843 0044 54050000 		.long	LCFI12-Ltext0
 2844 0048 56050000 		.long	LCFI13-Ltext0
 2845 004c 0200     		.word	0x2
 2846 004e 74       		.byte	0x74
 2847 004f 08       		.sleb128 8
 2848 0050 56050000 		.long	LCFI13-Ltext0
 2849 0054 71060000 		.long	LCFI14-Ltext0
 2850 0058 0200     		.word	0x2
 2851 005a 75       		.byte	0x75
 2852 005b 08       		.sleb128 8
 2853 005c 71060000 		.long	LCFI14-Ltext0
 2854 0060 72060000 		.long	LFE20-Ltext0
 2855 0064 0200     		.word	0x2
 2856 0066 74       		.byte	0x74
 2857 0067 04       		.sleb128 4
 2858 0068 00000000 		.long	0
 2859 006c 00000000 		.long	0
 2860              	LLST3:
 2861 0070 0C030000 		.long	LFB19-Ltext0
 2862 0074 0D030000 		.long	LCFI9-Ltext0
 2863 0078 0200     		.word	0x2
 2864 007a 74       		.byte	0x74
 2865 007b 04       		.sleb128 4
 2866 007c 0D030000 		.long	LCFI9-Ltext0
 2867 0080 0F030000 		.long	LCFI10-Ltext0
 2868 0084 0200     		.word	0x2
 2869 0086 74       		.byte	0x74
 2870 0087 08       		.sleb128 8
 2871 0088 0F030000 		.long	LCFI10-Ltext0
 2872 008c 52050000 		.long	LCFI11-Ltext0
 2873 0090 0200     		.word	0x2
 2874 0092 75       		.byte	0x75
 2875 0093 08       		.sleb128 8
 2876 0094 52050000 		.long	LCFI11-Ltext0
 2877 0098 53050000 		.long	LFE19-Ltext0
 2878 009c 0200     		.word	0x2
 2879 009e 74       		.byte	0x74
 2880 009f 04       		.sleb128 4
 2881 00a0 00000000 		.long	0
 2882 00a4 00000000 		.long	0
 2883              	LLST2:
 2884 00a8 AE020000 		.long	LFB18-Ltext0
 2885 00ac AF020000 		.long	LCFI6-Ltext0
 2886 00b0 0200     		.word	0x2
GAS LISTING C:\Users\jisu8\AppData\Local\Temp\ccLTtEny.s 			page 61


 2887 00b2 74       		.byte	0x74
 2888 00b3 04       		.sleb128 4
 2889 00b4 AF020000 		.long	LCFI6-Ltext0
 2890 00b8 B1020000 		.long	LCFI7-Ltext0
 2891 00bc 0200     		.word	0x2
 2892 00be 74       		.byte	0x74
 2893 00bf 08       		.sleb128 8
 2894 00c0 B1020000 		.long	LCFI7-Ltext0
 2895 00c4 0B030000 		.long	LCFI8-Ltext0
 2896 00c8 0200     		.word	0x2
 2897 00ca 75       		.byte	0x75
 2898 00cb 08       		.sleb128 8
 2899 00cc 0B030000 		.long	LCFI8-Ltext0
 2900 00d0 0C030000 		.long	LFE18-Ltext0
 2901 00d4 0200     		.word	0x2
 2902 00d6 74       		.byte	0x74
 2903 00d7 04       		.sleb128 4
 2904 00d8 00000000 		.long	0
 2905 00dc 00000000 		.long	0
 2906              	LLST1:
 2907 00e0 67000000 		.long	LFB17-Ltext0
 2908 00e4 68000000 		.long	LCFI3-Ltext0
 2909 00e8 0200     		.word	0x2
 2910 00ea 74       		.byte	0x74
 2911 00eb 04       		.sleb128 4
 2912 00ec 68000000 		.long	LCFI3-Ltext0
 2913 00f0 6A000000 		.long	LCFI4-Ltext0
 2914 00f4 0200     		.word	0x2
 2915 00f6 74       		.byte	0x74
 2916 00f7 08       		.sleb128 8
 2917 00f8 6A000000 		.long	LCFI4-Ltext0
 2918 00fc AD020000 		.long	LCFI5-Ltext0
 2919 0100 0200     		.word	0x2
 2920 0102 75       		.byte	0x75
 2921 0103 08       		.sleb128 8
 2922 0104 AD020000 		.long	LCFI5-Ltext0
 2923 0108 AE020000 		.long	LFE17-Ltext0
 2924 010c 0200     		.word	0x2
 2925 010e 74       		.byte	0x74
 2926 010f 04       		.sleb128 4
 2927 0110 00000000 		.long	0
 2928 0114 00000000 		.long	0
 2929              	LLST0:
 2930 0118 00000000 		.long	LFB16-Ltext0
 2931 011c 01000000 		.long	LCFI0-Ltext0
 2932 0120 0200     		.word	0x2
 2933 0122 74       		.byte	0x74
 2934 0123 04       		.sleb128 4
 2935 0124 01000000 		.long	LCFI0-Ltext0
 2936 0128 03000000 		.long	LCFI1-Ltext0
 2937 012c 0200     		.word	0x2
 2938 012e 74       		.byte	0x74
 2939 012f 08       		.sleb128 8
 2940 0130 03000000 		.long	LCFI1-Ltext0
 2941 0134 66000000 		.long	LCFI2-Ltext0
 2942 0138 0200     		.word	0x2
 2943 013a 75       		.byte	0x75
GAS LISTING C:\Users\jisu8\AppData\Local\Temp\ccLTtEny.s 			page 62


 2944 013b 08       		.sleb128 8
 2945 013c 66000000 		.long	LCFI2-Ltext0
 2946 0140 67000000 		.long	LFE16-Ltext0
 2947 0144 0200     		.word	0x2
 2948 0146 74       		.byte	0x74
 2949 0147 04       		.sleb128 4
 2950 0148 00000000 		.long	0
 2951 014c 00000000 		.long	0
 2952              		.section	.debug_aranges,"dr"
 2953 0000 1C000000 		.long	0x1c
 2954 0004 0200     		.word	0x2
 2955 0006 00000000 		.secrel32	Ldebug_info0
 2956 000a 04       		.byte	0x4
 2957 000b 00       		.byte	0
 2958 000c 0000     		.word	0
 2959 000e 0000     		.word	0
 2960 0010 00000000 		.long	Ltext0
 2961 0014 D9060000 		.long	Letext0-Ltext0
 2962 0018 00000000 		.long	0
 2963 001c 00000000 		.long	0
 2964              		.section	.debug_line,"dr"
 2965              	Ldebug_line0:
 2966 0000 45030000 		.section	.debug_str,"dr"
 2966      0200BE01 
 2966      00000101 
 2966      FB0E0D00 
 2966      01010101 
 2967              	LASF1:
 2968 0000 6D5F6861 		.ascii "m_hasValue\0"
 2968      7356616C 
 2968      756500
 2969              	LASF3:
 2970 000b 73746174 		.ascii "status\0"
 2970      757300
 2971              	LASF2:
 2972 0012 6D5F7661 		.ascii "m_value\0"
 2972      6C756500 
 2973              	LASF0:
 2974 001a 63686172 		.ascii "characterSet\0"
 2974      61637465 
 2974      72536574 
 2974      00
 2975              		.ident	"GCC: (i686-posix-dwarf-rev0, Built by MinGW-W64 project) 8.1.0"
GAS LISTING C:\Users\jisu8\AppData\Local\Temp\ccLTtEny.s 			page 63


DEFINED SYMBOLS
                            *ABS*:00000000 PDFReader.c
C:\Users\jisu8\AppData\Local\Temp\ccLTtEny.s:6      .rdata:00000000 _MODULES_IN_STOP_PATTERN
C:\Users\jisu8\AppData\Local\Temp\ccLTtEny.s:10     .text:00000000 _GetMinWidth
C:\Users\jisu8\AppData\Local\Temp\ccLTtEny.s:80     .text:00000067 _GetMinCodewordWidth
C:\Users\jisu8\AppData\Local\Temp\ccLTtEny.s:308    .text:000002ae _GetMaxWidth
C:\Users\jisu8\AppData\Local\Temp\ccLTtEny.s:374    .text:0000030c _GetMaxCodewordWidth
C:\Users\jisu8\AppData\Local\Temp\ccLTtEny.s:608    .text:00000553 _DoDecode
C:\Users\jisu8\AppData\Local\Temp\ccLTtEny.s:735    .text:00000672 _decode

UNDEFINED SYMBOLS
_MODULES_IN_CODEWORD
_printf
_Detect
_Decode
