GAS LISTING C:\Users\jisu8\AppData\Local\Temp\ccAhT7z4.s 			page 1


   1              		.file	"PDFReader.c"
   2              		.text
   3              	Ltext0:
   4              		.section .rdata,"dr"
   5              		.align 4
   6              	_MODULES_IN_STOP_PATTERN:
   7 0000 12000000 		.long	18
   8              		.text
  10              	_GetMinWidth:
  11              	LFB16:
  12              		.file 1 "src/pdf417/PDFReader.c"
   1:src/pdf417/PDFReader.c **** 
   2:src/pdf417/PDFReader.c **** #include "PDFReader.h"
   3:src/pdf417/PDFReader.c **** #include "DecodeStatus.h"
   4:src/pdf417/PDFReader.c **** #include "DecodeHints.h"
   5:src/pdf417/PDFReader.c **** #include "PDFDetector.h"
   6:src/pdf417/PDFReader.c **** #include "PDFCodewordDecoder.h"
   7:src/pdf417/PDFReader.c **** #include "PDFScanningDecoder.h"
   8:src/pdf417/PDFReader.c **** #include "DecoderResult.h"
   9:src/pdf417/PDFReader.c **** #include "Result.h"
  10:src/pdf417/PDFReader.c **** #include <stdlib.h>
  11:src/pdf417/PDFReader.c **** 
  12:src/pdf417/PDFReader.c **** static const int MODULES_IN_STOP_PATTERN = 18;
  13:src/pdf417/PDFReader.c **** 
  14:src/pdf417/PDFReader.c **** #define INT_MAX       2147483647
  15:src/pdf417/PDFReader.c **** 
  16:src/pdf417/PDFReader.c **** static int GetMinWidth(ResultPoint_t * p1, ResultPoint_t * p2)
  17:src/pdf417/PDFReader.c **** {
  13              		.loc 1 17 1
  14              		.cfi_startproc
  15 0000 55       		pushl	%ebp
  16              	LCFI0:
  17              		.cfi_def_cfa_offset 8
  18              		.cfi_offset 5, -8
  19 0001 89E5     		movl	%esp, %ebp
  20              	LCFI1:
  21              		.cfi_def_cfa_register 5
  22 0003 83EC08   		subl	$8, %esp
  18:src/pdf417/PDFReader.c **** 	if (p1->m_hasValue == 0 || p2->m_hasValue == 0) 
  23              		.loc 1 18 8
  24 0006 8B4508   		movl	8(%ebp), %eax
  25 0009 0FB600   		movzbl	(%eax), %eax
  26              		.loc 1 18 5
  27 000c 84C0     		testb	%al, %al
  28 000e 740A     		je	L2
  29              		.loc 1 18 31 discriminator 1
  30 0010 8B450C   		movl	12(%ebp), %eax
  31 0013 0FB600   		movzbl	(%eax), %eax
  32              		.loc 1 18 26 discriminator 1
  33 0016 84C0     		testb	%al, %al
  34 0018 7510     		jne	L3
  35              	L2:
  19:src/pdf417/PDFReader.c **** 	{
  20:src/pdf417/PDFReader.c **** 		// the division prevents an integer overflow (see below). 120 million is still sufficiently large
  21:src/pdf417/PDFReader.c **** 		return (int)INT_MAX / MODULES_IN_CODEWORD;
  36              		.loc 1 21 23
  37 001a 8B0D0000 		movl	_MODULES_IN_CODEWORD, %ecx
GAS LISTING C:\Users\jisu8\AppData\Local\Temp\ccAhT7z4.s 			page 2


  37      0000
  38 0020 B8FFFFFF 		movl	$2147483647, %eax
  38      7F
  39 0025 99       		cltd
  40 0026 F7F9     		idivl	%ecx
  41 0028 EB3B     		jmp	L4
  42              	L3:
  22:src/pdf417/PDFReader.c **** 	}
  23:src/pdf417/PDFReader.c **** 
  24:src/pdf417/PDFReader.c **** 	return abs((int)(p1->m_value.x) - (int)(p2->m_value.x));
  43              		.loc 1 24 30
  44 002a 8B4508   		movl	8(%ebp), %eax
  45 002d D94004   		flds	4(%eax)
  46              		.loc 1 24 13
  47 0030 D97DFE   		fnstcw	-2(%ebp)
  48 0033 0FB745FE 		movzwl	-2(%ebp), %eax
  49 0037 80CC0C   		orb	$12, %ah
  50 003a 668945FC 		movw	%ax, -4(%ebp)
  51 003e D96DFC   		fldcw	-4(%ebp)
  52 0041 DB5DF8   		fistpl	-8(%ebp)
  53 0044 D96DFE   		fldcw	-2(%ebp)
  54 0047 8B55F8   		movl	-8(%ebp), %edx
  55              		.loc 1 24 53
  56 004a 8B450C   		movl	12(%ebp), %eax
  57 004d D94004   		flds	4(%eax)
  58              		.loc 1 24 36
  59 0050 D96DFC   		fldcw	-4(%ebp)
  60 0053 DB5DF8   		fistpl	-8(%ebp)
  61 0056 D96DFE   		fldcw	-2(%ebp)
  62 0059 8B45F8   		movl	-8(%ebp), %eax
  63              		.loc 1 24 34
  64 005c 29C2     		subl	%eax, %edx
  65 005e 89D0     		movl	%edx, %eax
  66              		.loc 1 24 9
  67 0060 99       		cltd
  68 0061 31D0     		xorl	%edx, %eax
  69 0063 29D0     		subl	%edx, %eax
  70              	L4:
  25:src/pdf417/PDFReader.c **** }
  71              		.loc 1 25 1
  72 0065 C9       		leave
  73              	LCFI2:
  74              		.cfi_restore 5
  75              		.cfi_def_cfa 4, 4
  76 0066 C3       		ret
  77              		.cfi_endproc
  78              	LFE16:
  80              	_GetMinCodewordWidth:
  81              	LFB17:
  26:src/pdf417/PDFReader.c **** 
  27:src/pdf417/PDFReader.c **** static int GetMinCodewordWidth(ResultPoint_t * p)
  28:src/pdf417/PDFReader.c **** {
  82              		.loc 1 28 1
  83              		.cfi_startproc
  84 0067 55       		pushl	%ebp
  85              	LCFI3:
  86              		.cfi_def_cfa_offset 8
GAS LISTING C:\Users\jisu8\AppData\Local\Temp\ccAhT7z4.s 			page 3


  87              		.cfi_offset 5, -8
  88 0068 89E5     		movl	%esp, %ebp
  89              	LCFI4:
  90              		.cfi_def_cfa_register 5
  91 006a 56       		pushl	%esi
  92 006b 53       		pushl	%ebx
  93 006c 83EC08   		subl	$8, %esp
  94              		.cfi_offset 6, -12
  95              		.cfi_offset 3, -16
  29:src/pdf417/PDFReader.c **** 	return __min(__min(GetMinWidth(p, p+4), GetMinWidth(p+6, p+2) * MODULES_IN_CODEWORD / MODULES_IN_S
  96              		.loc 1 29 9
  97 006f 8B4508   		movl	8(%ebp), %eax
  98 0072 83C030   		addl	$48, %eax
  99 0075 89442404 		movl	%eax, 4(%esp)
 100 0079 8B4508   		movl	8(%ebp), %eax
 101 007c 890424   		movl	%eax, (%esp)
 102 007f E87CFFFF 		call	_GetMinWidth
 102      FF
 103 0084 89C3     		movl	%eax, %ebx
 104 0086 8B4508   		movl	8(%ebp), %eax
 105 0089 8D5018   		leal	24(%eax), %edx
 106 008c 8B4508   		movl	8(%ebp), %eax
 107 008f 83C048   		addl	$72, %eax
 108 0092 89542404 		movl	%edx, 4(%esp)
 109 0096 890424   		movl	%eax, (%esp)
 110 0099 E862FFFF 		call	_GetMinWidth
 110      FF
 111 009e 89C2     		movl	%eax, %edx
 112 00a0 A1000000 		movl	_MODULES_IN_CODEWORD, %eax
 112      00
 113 00a5 0FAFC2   		imull	%edx, %eax
 114 00a8 B9120000 		movl	$18, %ecx
 114      00
 115 00ad 99       		cltd
 116 00ae F7F9     		idivl	%ecx
 117 00b0 39C3     		cmpl	%eax, %ebx
 118 00b2 7D19     		jge	L6
 119              		.loc 1 29 9 is_stmt 0 discriminator 1
 120 00b4 8B4508   		movl	8(%ebp), %eax
 121 00b7 83C030   		addl	$48, %eax
 122 00ba 89442404 		movl	%eax, 4(%esp)
 123 00be 8B4508   		movl	8(%ebp), %eax
 124 00c1 890424   		movl	%eax, (%esp)
 125 00c4 E837FFFF 		call	_GetMinWidth
 125      FF
 126 00c9 89C3     		movl	%eax, %ebx
 127 00cb EB2C     		jmp	L7
 128              	L6:
 129              		.loc 1 29 9 discriminator 2
 130 00cd 8B4508   		movl	8(%ebp), %eax
 131 00d0 8D5018   		leal	24(%eax), %edx
 132 00d3 8B4508   		movl	8(%ebp), %eax
 133 00d6 83C048   		addl	$72, %eax
 134 00d9 89542404 		movl	%edx, 4(%esp)
 135 00dd 890424   		movl	%eax, (%esp)
 136 00e0 E81BFFFF 		call	_GetMinWidth
 136      FF
GAS LISTING C:\Users\jisu8\AppData\Local\Temp\ccAhT7z4.s 			page 4


 137 00e5 89C2     		movl	%eax, %edx
 138 00e7 A1000000 		movl	_MODULES_IN_CODEWORD, %eax
 138      00
 139 00ec 0FAFC2   		imull	%edx, %eax
 140 00ef B9120000 		movl	$18, %ecx
 140      00
 141 00f4 99       		cltd
 142 00f5 F7F9     		idivl	%ecx
 143 00f7 89C3     		movl	%eax, %ebx
 144              	L7:
 145              		.loc 1 29 9 discriminator 4
 146 00f9 8B4508   		movl	8(%ebp), %eax
 147 00fc 8D503C   		leal	60(%eax), %edx
 148 00ff 8B4508   		movl	8(%ebp), %eax
 149 0102 83C00C   		addl	$12, %eax
 150 0105 89542404 		movl	%edx, 4(%esp)
 151 0109 890424   		movl	%eax, (%esp)
 152 010c E8EFFEFF 		call	_GetMinWidth
 152      FF
 153 0111 89C6     		movl	%eax, %esi
 154 0113 8B4508   		movl	8(%ebp), %eax
 155 0116 8D5024   		leal	36(%eax), %edx
 156 0119 8B4508   		movl	8(%ebp), %eax
 157 011c 83C054   		addl	$84, %eax
 158 011f 89542404 		movl	%edx, 4(%esp)
 159 0123 890424   		movl	%eax, (%esp)
 160 0126 E8D5FEFF 		call	_GetMinWidth
 160      FF
 161 012b 89C2     		movl	%eax, %edx
 162 012d A1000000 		movl	_MODULES_IN_CODEWORD, %eax
 162      00
 163 0132 0FAFC2   		imull	%edx, %eax
 164 0135 B9120000 		movl	$18, %ecx
 164      00
 165 013a 99       		cltd
 166 013b F7F9     		idivl	%ecx
 167 013d 39C6     		cmpl	%eax, %esi
 168 013f 7D1A     		jge	L8
 169              		.loc 1 29 9 discriminator 5
 170 0141 8B4508   		movl	8(%ebp), %eax
 171 0144 8D503C   		leal	60(%eax), %edx
 172 0147 8B4508   		movl	8(%ebp), %eax
 173 014a 83C00C   		addl	$12, %eax
 174 014d 89542404 		movl	%edx, 4(%esp)
 175 0151 890424   		movl	%eax, (%esp)
 176 0154 E8A7FEFF 		call	_GetMinWidth
 176      FF
 177 0159 EB2A     		jmp	L9
 178              	L8:
 179              		.loc 1 29 9 discriminator 6
 180 015b 8B4508   		movl	8(%ebp), %eax
 181 015e 8D5024   		leal	36(%eax), %edx
 182 0161 8B4508   		movl	8(%ebp), %eax
 183 0164 83C054   		addl	$84, %eax
 184 0167 89542404 		movl	%edx, 4(%esp)
 185 016b 890424   		movl	%eax, (%esp)
 186 016e E88DFEFF 		call	_GetMinWidth
GAS LISTING C:\Users\jisu8\AppData\Local\Temp\ccAhT7z4.s 			page 5


 186      FF
 187 0173 89C2     		movl	%eax, %edx
 188 0175 A1000000 		movl	_MODULES_IN_CODEWORD, %eax
 188      00
 189 017a 0FAFC2   		imull	%edx, %eax
 190 017d BE120000 		movl	$18, %esi
 190      00
 191 0182 99       		cltd
 192 0183 F7FE     		idivl	%esi
 193              	L9:
 194              		.loc 1 29 9 discriminator 8
 195 0185 39C3     		cmpl	%eax, %ebx
 196 0187 0F8D8E00 		jge	L10
 196      0000
 197              		.loc 1 29 9 discriminator 9
 198 018d 8B4508   		movl	8(%ebp), %eax
 199 0190 83C030   		addl	$48, %eax
 200 0193 89442404 		movl	%eax, 4(%esp)
 201 0197 8B4508   		movl	8(%ebp), %eax
 202 019a 890424   		movl	%eax, (%esp)
 203 019d E85EFEFF 		call	_GetMinWidth
 203      FF
 204 01a2 89C3     		movl	%eax, %ebx
 205 01a4 8B4508   		movl	8(%ebp), %eax
 206 01a7 8D5018   		leal	24(%eax), %edx
 207 01aa 8B4508   		movl	8(%ebp), %eax
 208 01ad 83C048   		addl	$72, %eax
 209 01b0 89542404 		movl	%edx, 4(%esp)
 210 01b4 890424   		movl	%eax, (%esp)
 211 01b7 E844FEFF 		call	_GetMinWidth
 211      FF
 212 01bc 89C2     		movl	%eax, %edx
 213 01be A1000000 		movl	_MODULES_IN_CODEWORD, %eax
 213      00
 214 01c3 0FAFC2   		imull	%edx, %eax
 215 01c6 BE120000 		movl	$18, %esi
 215      00
 216 01cb 99       		cltd
 217 01cc F7FE     		idivl	%esi
 218 01ce 39C3     		cmpl	%eax, %ebx
 219 01d0 7D1A     		jge	L11
 220              		.loc 1 29 9 discriminator 11
 221 01d2 8B4508   		movl	8(%ebp), %eax
 222 01d5 83C030   		addl	$48, %eax
 223 01d8 89442404 		movl	%eax, 4(%esp)
 224 01dc 8B4508   		movl	8(%ebp), %eax
 225 01df 890424   		movl	%eax, (%esp)
 226 01e2 E819FEFF 		call	_GetMinWidth
 226      FF
 227 01e7 E9BB0000 		jmp	L16
 227      00
 228              	L11:
 229              		.loc 1 29 9 discriminator 12
 230 01ec 8B4508   		movl	8(%ebp), %eax
 231 01ef 8D5018   		leal	24(%eax), %edx
 232 01f2 8B4508   		movl	8(%ebp), %eax
 233 01f5 83C048   		addl	$72, %eax
GAS LISTING C:\Users\jisu8\AppData\Local\Temp\ccAhT7z4.s 			page 6


 234 01f8 89542404 		movl	%edx, 4(%esp)
 235 01fc 890424   		movl	%eax, (%esp)
 236 01ff E8FCFDFF 		call	_GetMinWidth
 236      FF
 237 0204 89C2     		movl	%eax, %edx
 238 0206 A1000000 		movl	_MODULES_IN_CODEWORD, %eax
 238      00
 239 020b 0FAFC2   		imull	%edx, %eax
 240 020e B9120000 		movl	$18, %ecx
 240      00
 241 0213 99       		cltd
 242 0214 F7F9     		idivl	%ecx
 243 0216 E98C0000 		jmp	L16
 243      00
 244              	L10:
 245              		.loc 1 29 9 discriminator 10
 246 021b 8B4508   		movl	8(%ebp), %eax
 247 021e 8D503C   		leal	60(%eax), %edx
 248 0221 8B4508   		movl	8(%ebp), %eax
 249 0224 83C00C   		addl	$12, %eax
 250 0227 89542404 		movl	%edx, 4(%esp)
 251 022b 890424   		movl	%eax, (%esp)
 252 022e E8CDFDFF 		call	_GetMinWidth
 252      FF
 253 0233 89C3     		movl	%eax, %ebx
 254 0235 8B4508   		movl	8(%ebp), %eax
 255 0238 8D5024   		leal	36(%eax), %edx
 256 023b 8B4508   		movl	8(%ebp), %eax
 257 023e 83C054   		addl	$84, %eax
 258 0241 89542404 		movl	%edx, 4(%esp)
 259 0245 890424   		movl	%eax, (%esp)
 260 0248 E8B3FDFF 		call	_GetMinWidth
 260      FF
 261 024d 89C2     		movl	%eax, %edx
 262 024f A1000000 		movl	_MODULES_IN_CODEWORD, %eax
 262      00
 263 0254 0FAFC2   		imull	%edx, %eax
 264 0257 BE120000 		movl	$18, %esi
 264      00
 265 025c 99       		cltd
 266 025d F7FE     		idivl	%esi
 267 025f 39C3     		cmpl	%eax, %ebx
 268 0261 7D1A     		jge	L14
 269              		.loc 1 29 9 discriminator 16
 270 0263 8B4508   		movl	8(%ebp), %eax
 271 0266 8D503C   		leal	60(%eax), %edx
 272 0269 8B4508   		movl	8(%ebp), %eax
 273 026c 83C00C   		addl	$12, %eax
 274 026f 89542404 		movl	%edx, 4(%esp)
 275 0273 890424   		movl	%eax, (%esp)
 276 0276 E885FDFF 		call	_GetMinWidth
 276      FF
 277 027b EB2A     		jmp	L16
 278              	L14:
 279              		.loc 1 29 9 discriminator 17
 280 027d 8B4508   		movl	8(%ebp), %eax
 281 0280 8D5024   		leal	36(%eax), %edx
GAS LISTING C:\Users\jisu8\AppData\Local\Temp\ccAhT7z4.s 			page 7


 282 0283 8B4508   		movl	8(%ebp), %eax
 283 0286 83C054   		addl	$84, %eax
 284 0289 89542404 		movl	%edx, 4(%esp)
 285 028d 890424   		movl	%eax, (%esp)
 286 0290 E86BFDFF 		call	_GetMinWidth
 286      FF
 287 0295 89C2     		movl	%eax, %edx
 288 0297 A1000000 		movl	_MODULES_IN_CODEWORD, %eax
 288      00
 289 029c 0FAFC2   		imull	%edx, %eax
 290 029f B9120000 		movl	$18, %ecx
 290      00
 291 02a4 99       		cltd
 292 02a5 F7F9     		idivl	%ecx
 293              	L16:
  30:src/pdf417/PDFReader.c **** 					__min(GetMinWidth(p+1, p+5), GetMinWidth(p+7, p+3) * MODULES_IN_CODEWORD / MODULES_IN_STOP_PAT
  31:src/pdf417/PDFReader.c **** }
 294              		.loc 1 31 1 is_stmt 1 discriminator 21
 295 02a7 83C408   		addl	$8, %esp
 296 02aa 5B       		popl	%ebx
 297              		.cfi_restore 3
 298 02ab 5E       		popl	%esi
 299              		.cfi_restore 6
 300 02ac 5D       		popl	%ebp
 301              	LCFI5:
 302              		.cfi_restore 5
 303              		.cfi_def_cfa 4, 4
 304 02ad C3       		ret
 305              		.cfi_endproc
 306              	LFE17:
 308              	_GetMaxWidth:
 309              	LFB18:
  32:src/pdf417/PDFReader.c **** 
  33:src/pdf417/PDFReader.c **** static int GetMaxWidth(ResultPoint_t * p1, ResultPoint_t * p2)
  34:src/pdf417/PDFReader.c **** {
 310              		.loc 1 34 1
 311              		.cfi_startproc
 312 02ae 55       		pushl	%ebp
 313              	LCFI6:
 314              		.cfi_def_cfa_offset 8
 315              		.cfi_offset 5, -8
 316 02af 89E5     		movl	%esp, %ebp
 317              	LCFI7:
 318              		.cfi_def_cfa_register 5
 319 02b1 83EC08   		subl	$8, %esp
  35:src/pdf417/PDFReader.c **** 	if (p1->m_hasValue == 0 || p2->m_hasValue == 0) 
 320              		.loc 1 35 8
 321 02b4 8B4508   		movl	8(%ebp), %eax
 322 02b7 0FB600   		movzbl	(%eax), %eax
 323              		.loc 1 35 5
 324 02ba 84C0     		testb	%al, %al
 325 02bc 740A     		je	L18
 326              		.loc 1 35 31 discriminator 1
 327 02be 8B450C   		movl	12(%ebp), %eax
 328 02c1 0FB600   		movzbl	(%eax), %eax
 329              		.loc 1 35 26 discriminator 1
 330 02c4 84C0     		testb	%al, %al
GAS LISTING C:\Users\jisu8\AppData\Local\Temp\ccAhT7z4.s 			page 8


 331 02c6 7507     		jne	L19
 332              	L18:
  36:src/pdf417/PDFReader.c **** 	{
  37:src/pdf417/PDFReader.c **** 		return 0;
 333              		.loc 1 37 10
 334 02c8 B8000000 		movl	$0, %eax
 334      00
 335 02cd EB3B     		jmp	L20
 336              	L19:
  38:src/pdf417/PDFReader.c **** 	}
  39:src/pdf417/PDFReader.c **** 
  40:src/pdf417/PDFReader.c **** 	return abs((int)(p1->m_value.x) - (int)(p2->m_value.x));
 337              		.loc 1 40 30
 338 02cf 8B4508   		movl	8(%ebp), %eax
 339 02d2 D94004   		flds	4(%eax)
 340              		.loc 1 40 13
 341 02d5 D97DFE   		fnstcw	-2(%ebp)
 342 02d8 0FB745FE 		movzwl	-2(%ebp), %eax
 343 02dc 80CC0C   		orb	$12, %ah
 344 02df 668945FC 		movw	%ax, -4(%ebp)
 345 02e3 D96DFC   		fldcw	-4(%ebp)
 346 02e6 DB5DF8   		fistpl	-8(%ebp)
 347 02e9 D96DFE   		fldcw	-2(%ebp)
 348 02ec 8B55F8   		movl	-8(%ebp), %edx
 349              		.loc 1 40 53
 350 02ef 8B450C   		movl	12(%ebp), %eax
 351 02f2 D94004   		flds	4(%eax)
 352              		.loc 1 40 36
 353 02f5 D96DFC   		fldcw	-4(%ebp)
 354 02f8 DB5DF8   		fistpl	-8(%ebp)
 355 02fb D96DFE   		fldcw	-2(%ebp)
 356 02fe 8B45F8   		movl	-8(%ebp), %eax
 357              		.loc 1 40 34
 358 0301 29C2     		subl	%eax, %edx
 359 0303 89D0     		movl	%edx, %eax
 360              		.loc 1 40 9
 361 0305 99       		cltd
 362 0306 31D0     		xorl	%edx, %eax
 363 0308 29D0     		subl	%edx, %eax
 364              	L20:
  41:src/pdf417/PDFReader.c **** }
 365              		.loc 1 41 1
 366 030a C9       		leave
 367              	LCFI8:
 368              		.cfi_restore 5
 369              		.cfi_def_cfa 4, 4
 370 030b C3       		ret
 371              		.cfi_endproc
 372              	LFE18:
 374              	_GetMaxCodewordWidth:
 375              	LFB19:
  42:src/pdf417/PDFReader.c **** 
  43:src/pdf417/PDFReader.c **** static int GetMaxCodewordWidth(ResultPoint_t * p)
  44:src/pdf417/PDFReader.c **** {
 376              		.loc 1 44 1
 377              		.cfi_startproc
 378 030c 55       		pushl	%ebp
GAS LISTING C:\Users\jisu8\AppData\Local\Temp\ccAhT7z4.s 			page 9


 379              	LCFI9:
 380              		.cfi_def_cfa_offset 8
 381              		.cfi_offset 5, -8
 382 030d 89E5     		movl	%esp, %ebp
 383              	LCFI10:
 384              		.cfi_def_cfa_register 5
 385 030f 56       		pushl	%esi
 386 0310 53       		pushl	%ebx
 387 0311 83EC08   		subl	$8, %esp
 388              		.cfi_offset 6, -12
 389              		.cfi_offset 3, -16
  45:src/pdf417/PDFReader.c **** 	return __max(__max(GetMaxWidth(p, p+4), GetMaxWidth(p+6, p+2) * MODULES_IN_CODEWORD / MODULES_IN_S
 390              		.loc 1 45 9
 391 0314 8B4508   		movl	8(%ebp), %eax
 392 0317 83C030   		addl	$48, %eax
 393 031a 89442404 		movl	%eax, 4(%esp)
 394 031e 8B4508   		movl	8(%ebp), %eax
 395 0321 890424   		movl	%eax, (%esp)
 396 0324 E885FFFF 		call	_GetMaxWidth
 396      FF
 397 0329 89C3     		movl	%eax, %ebx
 398 032b 8B4508   		movl	8(%ebp), %eax
 399 032e 8D5018   		leal	24(%eax), %edx
 400 0331 8B4508   		movl	8(%ebp), %eax
 401 0334 83C048   		addl	$72, %eax
 402 0337 89542404 		movl	%edx, 4(%esp)
 403 033b 890424   		movl	%eax, (%esp)
 404 033e E86BFFFF 		call	_GetMaxWidth
 404      FF
 405 0343 89C2     		movl	%eax, %edx
 406 0345 A1000000 		movl	_MODULES_IN_CODEWORD, %eax
 406      00
 407 034a 0FAFC2   		imull	%edx, %eax
 408 034d B9120000 		movl	$18, %ecx
 408      00
 409 0352 99       		cltd
 410 0353 F7F9     		idivl	%ecx
 411 0355 39C3     		cmpl	%eax, %ebx
 412 0357 7E19     		jle	L22
 413              		.loc 1 45 9 is_stmt 0 discriminator 1
 414 0359 8B4508   		movl	8(%ebp), %eax
 415 035c 83C030   		addl	$48, %eax
 416 035f 89442404 		movl	%eax, 4(%esp)
 417 0363 8B4508   		movl	8(%ebp), %eax
 418 0366 890424   		movl	%eax, (%esp)
 419 0369 E840FFFF 		call	_GetMaxWidth
 419      FF
 420 036e 89C3     		movl	%eax, %ebx
 421 0370 EB2C     		jmp	L23
 422              	L22:
 423              		.loc 1 45 9 discriminator 2
 424 0372 8B4508   		movl	8(%ebp), %eax
 425 0375 8D5018   		leal	24(%eax), %edx
 426 0378 8B4508   		movl	8(%ebp), %eax
 427 037b 83C048   		addl	$72, %eax
 428 037e 89542404 		movl	%edx, 4(%esp)
 429 0382 890424   		movl	%eax, (%esp)
GAS LISTING C:\Users\jisu8\AppData\Local\Temp\ccAhT7z4.s 			page 10


 430 0385 E824FFFF 		call	_GetMaxWidth
 430      FF
 431 038a 89C2     		movl	%eax, %edx
 432 038c A1000000 		movl	_MODULES_IN_CODEWORD, %eax
 432      00
 433 0391 0FAFC2   		imull	%edx, %eax
 434 0394 B9120000 		movl	$18, %ecx
 434      00
 435 0399 99       		cltd
 436 039a F7F9     		idivl	%ecx
 437 039c 89C3     		movl	%eax, %ebx
 438              	L23:
 439              		.loc 1 45 9 discriminator 4
 440 039e 8B4508   		movl	8(%ebp), %eax
 441 03a1 8D503C   		leal	60(%eax), %edx
 442 03a4 8B4508   		movl	8(%ebp), %eax
 443 03a7 83C00C   		addl	$12, %eax
 444 03aa 89542404 		movl	%edx, 4(%esp)
 445 03ae 890424   		movl	%eax, (%esp)
 446 03b1 E8F8FEFF 		call	_GetMaxWidth
 446      FF
 447 03b6 89C6     		movl	%eax, %esi
 448 03b8 8B4508   		movl	8(%ebp), %eax
 449 03bb 8D5024   		leal	36(%eax), %edx
 450 03be 8B4508   		movl	8(%ebp), %eax
 451 03c1 83C054   		addl	$84, %eax
 452 03c4 89542404 		movl	%edx, 4(%esp)
 453 03c8 890424   		movl	%eax, (%esp)
 454 03cb E8DEFEFF 		call	_GetMaxWidth
 454      FF
 455 03d0 89C2     		movl	%eax, %edx
 456 03d2 A1000000 		movl	_MODULES_IN_CODEWORD, %eax
 456      00
 457 03d7 0FAFC2   		imull	%edx, %eax
 458 03da B9120000 		movl	$18, %ecx
 458      00
 459 03df 99       		cltd
 460 03e0 F7F9     		idivl	%ecx
 461 03e2 39C6     		cmpl	%eax, %esi
 462 03e4 7E1A     		jle	L24
 463              		.loc 1 45 9 discriminator 5
 464 03e6 8B4508   		movl	8(%ebp), %eax
 465 03e9 8D503C   		leal	60(%eax), %edx
 466 03ec 8B4508   		movl	8(%ebp), %eax
 467 03ef 83C00C   		addl	$12, %eax
 468 03f2 89542404 		movl	%edx, 4(%esp)
 469 03f6 890424   		movl	%eax, (%esp)
 470 03f9 E8B0FEFF 		call	_GetMaxWidth
 470      FF
 471 03fe EB2A     		jmp	L25
 472              	L24:
 473              		.loc 1 45 9 discriminator 6
 474 0400 8B4508   		movl	8(%ebp), %eax
 475 0403 8D5024   		leal	36(%eax), %edx
 476 0406 8B4508   		movl	8(%ebp), %eax
 477 0409 83C054   		addl	$84, %eax
 478 040c 89542404 		movl	%edx, 4(%esp)
GAS LISTING C:\Users\jisu8\AppData\Local\Temp\ccAhT7z4.s 			page 11


 479 0410 890424   		movl	%eax, (%esp)
 480 0413 E896FEFF 		call	_GetMaxWidth
 480      FF
 481 0418 89C2     		movl	%eax, %edx
 482 041a A1000000 		movl	_MODULES_IN_CODEWORD, %eax
 482      00
 483 041f 0FAFC2   		imull	%edx, %eax
 484 0422 BE120000 		movl	$18, %esi
 484      00
 485 0427 99       		cltd
 486 0428 F7FE     		idivl	%esi
 487              	L25:
 488              		.loc 1 45 9 discriminator 8
 489 042a 39C3     		cmpl	%eax, %ebx
 490 042c 0F8E8E00 		jle	L26
 490      0000
 491              		.loc 1 45 9 discriminator 9
 492 0432 8B4508   		movl	8(%ebp), %eax
 493 0435 83C030   		addl	$48, %eax
 494 0438 89442404 		movl	%eax, 4(%esp)
 495 043c 8B4508   		movl	8(%ebp), %eax
 496 043f 890424   		movl	%eax, (%esp)
 497 0442 E867FEFF 		call	_GetMaxWidth
 497      FF
 498 0447 89C3     		movl	%eax, %ebx
 499 0449 8B4508   		movl	8(%ebp), %eax
 500 044c 8D5018   		leal	24(%eax), %edx
 501 044f 8B4508   		movl	8(%ebp), %eax
 502 0452 83C048   		addl	$72, %eax
 503 0455 89542404 		movl	%edx, 4(%esp)
 504 0459 890424   		movl	%eax, (%esp)
 505 045c E84DFEFF 		call	_GetMaxWidth
 505      FF
 506 0461 89C2     		movl	%eax, %edx
 507 0463 A1000000 		movl	_MODULES_IN_CODEWORD, %eax
 507      00
 508 0468 0FAFC2   		imull	%edx, %eax
 509 046b BE120000 		movl	$18, %esi
 509      00
 510 0470 99       		cltd
 511 0471 F7FE     		idivl	%esi
 512 0473 39C3     		cmpl	%eax, %ebx
 513 0475 7E1A     		jle	L27
 514              		.loc 1 45 9 discriminator 11
 515 0477 8B4508   		movl	8(%ebp), %eax
 516 047a 83C030   		addl	$48, %eax
 517 047d 89442404 		movl	%eax, 4(%esp)
 518 0481 8B4508   		movl	8(%ebp), %eax
 519 0484 890424   		movl	%eax, (%esp)
 520 0487 E822FEFF 		call	_GetMaxWidth
 520      FF
 521 048c E9BB0000 		jmp	L32
 521      00
 522              	L27:
 523              		.loc 1 45 9 discriminator 12
 524 0491 8B4508   		movl	8(%ebp), %eax
 525 0494 8D5018   		leal	24(%eax), %edx
GAS LISTING C:\Users\jisu8\AppData\Local\Temp\ccAhT7z4.s 			page 12


 526 0497 8B4508   		movl	8(%ebp), %eax
 527 049a 83C048   		addl	$72, %eax
 528 049d 89542404 		movl	%edx, 4(%esp)
 529 04a1 890424   		movl	%eax, (%esp)
 530 04a4 E805FEFF 		call	_GetMaxWidth
 530      FF
 531 04a9 89C2     		movl	%eax, %edx
 532 04ab A1000000 		movl	_MODULES_IN_CODEWORD, %eax
 532      00
 533 04b0 0FAFC2   		imull	%edx, %eax
 534 04b3 B9120000 		movl	$18, %ecx
 534      00
 535 04b8 99       		cltd
 536 04b9 F7F9     		idivl	%ecx
 537 04bb E98C0000 		jmp	L32
 537      00
 538              	L26:
 539              		.loc 1 45 9 discriminator 10
 540 04c0 8B4508   		movl	8(%ebp), %eax
 541 04c3 8D503C   		leal	60(%eax), %edx
 542 04c6 8B4508   		movl	8(%ebp), %eax
 543 04c9 83C00C   		addl	$12, %eax
 544 04cc 89542404 		movl	%edx, 4(%esp)
 545 04d0 890424   		movl	%eax, (%esp)
 546 04d3 E8D6FDFF 		call	_GetMaxWidth
 546      FF
 547 04d8 89C3     		movl	%eax, %ebx
 548 04da 8B4508   		movl	8(%ebp), %eax
 549 04dd 8D5024   		leal	36(%eax), %edx
 550 04e0 8B4508   		movl	8(%ebp), %eax
 551 04e3 83C054   		addl	$84, %eax
 552 04e6 89542404 		movl	%edx, 4(%esp)
 553 04ea 890424   		movl	%eax, (%esp)
 554 04ed E8BCFDFF 		call	_GetMaxWidth
 554      FF
 555 04f2 89C2     		movl	%eax, %edx
 556 04f4 A1000000 		movl	_MODULES_IN_CODEWORD, %eax
 556      00
 557 04f9 0FAFC2   		imull	%edx, %eax
 558 04fc BE120000 		movl	$18, %esi
 558      00
 559 0501 99       		cltd
 560 0502 F7FE     		idivl	%esi
 561 0504 39C3     		cmpl	%eax, %ebx
 562 0506 7E1A     		jle	L30
 563              		.loc 1 45 9 discriminator 16
 564 0508 8B4508   		movl	8(%ebp), %eax
 565 050b 8D503C   		leal	60(%eax), %edx
 566 050e 8B4508   		movl	8(%ebp), %eax
 567 0511 83C00C   		addl	$12, %eax
 568 0514 89542404 		movl	%edx, 4(%esp)
 569 0518 890424   		movl	%eax, (%esp)
 570 051b E88EFDFF 		call	_GetMaxWidth
 570      FF
 571 0520 EB2A     		jmp	L32
 572              	L30:
 573              		.loc 1 45 9 discriminator 17
GAS LISTING C:\Users\jisu8\AppData\Local\Temp\ccAhT7z4.s 			page 13


 574 0522 8B4508   		movl	8(%ebp), %eax
 575 0525 8D5024   		leal	36(%eax), %edx
 576 0528 8B4508   		movl	8(%ebp), %eax
 577 052b 83C054   		addl	$84, %eax
 578 052e 89542404 		movl	%edx, 4(%esp)
 579 0532 890424   		movl	%eax, (%esp)
 580 0535 E874FDFF 		call	_GetMaxWidth
 580      FF
 581 053a 89C2     		movl	%eax, %edx
 582 053c A1000000 		movl	_MODULES_IN_CODEWORD, %eax
 582      00
 583 0541 0FAFC2   		imull	%edx, %eax
 584 0544 B9120000 		movl	$18, %ecx
 584      00
 585 0549 99       		cltd
 586 054a F7F9     		idivl	%ecx
 587              	L32:
  46:src/pdf417/PDFReader.c **** 					__max(GetMaxWidth(p+1, p+5), GetMaxWidth(p+7, p+3) * MODULES_IN_CODEWORD / MODULES_IN_STOP_PAT
  47:src/pdf417/PDFReader.c **** }
 588              		.loc 1 47 1 is_stmt 1 discriminator 21
 589 054c 83C408   		addl	$8, %esp
 590 054f 5B       		popl	%ebx
 591              		.cfi_restore 3
 592 0550 5E       		popl	%esi
 593              		.cfi_restore 6
 594 0551 5D       		popl	%ebp
 595              	LCFI11:
 596              		.cfi_restore 5
 597              		.cfi_def_cfa 4, 4
 598 0552 C3       		ret
 599              		.cfi_endproc
 600              	LFE19:
 601              		.section .rdata,"dr"
 602              		.align 4
 603              	LC1:
 604 0004 20446F44 		.ascii " DoDecode: img=%d, multiple=%d, res=%d, str=%d \12\0"
 604      65636F64 
 604      653A2069 
 604      6D673D25 
 604      642C206D 
 605 0035 000000   		.text
 606              		.globl	_DoDecode
 608              	_DoDecode:
 609              	LFB20:
  48:src/pdf417/PDFReader.c **** 
  49:src/pdf417/PDFReader.c **** DecodeStatus_t DoDecode(GenericLuminanceSource_t * image, unsigned char multiple, result_t * result
  50:src/pdf417/PDFReader.c **** {
 610              		.loc 1 50 1
 611              		.cfi_startproc
 612 0553 55       		pushl	%ebp
 613              	LCFI12:
 614              		.cfi_def_cfa_offset 8
 615              		.cfi_offset 5, -8
 616 0554 89E5     		movl	%esp, %ebp
 617              	LCFI13:
 618              		.cfi_def_cfa_register 5
 619 0556 57       		pushl	%edi
GAS LISTING C:\Users\jisu8\AppData\Local\Temp\ccAhT7z4.s 			page 14


 620 0557 56       		pushl	%esi
 621 0558 53       		pushl	%ebx
 622 0559 81ECFC00 		subl	$252, %esp
 622      0000
 623              		.cfi_offset 7, -12
 624              		.cfi_offset 6, -16
 625              		.cfi_offset 3, -20
 626 055f 8B450C   		movl	12(%ebp), %eax
 627 0562 8845A4   		movb	%al, -92(%ebp)
  51:src/pdf417/PDFReader.c **** 
  52:src/pdf417/PDFReader.c **** 	printf(" DoDecode: img=%d, multiple=%d, res=%d, str=%d \n", image, multiple, results, characterSet
 628              		.loc 1 52 2
 629 0565 0FB645A4 		movzbl	-92(%ebp), %eax
 630 0569 8B5514   		movl	20(%ebp), %edx
 631 056c 89542410 		movl	%edx, 16(%esp)
 632 0570 8B5510   		movl	16(%ebp), %edx
 633 0573 8954240C 		movl	%edx, 12(%esp)
 634 0577 89442408 		movl	%eax, 8(%esp)
 635 057b 8B4508   		movl	8(%ebp), %eax
 636 057e 89442404 		movl	%eax, 4(%esp)
 637 0582 C7042404 		movl	$LC1, (%esp)
 637      000000
 638 0589 E8000000 		call	_printf
 638      00
  53:src/pdf417/PDFReader.c **** 	Detector_Result_t detectorResult;
  54:src/pdf417/PDFReader.c **** 	DecodeStatus_t status;
  55:src/pdf417/PDFReader.c **** 	status = Detect(image, multiple, &detectorResult);
 639              		.loc 1 55 11
 640 058e 0FB645A4 		movzbl	-92(%ebp), %eax
 641 0592 8D55D8   		leal	-40(%ebp), %edx
 642 0595 89542408 		movl	%edx, 8(%esp)
 643 0599 89442404 		movl	%eax, 4(%esp)
 644 059d 8B4508   		movl	8(%ebp), %eax
 645 05a0 890424   		movl	%eax, (%esp)
 646 05a3 E8000000 		call	_Detect
 646      00
 647 05a8 8945E4   		movl	%eax, -28(%ebp)
  56:src/pdf417/PDFReader.c **** 	if (StatusIsError(status)) 
 648              		.loc 1 56 5
 649 05ab 837DE400 		cmpl	$0, -28(%ebp)
 650 05af 7408     		je	L34
  57:src/pdf417/PDFReader.c **** 	{
  58:src/pdf417/PDFReader.c **** 		return status;
 651              		.loc 1 58 10
 652 05b1 8B45E4   		movl	-28(%ebp), %eax
 653 05b4 E9E10200 		jmp	L38
 653      00
 654              	L34:
  59:src/pdf417/PDFReader.c **** 	}
  60:src/pdf417/PDFReader.c **** 
  61:src/pdf417/PDFReader.c **** 	ResultPoint_t * points = detectorResult.points;
 655              		.loc 1 61 18
 656 05b9 8B45DC   		movl	-36(%ebp), %eax
 657 05bc 8945E0   		movl	%eax, -32(%ebp)
  62:src/pdf417/PDFReader.c **** 	DecoderResult_t decoderResult;
  63:src/pdf417/PDFReader.c **** 	result_init(&decoderResult);
 658              		.loc 1 63 2
GAS LISTING C:\Users\jisu8\AppData\Local\Temp\ccAhT7z4.s 			page 15


 659 05bf 8D45A8   		leal	-88(%ebp), %eax
 660 05c2 890424   		movl	%eax, (%esp)
 661 05c5 E8000000 		call	_result_init
 661      00
  64:src/pdf417/PDFReader.c **** 
  65:src/pdf417/PDFReader.c **** 	//for (const auto& points : detectorResult.points) 
  66:src/pdf417/PDFReader.c **** 	//{
  67:src/pdf417/PDFReader.c **** 		decoderResult = Decode(detectorResult.bits, points[4], points[5], points[6], points[7],
 662              		.loc 1 67 19
 663 05ca 8B45E0   		movl	-32(%ebp), %eax
 664 05cd 890424   		movl	%eax, (%esp)
 665 05d0 E837FDFF 		call	_GetMaxCodewordWidth
 665      FF
 666 05d5 89855CFF 		movl	%eax, -164(%ebp)
 666      FFFF
 667 05db 8B45E0   		movl	-32(%ebp), %eax
 668 05de 890424   		movl	%eax, (%esp)
 669 05e1 E881FAFF 		call	_GetMinCodewordWidth
 669      FF
 670 05e6 898558FF 		movl	%eax, -168(%ebp)
 670      FFFF
 671              		.loc 1 67 86
 672 05ec 8B45E0   		movl	-32(%ebp), %eax
 673 05ef 8D7054   		leal	84(%eax), %esi
 674              		.loc 1 67 75
 675 05f2 8B45E0   		movl	-32(%ebp), %eax
 676 05f5 8D5848   		leal	72(%eax), %ebx
 677              		.loc 1 67 64
 678 05f8 8B45E0   		movl	-32(%ebp), %eax
 679 05fb 8D483C   		leal	60(%eax), %ecx
 680              		.loc 1 67 53
 681 05fe 8B45E0   		movl	-32(%ebp), %eax
 682 0601 8D5030   		leal	48(%eax), %edx
 683              		.loc 1 67 40
 684 0604 8B7DD8   		movl	-40(%ebp), %edi
 685 0607 89BD54FF 		movl	%edi, -172(%ebp)
 685      FFFF
 686              		.loc 1 67 19
 687 060d 8DBD68FF 		leal	-152(%ebp), %edi
 687      FFFF
 688 0613 8B4514   		movl	20(%ebp), %eax
 689 0616 89442440 		movl	%eax, 64(%esp)
 690 061a 8B855CFF 		movl	-164(%ebp), %eax
 690      FFFF
 691 0620 8944243C 		movl	%eax, 60(%esp)
 692 0624 8B8558FF 		movl	-168(%ebp), %eax
 692      FFFF
 693 062a 89442438 		movl	%eax, 56(%esp)
 694 062e 8B06     		movl	(%esi), %eax
 695 0630 8944242C 		movl	%eax, 44(%esp)
 696 0634 8B4604   		movl	4(%esi), %eax
 697 0637 89442430 		movl	%eax, 48(%esp)
 698 063b 8B4608   		movl	8(%esi), %eax
 699 063e 89442434 		movl	%eax, 52(%esp)
 700 0642 8B03     		movl	(%ebx), %eax
 701 0644 89442420 		movl	%eax, 32(%esp)
 702 0648 8B4304   		movl	4(%ebx), %eax
GAS LISTING C:\Users\jisu8\AppData\Local\Temp\ccAhT7z4.s 			page 16


 703 064b 89442424 		movl	%eax, 36(%esp)
 704 064f 8B4308   		movl	8(%ebx), %eax
 705 0652 89442428 		movl	%eax, 40(%esp)
 706 0656 8B01     		movl	(%ecx), %eax
 707 0658 89442414 		movl	%eax, 20(%esp)
 708 065c 8B4104   		movl	4(%ecx), %eax
 709 065f 89442418 		movl	%eax, 24(%esp)
 710 0663 8B4108   		movl	8(%ecx), %eax
 711 0666 8944241C 		movl	%eax, 28(%esp)
 712 066a 8B02     		movl	(%edx), %eax
 713 066c 89442408 		movl	%eax, 8(%esp)
 714 0670 8B4204   		movl	4(%edx), %eax
 715 0673 8944240C 		movl	%eax, 12(%esp)
 716 0677 8B4208   		movl	8(%edx), %eax
 717 067a 89442410 		movl	%eax, 16(%esp)
 718 067e 8B8554FF 		movl	-172(%ebp), %eax
 718      FFFF
 719 0684 89442404 		movl	%eax, 4(%esp)
 720 0688 893C24   		movl	%edi, (%esp)
 721 068b E8000000 		call	_Decode
 721      00
 722 0690 8B8568FF 		movl	-152(%ebp), %eax
 722      FFFF
 723 0696 8945A8   		movl	%eax, -88(%ebp)
 724 0699 8B856CFF 		movl	-148(%ebp), %eax
 724      FFFF
 725 069f 8945AC   		movl	%eax, -84(%ebp)
 726 06a2 8B8570FF 		movl	-144(%ebp), %eax
 726      FFFF
 727 06a8 8945B0   		movl	%eax, -80(%ebp)
 728 06ab 8B8574FF 		movl	-140(%ebp), %eax
 728      FFFF
 729 06b1 8945B4   		movl	%eax, -76(%ebp)
 730 06b4 8B8578FF 		movl	-136(%ebp), %eax
 730      FFFF
 731 06ba 8945B8   		movl	%eax, -72(%ebp)
 732 06bd 8B857CFF 		movl	-132(%ebp), %eax
 732      FFFF
 733 06c3 8945BC   		movl	%eax, -68(%ebp)
 734 06c6 8B4580   		movl	-128(%ebp), %eax
 735 06c9 8945C0   		movl	%eax, -64(%ebp)
 736 06cc 8B4584   		movl	-124(%ebp), %eax
 737 06cf 8945C4   		movl	%eax, -60(%ebp)
 738 06d2 8B4588   		movl	-120(%ebp), %eax
 739 06d5 8945C8   		movl	%eax, -56(%ebp)
 740 06d8 8B458C   		movl	-116(%ebp), %eax
 741 06db 8945CC   		movl	%eax, -52(%ebp)
 742 06de 8B4590   		movl	-112(%ebp), %eax
 743 06e1 8945D0   		movl	%eax, -48(%ebp)
 744 06e4 8B4594   		movl	-108(%ebp), %eax
 745 06e7 8945D4   		movl	%eax, -44(%ebp)
  68:src/pdf417/PDFReader.c **** 									GetMinCodewordWidth(points), GetMaxCodewordWidth(points), characterSet);
  69:src/pdf417/PDFReader.c **** 
  70:src/pdf417/PDFReader.c **** 		if (decoderResult.status == NoError) 
 746              		.loc 1 70 20
 747 06ea 8B45A8   		movl	-88(%ebp), %eax
 748              		.loc 1 70 6
GAS LISTING C:\Users\jisu8\AppData\Local\Temp\ccAhT7z4.s 			page 17


 749 06ed 85C0     		testl	%eax, %eax
 750 06ef 0F858D01 		jne	L36
 750      0000
  71:src/pdf417/PDFReader.c **** 		{
  72:src/pdf417/PDFReader.c **** 			results->_status = decoderResult.status;
 751              		.loc 1 72 36
 752 06f5 8B55A8   		movl	-88(%ebp), %edx
 753              		.loc 1 72 21
 754 06f8 8B4510   		movl	16(%ebp), %eax
 755 06fb 8910     		movl	%edx, (%eax)
  73:src/pdf417/PDFReader.c **** 			results->_format = PDF417;
 756              		.loc 1 73 21
 757 06fd 8B4510   		movl	16(%ebp), %eax
 758 0700 C7400400 		movl	$4096, 4(%eax)
 758      100000
  74:src/pdf417/PDFReader.c **** 			results->_text = decoderResult._text;
 759              		.loc 1 74 34
 760 0707 8B55B4   		movl	-76(%ebp), %edx
 761              		.loc 1 74 19
 762 070a 8B4510   		movl	16(%ebp), %eax
 763 070d 895008   		movl	%edx, 8(%eax)
  75:src/pdf417/PDFReader.c **** 			results->_position[0].x = (int)points[0].m_value.x;
 764              		.loc 1 75 52
 765 0710 8B45E0   		movl	-32(%ebp), %eax
 766 0713 D94004   		flds	4(%eax)
 767              		.loc 1 75 30
 768 0716 D97DA6   		fnstcw	-90(%ebp)
 769 0719 0FB745A6 		movzwl	-90(%ebp), %eax
 770 071d 80CC0C   		orb	$12, %ah
 771 0720 66898566 		movw	%ax, -154(%ebp)
 771      FFFFFF
 772 0727 D9AD66FF 		fldcw	-154(%ebp)
 772      FFFF
 773 072d DB9D60FF 		fistpl	-160(%ebp)
 773      FFFF
 774 0733 D96DA6   		fldcw	-90(%ebp)
 775 0736 8B9560FF 		movl	-160(%ebp), %edx
 775      FFFF
 776              		.loc 1 75 28
 777 073c 8B4510   		movl	16(%ebp), %eax
 778 073f 89500C   		movl	%edx, 12(%eax)
  76:src/pdf417/PDFReader.c **** 			results->_position[0].y = (int)points[0].m_value.y;
 779              		.loc 1 76 52
 780 0742 8B45E0   		movl	-32(%ebp), %eax
 781 0745 D94008   		flds	8(%eax)
 782              		.loc 1 76 30
 783 0748 D9AD66FF 		fldcw	-154(%ebp)
 783      FFFF
 784 074e DB9D60FF 		fistpl	-160(%ebp)
 784      FFFF
 785 0754 D96DA6   		fldcw	-90(%ebp)
 786 0757 8B9560FF 		movl	-160(%ebp), %edx
 786      FFFF
 787              		.loc 1 76 28
 788 075d 8B4510   		movl	16(%ebp), %eax
 789 0760 895010   		movl	%edx, 16(%eax)
  77:src/pdf417/PDFReader.c **** 			results->_position[1].x = (int)points[2].m_value.x;
GAS LISTING C:\Users\jisu8\AppData\Local\Temp\ccAhT7z4.s 			page 18


 790              		.loc 1 77 41
 791 0763 8B45E0   		movl	-32(%ebp), %eax
 792 0766 83C018   		addl	$24, %eax
 793              		.loc 1 77 52
 794 0769 D94004   		flds	4(%eax)
 795              		.loc 1 77 30
 796 076c D9AD66FF 		fldcw	-154(%ebp)
 796      FFFF
 797 0772 DB9D60FF 		fistpl	-160(%ebp)
 797      FFFF
 798 0778 D96DA6   		fldcw	-90(%ebp)
 799 077b 8B9560FF 		movl	-160(%ebp), %edx
 799      FFFF
 800              		.loc 1 77 28
 801 0781 8B4510   		movl	16(%ebp), %eax
 802 0784 895014   		movl	%edx, 20(%eax)
  78:src/pdf417/PDFReader.c **** 			results->_position[1].y = (int)points[2].m_value.y;
 803              		.loc 1 78 41
 804 0787 8B45E0   		movl	-32(%ebp), %eax
 805 078a 83C018   		addl	$24, %eax
 806              		.loc 1 78 52
 807 078d D94008   		flds	8(%eax)
 808              		.loc 1 78 30
 809 0790 D9AD66FF 		fldcw	-154(%ebp)
 809      FFFF
 810 0796 DB9D60FF 		fistpl	-160(%ebp)
 810      FFFF
 811 079c D96DA6   		fldcw	-90(%ebp)
 812 079f 8B9560FF 		movl	-160(%ebp), %edx
 812      FFFF
 813              		.loc 1 78 28
 814 07a5 8B4510   		movl	16(%ebp), %eax
 815 07a8 895018   		movl	%edx, 24(%eax)
  79:src/pdf417/PDFReader.c **** 			results->_position[2].x = (int)points[3].m_value.x;
 816              		.loc 1 79 41
 817 07ab 8B45E0   		movl	-32(%ebp), %eax
 818 07ae 83C024   		addl	$36, %eax
 819              		.loc 1 79 52
 820 07b1 D94004   		flds	4(%eax)
 821              		.loc 1 79 30
 822 07b4 D9AD66FF 		fldcw	-154(%ebp)
 822      FFFF
 823 07ba DB9D60FF 		fistpl	-160(%ebp)
 823      FFFF
 824 07c0 D96DA6   		fldcw	-90(%ebp)
 825 07c3 8B9560FF 		movl	-160(%ebp), %edx
 825      FFFF
 826              		.loc 1 79 28
 827 07c9 8B4510   		movl	16(%ebp), %eax
 828 07cc 89501C   		movl	%edx, 28(%eax)
  80:src/pdf417/PDFReader.c **** 			results->_position[2].y = (int)points[3].m_value.y;
 829              		.loc 1 80 41
 830 07cf 8B45E0   		movl	-32(%ebp), %eax
 831 07d2 83C024   		addl	$36, %eax
 832              		.loc 1 80 52
 833 07d5 D94008   		flds	8(%eax)
 834              		.loc 1 80 30
GAS LISTING C:\Users\jisu8\AppData\Local\Temp\ccAhT7z4.s 			page 19


 835 07d8 D9AD66FF 		fldcw	-154(%ebp)
 835      FFFF
 836 07de DB9D60FF 		fistpl	-160(%ebp)
 836      FFFF
 837 07e4 D96DA6   		fldcw	-90(%ebp)
 838 07e7 8B9560FF 		movl	-160(%ebp), %edx
 838      FFFF
 839              		.loc 1 80 28
 840 07ed 8B4510   		movl	16(%ebp), %eax
 841 07f0 895020   		movl	%edx, 32(%eax)
  81:src/pdf417/PDFReader.c **** 			results->_position[3].x = (int)points[1].m_value.x;
 842              		.loc 1 81 41
 843 07f3 8B45E0   		movl	-32(%ebp), %eax
 844 07f6 83C00C   		addl	$12, %eax
 845              		.loc 1 81 52
 846 07f9 D94004   		flds	4(%eax)
 847              		.loc 1 81 30
 848 07fc D9AD66FF 		fldcw	-154(%ebp)
 848      FFFF
 849 0802 DB9D60FF 		fistpl	-160(%ebp)
 849      FFFF
 850 0808 D96DA6   		fldcw	-90(%ebp)
 851 080b 8B9560FF 		movl	-160(%ebp), %edx
 851      FFFF
 852              		.loc 1 81 28
 853 0811 8B4510   		movl	16(%ebp), %eax
 854 0814 895024   		movl	%edx, 36(%eax)
  82:src/pdf417/PDFReader.c **** 			results->_position[3].y = (int)points[1].m_value.y;
 855              		.loc 1 82 41
 856 0817 8B45E0   		movl	-32(%ebp), %eax
 857 081a 83C00C   		addl	$12, %eax
 858              		.loc 1 82 52
 859 081d D94008   		flds	8(%eax)
 860              		.loc 1 82 30
 861 0820 D9AD66FF 		fldcw	-154(%ebp)
 861      FFFF
 862 0826 DB9D60FF 		fistpl	-160(%ebp)
 862      FFFF
 863 082c D96DA6   		fldcw	-90(%ebp)
 864 082f 8B9560FF 		movl	-160(%ebp), %edx
 864      FFFF
 865              		.loc 1 82 28
 866 0835 8B4510   		movl	16(%ebp), %eax
 867 0838 895028   		movl	%edx, 40(%eax)
  83:src/pdf417/PDFReader.c **** 			results->_rawBytes = decoderResult._rawBytes;
 868              		.loc 1 83 38
 869 083b 8B55AC   		movl	-84(%ebp), %edx
 870              		.loc 1 83 23
 871 083e 8B4510   		movl	16(%ebp), %eax
 872 0841 89502C   		movl	%edx, 44(%eax)
  84:src/pdf417/PDFReader.c **** 			results->_numBits = decoderResult._numBits;
 873              		.loc 1 84 37
 874 0844 8B55B0   		movl	-80(%ebp), %edx
 875              		.loc 1 84 22
 876 0847 8B4510   		movl	16(%ebp), %eax
 877 084a 895030   		movl	%edx, 48(%eax)
  85:src/pdf417/PDFReader.c **** 			results->_ecLevel = decoderResult._ecLevel;
GAS LISTING C:\Users\jisu8\AppData\Local\Temp\ccAhT7z4.s 			page 20


 878              		.loc 1 85 37
 879 084d 8B55B8   		movl	-72(%ebp), %edx
 880              		.loc 1 85 22
 881 0850 8B4510   		movl	16(%ebp), %eax
 882 0853 895034   		movl	%edx, 52(%eax)
  86:src/pdf417/PDFReader.c **** 			//results->_metadata = decoderResult.;
  87:src/pdf417/PDFReader.c **** 			results->_sai = decoderResult._structuredAppend;
 883              		.loc 1 87 18
 884 0856 8B4510   		movl	16(%ebp), %eax
 885 0859 8B55C4   		movl	-60(%ebp), %edx
 886 085c 89503C   		movl	%edx, 60(%eax)
 887 085f 8B55C8   		movl	-56(%ebp), %edx
 888 0862 895040   		movl	%edx, 64(%eax)
 889 0865 8B55CC   		movl	-52(%ebp), %edx
 890 0868 895044   		movl	%edx, 68(%eax)
  88:src/pdf417/PDFReader.c **** 			results->_readerInit = decoderResult._readerInit;
 891              		.loc 1 88 40
 892 086b 0FB655D0 		movzbl	-48(%ebp), %edx
 893              		.loc 1 88 25
 894 086f 8B4510   		movl	16(%ebp), %eax
 895 0872 885048   		movb	%dl, 72(%eax)
  89:src/pdf417/PDFReader.c **** 
  90:src/pdf417/PDFReader.c **** 			if (!multiple) 
 896              		.loc 1 90 7
 897 0875 807DA400 		cmpb	$0, -92(%ebp)
 898 0879 7512     		jne	L37
  91:src/pdf417/PDFReader.c **** 			{
  92:src/pdf417/PDFReader.c **** 				return NoError;
 899              		.loc 1 92 12
 900 087b B8000000 		movl	$0, %eax
 900      00
 901 0880 EB18     		jmp	L38
 902              	L36:
  93:src/pdf417/PDFReader.c **** 			}
  94:src/pdf417/PDFReader.c **** 		}
  95:src/pdf417/PDFReader.c **** 		else if (!multiple) 
 903              		.loc 1 95 11
 904 0882 807DA400 		cmpb	$0, -92(%ebp)
 905 0886 7505     		jne	L37
  96:src/pdf417/PDFReader.c **** 		{
  97:src/pdf417/PDFReader.c **** 			return decoderResult.status;
 906              		.loc 1 97 24
 907 0888 8B45A8   		movl	-88(%ebp), %eax
 908 088b EB0D     		jmp	L38
 909              	L37:
  98:src/pdf417/PDFReader.c **** 		}
  99:src/pdf417/PDFReader.c **** 
 100:src/pdf417/PDFReader.c **** 	//}
 101:src/pdf417/PDFReader.c **** 
 102:src/pdf417/PDFReader.c **** 	return results->_status ? NotFound : NoError;
 910              		.loc 1 102 16
 911 088d 8B4510   		movl	16(%ebp), %eax
 912 0890 8B00     		movl	(%eax), %eax
 913              		.loc 1 102 37
 914 0892 85C0     		testl	%eax, %eax
 915 0894 0F95C0   		setne	%al
 916 0897 0FB6C0   		movzbl	%al, %eax
GAS LISTING C:\Users\jisu8\AppData\Local\Temp\ccAhT7z4.s 			page 21


 917              	L38:
 103:src/pdf417/PDFReader.c **** 
 104:src/pdf417/PDFReader.c **** }
 918              		.loc 1 104 1 discriminator 1
 919 089a 81C4FC00 		addl	$252, %esp
 919      0000
 920 08a0 5B       		popl	%ebx
 921              		.cfi_restore 3
 922 08a1 5E       		popl	%esi
 923              		.cfi_restore 6
 924 08a2 5F       		popl	%edi
 925              		.cfi_restore 7
 926 08a3 5D       		popl	%ebp
 927              	LCFI14:
 928              		.cfi_restore 5
 929              		.cfi_def_cfa 4, 4
 930 08a4 C3       		ret
 931              		.cfi_endproc
 932              	LFE20:
 933              		.globl	_decode
 935              	_decode:
 936              	LFB21:
 105:src/pdf417/PDFReader.c **** 
 106:src/pdf417/PDFReader.c **** result_t decode(GenericLuminanceSource_t * image,DecodeHints_t * hints)
 107:src/pdf417/PDFReader.c **** {
 937              		.loc 1 107 1
 938              		.cfi_startproc
 939 08a5 55       		pushl	%ebp
 940              	LCFI15:
 941              		.cfi_def_cfa_offset 8
 942              		.cfi_offset 5, -8
 943 08a6 89E5     		movl	%esp, %ebp
 944              	LCFI16:
 945              		.cfi_def_cfa_register 5
 946 08a8 57       		pushl	%edi
 947 08a9 56       		pushl	%esi
 948 08aa 53       		pushl	%ebx
 949 08ab 83EC7C   		subl	$124, %esp
 950              		.cfi_offset 7, -12
 951              		.cfi_offset 6, -16
 952              		.cfi_offset 3, -20
 108:src/pdf417/PDFReader.c **** 	unsigned int isPure = hints->isPure;
 953              		.loc 1 108 29
 954 08ae 8B4510   		movl	16(%ebp), %eax
 955 08b1 0FB64002 		movzbl	2(%eax), %eax
 956              		.loc 1 108 15
 957 08b5 0FB6C0   		movzbl	%al, %eax
 958 08b8 8945E4   		movl	%eax, -28(%ebp)
 109:src/pdf417/PDFReader.c **** 	unsigned int characterSet = hints->characterSet;
 959              		.loc 1 109 35
 960 08bb 8B4510   		movl	16(%ebp), %eax
 961 08be 8B400C   		movl	12(%eax), %eax
 962              		.loc 1 109 15
 963 08c1 8945E0   		movl	%eax, -32(%ebp)
 110:src/pdf417/PDFReader.c **** 	result_t results;
 111:src/pdf417/PDFReader.c **** 	DecodeStatus_t status;
 112:src/pdf417/PDFReader.c **** 	
GAS LISTING C:\Users\jisu8\AppData\Local\Temp\ccAhT7z4.s 			page 22


 113:src/pdf417/PDFReader.c **** 	if (isPure) 
 964              		.loc 1 113 5
 965 08c4 837DE400 		cmpl	$0, -28(%ebp)
 966 08c8 7417     		je	L40
 114:src/pdf417/PDFReader.c **** 	{
 115:src/pdf417/PDFReader.c **** 		//result = DecodePure(image, characterSet);
 116:src/pdf417/PDFReader.c **** 		//if (res.status() != DecodeStatus::ChecksumError)
 117:src/pdf417/PDFReader.c **** 		return results;
 967              		.loc 1 117 10
 968 08ca 8B4508   		movl	8(%ebp), %eax
 969 08cd 89C3     		movl	%eax, %ebx
 970 08cf 8D4590   		leal	-112(%ebp), %eax
 971 08d2 BA130000 		movl	$19, %edx
 971      00
 972 08d7 89DF     		movl	%ebx, %edi
 973 08d9 89C6     		movl	%eax, %esi
 974 08db 89D1     		movl	%edx, %ecx
 975 08dd F3A5     		rep movsl
 976 08df EB56     		jmp	L39
 977              	L40:
 118:src/pdf417/PDFReader.c **** 		// This falls through and tries the non-pure code path if we have a checksum error. This approach
 119:src/pdf417/PDFReader.c **** 		// currently the best option to deal with 'aliased' input like e.g. 03-aliased.png
 120:src/pdf417/PDFReader.c **** 	}
 121:src/pdf417/PDFReader.c **** 
 122:src/pdf417/PDFReader.c **** 	status = DoDecode(image, 0, &results, characterSet);
 978              		.loc 1 122 11
 979 08e1 8B45E0   		movl	-32(%ebp), %eax
 980 08e4 8944240C 		movl	%eax, 12(%esp)
 981 08e8 8D4590   		leal	-112(%ebp), %eax
 982 08eb 89442408 		movl	%eax, 8(%esp)
 983 08ef C7442404 		movl	$0, 4(%esp)
 983      00000000 
 984 08f7 8B450C   		movl	12(%ebp), %eax
 985 08fa 890424   		movl	%eax, (%esp)
 986 08fd E851FCFF 		call	_DoDecode
 986      FF
 987 0902 8945DC   		movl	%eax, -36(%ebp)
 123:src/pdf417/PDFReader.c **** 
 124:src/pdf417/PDFReader.c **** 	if (StatusIsOK(status)) 
 988              		.loc 1 124 5
 989 0905 837DDC00 		cmpl	$0, -36(%ebp)
 990 0909 7517     		jne	L42
 125:src/pdf417/PDFReader.c **** 	{
 126:src/pdf417/PDFReader.c **** 		return results;
 991              		.loc 1 126 10
 992 090b 8B4508   		movl	8(%ebp), %eax
 993 090e 89C3     		movl	%eax, %ebx
 994 0910 8D4590   		leal	-112(%ebp), %eax
 995 0913 BA130000 		movl	$19, %edx
 995      00
 996 0918 89DF     		movl	%ebx, %edi
 997 091a 89C6     		movl	%eax, %esi
 998 091c 89D1     		movl	%edx, %ecx
 999 091e F3A5     		rep movsl
 1000 0920 EB15     		jmp	L39
 1001              	L42:
 127:src/pdf417/PDFReader.c **** 	}
GAS LISTING C:\Users\jisu8\AppData\Local\Temp\ccAhT7z4.s 			page 23


 128:src/pdf417/PDFReader.c **** 
 129:src/pdf417/PDFReader.c **** 	return results;
 1002              		.loc 1 129 9
 1003 0922 8B4508   		movl	8(%ebp), %eax
 1004 0925 89C3     		movl	%eax, %ebx
 1005 0927 8D4590   		leal	-112(%ebp), %eax
 1006 092a BA130000 		movl	$19, %edx
 1006      00
 1007 092f 89DF     		movl	%ebx, %edi
 1008 0931 89C6     		movl	%eax, %esi
 1009 0933 89D1     		movl	%edx, %ecx
 1010 0935 F3A5     		rep movsl
 1011              	L39:
 130:src/pdf417/PDFReader.c **** }
 1012              		.loc 1 130 1
 1013 0937 8B4508   		movl	8(%ebp), %eax
 1014 093a 83C47C   		addl	$124, %esp
 1015 093d 5B       		popl	%ebx
 1016              		.cfi_restore 3
 1017 093e 5E       		popl	%esi
 1018              		.cfi_restore 6
 1019 093f 5F       		popl	%edi
 1020              		.cfi_restore 7
 1021 0940 5D       		popl	%ebp
 1022              	LCFI17:
 1023              		.cfi_restore 5
 1024              		.cfi_def_cfa 4, 4
 1025 0941 C3       		ret
 1026              		.cfi_endproc
 1027              	LFE21:
 1028              	Letext0:
 1029              		.file 2 "D:/3.tools/mingw/mingw32/i686-w64-mingw32/include/crtdefs.h"
 1030              		.file 3 "D:/3.tools/mingw/mingw32/i686-w64-mingw32/include/stdint.h"
 1031              		.file 4 "D:/3.tools/mingw/mingw32/i686-w64-mingw32/include/stdio.h"
 1032              		.file 5 "src/DecodeStatus.h"
 1033              		.file 6 "src/BarcodeFormat.h"
 1034              		.file 7 "src/DecodeHints.h"
 1035              		.file 8 "src/GenericLuminanceSource.h"
 1036              		.file 9 "src/ResultPoint.h"
 1037              		.file 10 "src/StructuredAppend.h"
 1038              		.file 11 "src/Result.h"
 1039              		.file 12 "src/BitMatrix.h"
 1040              		.file 13 "src/pdf417/PDFDetector.h"
 1041              		.file 14 "src/pdf417/PDFCodewordDecoder.h"
 1042              		.file 15 "src/DecoderResult.h"
 1043              		.file 16 "src/pdf417/PDFBoundingBox.h"
 1044              		.file 17 "src/pdf417/PDFCodeword.h"
 1045              		.file 18 "src/pdf417/PDFDetectionResultColumn.h"
 1046              		.file 19 "src/pdf417/PDFScanningDecoder.h"
 1047              		.file 20 "D:/3.tools/mingw/mingw32/i686-w64-mingw32/include/stdlib.h"
 1048              		.file 21 "D:/3.tools/mingw/mingw32/i686-w64-mingw32/include/malloc.h"