GAS LISTING C:\Users\jisu8\AppData\Local\Temp\ccgeyYMk.s 			page 1


   1              		.file	"PDFReader.c"
   2              		.text
   3              	Ltext0:
   4              		.section .rdata,"dr"
   5              		.align 4
   6              	LC0:
   7 0000 20446F44 		.ascii " DoDecode: img=%d, multiple=%d, res=%d, str=%d \12\0"
   7      65636F64 
   7      653A2069 
   7      6D673D25 
   7      642C206D 
   8 0031 000000   		.text
   9              		.globl	_DoDecode
  11              	_DoDecode:
  12              	LFB13:
  13              		.file 1 "src/pdf417/PDFReader.c"
   1:src/pdf417/PDFReader.c **** 
   2:src/pdf417/PDFReader.c **** #include "PDFReader.h"
   3:src/pdf417/PDFReader.c **** #include "DecodeStatus.h"
   4:src/pdf417/PDFReader.c **** #include "DecodeHints.h"
   5:src/pdf417/PDFReader.c **** #include "PDFDetector.h"
   6:src/pdf417/PDFReader.c **** 
   7:src/pdf417/PDFReader.c **** DecodeStatus_t DoDecode(GenericLuminanceSource_t * image, unsigned char multiple, unsigned char * r
   8:src/pdf417/PDFReader.c **** {
  14              		.loc 1 8 1
  15              		.cfi_startproc
  16 0000 55       		pushl	%ebp
  17              	LCFI0:
  18              		.cfi_def_cfa_offset 8
  19              		.cfi_offset 5, -8
  20 0001 89E5     		movl	%esp, %ebp
  21              	LCFI1:
  22              		.cfi_def_cfa_register 5
  23 0003 83EC48   		subl	$72, %esp
  24 0006 8B450C   		movl	12(%ebp), %eax
  25 0009 8845E4   		movb	%al, -28(%ebp)
   9:src/pdf417/PDFReader.c **** 
  10:src/pdf417/PDFReader.c **** 	printf(" DoDecode: img=%d, multiple=%d, res=%d, str=%d \n", image, multiple, results, characterSet
  26              		.loc 1 10 2
  27 000c 0FB645E4 		movzbl	-28(%ebp), %eax
  28 0010 8B5514   		movl	20(%ebp), %edx
  29 0013 89542410 		movl	%edx, 16(%esp)
  30 0017 8B5510   		movl	16(%ebp), %edx
  31 001a 8954240C 		movl	%edx, 12(%esp)
  32 001e 89442408 		movl	%eax, 8(%esp)
  33 0022 8B4508   		movl	8(%ebp), %eax
  34 0025 89442404 		movl	%eax, 4(%esp)
  35 0029 C7042400 		movl	$LC0, (%esp)
  35      000000
  36 0030 E8000000 		call	_printf
  36      00
  11:src/pdf417/PDFReader.c **** 	Detector_Result_t * detectorResult;
  12:src/pdf417/PDFReader.c **** 	DecodeStatus_t status;
  13:src/pdf417/PDFReader.c **** 	status = Detect(image, multiple, detectorResult);
  37              		.loc 1 13 11
  38 0035 0FB645E4 		movzbl	-28(%ebp), %eax
  39 0039 8B55F4   		movl	-12(%ebp), %edx
GAS LISTING C:\Users\jisu8\AppData\Local\Temp\ccgeyYMk.s 			page 2


  40 003c 89542408 		movl	%edx, 8(%esp)
  41 0040 89442404 		movl	%eax, 4(%esp)
  42 0044 8B4508   		movl	8(%ebp), %eax
  43 0047 890424   		movl	%eax, (%esp)
  44 004a E8000000 		call	_Detect
  44      00
  45 004f 8945F0   		movl	%eax, -16(%ebp)
  14:src/pdf417/PDFReader.c **** 	if (StatusIsError(status)) 
  46              		.loc 1 14 5
  47 0052 837DF000 		cmpl	$0, -16(%ebp)
  48 0056 7405     		je	L2
  15:src/pdf417/PDFReader.c **** 	{
  16:src/pdf417/PDFReader.c **** 		return status;
  49              		.loc 1 16 10
  50 0058 8B45F0   		movl	-16(%ebp), %eax
  51 005b EB00     		jmp	L1
  52              	L2:
  53              	L1:
  17:src/pdf417/PDFReader.c **** 	}
  18:src/pdf417/PDFReader.c **** 
  19:src/pdf417/PDFReader.c **** 	ResultPoint_t * points;
  20:src/pdf417/PDFReader.c **** 	#if 0
  21:src/pdf417/PDFReader.c **** 	for (const auto& points : detectorResult.points) 
  22:src/pdf417/PDFReader.c **** 	{
  23:src/pdf417/PDFReader.c **** 		DecoderResult_t decoderResult =
  24:src/pdf417/PDFReader.c **** 			ScanningDecoder::Decode(*detectorResult.bits, points[4], points[5], points[6], points[7],
  25:src/pdf417/PDFReader.c **** 									GetMinCodewordWidth(points), GetMaxCodewordWidth(points), characterSet);
  26:src/pdf417/PDFReader.c **** 		if (decoderResult.isValid()) 
  27:src/pdf417/PDFReader.c **** 		{
  28:src/pdf417/PDFReader.c **** 			auto point = [&](int i) { return points[i].value(); };
  29:src/pdf417/PDFReader.c **** 
  30:src/pdf417/PDFReader.c **** 			Result result(std::move(decoderResult), {point(0), point(2), point(3), point(1)}, BarcodeFormat:
  31:src/pdf417/PDFReader.c **** 			results.push_back(result);
  32:src/pdf417/PDFReader.c **** 
  33:src/pdf417/PDFReader.c **** 			if (!multiple) 
  34:src/pdf417/PDFReader.c **** 			{
  35:src/pdf417/PDFReader.c **** 				return DecodeStatus::NoError;
  36:src/pdf417/PDFReader.c **** 			}
  37:src/pdf417/PDFReader.c **** 		}
  38:src/pdf417/PDFReader.c **** 		else
  39:src/pdf417/PDFReader.c **** 		if (!multiple) 
  40:src/pdf417/PDFReader.c **** 		{
  41:src/pdf417/PDFReader.c **** 			return decoderResult.errorCode();
  42:src/pdf417/PDFReader.c **** 		}
  43:src/pdf417/PDFReader.c **** 	}
  44:src/pdf417/PDFReader.c **** 
  45:src/pdf417/PDFReader.c **** 	return results.empty() ? DecodeStatus::NotFound : DecodeStatus::NoError;
  46:src/pdf417/PDFReader.c **** 	#endif
  47:src/pdf417/PDFReader.c **** }
  54              		.loc 1 47 1
  55 005d C9       		leave
  56              	LCFI2:
  57              		.cfi_restore 5
  58              		.cfi_def_cfa 4, 4
  59 005e C3       		ret
  60              		.cfi_endproc
  61              	LFE13:
GAS LISTING C:\Users\jisu8\AppData\Local\Temp\ccgeyYMk.s 			page 3


  62              		.globl	_decode
  64              	_decode:
  65              	LFB14:
  48:src/pdf417/PDFReader.c **** 
  49:src/pdf417/PDFReader.c **** unsigned char * decode(GenericLuminanceSource_t * image,DecodeHints_t * hints)
  50:src/pdf417/PDFReader.c **** {
  66              		.loc 1 50 1
  67              		.cfi_startproc
  68 005f 55       		pushl	%ebp
  69              	LCFI3:
  70              		.cfi_def_cfa_offset 8
  71              		.cfi_offset 5, -8
  72 0060 89E5     		movl	%esp, %ebp
  73              	LCFI4:
  74              		.cfi_def_cfa_register 5
  75 0062 83EC28   		subl	$40, %esp
  51:src/pdf417/PDFReader.c **** 	unsigned int isPure = hints->isPure;
  76              		.loc 1 51 29
  77 0065 8B450C   		movl	12(%ebp), %eax
  78 0068 0FB64002 		movzbl	2(%eax), %eax
  79              		.loc 1 51 15
  80 006c 0FB6C0   		movzbl	%al, %eax
  81 006f 8945F4   		movl	%eax, -12(%ebp)
  52:src/pdf417/PDFReader.c **** 	unsigned int characterSet = hints->characterSet;
  82              		.loc 1 52 35
  83 0072 8B450C   		movl	12(%ebp), %eax
  84 0075 8B400C   		movl	12(%eax), %eax
  85              		.loc 1 52 15
  86 0078 8945F0   		movl	%eax, -16(%ebp)
  53:src/pdf417/PDFReader.c **** 	unsigned char result = 0;
  87              		.loc 1 53 16
  88 007b C645EF00 		movb	$0, -17(%ebp)
  54:src/pdf417/PDFReader.c **** 	unsigned char results = 0;
  89              		.loc 1 54 16
  90 007f C645EE00 		movb	$0, -18(%ebp)
  55:src/pdf417/PDFReader.c **** 	DecodeStatus_t status;
  56:src/pdf417/PDFReader.c **** 	
  57:src/pdf417/PDFReader.c **** 	if (isPure) 
  91              		.loc 1 57 5
  92 0083 837DF400 		cmpl	$0, -12(%ebp)
  93 0087 7406     		je	L5
  58:src/pdf417/PDFReader.c **** 	{
  59:src/pdf417/PDFReader.c **** 		//result = DecodePure(image, characterSet);
  60:src/pdf417/PDFReader.c **** 		//if (res.status() != DecodeStatus::ChecksumError)
  61:src/pdf417/PDFReader.c **** 		return result;
  94              		.loc 1 61 10
  95 0089 0FB645EF 		movzbl	-17(%ebp), %eax
  96 008d EB35     		jmp	L6
  97              	L5:
  62:src/pdf417/PDFReader.c **** 		// This falls through and tries the non-pure code path if we have a checksum error. This approach
  63:src/pdf417/PDFReader.c **** 		// currently the best option to deal with 'aliased' input like e.g. 03-aliased.png
  64:src/pdf417/PDFReader.c **** 	}
  65:src/pdf417/PDFReader.c **** 
  66:src/pdf417/PDFReader.c **** 	status = DoDecode(image, 0, results, characterSet);
  98              		.loc 1 66 11
  99 008f 8B45F0   		movl	-16(%ebp), %eax
 100 0092 0FB655EE 		movzbl	-18(%ebp), %edx
GAS LISTING C:\Users\jisu8\AppData\Local\Temp\ccgeyYMk.s 			page 4


 101 0096 8944240C 		movl	%eax, 12(%esp)
 102 009a 89542408 		movl	%edx, 8(%esp)
 103 009e C7442404 		movl	$0, 4(%esp)
 103      00000000 
 104 00a6 8B4508   		movl	8(%ebp), %eax
 105 00a9 890424   		movl	%eax, (%esp)
 106 00ac E84FFFFF 		call	_DoDecode
 106      FF
 107 00b1 8945E8   		movl	%eax, -24(%ebp)
  67:src/pdf417/PDFReader.c **** 
  68:src/pdf417/PDFReader.c **** 	if (StatusIsOK(status)) 
 108              		.loc 1 68 5
 109 00b4 837DE800 		cmpl	$0, -24(%ebp)
 110 00b8 7506     		jne	L7
  69:src/pdf417/PDFReader.c **** 	{
  70:src/pdf417/PDFReader.c **** 		return result;
 111              		.loc 1 70 10
 112 00ba 0FB645EF 		movzbl	-17(%ebp), %eax
 113 00be EB04     		jmp	L6
 114              	L7:
  71:src/pdf417/PDFReader.c **** 	}
  72:src/pdf417/PDFReader.c **** 	return result;
 115              		.loc 1 72 9
 116 00c0 0FB645EF 		movzbl	-17(%ebp), %eax
 117              	L6:
  73:src/pdf417/PDFReader.c **** }
 118              		.loc 1 73 1
 119 00c4 C9       		leave
 120              	LCFI5:
 121              		.cfi_restore 5
 122              		.cfi_def_cfa 4, 4
 123 00c5 C3       		ret
 124              		.cfi_endproc
 125              	LFE14:
 126              	Letext0:
 127              		.file 2 "D:/3.tools/mingw/mingw32/i686-w64-mingw32/include/stdint.h"
 128              		.file 3 "D:/3.tools/mingw/mingw32/i686-w64-mingw32/include/stdio.h"
 129              		.file 4 "src/BarcodeFormat.h"
 130              		.file 5 "src/DecodeHints.h"
 131              		.file 6 "src/GenericLuminanceSource.h"
 132              		.file 7 "src/DecodeStatus.h"
 133              		.file 8 "src/BitMatrix.h"
 134              		.file 9 "src/ResultPoint.h"
 135              		.file 10 "src/pdf417/PDFDetector.h"
 136 00c6 9090     		.section	.debug_info,"dr"
 137              	Ldebug_info0:
 138 0000 EF070000 		.long	0x7ef
 139 0004 0200     		.word	0x2
 140 0006 00000000 		.secrel32	Ldebug_abbrev0
 141 000a 04       		.byte	0x4
 142 000b 01       		.uleb128 0x1
 143 000c 474E5520 		.ascii "GNU C17 8.1.0 -mtune=generic -march=i686 -g -gdwarf-2 -O0\0"
 143      43313720 
 143      382E312E 
 143      30202D6D 
 143      74756E65 
 144 0046 0C       		.byte	0xc
GAS LISTING C:\Users\jisu8\AppData\Local\Temp\ccgeyYMk.s 			page 5


 145 0047 7372632F 		.ascii "src/pdf417/PDFReader.c\0"
 145      70646634 
 145      31372F50 
 145      44465265 
 145      61646572 
 146 005e 443A5C31 		.ascii "D:\\1.Project_workspace\\PDF_BARCODE\0"
 146      2E50726F 
 146      6A656374 
 146      5F776F72 
 146      6B737061 
 147 0081 00000000 		.long	Ltext0
 148 0085 C6000000 		.long	Letext0
 149 0089 00000000 		.secrel32	Ldebug_line0
 150 008d 02       		.uleb128 0x2
 151 008e 01       		.byte	0x1
 152 008f 06       		.byte	0x6
 153 0090 63686172 		.ascii "char\0"
 153      00
 154 0095 02       		.uleb128 0x2
 155 0096 04       		.byte	0x4
 156 0097 07       		.byte	0x7
 157 0098 756E7369 		.ascii "unsigned int\0"
 157      676E6564 
 157      20696E74 
 157      00
 158 00a5 02       		.uleb128 0x2
 159 00a6 04       		.byte	0x4
 160 00a7 05       		.byte	0x5
 161 00a8 696E7400 		.ascii "int\0"
 162 00ac 02       		.uleb128 0x2
 163 00ad 02       		.byte	0x2
 164 00ae 07       		.byte	0x7
 165 00af 73686F72 		.ascii "short unsigned int\0"
 165      7420756E 
 165      7369676E 
 165      65642069 
 165      6E7400
 166 00c2 02       		.uleb128 0x2
 167 00c3 04       		.byte	0x4
 168 00c4 05       		.byte	0x5
 169 00c5 6C6F6E67 		.ascii "long int\0"
 169      20696E74 
 169      00
 170 00ce 02       		.uleb128 0x2
 171 00cf 08       		.byte	0x8
 172 00d0 05       		.byte	0x5
 173 00d1 6C6F6E67 		.ascii "long long int\0"
 173      206C6F6E 
 173      6720696E 
 173      7400
 174 00df 03       		.uleb128 0x3
 175 00e0 04       		.byte	0x4
 176 00e1 8D000000 		.long	0x8d
 177 00e5 02       		.uleb128 0x2
 178 00e6 04       		.byte	0x4
 179 00e7 07       		.byte	0x7
 180 00e8 6C6F6E67 		.ascii "long unsigned int\0"
GAS LISTING C:\Users\jisu8\AppData\Local\Temp\ccgeyYMk.s 			page 6


 180      20756E73 
 180      69676E65 
 180      6420696E 
 180      7400
 181 00fa 02       		.uleb128 0x2
 182 00fb 01       		.byte	0x1
 183 00fc 08       		.byte	0x8
 184 00fd 756E7369 		.ascii "unsigned char\0"
 184      676E6564 
 184      20636861 
 184      7200
 185 010b 02       		.uleb128 0x2
 186 010c 0C       		.byte	0xc
 187 010d 04       		.byte	0x4
 188 010e 6C6F6E67 		.ascii "long double\0"
 188      20646F75 
 188      626C6500 
 189 011a 02       		.uleb128 0x2
 190 011b 10       		.byte	0x10
 191 011c 04       		.byte	0x4
 192 011d 5F466C6F 		.ascii "_Float128\0"
 192      61743132 
 192      3800
 193 0127 02       		.uleb128 0x2
 194 0128 01       		.byte	0x1
 195 0129 06       		.byte	0x6
 196 012a 7369676E 		.ascii "signed char\0"
 196      65642063 
 196      68617200 
 197 0136 04       		.uleb128 0x4
 198 0137 75696E74 		.ascii "uint8_t\0"
 198      385F7400 
 199 013f 02       		.byte	0x2
 200 0140 24       		.byte	0x24
 201 0141 19       		.byte	0x19
 202 0142 FA000000 		.long	0xfa
 203 0146 02       		.uleb128 0x2
 204 0147 02       		.byte	0x2
 205 0148 05       		.byte	0x5
 206 0149 73686F72 		.ascii "short int\0"
 206      7420696E 
 206      7400
 207 0153 04       		.uleb128 0x4
 208 0154 75696E74 		.ascii "uint64_t\0"
 208      36345F74 
 208      00
 209 015d 02       		.byte	0x2
 210 015e 2A       		.byte	0x2a
 211 015f 30       		.byte	0x30
 212 0160 64010000 		.long	0x164
 213 0164 02       		.uleb128 0x2
 214 0165 08       		.byte	0x8
 215 0166 07       		.byte	0x7
 216 0167 6C6F6E67 		.ascii "long long unsigned int\0"
 216      206C6F6E 
 216      6720756E 
 216      7369676E 
GAS LISTING C:\Users\jisu8\AppData\Local\Temp\ccgeyYMk.s 			page 7


 216      65642069 
 217 017e 05       		.uleb128 0x5
 218 017f 5F696F62 		.ascii "_iobuf\0"
 218      756600
 219 0186 20       		.byte	0x20
 220 0187 03       		.byte	0x3
 221 0188 1A       		.byte	0x1a
 222 0189 0A       		.byte	0xa
 223 018a 1E020000 		.long	0x21e
 224 018e 06       		.uleb128 0x6
 225 018f 5F707472 		.ascii "_ptr\0"
 225      00
 226 0194 03       		.byte	0x3
 227 0195 1B       		.byte	0x1b
 228 0196 0B       		.byte	0xb
 229 0197 DF000000 		.long	0xdf
 230 019b 02       		.byte	0x2
 231 019c 23       		.byte	0x23
 232 019d 00       		.uleb128 0
 233 019e 06       		.uleb128 0x6
 234 019f 5F636E74 		.ascii "_cnt\0"
 234      00
 235 01a4 03       		.byte	0x3
 236 01a5 1C       		.byte	0x1c
 237 01a6 09       		.byte	0x9
 238 01a7 A5000000 		.long	0xa5
 239 01ab 02       		.byte	0x2
 240 01ac 23       		.byte	0x23
 241 01ad 04       		.uleb128 0x4
 242 01ae 06       		.uleb128 0x6
 243 01af 5F626173 		.ascii "_base\0"
 243      6500
 244 01b5 03       		.byte	0x3
 245 01b6 1D       		.byte	0x1d
 246 01b7 0B       		.byte	0xb
 247 01b8 DF000000 		.long	0xdf
 248 01bc 02       		.byte	0x2
 249 01bd 23       		.byte	0x23
 250 01be 08       		.uleb128 0x8
 251 01bf 06       		.uleb128 0x6
 252 01c0 5F666C61 		.ascii "_flag\0"
 252      6700
 253 01c6 03       		.byte	0x3
 254 01c7 1E       		.byte	0x1e
 255 01c8 09       		.byte	0x9
 256 01c9 A5000000 		.long	0xa5
 257 01cd 02       		.byte	0x2
 258 01ce 23       		.byte	0x23
 259 01cf 0C       		.uleb128 0xc
 260 01d0 06       		.uleb128 0x6
 261 01d1 5F66696C 		.ascii "_file\0"
 261      6500
 262 01d7 03       		.byte	0x3
 263 01d8 1F       		.byte	0x1f
 264 01d9 09       		.byte	0x9
 265 01da A5000000 		.long	0xa5
 266 01de 02       		.byte	0x2
GAS LISTING C:\Users\jisu8\AppData\Local\Temp\ccgeyYMk.s 			page 8


 267 01df 23       		.byte	0x23
 268 01e0 10       		.uleb128 0x10
 269 01e1 06       		.uleb128 0x6
 270 01e2 5F636861 		.ascii "_charbuf\0"
 270      72627566 
 270      00
 271 01eb 03       		.byte	0x3
 272 01ec 20       		.byte	0x20
 273 01ed 09       		.byte	0x9
 274 01ee A5000000 		.long	0xa5
 275 01f2 02       		.byte	0x2
 276 01f3 23       		.byte	0x23
 277 01f4 14       		.uleb128 0x14
 278 01f5 06       		.uleb128 0x6
 279 01f6 5F627566 		.ascii "_bufsiz\0"
 279      73697A00 
 280 01fe 03       		.byte	0x3
 281 01ff 21       		.byte	0x21
 282 0200 09       		.byte	0x9
 283 0201 A5000000 		.long	0xa5
 284 0205 02       		.byte	0x2
 285 0206 23       		.byte	0x23
 286 0207 18       		.uleb128 0x18
 287 0208 06       		.uleb128 0x6
 288 0209 5F746D70 		.ascii "_tmpfname\0"
 288      666E616D 
 288      6500
 289 0213 03       		.byte	0x3
 290 0214 22       		.byte	0x22
 291 0215 0B       		.byte	0xb
 292 0216 DF000000 		.long	0xdf
 293 021a 02       		.byte	0x2
 294 021b 23       		.byte	0x23
 295 021c 1C       		.uleb128 0x1c
 296 021d 00       		.byte	0
 297 021e 04       		.uleb128 0x4
 298 021f 46494C45 		.ascii "FILE\0"
 298      00
 299 0224 03       		.byte	0x3
 300 0225 24       		.byte	0x24
 301 0226 19       		.byte	0x19
 302 0227 7E010000 		.long	0x17e
 303 022b 07       		.uleb128 0x7
 304 022c 1E020000 		.long	0x21e
 305 0230 36020000 		.long	0x236
 306 0234 08       		.uleb128 0x8
 307 0235 00       		.byte	0
 308 0236 09       		.uleb128 0x9
 309 0237 5F696D70 		.ascii "_imp___iob\0"
 309      5F5F5F69 
 309      6F6200
 310 0242 03       		.byte	0x3
 311 0243 5C       		.byte	0x5c
 312 0244 10       		.byte	0x10
 313 0245 4B020000 		.long	0x24b
 314 0249 01       		.byte	0x1
 315 024a 01       		.byte	0x1
GAS LISTING C:\Users\jisu8\AppData\Local\Temp\ccgeyYMk.s 			page 9


 316 024b 03       		.uleb128 0x3
 317 024c 04       		.byte	0x4
 318 024d 2B020000 		.long	0x22b
 319 0251 0A       		.uleb128 0xa
 320 0252 07       		.byte	0x7
 321 0253 04       		.byte	0x4
 322 0254 95000000 		.long	0x95
 323 0258 04       		.byte	0x4
 324 0259 04       		.byte	0x4
 325 025a 01       		.byte	0x1
 326 025b 27030000 		.long	0x327
 327 025f 0B       		.uleb128 0xb
 328 0260 4E4F4E45 		.ascii "NONE\0"
 328      00
 329 0265 00       		.byte	0
 330 0266 0B       		.uleb128 0xb
 331 0267 417A7465 		.ascii "Aztec\0"
 331      6300
 332 026d 01       		.byte	0x1
 333 026e 0B       		.uleb128 0xb
 334 026f 436F6461 		.ascii "Codabar\0"
 334      62617200 
 335 0277 02       		.byte	0x2
 336 0278 0B       		.uleb128 0xb
 337 0279 436F6465 		.ascii "Code39\0"
 337      333900
 338 0280 04       		.byte	0x4
 339 0281 0B       		.uleb128 0xb
 340 0282 436F6465 		.ascii "Code93\0"
 340      393300
 341 0289 08       		.byte	0x8
 342 028a 0B       		.uleb128 0xb
 343 028b 436F6465 		.ascii "Code128\0"
 343      31323800 
 344 0293 10       		.byte	0x10
 345 0294 0B       		.uleb128 0xb
 346 0295 44617461 		.ascii "DataBar\0"
 346      42617200 
 347 029d 20       		.byte	0x20
 348 029e 0B       		.uleb128 0xb
 349 029f 44617461 		.ascii "DataBarExpanded\0"
 349      42617245 
 349      7870616E 
 349      64656400 
 350 02af 40       		.byte	0x40
 351 02b0 0B       		.uleb128 0xb
 352 02b1 44617461 		.ascii "DataMatrix\0"
 352      4D617472 
 352      697800
 353 02bc 80       		.byte	0x80
 354 02bd 0C       		.uleb128 0xc
 355 02be 45414E38 		.ascii "EAN8\0"
 355      00
 356 02c3 0001     		.word	0x100
 357 02c5 0C       		.uleb128 0xc
 358 02c6 45414E31 		.ascii "EAN13\0"
 358      3300
GAS LISTING C:\Users\jisu8\AppData\Local\Temp\ccgeyYMk.s 			page 10


 359 02cc 0002     		.word	0x200
 360 02ce 0C       		.uleb128 0xc
 361 02cf 49544600 		.ascii "ITF\0"
 362 02d3 0004     		.word	0x400
 363 02d5 0C       		.uleb128 0xc
 364 02d6 4D617869 		.ascii "MaxiCode\0"
 364      436F6465 
 364      00
 365 02df 0008     		.word	0x800
 366 02e1 0C       		.uleb128 0xc
 367 02e2 50444634 		.ascii "PDF417\0"
 367      313700
 368 02e9 0010     		.word	0x1000
 369 02eb 0C       		.uleb128 0xc
 370 02ec 5152436F 		.ascii "QRCode\0"
 370      646500
 371 02f3 0020     		.word	0x2000
 372 02f5 0C       		.uleb128 0xc
 373 02f6 55504341 		.ascii "UPCA\0"
 373      00
 374 02fb 0040     		.word	0x4000
 375 02fd 0C       		.uleb128 0xc
 376 02fe 55504345 		.ascii "UPCE\0"
 376      00
 377 0303 0080     		.word	0x8000
 378 0305 0C       		.uleb128 0xc
 379 0306 4F6E6544 		.ascii "OneDCodes\0"
 379      436F6465 
 379      7300
 380 0310 7EC7     		.word	0xc77e
 381 0312 0C       		.uleb128 0xc
 382 0313 54776F44 		.ascii "TwoDCodes\0"
 382      436F6465 
 382      7300
 383 031d 8138     		.word	0x3881
 384 031f 0C       		.uleb128 0xc
 385 0320 416E7900 		.ascii "Any\0"
 386 0324 FFFF     		.word	0xffff
 387 0326 00       		.byte	0
 388 0327 04       		.uleb128 0x4
 389 0328 42617263 		.ascii "BarcodeFormats_t\0"
 389      6F646546 
 389      6F726D61 
 389      74735F74 
 389      00
 390 0339 04       		.byte	0x4
 391 033a 1D       		.byte	0x1d
 392 033b 02       		.byte	0x2
 393 033c 51020000 		.long	0x251
 394 0340 0A       		.uleb128 0xa
 395 0341 07       		.byte	0x7
 396 0342 04       		.byte	0x4
 397 0343 95000000 		.long	0x95
 398 0347 05       		.byte	0x5
 399 0348 08       		.byte	0x8
 400 0349 01       		.byte	0x1
 401 034a 70030000 		.long	0x370
GAS LISTING C:\Users\jisu8\AppData\Local\Temp\ccgeyYMk.s 			page 11


 402 034e 0B       		.uleb128 0xb
 403 034f 4C6F6361 		.ascii "LocalAverage\0"
 403      6C417665 
 403      72616765 
 403      00
 404 035c 00       		.byte	0
 405 035d 0B       		.uleb128 0xb
 406 035e 476C6F62 		.ascii "GlobalHistogram\0"
 406      616C4869 
 406      73746F67 
 406      72616D00 
 407 036e 01       		.byte	0x1
 408 036f 00       		.byte	0
 409 0370 04       		.uleb128 0x4
 410 0371 42696E61 		.ascii "Binarizer_t\0"
 410      72697A65 
 410      725F7400 
 411 037d 05       		.byte	0x5
 412 037e 0B       		.byte	0xb
 413 037f 02       		.byte	0x2
 414 0380 40030000 		.long	0x340
 415 0384 05       		.uleb128 0x5
 416 0385 4465636F 		.ascii "DecodeHints\0"
 416      64654869 
 416      6E747300 
 417 0391 14       		.byte	0x14
 418 0392 05       		.byte	0x5
 419 0393 0D       		.byte	0xd
 420 0394 10       		.byte	0x10
 421 0395 48040000 		.long	0x448
 422 0399 06       		.uleb128 0x6
 423 039a 74727948 		.ascii "tryHarder\0"
 423      61726465 
 423      7200
 424 03a4 05       		.byte	0x5
 425 03a5 0F       		.byte	0xf
 426 03a6 0A       		.byte	0xa
 427 03a7 36010000 		.long	0x136
 428 03ab 02       		.byte	0x2
 429 03ac 23       		.byte	0x23
 430 03ad 00       		.uleb128 0
 431 03ae 06       		.uleb128 0x6
 432 03af 74727952 		.ascii "tryRotate\0"
 432      6F746174 
 432      6500
 433 03b9 05       		.byte	0x5
 434 03ba 10       		.byte	0x10
 435 03bb 0A       		.byte	0xa
 436 03bc 36010000 		.long	0x136
 437 03c0 02       		.byte	0x2
 438 03c1 23       		.byte	0x23
 439 03c2 01       		.uleb128 0x1
 440 03c3 06       		.uleb128 0x6
 441 03c4 69735075 		.ascii "isPure\0"
 441      726500
 442 03cb 05       		.byte	0x5
 443 03cc 11       		.byte	0x11
GAS LISTING C:\Users\jisu8\AppData\Local\Temp\ccgeyYMk.s 			page 12


 444 03cd 0A       		.byte	0xa
 445 03ce 36010000 		.long	0x136
 446 03d2 02       		.byte	0x2
 447 03d3 23       		.byte	0x23
 448 03d4 02       		.uleb128 0x2
 449 03d5 06       		.uleb128 0x6
 450 03d6 72657475 		.ascii "returnCodabarStartEnd\0"
 450      726E436F 
 450      64616261 
 450      72537461 
 450      7274456E 
 451 03ec 05       		.byte	0x5
 452 03ed 12       		.byte	0x12
 453 03ee 0A       		.byte	0xa
 454 03ef 36010000 		.long	0x136
 455 03f3 02       		.byte	0x2
 456 03f4 23       		.byte	0x23
 457 03f5 03       		.uleb128 0x3
 458 03f6 06       		.uleb128 0x6
 459 03f7 42696E61 		.ascii "Binarizer\0"
 459      72697A65 
 459      7200
 460 0401 05       		.byte	0x5
 461 0402 13       		.byte	0x13
 462 0403 0E       		.byte	0xe
 463 0404 70030000 		.long	0x370
 464 0408 02       		.byte	0x2
 465 0409 23       		.byte	0x23
 466 040a 04       		.uleb128 0x4
 467 040b 06       		.uleb128 0x6
 468 040c 666F726D 		.ascii "formats\0"
 468      61747300 
 469 0414 05       		.byte	0x5
 470 0415 14       		.byte	0x14
 471 0416 13       		.byte	0x13
 472 0417 27030000 		.long	0x327
 473 041b 02       		.byte	0x2
 474 041c 23       		.byte	0x23
 475 041d 08       		.uleb128 0x8
 476 041e 0D       		.uleb128 0xd
 477 041f 00000000 		.secrel32	LASF0
 478 0423 05       		.byte	0x5
 479 0424 15       		.byte	0x15
 480 0425 0D       		.byte	0xd
 481 0426 48040000 		.long	0x448
 482 042a 02       		.byte	0x2
 483 042b 23       		.byte	0x23
 484 042c 0C       		.uleb128 0xc
 485 042d 06       		.uleb128 0x6
 486 042e 616C6C6F 		.ascii "allowedLengths\0"
 486      7765644C 
 486      656E6774 
 486      687300
 487 043d 05       		.byte	0x5
 488 043e 16       		.byte	0x16
 489 043f 0D       		.byte	0xd
 490 0440 48040000 		.long	0x448
GAS LISTING C:\Users\jisu8\AppData\Local\Temp\ccgeyYMk.s 			page 13


 491 0444 02       		.byte	0x2
 492 0445 23       		.byte	0x23
 493 0446 10       		.uleb128 0x10
 494 0447 00       		.byte	0
 495 0448 03       		.uleb128 0x3
 496 0449 04       		.byte	0x4
 497 044a 53010000 		.long	0x153
 498 044e 04       		.uleb128 0x4
 499 044f 4465636F 		.ascii "DecodeHints_t\0"
 499      64654869 
 499      6E74735F 
 499      7400
 500 045d 05       		.byte	0x5
 501 045e 17       		.byte	0x17
 502 045f 02       		.byte	0x2
 503 0460 84030000 		.long	0x384
 504 0464 0E       		.uleb128 0xe
 505 0465 18       		.byte	0x18
 506 0466 06       		.byte	0x6
 507 0467 06       		.byte	0x6
 508 0468 09       		.byte	0x9
 509 0469 D6040000 		.long	0x4d6
 510 046d 06       		.uleb128 0x6
 511 046e 70697865 		.ascii "pixels\0"
 511      6C7300
 512 0475 06       		.byte	0x6
 513 0476 08       		.byte	0x8
 514 0477 15       		.byte	0x15
 515 0478 D6040000 		.long	0x4d6
 516 047c 02       		.byte	0x2
 517 047d 23       		.byte	0x23
 518 047e 00       		.uleb128 0
 519 047f 06       		.uleb128 0x6
 520 0480 6C656674 		.ascii "left\0"
 520      00
 521 0485 06       		.byte	0x6
 522 0486 09       		.byte	0x9
 523 0487 09       		.byte	0x9
 524 0488 A5000000 		.long	0xa5
 525 048c 02       		.byte	0x2
 526 048d 23       		.byte	0x23
 527 048e 04       		.uleb128 0x4
 528 048f 06       		.uleb128 0x6
 529 0490 746F7000 		.ascii "top\0"
 530 0494 06       		.byte	0x6
 531 0495 0A       		.byte	0xa
 532 0496 09       		.byte	0x9
 533 0497 A5000000 		.long	0xa5
 534 049b 02       		.byte	0x2
 535 049c 23       		.byte	0x23
 536 049d 08       		.uleb128 0x8
 537 049e 06       		.uleb128 0x6
 538 049f 77696474 		.ascii "width\0"
 538      6800
 539 04a5 06       		.byte	0x6
 540 04a6 0B       		.byte	0xb
 541 04a7 09       		.byte	0x9
GAS LISTING C:\Users\jisu8\AppData\Local\Temp\ccgeyYMk.s 			page 14


 542 04a8 A5000000 		.long	0xa5
 543 04ac 02       		.byte	0x2
 544 04ad 23       		.byte	0x23
 545 04ae 0C       		.uleb128 0xc
 546 04af 06       		.uleb128 0x6
 547 04b0 68656967 		.ascii "height\0"
 547      687400
 548 04b7 06       		.byte	0x6
 549 04b8 0C       		.byte	0xc
 550 04b9 09       		.byte	0x9
 551 04ba A5000000 		.long	0xa5
 552 04be 02       		.byte	0x2
 553 04bf 23       		.byte	0x23
 554 04c0 10       		.uleb128 0x10
 555 04c1 06       		.uleb128 0x6
 556 04c2 726F7742 		.ascii "rowBytes\0"
 556      79746573 
 556      00
 557 04cb 06       		.byte	0x6
 558 04cc 0D       		.byte	0xd
 559 04cd 09       		.byte	0x9
 560 04ce A5000000 		.long	0xa5
 561 04d2 02       		.byte	0x2
 562 04d3 23       		.byte	0x23
 563 04d4 14       		.uleb128 0x14
 564 04d5 00       		.byte	0
 565 04d6 03       		.uleb128 0x3
 566 04d7 04       		.byte	0x4
 567 04d8 FA000000 		.long	0xfa
 568 04dc 04       		.uleb128 0x4
 569 04dd 47656E65 		.ascii "GenericLuminanceSource_t\0"
 569      7269634C 
 569      756D696E 
 569      616E6365 
 569      536F7572 
 570 04f6 06       		.byte	0x6
 571 04f7 0E       		.byte	0xe
 572 04f8 02       		.byte	0x2
 573 04f9 64040000 		.long	0x464
 574 04fd 0A       		.uleb128 0xa
 575 04fe 07       		.byte	0x7
 576 04ff 04       		.byte	0x4
 577 0500 95000000 		.long	0x95
 578 0504 07       		.byte	0x7
 579 0505 04       		.byte	0x4
 580 0506 01       		.byte	0x1
 581 0507 3F050000 		.long	0x53f
 582 050b 0B       		.uleb128 0xb
 583 050c 4E6F4572 		.ascii "NoError\0"
 583      726F7200 
 584 0514 00       		.byte	0
 585 0515 0B       		.uleb128 0xb
 586 0516 4E6F7446 		.ascii "NotFound\0"
 586      6F756E64 
 586      00
 587 051f 01       		.byte	0x1
 588 0520 0B       		.uleb128 0xb
GAS LISTING C:\Users\jisu8\AppData\Local\Temp\ccgeyYMk.s 			page 15


 589 0521 466F726D 		.ascii "FormatError\0"
 589      61744572 
 589      726F7200 
 590 052d 02       		.byte	0x2
 591 052e 0B       		.uleb128 0xb
 592 052f 43686563 		.ascii "ChecksumError\0"
 592      6B73756D 
 592      4572726F 
 592      7200
 593 053d 03       		.byte	0x3
 594 053e 00       		.byte	0
 595 053f 04       		.uleb128 0x4
 596 0540 4465636F 		.ascii "DecodeStatus_t\0"
 596      64655374 
 596      61747573 
 596      5F7400
 597 054f 07       		.byte	0x7
 598 0550 09       		.byte	0x9
 599 0551 02       		.byte	0x2
 600 0552 FD040000 		.long	0x4fd
 601 0556 0E       		.uleb128 0xe
 602 0557 10       		.byte	0x10
 603 0558 08       		.byte	0x8
 604 0559 06       		.byte	0x6
 605 055a 09       		.byte	0x9
 606 055b A9050000 		.long	0x5a9
 607 055f 06       		.uleb128 0x6
 608 0560 5F776964 		.ascii "_width\0"
 608      746800
 609 0567 08       		.byte	0x8
 610 0568 08       		.byte	0x8
 611 0569 06       		.byte	0x6
 612 056a A5000000 		.long	0xa5
 613 056e 02       		.byte	0x2
 614 056f 23       		.byte	0x23
 615 0570 00       		.uleb128 0
 616 0571 06       		.uleb128 0x6
 617 0572 5F686569 		.ascii "_height\0"
 617      67687400 
 618 057a 08       		.byte	0x8
 619 057b 09       		.byte	0x9
 620 057c 06       		.byte	0x6
 621 057d A5000000 		.long	0xa5
 622 0581 02       		.byte	0x2
 623 0582 23       		.byte	0x23
 624 0583 04       		.uleb128 0x4
 625 0584 06       		.uleb128 0x6
 626 0585 5F726F77 		.ascii "_rowSize\0"
 626      53697A65 
 626      00
 627 058e 08       		.byte	0x8
 628 058f 0A       		.byte	0xa
 629 0590 06       		.byte	0x6
 630 0591 A5000000 		.long	0xa5
 631 0595 02       		.byte	0x2
 632 0596 23       		.byte	0x23
 633 0597 08       		.uleb128 0x8
GAS LISTING C:\Users\jisu8\AppData\Local\Temp\ccgeyYMk.s 			page 16


 634 0598 06       		.uleb128 0x6
 635 0599 62697473 		.ascii "bits\0"
 635      00
 636 059e 08       		.byte	0x8
 637 059f 0B       		.byte	0xb
 638 05a0 0C       		.byte	0xc
 639 05a1 A9050000 		.long	0x5a9
 640 05a5 02       		.byte	0x2
 641 05a6 23       		.byte	0x23
 642 05a7 0C       		.uleb128 0xc
 643 05a8 00       		.byte	0
 644 05a9 03       		.uleb128 0x3
 645 05aa 04       		.byte	0x4
 646 05ab 36010000 		.long	0x136
 647 05af 04       		.uleb128 0x4
 648 05b0 4269744D 		.ascii "BitMatrix_t\0"
 648      61747269 
 648      785F7400 
 649 05bc 08       		.byte	0x8
 650 05bd 0E       		.byte	0xe
 651 05be 02       		.byte	0x2
 652 05bf 56050000 		.long	0x556
 653 05c3 0E       		.uleb128 0xe
 654 05c4 08       		.byte	0x8
 655 05c5 09       		.byte	0x9
 656 05c6 14       		.byte	0x14
 657 05c7 09       		.byte	0x9
 658 05c8 E7050000 		.long	0x5e7
 659 05cc 06       		.uleb128 0x6
 660 05cd 7800     		.ascii "x\0"
 661 05cf 09       		.byte	0x9
 662 05d0 16       		.byte	0x16
 663 05d1 08       		.byte	0x8
 664 05d2 E7050000 		.long	0x5e7
 665 05d6 02       		.byte	0x2
 666 05d7 23       		.byte	0x23
 667 05d8 00       		.uleb128 0
 668 05d9 06       		.uleb128 0x6
 669 05da 7900     		.ascii "y\0"
 670 05dc 09       		.byte	0x9
 671 05dd 17       		.byte	0x17
 672 05de 08       		.byte	0x8
 673 05df E7050000 		.long	0x5e7
 674 05e3 02       		.byte	0x2
 675 05e4 23       		.byte	0x23
 676 05e5 04       		.uleb128 0x4
 677 05e6 00       		.byte	0
 678 05e7 02       		.uleb128 0x2
 679 05e8 04       		.byte	0x4
 680 05e9 04       		.byte	0x4
 681 05ea 666C6F61 		.ascii "float\0"
 681      7400
 682 05f0 04       		.uleb128 0x4
 683 05f1 506F696E 		.ascii "PointT_t\0"
 683      74545F74 
 683      00
 684 05fa 09       		.byte	0x9
GAS LISTING C:\Users\jisu8\AppData\Local\Temp\ccgeyYMk.s 			page 17


 685 05fb 18       		.byte	0x18
 686 05fc 02       		.byte	0x2
 687 05fd C3050000 		.long	0x5c3
 688 0601 0E       		.uleb128 0xe
 689 0602 0C       		.byte	0xc
 690 0603 09       		.byte	0x9
 691 0604 1A       		.byte	0x1a
 692 0605 09       		.byte	0x9
 693 0606 34060000 		.long	0x634
 694 060a 06       		.uleb128 0x6
 695 060b 6D5F6861 		.ascii "m_hasValue\0"
 695      7356616C 
 695      756500
 696 0616 09       		.byte	0x9
 697 0617 1C       		.byte	0x1c
 698 0618 0A       		.byte	0xa
 699 0619 36010000 		.long	0x136
 700 061d 02       		.byte	0x2
 701 061e 23       		.byte	0x23
 702 061f 00       		.uleb128 0
 703 0620 06       		.uleb128 0x6
 704 0621 6D5F7661 		.ascii "m_value\0"
 704      6C756500 
 705 0629 09       		.byte	0x9
 706 062a 1D       		.byte	0x1d
 707 062b 0B       		.byte	0xb
 708 062c F0050000 		.long	0x5f0
 709 0630 02       		.byte	0x2
 710 0631 23       		.byte	0x23
 711 0632 04       		.uleb128 0x4
 712 0633 00       		.byte	0
 713 0634 04       		.uleb128 0x4
 714 0635 52657375 		.ascii "ResultPoint_t\0"
 714      6C74506F 
 714      696E745F 
 714      7400
 715 0643 09       		.byte	0x9
 716 0644 1E       		.byte	0x1e
 717 0645 02       		.byte	0x2
 718 0646 01060000 		.long	0x601
 719 064a 0E       		.uleb128 0xe
 720 064b 08       		.byte	0x8
 721 064c 0A       		.byte	0xa
 722 064d 09       		.byte	0x9
 723 064e 09       		.byte	0x9
 724 064f 76060000 		.long	0x676
 725 0653 06       		.uleb128 0x6
 726 0654 62697473 		.ascii "bits\0"
 726      00
 727 0659 0A       		.byte	0xa
 728 065a 0B       		.byte	0xb
 729 065b 10       		.byte	0x10
 730 065c 76060000 		.long	0x676
 731 0660 02       		.byte	0x2
 732 0661 23       		.byte	0x23
 733 0662 00       		.uleb128 0
 734 0663 06       		.uleb128 0x6
GAS LISTING C:\Users\jisu8\AppData\Local\Temp\ccgeyYMk.s 			page 18


 735 0664 706F696E 		.ascii "points\0"
 735      747300
 736 066b 0A       		.byte	0xa
 737 066c 0C       		.byte	0xc
 738 066d 12       		.byte	0x12
 739 066e 7C060000 		.long	0x67c
 740 0672 02       		.byte	0x2
 741 0673 23       		.byte	0x23
 742 0674 04       		.uleb128 0x4
 743 0675 00       		.byte	0
 744 0676 03       		.uleb128 0x3
 745 0677 04       		.byte	0x4
 746 0678 AF050000 		.long	0x5af
 747 067c 03       		.uleb128 0x3
 748 067d 04       		.byte	0x4
 749 067e 34060000 		.long	0x634
 750 0682 04       		.uleb128 0x4
 751 0683 44657465 		.ascii "Detector_Result_t\0"
 751      63746F72 
 751      5F526573 
 751      756C745F 
 751      7400
 752 0695 0A       		.byte	0xa
 753 0696 0D       		.byte	0xd
 754 0697 02       		.byte	0x2
 755 0698 4A060000 		.long	0x64a
 756 069c 0F       		.uleb128 0xf
 757 069d 01       		.byte	0x1
 758 069e 6465636F 		.ascii "decode\0"
 758      646500
 759 06a5 01       		.byte	0x1
 760 06a6 31       		.byte	0x31
 761 06a7 11       		.byte	0x11
 762 06a8 01       		.byte	0x1
 763 06a9 D6040000 		.long	0x4d6
 764 06ad 5F000000 		.long	LFB14
 765 06b1 C6000000 		.long	LFE14
 766 06b5 00000000 		.secrel32	LLST1
 767 06b9 01       		.byte	0x1
 768 06ba 39070000 		.long	0x739
 769 06be 10       		.uleb128 0x10
 770 06bf 696D6167 		.ascii "image\0"
 770      6500
 771 06c5 01       		.byte	0x1
 772 06c6 31       		.byte	0x31
 773 06c7 33       		.byte	0x33
 774 06c8 39070000 		.long	0x739
 775 06cc 02       		.byte	0x2
 776 06cd 91       		.byte	0x91
 777 06ce 00       		.sleb128 0
 778 06cf 10       		.uleb128 0x10
 779 06d0 68696E74 		.ascii "hints\0"
 779      7300
 780 06d6 01       		.byte	0x1
 781 06d7 31       		.byte	0x31
 782 06d8 49       		.byte	0x49
 783 06d9 3F070000 		.long	0x73f
GAS LISTING C:\Users\jisu8\AppData\Local\Temp\ccgeyYMk.s 			page 19


 784 06dd 02       		.byte	0x2
 785 06de 91       		.byte	0x91
 786 06df 04       		.sleb128 4
 787 06e0 11       		.uleb128 0x11
 788 06e1 69735075 		.ascii "isPure\0"
 788      726500
 789 06e8 01       		.byte	0x1
 790 06e9 33       		.byte	0x33
 791 06ea 0F       		.byte	0xf
 792 06eb 95000000 		.long	0x95
 793 06ef 02       		.byte	0x2
 794 06f0 91       		.byte	0x91
 795 06f1 6C       		.sleb128 -20
 796 06f2 12       		.uleb128 0x12
 797 06f3 00000000 		.secrel32	LASF0
 798 06f7 01       		.byte	0x1
 799 06f8 34       		.byte	0x34
 800 06f9 0F       		.byte	0xf
 801 06fa 95000000 		.long	0x95
 802 06fe 02       		.byte	0x2
 803 06ff 91       		.byte	0x91
 804 0700 68       		.sleb128 -24
 805 0701 11       		.uleb128 0x11
 806 0702 72657375 		.ascii "result\0"
 806      6C7400
 807 0709 01       		.byte	0x1
 808 070a 35       		.byte	0x35
 809 070b 10       		.byte	0x10
 810 070c FA000000 		.long	0xfa
 811 0710 02       		.byte	0x2
 812 0711 91       		.byte	0x91
 813 0712 67       		.sleb128 -25
 814 0713 11       		.uleb128 0x11
 815 0714 72657375 		.ascii "results\0"
 815      6C747300 
 816 071c 01       		.byte	0x1
 817 071d 36       		.byte	0x36
 818 071e 10       		.byte	0x10
 819 071f FA000000 		.long	0xfa
 820 0723 02       		.byte	0x2
 821 0724 91       		.byte	0x91
 822 0725 66       		.sleb128 -26
 823 0726 11       		.uleb128 0x11
 824 0727 73746174 		.ascii "status\0"
 824      757300
 825 072e 01       		.byte	0x1
 826 072f 37       		.byte	0x37
 827 0730 11       		.byte	0x11
 828 0731 3F050000 		.long	0x53f
 829 0735 02       		.byte	0x2
 830 0736 91       		.byte	0x91
 831 0737 60       		.sleb128 -32
 832 0738 00       		.byte	0
 833 0739 03       		.uleb128 0x3
 834 073a 04       		.byte	0x4
 835 073b DC040000 		.long	0x4dc
 836 073f 03       		.uleb128 0x3
GAS LISTING C:\Users\jisu8\AppData\Local\Temp\ccgeyYMk.s 			page 20


 837 0740 04       		.byte	0x4
 838 0741 4E040000 		.long	0x44e
 839 0745 0F       		.uleb128 0xf
 840 0746 01       		.byte	0x1
 841 0747 446F4465 		.ascii "DoDecode\0"
 841      636F6465 
 841      00
 842 0750 01       		.byte	0x1
 843 0751 07       		.byte	0x7
 844 0752 10       		.byte	0x10
 845 0753 01       		.byte	0x1
 846 0754 3F050000 		.long	0x53f
 847 0758 00000000 		.long	LFB13
 848 075c 5F000000 		.long	LFE13
 849 0760 38000000 		.secrel32	LLST0
 850 0764 01       		.byte	0x1
 851 0765 EC070000 		.long	0x7ec
 852 0769 10       		.uleb128 0x10
 853 076a 696D6167 		.ascii "image\0"
 853      6500
 854 0770 01       		.byte	0x1
 855 0771 07       		.byte	0x7
 856 0772 34       		.byte	0x34
 857 0773 39070000 		.long	0x739
 858 0777 02       		.byte	0x2
 859 0778 91       		.byte	0x91
 860 0779 00       		.sleb128 0
 861 077a 10       		.uleb128 0x10
 862 077b 6D756C74 		.ascii "multiple\0"
 862      69706C65 
 862      00
 863 0784 01       		.byte	0x1
 864 0785 07       		.byte	0x7
 865 0786 49       		.byte	0x49
 866 0787 FA000000 		.long	0xfa
 867 078b 02       		.byte	0x2
 868 078c 91       		.byte	0x91
 869 078d 5C       		.sleb128 -36
 870 078e 10       		.uleb128 0x10
 871 078f 72657375 		.ascii "results\0"
 871      6C747300 
 872 0797 01       		.byte	0x1
 873 0798 07       		.byte	0x7
 874 0799 63       		.byte	0x63
 875 079a D6040000 		.long	0x4d6
 876 079e 02       		.byte	0x2
 877 079f 91       		.byte	0x91
 878 07a0 08       		.sleb128 8
 879 07a1 13       		.uleb128 0x13
 880 07a2 00000000 		.secrel32	LASF0
 881 07a6 01       		.byte	0x1
 882 07a7 07       		.byte	0x7
 883 07a8 7B       		.byte	0x7b
 884 07a9 D6040000 		.long	0x4d6
 885 07ad 02       		.byte	0x2
 886 07ae 91       		.byte	0x91
 887 07af 0C       		.sleb128 12
GAS LISTING C:\Users\jisu8\AppData\Local\Temp\ccgeyYMk.s 			page 21


 888 07b0 11       		.uleb128 0x11
 889 07b1 64657465 		.ascii "detectorResult\0"
 889      63746F72 
 889      52657375 
 889      6C7400
 890 07c0 01       		.byte	0x1
 891 07c1 0B       		.byte	0xb
 892 07c2 16       		.byte	0x16
 893 07c3 EC070000 		.long	0x7ec
 894 07c7 02       		.byte	0x2
 895 07c8 91       		.byte	0x91
 896 07c9 6C       		.sleb128 -20
 897 07ca 11       		.uleb128 0x11
 898 07cb 73746174 		.ascii "status\0"
 898      757300
 899 07d2 01       		.byte	0x1
 900 07d3 0C       		.byte	0xc
 901 07d4 11       		.byte	0x11
 902 07d5 3F050000 		.long	0x53f
 903 07d9 02       		.byte	0x2
 904 07da 91       		.byte	0x91
 905 07db 68       		.sleb128 -24
 906 07dc 14       		.uleb128 0x14
 907 07dd 706F696E 		.ascii "points\0"
 907      747300
 908 07e4 01       		.byte	0x1
 909 07e5 13       		.byte	0x13
 910 07e6 12       		.byte	0x12
 911 07e7 7C060000 		.long	0x67c
 912 07eb 00       		.byte	0
 913 07ec 03       		.uleb128 0x3
 914 07ed 04       		.byte	0x4
 915 07ee 82060000 		.long	0x682
 916 07f2 00       		.byte	0
 917              		.section	.debug_abbrev,"dr"
 918              	Ldebug_abbrev0:
 919 0000 01       		.uleb128 0x1
 920 0001 11       		.uleb128 0x11
 921 0002 01       		.byte	0x1
 922 0003 25       		.uleb128 0x25
 923 0004 08       		.uleb128 0x8
 924 0005 13       		.uleb128 0x13
 925 0006 0B       		.uleb128 0xb
 926 0007 03       		.uleb128 0x3
 927 0008 08       		.uleb128 0x8
 928 0009 1B       		.uleb128 0x1b
 929 000a 08       		.uleb128 0x8
 930 000b 11       		.uleb128 0x11
 931 000c 01       		.uleb128 0x1
 932 000d 12       		.uleb128 0x12
 933 000e 01       		.uleb128 0x1
 934 000f 10       		.uleb128 0x10
 935 0010 06       		.uleb128 0x6
 936 0011 00       		.byte	0
 937 0012 00       		.byte	0
 938 0013 02       		.uleb128 0x2
 939 0014 24       		.uleb128 0x24
GAS LISTING C:\Users\jisu8\AppData\Local\Temp\ccgeyYMk.s 			page 22


 940 0015 00       		.byte	0
 941 0016 0B       		.uleb128 0xb
 942 0017 0B       		.uleb128 0xb
 943 0018 3E       		.uleb128 0x3e
 944 0019 0B       		.uleb128 0xb
 945 001a 03       		.uleb128 0x3
 946 001b 08       		.uleb128 0x8
 947 001c 00       		.byte	0
 948 001d 00       		.byte	0
 949 001e 03       		.uleb128 0x3
 950 001f 0F       		.uleb128 0xf
 951 0020 00       		.byte	0
 952 0021 0B       		.uleb128 0xb
 953 0022 0B       		.uleb128 0xb
 954 0023 49       		.uleb128 0x49
 955 0024 13       		.uleb128 0x13
 956 0025 00       		.byte	0
 957 0026 00       		.byte	0
 958 0027 04       		.uleb128 0x4
 959 0028 16       		.uleb128 0x16
 960 0029 00       		.byte	0
 961 002a 03       		.uleb128 0x3
 962 002b 08       		.uleb128 0x8
 963 002c 3A       		.uleb128 0x3a
 964 002d 0B       		.uleb128 0xb
 965 002e 3B       		.uleb128 0x3b
 966 002f 0B       		.uleb128 0xb
 967 0030 39       		.uleb128 0x39
 968 0031 0B       		.uleb128 0xb
 969 0032 49       		.uleb128 0x49
 970 0033 13       		.uleb128 0x13
 971 0034 00       		.byte	0
 972 0035 00       		.byte	0
 973 0036 05       		.uleb128 0x5
 974 0037 13       		.uleb128 0x13
 975 0038 01       		.byte	0x1
 976 0039 03       		.uleb128 0x3
 977 003a 08       		.uleb128 0x8
 978 003b 0B       		.uleb128 0xb
 979 003c 0B       		.uleb128 0xb
 980 003d 3A       		.uleb128 0x3a
 981 003e 0B       		.uleb128 0xb
 982 003f 3B       		.uleb128 0x3b
 983 0040 0B       		.uleb128 0xb
 984 0041 39       		.uleb128 0x39
 985 0042 0B       		.uleb128 0xb
 986 0043 01       		.uleb128 0x1
 987 0044 13       		.uleb128 0x13
 988 0045 00       		.byte	0
 989 0046 00       		.byte	0
 990 0047 06       		.uleb128 0x6
 991 0048 0D       		.uleb128 0xd
 992 0049 00       		.byte	0
 993 004a 03       		.uleb128 0x3
 994 004b 08       		.uleb128 0x8
 995 004c 3A       		.uleb128 0x3a
 996 004d 0B       		.uleb128 0xb
GAS LISTING C:\Users\jisu8\AppData\Local\Temp\ccgeyYMk.s 			page 23


 997 004e 3B       		.uleb128 0x3b
 998 004f 0B       		.uleb128 0xb
 999 0050 39       		.uleb128 0x39
 1000 0051 0B       		.uleb128 0xb
 1001 0052 49       		.uleb128 0x49
 1002 0053 13       		.uleb128 0x13
 1003 0054 38       		.uleb128 0x38
 1004 0055 0A       		.uleb128 0xa
 1005 0056 00       		.byte	0
 1006 0057 00       		.byte	0
 1007 0058 07       		.uleb128 0x7
 1008 0059 01       		.uleb128 0x1
 1009 005a 01       		.byte	0x1
 1010 005b 49       		.uleb128 0x49
 1011 005c 13       		.uleb128 0x13
 1012 005d 01       		.uleb128 0x1
 1013 005e 13       		.uleb128 0x13
 1014 005f 00       		.byte	0
 1015 0060 00       		.byte	0
 1016 0061 08       		.uleb128 0x8
 1017 0062 21       		.uleb128 0x21
 1018 0063 00       		.byte	0
 1019 0064 00       		.byte	0
 1020 0065 00       		.byte	0
 1021 0066 09       		.uleb128 0x9
 1022 0067 34       		.uleb128 0x34
 1023 0068 00       		.byte	0
 1024 0069 03       		.uleb128 0x3
 1025 006a 08       		.uleb128 0x8
 1026 006b 3A       		.uleb128 0x3a
 1027 006c 0B       		.uleb128 0xb
 1028 006d 3B       		.uleb128 0x3b
 1029 006e 0B       		.uleb128 0xb
 1030 006f 39       		.uleb128 0x39
 1031 0070 0B       		.uleb128 0xb
 1032 0071 49       		.uleb128 0x49
 1033 0072 13       		.uleb128 0x13
 1034 0073 3F       		.uleb128 0x3f
 1035 0074 0C       		.uleb128 0xc
 1036 0075 3C       		.uleb128 0x3c
 1037 0076 0C       		.uleb128 0xc
 1038 0077 00       		.byte	0
 1039 0078 00       		.byte	0
 1040 0079 0A       		.uleb128 0xa
 1041 007a 04       		.uleb128 0x4
 1042 007b 01       		.byte	0x1
 1043 007c 3E       		.uleb128 0x3e
 1044 007d 0B       		.uleb128 0xb
 1045 007e 0B       		.uleb128 0xb
 1046 007f 0B       		.uleb128 0xb
 1047 0080 49       		.uleb128 0x49
 1048 0081 13       		.uleb128 0x13
 1049 0082 3A       		.uleb128 0x3a
 1050 0083 0B       		.uleb128 0xb
 1051 0084 3B       		.uleb128 0x3b
 1052 0085 0B       		.uleb128 0xb
 1053 0086 39       		.uleb128 0x39
GAS LISTING C:\Users\jisu8\AppData\Local\Temp\ccgeyYMk.s 			page 24


 1054 0087 0B       		.uleb128 0xb
 1055 0088 01       		.uleb128 0x1
 1056 0089 13       		.uleb128 0x13
 1057 008a 00       		.byte	0
 1058 008b 00       		.byte	0
 1059 008c 0B       		.uleb128 0xb
 1060 008d 28       		.uleb128 0x28
 1061 008e 00       		.byte	0
 1062 008f 03       		.uleb128 0x3
 1063 0090 08       		.uleb128 0x8
 1064 0091 1C       		.uleb128 0x1c
 1065 0092 0B       		.uleb128 0xb
 1066 0093 00       		.byte	0
 1067 0094 00       		.byte	0
 1068 0095 0C       		.uleb128 0xc
 1069 0096 28       		.uleb128 0x28
 1070 0097 00       		.byte	0
 1071 0098 03       		.uleb128 0x3
 1072 0099 08       		.uleb128 0x8
 1073 009a 1C       		.uleb128 0x1c
 1074 009b 05       		.uleb128 0x5
 1075 009c 00       		.byte	0
 1076 009d 00       		.byte	0
 1077 009e 0D       		.uleb128 0xd
 1078 009f 0D       		.uleb128 0xd
 1079 00a0 00       		.byte	0
 1080 00a1 03       		.uleb128 0x3
 1081 00a2 0E       		.uleb128 0xe
 1082 00a3 3A       		.uleb128 0x3a
 1083 00a4 0B       		.uleb128 0xb
 1084 00a5 3B       		.uleb128 0x3b
 1085 00a6 0B       		.uleb128 0xb
 1086 00a7 39       		.uleb128 0x39
 1087 00a8 0B       		.uleb128 0xb
 1088 00a9 49       		.uleb128 0x49
 1089 00aa 13       		.uleb128 0x13
 1090 00ab 38       		.uleb128 0x38
 1091 00ac 0A       		.uleb128 0xa
 1092 00ad 00       		.byte	0
 1093 00ae 00       		.byte	0
 1094 00af 0E       		.uleb128 0xe
 1095 00b0 13       		.uleb128 0x13
 1096 00b1 01       		.byte	0x1
 1097 00b2 0B       		.uleb128 0xb
 1098 00b3 0B       		.uleb128 0xb
 1099 00b4 3A       		.uleb128 0x3a
 1100 00b5 0B       		.uleb128 0xb
 1101 00b6 3B       		.uleb128 0x3b
 1102 00b7 0B       		.uleb128 0xb
 1103 00b8 39       		.uleb128 0x39
 1104 00b9 0B       		.uleb128 0xb
 1105 00ba 01       		.uleb128 0x1
 1106 00bb 13       		.uleb128 0x13
 1107 00bc 00       		.byte	0
 1108 00bd 00       		.byte	0
 1109 00be 0F       		.uleb128 0xf
 1110 00bf 2E       		.uleb128 0x2e
GAS LISTING C:\Users\jisu8\AppData\Local\Temp\ccgeyYMk.s 			page 25


 1111 00c0 01       		.byte	0x1
 1112 00c1 3F       		.uleb128 0x3f
 1113 00c2 0C       		.uleb128 0xc
 1114 00c3 03       		.uleb128 0x3
 1115 00c4 08       		.uleb128 0x8
 1116 00c5 3A       		.uleb128 0x3a
 1117 00c6 0B       		.uleb128 0xb
 1118 00c7 3B       		.uleb128 0x3b
 1119 00c8 0B       		.uleb128 0xb
 1120 00c9 39       		.uleb128 0x39
 1121 00ca 0B       		.uleb128 0xb
 1122 00cb 27       		.uleb128 0x27
 1123 00cc 0C       		.uleb128 0xc
 1124 00cd 49       		.uleb128 0x49
 1125 00ce 13       		.uleb128 0x13
 1126 00cf 11       		.uleb128 0x11
 1127 00d0 01       		.uleb128 0x1
 1128 00d1 12       		.uleb128 0x12
 1129 00d2 01       		.uleb128 0x1
 1130 00d3 40       		.uleb128 0x40
 1131 00d4 06       		.uleb128 0x6
 1132 00d5 9642     		.uleb128 0x2116
 1133 00d7 0C       		.uleb128 0xc
 1134 00d8 01       		.uleb128 0x1
 1135 00d9 13       		.uleb128 0x13
 1136 00da 00       		.byte	0
 1137 00db 00       		.byte	0
 1138 00dc 10       		.uleb128 0x10
 1139 00dd 05       		.uleb128 0x5
 1140 00de 00       		.byte	0
 1141 00df 03       		.uleb128 0x3
 1142 00e0 08       		.uleb128 0x8
 1143 00e1 3A       		.uleb128 0x3a
 1144 00e2 0B       		.uleb128 0xb
 1145 00e3 3B       		.uleb128 0x3b
 1146 00e4 0B       		.uleb128 0xb
 1147 00e5 39       		.uleb128 0x39
 1148 00e6 0B       		.uleb128 0xb
 1149 00e7 49       		.uleb128 0x49
 1150 00e8 13       		.uleb128 0x13
 1151 00e9 02       		.uleb128 0x2
 1152 00ea 0A       		.uleb128 0xa
 1153 00eb 00       		.byte	0
 1154 00ec 00       		.byte	0
 1155 00ed 11       		.uleb128 0x11
 1156 00ee 34       		.uleb128 0x34
 1157 00ef 00       		.byte	0
 1158 00f0 03       		.uleb128 0x3
 1159 00f1 08       		.uleb128 0x8
 1160 00f2 3A       		.uleb128 0x3a
 1161 00f3 0B       		.uleb128 0xb
 1162 00f4 3B       		.uleb128 0x3b
 1163 00f5 0B       		.uleb128 0xb
 1164 00f6 39       		.uleb128 0x39
 1165 00f7 0B       		.uleb128 0xb
 1166 00f8 49       		.uleb128 0x49
 1167 00f9 13       		.uleb128 0x13
GAS LISTING C:\Users\jisu8\AppData\Local\Temp\ccgeyYMk.s 			page 26


 1168 00fa 02       		.uleb128 0x2
 1169 00fb 0A       		.uleb128 0xa
 1170 00fc 00       		.byte	0
 1171 00fd 00       		.byte	0
 1172 00fe 12       		.uleb128 0x12
 1173 00ff 34       		.uleb128 0x34
 1174 0100 00       		.byte	0
 1175 0101 03       		.uleb128 0x3
 1176 0102 0E       		.uleb128 0xe
 1177 0103 3A       		.uleb128 0x3a
 1178 0104 0B       		.uleb128 0xb
 1179 0105 3B       		.uleb128 0x3b
 1180 0106 0B       		.uleb128 0xb
 1181 0107 39       		.uleb128 0x39
 1182 0108 0B       		.uleb128 0xb
 1183 0109 49       		.uleb128 0x49
 1184 010a 13       		.uleb128 0x13
 1185 010b 02       		.uleb128 0x2
 1186 010c 0A       		.uleb128 0xa
 1187 010d 00       		.byte	0
 1188 010e 00       		.byte	0
 1189 010f 13       		.uleb128 0x13
 1190 0110 05       		.uleb128 0x5
 1191 0111 00       		.byte	0
 1192 0112 03       		.uleb128 0x3
 1193 0113 0E       		.uleb128 0xe
 1194 0114 3A       		.uleb128 0x3a
 1195 0115 0B       		.uleb128 0xb
 1196 0116 3B       		.uleb128 0x3b
 1197 0117 0B       		.uleb128 0xb
 1198 0118 39       		.uleb128 0x39
 1199 0119 0B       		.uleb128 0xb
 1200 011a 49       		.uleb128 0x49
 1201 011b 13       		.uleb128 0x13
 1202 011c 02       		.uleb128 0x2
 1203 011d 0A       		.uleb128 0xa
 1204 011e 00       		.byte	0
 1205 011f 00       		.byte	0
 1206 0120 14       		.uleb128 0x14
 1207 0121 34       		.uleb128 0x34
 1208 0122 00       		.byte	0
 1209 0123 03       		.uleb128 0x3
 1210 0124 08       		.uleb128 0x8
 1211 0125 3A       		.uleb128 0x3a
 1212 0126 0B       		.uleb128 0xb
 1213 0127 3B       		.uleb128 0x3b
 1214 0128 0B       		.uleb128 0xb
 1215 0129 39       		.uleb128 0x39
 1216 012a 0B       		.uleb128 0xb
 1217 012b 49       		.uleb128 0x49
 1218 012c 13       		.uleb128 0x13
 1219 012d 00       		.byte	0
 1220 012e 00       		.byte	0
 1221 012f 00       		.byte	0
 1222              		.section	.debug_loc,"dr"
 1223              	Ldebug_loc0:
 1224              	LLST1:
GAS LISTING C:\Users\jisu8\AppData\Local\Temp\ccgeyYMk.s 			page 27


 1225 0000 5F000000 		.long	LFB14-Ltext0
 1226 0004 60000000 		.long	LCFI3-Ltext0
 1227 0008 0200     		.word	0x2
 1228 000a 74       		.byte	0x74
 1229 000b 04       		.sleb128 4
 1230 000c 60000000 		.long	LCFI3-Ltext0
 1231 0010 62000000 		.long	LCFI4-Ltext0
 1232 0014 0200     		.word	0x2
 1233 0016 74       		.byte	0x74
 1234 0017 08       		.sleb128 8
 1235 0018 62000000 		.long	LCFI4-Ltext0
 1236 001c C5000000 		.long	LCFI5-Ltext0
 1237 0020 0200     		.word	0x2
 1238 0022 75       		.byte	0x75
 1239 0023 08       		.sleb128 8
 1240 0024 C5000000 		.long	LCFI5-Ltext0
 1241 0028 C6000000 		.long	LFE14-Ltext0
 1242 002c 0200     		.word	0x2
 1243 002e 74       		.byte	0x74
 1244 002f 04       		.sleb128 4
 1245 0030 00000000 		.long	0
 1246 0034 00000000 		.long	0
 1247              	LLST0:
 1248 0038 00000000 		.long	LFB13-Ltext0
 1249 003c 01000000 		.long	LCFI0-Ltext0
 1250 0040 0200     		.word	0x2
 1251 0042 74       		.byte	0x74
 1252 0043 04       		.sleb128 4
 1253 0044 01000000 		.long	LCFI0-Ltext0
 1254 0048 03000000 		.long	LCFI1-Ltext0
 1255 004c 0200     		.word	0x2
 1256 004e 74       		.byte	0x74
 1257 004f 08       		.sleb128 8
 1258 0050 03000000 		.long	LCFI1-Ltext0
 1259 0054 5E000000 		.long	LCFI2-Ltext0
 1260 0058 0200     		.word	0x2
 1261 005a 75       		.byte	0x75
 1262 005b 08       		.sleb128 8
 1263 005c 5E000000 		.long	LCFI2-Ltext0
 1264 0060 5F000000 		.long	LFE13-Ltext0
 1265 0064 0200     		.word	0x2
 1266 0066 74       		.byte	0x74
 1267 0067 04       		.sleb128 4
 1268 0068 00000000 		.long	0
 1269 006c 00000000 		.long	0
 1270              		.section	.debug_aranges,"dr"
 1271 0000 1C000000 		.long	0x1c
 1272 0004 0200     		.word	0x2
 1273 0006 00000000 		.secrel32	Ldebug_info0
 1274 000a 04       		.byte	0x4
 1275 000b 00       		.byte	0
 1276 000c 0000     		.word	0
 1277 000e 0000     		.word	0
 1278 0010 00000000 		.long	Ltext0
 1279 0014 C6000000 		.long	Letext0-Ltext0
 1280 0018 00000000 		.long	0
 1281 001c 00000000 		.long	0
GAS LISTING C:\Users\jisu8\AppData\Local\Temp\ccgeyYMk.s 			page 28


 1282              		.section	.debug_line,"dr"
 1283              	Ldebug_line0:
 1284 0000 4E010000 		.section	.debug_str,"dr"
 1284      0200FD00 
 1284      00000101 
 1284      FB0E0D00 
 1284      01010101 
 1285              	LASF0:
 1286 0000 63686172 		.ascii "characterSet\0"
 1286      61637465 
 1286      72536574 
 1286      00
 1287              		.ident	"GCC: (i686-posix-dwarf-rev0, Built by MinGW-W64 project) 8.1.0"
GAS LISTING C:\Users\jisu8\AppData\Local\Temp\ccgeyYMk.s 			page 29


DEFINED SYMBOLS
                            *ABS*:00000000 PDFReader.c
C:\Users\jisu8\AppData\Local\Temp\ccgeyYMk.s:11     .text:00000000 _DoDecode
C:\Users\jisu8\AppData\Local\Temp\ccgeyYMk.s:64     .text:0000005f _decode

UNDEFINED SYMBOLS
_printf
_Detect
