GAS LISTING C:\Users\jisu8\AppData\Local\Temp\cc0IqG7f.s 			page 1


   1              		.file	"PDFScanningDecoder.c"
   2              		.text
   3              	Ltext0:
   4              		.section .rdata,"dr"
   5              		.align 4
   6              	_CODEWORD_SKEW_SIZE:
   7 0000 02000000 		.long	2
   8              		.align 4
   9              	_MAX_ERRORS:
  10 0004 03000000 		.long	3
  11              		.align 4
  12              	_MAX_EC_CODEWORDS:
  13 0008 00020000 		.long	512
  14              		.globl	_BARCODE_ROW_UNKNOWN
  15              		.align 4
  16              	_BARCODE_ROW_UNKNOWN:
  17 000c FFFFFFFF 		.long	-1
  18              		.comm	_result_bits, 32, 5
  19              		.comm	_CodeWord, 24, 2
  20              		.comm	_rowIndicatorColumn, 12084, 5
  21              		.align 4
  22              	LC0:
  23 0010 4765744D 		.ascii "GetModuleBitCount minColumn=%d, maxColumn=%d, leftToRight=%d, codewordStartColumn=%d, imag
  23      6F64756C 
  23      65426974 
  23      436F756E 
  23      74206D69 
  24              		.text
  26              	_AdjustCodewordStartColumn:
  27              	LFB4:
  28              		.file 1 "src/pdf417/PDFScanningDecoder.c"
   1:src/pdf417/PDFScanningDecoder.c **** 
   2:src/pdf417/PDFScanningDecoder.c **** #include "PDFScanningDecoder.h"
   3:src/pdf417/PDFScanningDecoder.c **** #include "PDFBoundingBox.h"
   4:src/pdf417/PDFScanningDecoder.c **** #include "PDFDetectionResultColumn.h"
   5:src/pdf417/PDFScanningDecoder.c **** #include "PDFDetectionResult.h"
   6:src/pdf417/PDFScanningDecoder.c **** #include "PDFCodewordDecoder.h"
   7:src/pdf417/PDFScanningDecoder.c **** #include "PDFBarcodeValue.h"
   8:src/pdf417/PDFScanningDecoder.c **** #include "PDFDecodedBitStreamParser.h"
   9:src/pdf417/PDFScanningDecoder.c **** #include "DecodeStatus.h"
  10:src/pdf417/PDFScanningDecoder.c **** #include "DecoderResult.h"
  11:src/pdf417/PDFScanningDecoder.c **** #include "library.h"
  12:src/pdf417/PDFScanningDecoder.c **** #include <stdlib.h>
  13:src/pdf417/PDFScanningDecoder.c **** 
  14:src/pdf417/PDFScanningDecoder.c **** static const int CODEWORD_SKEW_SIZE = 2;
  15:src/pdf417/PDFScanningDecoder.c **** static const int MAX_ERRORS = 3;
  16:src/pdf417/PDFScanningDecoder.c **** static const int MAX_EC_CODEWORDS = 512;
  17:src/pdf417/PDFScanningDecoder.c **** const int BARCODE_ROW_UNKNOWN = -1;
  18:src/pdf417/PDFScanningDecoder.c **** 
  19:src/pdf417/PDFScanningDecoder.c **** int result_bits[8];
  20:src/pdf417/PDFScanningDecoder.c **** 
  21:src/pdf417/PDFScanningDecoder.c **** Codeword_t CodeWord;
  22:src/pdf417/PDFScanningDecoder.c **** DetectionResultColumn_t rowIndicatorColumn;
  23:src/pdf417/PDFScanningDecoder.c **** 
  24:src/pdf417/PDFScanningDecoder.c **** static int AdjustCodewordStartColumn(const BitMatrix_t * image, int minColumn, int maxColumn, uint8
  25:src/pdf417/PDFScanningDecoder.c **** {
  29              		.loc 1 25 1
GAS LISTING C:\Users\jisu8\AppData\Local\Temp\cc0IqG7f.s 			page 2


  30              		.cfi_startproc
  31 0000 55       		pushl	%ebp
  32              	LCFI0:
  33              		.cfi_def_cfa_offset 8
  34              		.cfi_offset 5, -8
  35 0001 89E5     		movl	%esp, %ebp
  36              	LCFI1:
  37              		.cfi_def_cfa_register 5
  38 0003 83EC48   		subl	$72, %esp
  39 0006 8B4514   		movl	20(%ebp), %eax
  40 0009 8845E4   		movb	%al, -28(%ebp)
  26:src/pdf417/PDFScanningDecoder.c **** 
  27:src/pdf417/PDFScanningDecoder.c **** 	printf("GetModuleBitCount minColumn=%d, maxColumn=%d, leftToRight=%d, codewordStartColumn=%d, imag
  41              		.loc 1 27 2
  42 000c 0FB645E4 		movzbl	-28(%ebp), %eax
  43 0010 8B551C   		movl	28(%ebp), %edx
  44 0013 89542414 		movl	%edx, 20(%esp)
  45 0017 8B5518   		movl	24(%ebp), %edx
  46 001a 89542410 		movl	%edx, 16(%esp)
  47 001e 8944240C 		movl	%eax, 12(%esp)
  48 0022 8B4510   		movl	16(%ebp), %eax
  49 0025 89442408 		movl	%eax, 8(%esp)
  50 0029 8B450C   		movl	12(%ebp), %eax
  51 002c 89442404 		movl	%eax, 4(%esp)
  52 0030 C7042410 		movl	$LC0, (%esp)
  52      000000
  53 0037 E8000000 		call	_printf
  53      00
  28:src/pdf417/PDFScanningDecoder.c **** 		minColumn, maxColumn, leftToRight, codewordStartColumn, imageRow);
  29:src/pdf417/PDFScanningDecoder.c **** 	
  30:src/pdf417/PDFScanningDecoder.c **** 	int correctedStartColumn = codewordStartColumn;
  54              		.loc 1 30 6
  55 003c 8B4518   		movl	24(%ebp), %eax
  56 003f 8945F4   		movl	%eax, -12(%ebp)
  31:src/pdf417/PDFScanningDecoder.c **** 	int increment = leftToRight ? -1 : 1;
  57              		.loc 1 31 35
  58 0042 807DE400 		cmpb	$0, -28(%ebp)
  59 0046 7407     		je	L2
  60              		.loc 1 31 35 is_stmt 0 discriminator 1
  61 0048 B8FFFFFF 		movl	$-1, %eax
  61      FF
  62 004d EB05     		jmp	L3
  63              	L2:
  64              		.loc 1 31 35 discriminator 2
  65 004f B8010000 		movl	$1, %eax
  65      00
  66              	L3:
  67              		.loc 1 31 6 is_stmt 1 discriminator 4
  68 0054 8945F0   		movl	%eax, -16(%ebp)
  69              	LBB2:
  32:src/pdf417/PDFScanningDecoder.c **** 	// there should be no black pixels before the start column. If there are, then we need to start ea
  33:src/pdf417/PDFScanningDecoder.c **** 	for (int i = 0; i < 2; i++) 
  70              		.loc 1 33 11 discriminator 4
  71 0057 C745EC00 		movl	$0, -20(%ebp)
  71      000000
  72              		.loc 1 33 2 discriminator 4
  73 005e EB68     		jmp	L4
GAS LISTING C:\Users\jisu8\AppData\Local\Temp\cc0IqG7f.s 			page 3


  74              	L11:
  34:src/pdf417/PDFScanningDecoder.c **** 	{
  35:src/pdf417/PDFScanningDecoder.c **** 		while ((leftToRight ? correctedStartColumn >= minColumn : correctedStartColumn < maxColumn) &&
  36:src/pdf417/PDFScanningDecoder.c **** 			leftToRight == image->bits[imageRow * image->_width + correctedStartColumn]) 
  37:src/pdf417/PDFScanningDecoder.c **** 			{
  38:src/pdf417/PDFScanningDecoder.c **** 			if (abs(codewordStartColumn - correctedStartColumn) > CODEWORD_SKEW_SIZE) 
  75              		.loc 1 38 32
  76 0060 8B4518   		movl	24(%ebp), %eax
  77 0063 2B45F4   		subl	-12(%ebp), %eax
  78              		.loc 1 38 8
  79 0066 99       		cltd
  80 0067 31D0     		xorl	%edx, %eax
  81 0069 29D0     		subl	%edx, %eax
  82              		.loc 1 38 56
  83 006b BA020000 		movl	$2, %edx
  83      00
  84              		.loc 1 38 7
  85 0070 39D0     		cmpl	%edx, %eax
  86 0072 7E05     		jle	L6
  39:src/pdf417/PDFScanningDecoder.c **** 			{
  40:src/pdf417/PDFScanningDecoder.c **** 				return codewordStartColumn;
  87              		.loc 1 40 12
  88 0074 8B4518   		movl	24(%ebp), %eax
  89 0077 EB58     		jmp	L7
  90              	L6:
  41:src/pdf417/PDFScanningDecoder.c **** 			}
  42:src/pdf417/PDFScanningDecoder.c **** 			correctedStartColumn += increment;
  91              		.loc 1 42 25
  92 0079 8B45F0   		movl	-16(%ebp), %eax
  93 007c 0145F4   		addl	%eax, -12(%ebp)
  94              	L5:
  35:src/pdf417/PDFScanningDecoder.c **** 			leftToRight == image->bits[imageRow * image->_width + correctedStartColumn]) 
  95              		.loc 1 35 9
  96 007f 807DE400 		cmpb	$0, -28(%ebp)
  97 0083 740A     		je	L8
  35:src/pdf417/PDFScanningDecoder.c **** 			leftToRight == image->bits[imageRow * image->_width + correctedStartColumn]) 
  98              		.loc 1 35 9 is_stmt 0 discriminator 1
  99 0085 8B45F4   		movl	-12(%ebp), %eax
 100 0088 3B450C   		cmpl	12(%ebp), %eax
 101 008b 7D0A     		jge	L9
 102 008d EB28     		jmp	L10
 103              	L8:
  35:src/pdf417/PDFScanningDecoder.c **** 			leftToRight == image->bits[imageRow * image->_width + correctedStartColumn]) 
 104              		.loc 1 35 95 is_stmt 1 discriminator 2
 105 008f 8B45F4   		movl	-12(%ebp), %eax
 106 0092 3B4510   		cmpl	16(%ebp), %eax
 107 0095 7D20     		jge	L10
 108              	L9:
  36:src/pdf417/PDFScanningDecoder.c **** 			{
 109              		.loc 1 36 24 discriminator 3
 110 0097 8B4508   		movl	8(%ebp), %eax
 111 009a 8B500C   		movl	12(%eax), %edx
  36:src/pdf417/PDFScanningDecoder.c **** 			{
 112              		.loc 1 36 47 discriminator 3
 113 009d 8B4508   		movl	8(%ebp), %eax
 114 00a0 8B00     		movl	(%eax), %eax
  36:src/pdf417/PDFScanningDecoder.c **** 			{
GAS LISTING C:\Users\jisu8\AppData\Local\Temp\cc0IqG7f.s 			page 4


 115              		.loc 1 36 40 discriminator 3
 116 00a2 0FAF451C 		imull	28(%ebp), %eax
 117 00a6 89C1     		movl	%eax, %ecx
  36:src/pdf417/PDFScanningDecoder.c **** 			{
 118              		.loc 1 36 56 discriminator 3
 119 00a8 8B45F4   		movl	-12(%ebp), %eax
 120 00ab 01C8     		addl	%ecx, %eax
  36:src/pdf417/PDFScanningDecoder.c **** 			{
 121              		.loc 1 36 30 discriminator 3
 122 00ad 01D0     		addl	%edx, %eax
 123 00af 0FB600   		movzbl	(%eax), %eax
  35:src/pdf417/PDFScanningDecoder.c **** 			leftToRight == image->bits[imageRow * image->_width + correctedStartColumn]) 
 124              		.loc 1 35 95 discriminator 3
 125 00b2 3845E4   		cmpb	%al, -28(%ebp)
 126 00b5 74A9     		je	L11
 127              	L10:
  43:src/pdf417/PDFScanningDecoder.c **** 		}
  44:src/pdf417/PDFScanningDecoder.c **** 		increment = -increment;
 128              		.loc 1 44 13 discriminator 2
 129 00b7 F75DF0   		negl	-16(%ebp)
  45:src/pdf417/PDFScanningDecoder.c **** 		leftToRight = !leftToRight;
 130              		.loc 1 45 17 discriminator 2
 131 00ba 807DE400 		cmpb	$0, -28(%ebp)
 132 00be 0F94C0   		sete	%al
 133              		.loc 1 45 15 discriminator 2
 134 00c1 8845E4   		movb	%al, -28(%ebp)
  33:src/pdf417/PDFScanningDecoder.c **** 	{
 135              		.loc 1 33 26 discriminator 2
 136 00c4 8345EC01 		addl	$1, -20(%ebp)
 137              	L4:
  33:src/pdf417/PDFScanningDecoder.c **** 	{
 138              		.loc 1 33 2 discriminator 1
 139 00c8 837DEC01 		cmpl	$1, -20(%ebp)
 140 00cc 7EB1     		jle	L5
 141              	LBE2:
  46:src/pdf417/PDFScanningDecoder.c **** 	}
  47:src/pdf417/PDFScanningDecoder.c **** 	return correctedStartColumn;
 142              		.loc 1 47 9
 143 00ce 8B45F4   		movl	-12(%ebp), %eax
 144              	L7:
  48:src/pdf417/PDFScanningDecoder.c **** }
 145              		.loc 1 48 1
 146 00d1 C9       		leave
 147              	LCFI2:
 148              		.cfi_restore 5
 149              		.cfi_def_cfa 4, 4
 150 00d2 C3       		ret
 151              		.cfi_endproc
 152              	LFE4:
 153              		.section .rdata,"dr"
 154 0073 00       		.align 4
 155              	LC1:
 156 0074 4765744D 		.ascii "GetModuleBitCount minColumn=%d, maxColumn=%d, leftToRight=%d, startColumn=%d, imageRow=%d\
 156      6F64756C 
 156      65426974 
 156      436F756E 
 156      74206D69 
GAS LISTING C:\Users\jisu8\AppData\Local\Temp\cc0IqG7f.s 			page 5


 157              		.text
 159              	_GetModuleBitCount:
 160              	LFB5:
  49:src/pdf417/PDFScanningDecoder.c **** 
  50:src/pdf417/PDFScanningDecoder.c **** static uint8_t GetModuleBitCount(const BitMatrix_t * image, int minColumn, int maxColumn, uint8_t l
  51:src/pdf417/PDFScanningDecoder.c **** {
 161              		.loc 1 51 1
 162              		.cfi_startproc
 163 00d3 55       		pushl	%ebp
 164              	LCFI3:
 165              		.cfi_def_cfa_offset 8
 166              		.cfi_offset 5, -8
 167 00d4 89E5     		movl	%esp, %ebp
 168              	LCFI4:
 169              		.cfi_def_cfa_register 5
 170 00d6 83EC48   		subl	$72, %esp
 171 00d9 8B5514   		movl	20(%ebp), %edx
 172 00dc 8B4524   		movl	36(%ebp), %eax
 173 00df 8855E4   		movb	%dl, -28(%ebp)
 174 00e2 8845E0   		movb	%al, -32(%ebp)
  52:src/pdf417/PDFScanningDecoder.c **** 
  53:src/pdf417/PDFScanningDecoder.c **** 	printf("GetModuleBitCount minColumn=%d, maxColumn=%d, leftToRight=%d, startColumn=%d, imageRow=%d\
 175              		.loc 1 53 2
 176 00e5 0FB645E4 		movzbl	-28(%ebp), %eax
 177 00e9 8B551C   		movl	28(%ebp), %edx
 178 00ec 89542414 		movl	%edx, 20(%esp)
 179 00f0 8B5518   		movl	24(%ebp), %edx
 180 00f3 89542410 		movl	%edx, 16(%esp)
 181 00f7 8944240C 		movl	%eax, 12(%esp)
 182 00fb 8B4510   		movl	16(%ebp), %eax
 183 00fe 89442408 		movl	%eax, 8(%esp)
 184 0102 8B450C   		movl	12(%ebp), %eax
 185 0105 89442404 		movl	%eax, 4(%esp)
 186 0109 C7042474 		movl	$LC1, (%esp)
 186      000000
 187 0110 E8000000 		call	_printf
 187      00
  54:src/pdf417/PDFScanningDecoder.c **** 		minColumn, maxColumn, leftToRight, startColumn, imageRow );
  55:src/pdf417/PDFScanningDecoder.c **** 	
  56:src/pdf417/PDFScanningDecoder.c **** 	int imageColumn = startColumn;
 188              		.loc 1 56 6
 189 0115 8B4518   		movl	24(%ebp), %eax
 190 0118 8945F4   		movl	%eax, -12(%ebp)
  57:src/pdf417/PDFScanningDecoder.c **** 	unsigned int moduleNumber = 0;
 191              		.loc 1 57 15
 192 011b C745F000 		movl	$0, -16(%ebp)
 192      000000
  58:src/pdf417/PDFScanningDecoder.c **** 	int increment = leftToRight ? 1 : -1;
 193              		.loc 1 58 34
 194 0122 807DE400 		cmpb	$0, -28(%ebp)
 195 0126 7407     		je	L14
 196              		.loc 1 58 34 is_stmt 0 discriminator 1
 197 0128 B8010000 		movl	$1, %eax
 197      00
 198 012d EB05     		jmp	L15
 199              	L14:
 200              		.loc 1 58 34 discriminator 2
GAS LISTING C:\Users\jisu8\AppData\Local\Temp\cc0IqG7f.s 			page 6


 201 012f B8FFFFFF 		movl	$-1, %eax
 201      FF
 202              	L15:
 203              		.loc 1 58 6 is_stmt 1 discriminator 4
 204 0134 8945E8   		movl	%eax, -24(%ebp)
  59:src/pdf417/PDFScanningDecoder.c **** 	uint8_t previousPixelValue = leftToRight;
 205              		.loc 1 59 10 discriminator 4
 206 0137 0FB645E4 		movzbl	-28(%ebp), %eax
 207 013b 8845EF   		movb	%al, -17(%ebp)
  60:src/pdf417/PDFScanningDecoder.c **** 	fill(length,moduleBitCount,0);
 208              		.loc 1 60 2 discriminator 4
 209 013e 0FB645E0 		movzbl	-32(%ebp), %eax
 210 0142 C7442408 		movl	$0, 8(%esp)
 210      00000000 
 211 014a 8B5520   		movl	32(%ebp), %edx
 212 014d 89542404 		movl	%edx, 4(%esp)
 213 0151 890424   		movl	%eax, (%esp)
 214 0154 E8000000 		call	_fill
 214      00
  61:src/pdf417/PDFScanningDecoder.c **** 	
  62:src/pdf417/PDFScanningDecoder.c **** 	while ((leftToRight ? (imageColumn < maxColumn) : (imageColumn >= minColumn)) && moduleNumber < le
 215              		.loc 1 62 8 discriminator 4
 216 0159 EB5B     		jmp	L16
 217              	L21:
  63:src/pdf417/PDFScanningDecoder.c **** 	{
  64:src/pdf417/PDFScanningDecoder.c **** 		if (image->bits[imageRow * image->_width + imageColumn] == previousPixelValue) 
 218              		.loc 1 64 12
 219 015b 8B4508   		movl	8(%ebp), %eax
 220 015e 8B500C   		movl	12(%eax), %edx
 221              		.loc 1 64 35
 222 0161 8B4508   		movl	8(%ebp), %eax
 223 0164 8B00     		movl	(%eax), %eax
 224              		.loc 1 64 28
 225 0166 0FAF451C 		imull	28(%ebp), %eax
 226 016a 89C1     		movl	%eax, %ecx
 227              		.loc 1 64 44
 228 016c 8B45F4   		movl	-12(%ebp), %eax
 229 016f 01C8     		addl	%ecx, %eax
 230              		.loc 1 64 18
 231 0171 01D0     		addl	%edx, %eax
 232 0173 0FB600   		movzbl	(%eax), %eax
 233              		.loc 1 64 6
 234 0176 3845EF   		cmpb	%al, -17(%ebp)
 235 0179 752D     		jne	L17
  65:src/pdf417/PDFScanningDecoder.c **** 		{
  66:src/pdf417/PDFScanningDecoder.c **** 			moduleBitCount[moduleNumber] += 1;
 236              		.loc 1 66 33
 237 017b 8B45F0   		movl	-16(%ebp), %eax
 238 017e 8D148500 		leal	0(,%eax,4), %edx
 238      000000
 239 0185 8B4520   		movl	32(%ebp), %eax
 240 0188 01D0     		addl	%edx, %eax
 241 018a 8B10     		movl	(%eax), %edx
 242 018c 8B45F0   		movl	-16(%ebp), %eax
 243 018f 8D0C8500 		leal	0(,%eax,4), %ecx
 243      000000
 244 0196 8B4520   		movl	32(%ebp), %eax
GAS LISTING C:\Users\jisu8\AppData\Local\Temp\cc0IqG7f.s 			page 7


 245 0199 01C8     		addl	%ecx, %eax
 246 019b 83C201   		addl	$1, %edx
 247 019e 8910     		movl	%edx, (%eax)
  67:src/pdf417/PDFScanningDecoder.c **** 			imageColumn += increment;
 248              		.loc 1 67 16
 249 01a0 8B45E8   		movl	-24(%ebp), %eax
 250 01a3 0145F4   		addl	%eax, -12(%ebp)
 251 01a6 EB0E     		jmp	L16
 252              	L17:
  68:src/pdf417/PDFScanningDecoder.c **** 		}
  69:src/pdf417/PDFScanningDecoder.c **** 		else {
  70:src/pdf417/PDFScanningDecoder.c **** 			moduleNumber += 1;
 253              		.loc 1 70 17
 254 01a8 8345F001 		addl	$1, -16(%ebp)
  71:src/pdf417/PDFScanningDecoder.c **** 			previousPixelValue = !previousPixelValue;
 255              		.loc 1 71 25
 256 01ac 807DEF00 		cmpb	$0, -17(%ebp)
 257 01b0 0F94C0   		sete	%al
 258              		.loc 1 71 23
 259 01b3 8845EF   		movb	%al, -17(%ebp)
 260              	L16:
  62:src/pdf417/PDFScanningDecoder.c **** 	{
 261              		.loc 1 62 8
 262 01b6 807DE400 		cmpb	$0, -28(%ebp)
 263 01ba 740A     		je	L18
  62:src/pdf417/PDFScanningDecoder.c **** 	{
 264              		.loc 1 62 8 is_stmt 0 discriminator 1
 265 01bc 8B45F4   		movl	-12(%ebp), %eax
 266 01bf 3B4510   		cmpl	16(%ebp), %eax
 267 01c2 7C0A     		jl	L19
 268 01c4 EB11     		jmp	L20
 269              	L18:
  62:src/pdf417/PDFScanningDecoder.c **** 	{
 270              		.loc 1 62 80 is_stmt 1 discriminator 2
 271 01c6 8B45F4   		movl	-12(%ebp), %eax
 272 01c9 3B450C   		cmpl	12(%ebp), %eax
 273 01cc 7C09     		jl	L20
 274              	L19:
  62:src/pdf417/PDFScanningDecoder.c **** 	{
 275              		.loc 1 62 96 discriminator 3
 276 01ce 0FB645E0 		movzbl	-32(%ebp), %eax
  62:src/pdf417/PDFScanningDecoder.c **** 	{
 277              		.loc 1 62 80 discriminator 3
 278 01d2 3945F0   		cmpl	%eax, -16(%ebp)
 279 01d5 7284     		jb	L21
 280              	L20:
  72:src/pdf417/PDFScanningDecoder.c **** 		}
  73:src/pdf417/PDFScanningDecoder.c **** 	}
  74:src/pdf417/PDFScanningDecoder.c **** 	return moduleNumber == length || (imageColumn == (leftToRight ? maxColumn : minColumn) && moduleNu
 281              		.loc 1 74 22
 282 01d7 0FB645E0 		movzbl	-32(%ebp), %eax
 283              		.loc 1 74 32
 284 01db 3945F0   		cmpl	%eax, -16(%ebp)
 285 01de 741F     		je	L22
 286              		.loc 1 74 76 discriminator 2
 287 01e0 807DE400 		cmpb	$0, -28(%ebp)
 288 01e4 7405     		je	L23
GAS LISTING C:\Users\jisu8\AppData\Local\Temp\cc0IqG7f.s 			page 8


 289              		.loc 1 74 76 is_stmt 0 discriminator 3
 290 01e6 8B4510   		movl	16(%ebp), %eax
 291 01e9 EB03     		jmp	L24
 292              	L23:
 293              		.loc 1 74 76 discriminator 4
 294 01eb 8B450C   		movl	12(%ebp), %eax
 295              	L24:
 296              		.loc 1 74 32 is_stmt 1 discriminator 6
 297 01ee 3B45F4   		cmpl	-12(%ebp), %eax
 298 01f1 7513     		jne	L25
 299              		.loc 1 74 115 discriminator 7
 300 01f3 0FB645E0 		movzbl	-32(%ebp), %eax
 301 01f7 83E801   		subl	$1, %eax
 302              		.loc 1 74 89 discriminator 7
 303 01fa 3945F0   		cmpl	%eax, -16(%ebp)
 304 01fd 7507     		jne	L25
 305              	L22:
 306              		.loc 1 74 32 discriminator 9
 307 01ff B8010000 		movl	$1, %eax
 307      00
 308 0204 EB05     		jmp	L26
 309              	L25:
 310              		.loc 1 74 32 is_stmt 0 discriminator 10
 311 0206 B8000000 		movl	$0, %eax
 311      00
 312              	L26:
  75:src/pdf417/PDFScanningDecoder.c **** }
 313              		.loc 1 75 1 is_stmt 1 discriminator 12
 314 020b C9       		leave
 315              	LCFI5:
 316              		.cfi_restore 5
 317              		.cfi_def_cfa 4, 4
 318 020c C3       		ret
 319              		.cfi_endproc
 320              	LFE5:
 322              	_CheckCodewordSkew:
 323              	LFB6:
  76:src/pdf417/PDFScanningDecoder.c **** 
  77:src/pdf417/PDFScanningDecoder.c **** static uint8_t CheckCodewordSkew(int codewordSize, int minCodewordWidth, int maxCodewordWidth)
  78:src/pdf417/PDFScanningDecoder.c **** {
 324              		.loc 1 78 1
 325              		.cfi_startproc
 326 020d 55       		pushl	%ebp
 327              	LCFI6:
 328              		.cfi_def_cfa_offset 8
 329              		.cfi_offset 5, -8
 330 020e 89E5     		movl	%esp, %ebp
 331              	LCFI7:
 332              		.cfi_def_cfa_register 5
  79:src/pdf417/PDFScanningDecoder.c **** 	return minCodewordWidth - CODEWORD_SKEW_SIZE <= codewordSize &&
 333              		.loc 1 79 26
 334 0210 BA020000 		movl	$2, %edx
 334      00
 335 0215 8B450C   		movl	12(%ebp), %eax
 336 0218 29D0     		subl	%edx, %eax
 337              		.loc 1 79 63
 338 021a 394508   		cmpl	%eax, 8(%ebp)
GAS LISTING C:\Users\jisu8\AppData\Local\Temp\cc0IqG7f.s 			page 9


 339 021d 7C16     		jl	L29
  80:src/pdf417/PDFScanningDecoder.c **** 		codewordSize <= maxCodewordWidth + CODEWORD_SKEW_SIZE;
 340              		.loc 1 80 36 discriminator 1
 341 021f BA020000 		movl	$2, %edx
 341      00
 342 0224 8B4510   		movl	16(%ebp), %eax
 343 0227 01D0     		addl	%edx, %eax
  79:src/pdf417/PDFScanningDecoder.c **** 	return minCodewordWidth - CODEWORD_SKEW_SIZE <= codewordSize &&
 344              		.loc 1 79 63 discriminator 1
 345 0229 394508   		cmpl	%eax, 8(%ebp)
 346 022c 7F07     		jg	L29
  79:src/pdf417/PDFScanningDecoder.c **** 	return minCodewordWidth - CODEWORD_SKEW_SIZE <= codewordSize &&
 347              		.loc 1 79 63 is_stmt 0 discriminator 3
 348 022e B8010000 		movl	$1, %eax
 348      00
 349 0233 EB05     		jmp	L30
 350              	L29:
  79:src/pdf417/PDFScanningDecoder.c **** 	return minCodewordWidth - CODEWORD_SKEW_SIZE <= codewordSize &&
 351              		.loc 1 79 63 discriminator 4
 352 0235 B8000000 		movl	$0, %eax
 352      00
 353              	L30:
  81:src/pdf417/PDFScanningDecoder.c **** }
 354              		.loc 1 81 1 is_stmt 1 discriminator 6
 355 023a 5D       		popl	%ebp
 356              	LCFI8:
 357              		.cfi_restore 5
 358              		.cfi_def_cfa 4, 4
 359 023b C3       		ret
 360              		.cfi_endproc
 361              	LFE6:
 362              		.section .rdata,"dr"
 363 00cf 00       		.align 4
 364              	LC2:
 365 00d0 47657442 		.ascii "GetBitCountForCodeword codeword=%d\12\0"
 365      6974436F 
 365      756E7446 
 365      6F72436F 
 365      6465776F 
 366              		.text
 368              	_GetBitCountForCodeword:
 369              	LFB7:
  82:src/pdf417/PDFScanningDecoder.c **** 
  83:src/pdf417/PDFScanningDecoder.c **** static int * GetBitCountForCodeword(int codeword)
  84:src/pdf417/PDFScanningDecoder.c **** {
 370              		.loc 1 84 1
 371              		.cfi_startproc
 372 023c 55       		pushl	%ebp
 373              	LCFI9:
 374              		.cfi_def_cfa_offset 8
 375              		.cfi_offset 5, -8
 376 023d 89E5     		movl	%esp, %ebp
 377              	LCFI10:
 378              		.cfi_def_cfa_register 5
 379 023f 83EC28   		subl	$40, %esp
  85:src/pdf417/PDFScanningDecoder.c **** 
  86:src/pdf417/PDFScanningDecoder.c **** 	printf("GetBitCountForCodeword codeword=%d\n", codeword);
GAS LISTING C:\Users\jisu8\AppData\Local\Temp\cc0IqG7f.s 			page 10


 380              		.loc 1 86 2
 381 0242 8B4508   		movl	8(%ebp), %eax
 382 0245 89442404 		movl	%eax, 4(%esp)
 383 0249 C70424D0 		movl	$LC2, (%esp)
 383      000000
 384 0250 E8000000 		call	_printf
 384      00
  87:src/pdf417/PDFScanningDecoder.c **** 
  88:src/pdf417/PDFScanningDecoder.c ****     fill(BARS_IN_MODULE,result_bits,0);
 385              		.loc 1 88 5
 386 0255 A1000000 		movl	_BARS_IN_MODULE, %eax
 386      00
 387 025a C7442408 		movl	$0, 8(%esp)
 387      00000000 
 388 0262 C7442404 		movl	$_result_bits, 4(%esp)
 388      00000000 
 389 026a 890424   		movl	%eax, (%esp)
 390 026d E8000000 		call	_fill
 390      00
  89:src/pdf417/PDFScanningDecoder.c **** 	int previousValue = 0;
 391              		.loc 1 89 6
 392 0272 C745F400 		movl	$0, -12(%ebp)
 392      000000
  90:src/pdf417/PDFScanningDecoder.c **** 	int i = sizeof(result_bits)/sizeof(result_bits[0]) - 1;
 393              		.loc 1 90 6
 394 0279 C745F007 		movl	$7, -16(%ebp)
 394      000000
 395              	L35:
  91:src/pdf417/PDFScanningDecoder.c **** 	while (1) 
  92:src/pdf417/PDFScanningDecoder.c **** 	{
  93:src/pdf417/PDFScanningDecoder.c **** 		if ((codeword & 0x1) != previousValue) 
 396              		.loc 1 93 17
 397 0280 8B4508   		movl	8(%ebp), %eax
 398 0283 83E001   		andl	$1, %eax
 399              		.loc 1 93 6
 400 0286 3945F4   		cmpl	%eax, -12(%ebp)
 401 0289 7413     		je	L33
  94:src/pdf417/PDFScanningDecoder.c **** 		{
  95:src/pdf417/PDFScanningDecoder.c **** 			previousValue = codeword & 0x1;
 402              		.loc 1 95 18
 403 028b 8B4508   		movl	8(%ebp), %eax
 404 028e 83E001   		andl	$1, %eax
 405 0291 8945F4   		movl	%eax, -12(%ebp)
  96:src/pdf417/PDFScanningDecoder.c **** 			i--;
 406              		.loc 1 96 5
 407 0294 836DF001 		subl	$1, -16(%ebp)
  97:src/pdf417/PDFScanningDecoder.c **** 			if (i < 0) 
 408              		.loc 1 97 7
 409 0298 837DF000 		cmpl	$0, -16(%ebp)
 410 029c 781C     		js	L38
 411              	L33:
  98:src/pdf417/PDFScanningDecoder.c **** 			{
  99:src/pdf417/PDFScanningDecoder.c **** 				break;
 100:src/pdf417/PDFScanningDecoder.c **** 			}
 101:src/pdf417/PDFScanningDecoder.c **** 		}
 102:src/pdf417/PDFScanningDecoder.c **** 		result_bits[i]++;
 412              		.loc 1 102 14
GAS LISTING C:\Users\jisu8\AppData\Local\Temp\cc0IqG7f.s 			page 11


 413 029e 8B45F0   		movl	-16(%ebp), %eax
 414 02a1 8B048500 		movl	_result_bits(,%eax,4), %eax
 414      000000
 415              		.loc 1 102 17
 416 02a8 8D5001   		leal	1(%eax), %edx
 417 02ab 8B45F0   		movl	-16(%ebp), %eax
 418 02ae 89148500 		movl	%edx, _result_bits(,%eax,4)
 418      000000
 103:src/pdf417/PDFScanningDecoder.c **** 		codeword >>= 1;
 419              		.loc 1 103 12
 420 02b5 D17D08   		sarl	8(%ebp)
  93:src/pdf417/PDFScanningDecoder.c **** 		{
 421              		.loc 1 93 6
 422 02b8 EBC6     		jmp	L35
 423              	L38:
  99:src/pdf417/PDFScanningDecoder.c **** 			}
 424              		.loc 1 99 5
 425 02ba 90       		nop
 104:src/pdf417/PDFScanningDecoder.c **** 	}
 105:src/pdf417/PDFScanningDecoder.c **** 	return result_bits;
 426              		.loc 1 105 9
 427 02bb B8000000 		movl	$_result_bits, %eax
 427      00
 106:src/pdf417/PDFScanningDecoder.c **** }
 428              		.loc 1 106 1
 429 02c0 C9       		leave
 430              	LCFI11:
 431              		.cfi_restore 5
 432              		.cfi_def_cfa 4, 4
 433 02c1 C3       		ret
 434              		.cfi_endproc
 435              	LFE7:
 437              	_GetCodewordBucketNumberRet:
 438              	LFB8:
 107:src/pdf417/PDFScanningDecoder.c **** 
 108:src/pdf417/PDFScanningDecoder.c **** static int GetCodewordBucketNumberRet(const int * moduleBitCount)
 109:src/pdf417/PDFScanningDecoder.c **** {
 439              		.loc 1 109 1
 440              		.cfi_startproc
 441 02c2 55       		pushl	%ebp
 442              	LCFI12:
 443              		.cfi_def_cfa_offset 8
 444              		.cfi_offset 5, -8
 445 02c3 89E5     		movl	%esp, %ebp
 446              	LCFI13:
 447              		.cfi_def_cfa_register 5
 110:src/pdf417/PDFScanningDecoder.c **** 	return (moduleBitCount[0] - moduleBitCount[2] + moduleBitCount[4] - moduleBitCount[6] + 9) % 9;
 448              		.loc 1 110 24
 449 02c5 8B4508   		movl	8(%ebp), %eax
 450 02c8 8B10     		movl	(%eax), %edx
 451              		.loc 1 110 44
 452 02ca 8B4508   		movl	8(%ebp), %eax
 453 02cd 83C008   		addl	$8, %eax
 454 02d0 8B00     		movl	(%eax), %eax
 455              		.loc 1 110 28
 456 02d2 29C2     		subl	%eax, %edx
 457              		.loc 1 110 64
GAS LISTING C:\Users\jisu8\AppData\Local\Temp\cc0IqG7f.s 			page 12


 458 02d4 8B4508   		movl	8(%ebp), %eax
 459 02d7 83C010   		addl	$16, %eax
 460 02da 8B00     		movl	(%eax), %eax
 461              		.loc 1 110 48
 462 02dc 01C2     		addl	%eax, %edx
 463              		.loc 1 110 84
 464 02de 8B4508   		movl	8(%ebp), %eax
 465 02e1 83C018   		addl	$24, %eax
 466 02e4 8B00     		movl	(%eax), %eax
 467              		.loc 1 110 68
 468 02e6 29C2     		subl	%eax, %edx
 469 02e8 89D0     		movl	%edx, %eax
 470              		.loc 1 110 88
 471 02ea 8D4809   		leal	9(%eax), %ecx
 472              		.loc 1 110 93
 473 02ed BA398EE3 		movl	$954437177, %edx
 473      38
 474 02f2 89C8     		movl	%ecx, %eax
 475 02f4 F7EA     		imull	%edx
 476 02f6 D1FA     		sarl	%edx
 477 02f8 89C8     		movl	%ecx, %eax
 478 02fa C1F81F   		sarl	$31, %eax
 479 02fd 29C2     		subl	%eax, %edx
 480 02ff 89D0     		movl	%edx, %eax
 481 0301 C1E003   		sall	$3, %eax
 482 0304 01D0     		addl	%edx, %eax
 483 0306 29C1     		subl	%eax, %ecx
 484 0308 89CA     		movl	%ecx, %edx
 485 030a 89D0     		movl	%edx, %eax
 111:src/pdf417/PDFScanningDecoder.c **** }
 486              		.loc 1 111 1
 487 030c 5D       		popl	%ebp
 488              	LCFI14:
 489              		.cfi_restore 5
 490              		.cfi_def_cfa 4, 4
 491 030d C3       		ret
 492              		.cfi_endproc
 493              	LFE8:
 495              	_GetCodewordBucketNumber:
 496              	LFB9:
 112:src/pdf417/PDFScanningDecoder.c **** 
 113:src/pdf417/PDFScanningDecoder.c **** 
 114:src/pdf417/PDFScanningDecoder.c **** static int GetCodewordBucketNumber(int codeword)
 115:src/pdf417/PDFScanningDecoder.c **** {
 497              		.loc 1 115 1
 498              		.cfi_startproc
 499 030e 55       		pushl	%ebp
 500              	LCFI15:
 501              		.cfi_def_cfa_offset 8
 502              		.cfi_offset 5, -8
 503 030f 89E5     		movl	%esp, %ebp
 504              	LCFI16:
 505              		.cfi_def_cfa_register 5
 506 0311 83EC18   		subl	$24, %esp
 116:src/pdf417/PDFScanningDecoder.c **** 	return GetCodewordBucketNumberRet(GetBitCountForCodeword(codeword));
 507              		.loc 1 116 36
 508 0314 8B4508   		movl	8(%ebp), %eax
GAS LISTING C:\Users\jisu8\AppData\Local\Temp\cc0IqG7f.s 			page 13


 509 0317 890424   		movl	%eax, (%esp)
 510 031a E81DFFFF 		call	_GetBitCountForCodeword
 510      FF
 511              		.loc 1 116 9
 512 031f 890424   		movl	%eax, (%esp)
 513 0322 E89BFFFF 		call	_GetCodewordBucketNumberRet
 513      FF
 117:src/pdf417/PDFScanningDecoder.c **** }
 514              		.loc 1 117 1
 515 0327 C9       		leave
 516              	LCFI17:
 517              		.cfi_restore 5
 518              		.cfi_def_cfa 4, 4
 519 0328 C3       		ret
 520              		.cfi_endproc
 521              	LFE9:
 523              	_Codeword:
 524              	LFB10:
 118:src/pdf417/PDFScanningDecoder.c **** 
 119:src/pdf417/PDFScanningDecoder.c **** static Codeword_t * Codeword(int startX, int endX, int bucket, int value)
 120:src/pdf417/PDFScanningDecoder.c **** {
 525              		.loc 1 120 1
 526              		.cfi_startproc
 527 0329 55       		pushl	%ebp
 528              	LCFI18:
 529              		.cfi_def_cfa_offset 8
 530              		.cfi_offset 5, -8
 531 032a 89E5     		movl	%esp, %ebp
 532              	LCFI19:
 533              		.cfi_def_cfa_register 5
 121:src/pdf417/PDFScanningDecoder.c **** 	CodeWord.m_hasValue = 1;
 534              		.loc 1 121 22
 535 032c C6050000 		movb	$1, _CodeWord
 535      000001
 122:src/pdf417/PDFScanningDecoder.c **** 	CodeWord.m_value._startX = startX;
 536              		.loc 1 122 27
 537 0333 8B4508   		movl	8(%ebp), %eax
 538 0336 A3040000 		movl	%eax, _CodeWord+4
 538      00
 123:src/pdf417/PDFScanningDecoder.c **** 	CodeWord.m_value._endX = endX;
 539              		.loc 1 123 25
 540 033b 8B450C   		movl	12(%ebp), %eax
 541 033e A3080000 		movl	%eax, _CodeWord+8
 541      00
 124:src/pdf417/PDFScanningDecoder.c **** 	CodeWord.m_value._bucket = bucket;
 542              		.loc 1 124 27
 543 0343 8B4510   		movl	16(%ebp), %eax
 544 0346 A30C0000 		movl	%eax, _CodeWord+12
 544      00
 125:src/pdf417/PDFScanningDecoder.c **** 	CodeWord.m_value._value = value;
 545              		.loc 1 125 26
 546 034b 8B4514   		movl	20(%ebp), %eax
 547 034e A3100000 		movl	%eax, _CodeWord+16
 547      00
 126:src/pdf417/PDFScanningDecoder.c **** 	CodeWord.m_value._rowNumber = BARCODE_ROW_UNKNOWN;	
 548              		.loc 1 126 30
 549 0353 B8FFFFFF 		movl	$-1, %eax
GAS LISTING C:\Users\jisu8\AppData\Local\Temp\cc0IqG7f.s 			page 14


 549      FF
 550 0358 A3140000 		movl	%eax, _CodeWord+20
 550      00
 127:src/pdf417/PDFScanningDecoder.c **** 
 128:src/pdf417/PDFScanningDecoder.c **** 	return &CodeWord;
 551              		.loc 1 128 9
 552 035d B8000000 		movl	$_CodeWord, %eax
 552      00
 129:src/pdf417/PDFScanningDecoder.c **** }
 553              		.loc 1 129 1
 554 0362 5D       		popl	%ebp
 555              	LCFI20:
 556              		.cfi_restore 5
 557              		.cfi_def_cfa 4, 4
 558 0363 C3       		ret
 559              		.cfi_endproc
 560              	LFE10:
 561              		.section .rdata,"dr"
 562              		.align 4
 563              	LC3:
 564 00f4 44657465 		.ascii "DetectCodeword minColumn=%d, maxColumn=%d, leftToRight=%d, startColumn=%d, imageRow=%d, mi
 564      6374436F 
 564      6465776F 
 564      7264206D 
 564      696E436F 
 565              		.text
 567              	_DetectCodeword:
 568              	LFB11:
 130:src/pdf417/PDFScanningDecoder.c **** 
 131:src/pdf417/PDFScanningDecoder.c **** static Codeword_t * DetectCodeword(const BitMatrix_t * image, int minColumn, int maxColumn, uint8_t
 132:src/pdf417/PDFScanningDecoder.c **** {
 569              		.loc 1 132 1
 570              		.cfi_startproc
 571 0364 55       		pushl	%ebp
 572              	LCFI21:
 573              		.cfi_def_cfa_offset 8
 574              		.cfi_offset 5, -8
 575 0365 89E5     		movl	%esp, %ebp
 576              	LCFI22:
 577              		.cfi_def_cfa_register 5
 578 0367 83EC78   		subl	$120, %esp
 579 036a 8B4514   		movl	20(%ebp), %eax
 580 036d 8845B4   		movb	%al, -76(%ebp)
 133:src/pdf417/PDFScanningDecoder.c **** 	printf("DetectCodeword minColumn=%d, maxColumn=%d, leftToRight=%d, startColumn=%d, imageRow=%d, mi
 581              		.loc 1 133 2
 582 0370 0FB645B4 		movzbl	-76(%ebp), %eax
 583 0374 8B5524   		movl	36(%ebp), %edx
 584 0377 8954241C 		movl	%edx, 28(%esp)
 585 037b 8B5520   		movl	32(%ebp), %edx
 586 037e 89542418 		movl	%edx, 24(%esp)
 587 0382 8B551C   		movl	28(%ebp), %edx
 588 0385 89542414 		movl	%edx, 20(%esp)
 589 0389 8B5518   		movl	24(%ebp), %edx
 590 038c 89542410 		movl	%edx, 16(%esp)
 591 0390 8944240C 		movl	%eax, 12(%esp)
 592 0394 8B4510   		movl	16(%ebp), %eax
 593 0397 89442408 		movl	%eax, 8(%esp)
GAS LISTING C:\Users\jisu8\AppData\Local\Temp\cc0IqG7f.s 			page 15


 594 039b 8B450C   		movl	12(%ebp), %eax
 595 039e 89442404 		movl	%eax, 4(%esp)
 596 03a2 C70424F4 		movl	$LC3, (%esp)
 596      000000
 597 03a9 E8000000 		call	_printf
 597      00
 134:src/pdf417/PDFScanningDecoder.c **** 		minColumn, maxColumn, leftToRight, startColumn, imageRow, minCodewordWidth, maxCodewordWidth);
 135:src/pdf417/PDFScanningDecoder.c **** 
 136:src/pdf417/PDFScanningDecoder.c **** 	startColumn = AdjustCodewordStartColumn(image, minColumn, maxColumn, leftToRight, startColumn, ima
 598              		.loc 1 136 16
 599 03ae 0FB645B4 		movzbl	-76(%ebp), %eax
 600 03b2 8B551C   		movl	28(%ebp), %edx
 601 03b5 89542414 		movl	%edx, 20(%esp)
 602 03b9 8B5518   		movl	24(%ebp), %edx
 603 03bc 89542410 		movl	%edx, 16(%esp)
 604 03c0 8944240C 		movl	%eax, 12(%esp)
 605 03c4 8B4510   		movl	16(%ebp), %eax
 606 03c7 89442408 		movl	%eax, 8(%esp)
 607 03cb 8B450C   		movl	12(%ebp), %eax
 608 03ce 89442404 		movl	%eax, 4(%esp)
 609 03d2 8B4508   		movl	8(%ebp), %eax
 610 03d5 890424   		movl	%eax, (%esp)
 611 03d8 E823FCFF 		call	_AdjustCodewordStartColumn
 611      FF
 612 03dd 894518   		movl	%eax, 24(%ebp)
 137:src/pdf417/PDFScanningDecoder.c **** 	// we usually know fairly exact now how long a codeword is. We should provide minimum and maximum 
 138:src/pdf417/PDFScanningDecoder.c **** 	// and try to adjust the read pixels, e.g. remove single pixel errors or try to cut off exceeding 
 139:src/pdf417/PDFScanningDecoder.c **** 	// min and maxCodewordWidth should not be used as they are calculated for the whole barcode an can
 140:src/pdf417/PDFScanningDecoder.c **** 	// for the current position
 141:src/pdf417/PDFScanningDecoder.c **** 	int moduleBitCount[8];
 142:src/pdf417/PDFScanningDecoder.c **** 	int length = sizeof(moduleBitCount) / sizeof(moduleBitCount[0]);
 613              		.loc 1 142 6
 614 03e0 C745F008 		movl	$8, -16(%ebp)
 614      000000
 143:src/pdf417/PDFScanningDecoder.c **** 	if (!GetModuleBitCount(image, minColumn, maxColumn, leftToRight, startColumn, imageRow, moduleBitC
 615              		.loc 1 143 7
 616 03e7 8B45F0   		movl	-16(%ebp), %eax
 617 03ea 0FB6D0   		movzbl	%al, %edx
 618 03ed 0FB645B4 		movzbl	-76(%ebp), %eax
 619 03f1 8954241C 		movl	%edx, 28(%esp)
 620 03f5 8D55C4   		leal	-60(%ebp), %edx
 621 03f8 89542418 		movl	%edx, 24(%esp)
 622 03fc 8B551C   		movl	28(%ebp), %edx
 623 03ff 89542414 		movl	%edx, 20(%esp)
 624 0403 8B5518   		movl	24(%ebp), %edx
 625 0406 89542410 		movl	%edx, 16(%esp)
 626 040a 8944240C 		movl	%eax, 12(%esp)
 627 040e 8B4510   		movl	16(%ebp), %eax
 628 0411 89442408 		movl	%eax, 8(%esp)
 629 0415 8B450C   		movl	12(%ebp), %eax
 630 0418 89442404 		movl	%eax, 4(%esp)
 631 041c 8B4508   		movl	8(%ebp), %eax
 632 041f 890424   		movl	%eax, (%esp)
 633 0422 E8ACFCFF 		call	_GetModuleBitCount
 633      FF
 634              		.loc 1 143 5
 635 0427 84C0     		testb	%al, %al
GAS LISTING C:\Users\jisu8\AppData\Local\Temp\cc0IqG7f.s 			page 16


 636 0429 750A     		jne	L46
 144:src/pdf417/PDFScanningDecoder.c **** 	{
 145:src/pdf417/PDFScanningDecoder.c **** 		return NULL;
 637              		.loc 1 145 10
 638 042b B8000000 		movl	$0, %eax
 638      00
 639 0430 E9C60000 		jmp	L52
 639      00
 640              	L46:
 146:src/pdf417/PDFScanningDecoder.c **** 	}
 147:src/pdf417/PDFScanningDecoder.c **** 	int endColumn;
 148:src/pdf417/PDFScanningDecoder.c **** 	int codewordBitCount = Reduce(length,moduleBitCount);
 641              		.loc 1 148 25
 642 0435 8D45C4   		leal	-60(%ebp), %eax
 643 0438 89442404 		movl	%eax, 4(%esp)
 644 043c 8B45F0   		movl	-16(%ebp), %eax
 645 043f 890424   		movl	%eax, (%esp)
 646 0442 E8000000 		call	_Reduce
 646      00
 647 0447 8945EC   		movl	%eax, -20(%ebp)
 149:src/pdf417/PDFScanningDecoder.c **** 	if (leftToRight) 
 648              		.loc 1 149 5
 649 044a 807DB400 		cmpb	$0, -76(%ebp)
 650 044e 740D     		je	L48
 150:src/pdf417/PDFScanningDecoder.c **** 	{
 151:src/pdf417/PDFScanningDecoder.c **** 		endColumn = startColumn + codewordBitCount;
 651              		.loc 1 151 13
 652 0450 8B5518   		movl	24(%ebp), %edx
 653 0453 8B45EC   		movl	-20(%ebp), %eax
 654 0456 01D0     		addl	%edx, %eax
 655 0458 8945F4   		movl	%eax, -12(%ebp)
 656 045b EB21     		jmp	L49
 657              	L48:
 152:src/pdf417/PDFScanningDecoder.c **** 	}
 153:src/pdf417/PDFScanningDecoder.c **** 	else 
 154:src/pdf417/PDFScanningDecoder.c **** 	{
 155:src/pdf417/PDFScanningDecoder.c **** 		reverse(length,moduleBitCount);
 658              		.loc 1 155 3
 659 045d 8D45C4   		leal	-60(%ebp), %eax
 660 0460 89442404 		movl	%eax, 4(%esp)
 661 0464 8B45F0   		movl	-16(%ebp), %eax
 662 0467 890424   		movl	%eax, (%esp)
 663 046a E8000000 		call	_reverse
 663      00
 156:src/pdf417/PDFScanningDecoder.c **** 		endColumn = startColumn;
 664              		.loc 1 156 13
 665 046f 8B4518   		movl	24(%ebp), %eax
 666 0472 8945F4   		movl	%eax, -12(%ebp)
 157:src/pdf417/PDFScanningDecoder.c **** 		startColumn = endColumn - codewordBitCount;
 667              		.loc 1 157 15
 668 0475 8B45F4   		movl	-12(%ebp), %eax
 669 0478 2B45EC   		subl	-20(%ebp), %eax
 670 047b 894518   		movl	%eax, 24(%ebp)
 671              	L49:
 158:src/pdf417/PDFScanningDecoder.c **** 	}
 159:src/pdf417/PDFScanningDecoder.c **** 
 160:src/pdf417/PDFScanningDecoder.c **** 	// We could also use the width of surrounding codewords for more accurate results, but this seems
GAS LISTING C:\Users\jisu8\AppData\Local\Temp\cc0IqG7f.s 			page 17


 161:src/pdf417/PDFScanningDecoder.c **** 	// sufficient for now
 162:src/pdf417/PDFScanningDecoder.c **** 	if (!CheckCodewordSkew(codewordBitCount, minCodewordWidth, maxCodewordWidth)) {
 672              		.loc 1 162 7
 673 047e 8B4524   		movl	36(%ebp), %eax
 674 0481 89442408 		movl	%eax, 8(%esp)
 675 0485 8B4520   		movl	32(%ebp), %eax
 676 0488 89442404 		movl	%eax, 4(%esp)
 677 048c 8B45EC   		movl	-20(%ebp), %eax
 678 048f 890424   		movl	%eax, (%esp)
 679 0492 E876FDFF 		call	_CheckCodewordSkew
 679      FF
 680              		.loc 1 162 5
 681 0497 84C0     		testb	%al, %al
 682 0499 7507     		jne	L50
 163:src/pdf417/PDFScanningDecoder.c **** 		// We could try to use the startX and endX position of the codeword in the same column in the pre
 164:src/pdf417/PDFScanningDecoder.c **** 		// create the bit count from it and normalize it to 8. This would help with single pixel errors.
 165:src/pdf417/PDFScanningDecoder.c **** 		return NULL;
 683              		.loc 1 165 10
 684 049b B8000000 		movl	$0, %eax
 684      00
 685 04a0 EB59     		jmp	L52
 686              	L50:
 166:src/pdf417/PDFScanningDecoder.c **** 	}
 167:src/pdf417/PDFScanningDecoder.c **** 
 168:src/pdf417/PDFScanningDecoder.c **** 	int decodedValue = GetDecodedValue(moduleBitCount);
 687              		.loc 1 168 21
 688 04a2 8D45C4   		leal	-60(%ebp), %eax
 689 04a5 890424   		movl	%eax, (%esp)
 690 04a8 E8000000 		call	_GetDecodedValue
 690      00
 691 04ad 8945E8   		movl	%eax, -24(%ebp)
 169:src/pdf417/PDFScanningDecoder.c **** 	if (decodedValue != -1) 
 692              		.loc 1 169 5
 693 04b0 837DE8FF 		cmpl	$-1, -24(%ebp)
 694 04b4 7440     		je	L51
 695              	LBB3:
 170:src/pdf417/PDFScanningDecoder.c **** 	{
 171:src/pdf417/PDFScanningDecoder.c **** 		int codeword = GetCodeword(decodedValue);
 696              		.loc 1 171 18
 697 04b6 8B45E8   		movl	-24(%ebp), %eax
 698 04b9 890424   		movl	%eax, (%esp)
 699 04bc E8000000 		call	_GetCodeword
 699      00
 700 04c1 8945E4   		movl	%eax, -28(%ebp)
 172:src/pdf417/PDFScanningDecoder.c **** 		if (codeword != -1) 
 701              		.loc 1 172 6
 702 04c4 837DE4FF 		cmpl	$-1, -28(%ebp)
 703 04c8 742C     		je	L51
 173:src/pdf417/PDFScanningDecoder.c **** 		{
 174:src/pdf417/PDFScanningDecoder.c **** 			return Codeword(startColumn, endColumn, GetCodewordBucketNumber(decodedValue), codeword);
 704              		.loc 1 174 11
 705 04ca 8B45E8   		movl	-24(%ebp), %eax
 706 04cd 890424   		movl	%eax, (%esp)
 707 04d0 E839FEFF 		call	_GetCodewordBucketNumber
 707      FF
 708 04d5 89C2     		movl	%eax, %edx
 709 04d7 8B45E4   		movl	-28(%ebp), %eax
GAS LISTING C:\Users\jisu8\AppData\Local\Temp\cc0IqG7f.s 			page 18


 710 04da 8944240C 		movl	%eax, 12(%esp)
 711 04de 89542408 		movl	%edx, 8(%esp)
 712 04e2 8B45F4   		movl	-12(%ebp), %eax
 713 04e5 89442404 		movl	%eax, 4(%esp)
 714 04e9 8B4518   		movl	24(%ebp), %eax
 715 04ec 890424   		movl	%eax, (%esp)
 716 04ef E835FEFF 		call	_Codeword
 716      FF
 717 04f4 EB05     		jmp	L52
 718              	L51:
 719              	LBE3:
 175:src/pdf417/PDFScanningDecoder.c **** 		}
 176:src/pdf417/PDFScanningDecoder.c **** 	}
 177:src/pdf417/PDFScanningDecoder.c **** 
 178:src/pdf417/PDFScanningDecoder.c **** 	return NULL;
 720              		.loc 1 178 9
 721 04f6 B8000000 		movl	$0, %eax
 721      00
 722              	L52:
 179:src/pdf417/PDFScanningDecoder.c **** }
 723              		.loc 1 179 1 discriminator 1
 724 04fb C9       		leave
 725              	LCFI23:
 726              		.cfi_restore 5
 727              		.cfi_def_cfa 4, 4
 728 04fc C3       		ret
 729              		.cfi_endproc
 730              	LFE11:
 732              	_setCodeword:
 733              	LFB12:
 180:src/pdf417/PDFScanningDecoder.c **** static void setCodeword(int imageRow, Codeword_t * codeword, DetectionResultColumn_t * RowIndicator
 181:src/pdf417/PDFScanningDecoder.c **** {
 734              		.loc 1 181 1
 735              		.cfi_startproc
 736 04fd 55       		pushl	%ebp
 737              	LCFI24:
 738              		.cfi_def_cfa_offset 8
 739              		.cfi_offset 5, -8
 740 04fe 89E5     		movl	%esp, %ebp
 741              	LCFI25:
 742              		.cfi_def_cfa_register 5
 743 0500 53       		pushl	%ebx
 744 0501 83EC14   		subl	$20, %esp
 745              		.cfi_offset 3, -12
 746 0504 8B4514   		movl	20(%ebp), %eax
 747 0507 8845E8   		movb	%al, -24(%ebp)
 182:src/pdf417/PDFScanningDecoder.c **** 	int idx = imageRow - RowIndicatorColumn->m_value._boundingBox.m_value._minY;
 748              		.loc 1 182 71
 749 050a 8B4510   		movl	16(%ebp), %eax
 750 050d 8B4048   		movl	72(%eax), %eax
 751              		.loc 1 182 6
 752 0510 8B5508   		movl	8(%ebp), %edx
 753 0513 29C2     		subl	%eax, %edx
 754 0515 89D0     		movl	%edx, %eax
 755 0517 8945F8   		movl	%eax, -8(%ebp)
 183:src/pdf417/PDFScanningDecoder.c **** 	if(empty == 0)
 756              		.loc 1 183 4
GAS LISTING C:\Users\jisu8\AppData\Local\Temp\cc0IqG7f.s 			page 19


 757 051a 807DE800 		cmpb	$0, -24(%ebp)
 758 051e 0F85AD00 		jne	L54
 758      0000
 184:src/pdf417/PDFScanningDecoder.c **** 	{
 185:src/pdf417/PDFScanningDecoder.c **** 		RowIndicatorColumn->m_value._codewords[idx].m_hasValue = codeword->m_hasValue;
 759              		.loc 1 185 68
 760 0524 8B450C   		movl	12(%ebp), %eax
 761 0527 0FB608   		movzbl	(%eax), %ecx
 762              		.loc 1 185 58
 763 052a 8B5D10   		movl	16(%ebp), %ebx
 764 052d 8B55F8   		movl	-8(%ebp), %edx
 765 0530 89D0     		movl	%edx, %eax
 766 0532 01C0     		addl	%eax, %eax
 767 0534 01D0     		addl	%edx, %eax
 768 0536 C1E003   		sall	$3, %eax
 769 0539 01D8     		addl	%ebx, %eax
 770 053b 83C050   		addl	$80, %eax
 771 053e 8808     		movb	%cl, (%eax)
 186:src/pdf417/PDFScanningDecoder.c **** 		RowIndicatorColumn->m_value._codewords[idx].m_value._bucket = codeword->m_value._bucket;
 772              		.loc 1 186 82
 773 0540 8B450C   		movl	12(%ebp), %eax
 774 0543 8B480C   		movl	12(%eax), %ecx
 775              		.loc 1 186 63
 776 0546 8B5D10   		movl	16(%ebp), %ebx
 777 0549 8B55F8   		movl	-8(%ebp), %edx
 778 054c 89D0     		movl	%edx, %eax
 779 054e 01C0     		addl	%eax, %eax
 780 0550 01D0     		addl	%edx, %eax
 781 0552 C1E003   		sall	$3, %eax
 782 0555 01D8     		addl	%ebx, %eax
 783 0557 83C05C   		addl	$92, %eax
 784 055a 8908     		movl	%ecx, (%eax)
 187:src/pdf417/PDFScanningDecoder.c **** 		RowIndicatorColumn->m_value._codewords[idx].m_value._endX = codeword->m_value._endX;
 785              		.loc 1 187 80
 786 055c 8B450C   		movl	12(%ebp), %eax
 787 055f 8B4808   		movl	8(%eax), %ecx
 788              		.loc 1 187 61
 789 0562 8B5D10   		movl	16(%ebp), %ebx
 790 0565 8B55F8   		movl	-8(%ebp), %edx
 791 0568 89D0     		movl	%edx, %eax
 792 056a 01C0     		addl	%eax, %eax
 793 056c 01D0     		addl	%edx, %eax
 794 056e C1E003   		sall	$3, %eax
 795 0571 01D8     		addl	%ebx, %eax
 796 0573 83C058   		addl	$88, %eax
 797 0576 8908     		movl	%ecx, (%eax)
 188:src/pdf417/PDFScanningDecoder.c **** 		RowIndicatorColumn->m_value._codewords[idx].m_value._rowNumber = codeword->m_value._rowNumber;
 798              		.loc 1 188 85
 799 0578 8B450C   		movl	12(%ebp), %eax
 800 057b 8B4814   		movl	20(%eax), %ecx
 801              		.loc 1 188 66
 802 057e 8B5D10   		movl	16(%ebp), %ebx
 803 0581 8B55F8   		movl	-8(%ebp), %edx
 804 0584 89D0     		movl	%edx, %eax
 805 0586 01C0     		addl	%eax, %eax
 806 0588 01D0     		addl	%edx, %eax
 807 058a C1E003   		sall	$3, %eax
GAS LISTING C:\Users\jisu8\AppData\Local\Temp\cc0IqG7f.s 			page 20


 808 058d 01D8     		addl	%ebx, %eax
 809 058f 83C064   		addl	$100, %eax
 810 0592 8908     		movl	%ecx, (%eax)
 189:src/pdf417/PDFScanningDecoder.c **** 		RowIndicatorColumn->m_value._codewords[idx].m_value._startX = codeword->m_value._startX;
 811              		.loc 1 189 82
 812 0594 8B450C   		movl	12(%ebp), %eax
 813 0597 8B4804   		movl	4(%eax), %ecx
 814              		.loc 1 189 63
 815 059a 8B5D10   		movl	16(%ebp), %ebx
 816 059d 8B55F8   		movl	-8(%ebp), %edx
 817 05a0 89D0     		movl	%edx, %eax
 818 05a2 01C0     		addl	%eax, %eax
 819 05a4 01D0     		addl	%edx, %eax
 820 05a6 C1E003   		sall	$3, %eax
 821 05a9 01D8     		addl	%ebx, %eax
 822 05ab 83C054   		addl	$84, %eax
 823 05ae 8908     		movl	%ecx, (%eax)
 190:src/pdf417/PDFScanningDecoder.c **** 		RowIndicatorColumn->m_value._codewords[idx].m_value._value = codeword->m_value._value;
 824              		.loc 1 190 81
 825 05b0 8B450C   		movl	12(%ebp), %eax
 826 05b3 8B4810   		movl	16(%eax), %ecx
 827              		.loc 1 190 62
 828 05b6 8B5D10   		movl	16(%ebp), %ebx
 829 05b9 8B55F8   		movl	-8(%ebp), %edx
 830 05bc 89D0     		movl	%edx, %eax
 831 05be 01C0     		addl	%eax, %eax
 832 05c0 01D0     		addl	%edx, %eax
 833 05c2 C1E003   		sall	$3, %eax
 834 05c5 01D8     		addl	%ebx, %eax
 835 05c7 83C060   		addl	$96, %eax
 836 05ca 8908     		movl	%ecx, (%eax)
 191:src/pdf417/PDFScanningDecoder.c **** 	}
 192:src/pdf417/PDFScanningDecoder.c **** 	else
 193:src/pdf417/PDFScanningDecoder.c **** 	{
 194:src/pdf417/PDFScanningDecoder.c **** 		RowIndicatorColumn->m_value._codewords[idx].m_hasValue = 0;
 195:src/pdf417/PDFScanningDecoder.c **** 		RowIndicatorColumn->m_value._codewords[idx].m_value._bucket = 0;
 196:src/pdf417/PDFScanningDecoder.c **** 		RowIndicatorColumn->m_value._codewords[idx].m_value._endX = 0;
 197:src/pdf417/PDFScanningDecoder.c **** 		RowIndicatorColumn->m_value._codewords[idx].m_value._rowNumber = 0;
 198:src/pdf417/PDFScanningDecoder.c **** 		RowIndicatorColumn->m_value._codewords[idx].m_value._startX = 0;
 199:src/pdf417/PDFScanningDecoder.c **** 		RowIndicatorColumn->m_value._codewords[idx].m_value._value = 0;
 200:src/pdf417/PDFScanningDecoder.c **** 	}
 201:src/pdf417/PDFScanningDecoder.c **** }
 837              		.loc 1 201 1
 838 05cc E9990000 		jmp	L56
 838      00
 839              	L54:
 194:src/pdf417/PDFScanningDecoder.c **** 		RowIndicatorColumn->m_value._codewords[idx].m_value._bucket = 0;
 840              		.loc 1 194 58
 841 05d1 8B4D10   		movl	16(%ebp), %ecx
 842 05d4 8B55F8   		movl	-8(%ebp), %edx
 843 05d7 89D0     		movl	%edx, %eax
 844 05d9 01C0     		addl	%eax, %eax
 845 05db 01D0     		addl	%edx, %eax
 846 05dd C1E003   		sall	$3, %eax
 847 05e0 01C8     		addl	%ecx, %eax
 848 05e2 83C050   		addl	$80, %eax
 849 05e5 C60000   		movb	$0, (%eax)
GAS LISTING C:\Users\jisu8\AppData\Local\Temp\cc0IqG7f.s 			page 21


 195:src/pdf417/PDFScanningDecoder.c **** 		RowIndicatorColumn->m_value._codewords[idx].m_value._endX = 0;
 850              		.loc 1 195 63
 851 05e8 8B4D10   		movl	16(%ebp), %ecx
 852 05eb 8B55F8   		movl	-8(%ebp), %edx
 853 05ee 89D0     		movl	%edx, %eax
 854 05f0 01C0     		addl	%eax, %eax
 855 05f2 01D0     		addl	%edx, %eax
 856 05f4 C1E003   		sall	$3, %eax
 857 05f7 01C8     		addl	%ecx, %eax
 858 05f9 83C05C   		addl	$92, %eax
 859 05fc C7000000 		movl	$0, (%eax)
 859      0000
 196:src/pdf417/PDFScanningDecoder.c **** 		RowIndicatorColumn->m_value._codewords[idx].m_value._rowNumber = 0;
 860              		.loc 1 196 61
 861 0602 8B4D10   		movl	16(%ebp), %ecx
 862 0605 8B55F8   		movl	-8(%ebp), %edx
 863 0608 89D0     		movl	%edx, %eax
 864 060a 01C0     		addl	%eax, %eax
 865 060c 01D0     		addl	%edx, %eax
 866 060e C1E003   		sall	$3, %eax
 867 0611 01C8     		addl	%ecx, %eax
 868 0613 83C058   		addl	$88, %eax
 869 0616 C7000000 		movl	$0, (%eax)
 869      0000
 197:src/pdf417/PDFScanningDecoder.c **** 		RowIndicatorColumn->m_value._codewords[idx].m_value._startX = 0;
 870              		.loc 1 197 66
 871 061c 8B4D10   		movl	16(%ebp), %ecx
 872 061f 8B55F8   		movl	-8(%ebp), %edx
 873 0622 89D0     		movl	%edx, %eax
 874 0624 01C0     		addl	%eax, %eax
 875 0626 01D0     		addl	%edx, %eax
 876 0628 C1E003   		sall	$3, %eax
 877 062b 01C8     		addl	%ecx, %eax
 878 062d 83C064   		addl	$100, %eax
 879 0630 C7000000 		movl	$0, (%eax)
 879      0000
 198:src/pdf417/PDFScanningDecoder.c **** 		RowIndicatorColumn->m_value._codewords[idx].m_value._value = 0;
 880              		.loc 1 198 63
 881 0636 8B4D10   		movl	16(%ebp), %ecx
 882 0639 8B55F8   		movl	-8(%ebp), %edx
 883 063c 89D0     		movl	%edx, %eax
 884 063e 01C0     		addl	%eax, %eax
 885 0640 01D0     		addl	%edx, %eax
 886 0642 C1E003   		sall	$3, %eax
 887 0645 01C8     		addl	%ecx, %eax
 888 0647 83C054   		addl	$84, %eax
 889 064a C7000000 		movl	$0, (%eax)
 889      0000
 199:src/pdf417/PDFScanningDecoder.c **** 	}
 890              		.loc 1 199 62
 891 0650 8B4D10   		movl	16(%ebp), %ecx
 892 0653 8B55F8   		movl	-8(%ebp), %edx
 893 0656 89D0     		movl	%edx, %eax
 894 0658 01C0     		addl	%eax, %eax
 895 065a 01D0     		addl	%edx, %eax
 896 065c C1E003   		sall	$3, %eax
 897 065f 01C8     		addl	%ecx, %eax
GAS LISTING C:\Users\jisu8\AppData\Local\Temp\cc0IqG7f.s 			page 22


 898 0661 83C060   		addl	$96, %eax
 899 0664 C7000000 		movl	$0, (%eax)
 899      0000
 900              	L56:
 901              		.loc 1 201 1
 902 066a 90       		nop
 903 066b 83C414   		addl	$20, %esp
 904 066e 5B       		popl	%ebx
 905              		.cfi_restore 3
 906 066f 5D       		popl	%ebp
 907              	LCFI26:
 908              		.cfi_restore 5
 909              		.cfi_def_cfa 4, 4
 910 0670 C3       		ret
 911              		.cfi_endproc
 912              	LFE12:
 913              		.section .rdata,"dr"
 914              	LC4:
 915 0176 47657452 		.ascii "GetRowIndicatorColumn \0"
 915      6F77496E 
 915      64696361 
 915      746F7243 
 915      6F6C756D 
 916              		.text
 918              	_GetRowIndicatorColumn:
 919              	LFB13:
 202:src/pdf417/PDFScanningDecoder.c **** 
 203:src/pdf417/PDFScanningDecoder.c **** static int GetRowIndicatorColumn(const BitMatrix_t * image, const BoundingBox_t * boundingBox, cons
 204:src/pdf417/PDFScanningDecoder.c **** {
 920              		.loc 1 204 1
 921              		.cfi_startproc
 922 0671 55       		pushl	%ebp
 923              	LCFI27:
 924              		.cfi_def_cfa_offset 8
 925              		.cfi_offset 5, -8
 926 0672 89E5     		movl	%esp, %ebp
 927              	LCFI28:
 928              		.cfi_def_cfa_register 5
 929 0674 83EC58   		subl	$88, %esp
 930 0677 8B4514   		movl	20(%ebp), %eax
 931 067a 8845D4   		movb	%al, -44(%ebp)
 205:src/pdf417/PDFScanningDecoder.c **** 	int length = 0;
 932              		.loc 1 205 6
 933 067d C745F400 		movl	$0, -12(%ebp)
 933      000000
 206:src/pdf417/PDFScanningDecoder.c **** 	printf("GetRowIndicatorColumn \n");
 934              		.loc 1 206 2
 935 0684 C7042476 		movl	$LC4, (%esp)
 935      010000
 936 068b E8000000 		call	_puts
 936      00
 207:src/pdf417/PDFScanningDecoder.c **** 
 208:src/pdf417/PDFScanningDecoder.c **** 	DetectionResultColumn(boundingBox,leftToRight ? Left : Right,RowIndicatorColumn);
 937              		.loc 1 208 2
 938 0690 807DD400 		cmpb	$0, -44(%ebp)
 939 0694 7407     		je	L58
 940              		.loc 1 208 2 is_stmt 0 discriminator 1
GAS LISTING C:\Users\jisu8\AppData\Local\Temp\cc0IqG7f.s 			page 23


 941 0696 BA010000 		movl	$1, %edx
 941      00
 942 069b EB05     		jmp	L59
 943              	L58:
 944              		.loc 1 208 2 discriminator 2
 945 069d BA020000 		movl	$2, %edx
 945      00
 946              	L59:
 947              		.loc 1 208 2 discriminator 4
 948 06a2 8B4520   		movl	32(%ebp), %eax
 949 06a5 89442408 		movl	%eax, 8(%esp)
 950 06a9 89542404 		movl	%edx, 4(%esp)
 951 06ad 8B450C   		movl	12(%ebp), %eax
 952 06b0 890424   		movl	%eax, (%esp)
 953 06b3 E8000000 		call	_DetectionResultColumn
 953      00
 954              	LBB4:
 209:src/pdf417/PDFScanningDecoder.c **** 
 210:src/pdf417/PDFScanningDecoder.c **** 	for (int i = 0; i < 2; i++) 
 955              		.loc 1 210 11 is_stmt 1 discriminator 4
 956 06b8 C745F000 		movl	$0, -16(%ebp)
 956      000000
 957              		.loc 1 210 2 discriminator 4
 958 06bf E9150100 		jmp	L60
 958      00
 959              	L70:
 960              	LBB5:
 211:src/pdf417/PDFScanningDecoder.c **** 	{
 212:src/pdf417/PDFScanningDecoder.c **** 		int increment = i == 0 ? 1 : -1;
 961              		.loc 1 212 30
 962 06c4 837DF000 		cmpl	$0, -16(%ebp)
 963 06c8 7507     		jne	L61
 964              		.loc 1 212 30 is_stmt 0 discriminator 1
 965 06ca B8010000 		movl	$1, %eax
 965      00
 966 06cf EB05     		jmp	L62
 967              	L61:
 968              		.loc 1 212 30 discriminator 2
 969 06d1 B8FFFFFF 		movl	$-1, %eax
 969      FF
 970              	L62:
 971              		.loc 1 212 7 is_stmt 1 discriminator 4
 972 06d6 8945E4   		movl	%eax, -28(%ebp)
 213:src/pdf417/PDFScanningDecoder.c **** 		int startColumn = (int)startPoint->m_value.x;
 973              		.loc 1 213 45 discriminator 4
 974 06d9 8B4510   		movl	16(%ebp), %eax
 975 06dc D94004   		flds	4(%eax)
 976              		.loc 1 213 7 discriminator 4
 977 06df D97DD6   		fnstcw	-42(%ebp)
 978 06e2 0FB745D6 		movzwl	-42(%ebp), %eax
 979 06e6 80CC0C   		orb	$12, %ah
 980 06e9 668945D2 		movw	%ax, -46(%ebp)
 981 06ed D96DD2   		fldcw	-46(%ebp)
 982 06f0 DB5DEC   		fistpl	-20(%ebp)
 983 06f3 D96DD6   		fldcw	-42(%ebp)
 984              	LBB6:
 214:src/pdf417/PDFScanningDecoder.c **** 		for (int imageRow = (int)startPoint->m_value.y; imageRow <= boundingBox->m_value._maxY && imageRo
GAS LISTING C:\Users\jisu8\AppData\Local\Temp\cc0IqG7f.s 			page 24


 985              		.loc 1 214 47 discriminator 4
 986 06f6 8B4510   		movl	16(%ebp), %eax
 987 06f9 D94008   		flds	8(%eax)
 988              		.loc 1 214 12 discriminator 4
 989 06fc D96DD2   		fldcw	-46(%ebp)
 990 06ff DB5DE8   		fistpl	-24(%ebp)
 991 0702 D96DD6   		fldcw	-42(%ebp)
 992              		.loc 1 214 3 discriminator 4
 993 0705 E9B10000 		jmp	L63
 993      00
 994              	L69:
 995              	LBB7:
 215:src/pdf417/PDFScanningDecoder.c **** 		{
 216:src/pdf417/PDFScanningDecoder.c **** 			Codeword_t * codeword = DetectCodeword(image, 0, image->_width, leftToRight, startColumn, imageR
 996              		.loc 1 216 28
 997 070a 0FB655D4 		movzbl	-44(%ebp), %edx
 998 070e 8B4508   		movl	8(%ebp), %eax
 999 0711 8B00     		movl	(%eax), %eax
 1000 0713 8B4D1C   		movl	28(%ebp), %ecx
 1001 0716 894C241C 		movl	%ecx, 28(%esp)
 1002 071a 8B4D18   		movl	24(%ebp), %ecx
 1003 071d 894C2418 		movl	%ecx, 24(%esp)
 1004 0721 8B4DE8   		movl	-24(%ebp), %ecx
 1005 0724 894C2414 		movl	%ecx, 20(%esp)
 1006 0728 8B4DEC   		movl	-20(%ebp), %ecx
 1007 072b 894C2410 		movl	%ecx, 16(%esp)
 1008 072f 8954240C 		movl	%edx, 12(%esp)
 1009 0733 89442408 		movl	%eax, 8(%esp)
 1010 0737 C7442404 		movl	$0, 4(%esp)
 1010      00000000 
 1011 073f 8B4508   		movl	8(%ebp), %eax
 1012 0742 890424   		movl	%eax, (%esp)
 1013 0745 E81AFCFF 		call	_DetectCodeword
 1013      FF
 1014 074a 8945E0   		movl	%eax, -32(%ebp)
 217:src/pdf417/PDFScanningDecoder.c **** 
 218:src/pdf417/PDFScanningDecoder.c **** 			if (codeword != NULL) 
 1015              		.loc 1 218 7
 1016 074d 837DE000 		cmpl	$0, -32(%ebp)
 1017 0751 743D     		je	L64
 219:src/pdf417/PDFScanningDecoder.c **** 			{
 220:src/pdf417/PDFScanningDecoder.c **** 				setCodeword(imageRow, codeword, RowIndicatorColumn,0);
 1018              		.loc 1 220 5
 1019 0753 C744240C 		movl	$0, 12(%esp)
 1019      00000000 
 1020 075b 8B4520   		movl	32(%ebp), %eax
 1021 075e 89442408 		movl	%eax, 8(%esp)
 1022 0762 8B45E0   		movl	-32(%ebp), %eax
 1023 0765 89442404 		movl	%eax, 4(%esp)
 1024 0769 8B45E8   		movl	-24(%ebp), %eax
 1025 076c 890424   		movl	%eax, (%esp)
 1026 076f E889FDFF 		call	_setCodeword
 1026      FF
 221:src/pdf417/PDFScanningDecoder.c **** 				if (leftToRight) 
 1027              		.loc 1 221 8
 1028 0774 807DD400 		cmpb	$0, -44(%ebp)
 1029 0778 740B     		je	L65
GAS LISTING C:\Users\jisu8\AppData\Local\Temp\cc0IqG7f.s 			page 25


 222:src/pdf417/PDFScanningDecoder.c **** 				{
 223:src/pdf417/PDFScanningDecoder.c **** 					startColumn = codeword->m_value._startX;
 1030              		.loc 1 223 18
 1031 077a 8B45E0   		movl	-32(%ebp), %eax
 1032 077d 8B4004   		movl	4(%eax), %eax
 1033 0780 8945EC   		movl	%eax, -20(%ebp)
 1034 0783 EB2C     		jmp	L67
 1035              	L65:
 224:src/pdf417/PDFScanningDecoder.c **** 				}
 225:src/pdf417/PDFScanningDecoder.c **** 				else 
 226:src/pdf417/PDFScanningDecoder.c **** 				{
 227:src/pdf417/PDFScanningDecoder.c **** 					startColumn = codeword->m_value._endX;
 1036              		.loc 1 227 18
 1037 0785 8B45E0   		movl	-32(%ebp), %eax
 1038 0788 8B4008   		movl	8(%eax), %eax
 1039 078b 8945EC   		movl	%eax, -20(%ebp)
 1040 078e EB21     		jmp	L67
 1041              	L64:
 228:src/pdf417/PDFScanningDecoder.c **** 				}
 229:src/pdf417/PDFScanningDecoder.c **** 			}
 230:src/pdf417/PDFScanningDecoder.c **** 			else
 231:src/pdf417/PDFScanningDecoder.c **** 			{
 232:src/pdf417/PDFScanningDecoder.c **** 				setCodeword(imageRow, codeword, RowIndicatorColumn,1);
 1042              		.loc 1 232 5
 1043 0790 C744240C 		movl	$1, 12(%esp)
 1043      01000000 
 1044 0798 8B4520   		movl	32(%ebp), %eax
 1045 079b 89442408 		movl	%eax, 8(%esp)
 1046 079f 8B45E0   		movl	-32(%ebp), %eax
 1047 07a2 89442404 		movl	%eax, 4(%esp)
 1048 07a6 8B45E8   		movl	-24(%ebp), %eax
 1049 07a9 890424   		movl	%eax, (%esp)
 1050 07ac E84CFDFF 		call	_setCodeword
 1050      FF
 1051              	L67:
 233:src/pdf417/PDFScanningDecoder.c **** 			}
 234:src/pdf417/PDFScanningDecoder.c **** 			length++;
 1052              		.loc 1 234 10 discriminator 2
 1053 07b1 8345F401 		addl	$1, -12(%ebp)
 1054              	LBE7:
 214:src/pdf417/PDFScanningDecoder.c **** 		{
 1055              		.loc 1 214 142 discriminator 2
 1056 07b5 8B45E4   		movl	-28(%ebp), %eax
 1057 07b8 0145E8   		addl	%eax, -24(%ebp)
 1058              	L63:
 214:src/pdf417/PDFScanningDecoder.c **** 		{
 1059              		.loc 1 214 83 discriminator 1
 1060 07bb 8B450C   		movl	12(%ebp), %eax
 1061 07be 8B4048   		movl	72(%eax), %eax
 214:src/pdf417/PDFScanningDecoder.c **** 		{
 1062              		.loc 1 214 3 discriminator 1
 1063 07c1 3945E8   		cmpl	%eax, -24(%ebp)
 1064 07c4 7F0F     		jg	L68
 214:src/pdf417/PDFScanningDecoder.c **** 		{
 1065              		.loc 1 214 125 discriminator 3
 1066 07c6 8B450C   		movl	12(%ebp), %eax
 1067 07c9 8B4044   		movl	68(%eax), %eax
GAS LISTING C:\Users\jisu8\AppData\Local\Temp\cc0IqG7f.s 			page 26


 214:src/pdf417/PDFScanningDecoder.c **** 		{
 1068              		.loc 1 214 90 discriminator 3
 1069 07cc 3945E8   		cmpl	%eax, -24(%ebp)
 1070 07cf 0F8D35FF 		jge	L69
 1070      FFFF
 1071              	L68:
 1072              	LBE6:
 1073              	LBE5:
 210:src/pdf417/PDFScanningDecoder.c **** 	{
 1074              		.loc 1 210 26 discriminator 2
 1075 07d5 8345F001 		addl	$1, -16(%ebp)
 1076              	L60:
 210:src/pdf417/PDFScanningDecoder.c **** 	{
 1077              		.loc 1 210 2 discriminator 1
 1078 07d9 837DF001 		cmpl	$1, -16(%ebp)
 1079 07dd 0F8EE1FE 		jle	L70
 1079      FFFF
 1080              	LBE4:
 235:src/pdf417/PDFScanningDecoder.c **** 		}
 236:src/pdf417/PDFScanningDecoder.c **** 	}
 237:src/pdf417/PDFScanningDecoder.c **** 	return length-1;
 1081              		.loc 1 237 15
 1082 07e3 8B45F4   		movl	-12(%ebp), %eax
 1083 07e6 83E801   		subl	$1, %eax
 238:src/pdf417/PDFScanningDecoder.c **** }
 1084              		.loc 1 238 1
 1085 07e9 C9       		leave
 1086              	LCFI29:
 1087              		.cfi_restore 5
 1088              		.cfi_def_cfa 4, 4
 1089 07ea C3       		ret
 1090              		.cfi_endproc
 1091              	LFE13:
 1093              	_Metadata_Init:
 1094              	LFB14:
 239:src/pdf417/PDFScanningDecoder.c **** static void Metadata_Init(BarcodeMetadata_t * Metadata)
 240:src/pdf417/PDFScanningDecoder.c **** {
 1095              		.loc 1 240 1
 1096              		.cfi_startproc
 1097 07eb 55       		pushl	%ebp
 1098              	LCFI30:
 1099              		.cfi_def_cfa_offset 8
 1100              		.cfi_offset 5, -8
 1101 07ec 89E5     		movl	%esp, %ebp
 1102              	LCFI31:
 1103              		.cfi_def_cfa_register 5
 241:src/pdf417/PDFScanningDecoder.c **** 	Metadata->_columnCount = 0;
 1104              		.loc 1 241 25
 1105 07ee 8B4508   		movl	8(%ebp), %eax
 1106 07f1 C7000000 		movl	$0, (%eax)
 1106      0000
 242:src/pdf417/PDFScanningDecoder.c **** 	Metadata->_errorCorrectionLevel = 0;
 1107              		.loc 1 242 34
 1108 07f7 8B4508   		movl	8(%ebp), %eax
 1109 07fa C7400400 		movl	$0, 4(%eax)
 1109      000000
 243:src/pdf417/PDFScanningDecoder.c **** 	Metadata->_rowCountUpperPart = 0;
GAS LISTING C:\Users\jisu8\AppData\Local\Temp\cc0IqG7f.s 			page 27


 1110              		.loc 1 243 31
 1111 0801 8B4508   		movl	8(%ebp), %eax
 1112 0804 C7400800 		movl	$0, 8(%eax)
 1112      000000
 244:src/pdf417/PDFScanningDecoder.c **** 	Metadata->_rowCountLowerPart = 0;
 1113              		.loc 1 244 31
 1114 080b 8B4508   		movl	8(%ebp), %eax
 1115 080e C7400C00 		movl	$0, 12(%eax)
 1115      000000
 245:src/pdf417/PDFScanningDecoder.c **** }
 1116              		.loc 1 245 1
 1117 0815 90       		nop
 1118 0816 5D       		popl	%ebp
 1119              	LCFI32:
 1120              		.cfi_restore 5
 1121              		.cfi_def_cfa 4, 4
 1122 0817 C3       		ret
 1123              		.cfi_endproc
 1124              	LFE14:
 1125              		.globl	_columnCount
 1127              	_columnCount:
 1128              	LFB15:
 246:src/pdf417/PDFScanningDecoder.c **** int columnCount(BarcodeMetadata_t * Metadata)
 247:src/pdf417/PDFScanningDecoder.c **** {
 1129              		.loc 1 247 1
 1130              		.cfi_startproc
 1131 0818 55       		pushl	%ebp
 1132              	LCFI33:
 1133              		.cfi_def_cfa_offset 8
 1134              		.cfi_offset 5, -8
 1135 0819 89E5     		movl	%esp, %ebp
 1136              	LCFI34:
 1137              		.cfi_def_cfa_register 5
 248:src/pdf417/PDFScanningDecoder.c **** 	return (Metadata->_columnCount);
 1138              		.loc 1 248 18
 1139 081b 8B4508   		movl	8(%ebp), %eax
 1140 081e 8B00     		movl	(%eax), %eax
 249:src/pdf417/PDFScanningDecoder.c **** }
 1141              		.loc 1 249 1
 1142 0820 5D       		popl	%ebp
 1143              	LCFI35:
 1144              		.cfi_restore 5
 1145              		.cfi_def_cfa 4, 4
 1146 0821 C3       		ret
 1147              		.cfi_endproc
 1148              	LFE15:
 1149              		.globl	_errorCorrectionLevel
 1151              	_errorCorrectionLevel:
 1152              	LFB16:
 250:src/pdf417/PDFScanningDecoder.c **** int errorCorrectionLevel(BarcodeMetadata_t * Metadata)
 251:src/pdf417/PDFScanningDecoder.c **** {
 1153              		.loc 1 251 1
 1154              		.cfi_startproc
 1155 0822 55       		pushl	%ebp
 1156              	LCFI36:
 1157              		.cfi_def_cfa_offset 8
 1158              		.cfi_offset 5, -8
GAS LISTING C:\Users\jisu8\AppData\Local\Temp\cc0IqG7f.s 			page 28


 1159 0823 89E5     		movl	%esp, %ebp
 1160              	LCFI37:
 1161              		.cfi_def_cfa_register 5
 252:src/pdf417/PDFScanningDecoder.c **** 	return (Metadata->_errorCorrectionLevel);
 1162              		.loc 1 252 18
 1163 0825 8B4508   		movl	8(%ebp), %eax
 1164 0828 8B4004   		movl	4(%eax), %eax
 253:src/pdf417/PDFScanningDecoder.c **** }
 1165              		.loc 1 253 1
 1166 082b 5D       		popl	%ebp
 1167              	LCFI38:
 1168              		.cfi_restore 5
 1169              		.cfi_def_cfa 4, 4
 1170 082c C3       		ret
 1171              		.cfi_endproc
 1172              	LFE16:
 1173              		.globl	_rowCount
 1175              	_rowCount:
 1176              	LFB17:
 254:src/pdf417/PDFScanningDecoder.c **** int rowCount(BarcodeMetadata_t * Metadata)
 255:src/pdf417/PDFScanningDecoder.c **** {
 1177              		.loc 1 255 1
 1178              		.cfi_startproc
 1179 082d 55       		pushl	%ebp
 1180              	LCFI39:
 1181              		.cfi_def_cfa_offset 8
 1182              		.cfi_offset 5, -8
 1183 082e 89E5     		movl	%esp, %ebp
 1184              	LCFI40:
 1185              		.cfi_def_cfa_register 5
 256:src/pdf417/PDFScanningDecoder.c **** 	return (Metadata->_rowCountUpperPart + Metadata->_rowCountLowerPart);
 1186              		.loc 1 256 18
 1187 0830 8B4508   		movl	8(%ebp), %eax
 1188 0833 8B5008   		movl	8(%eax), %edx
 1189              		.loc 1 256 49
 1190 0836 8B4508   		movl	8(%ebp), %eax
 1191 0839 8B400C   		movl	12(%eax), %eax
 1192              		.loc 1 256 39
 1193 083c 01D0     		addl	%edx, %eax
 257:src/pdf417/PDFScanningDecoder.c **** }
 1194              		.loc 1 257 1
 1195 083e 5D       		popl	%ebp
 1196              	LCFI41:
 1197              		.cfi_restore 5
 1198              		.cfi_def_cfa 4, 4
 1199 083f C3       		ret
 1200              		.cfi_endproc
 1201              	LFE17:
 1202              		.section .rdata,"dr"
 1203              	LC6:
 1204 018d 47657442 		.ascii "GetBarcodeMetadata \0"
 1204      6172636F 
 1204      64654D65 
 1204      74616461 
 1204      74612000 
 1205              		.text
 1207              	_GetBarcodeMetadata:
GAS LISTING C:\Users\jisu8\AppData\Local\Temp\cc0IqG7f.s 			page 29


 1208              	LFB18:
 258:src/pdf417/PDFScanningDecoder.c **** static uint8_t GetBarcodeMetadata(DetectionResultColumn_t * leftRowIndicatorColumn, DetectionResult
 259:src/pdf417/PDFScanningDecoder.c **** {
 1209              		.loc 1 259 1
 1210              		.cfi_startproc
 1211 0840 55       		pushl	%ebp
 1212              	LCFI42:
 1213              		.cfi_def_cfa_offset 8
 1214              		.cfi_offset 5, -8
 1215 0841 89E5     		movl	%esp, %ebp
 1216              	LCFI43:
 1217              		.cfi_def_cfa_register 5
 1218 0843 53       		pushl	%ebx
 1219 0844 83EC34   		subl	$52, %esp
 1220              		.cfi_offset 3, -12
 260:src/pdf417/PDFScanningDecoder.c **** 	printf("GetBarcodeMetadata \n");
 1221              		.loc 1 260 2
 1222 0847 C704248D 		movl	$LC6, (%esp)
 1222      010000
 1223 084e E8000000 		call	_puts
 1223      00
 261:src/pdf417/PDFScanningDecoder.c **** 
 262:src/pdf417/PDFScanningDecoder.c **** 	BarcodeMetadata_t leftBarcodeMetadata;
 263:src/pdf417/PDFScanningDecoder.c **** 	Metadata_Init(&leftBarcodeMetadata);
 1224              		.loc 1 263 2
 1225 0853 8D45E8   		leal	-24(%ebp), %eax
 1226 0856 890424   		movl	%eax, (%esp)
 1227 0859 E88DFFFF 		call	_Metadata_Init
 1227      FF
 264:src/pdf417/PDFScanningDecoder.c **** 	if ((leftRowIndicatorColumn == NULL) || (!getBarcodeMetadata(leftRowIndicatorColumn,&leftBarcodeMe
 1228              		.loc 1 264 5
 1229 085e 837D0800 		cmpl	$0, 8(%ebp)
 1230 0862 741D     		je	L80
 1231              		.loc 1 264 44 discriminator 1
 1232 0864 8B4514   		movl	20(%ebp), %eax
 1233 0867 89442408 		movl	%eax, 8(%esp)
 1234 086b 8D45E8   		leal	-24(%ebp), %eax
 1235 086e 89442404 		movl	%eax, 4(%esp)
 1236 0872 8B4508   		movl	8(%ebp), %eax
 1237 0875 890424   		movl	%eax, (%esp)
 1238 0878 E8000000 		call	_getBarcodeMetadata
 1238      00
 1239              		.loc 1 264 39 discriminator 1
 1240 087d 84C0     		testb	%al, %al
 1241 087f 7537     		jne	L81
 1242              	L80:
 265:src/pdf417/PDFScanningDecoder.c **** 	{
 266:src/pdf417/PDFScanningDecoder.c **** 		return (rightRowIndicatorColumn != NULL) && (getBarcodeMetadata(rightRowIndicatorColumn,result,le
 1243              		.loc 1 266 44
 1244 0881 837D0C00 		cmpl	$0, 12(%ebp)
 1245 0885 7427     		je	L82
 1246              		.loc 1 266 48 discriminator 1
 1247 0887 8B4514   		movl	20(%ebp), %eax
 1248 088a 89442408 		movl	%eax, 8(%esp)
 1249 088e 8B4510   		movl	16(%ebp), %eax
 1250 0891 89442404 		movl	%eax, 4(%esp)
 1251 0895 8B450C   		movl	12(%ebp), %eax
GAS LISTING C:\Users\jisu8\AppData\Local\Temp\cc0IqG7f.s 			page 30


 1252 0898 890424   		movl	%eax, (%esp)
 1253 089b E8000000 		call	_getBarcodeMetadata
 1253      00
 1254              		.loc 1 266 44 discriminator 1
 1255 08a0 84C0     		testb	%al, %al
 1256 08a2 740A     		je	L82
 1257              		.loc 1 266 44 is_stmt 0 discriminator 3
 1258 08a4 B8010000 		movl	$1, %eax
 1258      00
 1259 08a9 E9E80000 		jmp	L88
 1259      00
 1260              	L82:
 1261              		.loc 1 266 44 discriminator 4
 1262 08ae B8000000 		movl	$0, %eax
 1262      00
 1263 08b3 E9DE0000 		jmp	L88
 1263      00
 1264              	L81:
 267:src/pdf417/PDFScanningDecoder.c **** 	}
 268:src/pdf417/PDFScanningDecoder.c **** 
 269:src/pdf417/PDFScanningDecoder.c **** 	BarcodeMetadata_t rightBarcodeMetadata;
 270:src/pdf417/PDFScanningDecoder.c **** 	Metadata_Init(&rightBarcodeMetadata);
 1265              		.loc 1 270 2 is_stmt 1
 1266 08b8 8D45D8   		leal	-40(%ebp), %eax
 1267 08bb 890424   		movl	%eax, (%esp)
 1268 08be E828FFFF 		call	_Metadata_Init
 1268      FF
 271:src/pdf417/PDFScanningDecoder.c **** 	if ((rightRowIndicatorColumn == NULL) || (!getBarcodeMetadata(rightRowIndicatorColumn,&rightBarcod
 1269              		.loc 1 271 5
 1270 08c3 837D0C00 		cmpl	$0, 12(%ebp)
 1271 08c7 741D     		je	L85
 1272              		.loc 1 271 45 discriminator 1
 1273 08c9 8B4514   		movl	20(%ebp), %eax
 1274 08cc 89442408 		movl	%eax, 8(%esp)
 1275 08d0 8D45D8   		leal	-40(%ebp), %eax
 1276 08d3 89442404 		movl	%eax, 4(%esp)
 1277 08d7 8B450C   		movl	12(%ebp), %eax
 1278 08da 890424   		movl	%eax, (%esp)
 1279 08dd E8000000 		call	_getBarcodeMetadata
 1279      00
 1280              		.loc 1 271 40 discriminator 1
 1281 08e2 84C0     		testb	%al, %al
 1282 08e4 752D     		jne	L86
 1283              	L85:
 272:src/pdf417/PDFScanningDecoder.c **** 	{
 273:src/pdf417/PDFScanningDecoder.c **** 		result->_columnCount = leftBarcodeMetadata._columnCount;
 1284              		.loc 1 273 45
 1285 08e6 8B55E8   		movl	-24(%ebp), %edx
 1286              		.loc 1 273 24
 1287 08e9 8B4510   		movl	16(%ebp), %eax
 1288 08ec 8910     		movl	%edx, (%eax)
 274:src/pdf417/PDFScanningDecoder.c **** 		result->_errorCorrectionLevel = leftBarcodeMetadata._errorCorrectionLevel;
 1289              		.loc 1 274 54
 1290 08ee 8B55EC   		movl	-20(%ebp), %edx
 1291              		.loc 1 274 33
 1292 08f1 8B4510   		movl	16(%ebp), %eax
 1293 08f4 895004   		movl	%edx, 4(%eax)
GAS LISTING C:\Users\jisu8\AppData\Local\Temp\cc0IqG7f.s 			page 31


 275:src/pdf417/PDFScanningDecoder.c **** 		result->_rowCountUpperPart = leftBarcodeMetadata._rowCountUpperPart;
 1294              		.loc 1 275 51
 1295 08f7 8B55F0   		movl	-16(%ebp), %edx
 1296              		.loc 1 275 30
 1297 08fa 8B4510   		movl	16(%ebp), %eax
 1298 08fd 895008   		movl	%edx, 8(%eax)
 276:src/pdf417/PDFScanningDecoder.c **** 		result->_rowCountLowerPart = leftBarcodeMetadata._rowCountLowerPart;
 1299              		.loc 1 276 51
 1300 0900 8B55F4   		movl	-12(%ebp), %edx
 1301              		.loc 1 276 30
 1302 0903 8B4510   		movl	16(%ebp), %eax
 1303 0906 89500C   		movl	%edx, 12(%eax)
 277:src/pdf417/PDFScanningDecoder.c **** 		return 1;
 1304              		.loc 1 277 10
 1305 0909 B8010000 		movl	$1, %eax
 1305      00
 1306 090e E9830000 		jmp	L88
 1306      00
 1307              	L86:
 278:src/pdf417/PDFScanningDecoder.c **** 	}
 279:src/pdf417/PDFScanningDecoder.c **** 
 280:src/pdf417/PDFScanningDecoder.c **** 	if (columnCount(&leftBarcodeMetadata) != columnCount(&rightBarcodeMetadata) &&
 1308              		.loc 1 280 6
 1309 0913 8D45E8   		leal	-24(%ebp), %eax
 1310 0916 890424   		movl	%eax, (%esp)
 1311 0919 E8FAFEFF 		call	_columnCount
 1311      FF
 1312 091e 89C3     		movl	%eax, %ebx
 1313              		.loc 1 280 43
 1314 0920 8D45D8   		leal	-40(%ebp), %eax
 1315 0923 890424   		movl	%eax, (%esp)
 1316 0926 E8EDFEFF 		call	_columnCount
 1316      FF
 1317              		.loc 1 280 5
 1318 092b 39C3     		cmpl	%eax, %ebx
 1319 092d 743F     		je	L87
 281:src/pdf417/PDFScanningDecoder.c **** 		errorCorrectionLevel(&leftBarcodeMetadata) != errorCorrectionLevel(&rightBarcodeMetadata) &&
 1320              		.loc 1 281 3 discriminator 1
 1321 092f 8D45E8   		leal	-24(%ebp), %eax
 1322 0932 890424   		movl	%eax, (%esp)
 1323 0935 E8E8FEFF 		call	_errorCorrectionLevel
 1323      FF
 1324 093a 89C3     		movl	%eax, %ebx
 1325              		.loc 1 281 49 discriminator 1
 1326 093c 8D45D8   		leal	-40(%ebp), %eax
 1327 093f 890424   		movl	%eax, (%esp)
 1328 0942 E8DBFEFF 		call	_errorCorrectionLevel
 1328      FF
 280:src/pdf417/PDFScanningDecoder.c **** 		errorCorrectionLevel(&leftBarcodeMetadata) != errorCorrectionLevel(&rightBarcodeMetadata) &&
 1329              		.loc 1 280 78 discriminator 1
 1330 0947 39C3     		cmpl	%eax, %ebx
 1331 0949 7423     		je	L87
 282:src/pdf417/PDFScanningDecoder.c **** 		rowCount(&leftBarcodeMetadata) != rowCount(&rightBarcodeMetadata)) 
 1332              		.loc 1 282 3
 1333 094b 8D45E8   		leal	-24(%ebp), %eax
 1334 094e 890424   		movl	%eax, (%esp)
 1335 0951 E8D7FEFF 		call	_rowCount
GAS LISTING C:\Users\jisu8\AppData\Local\Temp\cc0IqG7f.s 			page 32


 1335      FF
 1336 0956 89C3     		movl	%eax, %ebx
 1337              		.loc 1 282 37
 1338 0958 8D45D8   		leal	-40(%ebp), %eax
 1339 095b 890424   		movl	%eax, (%esp)
 1340 095e E8CAFEFF 		call	_rowCount
 1340      FF
 281:src/pdf417/PDFScanningDecoder.c **** 		errorCorrectionLevel(&leftBarcodeMetadata) != errorCorrectionLevel(&rightBarcodeMetadata) &&
 1341              		.loc 1 281 93
 1342 0963 39C3     		cmpl	%eax, %ebx
 1343 0965 7407     		je	L87
 283:src/pdf417/PDFScanningDecoder.c **** 	{
 284:src/pdf417/PDFScanningDecoder.c **** 		return 0;
 1344              		.loc 1 284 10
 1345 0967 B8000000 		movl	$0, %eax
 1345      00
 1346 096c EB28     		jmp	L88
 1347              	L87:
 285:src/pdf417/PDFScanningDecoder.c **** 	}
 286:src/pdf417/PDFScanningDecoder.c **** 	result->_columnCount = leftBarcodeMetadata._columnCount;
 1348              		.loc 1 286 44
 1349 096e 8B55E8   		movl	-24(%ebp), %edx
 1350              		.loc 1 286 23
 1351 0971 8B4510   		movl	16(%ebp), %eax
 1352 0974 8910     		movl	%edx, (%eax)
 287:src/pdf417/PDFScanningDecoder.c **** 	result->_errorCorrectionLevel = leftBarcodeMetadata._errorCorrectionLevel;
 1353              		.loc 1 287 53
 1354 0976 8B55EC   		movl	-20(%ebp), %edx
 1355              		.loc 1 287 32
 1356 0979 8B4510   		movl	16(%ebp), %eax
 1357 097c 895004   		movl	%edx, 4(%eax)
 288:src/pdf417/PDFScanningDecoder.c **** 	result->_rowCountUpperPart = leftBarcodeMetadata._rowCountUpperPart;
 1358              		.loc 1 288 50
 1359 097f 8B55F0   		movl	-16(%ebp), %edx
 1360              		.loc 1 288 29
 1361 0982 8B4510   		movl	16(%ebp), %eax
 1362 0985 895008   		movl	%edx, 8(%eax)
 289:src/pdf417/PDFScanningDecoder.c **** 	result->_rowCountLowerPart = leftBarcodeMetadata._rowCountLowerPart;
 1363              		.loc 1 289 50
 1364 0988 8B55F4   		movl	-12(%ebp), %edx
 1365              		.loc 1 289 29
 1366 098b 8B4510   		movl	16(%ebp), %eax
 1367 098e 89500C   		movl	%edx, 12(%eax)
 290:src/pdf417/PDFScanningDecoder.c **** 	return 1;
 1368              		.loc 1 290 9
 1369 0991 B8010000 		movl	$1, %eax
 1369      00
 1370              	L88:
 291:src/pdf417/PDFScanningDecoder.c **** }
 1371              		.loc 1 291 1 discriminator 1
 1372 0996 83C434   		addl	$52, %esp
 1373 0999 5B       		popl	%ebx
 1374              		.cfi_restore 3
 1375 099a 5D       		popl	%ebp
 1376              	LCFI44:
 1377              		.cfi_restore 5
 1378              		.cfi_def_cfa 4, 4
GAS LISTING C:\Users\jisu8\AppData\Local\Temp\cc0IqG7f.s 			page 33


 1379 099b C3       		ret
 1380              		.cfi_endproc
 1381              	LFE18:
 1383              	_GetMax:
 1384              	LFB19:
 292:src/pdf417/PDFScanningDecoder.c **** 
 293:src/pdf417/PDFScanningDecoder.c **** #if 0
 294:src/pdf417/PDFScanningDecoder.c **** template <typename Iter>
 295:src/pdf417/PDFScanningDecoder.c **** static auto GetMax(Iter start, Iter end) -> typename std::remove_reference<decltype(*start)>::type
 296:src/pdf417/PDFScanningDecoder.c **** {
 297:src/pdf417/PDFScanningDecoder.c **** 	auto it = std::max_element(start, end);
 298:src/pdf417/PDFScanningDecoder.c **** 	return it != end ? *it : -1;
 299:src/pdf417/PDFScanningDecoder.c **** }
 300:src/pdf417/PDFScanningDecoder.c **** 
 301:src/pdf417/PDFScanningDecoder.c **** #endif
 302:src/pdf417/PDFScanningDecoder.c **** static int GetMax(int * buffer, int length)
 303:src/pdf417/PDFScanningDecoder.c **** {
 1385              		.loc 1 303 1
 1386              		.cfi_startproc
 1387 099c 55       		pushl	%ebp
 1388              	LCFI45:
 1389              		.cfi_def_cfa_offset 8
 1390              		.cfi_offset 5, -8
 1391 099d 89E5     		movl	%esp, %ebp
 1392              	LCFI46:
 1393              		.cfi_def_cfa_register 5
 1394 099f 83EC10   		subl	$16, %esp
 304:src/pdf417/PDFScanningDecoder.c **** 	int ret_max = 0;
 1395              		.loc 1 304 6
 1396 09a2 C745FC00 		movl	$0, -4(%ebp)
 1396      000000
 1397              	LBB8:
 305:src/pdf417/PDFScanningDecoder.c **** 
 306:src/pdf417/PDFScanningDecoder.c **** 	for(int i=0;i<length;i++)
 1398              		.loc 1 306 10
 1399 09a9 C745F800 		movl	$0, -8(%ebp)
 1399      000000
 1400              		.loc 1 306 2
 1401 09b0 EB2E     		jmp	L90
 1402              	L92:
 307:src/pdf417/PDFScanningDecoder.c **** 	{
 308:src/pdf417/PDFScanningDecoder.c **** 		if(buffer[i]>ret_max)
 1403              		.loc 1 308 12
 1404 09b2 8B45F8   		movl	-8(%ebp), %eax
 1405 09b5 8D148500 		leal	0(,%eax,4), %edx
 1405      000000
 1406 09bc 8B4508   		movl	8(%ebp), %eax
 1407 09bf 01D0     		addl	%edx, %eax
 1408 09c1 8B00     		movl	(%eax), %eax
 1409              		.loc 1 308 5
 1410 09c3 3945FC   		cmpl	%eax, -4(%ebp)
 1411 09c6 7D14     		jge	L91
 309:src/pdf417/PDFScanningDecoder.c **** 		{
 310:src/pdf417/PDFScanningDecoder.c **** 			ret_max = buffer[i];
 1412              		.loc 1 310 20
 1413 09c8 8B45F8   		movl	-8(%ebp), %eax
 1414 09cb 8D148500 		leal	0(,%eax,4), %edx
GAS LISTING C:\Users\jisu8\AppData\Local\Temp\cc0IqG7f.s 			page 34


 1414      000000
 1415 09d2 8B4508   		movl	8(%ebp), %eax
 1416 09d5 01D0     		addl	%edx, %eax
 1417              		.loc 1 310 12
 1418 09d7 8B00     		movl	(%eax), %eax
 1419 09d9 8945FC   		movl	%eax, -4(%ebp)
 1420              	L91:
 306:src/pdf417/PDFScanningDecoder.c **** 	{
 1421              		.loc 1 306 24 discriminator 2
 1422 09dc 8345F801 		addl	$1, -8(%ebp)
 1423              	L90:
 306:src/pdf417/PDFScanningDecoder.c **** 	{
 1424              		.loc 1 306 2 discriminator 1
 1425 09e0 8B45F8   		movl	-8(%ebp), %eax
 1426 09e3 3B450C   		cmpl	12(%ebp), %eax
 1427 09e6 7CCA     		jl	L92
 1428              	LBE8:
 311:src/pdf417/PDFScanningDecoder.c **** 		}
 312:src/pdf417/PDFScanningDecoder.c **** 	}
 313:src/pdf417/PDFScanningDecoder.c **** 
 314:src/pdf417/PDFScanningDecoder.c **** 	return ret_max;
 1429              		.loc 1 314 9
 1430 09e8 8B45FC   		movl	-4(%ebp), %eax
 315:src/pdf417/PDFScanningDecoder.c **** }
 1431              		.loc 1 315 1
 1432 09eb C9       		leave
 1433              	LCFI47:
 1434              		.cfi_restore 5
 1435              		.cfi_def_cfa 4, 4
 1436 09ec C3       		ret
 1437              		.cfi_endproc
 1438              	LFE19:
 1439              		.section .rdata,"dr"
 1440              	LC7:
 1441 01a1 41646A75 		.ascii "AdjustBoundingBox \0"
 1441      7374426F 
 1441      756E6469 
 1441      6E67426F 
 1441      782000
 1442              		.text
 1444              	_AdjustBoundingBox:
 1445              	LFB20:
 316:src/pdf417/PDFScanningDecoder.c **** static uint8_t AdjustBoundingBox(DetectionResultColumn_t * rowIndicatorColumn, BoundingBox_t * resu
 317:src/pdf417/PDFScanningDecoder.c **** {
 1446              		.loc 1 317 1
 1447              		.cfi_startproc
 1448 09ed 55       		pushl	%ebp
 1449              	LCFI48:
 1450              		.cfi_def_cfa_offset 8
 1451              		.cfi_offset 5, -8
 1452 09ee 89E5     		movl	%esp, %ebp
 1453              	LCFI49:
 1454              		.cfi_def_cfa_register 5
 1455 09f0 57       		pushl	%edi
 1456 09f1 56       		pushl	%esi
 1457 09f2 81EC7002 		subl	$624, %esp
 1457      0000
GAS LISTING C:\Users\jisu8\AppData\Local\Temp\cc0IqG7f.s 			page 35


 1458              		.cfi_offset 7, -12
 1459              		.cfi_offset 6, -16
 318:src/pdf417/PDFScanningDecoder.c **** 	printf("AdjustBoundingBox \n");
 1460              		.loc 1 318 2
 1461 09f8 C70424A1 		movl	$LC7, (%esp)
 1461      010000
 1462 09ff E8000000 		call	_puts
 1462      00
 319:src/pdf417/PDFScanningDecoder.c **** 	
 320:src/pdf417/PDFScanningDecoder.c **** 	if (rowIndicatorColumn->m_hasValue == 0)
 1463              		.loc 1 320 24
 1464 0a04 8B4508   		movl	8(%ebp), %eax
 1465 0a07 0FB600   		movzbl	(%eax), %eax
 1466              		.loc 1 320 5
 1467 0a0a 84C0     		testb	%al, %al
 1468 0a0c 7510     		jne	L95
 321:src/pdf417/PDFScanningDecoder.c **** 	{
 322:src/pdf417/PDFScanningDecoder.c **** 		result->m_hasValue = 0;
 1469              		.loc 1 322 22
 1470 0a0e 8B450C   		movl	12(%ebp), %eax
 1471 0a11 C60000   		movb	$0, (%eax)
 323:src/pdf417/PDFScanningDecoder.c **** 		return 1;
 1472              		.loc 1 323 10
 1473 0a14 B8010000 		movl	$1, %eax
 1473      00
 1474 0a19 E9C90100 		jmp	L113
 1474      00
 1475              	L95:
 324:src/pdf417/PDFScanningDecoder.c **** 	}
 325:src/pdf417/PDFScanningDecoder.c **** 
 326:src/pdf417/PDFScanningDecoder.c **** 	int rowHeights[100];
 327:src/pdf417/PDFScanningDecoder.c **** 	int size = 0;
 1476              		.loc 1 327 6
 1477 0a1e C78544FE 		movl	$0, -444(%ebp)
 1477      FFFF0000 
 1477      0000
 328:src/pdf417/PDFScanningDecoder.c **** 	if (!getRowHeights(rowIndicatorColumn,&rowHeights,length,&size)) 
 1478              		.loc 1 328 7
 1479 0a28 8D8544FE 		leal	-444(%ebp), %eax
 1479      FFFF
 1480 0a2e 8944240C 		movl	%eax, 12(%esp)
 1481 0a32 8B4510   		movl	16(%ebp), %eax
 1482 0a35 89442408 		movl	%eax, 8(%esp)
 1483 0a39 8D8548FE 		leal	-440(%ebp), %eax
 1483      FFFF
 1484 0a3f 89442404 		movl	%eax, 4(%esp)
 1485 0a43 8B4508   		movl	8(%ebp), %eax
 1486 0a46 890424   		movl	%eax, (%esp)
 1487 0a49 E8000000 		call	_getRowHeights
 1487      00
 1488              		.loc 1 328 5
 1489 0a4e 84C0     		testb	%al, %al
 1490 0a50 7511     		jne	L97
 329:src/pdf417/PDFScanningDecoder.c **** 	{
 330:src/pdf417/PDFScanningDecoder.c **** 		result = NULL;
 1491              		.loc 1 330 10
 1492 0a52 C7450C00 		movl	$0, 12(%ebp)
GAS LISTING C:\Users\jisu8\AppData\Local\Temp\cc0IqG7f.s 			page 36


 1492      000000
 331:src/pdf417/PDFScanningDecoder.c **** 		return 1;
 1493              		.loc 1 331 10
 1494 0a59 B8010000 		movl	$1, %eax
 1494      00
 1495 0a5e E9840100 		jmp	L113
 1495      00
 1496              	L97:
 332:src/pdf417/PDFScanningDecoder.c **** 	}
 333:src/pdf417/PDFScanningDecoder.c **** 
 334:src/pdf417/PDFScanningDecoder.c **** 	int maxRowHeight = GetMax(rowHeights,size);
 1497              		.loc 1 334 21
 1498 0a63 8B8544FE 		movl	-444(%ebp), %eax
 1498      FFFF
 1499 0a69 89442404 		movl	%eax, 4(%esp)
 1500 0a6d 8D8548FE 		leal	-440(%ebp), %eax
 1500      FFFF
 1501 0a73 890424   		movl	%eax, (%esp)
 1502 0a76 E821FFFF 		call	_GetMax
 1502      FF
 1503 0a7b 8945DC   		movl	%eax, -36(%ebp)
 335:src/pdf417/PDFScanningDecoder.c **** 	int missingStartRows = 0;
 1504              		.loc 1 335 6
 1505 0a7e C745F400 		movl	$0, -12(%ebp)
 1505      000000
 1506              	LBB9:
 336:src/pdf417/PDFScanningDecoder.c **** 	for (int i=0;i<size;i++) 
 1507              		.loc 1 336 11
 1508 0a85 C745F000 		movl	$0, -16(%ebp)
 1508      000000
 1509              		.loc 1 336 2
 1510 0a8c EB26     		jmp	L98
 1511              	L101:
 337:src/pdf417/PDFScanningDecoder.c **** 	{
 338:src/pdf417/PDFScanningDecoder.c **** 		missingStartRows += maxRowHeight - rowHeights[i];
 1512              		.loc 1 338 48
 1513 0a8e 8B45F0   		movl	-16(%ebp), %eax
 1514 0a91 8B848548 		movl	-440(%ebp,%eax,4), %eax
 1514      FEFFFF
 1515              		.loc 1 338 36
 1516 0a98 8B55DC   		movl	-36(%ebp), %edx
 1517 0a9b 29C2     		subl	%eax, %edx
 1518 0a9d 89D0     		movl	%edx, %eax
 1519              		.loc 1 338 20
 1520 0a9f 0145F4   		addl	%eax, -12(%ebp)
 339:src/pdf417/PDFScanningDecoder.c **** 		if (rowHeights[i] > 0) 
 1521              		.loc 1 339 17
 1522 0aa2 8B45F0   		movl	-16(%ebp), %eax
 1523 0aa5 8B848548 		movl	-440(%ebp,%eax,4), %eax
 1523      FEFFFF
 1524              		.loc 1 339 6
 1525 0aac 85C0     		testl	%eax, %eax
 1526 0aae 7F11     		jg	L114
 336:src/pdf417/PDFScanningDecoder.c **** 	for (int i=0;i<size;i++) 
 1527              		.loc 1 336 23 discriminator 2
 1528 0ab0 8345F001 		addl	$1, -16(%ebp)
 1529              	L98:
GAS LISTING C:\Users\jisu8\AppData\Local\Temp\cc0IqG7f.s 			page 37


 336:src/pdf417/PDFScanningDecoder.c **** 	for (int i=0;i<size;i++) 
 1530              		.loc 1 336 16 discriminator 1
 1531 0ab4 8B8544FE 		movl	-444(%ebp), %eax
 1531      FFFF
 336:src/pdf417/PDFScanningDecoder.c **** 	for (int i=0;i<size;i++) 
 1532              		.loc 1 336 2 discriminator 1
 1533 0aba 3945F0   		cmpl	%eax, -16(%ebp)
 1534 0abd 7CCF     		jl	L101
 1535 0abf EB01     		jmp	L100
 1536              	L114:
 340:src/pdf417/PDFScanningDecoder.c **** 		{
 341:src/pdf417/PDFScanningDecoder.c **** 			break;
 1537              		.loc 1 341 4
 1538 0ac1 90       		nop
 1539              	L100:
 1540              	LBE9:
 342:src/pdf417/PDFScanningDecoder.c **** 		}
 343:src/pdf417/PDFScanningDecoder.c **** 	}
 344:src/pdf417/PDFScanningDecoder.c **** 
 345:src/pdf417/PDFScanningDecoder.c **** 	Codeword_t * codewords = rowIndicatorColumn->m_value._codewords;
 1541              		.loc 1 345 15
 1542 0ac2 8B4508   		movl	8(%ebp), %eax
 1543 0ac5 83C050   		addl	$80, %eax
 1544 0ac8 8945D8   		movl	%eax, -40(%ebp)
 1545              	LBB10:
 346:src/pdf417/PDFScanningDecoder.c **** 	for (int row = 0; (missingStartRows > 0) && ((codewords+row)->m_hasValue == 0); row++) 
 1546              		.loc 1 346 11
 1547 0acb C745EC00 		movl	$0, -20(%ebp)
 1547      000000
 1548              		.loc 1 346 2
 1549 0ad2 EB08     		jmp	L102
 1550              	L104:
 347:src/pdf417/PDFScanningDecoder.c **** 	{
 348:src/pdf417/PDFScanningDecoder.c **** 		missingStartRows--;
 1551              		.loc 1 348 19 discriminator 4
 1552 0ad4 836DF401 		subl	$1, -12(%ebp)
 346:src/pdf417/PDFScanningDecoder.c **** 	for (int row = 0; (missingStartRows > 0) && ((codewords+row)->m_hasValue == 0); row++) 
 1553              		.loc 1 346 85 discriminator 4
 1554 0ad8 8345EC01 		addl	$1, -20(%ebp)
 1555              	L102:
 346:src/pdf417/PDFScanningDecoder.c **** 	for (int row = 0; (missingStartRows > 0) && ((codewords+row)->m_hasValue == 0); row++) 
 1556              		.loc 1 346 2 discriminator 1
 1557 0adc 837DF400 		cmpl	$0, -12(%ebp)
 1558 0ae0 7E1A     		jle	L103
 346:src/pdf417/PDFScanningDecoder.c **** 	for (int row = 0; (missingStartRows > 0) && ((codewords+row)->m_hasValue == 0); row++) 
 1559              		.loc 1 346 57 discriminator 3
 1560 0ae2 8B55EC   		movl	-20(%ebp), %edx
 1561 0ae5 89D0     		movl	%edx, %eax
 1562 0ae7 01C0     		addl	%eax, %eax
 1563 0ae9 01D0     		addl	%edx, %eax
 1564 0aeb C1E003   		sall	$3, %eax
 1565 0aee 89C2     		movl	%eax, %edx
 1566 0af0 8B45D8   		movl	-40(%ebp), %eax
 1567 0af3 01D0     		addl	%edx, %eax
 346:src/pdf417/PDFScanningDecoder.c **** 	for (int row = 0; (missingStartRows > 0) && ((codewords+row)->m_hasValue == 0); row++) 
 1568              		.loc 1 346 62 discriminator 3
 1569 0af5 0FB600   		movzbl	(%eax), %eax
GAS LISTING C:\Users\jisu8\AppData\Local\Temp\cc0IqG7f.s 			page 38


 346:src/pdf417/PDFScanningDecoder.c **** 	for (int row = 0; (missingStartRows > 0) && ((codewords+row)->m_hasValue == 0); row++) 
 1570              		.loc 1 346 43 discriminator 3
 1571 0af8 84C0     		testb	%al, %al
 1572 0afa 74D8     		je	L104
 1573              	L103:
 1574              	LBE10:
 349:src/pdf417/PDFScanningDecoder.c **** 	}
 350:src/pdf417/PDFScanningDecoder.c **** 
 351:src/pdf417/PDFScanningDecoder.c **** 	int missingEndRows = 0;
 1575              		.loc 1 351 6
 1576 0afc C745E800 		movl	$0, -24(%ebp)
 1576      000000
 1577              	LBB11:
 352:src/pdf417/PDFScanningDecoder.c **** 	for (int row = size - 1; row >= 0; row--) 
 1578              		.loc 1 352 22
 1579 0b03 8B8544FE 		movl	-444(%ebp), %eax
 1579      FFFF
 1580              		.loc 1 352 11
 1581 0b09 83E801   		subl	$1, %eax
 1582 0b0c 8945E4   		movl	%eax, -28(%ebp)
 1583              		.loc 1 352 2
 1584 0b0f EB26     		jmp	L105
 1585              	L108:
 353:src/pdf417/PDFScanningDecoder.c **** 	{
 354:src/pdf417/PDFScanningDecoder.c **** 		missingEndRows += maxRowHeight - rowHeights[row];
 1586              		.loc 1 354 46
 1587 0b11 8B45E4   		movl	-28(%ebp), %eax
 1588 0b14 8B848548 		movl	-440(%ebp,%eax,4), %eax
 1588      FEFFFF
 1589              		.loc 1 354 34
 1590 0b1b 8B55DC   		movl	-36(%ebp), %edx
 1591 0b1e 29C2     		subl	%eax, %edx
 1592 0b20 89D0     		movl	%edx, %eax
 1593              		.loc 1 354 18
 1594 0b22 0145E8   		addl	%eax, -24(%ebp)
 355:src/pdf417/PDFScanningDecoder.c **** 		if (rowHeights[row] > 0) 
 1595              		.loc 1 355 17
 1596 0b25 8B45E4   		movl	-28(%ebp), %eax
 1597 0b28 8B848548 		movl	-440(%ebp,%eax,4), %eax
 1597      FEFFFF
 1598              		.loc 1 355 6
 1599 0b2f 85C0     		testl	%eax, %eax
 1600 0b31 7F0C     		jg	L115
 352:src/pdf417/PDFScanningDecoder.c **** 	for (int row = size - 1; row >= 0; row--) 
 1601              		.loc 1 352 40 discriminator 2
 1602 0b33 836DE401 		subl	$1, -28(%ebp)
 1603              	L105:
 352:src/pdf417/PDFScanningDecoder.c **** 	for (int row = size - 1; row >= 0; row--) 
 1604              		.loc 1 352 2 discriminator 1
 1605 0b37 837DE400 		cmpl	$0, -28(%ebp)
 1606 0b3b 79D4     		jns	L108
 1607 0b3d EB01     		jmp	L107
 1608              	L115:
 356:src/pdf417/PDFScanningDecoder.c **** 		{
 357:src/pdf417/PDFScanningDecoder.c **** 			break;
 1609              		.loc 1 357 4
 1610 0b3f 90       		nop
GAS LISTING C:\Users\jisu8\AppData\Local\Temp\cc0IqG7f.s 			page 39


 1611              	L107:
 1612              	LBE11:
 1613              	LBB12:
 358:src/pdf417/PDFScanningDecoder.c **** 		}
 359:src/pdf417/PDFScanningDecoder.c **** 	}
 360:src/pdf417/PDFScanningDecoder.c **** 	for (int row = length - 1; missingEndRows > 0 && ((codewords+row)->m_hasValue == 0); row--) 
 1614              		.loc 1 360 11
 1615 0b40 8B4510   		movl	16(%ebp), %eax
 1616 0b43 83E801   		subl	$1, %eax
 1617 0b46 8945E0   		movl	%eax, -32(%ebp)
 1618              		.loc 1 360 2
 1619 0b49 EB08     		jmp	L109
 1620              	L111:
 361:src/pdf417/PDFScanningDecoder.c **** 	{
 362:src/pdf417/PDFScanningDecoder.c **** 		missingEndRows--;
 1621              		.loc 1 362 17 discriminator 4
 1622 0b4b 836DE801 		subl	$1, -24(%ebp)
 360:src/pdf417/PDFScanningDecoder.c **** 	{
 1623              		.loc 1 360 90 discriminator 4
 1624 0b4f 836DE001 		subl	$1, -32(%ebp)
 1625              	L109:
 360:src/pdf417/PDFScanningDecoder.c **** 	{
 1626              		.loc 1 360 2 discriminator 1
 1627 0b53 837DE800 		cmpl	$0, -24(%ebp)
 1628 0b57 7E1A     		jle	L110
 360:src/pdf417/PDFScanningDecoder.c **** 	{
 1629              		.loc 1 360 62 discriminator 3
 1630 0b59 8B55E0   		movl	-32(%ebp), %edx
 1631 0b5c 89D0     		movl	%edx, %eax
 1632 0b5e 01C0     		addl	%eax, %eax
 1633 0b60 01D0     		addl	%edx, %eax
 1634 0b62 C1E003   		sall	$3, %eax
 1635 0b65 89C2     		movl	%eax, %edx
 1636 0b67 8B45D8   		movl	-40(%ebp), %eax
 1637 0b6a 01D0     		addl	%edx, %eax
 360:src/pdf417/PDFScanningDecoder.c **** 	{
 1638              		.loc 1 360 67 discriminator 3
 1639 0b6c 0FB600   		movzbl	(%eax), %eax
 360:src/pdf417/PDFScanningDecoder.c **** 	{
 1640              		.loc 1 360 48 discriminator 3
 1641 0b6f 84C0     		testb	%al, %al
 1642 0b71 74D8     		je	L111
 1643              	L110:
 1644              	LBE12:
 363:src/pdf417/PDFScanningDecoder.c **** 	}
 364:src/pdf417/PDFScanningDecoder.c **** 	BoundingBox_t box;
 365:src/pdf417/PDFScanningDecoder.c **** 	BoundingBox_t boundingBox = rowIndicatorColumn->m_value._boundingBox;
 1645              		.loc 1 365 16
 1646 0b73 8B5508   		movl	8(%ebp), %edx
 1647 0b76 8D85ACFD 		leal	-596(%ebp), %eax
 1647      FFFF
 1648 0b7c 83C204   		addl	$4, %edx
 1649 0b7f B9130000 		movl	$19, %ecx
 1649      00
 1650 0b84 89C7     		movl	%eax, %edi
 1651 0b86 89D6     		movl	%edx, %esi
 1652 0b88 F3A5     		rep movsl
GAS LISTING C:\Users\jisu8\AppData\Local\Temp\cc0IqG7f.s 			page 40


 1653              	LBB13:
 366:src/pdf417/PDFScanningDecoder.c **** 	if (AddMissingRows(&boundingBox, missingStartRows, missingEndRows, isLeftRowIndicator(rowIndicator
 1654              		.loc 1 366 69
 1655 0b8a 8B4508   		movl	8(%ebp), %eax
 1656 0b8d 890424   		movl	%eax, (%esp)
 1657 0b90 E8000000 		call	_isLeftRowIndicator
 1657      00
 1658              		.loc 1 366 6
 1659 0b95 0FB6C0   		movzbl	%al, %eax
 1660 0b98 8D95F8FD 		leal	-520(%ebp), %edx
 1660      FFFF
 1661 0b9e 89542410 		movl	%edx, 16(%esp)
 1662 0ba2 8944240C 		movl	%eax, 12(%esp)
 1663 0ba6 8B45E8   		movl	-24(%ebp), %eax
 1664 0ba9 89442408 		movl	%eax, 8(%esp)
 1665 0bad 8B45F4   		movl	-12(%ebp), %eax
 1666 0bb0 89442404 		movl	%eax, 4(%esp)
 1667 0bb4 8D85ACFD 		leal	-596(%ebp), %eax
 1667      FFFF
 1668 0bba 890424   		movl	%eax, (%esp)
 1669 0bbd E8000000 		call	_AddMissingRows
 1669      00
 1670              		.loc 1 366 5
 1671 0bc2 84C0     		testb	%al, %al
 1672 0bc4 741C     		je	L112
 367:src/pdf417/PDFScanningDecoder.c **** 	{
 368:src/pdf417/PDFScanningDecoder.c **** 		copy(&box,result);
 1673              		.loc 1 368 3
 1674 0bc6 8B450C   		movl	12(%ebp), %eax
 1675 0bc9 89442404 		movl	%eax, 4(%esp)
 1676 0bcd 8D85F8FD 		leal	-520(%ebp), %eax
 1676      FFFF
 1677 0bd3 890424   		movl	%eax, (%esp)
 1678 0bd6 E8000000 		call	_copy
 1678      00
 369:src/pdf417/PDFScanningDecoder.c **** 		return 1;
 1679              		.loc 1 369 10
 1680 0bdb B8010000 		movl	$1, %eax
 1680      00
 1681 0be0 EB05     		jmp	L113
 1682              	L112:
 1683              	LBE13:
 370:src/pdf417/PDFScanningDecoder.c **** 	}
 371:src/pdf417/PDFScanningDecoder.c **** 
 372:src/pdf417/PDFScanningDecoder.c **** 	return 0;
 1684              		.loc 1 372 9
 1685 0be2 B8000000 		movl	$0, %eax
 1685      00
 1686              	L113:
 373:src/pdf417/PDFScanningDecoder.c **** }
 1687              		.loc 1 373 1 discriminator 1
 1688 0be7 81C47002 		addl	$624, %esp
 1688      0000
 1689 0bed 5E       		popl	%esi
 1690              		.cfi_restore 6
 1691 0bee 5F       		popl	%edi
 1692              		.cfi_restore 7
GAS LISTING C:\Users\jisu8\AppData\Local\Temp\cc0IqG7f.s 			page 41


 1693 0bef 5D       		popl	%ebp
 1694              	LCFI50:
 1695              		.cfi_restore 5
 1696              		.cfi_def_cfa 4, 4
 1697 0bf0 C3       		ret
 1698              		.cfi_endproc
 1699              	LFE20:
 1701              	_Merge:
 1702              	LFB21:
 374:src/pdf417/PDFScanningDecoder.c **** 
 375:src/pdf417/PDFScanningDecoder.c **** 
 376:src/pdf417/PDFScanningDecoder.c **** static uint8_t Merge(DetectionResultColumn_t * leftRowIndicatorColumn, DetectionResultColumn_t * ri
 377:src/pdf417/PDFScanningDecoder.c **** {
 1703              		.loc 1 377 1
 1704              		.cfi_startproc
 1705 0bf1 55       		pushl	%ebp
 1706              	LCFI51:
 1707              		.cfi_def_cfa_offset 8
 1708              		.cfi_offset 5, -8
 1709 0bf2 89E5     		movl	%esp, %ebp
 1710              	LCFI52:
 1711              		.cfi_def_cfa_register 5
 1712 0bf4 81EC1801 		subl	$280, %esp
 1712      0000
 378:src/pdf417/PDFScanningDecoder.c **** 	if (leftRowIndicatorColumn != NULL || rightRowIndicatorColumn != NULL) 
 1713              		.loc 1 378 5
 1714 0bfa 837D0800 		cmpl	$0, 8(%ebp)
 1715 0bfe 750A     		jne	L117
 1716              		.loc 1 378 37 discriminator 1
 1717 0c00 837D0C00 		cmpl	$0, 12(%ebp)
 1718 0c04 0F84B600 		je	L118
 1718      0000
 1719              	L117:
 1720              	LBB14:
 379:src/pdf417/PDFScanningDecoder.c **** 	{
 380:src/pdf417/PDFScanningDecoder.c **** 		BarcodeMetadata_t barcodeMetadata;
 381:src/pdf417/PDFScanningDecoder.c **** 		Metadata_Init(&barcodeMetadata);
 1721              		.loc 1 381 3
 1722 0c0a 8D45E8   		leal	-24(%ebp), %eax
 1723 0c0d 890424   		movl	%eax, (%esp)
 1724 0c10 E8D6FBFF 		call	_Metadata_Init
 1724      FF
 382:src/pdf417/PDFScanningDecoder.c **** 		if (GetBarcodeMetadata(leftRowIndicatorColumn, rightRowIndicatorColumn, &barcodeMetadata,length))
 1725              		.loc 1 382 7
 1726 0c15 8B4514   		movl	20(%ebp), %eax
 1727 0c18 8944240C 		movl	%eax, 12(%esp)
 1728 0c1c 8D45E8   		leal	-24(%ebp), %eax
 1729 0c1f 89442408 		movl	%eax, 8(%esp)
 1730 0c23 8B450C   		movl	12(%ebp), %eax
 1731 0c26 89442404 		movl	%eax, 4(%esp)
 1732 0c2a 8B4508   		movl	8(%ebp), %eax
 1733 0c2d 890424   		movl	%eax, (%esp)
 1734 0c30 E80BFCFF 		call	_GetBarcodeMetadata
 1734      FF
 1735              		.loc 1 382 6
 1736 0c35 84C0     		testb	%al, %al
 1737 0c37 0F848300 		je	L118
GAS LISTING C:\Users\jisu8\AppData\Local\Temp\cc0IqG7f.s 			page 42


 1737      0000
 1738              	LBB15:
 383:src/pdf417/PDFScanningDecoder.c **** 		{
 384:src/pdf417/PDFScanningDecoder.c **** 			BoundingBox_t leftBox, rightBox, mergedBox;
 385:src/pdf417/PDFScanningDecoder.c **** 			if (AdjustBoundingBox(leftRowIndicatorColumn, &leftBox,length) && AdjustBoundingBox(rightRowIndi
 1739              		.loc 1 385 8
 1740 0c3d 8B4514   		movl	20(%ebp), %eax
 1741 0c40 89442408 		movl	%eax, 8(%esp)
 1742 0c44 8D8504FF 		leal	-252(%ebp), %eax
 1742      FFFF
 1743 0c4a 89442404 		movl	%eax, 4(%esp)
 1744 0c4e 8B4508   		movl	8(%ebp), %eax
 1745 0c51 890424   		movl	%eax, (%esp)
 1746 0c54 E894FDFF 		call	_AdjustBoundingBox
 1746      FF
 1747              		.loc 1 385 7
 1748 0c59 84C0     		testb	%al, %al
 1749 0c5b 7463     		je	L118
 1750              		.loc 1 385 70 discriminator 1
 1751 0c5d 8B4514   		movl	20(%ebp), %eax
 1752 0c60 89442408 		movl	%eax, 8(%esp)
 1753 0c64 8D8550FF 		leal	-176(%ebp), %eax
 1753      FFFF
 1754 0c6a 89442404 		movl	%eax, 4(%esp)
 1755 0c6e 8B450C   		movl	12(%ebp), %eax
 1756 0c71 890424   		movl	%eax, (%esp)
 1757 0c74 E874FDFF 		call	_AdjustBoundingBox
 1757      FF
 1758              		.loc 1 385 67 discriminator 1
 1759 0c79 84C0     		testb	%al, %al
 1760 0c7b 7443     		je	L118
 1761              		.loc 1 385 134 discriminator 2
 1762 0c7d 8D459C   		leal	-100(%ebp), %eax
 1763 0c80 89442408 		movl	%eax, 8(%esp)
 1764 0c84 8D8550FF 		leal	-176(%ebp), %eax
 1764      FFFF
 1765 0c8a 89442404 		movl	%eax, 4(%esp)
 1766 0c8e 8D8504FF 		leal	-252(%ebp), %eax
 1766      FFFF
 1767 0c94 890424   		movl	%eax, (%esp)
 1768 0c97 E8000000 		call	_Bounding_Merge
 1768      00
 1769              		.loc 1 385 131 discriminator 2
 1770 0c9c 84C0     		testb	%al, %al
 1771 0c9e 7420     		je	L118
 386:src/pdf417/PDFScanningDecoder.c **** 			{
 387:src/pdf417/PDFScanningDecoder.c **** 				Detection_Result_init(&barcodeMetadata, &mergedBox,result);
 1772              		.loc 1 387 5
 1773 0ca0 8B4510   		movl	16(%ebp), %eax
 1774 0ca3 89442408 		movl	%eax, 8(%esp)
 1775 0ca7 8D459C   		leal	-100(%ebp), %eax
 1776 0caa 89442404 		movl	%eax, 4(%esp)
 1777 0cae 8D45E8   		leal	-24(%ebp), %eax
 1778 0cb1 890424   		movl	%eax, (%esp)
 1779 0cb4 E8000000 		call	_Detection_Result_init
 1779      00
 388:src/pdf417/PDFScanningDecoder.c **** 				return 1;
GAS LISTING C:\Users\jisu8\AppData\Local\Temp\cc0IqG7f.s 			page 43


 1780              		.loc 1 388 12
 1781 0cb9 B8010000 		movl	$1, %eax
 1781      00
 1782 0cbe EB05     		jmp	L121
 1783              	L118:
 1784              	LBE15:
 1785              	LBE14:
 389:src/pdf417/PDFScanningDecoder.c **** 			}
 390:src/pdf417/PDFScanningDecoder.c **** 		}
 391:src/pdf417/PDFScanningDecoder.c **** 	}
 392:src/pdf417/PDFScanningDecoder.c **** 	return 0;
 1786              		.loc 1 392 9
 1787 0cc0 B8000000 		movl	$0, %eax
 1787      00
 1788              	L121:
 393:src/pdf417/PDFScanningDecoder.c **** }
 1789              		.loc 1 393 1 discriminator 2
 1790 0cc5 C9       		leave
 1791              	LCFI53:
 1792              		.cfi_restore 5
 1793              		.cfi_def_cfa 4, 4
 1794 0cc6 C3       		ret
 1795              		.cfi_endproc
 1796              	LFE21:
 1798              	_IsValidBarcodeColumn:
 1799              	LFB22:
 394:src/pdf417/PDFScanningDecoder.c **** 
 395:src/pdf417/PDFScanningDecoder.c **** 
 396:src/pdf417/PDFScanningDecoder.c **** 
 397:src/pdf417/PDFScanningDecoder.c **** static uint8_t IsValidBarcodeColumn(const DetectionResult_t * detectionResult, int barcodeColumn)
 398:src/pdf417/PDFScanningDecoder.c **** {
 1800              		.loc 1 398 1
 1801              		.cfi_startproc
 1802 0cc7 55       		pushl	%ebp
 1803              	LCFI54:
 1804              		.cfi_def_cfa_offset 8
 1805              		.cfi_offset 5, -8
 1806 0cc8 89E5     		movl	%esp, %ebp
 1807              	LCFI55:
 1808              		.cfi_def_cfa_register 5
 399:src/pdf417/PDFScanningDecoder.c **** 	return barcodeColumn >= 0 && barcodeColumn <= detectionResult->_barcodeMetadata._columnCount + 1;
 1809              		.loc 1 399 28
 1810 0cca 837D0C00 		cmpl	$0, 12(%ebp)
 1811 0cce 7814     		js	L123
 1812              		.loc 1 399 81 discriminator 1
 1813 0cd0 8B4508   		movl	8(%ebp), %eax
 1814 0cd3 8B00     		movl	(%eax), %eax
 1815              		.loc 1 399 95 discriminator 1
 1816 0cd5 83C001   		addl	$1, %eax
 1817              		.loc 1 399 28 discriminator 1
 1818 0cd8 39450C   		cmpl	%eax, 12(%ebp)
 1819 0cdb 7F07     		jg	L123
 1820              		.loc 1 399 28 is_stmt 0 discriminator 3
 1821 0cdd B8010000 		movl	$1, %eax
 1821      00
 1822 0ce2 EB05     		jmp	L124
 1823              	L123:
GAS LISTING C:\Users\jisu8\AppData\Local\Temp\cc0IqG7f.s 			page 44


 1824              		.loc 1 399 28 discriminator 4
 1825 0ce4 B8000000 		movl	$0, %eax
 1825      00
 1826              	L124:
 400:src/pdf417/PDFScanningDecoder.c **** }
 1827              		.loc 1 400 1 is_stmt 1 discriminator 6
 1828 0ce9 5D       		popl	%ebp
 1829              	LCFI56:
 1830              		.cfi_restore 5
 1831              		.cfi_def_cfa 4, 4
 1832 0cea C3       		ret
 1833              		.cfi_endproc
 1834              	LFE22:
 1835              		.section .rdata,"dr"
 1836              		.align 4
 1837              	LC8:
 1838 01b4 47657453 		.ascii "GetStartColumn barcodeColumn=%d, imageRow=%d, leftToRight=%d \12\0"
 1838      74617274 
 1838      436F6C75 
 1838      6D6E2062 
 1838      6172636F 
 1839              		.text
 1841              	_GetStartColumn:
 1842              	LFB23:
 401:src/pdf417/PDFScanningDecoder.c **** 
 402:src/pdf417/PDFScanningDecoder.c **** 
 403:src/pdf417/PDFScanningDecoder.c **** static int GetStartColumn(const DetectionResult_t * detectionResult, int barcodeColumn, int imageRo
 404:src/pdf417/PDFScanningDecoder.c **** {
 1843              		.loc 1 404 1
 1844              		.cfi_startproc
 1845 0ceb 55       		pushl	%ebp
 1846              	LCFI57:
 1847              		.cfi_def_cfa_offset 8
 1848              		.cfi_offset 5, -8
 1849 0cec 89E5     		movl	%esp, %ebp
 1850              	LCFI58:
 1851              		.cfi_def_cfa_register 5
 1852 0cee 53       		pushl	%ebx
 1853 0cef 83EC64   		subl	$100, %esp
 1854              		.cfi_offset 3, -12
 1855 0cf2 8B4514   		movl	20(%ebp), %eax
 1856 0cf5 8845D4   		movb	%al, -44(%ebp)
 405:src/pdf417/PDFScanningDecoder.c **** 	printf("GetStartColumn barcodeColumn=%d, imageRow=%d, leftToRight=%d \n", barcodeColumn, imageRow,
 1857              		.loc 1 405 2
 1858 0cf8 0FB645D4 		movzbl	-44(%ebp), %eax
 1859 0cfc 8944240C 		movl	%eax, 12(%esp)
 1860 0d00 8B4510   		movl	16(%ebp), %eax
 1861 0d03 89442408 		movl	%eax, 8(%esp)
 1862 0d07 8B450C   		movl	12(%ebp), %eax
 1863 0d0a 89442404 		movl	%eax, 4(%esp)
 1864 0d0e C70424B4 		movl	$LC8, (%esp)
 1864      010000
 1865 0d15 E8000000 		call	_printf
 1865      00
 406:src/pdf417/PDFScanningDecoder.c **** 
 407:src/pdf417/PDFScanningDecoder.c **** 	int offset = leftToRight ? 1 : -1;
 1866              		.loc 1 407 31
GAS LISTING C:\Users\jisu8\AppData\Local\Temp\cc0IqG7f.s 			page 45


 1867 0d1a 807DD400 		cmpb	$0, -44(%ebp)
 1868 0d1e 7407     		je	L127
 1869              		.loc 1 407 31 is_stmt 0 discriminator 1
 1870 0d20 B8010000 		movl	$1, %eax
 1870      00
 1871 0d25 EB05     		jmp	L128
 1872              	L127:
 1873              		.loc 1 407 31 discriminator 2
 1874 0d27 B8FFFFFF 		movl	$-1, %eax
 1874      FF
 1875              	L128:
 1876              		.loc 1 407 6 is_stmt 1 discriminator 4
 1877 0d2c 8945F4   		movl	%eax, -12(%ebp)
 408:src/pdf417/PDFScanningDecoder.c **** 	Codeword_t codeword;
 409:src/pdf417/PDFScanningDecoder.c **** 	if (IsValidBarcodeColumn(detectionResult, barcodeColumn - offset)) 
 1878              		.loc 1 409 6 discriminator 4
 1879 0d2f 8B450C   		movl	12(%ebp), %eax
 1880 0d32 2B45F4   		subl	-12(%ebp), %eax
 1881 0d35 89442404 		movl	%eax, 4(%esp)
 1882 0d39 8B4508   		movl	8(%ebp), %eax
 1883 0d3c 890424   		movl	%eax, (%esp)
 1884 0d3f E883FFFF 		call	_IsValidBarcodeColumn
 1884      FF
 1885              		.loc 1 409 5 discriminator 4
 1886 0d44 84C0     		testb	%al, %al
 1887 0d46 7453     		je	L129
 410:src/pdf417/PDFScanningDecoder.c **** 	{
 411:src/pdf417/PDFScanningDecoder.c **** 		codeword = detectionResult->_detectionResultColumns[barcodeColumn - offset].m_value._codewords[im
 1888              		.loc 1 411 69
 1889 0d48 8B450C   		movl	12(%ebp), %eax
 1890 0d4b 2B45F4   		subl	-12(%ebp), %eax
 1891 0d4e 89C3     		movl	%eax, %ebx
 1892              		.loc 1 411 144
 1893 0d50 8B4508   		movl	8(%ebp), %eax
 1894 0d53 8B80A470 		movl	1208484(%eax), %eax
 1894      1200
 1895              		.loc 1 411 106
 1896 0d59 8B5510   		movl	16(%ebp), %edx
 1897 0d5c 29C2     		subl	%eax, %edx
 1898              		.loc 1 411 12
 1899 0d5e 8B4D08   		movl	8(%ebp), %ecx
 1900 0d61 89D0     		movl	%edx, %eax
 1901 0d63 01C0     		addl	%eax, %eax
 1902 0d65 01D0     		addl	%edx, %eax
 1903 0d67 C1E003   		sall	$3, %eax
 1904 0d6a 69D3342F 		imull	$12084, %ebx, %edx
 1904      0000
 1905 0d70 01D0     		addl	%edx, %eax
 1906 0d72 01C8     		addl	%ecx, %eax
 1907 0d74 83C050   		addl	$80, %eax
 1908 0d77 8B5010   		movl	16(%eax), %edx
 1909 0d7a 8955D8   		movl	%edx, -40(%ebp)
 1910 0d7d 8B5014   		movl	20(%eax), %edx
 1911 0d80 8955DC   		movl	%edx, -36(%ebp)
 1912 0d83 8B5018   		movl	24(%eax), %edx
 1913 0d86 8955E0   		movl	%edx, -32(%ebp)
 1914 0d89 8B501C   		movl	28(%eax), %edx
GAS LISTING C:\Users\jisu8\AppData\Local\Temp\cc0IqG7f.s 			page 46


 1915 0d8c 8955E4   		movl	%edx, -28(%ebp)
 1916 0d8f 8B5020   		movl	32(%eax), %edx
 1917 0d92 8955E8   		movl	%edx, -24(%ebp)
 1918 0d95 8B4024   		movl	36(%eax), %eax
 1919 0d98 8945EC   		movl	%eax, -20(%ebp)
 1920              	L129:
 412:src/pdf417/PDFScanningDecoder.c **** 	}
 413:src/pdf417/PDFScanningDecoder.c **** 
 414:src/pdf417/PDFScanningDecoder.c **** 	if (codeword.m_hasValue != 0) 
 1921              		.loc 1 414 14
 1922 0d9b 0FB645D8 		movzbl	-40(%ebp), %eax
 1923              		.loc 1 414 5
 1924 0d9f 84C0     		testb	%al, %al
 1925 0da1 7416     		je	L130
 415:src/pdf417/PDFScanningDecoder.c **** 	{
 416:src/pdf417/PDFScanningDecoder.c **** 		return leftToRight ? codeword.m_value._endX : codeword.m_value._startX;
 1926              		.loc 1 416 47
 1927 0da3 807DD400 		cmpb	$0, -44(%ebp)
 1928 0da7 7408     		je	L131
 1929              		.loc 1 416 47 is_stmt 0 discriminator 1
 1930 0da9 8B45E0   		movl	-32(%ebp), %eax
 1931 0dac E9FD0000 		jmp	L143
 1931      00
 1932              	L131:
 1933              		.loc 1 416 47 discriminator 2
 1934 0db1 8B45DC   		movl	-36(%ebp), %eax
 1935 0db4 E9F50000 		jmp	L143
 1935      00
 1936              	L130:
 417:src/pdf417/PDFScanningDecoder.c **** 	}
 418:src/pdf417/PDFScanningDecoder.c **** 
 419:src/pdf417/PDFScanningDecoder.c **** 	codeword = codewordNearby(&(detectionResult->_detectionResultColumns[barcodeColumn]),imageRow,size
 1937              		.loc 1 419 28 is_stmt 1
 1938 0db9 8B450C   		movl	12(%ebp), %eax
 1939 0dbc 69C0342F 		imull	$12084, %eax, %eax
 1939      0000
 1940 0dc2 8D5010   		leal	16(%eax), %edx
 1941 0dc5 8B4508   		movl	8(%ebp), %eax
 1942 0dc8 8D0C02   		leal	(%edx,%eax), %ecx
 1943              		.loc 1 419 13
 1944 0dcb 8D45D8   		leal	-40(%ebp), %eax
 1945 0dce 8B5518   		movl	24(%ebp), %edx
 1946 0dd1 8954240C 		movl	%edx, 12(%esp)
 1947 0dd5 8B5510   		movl	16(%ebp), %edx
 1948 0dd8 89542408 		movl	%edx, 8(%esp)
 1949 0ddc 894C2404 		movl	%ecx, 4(%esp)
 1950 0de0 890424   		movl	%eax, (%esp)
 1951 0de3 E8000000 		call	_codewordNearby
 1951      00
 420:src/pdf417/PDFScanningDecoder.c **** 	if (codeword.m_hasValue != 0) 
 1952              		.loc 1 420 14
 1953 0de8 0FB645D8 		movzbl	-40(%ebp), %eax
 1954              		.loc 1 420 5
 1955 0dec 84C0     		testb	%al, %al
 1956 0dee 7416     		je	L134
 421:src/pdf417/PDFScanningDecoder.c **** 	{
 422:src/pdf417/PDFScanningDecoder.c **** 		return leftToRight ? codeword.m_value._startX : codeword.m_value._endX;
GAS LISTING C:\Users\jisu8\AppData\Local\Temp\cc0IqG7f.s 			page 47


 1957              		.loc 1 422 49
 1958 0df0 807DD400 		cmpb	$0, -44(%ebp)
 1959 0df4 7408     		je	L135
 1960              		.loc 1 422 49 is_stmt 0 discriminator 1
 1961 0df6 8B45DC   		movl	-36(%ebp), %eax
 1962 0df9 E9B00000 		jmp	L143
 1962      00
 1963              	L135:
 1964              		.loc 1 422 49 discriminator 2
 1965 0dfe 8B45E0   		movl	-32(%ebp), %eax
 1966 0e01 E9A80000 		jmp	L143
 1966      00
 1967              	L134:
 423:src/pdf417/PDFScanningDecoder.c **** 	}
 424:src/pdf417/PDFScanningDecoder.c **** 
 425:src/pdf417/PDFScanningDecoder.c **** 	if (IsValidBarcodeColumn(detectionResult, barcodeColumn - offset)) 
 1968              		.loc 1 425 6 is_stmt 1
 1969 0e06 8B450C   		movl	12(%ebp), %eax
 1970 0e09 2B45F4   		subl	-12(%ebp), %eax
 1971 0e0c 89442404 		movl	%eax, 4(%esp)
 1972 0e10 8B4508   		movl	8(%ebp), %eax
 1973 0e13 890424   		movl	%eax, (%esp)
 1974 0e16 E8ACFEFF 		call	_IsValidBarcodeColumn
 1974      FF
 1975              		.loc 1 425 5
 1976 0e1b 84C0     		testb	%al, %al
 1977 0e1d 7456     		je	L137
 426:src/pdf417/PDFScanningDecoder.c **** 	{
 427:src/pdf417/PDFScanningDecoder.c **** 		codeword = codewordNearby(&(detectionResult->_detectionResultColumns[barcodeColumn - offset]),ima
 1978              		.loc 1 427 86
 1979 0e1f 8B450C   		movl	12(%ebp), %eax
 1980 0e22 2B45F4   		subl	-12(%ebp), %eax
 1981              		.loc 1 427 29
 1982 0e25 69C0342F 		imull	$12084, %eax, %eax
 1982      0000
 1983 0e2b 8D5010   		leal	16(%eax), %edx
 1984 0e2e 8B4508   		movl	8(%ebp), %eax
 1985 0e31 8D0C02   		leal	(%edx,%eax), %ecx
 1986              		.loc 1 427 14
 1987 0e34 8D45A8   		leal	-88(%ebp), %eax
 1988 0e37 8B5518   		movl	24(%ebp), %edx
 1989 0e3a 8954240C 		movl	%edx, 12(%esp)
 1990 0e3e 8B5510   		movl	16(%ebp), %edx
 1991 0e41 89542408 		movl	%edx, 8(%esp)
 1992 0e45 894C2404 		movl	%ecx, 4(%esp)
 1993 0e49 890424   		movl	%eax, (%esp)
 1994 0e4c E8000000 		call	_codewordNearby
 1994      00
 1995 0e51 8B45A8   		movl	-88(%ebp), %eax
 1996 0e54 8945D8   		movl	%eax, -40(%ebp)
 1997 0e57 8B45AC   		movl	-84(%ebp), %eax
 1998 0e5a 8945DC   		movl	%eax, -36(%ebp)
 1999 0e5d 8B45B0   		movl	-80(%ebp), %eax
 2000 0e60 8945E0   		movl	%eax, -32(%ebp)
 2001 0e63 8B45B4   		movl	-76(%ebp), %eax
 2002 0e66 8945E4   		movl	%eax, -28(%ebp)
 2003 0e69 8B45B8   		movl	-72(%ebp), %eax
GAS LISTING C:\Users\jisu8\AppData\Local\Temp\cc0IqG7f.s 			page 48


 2004 0e6c 8945E8   		movl	%eax, -24(%ebp)
 2005 0e6f 8B45BC   		movl	-68(%ebp), %eax
 2006 0e72 8945EC   		movl	%eax, -20(%ebp)
 2007              	L137:
 428:src/pdf417/PDFScanningDecoder.c **** 	}
 429:src/pdf417/PDFScanningDecoder.c **** 
 430:src/pdf417/PDFScanningDecoder.c **** 	if (codeword.m_hasValue != 0)
 2008              		.loc 1 430 14
 2009 0e75 0FB645D8 		movzbl	-40(%ebp), %eax
 2010              		.loc 1 430 5
 2011 0e79 84C0     		testb	%al, %al
 2012 0e7b 7410     		je	L138
 431:src/pdf417/PDFScanningDecoder.c **** 	{
 432:src/pdf417/PDFScanningDecoder.c **** 		return leftToRight ? codeword.m_value._endX : codeword.m_value._startX;
 2013              		.loc 1 432 47
 2014 0e7d 807DD400 		cmpb	$0, -44(%ebp)
 2015 0e81 7405     		je	L139
 2016              		.loc 1 432 47 is_stmt 0 discriminator 1
 2017 0e83 8B45E0   		movl	-32(%ebp), %eax
 2018 0e86 EB26     		jmp	L143
 2019              	L139:
 2020              		.loc 1 432 47 discriminator 2
 2021 0e88 8B45DC   		movl	-36(%ebp), %eax
 2022 0e8b EB21     		jmp	L143
 2023              	L138:
 433:src/pdf417/PDFScanningDecoder.c **** 	}
 434:src/pdf417/PDFScanningDecoder.c **** 
 435:src/pdf417/PDFScanningDecoder.c **** 	int skippedColumns = 0;
 2024              		.loc 1 435 6 is_stmt 1
 2025 0e8d C745F000 		movl	$0, -16(%ebp)
 2025      000000
 436:src/pdf417/PDFScanningDecoder.c **** 	#if 0
 437:src/pdf417/PDFScanningDecoder.c **** 	while (IsValidBarcodeColumn(detectionResult, barcodeColumn - offset)) 
 438:src/pdf417/PDFScanningDecoder.c **** 	{
 439:src/pdf417/PDFScanningDecoder.c **** 		barcodeColumn -= offset;
 440:src/pdf417/PDFScanningDecoder.c **** 		for (auto& previousRowCodeword : detectionResult.column(barcodeColumn).value().allCodewords()) 
 441:src/pdf417/PDFScanningDecoder.c **** 		{
 442:src/pdf417/PDFScanningDecoder.c **** 			if (previousRowCodeword != nullptr) 
 443:src/pdf417/PDFScanningDecoder.c **** 			{
 444:src/pdf417/PDFScanningDecoder.c **** 				return (leftToRight ? previousRowCodeword.value().endX() : previousRowCodeword.value().startX()
 445:src/pdf417/PDFScanningDecoder.c **** 					offset *
 446:src/pdf417/PDFScanningDecoder.c **** 					skippedColumns *
 447:src/pdf417/PDFScanningDecoder.c **** 					(previousRowCodeword.value().endX() - previousRowCodeword.value().startX());
 448:src/pdf417/PDFScanningDecoder.c **** 			}
 449:src/pdf417/PDFScanningDecoder.c **** 		}
 450:src/pdf417/PDFScanningDecoder.c **** 		skippedColumns++;
 451:src/pdf417/PDFScanningDecoder.c **** 	}
 452:src/pdf417/PDFScanningDecoder.c **** 	#endif
 453:src/pdf417/PDFScanningDecoder.c **** 	return leftToRight ? detectionResult->_boundingBox.m_value._minX : detectionResult->_boundingBox.m
 2026              		.loc 1 453 67
 2027 0e94 807DD400 		cmpb	$0, -44(%ebp)
 2028 0e98 740B     		je	L141
 2029              		.loc 1 453 67 is_stmt 0 discriminator 1
 2030 0e9a 8B4508   		movl	8(%ebp), %eax
 2031 0e9d 8B809C70 		movl	1208476(%eax), %eax
 2031      1200
 2032 0ea3 EB09     		jmp	L143
GAS LISTING C:\Users\jisu8\AppData\Local\Temp\cc0IqG7f.s 			page 49


 2033              	L141:
 2034              		.loc 1 453 67 discriminator 2
 2035 0ea5 8B4508   		movl	8(%ebp), %eax
 2036 0ea8 8B80A070 		movl	1208480(%eax), %eax
 2036      1200
 2037              	L143:
 454:src/pdf417/PDFScanningDecoder.c **** }
 2038              		.loc 1 454 1 is_stmt 1 discriminator 1
 2039 0eae 83C464   		addl	$100, %esp
 2040 0eb1 5B       		popl	%ebx
 2041              		.cfi_restore 3
 2042 0eb2 5D       		popl	%ebp
 2043              	LCFI59:
 2044              		.cfi_restore 5
 2045              		.cfi_def_cfa 4, 4
 2046 0eb3 C3       		ret
 2047              		.cfi_endproc
 2048              	LFE23:
 2049              		.section .rdata,"dr"
 2050              	LC9:
 2051 01f3 43726561 		.ascii "CreateBarcodeMatrix\0"
 2051      74654261 
 2051      72636F64 
 2051      654D6174 
 2051      72697800 
 2052              		.text
 2054              	_CreateBarcodeMatrix:
 2055              	LFB24:
 455:src/pdf417/PDFScanningDecoder.c **** 
 456:src/pdf417/PDFScanningDecoder.c **** 
 457:src/pdf417/PDFScanningDecoder.c **** static void CreateBarcodeMatrix(BarcodeValue_t * barcodeMatrix,DetectionResult_t * detectionResult,
 458:src/pdf417/PDFScanningDecoder.c **** {
 2056              		.loc 1 458 1
 2057              		.cfi_startproc
 2058 0eb4 55       		pushl	%ebp
 2059              	LCFI60:
 2060              		.cfi_def_cfa_offset 8
 2061              		.cfi_offset 5, -8
 2062 0eb5 89E5     		movl	%esp, %ebp
 2063              	LCFI61:
 2064              		.cfi_def_cfa_register 5
 2065 0eb7 83EC48   		subl	$72, %esp
 459:src/pdf417/PDFScanningDecoder.c **** 	printf("CreateBarcodeMatrix\n");
 2066              		.loc 1 459 2
 2067 0eba C70424F3 		movl	$LC9, (%esp)
 2067      010000
 2068 0ec1 E8000000 		call	_puts
 2068      00
 460:src/pdf417/PDFScanningDecoder.c **** 
 461:src/pdf417/PDFScanningDecoder.c **** 	DetectionResultColumn_t * resultColumn = allColumns(detectionResult,column,size);
 2069              		.loc 1 461 43
 2070 0ec6 8B4510   		movl	16(%ebp), %eax
 2071 0ec9 89442408 		movl	%eax, 8(%esp)
 2072 0ecd 8B4518   		movl	24(%ebp), %eax
 2073 0ed0 89442404 		movl	%eax, 4(%esp)
 2074 0ed4 8B450C   		movl	12(%ebp), %eax
 2075 0ed7 890424   		movl	%eax, (%esp)
GAS LISTING C:\Users\jisu8\AppData\Local\Temp\cc0IqG7f.s 			page 50


 2076 0eda E8000000 		call	_allColumns
 2076      00
 2077 0edf 8945EC   		movl	%eax, -20(%ebp)
 2078              	LBB16:
 462:src/pdf417/PDFScanningDecoder.c **** 	
 463:src/pdf417/PDFScanningDecoder.c **** 	for (int columnNum = 0;columnNum<column;columnNum++) 
 2079              		.loc 1 463 11
 2080 0ee2 C745F400 		movl	$0, -12(%ebp)
 2080      000000
 2081              		.loc 1 463 2
 2082 0ee9 E9C80000 		jmp	L145
 2082      00
 2083              	L152:
 464:src/pdf417/PDFScanningDecoder.c **** 	{
 465:src/pdf417/PDFScanningDecoder.c **** 		if ((resultColumn+columnNum)->m_hasValue != 0) 
 2084              		.loc 1 465 20
 2085 0eee 8B45F4   		movl	-12(%ebp), %eax
 2086 0ef1 69D0342F 		imull	$12084, %eax, %edx
 2086      0000
 2087 0ef7 8B45EC   		movl	-20(%ebp), %eax
 2088 0efa 01D0     		addl	%edx, %eax
 2089              		.loc 1 465 31
 2090 0efc 0FB600   		movzbl	(%eax), %eax
 2091              		.loc 1 465 6
 2092 0eff 84C0     		testb	%al, %al
 2093 0f01 0F84AB00 		je	L146
 2093      0000
 2094              	LBB17:
 466:src/pdf417/PDFScanningDecoder.c **** 		{
 467:src/pdf417/PDFScanningDecoder.c **** 			for (int j=0;j<size;j++) 
 2095              		.loc 1 467 13
 2096 0f07 C745F000 		movl	$0, -16(%ebp)
 2096      000000
 2097              		.loc 1 467 4
 2098 0f0e E9930000 		jmp	L147
 2098      00
 2099              	L151:
 2100              	LBB18:
 468:src/pdf417/PDFScanningDecoder.c **** 			{
 469:src/pdf417/PDFScanningDecoder.c **** 				Codeword_t codeword = (resultColumn+columnNum)->m_value._codewords[j];
 2101              		.loc 1 469 40
 2102 0f13 8B45F4   		movl	-12(%ebp), %eax
 2103 0f16 69D0342F 		imull	$12084, %eax, %edx
 2103      0000
 2104 0f1c 8B45EC   		movl	-20(%ebp), %eax
 2105 0f1f 8D0C02   		leal	(%edx,%eax), %ecx
 2106              		.loc 1 469 16
 2107 0f22 8B55F0   		movl	-16(%ebp), %edx
 2108 0f25 89D0     		movl	%edx, %eax
 2109 0f27 01C0     		addl	%eax, %eax
 2110 0f29 01D0     		addl	%edx, %eax
 2111 0f2b C1E003   		sall	$3, %eax
 2112 0f2e 01C8     		addl	%ecx, %eax
 2113 0f30 83C040   		addl	$64, %eax
 2114 0f33 8B5010   		movl	16(%eax), %edx
 2115 0f36 8955D0   		movl	%edx, -48(%ebp)
 2116 0f39 8B5014   		movl	20(%eax), %edx
GAS LISTING C:\Users\jisu8\AppData\Local\Temp\cc0IqG7f.s 			page 51


 2117 0f3c 8955D4   		movl	%edx, -44(%ebp)
 2118 0f3f 8B5018   		movl	24(%eax), %edx
 2119 0f42 8955D8   		movl	%edx, -40(%ebp)
 2120 0f45 8B501C   		movl	28(%eax), %edx
 2121 0f48 8955DC   		movl	%edx, -36(%ebp)
 2122 0f4b 8B5020   		movl	32(%eax), %edx
 2123 0f4e 8955E0   		movl	%edx, -32(%ebp)
 2124 0f51 8B4024   		movl	36(%eax), %eax
 2125 0f54 8945E4   		movl	%eax, -28(%ebp)
 470:src/pdf417/PDFScanningDecoder.c **** 				if (codeword.m_hasValue != 0) 
 2126              		.loc 1 470 17
 2127 0f57 0FB645D0 		movzbl	-48(%ebp), %eax
 2128              		.loc 1 470 8
 2129 0f5b 84C0     		testb	%al, %al
 2130 0f5d 7443     		je	L150
 2131              	LBB19:
 471:src/pdf417/PDFScanningDecoder.c **** 				{
 472:src/pdf417/PDFScanningDecoder.c **** 					int rowNumber = codeword.m_value._rowNumber;
 2132              		.loc 1 472 10
 2133 0f5f 8B45E4   		movl	-28(%ebp), %eax
 2134 0f62 8945E8   		movl	%eax, -24(%ebp)
 473:src/pdf417/PDFScanningDecoder.c **** 					if (rowNumber >= 0) 
 2135              		.loc 1 473 9
 2136 0f65 837DE800 		cmpl	$0, -24(%ebp)
 2137 0f69 7837     		js	L150
 474:src/pdf417/PDFScanningDecoder.c **** 					{
 475:src/pdf417/PDFScanningDecoder.c **** 						if (rowNumber >= column * row) 
 2138              		.loc 1 475 31
 2139 0f6b 8B4518   		movl	24(%ebp), %eax
 2140 0f6e 0FAF4514 		imull	20(%ebp), %eax
 2141              		.loc 1 475 10
 2142 0f72 3945E8   		cmpl	%eax, -24(%ebp)
 2143 0f75 7D2A     		jge	L153
 476:src/pdf417/PDFScanningDecoder.c **** 						{
 477:src/pdf417/PDFScanningDecoder.c **** 							// We have more rows than the barcode metadata allows for, ignore them.
 478:src/pdf417/PDFScanningDecoder.c **** 							continue;
 479:src/pdf417/PDFScanningDecoder.c **** 						}
 480:src/pdf417/PDFScanningDecoder.c **** 						BarcodeSetValue(barcodeMatrix + rowNumber*column + columnNum,codeword.m_value._value);
 2144              		.loc 1 480 7
 2145 0f77 8B45E0   		movl	-32(%ebp), %eax
 2146              		.loc 1 480 48
 2147 0f7a 8B55E8   		movl	-24(%ebp), %edx
 2148 0f7d 0FAF5518 		imull	24(%ebp), %edx
 2149              		.loc 1 480 56
 2150 0f81 89D1     		movl	%edx, %ecx
 2151 0f83 8B55F4   		movl	-12(%ebp), %edx
 2152 0f86 01CA     		addl	%ecx, %edx
 2153 0f88 69CAA00F 		imull	$4000, %edx, %ecx
 2153      0000
 2154              		.loc 1 480 7
 2155 0f8e 8B5508   		movl	8(%ebp), %edx
 2156 0f91 01CA     		addl	%ecx, %edx
 2157 0f93 89442404 		movl	%eax, 4(%esp)
 2158 0f97 891424   		movl	%edx, (%esp)
 2159 0f9a E8000000 		call	_BarcodeSetValue
 2159      00
 2160 0f9f EB01     		jmp	L150
GAS LISTING C:\Users\jisu8\AppData\Local\Temp\cc0IqG7f.s 			page 52


 2161              	L153:
 2162              	LBE19:
 478:src/pdf417/PDFScanningDecoder.c **** 						}
 2163              		.loc 1 478 8
 2164 0fa1 90       		nop
 2165              	L150:
 2166              	LBE18:
 467:src/pdf417/PDFScanningDecoder.c **** 			{
 2167              		.loc 1 467 25 discriminator 2
 2168 0fa2 8345F001 		addl	$1, -16(%ebp)
 2169              	L147:
 467:src/pdf417/PDFScanningDecoder.c **** 			{
 2170              		.loc 1 467 4 discriminator 1
 2171 0fa6 8B45F0   		movl	-16(%ebp), %eax
 2172 0fa9 3B4510   		cmpl	16(%ebp), %eax
 2173 0fac 0F8C61FF 		jl	L151
 2173      FFFF
 2174              	L146:
 2175              	LBE17:
 463:src/pdf417/PDFScanningDecoder.c **** 	{
 2176              		.loc 1 463 51 discriminator 2
 2177 0fb2 8345F401 		addl	$1, -12(%ebp)
 2178              	L145:
 463:src/pdf417/PDFScanningDecoder.c **** 	{
 2179              		.loc 1 463 2 discriminator 1
 2180 0fb6 8B45F4   		movl	-12(%ebp), %eax
 2181 0fb9 3B4518   		cmpl	24(%ebp), %eax
 2182 0fbc 0F8C2CFF 		jl	L152
 2182      FFFF
 2183              	LBE16:
 481:src/pdf417/PDFScanningDecoder.c **** 					}
 482:src/pdf417/PDFScanningDecoder.c **** 				}
 483:src/pdf417/PDFScanningDecoder.c **** 			}
 484:src/pdf417/PDFScanningDecoder.c **** 		}
 485:src/pdf417/PDFScanningDecoder.c **** 	}
 486:src/pdf417/PDFScanningDecoder.c **** }
 2184              		.loc 1 486 1
 2185 0fc2 90       		nop
 2186 0fc3 C9       		leave
 2187              	LCFI62:
 2188              		.cfi_restore 5
 2189              		.cfi_def_cfa 4, 4
 2190 0fc4 C3       		ret
 2191              		.cfi_endproc
 2192              	LFE24:
 2194              	_GetNumberOfECCodeWords:
 2195              	LFB25:
 487:src/pdf417/PDFScanningDecoder.c **** 
 488:src/pdf417/PDFScanningDecoder.c **** static int GetNumberOfECCodeWords(int barcodeECLevel)
 489:src/pdf417/PDFScanningDecoder.c **** {
 2196              		.loc 1 489 1
 2197              		.cfi_startproc
 2198 0fc5 55       		pushl	%ebp
 2199              	LCFI63:
 2200              		.cfi_def_cfa_offset 8
 2201              		.cfi_offset 5, -8
 2202 0fc6 89E5     		movl	%esp, %ebp
GAS LISTING C:\Users\jisu8\AppData\Local\Temp\cc0IqG7f.s 			page 53


 2203              	LCFI64:
 2204              		.cfi_def_cfa_register 5
 490:src/pdf417/PDFScanningDecoder.c **** 	return 2 << barcodeECLevel;
 2205              		.loc 1 490 11
 2206 0fc8 8B4508   		movl	8(%ebp), %eax
 2207 0fcb BA020000 		movl	$2, %edx
 2207      00
 2208 0fd0 89C1     		movl	%eax, %ecx
 2209 0fd2 D3E2     		sall	%cl, %edx
 2210 0fd4 89D0     		movl	%edx, %eax
 491:src/pdf417/PDFScanningDecoder.c **** }
 2211              		.loc 1 491 1
 2212 0fd6 5D       		popl	%ebp
 2213              	LCFI65:
 2214              		.cfi_restore 5
 2215              		.cfi_def_cfa 4, 4
 2216 0fd7 C3       		ret
 2217              		.cfi_endproc
 2218              	LFE25:
 2219              		.section .rdata,"dr"
 2220              	LC10:
 2221 0207 41646A75 		.ascii "AdjustCodewordCount\0"
 2221      7374436F 
 2221      6465776F 
 2221      7264436F 
 2221      756E7400 
 2222              		.text
 2224              	_AdjustCodewordCount:
 2225              	LFB26:
 492:src/pdf417/PDFScanningDecoder.c **** 
 493:src/pdf417/PDFScanningDecoder.c **** 
 494:src/pdf417/PDFScanningDecoder.c **** static uint8_t AdjustCodewordCount(const DetectionResult_t * detectionResult, BarcodeValue_t * barc
 495:src/pdf417/PDFScanningDecoder.c **** {
 2226              		.loc 1 495 1
 2227              		.cfi_startproc
 2228 0fd8 55       		pushl	%ebp
 2229              	LCFI66:
 2230              		.cfi_def_cfa_offset 8
 2231              		.cfi_offset 5, -8
 2232 0fd9 89E5     		movl	%esp, %ebp
 2233              	LCFI67:
 2234              		.cfi_def_cfa_register 5
 2235 0fdb 83EC18   		subl	$24, %esp
 496:src/pdf417/PDFScanningDecoder.c **** 	printf("AdjustCodewordCount\n");
 2236              		.loc 1 496 2
 2237 0fde C7042407 		movl	$LC10, (%esp)
 2237      020000
 2238 0fe5 E8000000 		call	_puts
 2238      00
 497:src/pdf417/PDFScanningDecoder.c **** 	#if 0
 498:src/pdf417/PDFScanningDecoder.c **** 	int numberOfCodewords = BarcodeValue(barcodeMatrix[0][1],size);
 499:src/pdf417/PDFScanningDecoder.c **** 	int calculatedNumberOfCodewords = detectionResult->_barcodeMetadata._columnCount * rowCount(&detec
 500:src/pdf417/PDFScanningDecoder.c **** 	if (numberOfCodewords==0) 
 501:src/pdf417/PDFScanningDecoder.c **** 	{
 502:src/pdf417/PDFScanningDecoder.c **** 		if (calculatedNumberOfCodewords < 1 || calculatedNumberOfCodewords > MAX_CODEWORDS_IN_BARCODE) 
 503:src/pdf417/PDFScanningDecoder.c **** 		{
 504:src/pdf417/PDFScanningDecoder.c **** 			return 0;
GAS LISTING C:\Users\jisu8\AppData\Local\Temp\cc0IqG7f.s 			page 54


 505:src/pdf417/PDFScanningDecoder.c **** 		}
 506:src/pdf417/PDFScanningDecoder.c **** 		(barcodeMatrix[0][1],calculatedNumberOfCodewords);
 507:src/pdf417/PDFScanningDecoder.c **** 	}
 508:src/pdf417/PDFScanningDecoder.c **** 	else if (numberOfCodewords[0] != calculatedNumberOfCodewords) 
 509:src/pdf417/PDFScanningDecoder.c **** 	{
 510:src/pdf417/PDFScanningDecoder.c **** 		// The calculated one is more reliable as it is derived from the row indicator columns
 511:src/pdf417/PDFScanningDecoder.c **** 		BarcodeSetValue(barcodeMatrix[0][1],calculatedNumberOfCodewords);
 512:src/pdf417/PDFScanningDecoder.c **** 	}
 513:src/pdf417/PDFScanningDecoder.c **** 	#endif
 514:src/pdf417/PDFScanningDecoder.c **** 	return 1;
 2239              		.loc 1 514 9
 2240 0fea B8010000 		movl	$1, %eax
 2240      00
 515:src/pdf417/PDFScanningDecoder.c **** }
 2241              		.loc 1 515 1
 2242 0fef C9       		leave
 2243              	LCFI68:
 2244              		.cfi_restore 5
 2245              		.cfi_def_cfa 4, 4
 2246 0ff0 C3       		ret
 2247              		.cfi_endproc
 2248              	LFE26:
 2249              		.globl	_DecodeErrorCorrection
 2251              	_DecodeErrorCorrection:
 2252              	LFB27:
 516:src/pdf417/PDFScanningDecoder.c **** // +++++++++++++++++++++++++++++++++++ Error Correction
 517:src/pdf417/PDFScanningDecoder.c **** 
 518:src/pdf417/PDFScanningDecoder.c **** #if 0
 519:src/pdf417/PDFScanningDecoder.c **** static const ModulusGF& GetModulusGF()
 520:src/pdf417/PDFScanningDecoder.c **** {
 521:src/pdf417/PDFScanningDecoder.c **** 	static const ModulusGF field(CodewordDecoder::NUMBER_OF_CODEWORDS, 3);
 522:src/pdf417/PDFScanningDecoder.c **** 	return field;
 523:src/pdf417/PDFScanningDecoder.c **** }
 524:src/pdf417/PDFScanningDecoder.c **** 
 525:src/pdf417/PDFScanningDecoder.c **** #endif
 526:src/pdf417/PDFScanningDecoder.c **** #if 0
 527:src/pdf417/PDFScanningDecoder.c **** static bool RunEuclideanAlgorithm(ModulusPoly a, ModulusPoly b, int R, ModulusPoly& sigma, ModulusP
 528:src/pdf417/PDFScanningDecoder.c **** {
 529:src/pdf417/PDFScanningDecoder.c **** #ifdef HK_DEBUG
 530:src/pdf417/PDFScanningDecoder.c **** 	printf("RunEuclideanAlgorithm\n");
 531:src/pdf417/PDFScanningDecoder.c **** #endif
 532:src/pdf417/PDFScanningDecoder.c **** 	
 533:src/pdf417/PDFScanningDecoder.c **** 	const ModulusGF& field = GetModulusGF();
 534:src/pdf417/PDFScanningDecoder.c **** 
 535:src/pdf417/PDFScanningDecoder.c **** 	// Assume a's degree is >= b's
 536:src/pdf417/PDFScanningDecoder.c **** 	if (a.degree() < b.degree()) 
 537:src/pdf417/PDFScanningDecoder.c **** 	{
 538:src/pdf417/PDFScanningDecoder.c **** 		swap(a, b);
 539:src/pdf417/PDFScanningDecoder.c **** 	}
 540:src/pdf417/PDFScanningDecoder.c **** 
 541:src/pdf417/PDFScanningDecoder.c **** 	ModulusPoly rLast = a;
 542:src/pdf417/PDFScanningDecoder.c **** 	ModulusPoly r = b;
 543:src/pdf417/PDFScanningDecoder.c **** 	ModulusPoly tLast = field.zero();
 544:src/pdf417/PDFScanningDecoder.c **** 	ModulusPoly t = field.one();
 545:src/pdf417/PDFScanningDecoder.c **** 
 546:src/pdf417/PDFScanningDecoder.c **** 	// Run Euclidean algorithm until r's degree is less than R/2
 547:src/pdf417/PDFScanningDecoder.c **** 	while (r.degree() >= R / 2) 
GAS LISTING C:\Users\jisu8\AppData\Local\Temp\cc0IqG7f.s 			page 55


 548:src/pdf417/PDFScanningDecoder.c **** 	{
 549:src/pdf417/PDFScanningDecoder.c **** 		ModulusPoly rLastLast = rLast;
 550:src/pdf417/PDFScanningDecoder.c **** 		ModulusPoly tLastLast = tLast;
 551:src/pdf417/PDFScanningDecoder.c **** 		rLast = r;
 552:src/pdf417/PDFScanningDecoder.c **** 		tLast = t;
 553:src/pdf417/PDFScanningDecoder.c **** 
 554:src/pdf417/PDFScanningDecoder.c **** 		// Divide rLastLast by rLast, with quotient in q and remainder in r
 555:src/pdf417/PDFScanningDecoder.c **** 		if (rLast.isZero()) {
 556:src/pdf417/PDFScanningDecoder.c **** 			// Oops, Euclidean algorithm already terminated?
 557:src/pdf417/PDFScanningDecoder.c **** 			return false;
 558:src/pdf417/PDFScanningDecoder.c **** 		}
 559:src/pdf417/PDFScanningDecoder.c **** 		r = rLastLast;
 560:src/pdf417/PDFScanningDecoder.c **** 		ModulusPoly q = field.zero();
 561:src/pdf417/PDFScanningDecoder.c **** 		int denominatorLeadingTerm = rLast.coefficient(rLast.degree());
 562:src/pdf417/PDFScanningDecoder.c **** 		int dltInverse = field.inverse(denominatorLeadingTerm);
 563:src/pdf417/PDFScanningDecoder.c **** 		while (r.degree() >= rLast.degree() && !r.isZero()) {
 564:src/pdf417/PDFScanningDecoder.c **** 			int degreeDiff = r.degree() - rLast.degree();
 565:src/pdf417/PDFScanningDecoder.c **** 			int scale = field.multiply(r.coefficient(r.degree()), dltInverse);
 566:src/pdf417/PDFScanningDecoder.c **** 			q = q.add(field.buildMonomial(degreeDiff, scale));
 567:src/pdf417/PDFScanningDecoder.c **** 			r = r.subtract(rLast.multiplyByMonomial(degreeDiff, scale));
 568:src/pdf417/PDFScanningDecoder.c **** 		}
 569:src/pdf417/PDFScanningDecoder.c **** 
 570:src/pdf417/PDFScanningDecoder.c **** 		t = q.multiply(tLast).subtract(tLastLast).negative();
 571:src/pdf417/PDFScanningDecoder.c **** 	}
 572:src/pdf417/PDFScanningDecoder.c **** 
 573:src/pdf417/PDFScanningDecoder.c **** 	int sigmaTildeAtZero = t.coefficient(0);
 574:src/pdf417/PDFScanningDecoder.c **** 	if (sigmaTildeAtZero == 0) {
 575:src/pdf417/PDFScanningDecoder.c **** 		return false;
 576:src/pdf417/PDFScanningDecoder.c **** 	}
 577:src/pdf417/PDFScanningDecoder.c **** 
 578:src/pdf417/PDFScanningDecoder.c **** 	int inverse = field.inverse(sigmaTildeAtZero);
 579:src/pdf417/PDFScanningDecoder.c **** 	sigma = t.multiply(inverse);
 580:src/pdf417/PDFScanningDecoder.c **** 	omega = r.multiply(inverse);
 581:src/pdf417/PDFScanningDecoder.c **** 	return true;
 582:src/pdf417/PDFScanningDecoder.c **** }
 583:src/pdf417/PDFScanningDecoder.c **** 
 584:src/pdf417/PDFScanningDecoder.c **** #endif
 585:src/pdf417/PDFScanningDecoder.c **** #if 0
 586:src/pdf417/PDFScanningDecoder.c **** static bool FindErrorLocations(const ModulusPoly& errorLocator, std::vector<int>& result)
 587:src/pdf417/PDFScanningDecoder.c **** {
 588:src/pdf417/PDFScanningDecoder.c **** #ifdef HK_DEBUG
 589:src/pdf417/PDFScanningDecoder.c **** 	printf("FindErrorLocations \n");
 590:src/pdf417/PDFScanningDecoder.c **** #endif
 591:src/pdf417/PDFScanningDecoder.c **** 	
 592:src/pdf417/PDFScanningDecoder.c **** 	const ModulusGF& field = GetModulusGF();
 593:src/pdf417/PDFScanningDecoder.c **** 	// This is a direct application of Chien's search
 594:src/pdf417/PDFScanningDecoder.c **** 	int numErrors = errorLocator.degree();
 595:src/pdf417/PDFScanningDecoder.c **** 	result.resize(numErrors);
 596:src/pdf417/PDFScanningDecoder.c **** 	int e = 0;
 597:src/pdf417/PDFScanningDecoder.c **** 	for (int i = 1; i < field.size() && e < numErrors; i++) 
 598:src/pdf417/PDFScanningDecoder.c **** 	{
 599:src/pdf417/PDFScanningDecoder.c **** 		if (errorLocator.evaluateAt(i) == 0) {
 600:src/pdf417/PDFScanningDecoder.c **** 			result[e] = field.inverse(i);
 601:src/pdf417/PDFScanningDecoder.c **** 			e++;
 602:src/pdf417/PDFScanningDecoder.c **** 		}
 603:src/pdf417/PDFScanningDecoder.c **** 	}
 604:src/pdf417/PDFScanningDecoder.c **** 	return e == numErrors;
GAS LISTING C:\Users\jisu8\AppData\Local\Temp\cc0IqG7f.s 			page 56


 605:src/pdf417/PDFScanningDecoder.c **** }
 606:src/pdf417/PDFScanningDecoder.c **** 
 607:src/pdf417/PDFScanningDecoder.c **** #endif
 608:src/pdf417/PDFScanningDecoder.c **** #if 0
 609:src/pdf417/PDFScanningDecoder.c **** static std::vector<int> FindErrorMagnitudes(const ModulusPoly& errorEvaluator, const ModulusPoly& e
 610:src/pdf417/PDFScanningDecoder.c **** {
 611:src/pdf417/PDFScanningDecoder.c **** #ifdef HK_DEBUG
 612:src/pdf417/PDFScanningDecoder.c **** 	printf("FindErrorMagnitudes \n");
 613:src/pdf417/PDFScanningDecoder.c **** #endif
 614:src/pdf417/PDFScanningDecoder.c **** 	const ModulusGF& field = GetModulusGF();
 615:src/pdf417/PDFScanningDecoder.c **** 	int errorLocatorDegree = errorLocator.degree();
 616:src/pdf417/PDFScanningDecoder.c **** 	std::vector<int> formalDerivativeCoefficients(errorLocatorDegree);
 617:src/pdf417/PDFScanningDecoder.c **** 	for (int i = 1; i <= errorLocatorDegree; i++) {
 618:src/pdf417/PDFScanningDecoder.c **** 		formalDerivativeCoefficients[errorLocatorDegree - i] = field.multiply(i, errorLocator.coefficient
 619:src/pdf417/PDFScanningDecoder.c **** 	}
 620:src/pdf417/PDFScanningDecoder.c **** 
 621:src/pdf417/PDFScanningDecoder.c **** 	ModulusPoly formalDerivative(field, formalDerivativeCoefficients);
 622:src/pdf417/PDFScanningDecoder.c **** 	// This is directly applying Forney's Formula
 623:src/pdf417/PDFScanningDecoder.c **** 	std::vector<int> result(errorLocations.size());
 624:src/pdf417/PDFScanningDecoder.c **** 	for (size_t i = 0; i < result.size(); i++) {
 625:src/pdf417/PDFScanningDecoder.c **** 		int xiInverse = field.inverse(errorLocations[i]);
 626:src/pdf417/PDFScanningDecoder.c **** 		int numerator = field.subtract(0, errorEvaluator.evaluateAt(xiInverse));
 627:src/pdf417/PDFScanningDecoder.c **** 		int denominator = field.inverse(formalDerivative.evaluateAt(xiInverse));
 628:src/pdf417/PDFScanningDecoder.c **** 		result[i] = field.multiply(numerator, denominator);
 629:src/pdf417/PDFScanningDecoder.c **** 	}
 630:src/pdf417/PDFScanningDecoder.c **** 	return result;
 631:src/pdf417/PDFScanningDecoder.c **** }
 632:src/pdf417/PDFScanningDecoder.c **** #endif
 633:src/pdf417/PDFScanningDecoder.c **** /**
 634:src/pdf417/PDFScanningDecoder.c **** * @param received received codewords
 635:src/pdf417/PDFScanningDecoder.c **** * @param numECCodewords number of those codewords used for EC
 636:src/pdf417/PDFScanningDecoder.c **** * @param erasures location of erasures
 637:src/pdf417/PDFScanningDecoder.c **** * @return number of errors
 638:src/pdf417/PDFScanningDecoder.c **** * @throws ChecksumException if errors cannot be corrected, maybe because of too many errors
 639:src/pdf417/PDFScanningDecoder.c **** */
 640:src/pdf417/PDFScanningDecoder.c **** 
 641:src/pdf417/PDFScanningDecoder.c **** uint8_t DecodeErrorCorrection(int * received, int numECCodewords, const int * erasures, int * nbErr
 642:src/pdf417/PDFScanningDecoder.c **** {
 2253              		.loc 1 642 1
 2254              		.cfi_startproc
 643:src/pdf417/PDFScanningDecoder.c **** 	#if 0
 644:src/pdf417/PDFScanningDecoder.c **** 	printf("DecodeErrorCorrection  numECCodewords=%d, nbErrors=%d\n", numECCodewords, nbErrors);
 645:src/pdf417/PDFScanningDecoder.c **** 	
 646:src/pdf417/PDFScanningDecoder.c **** 	const ModulusGF& field = GetModulusGF();
 647:src/pdf417/PDFScanningDecoder.c **** 	ModulusPoly poly(field, received);
 648:src/pdf417/PDFScanningDecoder.c **** 	std::vector<int> S(numECCodewords);
 649:src/pdf417/PDFScanningDecoder.c **** 	uint8_t error = 0;
 650:src/pdf417/PDFScanningDecoder.c **** 	for (int i = numECCodewords; i > 0; i--) 
 651:src/pdf417/PDFScanningDecoder.c **** 	{
 652:src/pdf417/PDFScanningDecoder.c **** 		int eval = poly.evaluateAt(field.exp(i));
 653:src/pdf417/PDFScanningDecoder.c **** 		S[numECCodewords - i] = eval;
 654:src/pdf417/PDFScanningDecoder.c **** 		if (eval != 0) 
 655:src/pdf417/PDFScanningDecoder.c **** 		{
 656:src/pdf417/PDFScanningDecoder.c **** 			error = 1;
 657:src/pdf417/PDFScanningDecoder.c **** 		}
 658:src/pdf417/PDFScanningDecoder.c **** 	}
 659:src/pdf417/PDFScanningDecoder.c **** 
GAS LISTING C:\Users\jisu8\AppData\Local\Temp\cc0IqG7f.s 			page 57


 660:src/pdf417/PDFScanningDecoder.c **** 	if (!error) 
 661:src/pdf417/PDFScanningDecoder.c **** 	{
 662:src/pdf417/PDFScanningDecoder.c **** 		nbErrors = 0;
 663:src/pdf417/PDFScanningDecoder.c **** 		return 1;
 664:src/pdf417/PDFScanningDecoder.c **** 	}
 665:src/pdf417/PDFScanningDecoder.c **** 
 666:src/pdf417/PDFScanningDecoder.c **** 	ModulusPoly knownErrors = field.one();
 667:src/pdf417/PDFScanningDecoder.c **** 	for (int erasure : erasures) 
 668:src/pdf417/PDFScanningDecoder.c **** 	{
 669:src/pdf417/PDFScanningDecoder.c **** 		int b = field.exp(Size(received) - 1 - erasure);
 670:src/pdf417/PDFScanningDecoder.c **** 		// Add (1 - bx) term:
 671:src/pdf417/PDFScanningDecoder.c **** 		ModulusPoly term(field, { field.subtract(0, b), 1 });
 672:src/pdf417/PDFScanningDecoder.c **** 		knownErrors = knownErrors.multiply(term);
 673:src/pdf417/PDFScanningDecoder.c **** 	}
 674:src/pdf417/PDFScanningDecoder.c **** 
 675:src/pdf417/PDFScanningDecoder.c **** 	ModulusPoly syndrome(field, S);
 676:src/pdf417/PDFScanningDecoder.c **** 	//syndrome = syndrome.multiply(knownErrors);
 677:src/pdf417/PDFScanningDecoder.c **** 
 678:src/pdf417/PDFScanningDecoder.c **** 	ModulusPoly sigma, omega;
 679:src/pdf417/PDFScanningDecoder.c **** 	if (!RunEuclideanAlgorithm(field.buildMonomial(numECCodewords, 1), syndrome, numECCodewords, sigma
 680:src/pdf417/PDFScanningDecoder.c **** 	{
 681:src/pdf417/PDFScanningDecoder.c **** 		return 0;
 682:src/pdf417/PDFScanningDecoder.c **** 	}
 683:src/pdf417/PDFScanningDecoder.c **** 
 684:src/pdf417/PDFScanningDecoder.c **** 	//sigma = sigma.multiply(knownErrors);
 685:src/pdf417/PDFScanningDecoder.c **** 
 686:src/pdf417/PDFScanningDecoder.c **** 	std::vector<int> errorLocations;
 687:src/pdf417/PDFScanningDecoder.c **** 	if (!FindErrorLocations(sigma, errorLocations)) 
 688:src/pdf417/PDFScanningDecoder.c **** 	{
 689:src/pdf417/PDFScanningDecoder.c **** 		return 0;
 690:src/pdf417/PDFScanningDecoder.c **** 	}
 691:src/pdf417/PDFScanningDecoder.c **** 
 692:src/pdf417/PDFScanningDecoder.c **** 	std::vector<int> errorMagnitudes = FindErrorMagnitudes(omega, sigma, errorLocations);
 693:src/pdf417/PDFScanningDecoder.c **** 
 694:src/pdf417/PDFScanningDecoder.c **** 	int receivedSize = Size(received);
 695:src/pdf417/PDFScanningDecoder.c **** 	for (size_t i = 0; i < errorLocations.size(); i++) 
 696:src/pdf417/PDFScanningDecoder.c **** 	{
 697:src/pdf417/PDFScanningDecoder.c **** 		int position = receivedSize - 1 - field.log(errorLocations[i]);
 698:src/pdf417/PDFScanningDecoder.c **** 		if (position < 0) 
 699:src/pdf417/PDFScanningDecoder.c **** 		{
 700:src/pdf417/PDFScanningDecoder.c **** 			return 0;
 701:src/pdf417/PDFScanningDecoder.c **** 		}
 702:src/pdf417/PDFScanningDecoder.c **** 		received[position] = field.subtract(received[position], errorMagnitudes[i]);
 703:src/pdf417/PDFScanningDecoder.c **** 	}
 704:src/pdf417/PDFScanningDecoder.c **** 	nbErrors = Size(errorLocations);
 705:src/pdf417/PDFScanningDecoder.c **** 	#endif
 706:src/pdf417/PDFScanningDecoder.c **** 	return 1;
 2255              		.loc 1 706 9
 2256 0ff1 B8010000 		movl	$1, %eax
 2256      00
 707:src/pdf417/PDFScanningDecoder.c **** }
 2257              		.loc 1 707 1
 2258 0ff6 C3       		ret
 2259              		.cfi_endproc
 2260              	LFE27:
 2261              		.section .rdata,"dr"
 2262 021b 00       		.align 4
GAS LISTING C:\Users\jisu8\AppData\Local\Temp\cc0IqG7f.s 			page 58


 2263              	LC11:
 2264 021c 436F7272 		.ascii "CorrectErrors  numECCodewords=%d, errorCount=%d\12\0"
 2264      65637445 
 2264      72726F72 
 2264      7320206E 
 2264      756D4543 
 2265 024d 000000   		.text
 2267              	_CorrectErrors:
 2268              	LFB28:
 708:src/pdf417/PDFScanningDecoder.c **** 
 709:src/pdf417/PDFScanningDecoder.c **** 
 710:src/pdf417/PDFScanningDecoder.c **** 
 711:src/pdf417/PDFScanningDecoder.c **** // --------------------------------------- Error Correction
 712:src/pdf417/PDFScanningDecoder.c **** 
 713:src/pdf417/PDFScanningDecoder.c **** /**
 714:src/pdf417/PDFScanningDecoder.c **** * <p>Given data and error-correction codewords received, possibly corrupted by errors, attempts to
 715:src/pdf417/PDFScanningDecoder.c **** * correct the errors in-place.</p>
 716:src/pdf417/PDFScanningDecoder.c **** *
 717:src/pdf417/PDFScanningDecoder.c **** * @param codewords   data and error correction codewords
 718:src/pdf417/PDFScanningDecoder.c **** * @param erasures positions of any known erasures
 719:src/pdf417/PDFScanningDecoder.c **** * @param numECCodewords number of error correction codewords that are available in codewords
 720:src/pdf417/PDFScanningDecoder.c **** * @throws ChecksumException if error correction fails
 721:src/pdf417/PDFScanningDecoder.c **** */
 722:src/pdf417/PDFScanningDecoder.c **** static uint8_t CorrectErrors(int * codewords, const int * erasures, int numECCodewords, int * error
 723:src/pdf417/PDFScanningDecoder.c **** {
 2269              		.loc 1 723 1
 2270              		.cfi_startproc
 2271 0ff7 55       		pushl	%ebp
 2272              	LCFI69:
 2273              		.cfi_def_cfa_offset 8
 2274              		.cfi_offset 5, -8
 2275 0ff8 89E5     		movl	%esp, %ebp
 2276              	LCFI70:
 2277              		.cfi_def_cfa_register 5
 2278 0ffa 83EC18   		subl	$24, %esp
 724:src/pdf417/PDFScanningDecoder.c **** 
 725:src/pdf417/PDFScanningDecoder.c **** 	printf("CorrectErrors  numECCodewords=%d, errorCount=%d\n", numECCodewords, errorCount);
 2279              		.loc 1 725 2
 2280 0ffd 8B4514   		movl	20(%ebp), %eax
 2281 1000 89442408 		movl	%eax, 8(%esp)
 2282 1004 8B4510   		movl	16(%ebp), %eax
 2283 1007 89442404 		movl	%eax, 4(%esp)
 2284 100b C704241C 		movl	$LC11, (%esp)
 2284      020000
 2285 1012 E8000000 		call	_printf
 2285      00
 726:src/pdf417/PDFScanningDecoder.c **** 
 727:src/pdf417/PDFScanningDecoder.c **** 	if (erasure_size > numECCodewords / 2 + MAX_ERRORS ||
 2286              		.loc 1 727 36
 2287 1017 8B4510   		movl	16(%ebp), %eax
 2288 101a 89C2     		movl	%eax, %edx
 2289 101c C1EA1F   		shrl	$31, %edx
 2290 101f 01D0     		addl	%edx, %eax
 2291 1021 D1F8     		sarl	%eax
 2292 1023 89C2     		movl	%eax, %edx
 2293              		.loc 1 727 40
 2294 1025 B8030000 		movl	$3, %eax
GAS LISTING C:\Users\jisu8\AppData\Local\Temp\cc0IqG7f.s 			page 59


 2294      00
 2295 102a 01D0     		addl	%edx, %eax
 2296              		.loc 1 727 5
 2297 102c 394518   		cmpl	%eax, 24(%ebp)
 2298 102f 7F10     		jg	L161
 2299              		.loc 1 727 53 discriminator 1
 2300 1031 837D1000 		cmpl	$0, 16(%ebp)
 2301 1035 780A     		js	L161
 728:src/pdf417/PDFScanningDecoder.c **** 		numECCodewords < 0 ||
 729:src/pdf417/PDFScanningDecoder.c **** 		numECCodewords > MAX_EC_CODEWORDS) 
 2302              		.loc 1 729 18
 2303 1037 B8000200 		movl	$512, %eax
 2303      00
 728:src/pdf417/PDFScanningDecoder.c **** 		numECCodewords < 0 ||
 2304              		.loc 1 728 22
 2305 103c 394510   		cmpl	%eax, 16(%ebp)
 2306 103f 7E07     		jle	L162
 2307              	L161:
 730:src/pdf417/PDFScanningDecoder.c **** 	{
 731:src/pdf417/PDFScanningDecoder.c **** 		// Too many errors or EC Codewords is corrupted
 732:src/pdf417/PDFScanningDecoder.c **** 		return 0;
 2308              		.loc 1 732 10
 2309 1041 B8000000 		movl	$0, %eax
 2309      00
 2310 1046 EB20     		jmp	L163
 2311              	L162:
 733:src/pdf417/PDFScanningDecoder.c **** 	}
 734:src/pdf417/PDFScanningDecoder.c **** 	return DecodeErrorCorrection(codewords, numECCodewords, erasures, errorCount);
 2312              		.loc 1 734 9
 2313 1048 8B4514   		movl	20(%ebp), %eax
 2314 104b 8944240C 		movl	%eax, 12(%esp)
 2315 104f 8B450C   		movl	12(%ebp), %eax
 2316 1052 89442408 		movl	%eax, 8(%esp)
 2317 1056 8B4510   		movl	16(%ebp), %eax
 2318 1059 89442404 		movl	%eax, 4(%esp)
 2319 105d 8B4508   		movl	8(%ebp), %eax
 2320 1060 890424   		movl	%eax, (%esp)
 2321 1063 E889FFFF 		call	_DecodeErrorCorrection
 2321      FF
 2322              	L163:
 735:src/pdf417/PDFScanningDecoder.c **** }
 2323              		.loc 1 735 1
 2324 1068 C9       		leave
 2325              	LCFI71:
 2326              		.cfi_restore 5
 2327              		.cfi_def_cfa 4, 4
 2328 1069 C3       		ret
 2329              		.cfi_endproc
 2330              	LFE28:
 2332              	_VerifyCodewordCount:
 2333              	LFB29:
 736:src/pdf417/PDFScanningDecoder.c **** 
 737:src/pdf417/PDFScanningDecoder.c **** 
 738:src/pdf417/PDFScanningDecoder.c **** /**
 739:src/pdf417/PDFScanningDecoder.c **** * Verify that all is OK with the codeword array.
 740:src/pdf417/PDFScanningDecoder.c **** */
 741:src/pdf417/PDFScanningDecoder.c **** static uint8_t VerifyCodewordCount(int * codewords, int numECCodewords,int codewordsNum)
GAS LISTING C:\Users\jisu8\AppData\Local\Temp\cc0IqG7f.s 			page 60


 742:src/pdf417/PDFScanningDecoder.c **** {
 2334              		.loc 1 742 1
 2335              		.cfi_startproc
 2336 106a 55       		pushl	%ebp
 2337              	LCFI72:
 2338              		.cfi_def_cfa_offset 8
 2339              		.cfi_offset 5, -8
 2340 106b 89E5     		movl	%esp, %ebp
 2341              	LCFI73:
 2342              		.cfi_def_cfa_register 5
 2343 106d 83EC10   		subl	$16, %esp
 743:src/pdf417/PDFScanningDecoder.c **** 	if (codewordsNum < 4) 
 2344              		.loc 1 743 5
 2345 1070 837D1003 		cmpl	$3, 16(%ebp)
 2346 1074 7F07     		jg	L165
 744:src/pdf417/PDFScanningDecoder.c **** 	{
 745:src/pdf417/PDFScanningDecoder.c **** 		// Codeword array size should be at least 4 allowing for
 746:src/pdf417/PDFScanningDecoder.c **** 		// Count CW, At least one Data CW, Error Correction CW, Error Correction CW
 747:src/pdf417/PDFScanningDecoder.c **** 		return 0;
 2347              		.loc 1 747 10
 2348 1076 B8000000 		movl	$0, %eax
 2348      00
 2349 107b EB40     		jmp	L166
 2350              	L165:
 748:src/pdf417/PDFScanningDecoder.c **** 	}
 749:src/pdf417/PDFScanningDecoder.c **** 	// The first codeword, the Symbol Length Descriptor, shall always encode the total number of data
 750:src/pdf417/PDFScanningDecoder.c **** 	// codewords in the symbol, including the Symbol Length Descriptor itself, data codewords and pad
 751:src/pdf417/PDFScanningDecoder.c **** 	// codewords, but excluding the number of error correction codewords.
 752:src/pdf417/PDFScanningDecoder.c **** 	int numberOfCodewords = codewords[0];
 2351              		.loc 1 752 6
 2352 107d 8B4508   		movl	8(%ebp), %eax
 2353 1080 8B00     		movl	(%eax), %eax
 2354 1082 8945FC   		movl	%eax, -4(%ebp)
 753:src/pdf417/PDFScanningDecoder.c **** 
 754:src/pdf417/PDFScanningDecoder.c **** 	if (numberOfCodewords > codewordsNum) 
 2355              		.loc 1 754 5
 2356 1085 8B45FC   		movl	-4(%ebp), %eax
 2357 1088 3B4510   		cmpl	16(%ebp), %eax
 2358 108b 7E07     		jle	L167
 755:src/pdf417/PDFScanningDecoder.c **** 	{
 756:src/pdf417/PDFScanningDecoder.c **** 		return 0;
 2359              		.loc 1 756 10
 2360 108d B8000000 		movl	$0, %eax
 2360      00
 2361 1092 EB29     		jmp	L166
 2362              	L167:
 757:src/pdf417/PDFScanningDecoder.c **** 	}
 758:src/pdf417/PDFScanningDecoder.c **** 
 759:src/pdf417/PDFScanningDecoder.c **** 	if (numberOfCodewords == 0) 
 2363              		.loc 1 759 5
 2364 1094 837DFC00 		cmpl	$0, -4(%ebp)
 2365 1098 751E     		jne	L168
 760:src/pdf417/PDFScanningDecoder.c **** 	{
 761:src/pdf417/PDFScanningDecoder.c **** 		// Reset to the length of the array - 8 (Allow for at least level 3 Error Correction (8 Error Cod
 762:src/pdf417/PDFScanningDecoder.c **** 		if (numECCodewords < codewordsNum) 
 2366              		.loc 1 762 6
 2367 109a 8B450C   		movl	12(%ebp), %eax
GAS LISTING C:\Users\jisu8\AppData\Local\Temp\cc0IqG7f.s 			page 61


 2368 109d 3B4510   		cmpl	16(%ebp), %eax
 2369 10a0 7D0F     		jge	L169
 763:src/pdf417/PDFScanningDecoder.c **** 		{
 764:src/pdf417/PDFScanningDecoder.c **** 			codewords[0] = codewordsNum - numECCodewords;
 2370              		.loc 1 764 32
 2371 10a2 8B4510   		movl	16(%ebp), %eax
 2372 10a5 2B450C   		subl	12(%ebp), %eax
 2373 10a8 89C2     		movl	%eax, %edx
 2374              		.loc 1 764 17
 2375 10aa 8B4508   		movl	8(%ebp), %eax
 2376 10ad 8910     		movl	%edx, (%eax)
 2377 10af EB07     		jmp	L168
 2378              	L169:
 765:src/pdf417/PDFScanningDecoder.c **** 		}
 766:src/pdf417/PDFScanningDecoder.c **** 		else 
 767:src/pdf417/PDFScanningDecoder.c **** 		{
 768:src/pdf417/PDFScanningDecoder.c **** 			return 0;
 2379              		.loc 1 768 11
 2380 10b1 B8000000 		movl	$0, %eax
 2380      00
 2381 10b6 EB05     		jmp	L166
 2382              	L168:
 769:src/pdf417/PDFScanningDecoder.c **** 		}
 770:src/pdf417/PDFScanningDecoder.c **** 	}
 771:src/pdf417/PDFScanningDecoder.c **** 	return 1;
 2383              		.loc 1 771 9
 2384 10b8 B8010000 		movl	$1, %eax
 2384      00
 2385              	L166:
 772:src/pdf417/PDFScanningDecoder.c **** }
 2386              		.loc 1 772 1
 2387 10bd C9       		leave
 2388              	LCFI74:
 2389              		.cfi_restore 5
 2390              		.cfi_def_cfa 4, 4
 2391 10be C3       		ret
 2392              		.cfi_endproc
 2393              	LFE29:
 2394              		.globl	_result_init
 2396              	_result_init:
 2397              	LFB30:
 773:src/pdf417/PDFScanningDecoder.c **** void result_init(DecoderResult_t * result)
 774:src/pdf417/PDFScanningDecoder.c **** {		
 2398              		.loc 1 774 1
 2399              		.cfi_startproc
 2400 10bf 55       		pushl	%ebp
 2401              	LCFI75:
 2402              		.cfi_def_cfa_offset 8
 2403              		.cfi_offset 5, -8
 2404 10c0 89E5     		movl	%esp, %ebp
 2405              	LCFI76:
 2406              		.cfi_def_cfa_register 5
 775:src/pdf417/PDFScanningDecoder.c **** 	result->status = NoError;
 2407              		.loc 1 775 17
 2408 10c2 8B4508   		movl	8(%ebp), %eax
 2409 10c5 C7000000 		movl	$0, (%eax)
 2409      0000
GAS LISTING C:\Users\jisu8\AppData\Local\Temp\cc0IqG7f.s 			page 62


 776:src/pdf417/PDFScanningDecoder.c **** 	result->_rawBytes = NULL;
 2410              		.loc 1 776 20
 2411 10cb 8B4508   		movl	8(%ebp), %eax
 2412 10ce C7400400 		movl	$0, 4(%eax)
 2412      000000
 777:src/pdf417/PDFScanningDecoder.c **** 	result->_numBits = 0;
 2413              		.loc 1 777 19
 2414 10d5 8B4508   		movl	8(%ebp), %eax
 2415 10d8 C7400800 		movl	$0, 8(%eax)
 2415      000000
 778:src/pdf417/PDFScanningDecoder.c **** 	result->_text = NULL; //wstring
 2416              		.loc 1 778 16
 2417 10df 8B4508   		movl	8(%ebp), %eax
 2418 10e2 C7400C00 		movl	$0, 12(%eax)
 2418      000000
 779:src/pdf417/PDFScanningDecoder.c **** 	result->_ecLevel = NULL; //wstring
 2419              		.loc 1 779 19
 2420 10e9 8B4508   		movl	8(%ebp), %eax
 2421 10ec C7401000 		movl	$0, 16(%eax)
 2421      000000
 780:src/pdf417/PDFScanningDecoder.c **** 	result->_errorsCorrected = 0;
 2422              		.loc 1 780 27
 2423 10f3 8B4508   		movl	8(%ebp), %eax
 2424 10f6 C7401400 		movl	$0, 20(%eax)
 2424      000000
 781:src/pdf417/PDFScanningDecoder.c **** 	result->_erasures = 0;
 2425              		.loc 1 781 20
 2426 10fd 8B4508   		movl	8(%ebp), %eax
 2427 1100 C7401800 		movl	$0, 24(%eax)
 2427      000000
 782:src/pdf417/PDFScanningDecoder.c **** 	//result->_structuredAppend = 0;
 783:src/pdf417/PDFScanningDecoder.c **** 	result->_readerInit = 0; // bool
 2428              		.loc 1 783 22
 2429 1107 8B4508   		movl	8(%ebp), %eax
 2430 110a C6402800 		movb	$0, 40(%eax)
 784:src/pdf417/PDFScanningDecoder.c **** 	result->_extra = NULL; //custom data
 2431              		.loc 1 784 17
 2432 110e 8B4508   		movl	8(%ebp), %eax
 2433 1111 C7402C00 		movl	$0, 44(%eax)
 2433      000000
 785:src/pdf417/PDFScanningDecoder.c **** }
 2434              		.loc 1 785 1
 2435 1118 90       		nop
 2436 1119 5D       		popl	%ebp
 2437              	LCFI77:
 2438              		.cfi_restore 5
 2439              		.cfi_def_cfa 4, 4
 2440 111a C3       		ret
 2441              		.cfi_endproc
 2442              	LFE30:
 2443              		.globl	_DecodeCodewords
 2445              	_DecodeCodewords:
 2446              	LFB31:
 786:src/pdf417/PDFScanningDecoder.c **** 
 787:src/pdf417/PDFScanningDecoder.c **** DecoderResult_t DecodeCodewords(int * codewords, int ecLevel, const int * erasures,
 788:src/pdf417/PDFScanningDecoder.c **** 							  const unsigned char * characterSet,int erasure_size,int codewordsNum)
 789:src/pdf417/PDFScanningDecoder.c **** {
GAS LISTING C:\Users\jisu8\AppData\Local\Temp\cc0IqG7f.s 			page 63


 2447              		.loc 1 789 1
 2448              		.cfi_startproc
 2449 111b 55       		pushl	%ebp
 2450              	LCFI78:
 2451              		.cfi_def_cfa_offset 8
 2452              		.cfi_offset 5, -8
 2453 111c 89E5     		movl	%esp, %ebp
 2454              	LCFI79:
 2455              		.cfi_def_cfa_register 5
 2456 111e 83EC68   		subl	$104, %esp
 790:src/pdf417/PDFScanningDecoder.c **** 	DecoderResult_t result;
 791:src/pdf417/PDFScanningDecoder.c **** 	result_init(&result);
 2457              		.loc 1 791 2
 2458 1121 8D45C0   		leal	-64(%ebp), %eax
 2459 1124 890424   		movl	%eax, (%esp)
 2460 1127 E893FFFF 		call	_result_init
 2460      FF
 792:src/pdf417/PDFScanningDecoder.c **** 	#if 0
 793:src/pdf417/PDFScanningDecoder.c **** 	if (codewords.empty()) 
 794:src/pdf417/PDFScanningDecoder.c **** 	{
 795:src/pdf417/PDFScanningDecoder.c **** 		return FormatError;
 796:src/pdf417/PDFScanningDecoder.c **** 	}
 797:src/pdf417/PDFScanningDecoder.c **** 	#endif
 798:src/pdf417/PDFScanningDecoder.c **** 	
 799:src/pdf417/PDFScanningDecoder.c **** 	int numECCodewords = 1 << (ecLevel + 1);
 2461              		.loc 1 799 37
 2462 112c 8B4510   		movl	16(%ebp), %eax
 2463 112f 83C001   		addl	$1, %eax
 2464              		.loc 1 799 6
 2465 1132 BA010000 		movl	$1, %edx
 2465      00
 2466 1137 89C1     		movl	%eax, %ecx
 2467 1139 D3E2     		sall	%cl, %edx
 2468 113b 89D0     		movl	%edx, %eax
 2469 113d 8945F4   		movl	%eax, -12(%ebp)
 800:src/pdf417/PDFScanningDecoder.c **** 	int correctedErrorsCount = 0;
 2470              		.loc 1 800 6
 2471 1140 C745F000 		movl	$0, -16(%ebp)
 2471      000000
 801:src/pdf417/PDFScanningDecoder.c **** 
 802:src/pdf417/PDFScanningDecoder.c **** 	if (!CorrectErrors(codewords, erasures, numECCodewords, correctedErrorsCount,erasure_size))
 2472              		.loc 1 802 7
 2473 1147 8B45F0   		movl	-16(%ebp), %eax
 2474 114a 8B551C   		movl	28(%ebp), %edx
 2475 114d 89542410 		movl	%edx, 16(%esp)
 2476 1151 8944240C 		movl	%eax, 12(%esp)
 2477 1155 8B45F4   		movl	-12(%ebp), %eax
 2478 1158 89442408 		movl	%eax, 8(%esp)
 2479 115c 8B4514   		movl	20(%ebp), %eax
 2480 115f 89442404 		movl	%eax, 4(%esp)
 2481 1163 8B450C   		movl	12(%ebp), %eax
 2482 1166 890424   		movl	%eax, (%esp)
 2483 1169 E889FEFF 		call	_CorrectErrors
 2483      FF
 2484              		.loc 1 802 5
 2485 116e 84C0     		testb	%al, %al
 2486 1170 7556     		jne	L172
GAS LISTING C:\Users\jisu8\AppData\Local\Temp\cc0IqG7f.s 			page 64


 803:src/pdf417/PDFScanningDecoder.c **** 	{
 804:src/pdf417/PDFScanningDecoder.c **** 		result.status = ChecksumError;
 2487              		.loc 1 804 17
 2488 1172 C745C003 		movl	$3, -64(%ebp)
 2488      000000
 805:src/pdf417/PDFScanningDecoder.c **** 		return result;
 2489              		.loc 1 805 10
 2490 1179 8B4508   		movl	8(%ebp), %eax
 2491 117c 8B55C0   		movl	-64(%ebp), %edx
 2492 117f 8910     		movl	%edx, (%eax)
 2493 1181 8B55C4   		movl	-60(%ebp), %edx
 2494 1184 895004   		movl	%edx, 4(%eax)
 2495 1187 8B55C8   		movl	-56(%ebp), %edx
 2496 118a 895008   		movl	%edx, 8(%eax)
 2497 118d 8B55CC   		movl	-52(%ebp), %edx
 2498 1190 89500C   		movl	%edx, 12(%eax)
 2499 1193 8B55D0   		movl	-48(%ebp), %edx
 2500 1196 895010   		movl	%edx, 16(%eax)
 2501 1199 8B55D4   		movl	-44(%ebp), %edx
 2502 119c 895014   		movl	%edx, 20(%eax)
 2503 119f 8B55D8   		movl	-40(%ebp), %edx
 2504 11a2 895018   		movl	%edx, 24(%eax)
 2505 11a5 8B55DC   		movl	-36(%ebp), %edx
 2506 11a8 89501C   		movl	%edx, 28(%eax)
 2507 11ab 8B55E0   		movl	-32(%ebp), %edx
 2508 11ae 895020   		movl	%edx, 32(%eax)
 2509 11b1 8B55E4   		movl	-28(%ebp), %edx
 2510 11b4 895024   		movl	%edx, 36(%eax)
 2511 11b7 8B55E8   		movl	-24(%ebp), %edx
 2512 11ba 895028   		movl	%edx, 40(%eax)
 2513 11bd 8B55EC   		movl	-20(%ebp), %edx
 2514 11c0 89502C   		movl	%edx, 44(%eax)
 2515 11c3 E9ED0000 		jmp	L171
 2515      00
 2516              	L172:
 806:src/pdf417/PDFScanningDecoder.c **** 	}
 807:src/pdf417/PDFScanningDecoder.c **** 
 808:src/pdf417/PDFScanningDecoder.c **** 
 809:src/pdf417/PDFScanningDecoder.c **** 	if (!VerifyCodewordCount(codewords, numECCodewords,codewordsNum))
 2517              		.loc 1 809 7
 2518 11c8 8B4520   		movl	32(%ebp), %eax
 2519 11cb 89442408 		movl	%eax, 8(%esp)
 2520 11cf 8B45F4   		movl	-12(%ebp), %eax
 2521 11d2 89442404 		movl	%eax, 4(%esp)
 2522 11d6 8B450C   		movl	12(%ebp), %eax
 2523 11d9 890424   		movl	%eax, (%esp)
 2524 11dc E889FEFF 		call	_VerifyCodewordCount
 2524      FF
 2525              		.loc 1 809 5
 2526 11e1 84C0     		testb	%al, %al
 2527 11e3 7553     		jne	L174
 810:src/pdf417/PDFScanningDecoder.c **** 	{
 811:src/pdf417/PDFScanningDecoder.c **** 		result.status = FormatError;
 2528              		.loc 1 811 17
 2529 11e5 C745C002 		movl	$2, -64(%ebp)
 2529      000000
 812:src/pdf417/PDFScanningDecoder.c **** 		return result;
GAS LISTING C:\Users\jisu8\AppData\Local\Temp\cc0IqG7f.s 			page 65


 2530              		.loc 1 812 10
 2531 11ec 8B4508   		movl	8(%ebp), %eax
 2532 11ef 8B55C0   		movl	-64(%ebp), %edx
 2533 11f2 8910     		movl	%edx, (%eax)
 2534 11f4 8B55C4   		movl	-60(%ebp), %edx
 2535 11f7 895004   		movl	%edx, 4(%eax)
 2536 11fa 8B55C8   		movl	-56(%ebp), %edx
 2537 11fd 895008   		movl	%edx, 8(%eax)
 2538 1200 8B55CC   		movl	-52(%ebp), %edx
 2539 1203 89500C   		movl	%edx, 12(%eax)
 2540 1206 8B55D0   		movl	-48(%ebp), %edx
 2541 1209 895010   		movl	%edx, 16(%eax)
 2542 120c 8B55D4   		movl	-44(%ebp), %edx
 2543 120f 895014   		movl	%edx, 20(%eax)
 2544 1212 8B55D8   		movl	-40(%ebp), %edx
 2545 1215 895018   		movl	%edx, 24(%eax)
 2546 1218 8B55DC   		movl	-36(%ebp), %edx
 2547 121b 89501C   		movl	%edx, 28(%eax)
 2548 121e 8B55E0   		movl	-32(%ebp), %edx
 2549 1221 895020   		movl	%edx, 32(%eax)
 2550 1224 8B55E4   		movl	-28(%ebp), %edx
 2551 1227 895024   		movl	%edx, 36(%eax)
 2552 122a 8B55E8   		movl	-24(%ebp), %edx
 2553 122d 895028   		movl	%edx, 40(%eax)
 2554 1230 8B55EC   		movl	-20(%ebp), %edx
 2555 1233 89502C   		movl	%edx, 44(%eax)
 2556 1236 EB7D     		jmp	L171
 2557              	L174:
 813:src/pdf417/PDFScanningDecoder.c **** 	}
 814:src/pdf417/PDFScanningDecoder.c **** 
 815:src/pdf417/PDFScanningDecoder.c **** 	// Decode the codewords
 816:src/pdf417/PDFScanningDecoder.c **** 	BitStreamDecode(&result,codewords, ecLevel, characterSet);
 2558              		.loc 1 816 2
 2559 1238 8B4518   		movl	24(%ebp), %eax
 2560 123b 8944240C 		movl	%eax, 12(%esp)
 2561 123f 8B4510   		movl	16(%ebp), %eax
 2562 1242 89442408 		movl	%eax, 8(%esp)
 2563 1246 8B450C   		movl	12(%ebp), %eax
 2564 1249 89442404 		movl	%eax, 4(%esp)
 2565 124d 8D45C0   		leal	-64(%ebp), %eax
 2566 1250 890424   		movl	%eax, (%esp)
 2567 1253 E8000000 		call	_BitStreamDecode
 2567      00
 817:src/pdf417/PDFScanningDecoder.c **** 
 818:src/pdf417/PDFScanningDecoder.c **** 	if (result.status == NoError) 
 2568              		.loc 1 818 12
 2569 1258 8B45C0   		movl	-64(%ebp), %eax
 2570              		.loc 1 818 5
 2571 125b 85C0     		testl	%eax, %eax
 2572 125d 750C     		jne	L175
 819:src/pdf417/PDFScanningDecoder.c **** 	{
 820:src/pdf417/PDFScanningDecoder.c **** 		result._errorsCorrected = correctedErrorsCount;
 2573              		.loc 1 820 27
 2574 125f 8B45F0   		movl	-16(%ebp), %eax
 2575 1262 8945D4   		movl	%eax, -44(%ebp)
 821:src/pdf417/PDFScanningDecoder.c **** 		result._erasures = erasure_size;
 2576              		.loc 1 821 20
GAS LISTING C:\Users\jisu8\AppData\Local\Temp\cc0IqG7f.s 			page 66


 2577 1265 8B451C   		movl	28(%ebp), %eax
 2578 1268 8945D8   		movl	%eax, -40(%ebp)
 2579              	L175:
 822:src/pdf417/PDFScanningDecoder.c **** 	}
 823:src/pdf417/PDFScanningDecoder.c **** 
 824:src/pdf417/PDFScanningDecoder.c **** 
 825:src/pdf417/PDFScanningDecoder.c **** 	return result;
 2580              		.loc 1 825 9
 2581 126b 8B4508   		movl	8(%ebp), %eax
 2582 126e 8B55C0   		movl	-64(%ebp), %edx
 2583 1271 8910     		movl	%edx, (%eax)
 2584 1273 8B55C4   		movl	-60(%ebp), %edx
 2585 1276 895004   		movl	%edx, 4(%eax)
 2586 1279 8B55C8   		movl	-56(%ebp), %edx
 2587 127c 895008   		movl	%edx, 8(%eax)
 2588 127f 8B55CC   		movl	-52(%ebp), %edx
 2589 1282 89500C   		movl	%edx, 12(%eax)
 2590 1285 8B55D0   		movl	-48(%ebp), %edx
 2591 1288 895010   		movl	%edx, 16(%eax)
 2592 128b 8B55D4   		movl	-44(%ebp), %edx
 2593 128e 895014   		movl	%edx, 20(%eax)
 2594 1291 8B55D8   		movl	-40(%ebp), %edx
 2595 1294 895018   		movl	%edx, 24(%eax)
 2596 1297 8B55DC   		movl	-36(%ebp), %edx
 2597 129a 89501C   		movl	%edx, 28(%eax)
 2598 129d 8B55E0   		movl	-32(%ebp), %edx
 2599 12a0 895020   		movl	%edx, 32(%eax)
 2600 12a3 8B55E4   		movl	-28(%ebp), %edx
 2601 12a6 895024   		movl	%edx, 36(%eax)
 2602 12a9 8B55E8   		movl	-24(%ebp), %edx
 2603 12ac 895028   		movl	%edx, 40(%eax)
 2604 12af 8B55EC   		movl	-20(%ebp), %edx
 2605 12b2 89502C   		movl	%edx, 44(%eax)
 2606              	L171:
 826:src/pdf417/PDFScanningDecoder.c **** }
 2607              		.loc 1 826 1
 2608 12b5 8B4508   		movl	8(%ebp), %eax
 2609 12b8 C9       		leave
 2610              	LCFI80:
 2611              		.cfi_restore 5
 2612              		.cfi_def_cfa 4, 4
 2613 12b9 C3       		ret
 2614              		.cfi_endproc
 2615              	LFE31:
 2617              	_CreateDecoderResultFromAmbiguousValues:
 2618              	LFB32:
 827:src/pdf417/PDFScanningDecoder.c **** 
 828:src/pdf417/PDFScanningDecoder.c **** 
 829:src/pdf417/PDFScanningDecoder.c **** /**
 830:src/pdf417/PDFScanningDecoder.c **** * This method deals with the fact, that the decoding process doesn't always yield a single most lik
 831:src/pdf417/PDFScanningDecoder.c **** * current error correction implementation doesn't deal with erasures very well, so it's better to p
 832:src/pdf417/PDFScanningDecoder.c **** * for these ambiguous codewords instead of treating it as an erasure. The problem is that we don't 
 833:src/pdf417/PDFScanningDecoder.c **** * the ambiguous values to choose. We try decode using the first value, and if that fails, we use an
 834:src/pdf417/PDFScanningDecoder.c **** * ambiguous values and try to decode again. This usually only happens on very hard to read and deco
 835:src/pdf417/PDFScanningDecoder.c **** * so decoding the normal barcodes is not affected by this.
 836:src/pdf417/PDFScanningDecoder.c **** *
 837:src/pdf417/PDFScanningDecoder.c **** * @param erasureArray contains the indexes of erasures
GAS LISTING C:\Users\jisu8\AppData\Local\Temp\cc0IqG7f.s 			page 67


 838:src/pdf417/PDFScanningDecoder.c **** * @param ambiguousIndexes array with the indexes that have more than one most likely value
 839:src/pdf417/PDFScanningDecoder.c **** * @param ambiguousIndexValues two dimensional array that contains the ambiguous values. The first d
 840:src/pdf417/PDFScanningDecoder.c **** * be the same length as the ambiguousIndexes array
 841:src/pdf417/PDFScanningDecoder.c **** */
 842:src/pdf417/PDFScanningDecoder.c **** static DecoderResult_t CreateDecoderResultFromAmbiguousValues(int ecLevel, int * codewords,
 843:src/pdf417/PDFScanningDecoder.c **** 	const int * erasureArray, const int * ambiguousIndexes,
 844:src/pdf417/PDFScanningDecoder.c **** 	const int * ambiguousIndexValues, const char * characterSet,int erasure_size,int codewordsNum,int 
 845:src/pdf417/PDFScanningDecoder.c **** {	
 2619              		.loc 1 845 1
 2620              		.cfi_startproc
 2621 12ba 55       		pushl	%ebp
 2622              	LCFI81:
 2623              		.cfi_def_cfa_offset 8
 2624              		.cfi_offset 5, -8
 2625 12bb 89E5     		movl	%esp, %ebp
 2626              	LCFI82:
 2627              		.cfi_def_cfa_register 5
 2628 12bd 53       		pushl	%ebx
 2629 12be 81ECA400 		subl	$164, %esp
 2629      0000
 2630              		.cfi_offset 3, -12
 2631              		.loc 1 845 1
 2632 12c4 89E0     		movl	%esp, %eax
 2633 12c6 89C3     		movl	%eax, %ebx
 846:src/pdf417/PDFScanningDecoder.c **** 	DecoderResult_t result;
 847:src/pdf417/PDFScanningDecoder.c **** 	result_init(&result);
 2634              		.loc 1 847 2
 2635 12c8 8D45B4   		leal	-76(%ebp), %eax
 2636 12cb 890424   		movl	%eax, (%esp)
 2637 12ce E8ECFDFF 		call	_result_init
 2637      FF
 848:src/pdf417/PDFScanningDecoder.c **** 	int ambiguousIndexCount[ambiguousSize];
 2638              		.loc 1 848 2
 2639 12d3 8B452C   		movl	44(%ebp), %eax
 2640              		.loc 1 848 6
 2641 12d6 8D50FF   		leal	-1(%eax), %edx
 2642 12d9 8955E8   		movl	%edx, -24(%ebp)
 2643 12dc 8D148500 		leal	0(,%eax,4), %edx
 2643      000000
 2644 12e3 B8100000 		movl	$16, %eax
 2644      00
 2645 12e8 83E801   		subl	$1, %eax
 2646 12eb 01D0     		addl	%edx, %eax
 2647 12ed B9100000 		movl	$16, %ecx
 2647      00
 2648 12f2 BA000000 		movl	$0, %edx
 2648      00
 2649 12f7 F7F1     		divl	%ecx
 2650 12f9 6BC010   		imull	$16, %eax, %eax
 2651 12fc E8000000 		call	___chkstk_ms
 2651      00
 2652 1301 29C4     		subl	%eax, %esp
 2653 1303 8D44241C 		leal	28(%esp), %eax
 2654 1307 83C003   		addl	$3, %eax
 2655 130a C1E802   		shrl	$2, %eax
 2656 130d C1E002   		sall	$2, %eax
 2657 1310 8945E4   		movl	%eax, -28(%ebp)
GAS LISTING C:\Users\jisu8\AppData\Local\Temp\cc0IqG7f.s 			page 68


 849:src/pdf417/PDFScanningDecoder.c **** 	fill(ambiguousSize,ambiguousIndexCount,0);
 2658              		.loc 1 849 2
 2659 1313 8B45E4   		movl	-28(%ebp), %eax
 2660 1316 C7442408 		movl	$0, 8(%esp)
 2660      00000000 
 2661 131e 89442404 		movl	%eax, 4(%esp)
 2662 1322 8B452C   		movl	44(%ebp), %eax
 2663 1325 890424   		movl	%eax, (%esp)
 2664 1328 E8000000 		call	_fill
 2664      00
 850:src/pdf417/PDFScanningDecoder.c **** 
 851:src/pdf417/PDFScanningDecoder.c **** 	int tries = 100;
 2665              		.loc 1 851 6
 2666 132d C745EC64 		movl	$100, -20(%ebp)
 2666      000000
 852:src/pdf417/PDFScanningDecoder.c **** 	while (tries-- > 0) 
 2667              		.loc 1 852 8
 2668 1334 E9FF0100 		jmp	L178
 2668      00
 2669              	L188:
 2670              	LBB20:
 853:src/pdf417/PDFScanningDecoder.c **** 	{
 854:src/pdf417/PDFScanningDecoder.c **** 		for (size_t i = 0; i < ambiguousSize; i++) 
 2671              		.loc 1 854 15
 2672 1339 C745F000 		movl	$0, -16(%ebp)
 2672      000000
 2673              		.loc 1 854 3
 2674 1340 EB04     		jmp	L179
 2675              	L180:
 2676              		.loc 1 854 42 discriminator 3
 2677 1342 8345F001 		addl	$1, -16(%ebp)
 2678              	L179:
 2679              		.loc 1 854 24 discriminator 1
 2680 1346 8B452C   		movl	44(%ebp), %eax
 2681              		.loc 1 854 3 discriminator 1
 2682 1349 3945F0   		cmpl	%eax, -16(%ebp)
 2683 134c 72F4     		jb	L180
 2684              	LBE20:
 855:src/pdf417/PDFScanningDecoder.c **** 		{
 856:src/pdf417/PDFScanningDecoder.c **** 			//codewords[ambiguousIndexes[i]] = ambiguousIndexValues[i][ambiguousIndexCount[i]];
 857:src/pdf417/PDFScanningDecoder.c **** 		}
 858:src/pdf417/PDFScanningDecoder.c **** 
 859:src/pdf417/PDFScanningDecoder.c **** 		result = DecodeCodewords(codewords, ecLevel, erasureArray, characterSet,erasure_size,codewordsNum
 2685              		.loc 1 859 12
 2686 134e 8D8578FF 		leal	-136(%ebp), %eax
 2686      FFFF
 2687 1354 8B5528   		movl	40(%ebp), %edx
 2688 1357 89542418 		movl	%edx, 24(%esp)
 2689 135b 8B5524   		movl	36(%ebp), %edx
 2690 135e 89542414 		movl	%edx, 20(%esp)
 2691 1362 8B5520   		movl	32(%ebp), %edx
 2692 1365 89542410 		movl	%edx, 16(%esp)
 2693 1369 8B5514   		movl	20(%ebp), %edx
 2694 136c 8954240C 		movl	%edx, 12(%esp)
 2695 1370 8B550C   		movl	12(%ebp), %edx
 2696 1373 89542408 		movl	%edx, 8(%esp)
 2697 1377 8B5510   		movl	16(%ebp), %edx
GAS LISTING C:\Users\jisu8\AppData\Local\Temp\cc0IqG7f.s 			page 69


 2698 137a 89542404 		movl	%edx, 4(%esp)
 2699 137e 890424   		movl	%eax, (%esp)
 2700 1381 E895FDFF 		call	_DecodeCodewords
 2700      FF
 2701 1386 8B8578FF 		movl	-136(%ebp), %eax
 2701      FFFF
 2702 138c 8945B4   		movl	%eax, -76(%ebp)
 2703 138f 8B857CFF 		movl	-132(%ebp), %eax
 2703      FFFF
 2704 1395 8945B8   		movl	%eax, -72(%ebp)
 2705 1398 8B4580   		movl	-128(%ebp), %eax
 2706 139b 8945BC   		movl	%eax, -68(%ebp)
 2707 139e 8B4584   		movl	-124(%ebp), %eax
 2708 13a1 8945C0   		movl	%eax, -64(%ebp)
 2709 13a4 8B4588   		movl	-120(%ebp), %eax
 2710 13a7 8945C4   		movl	%eax, -60(%ebp)
 2711 13aa 8B458C   		movl	-116(%ebp), %eax
 2712 13ad 8945C8   		movl	%eax, -56(%ebp)
 2713 13b0 8B4590   		movl	-112(%ebp), %eax
 2714 13b3 8945CC   		movl	%eax, -52(%ebp)
 2715 13b6 8B4594   		movl	-108(%ebp), %eax
 2716 13b9 8945D0   		movl	%eax, -48(%ebp)
 2717 13bc 8B4598   		movl	-104(%ebp), %eax
 2718 13bf 8945D4   		movl	%eax, -44(%ebp)
 2719 13c2 8B459C   		movl	-100(%ebp), %eax
 2720 13c5 8945D8   		movl	%eax, -40(%ebp)
 2721 13c8 8B45A0   		movl	-96(%ebp), %eax
 2722 13cb 8945DC   		movl	%eax, -36(%ebp)
 2723 13ce 8B45A4   		movl	-92(%ebp), %eax
 2724 13d1 8945E0   		movl	%eax, -32(%ebp)
 860:src/pdf417/PDFScanningDecoder.c **** 
 861:src/pdf417/PDFScanningDecoder.c **** 		if (result.status != ChecksumError) 
 2725              		.loc 1 861 13
 2726 13d4 8B45B4   		movl	-76(%ebp), %eax
 2727              		.loc 1 861 6
 2728 13d7 83F803   		cmpl	$3, %eax
 2729 13da 744F     		je	L181
 862:src/pdf417/PDFScanningDecoder.c **** 		{
 863:src/pdf417/PDFScanningDecoder.c **** 			return result;
 2730              		.loc 1 863 11
 2731 13dc 8B4508   		movl	8(%ebp), %eax
 2732 13df 8B55B4   		movl	-76(%ebp), %edx
 2733 13e2 8910     		movl	%edx, (%eax)
 2734 13e4 8B55B8   		movl	-72(%ebp), %edx
 2735 13e7 895004   		movl	%edx, 4(%eax)
 2736 13ea 8B55BC   		movl	-68(%ebp), %edx
 2737 13ed 895008   		movl	%edx, 8(%eax)
 2738 13f0 8B55C0   		movl	-64(%ebp), %edx
 2739 13f3 89500C   		movl	%edx, 12(%eax)
 2740 13f6 8B55C4   		movl	-60(%ebp), %edx
 2741 13f9 895010   		movl	%edx, 16(%eax)
 2742 13fc 8B55C8   		movl	-56(%ebp), %edx
 2743 13ff 895014   		movl	%edx, 20(%eax)
 2744 1402 8B55CC   		movl	-52(%ebp), %edx
 2745 1405 895018   		movl	%edx, 24(%eax)
 2746 1408 8B55D0   		movl	-48(%ebp), %edx
 2747 140b 89501C   		movl	%edx, 28(%eax)
GAS LISTING C:\Users\jisu8\AppData\Local\Temp\cc0IqG7f.s 			page 70


 2748 140e 8B55D4   		movl	-44(%ebp), %edx
 2749 1411 895020   		movl	%edx, 32(%eax)
 2750 1414 8B55D8   		movl	-40(%ebp), %edx
 2751 1417 895024   		movl	%edx, 36(%eax)
 2752 141a 8B55DC   		movl	-36(%ebp), %edx
 2753 141d 895028   		movl	%edx, 40(%eax)
 2754 1420 8B55E0   		movl	-32(%ebp), %edx
 2755 1423 89502C   		movl	%edx, 44(%eax)
 2756 1426 E96F0100 		jmp	L182
 2756      00
 2757              	L181:
 864:src/pdf417/PDFScanningDecoder.c **** 		}
 865:src/pdf417/PDFScanningDecoder.c **** 
 866:src/pdf417/PDFScanningDecoder.c **** 
 867:src/pdf417/PDFScanningDecoder.c **** 		if (ambiguousSize == 0) 
 2758              		.loc 1 867 6
 2759 142b 837D2C00 		cmpl	$0, 44(%ebp)
 2760 142f 7556     		jne	L183
 868:src/pdf417/PDFScanningDecoder.c **** 		{
 869:src/pdf417/PDFScanningDecoder.c **** 			result.status = ChecksumError;
 2761              		.loc 1 869 18
 2762 1431 C745B403 		movl	$3, -76(%ebp)
 2762      000000
 870:src/pdf417/PDFScanningDecoder.c **** 			return result;
 2763              		.loc 1 870 11
 2764 1438 8B4508   		movl	8(%ebp), %eax
 2765 143b 8B55B4   		movl	-76(%ebp), %edx
 2766 143e 8910     		movl	%edx, (%eax)
 2767 1440 8B55B8   		movl	-72(%ebp), %edx
 2768 1443 895004   		movl	%edx, 4(%eax)
 2769 1446 8B55BC   		movl	-68(%ebp), %edx
 2770 1449 895008   		movl	%edx, 8(%eax)
 2771 144c 8B55C0   		movl	-64(%ebp), %edx
 2772 144f 89500C   		movl	%edx, 12(%eax)
 2773 1452 8B55C4   		movl	-60(%ebp), %edx
 2774 1455 895010   		movl	%edx, 16(%eax)
 2775 1458 8B55C8   		movl	-56(%ebp), %edx
 2776 145b 895014   		movl	%edx, 20(%eax)
 2777 145e 8B55CC   		movl	-52(%ebp), %edx
 2778 1461 895018   		movl	%edx, 24(%eax)
 2779 1464 8B55D0   		movl	-48(%ebp), %edx
 2780 1467 89501C   		movl	%edx, 28(%eax)
 2781 146a 8B55D4   		movl	-44(%ebp), %edx
 2782 146d 895020   		movl	%edx, 32(%eax)
 2783 1470 8B55D8   		movl	-40(%ebp), %edx
 2784 1473 895024   		movl	%edx, 36(%eax)
 2785 1476 8B55DC   		movl	-36(%ebp), %edx
 2786 1479 895028   		movl	%edx, 40(%eax)
 2787 147c 8B55E0   		movl	-32(%ebp), %edx
 2788 147f 89502C   		movl	%edx, 44(%eax)
 2789 1482 E9130100 		jmp	L182
 2789      00
 2790              	L183:
 2791              	LBB21:
 871:src/pdf417/PDFScanningDecoder.c **** 		}
 872:src/pdf417/PDFScanningDecoder.c **** 
 873:src/pdf417/PDFScanningDecoder.c **** 		for (size_t i = 0; i < ambiguousSize; i++) 
GAS LISTING C:\Users\jisu8\AppData\Local\Temp\cc0IqG7f.s 			page 71


 2792              		.loc 1 873 15
 2793 1487 C745F400 		movl	$0, -12(%ebp)
 2793      000000
 2794              		.loc 1 873 3
 2795 148e E9990000 		jmp	L184
 2795      00
 2796              	L187:
 874:src/pdf417/PDFScanningDecoder.c **** 		{
 875:src/pdf417/PDFScanningDecoder.c **** 			if (ambiguousIndexCount[i] < ambiguousSize - 1) 
 2797              		.loc 1 875 27
 2798 1493 8B45E4   		movl	-28(%ebp), %eax
 2799 1496 8B55F4   		movl	-12(%ebp), %edx
 2800 1499 8B0490   		movl	(%eax,%edx,4), %eax
 2801              		.loc 1 875 47
 2802 149c 8B552C   		movl	44(%ebp), %edx
 2803 149f 83EA01   		subl	$1, %edx
 2804              		.loc 1 875 7
 2805 14a2 39D0     		cmpl	%edx, %eax
 2806 14a4 7D17     		jge	L185
 876:src/pdf417/PDFScanningDecoder.c **** 			{
 877:src/pdf417/PDFScanningDecoder.c **** 				ambiguousIndexCount[i]++;
 2807              		.loc 1 877 24
 2808 14a6 8B45E4   		movl	-28(%ebp), %eax
 2809 14a9 8B55F4   		movl	-12(%ebp), %edx
 2810 14ac 8B0490   		movl	(%eax,%edx,4), %eax
 2811              		.loc 1 877 27
 2812 14af 8D4801   		leal	1(%eax), %ecx
 2813 14b2 8B45E4   		movl	-28(%ebp), %eax
 2814 14b5 8B55F4   		movl	-12(%ebp), %edx
 2815 14b8 890C90   		movl	%ecx, (%eax,%edx,4)
 878:src/pdf417/PDFScanningDecoder.c **** 				break;
 2816              		.loc 1 878 5
 2817 14bb EB7B     		jmp	L178
 2818              	L185:
 879:src/pdf417/PDFScanningDecoder.c **** 			}
 880:src/pdf417/PDFScanningDecoder.c **** 			else 
 881:src/pdf417/PDFScanningDecoder.c **** 			{
 882:src/pdf417/PDFScanningDecoder.c **** 				ambiguousIndexCount[i] = 0;
 2819              		.loc 1 882 28
 2820 14bd 8B45E4   		movl	-28(%ebp), %eax
 2821 14c0 8B55F4   		movl	-12(%ebp), %edx
 2822 14c3 C7049000 		movl	$0, (%eax,%edx,4)
 2822      000000
 883:src/pdf417/PDFScanningDecoder.c **** 				if (i == ambiguousSize - 1) 
 2823              		.loc 1 883 28
 2824 14ca 8B452C   		movl	44(%ebp), %eax
 2825 14cd 83E801   		subl	$1, %eax
 2826              		.loc 1 883 8
 2827 14d0 3945F4   		cmpl	%eax, -12(%ebp)
 2828 14d3 7553     		jne	L186
 884:src/pdf417/PDFScanningDecoder.c **** 				{
 885:src/pdf417/PDFScanningDecoder.c **** 					result.status = ChecksumError;
 2829              		.loc 1 885 20
 2830 14d5 C745B403 		movl	$3, -76(%ebp)
 2830      000000
 886:src/pdf417/PDFScanningDecoder.c **** 					return result;
 2831              		.loc 1 886 13
GAS LISTING C:\Users\jisu8\AppData\Local\Temp\cc0IqG7f.s 			page 72


 2832 14dc 8B4508   		movl	8(%ebp), %eax
 2833 14df 8B55B4   		movl	-76(%ebp), %edx
 2834 14e2 8910     		movl	%edx, (%eax)
 2835 14e4 8B55B8   		movl	-72(%ebp), %edx
 2836 14e7 895004   		movl	%edx, 4(%eax)
 2837 14ea 8B55BC   		movl	-68(%ebp), %edx
 2838 14ed 895008   		movl	%edx, 8(%eax)
 2839 14f0 8B55C0   		movl	-64(%ebp), %edx
 2840 14f3 89500C   		movl	%edx, 12(%eax)
 2841 14f6 8B55C4   		movl	-60(%ebp), %edx
 2842 14f9 895010   		movl	%edx, 16(%eax)
 2843 14fc 8B55C8   		movl	-56(%ebp), %edx
 2844 14ff 895014   		movl	%edx, 20(%eax)
 2845 1502 8B55CC   		movl	-52(%ebp), %edx
 2846 1505 895018   		movl	%edx, 24(%eax)
 2847 1508 8B55D0   		movl	-48(%ebp), %edx
 2848 150b 89501C   		movl	%edx, 28(%eax)
 2849 150e 8B55D4   		movl	-44(%ebp), %edx
 2850 1511 895020   		movl	%edx, 32(%eax)
 2851 1514 8B55D8   		movl	-40(%ebp), %edx
 2852 1517 895024   		movl	%edx, 36(%eax)
 2853 151a 8B55DC   		movl	-36(%ebp), %edx
 2854 151d 895028   		movl	%edx, 40(%eax)
 2855 1520 8B55E0   		movl	-32(%ebp), %edx
 2856 1523 89502C   		movl	%edx, 44(%eax)
 2857 1526 EB72     		jmp	L182
 2858              	L186:
 873:src/pdf417/PDFScanningDecoder.c **** 		{
 2859              		.loc 1 873 42 discriminator 2
 2860 1528 8345F401 		addl	$1, -12(%ebp)
 2861              	L184:
 873:src/pdf417/PDFScanningDecoder.c **** 		{
 2862              		.loc 1 873 24 discriminator 1
 2863 152c 8B452C   		movl	44(%ebp), %eax
 873:src/pdf417/PDFScanningDecoder.c **** 		{
 2864              		.loc 1 873 3 discriminator 1
 2865 152f 3945F4   		cmpl	%eax, -12(%ebp)
 2866 1532 0F825BFF 		jb	L187
 2866      FFFF
 2867              	L178:
 2868              	LBE21:
 852:src/pdf417/PDFScanningDecoder.c **** 	{
 2869              		.loc 1 852 14
 2870 1538 8B45EC   		movl	-20(%ebp), %eax
 2871 153b 8D50FF   		leal	-1(%eax), %edx
 2872 153e 8955EC   		movl	%edx, -20(%ebp)
 852:src/pdf417/PDFScanningDecoder.c **** 	{
 2873              		.loc 1 852 8
 2874 1541 85C0     		testl	%eax, %eax
 2875 1543 0F8FF0FD 		jg	L188
 2875      FFFF
 887:src/pdf417/PDFScanningDecoder.c **** 				}
 888:src/pdf417/PDFScanningDecoder.c **** 			}
 889:src/pdf417/PDFScanningDecoder.c **** 		}
 890:src/pdf417/PDFScanningDecoder.c **** 	}
 891:src/pdf417/PDFScanningDecoder.c **** 
 892:src/pdf417/PDFScanningDecoder.c **** 	result.status = ChecksumError;
GAS LISTING C:\Users\jisu8\AppData\Local\Temp\cc0IqG7f.s 			page 73


 2876              		.loc 1 892 16
 2877 1549 C745B403 		movl	$3, -76(%ebp)
 2877      000000
 893:src/pdf417/PDFScanningDecoder.c **** 	
 894:src/pdf417/PDFScanningDecoder.c **** 	return result;
 2878              		.loc 1 894 9
 2879 1550 8B4508   		movl	8(%ebp), %eax
 2880 1553 8B55B4   		movl	-76(%ebp), %edx
 2881 1556 8910     		movl	%edx, (%eax)
 2882 1558 8B55B8   		movl	-72(%ebp), %edx
 2883 155b 895004   		movl	%edx, 4(%eax)
 2884 155e 8B55BC   		movl	-68(%ebp), %edx
 2885 1561 895008   		movl	%edx, 8(%eax)
 2886 1564 8B55C0   		movl	-64(%ebp), %edx
 2887 1567 89500C   		movl	%edx, 12(%eax)
 2888 156a 8B55C4   		movl	-60(%ebp), %edx
 2889 156d 895010   		movl	%edx, 16(%eax)
 2890 1570 8B55C8   		movl	-56(%ebp), %edx
 2891 1573 895014   		movl	%edx, 20(%eax)
 2892 1576 8B55CC   		movl	-52(%ebp), %edx
 2893 1579 895018   		movl	%edx, 24(%eax)
 2894 157c 8B55D0   		movl	-48(%ebp), %edx
 2895 157f 89501C   		movl	%edx, 28(%eax)
 2896 1582 8B55D4   		movl	-44(%ebp), %edx
 2897 1585 895020   		movl	%edx, 32(%eax)
 2898 1588 8B55D8   		movl	-40(%ebp), %edx
 2899 158b 895024   		movl	%edx, 36(%eax)
 2900 158e 8B55DC   		movl	-36(%ebp), %edx
 2901 1591 895028   		movl	%edx, 40(%eax)
 2902 1594 8B55E0   		movl	-32(%ebp), %edx
 2903 1597 89502C   		movl	%edx, 44(%eax)
 2904              	L182:
 2905 159a 89DC     		movl	%ebx, %esp
 895:src/pdf417/PDFScanningDecoder.c **** }
 2906              		.loc 1 895 1
 2907 159c 8B4508   		movl	8(%ebp), %eax
 2908 159f 8B5DFC   		movl	-4(%ebp), %ebx
 2909 15a2 C9       		leave
 2910              	LCFI83:
 2911              		.cfi_restore 5
 2912              		.cfi_restore 3
 2913              		.cfi_def_cfa 4, 4
 2914 15a3 C3       		ret
 2915              		.cfi_endproc
 2916              	LFE32:
 2918              	_find_idx:
 2919              	LFB33:
 896:src/pdf417/PDFScanningDecoder.c **** static int find_idx(BarcodeValue_t * buffer)
 897:src/pdf417/PDFScanningDecoder.c **** {
 2920              		.loc 1 897 1
 2921              		.cfi_startproc
 2922 15a4 55       		pushl	%ebp
 2923              	LCFI84:
 2924              		.cfi_def_cfa_offset 8
 2925              		.cfi_offset 5, -8
 2926 15a5 89E5     		movl	%esp, %ebp
 2927              	LCFI85:
GAS LISTING C:\Users\jisu8\AppData\Local\Temp\cc0IqG7f.s 			page 74


 2928              		.cfi_def_cfa_register 5
 2929 15a7 83EC10   		subl	$16, %esp
 898:src/pdf417/PDFScanningDecoder.c **** 	int idx = 0;
 2930              		.loc 1 898 6
 2931 15aa C745FC00 		movl	$0, -4(%ebp)
 2931      000000
 2932              	LBB22:
 899:src/pdf417/PDFScanningDecoder.c **** 	for(int i=0;i<1000;i++)
 2933              		.loc 1 899 10
 2934 15b1 C745F800 		movl	$0, -8(%ebp)
 2934      000000
 2935              		.loc 1 899 2
 2936 15b8 EB19     		jmp	L191
 2937              	L194:
 900:src/pdf417/PDFScanningDecoder.c **** 	{
 901:src/pdf417/PDFScanningDecoder.c **** 		if(buffer->_values[i]!=0)
 2938              		.loc 1 901 21
 2939 15ba 8B4508   		movl	8(%ebp), %eax
 2940 15bd 8B55F8   		movl	-8(%ebp), %edx
 2941 15c0 8B0490   		movl	(%eax,%edx,4), %eax
 2942              		.loc 1 901 5
 2943 15c3 85C0     		testl	%eax, %eax
 2944 15c5 7408     		je	L192
 902:src/pdf417/PDFScanningDecoder.c **** 		{
 903:src/pdf417/PDFScanningDecoder.c **** 			idx = i;
 2945              		.loc 1 903 8
 2946 15c7 8B45F8   		movl	-8(%ebp), %eax
 2947 15ca 8945FC   		movl	%eax, -4(%ebp)
 904:src/pdf417/PDFScanningDecoder.c **** 			break;
 2948              		.loc 1 904 4
 2949 15cd EB0D     		jmp	L193
 2950              	L192:
 899:src/pdf417/PDFScanningDecoder.c **** 	{
 2951              		.loc 1 899 22 discriminator 2
 2952 15cf 8345F801 		addl	$1, -8(%ebp)
 2953              	L191:
 899:src/pdf417/PDFScanningDecoder.c **** 	{
 2954              		.loc 1 899 2 discriminator 1
 2955 15d3 817DF8E7 		cmpl	$999, -8(%ebp)
 2955      030000
 2956 15da 7EDE     		jle	L194
 2957              	L193:
 2958              	LBE22:
 905:src/pdf417/PDFScanningDecoder.c **** 		}
 906:src/pdf417/PDFScanningDecoder.c **** 	}
 907:src/pdf417/PDFScanningDecoder.c **** 
 908:src/pdf417/PDFScanningDecoder.c **** 	return idx;
 2959              		.loc 1 908 9
 2960 15dc 8B45FC   		movl	-4(%ebp), %eax
 909:src/pdf417/PDFScanningDecoder.c **** }
 2961              		.loc 1 909 1
 2962 15df C9       		leave
 2963              	LCFI86:
 2964              		.cfi_restore 5
 2965              		.cfi_def_cfa 4, 4
 2966 15e0 C3       		ret
 2967              		.cfi_endproc
GAS LISTING C:\Users\jisu8\AppData\Local\Temp\cc0IqG7f.s 			page 75


 2968              	LFE33:
 2970              	_CreateDecoderResult:
 2971              	LFB34:
 910:src/pdf417/PDFScanningDecoder.c **** static DecoderResult_t CreateDecoderResult(DetectionResult_t * detectionResult, const unsigned char
 911:src/pdf417/PDFScanningDecoder.c **** {
 2972              		.loc 1 911 1
 2973              		.cfi_startproc
 2974 15e1 55       		pushl	%ebp
 2975              	LCFI87:
 2976              		.cfi_def_cfa_offset 8
 2977              		.cfi_offset 5, -8
 2978 15e2 89E5     		movl	%esp, %ebp
 2979              	LCFI88:
 2980              		.cfi_def_cfa_register 5
 2981 15e4 57       		pushl	%edi
 2982 15e5 56       		pushl	%esi
 2983 15e6 53       		pushl	%ebx
 2984 15e7 81EC2C01 		subl	$300, %esp
 2984      0000
 2985              		.cfi_offset 7, -12
 2986              		.cfi_offset 6, -16
 2987              		.cfi_offset 3, -20
 2988              		.loc 1 911 1
 2989 15ed 89E0     		movl	%esp, %eax
 2990 15ef 8985FCFE 		movl	%eax, -260(%ebp)
 2990      FFFF
 912:src/pdf417/PDFScanningDecoder.c **** 	DecoderResult_t result_fault;
 913:src/pdf417/PDFScanningDecoder.c **** 	result_init(&result_fault);
 2991              		.loc 1 913 2
 2992 15f5 8D4584   		leal	-124(%ebp), %eax
 2993 15f8 890424   		movl	%eax, (%esp)
 2994 15fb E8BFFAFF 		call	_result_init
 2994      FF
 914:src/pdf417/PDFScanningDecoder.c **** 	int rowNum = detectionResult->_barcodeMetadata._rowCountUpperPart + detectionResult->_barcodeMetad
 2995              		.loc 1 914 48
 2996 1600 8B450C   		movl	12(%ebp), %eax
 2997 1603 8B5008   		movl	8(%eax), %edx
 2998              		.loc 1 914 103
 2999 1606 8B450C   		movl	12(%ebp), %eax
 3000 1609 8B400C   		movl	12(%eax), %eax
 3001              		.loc 1 914 6
 3002 160c 01D0     		addl	%edx, %eax
 3003 160e 8945D4   		movl	%eax, -44(%ebp)
 915:src/pdf417/PDFScanningDecoder.c **** 	int columnNum = detectionResult->_barcodeMetadata._columnCount + 2;
 3004              		.loc 1 915 51
 3005 1611 8B450C   		movl	12(%ebp), %eax
 3006 1614 8B00     		movl	(%eax), %eax
 3007              		.loc 1 915 6
 3008 1616 83C002   		addl	$2, %eax
 3009 1619 8945D0   		movl	%eax, -48(%ebp)
 916:src/pdf417/PDFScanningDecoder.c **** 	BarcodeValue_t barcodeMatrix[rowNum][columnNum];
 3010              		.loc 1 916 2
 3011 161c 8B75D0   		movl	-48(%ebp), %esi
 3012 161f 8B7DD4   		movl	-44(%ebp), %edi
 3013              		.loc 1 916 17
 3014 1622 8D46FF   		leal	-1(%esi), %eax
 3015 1625 8945CC   		movl	%eax, -52(%ebp)
GAS LISTING C:\Users\jisu8\AppData\Local\Temp\cc0IqG7f.s 			page 76


 3016 1628 89F0     		movl	%esi, %eax
 3017 162a BA000000 		movl	$0, %edx
 3017      00
 3018 162f 69DA007D 		imull	$32000, %edx, %ebx
 3018      0000
 3019 1635 6BC800   		imull	$0, %eax, %ecx
 3020 1638 01D9     		addl	%ebx, %ecx
 3021 163a BB007D00 		movl	$32000, %ebx
 3021      00
 3022 163f F7E3     		mull	%ebx
 3023 1641 01D1     		addl	%edx, %ecx
 3024 1643 89CA     		movl	%ecx, %edx
 3025 1645 89F0     		movl	%esi, %eax
 3026 1647 69C0A00F 		imull	$4000, %eax, %eax
 3026      0000
 3027 164d 8985F8FE 		movl	%eax, -264(%ebp)
 3027      FFFF
 3028 1653 8D47FF   		leal	-1(%edi), %eax
 3029 1656 8945C8   		movl	%eax, -56(%ebp)
 3030 1659 89B504FF 		movl	%esi, -252(%ebp)
 3030      FFFF
 3031 165f 89F0     		movl	%esi, %eax
 3032 1661 89C1     		movl	%eax, %ecx
 3033 1663 BB000000 		movl	$0, %ebx
 3033      00
 3034 1668 89BD00FF 		movl	%edi, -256(%ebp)
 3034      FFFF
 3035 166e 89F8     		movl	%edi, %eax
 3036 1670 BA000000 		movl	$0, %edx
 3036      00
 3037 1675 89DF     		movl	%ebx, %edi
 3038 1677 0FAFF8   		imull	%eax, %edi
 3039 167a 89D6     		movl	%edx, %esi
 3040 167c 0FAFF1   		imull	%ecx, %esi
 3041 167f 01FE     		addl	%edi, %esi
 3042 1681 F7E1     		mull	%ecx
 3043 1683 8D0C16   		leal	(%esi,%edx), %ecx
 3044 1686 89CA     		movl	%ecx, %edx
 3045 1688 69DA007D 		imull	$32000, %edx, %ebx
 3045      0000
 3046 168e 6BC800   		imull	$0, %eax, %ecx
 3047 1691 01CB     		addl	%ecx, %ebx
 3048 1693 B9007D00 		movl	$32000, %ecx
 3048      00
 3049 1698 F7E1     		mull	%ecx
 3050 169a 8D0C13   		leal	(%ebx,%edx), %ecx
 3051 169d 89CA     		movl	%ecx, %edx
 3052 169f 8B8504FF 		movl	-252(%ebp), %eax
 3052      FFFF
 3053 16a5 89C1     		movl	%eax, %ecx
 3054 16a7 BB000000 		movl	$0, %ebx
 3054      00
 3055 16ac 8B8500FF 		movl	-256(%ebp), %eax
 3055      FFFF
 3056 16b2 BA000000 		movl	$0, %edx
 3056      00
 3057 16b7 89DF     		movl	%ebx, %edi
GAS LISTING C:\Users\jisu8\AppData\Local\Temp\cc0IqG7f.s 			page 77


 3058 16b9 0FAFF8   		imull	%eax, %edi
 3059 16bc 89D6     		movl	%edx, %esi
 3060 16be 0FAFF1   		imull	%ecx, %esi
 3061 16c1 01FE     		addl	%edi, %esi
 3062 16c3 F7E1     		mull	%ecx
 3063 16c5 8D0C16   		leal	(%esi,%edx), %ecx
 3064 16c8 89CA     		movl	%ecx, %edx
 3065 16ca 69DA007D 		imull	$32000, %edx, %ebx
 3065      0000
 3066 16d0 6BC800   		imull	$0, %eax, %ecx
 3067 16d3 01CB     		addl	%ecx, %ebx
 3068 16d5 B9007D00 		movl	$32000, %ecx
 3068      00
 3069 16da F7E1     		mull	%ecx
 3070 16dc 8D0C13   		leal	(%ebx,%edx), %ecx
 3071 16df 89CA     		movl	%ecx, %edx
 3072 16e1 8B9504FF 		movl	-252(%ebp), %edx
 3072      FFFF
 3073 16e7 8B8500FF 		movl	-256(%ebp), %eax
 3073      FFFF
 3074 16ed 0FAFC2   		imull	%edx, %eax
 3075 16f0 69C0A00F 		imull	$4000, %eax, %eax
 3075      0000
 3076 16f6 BA100000 		movl	$16, %edx
 3076      00
 3077 16fb 83EA01   		subl	$1, %edx
 3078 16fe 01D0     		addl	%edx, %eax
 3079 1700 BB100000 		movl	$16, %ebx
 3079      00
 3080 1705 BA000000 		movl	$0, %edx
 3080      00
 3081 170a F7F3     		divl	%ebx
 3082 170c 6BC010   		imull	$16, %eax, %eax
 3083 170f E8000000 		call	___chkstk_ms
 3083      00
 3084 1714 29C4     		subl	%eax, %esp
 3085 1716 8D442428 		leal	40(%esp), %eax
 3086 171a 83C003   		addl	$3, %eax
 3087 171d C1E802   		shrl	$2, %eax
 3088 1720 C1E002   		sall	$2, %eax
 3089 1723 8945C4   		movl	%eax, -60(%ebp)
 917:src/pdf417/PDFScanningDecoder.c **** 	fill(rowNum*columnNum*1000,barcodeMatrix,0);
 3090              		.loc 1 917 2
 3091 1726 8B55C4   		movl	-60(%ebp), %edx
 3092              		.loc 1 917 13
 3093 1729 8B45D4   		movl	-44(%ebp), %eax
 3094 172c 0FAF45D0 		imull	-48(%ebp), %eax
 3095              		.loc 1 917 2
 3096 1730 69C0E803 		imull	$1000, %eax, %eax
 3096      0000
 3097 1736 C7442408 		movl	$0, 8(%esp)
 3097      00000000 
 3098 173e 89542404 		movl	%edx, 4(%esp)
 3099 1742 890424   		movl	%eax, (%esp)
 3100 1745 E8000000 		call	_fill
 3100      00
 918:src/pdf417/PDFScanningDecoder.c **** 	CreateBarcodeMatrix(barcodeMatrix[0],detectionResult,size,rowNum,columnNum);
GAS LISTING C:\Users\jisu8\AppData\Local\Temp\cc0IqG7f.s 			page 78


 3101              		.loc 1 918 35
 3102 174a 8B45C4   		movl	-60(%ebp), %eax
 3103              		.loc 1 918 2
 3104 174d 8B55D0   		movl	-48(%ebp), %edx
 3105 1750 89542410 		movl	%edx, 16(%esp)
 3106 1754 8B55D4   		movl	-44(%ebp), %edx
 3107 1757 8954240C 		movl	%edx, 12(%esp)
 3108 175b 8B5514   		movl	20(%ebp), %edx
 3109 175e 89542408 		movl	%edx, 8(%esp)
 3110 1762 8B550C   		movl	12(%ebp), %edx
 3111 1765 89542404 		movl	%edx, 4(%esp)
 3112 1769 890424   		movl	%eax, (%esp)
 3113 176c E843F7FF 		call	_CreateBarcodeMatrix
 3113      FF
 919:src/pdf417/PDFScanningDecoder.c **** 	if (!AdjustCodewordCount(detectionResult, barcodeMatrix,size)) 
 3114              		.loc 1 919 7
 3115 1771 8B45C4   		movl	-60(%ebp), %eax
 3116 1774 8B5514   		movl	20(%ebp), %edx
 3117 1777 89542408 		movl	%edx, 8(%esp)
 3118 177b 89442404 		movl	%eax, 4(%esp)
 3119 177f 8B450C   		movl	12(%ebp), %eax
 3120 1782 890424   		movl	%eax, (%esp)
 3121 1785 E84EF8FF 		call	_AdjustCodewordCount
 3121      FF
 3122              		.loc 1 919 5
 3123 178a 84C0     		testb	%al, %al
 3124 178c 7556     		jne	L197
 920:src/pdf417/PDFScanningDecoder.c **** 	{
 921:src/pdf417/PDFScanningDecoder.c **** 		result_fault.status = NotFound;
 3125              		.loc 1 921 23
 3126 178e C7458401 		movl	$1, -124(%ebp)
 3126      000000
 922:src/pdf417/PDFScanningDecoder.c **** 		return result_fault;
 3127              		.loc 1 922 10
 3128 1795 8B4508   		movl	8(%ebp), %eax
 3129 1798 8B5584   		movl	-124(%ebp), %edx
 3130 179b 8910     		movl	%edx, (%eax)
 3131 179d 8B5588   		movl	-120(%ebp), %edx
 3132 17a0 895004   		movl	%edx, 4(%eax)
 3133 17a3 8B558C   		movl	-116(%ebp), %edx
 3134 17a6 895008   		movl	%edx, 8(%eax)
 3135 17a9 8B5590   		movl	-112(%ebp), %edx
 3136 17ac 89500C   		movl	%edx, 12(%eax)
 3137 17af 8B5594   		movl	-108(%ebp), %edx
 3138 17b2 895010   		movl	%edx, 16(%eax)
 3139 17b5 8B5598   		movl	-104(%ebp), %edx
 3140 17b8 895014   		movl	%edx, 20(%eax)
 3141 17bb 8B559C   		movl	-100(%ebp), %edx
 3142 17be 895018   		movl	%edx, 24(%eax)
 3143 17c1 8B55A0   		movl	-96(%ebp), %edx
 3144 17c4 89501C   		movl	%edx, 28(%eax)
 3145 17c7 8B55A4   		movl	-92(%ebp), %edx
 3146 17ca 895020   		movl	%edx, 32(%eax)
 3147 17cd 8B55A8   		movl	-88(%ebp), %edx
 3148 17d0 895024   		movl	%edx, 36(%eax)
 3149 17d3 8B55AC   		movl	-84(%ebp), %edx
 3150 17d6 895028   		movl	%edx, 40(%eax)
GAS LISTING C:\Users\jisu8\AppData\Local\Temp\cc0IqG7f.s 			page 79


 3151 17d9 8B55B0   		movl	-80(%ebp), %edx
 3152 17dc 89502C   		movl	%edx, 44(%eax)
 3153 17df E9180200 		jmp	L198
 3153      00
 3154              	L197:
 923:src/pdf417/PDFScanningDecoder.c **** 	}
 924:src/pdf417/PDFScanningDecoder.c **** 	
 925:src/pdf417/PDFScanningDecoder.c **** 	int erasures[10] = {0,};
 3155              		.loc 1 925 6
 3156 17e4 8D955CFF 		leal	-164(%ebp), %edx
 3156      FFFF
 3157 17ea B8000000 		movl	$0, %eax
 3157      00
 3158 17ef B90A0000 		movl	$10, %ecx
 3158      00
 3159 17f4 89D7     		movl	%edx, %edi
 3160 17f6 F3AB     		rep stosl
 926:src/pdf417/PDFScanningDecoder.c **** 	int codewordsNum = rowCount(&detectionResult->_barcodeMetadata) * columnCount(&detectionResult->_b
 3161              		.loc 1 926 21
 3162 17f8 8B450C   		movl	12(%ebp), %eax
 3163 17fb 890424   		movl	%eax, (%esp)
 3164 17fe E82AF0FF 		call	_rowCount
 3164      FF
 3165 1803 89C3     		movl	%eax, %ebx
 3166              		.loc 1 926 68
 3167 1805 8B450C   		movl	12(%ebp), %eax
 3168 1808 890424   		movl	%eax, (%esp)
 3169 180b E808F0FF 		call	_columnCount
 3169      FF
 3170              		.loc 1 926 6
 3171 1810 0FAFC3   		imull	%ebx, %eax
 3172 1813 8945C0   		movl	%eax, -64(%ebp)
 927:src/pdf417/PDFScanningDecoder.c **** 	int codewords[codewordsNum];
 3173              		.loc 1 927 2
 3174 1816 8B45C0   		movl	-64(%ebp), %eax
 3175              		.loc 1 927 6
 3176 1819 8D50FF   		leal	-1(%eax), %edx
 3177 181c 8955BC   		movl	%edx, -68(%ebp)
 3178 181f 8D148500 		leal	0(,%eax,4), %edx
 3178      000000
 3179 1826 B8100000 		movl	$16, %eax
 3179      00
 3180 182b 83E801   		subl	$1, %eax
 3181 182e 01D0     		addl	%edx, %eax
 3182 1830 BB100000 		movl	$16, %ebx
 3182      00
 3183 1835 BA000000 		movl	$0, %edx
 3183      00
 3184 183a F7F3     		divl	%ebx
 3185 183c 6BC010   		imull	$16, %eax, %eax
 3186 183f E8000000 		call	___chkstk_ms
 3186      00
 3187 1844 29C4     		subl	%eax, %esp
 3188 1846 8D442428 		leal	40(%esp), %eax
 3189 184a 83C003   		addl	$3, %eax
 3190 184d C1E802   		shrl	$2, %eax
 3191 1850 C1E002   		sall	$2, %eax
GAS LISTING C:\Users\jisu8\AppData\Local\Temp\cc0IqG7f.s 			page 80


 3192 1853 8945B8   		movl	%eax, -72(%ebp)
 928:src/pdf417/PDFScanningDecoder.c **** 	int ambiguousIndexValues[10] = {0,};
 3193              		.loc 1 928 6
 3194 1856 8D9534FF 		leal	-204(%ebp), %edx
 3194      FFFF
 3195 185c B8000000 		movl	$0, %eax
 3195      00
 3196 1861 B90A0000 		movl	$10, %ecx
 3196      00
 3197 1866 89D7     		movl	%edx, %edi
 3198 1868 F3AB     		rep stosl
 929:src/pdf417/PDFScanningDecoder.c **** 	int ambiguousIndexesList[10] = {0,};
 3199              		.loc 1 929 6
 3200 186a 8D950CFF 		leal	-244(%ebp), %edx
 3200      FFFF
 3201 1870 B8000000 		movl	$0, %eax
 3201      00
 3202 1875 B90A0000 		movl	$10, %ecx
 3202      00
 3203 187a 89D7     		movl	%edx, %edi
 3204 187c F3AB     		rep stosl
 930:src/pdf417/PDFScanningDecoder.c **** 	fill(codewordsNum,codewords,0);
 3205              		.loc 1 930 2
 3206 187e 8B45B8   		movl	-72(%ebp), %eax
 3207 1881 C7442408 		movl	$0, 8(%esp)
 3207      00000000 
 3208 1889 89442404 		movl	%eax, 4(%esp)
 3209 188d 8B45C0   		movl	-64(%ebp), %eax
 3210 1890 890424   		movl	%eax, (%esp)
 3211 1893 E8000000 		call	_fill
 3211      00
 931:src/pdf417/PDFScanningDecoder.c **** 
 932:src/pdf417/PDFScanningDecoder.c **** 	int idx = 0;
 3212              		.loc 1 932 6
 3213 1898 C745D800 		movl	$0, -40(%ebp)
 3213      000000
 933:src/pdf417/PDFScanningDecoder.c **** 	int ambiguousSize = 0;
 3214              		.loc 1 933 6
 3215 189f C745DC00 		movl	$0, -36(%ebp)
 3215      000000
 3216              	LBB23:
 934:src/pdf417/PDFScanningDecoder.c **** 
 935:src/pdf417/PDFScanningDecoder.c **** 	for (int row = 0; row < rowCount(&(detectionResult->_barcodeMetadata)); row++) 
 3217              		.loc 1 935 11
 3218 18a6 C745E000 		movl	$0, -32(%ebp)
 3218      000000
 3219              		.loc 1 935 2
 3220 18ad E9D90000 		jmp	L199
 3220      00
 3221              	L205:
 3222              	LBB24:
 936:src/pdf417/PDFScanningDecoder.c **** 	{
 937:src/pdf417/PDFScanningDecoder.c **** 		for (int column = 0; column < columnCount(&(detectionResult->_barcodeMetadata)); column++) 
 3223              		.loc 1 937 12
 3224 18b2 C745E400 		movl	$0, -28(%ebp)
 3224      000000
 3225              		.loc 1 937 3
GAS LISTING C:\Users\jisu8\AppData\Local\Temp\cc0IqG7f.s 			page 81


 3226 18b9 E9B50000 		jmp	L200
 3226      00
 3227              	L204:
 3228              	LBB25:
 938:src/pdf417/PDFScanningDecoder.c **** 		{
 939:src/pdf417/PDFScanningDecoder.c **** 			int values[1] = {0};
 3229              		.loc 1 939 8
 3230 18be C78508FF 		movl	$0, -248(%ebp)
 3230      FFFF0000 
 3230      0000
 940:src/pdf417/PDFScanningDecoder.c **** 			values[0] = find_idx(&barcodeMatrix[row][column + 1]);
 3231              		.loc 1 940 44
 3232 18c8 8B85F8FE 		movl	-264(%ebp), %eax
 3232      FFFF
 3233 18ce C1E802   		shrl	$2, %eax
 3234              		.loc 1 940 52
 3235 18d1 8B55E4   		movl	-28(%ebp), %edx
 3236 18d4 83C201   		addl	$1, %edx
 3237              		.loc 1 940 16
 3238 18d7 69D2E803 		imull	$1000, %edx, %edx
 3238      0000
 3239 18dd 0FAF45E0 		imull	-32(%ebp), %eax
 3240 18e1 01D0     		addl	%edx, %eax
 3241 18e3 8D148500 		leal	0(,%eax,4), %edx
 3241      000000
 3242 18ea 8B45C4   		movl	-60(%ebp), %eax
 3243 18ed 01D0     		addl	%edx, %eax
 3244 18ef 890424   		movl	%eax, (%esp)
 3245 18f2 E8ADFCFF 		call	_find_idx
 3245      FF
 3246              		.loc 1 940 14
 3247 18f7 898508FF 		movl	%eax, -248(%ebp)
 3247      FFFF
 941:src/pdf417/PDFScanningDecoder.c **** 			int codewordIndex = row * columnCount(&(detectionResult->_barcodeMetadata)) + column;
 3248              		.loc 1 941 30
 3249 18fd 8B450C   		movl	12(%ebp), %eax
 3250 1900 890424   		movl	%eax, (%esp)
 3251 1903 E810EFFF 		call	_columnCount
 3251      FF
 3252              		.loc 1 941 28
 3253 1908 0FAF45E0 		imull	-32(%ebp), %eax
 3254 190c 89C2     		movl	%eax, %edx
 3255              		.loc 1 941 8
 3256 190e 8B45E4   		movl	-28(%ebp), %eax
 3257 1911 01D0     		addl	%edx, %eax
 3258 1913 8945B4   		movl	%eax, -76(%ebp)
 942:src/pdf417/PDFScanningDecoder.c **** 			if (values[0] == 0) 
 3259              		.loc 1 942 14
 3260 1916 8B8508FF 		movl	-248(%ebp), %eax
 3260      FFFF
 3261              		.loc 1 942 7
 3262 191c 85C0     		testl	%eax, %eax
 3263 191e 7513     		jne	L201
 943:src/pdf417/PDFScanningDecoder.c **** 			{
 944:src/pdf417/PDFScanningDecoder.c **** 				erasures[idx] = codewordIndex;
 3264              		.loc 1 944 19
 3265 1920 8B45D8   		movl	-40(%ebp), %eax
GAS LISTING C:\Users\jisu8\AppData\Local\Temp\cc0IqG7f.s 			page 82


 3266 1923 8B55B4   		movl	-76(%ebp), %edx
 3267 1926 8994855C 		movl	%edx, -164(%ebp,%eax,4)
 3267      FFFFFF
 945:src/pdf417/PDFScanningDecoder.c **** 				idx++;
 3268              		.loc 1 945 8
 3269 192d 8345D801 		addl	$1, -40(%ebp)
 3270 1931 EB3C     		jmp	L202
 3271              	L201:
 946:src/pdf417/PDFScanningDecoder.c **** 			}
 947:src/pdf417/PDFScanningDecoder.c **** 			else if (values[0] != 0) 
 3272              		.loc 1 947 19
 3273 1933 8B8508FF 		movl	-248(%ebp), %eax
 3273      FFFF
 3274              		.loc 1 947 12
 3275 1939 85C0     		testl	%eax, %eax
 3276 193b 7411     		je	L203
 948:src/pdf417/PDFScanningDecoder.c **** 			{
 949:src/pdf417/PDFScanningDecoder.c **** 				codewords[codewordIndex] = values[0];
 3277              		.loc 1 949 38
 3278 193d 8B8D08FF 		movl	-248(%ebp), %ecx
 3278      FFFF
 3279              		.loc 1 949 30
 3280 1943 8B45B8   		movl	-72(%ebp), %eax
 3281 1946 8B55B4   		movl	-76(%ebp), %edx
 3282 1949 890C90   		movl	%ecx, (%eax,%edx,4)
 3283 194c EB21     		jmp	L202
 3284              	L203:
 950:src/pdf417/PDFScanningDecoder.c **** 			}
 951:src/pdf417/PDFScanningDecoder.c **** 			else 
 952:src/pdf417/PDFScanningDecoder.c **** 			{
 953:src/pdf417/PDFScanningDecoder.c **** 				ambiguousIndexesList[ambiguousSize]=codewordIndex;
 3285              		.loc 1 953 40
 3286 194e 8B45DC   		movl	-36(%ebp), %eax
 3287 1951 8B55B4   		movl	-76(%ebp), %edx
 3288 1954 8994850C 		movl	%edx, -244(%ebp,%eax,4)
 3288      FFFFFF
 954:src/pdf417/PDFScanningDecoder.c **** 				ambiguousIndexValues[ambiguousSize]=values;
 3289              		.loc 1 954 40
 3290 195b 8D9508FF 		leal	-248(%ebp), %edx
 3290      FFFF
 3291 1961 8B45DC   		movl	-36(%ebp), %eax
 3292 1964 89948534 		movl	%edx, -204(%ebp,%eax,4)
 3292      FFFFFF
 955:src/pdf417/PDFScanningDecoder.c **** 				ambiguousSize++;
 3293              		.loc 1 955 18
 3294 196b 8345DC01 		addl	$1, -36(%ebp)
 3295              	L202:
 3296              	LBE25:
 937:src/pdf417/PDFScanningDecoder.c **** 		{
 3297              		.loc 1 937 90 discriminator 2
 3298 196f 8345E401 		addl	$1, -28(%ebp)
 3299              	L200:
 937:src/pdf417/PDFScanningDecoder.c **** 		{
 3300              		.loc 1 937 33 discriminator 1
 3301 1973 8B450C   		movl	12(%ebp), %eax
 3302 1976 890424   		movl	%eax, (%esp)
 3303 1979 E89AEEFF 		call	_columnCount
GAS LISTING C:\Users\jisu8\AppData\Local\Temp\cc0IqG7f.s 			page 83


 3303      FF
 937:src/pdf417/PDFScanningDecoder.c **** 		{
 3304              		.loc 1 937 3 discriminator 1
 3305 197e 3945E4   		cmpl	%eax, -28(%ebp)
 3306 1981 0F8C37FF 		jl	L204
 3306      FFFF
 3307              	LBE24:
 935:src/pdf417/PDFScanningDecoder.c **** 	{
 3308              		.loc 1 935 77 discriminator 2
 3309 1987 8345E001 		addl	$1, -32(%ebp)
 3310              	L199:
 935:src/pdf417/PDFScanningDecoder.c **** 	{
 3311              		.loc 1 935 26 discriminator 1
 3312 198b 8B450C   		movl	12(%ebp), %eax
 3313 198e 890424   		movl	%eax, (%esp)
 3314 1991 E897EEFF 		call	_rowCount
 3314      FF
 935:src/pdf417/PDFScanningDecoder.c **** 	{
 3315              		.loc 1 935 2 discriminator 1
 3316 1996 3945E0   		cmpl	%eax, -32(%ebp)
 3317 1999 0F8C13FF 		jl	L205
 3317      FFFF
 3318              	LBE23:
 956:src/pdf417/PDFScanningDecoder.c **** 			}
 957:src/pdf417/PDFScanningDecoder.c **** 		}
 958:src/pdf417/PDFScanningDecoder.c **** 	}
 959:src/pdf417/PDFScanningDecoder.c **** 
 960:src/pdf417/PDFScanningDecoder.c **** 	return CreateDecoderResultFromAmbiguousValues(errorCorrectionLevel(&detectionResult->_barcodeMetad
 3319              		.loc 1 960 9
 3320 199f 8B5DB8   		movl	-72(%ebp), %ebx
 3321 19a2 8B450C   		movl	12(%ebp), %eax
 3322 19a5 890424   		movl	%eax, (%esp)
 3323 19a8 E875EEFF 		call	_errorCorrectionLevel
 3323      FF
 3324 19ad 89C1     		movl	%eax, %ecx
 3325 19af 8B4508   		movl	8(%ebp), %eax
 3326 19b2 8B55DC   		movl	-36(%ebp), %edx
 3327 19b5 89542424 		movl	%edx, 36(%esp)
 3328 19b9 8B55C0   		movl	-64(%ebp), %edx
 3329 19bc 89542420 		movl	%edx, 32(%esp)
 3330 19c0 8B55D8   		movl	-40(%ebp), %edx
 3331 19c3 8954241C 		movl	%edx, 28(%esp)
 3332 19c7 8B5510   		movl	16(%ebp), %edx
 3333 19ca 89542418 		movl	%edx, 24(%esp)
 3334 19ce 8D9534FF 		leal	-204(%ebp), %edx
 3334      FFFF
 3335 19d4 89542414 		movl	%edx, 20(%esp)
 3336 19d8 8D950CFF 		leal	-244(%ebp), %edx
 3336      FFFF
 3337 19de 89542410 		movl	%edx, 16(%esp)
 3338 19e2 8D955CFF 		leal	-164(%ebp), %edx
 3338      FFFF
 3339 19e8 8954240C 		movl	%edx, 12(%esp)
 3340 19ec 895C2408 		movl	%ebx, 8(%esp)
 3341 19f0 894C2404 		movl	%ecx, 4(%esp)
 3342 19f4 890424   		movl	%eax, (%esp)
 3343 19f7 E8BEF8FF 		call	_CreateDecoderResultFromAmbiguousValues
GAS LISTING C:\Users\jisu8\AppData\Local\Temp\cc0IqG7f.s 			page 84


 3343      FF
 3344              	L198:
 3345 19fc 8BA5FCFE 		movl	-260(%ebp), %esp
 3345      FFFF
 961:src/pdf417/PDFScanningDecoder.c **** 												  ambiguousIndexesList, ambiguousIndexValues, characterSet,idx,codewordsNum,ambiguousSi
 962:src/pdf417/PDFScanningDecoder.c **** 
 963:src/pdf417/PDFScanningDecoder.c **** }
 3346              		.loc 1 963 1
 3347 1a02 8B4508   		movl	8(%ebp), %eax
 3348 1a05 8D65F4   		leal	-12(%ebp), %esp
 3349 1a08 5B       		popl	%ebx
 3350              		.cfi_restore 3
 3351 1a09 5E       		popl	%esi
 3352              		.cfi_restore 6
 3353 1a0a 5F       		popl	%edi
 3354              		.cfi_restore 7
 3355 1a0b 5D       		popl	%ebp
 3356              	LCFI89:
 3357              		.cfi_restore 5
 3358              		.cfi_def_cfa 4, 4
 3359 1a0c C3       		ret
 3360              		.cfi_endproc
 3361              	LFE34:
 3362              		.globl	_Decode
 3364              	_Decode:
 3365              	LFB35:
 964:src/pdf417/PDFScanningDecoder.c **** 
 965:src/pdf417/PDFScanningDecoder.c **** 
 966:src/pdf417/PDFScanningDecoder.c **** // TODO don't pass in minCodewordWidth and maxCodewordWidth, pass in barcode columns for start and 
 967:src/pdf417/PDFScanningDecoder.c **** // columns. That way width can be deducted from the pattern column.
 968:src/pdf417/PDFScanningDecoder.c **** // This approach also allows to detect more details about the barcode, e.g. if a bar type (white or
 969:src/pdf417/PDFScanningDecoder.c **** // than it should be. This can happen if the scanner used a bad blackpoint.
 970:src/pdf417/PDFScanningDecoder.c **** DecoderResult_t Decode(const BitMatrix_t * image, ResultPoint_t imageTopLeft, ResultPoint_t imageBo
 971:src/pdf417/PDFScanningDecoder.c **** 	ResultPoint_t imageTopRight, ResultPoint_t imageBottomRight,
 972:src/pdf417/PDFScanningDecoder.c **** 	int minCodewordWidth, int maxCodewordWidth, const unsigned char * characterSet)
 973:src/pdf417/PDFScanningDecoder.c **** {
 3366              		.loc 1 973 1
 3367              		.cfi_startproc
 3368 1a0d 55       		pushl	%ebp
 3369              	LCFI90:
 3370              		.cfi_def_cfa_offset 8
 3371              		.cfi_offset 5, -8
 3372 1a0e 89E5     		movl	%esp, %ebp
 3373              	LCFI91:
 3374              		.cfi_def_cfa_register 5
 3375 1a10 57       		pushl	%edi
 3376 1a11 56       		pushl	%esi
 3377 1a12 53       		pushl	%ebx
 3378 1a13 B80CD012 		movl	$1232908, %eax
 3378      00
 3379 1a18 E8000000 		call	___chkstk_ms
 3379      00
 3380 1a1d 29C4     		subl	%eax, %esp
 3381              		.cfi_offset 7, -12
 3382              		.cfi_offset 6, -16
 3383              		.cfi_offset 3, -20
 974:src/pdf417/PDFScanningDecoder.c **** 	DecoderResult_t result_fault;
GAS LISTING C:\Users\jisu8\AppData\Local\Temp\cc0IqG7f.s 			page 85


 975:src/pdf417/PDFScanningDecoder.c **** 	result_init(&result_fault);
 3384              		.loc 1 975 2
 3385 1a1f 8D458C   		leal	-116(%ebp), %eax
 3386 1a22 890424   		movl	%eax, (%esp)
 3387 1a25 E895F6FF 		call	_result_init
 3387      FF
 976:src/pdf417/PDFScanningDecoder.c **** 	BoundingBox_t boundingBox;
 977:src/pdf417/PDFScanningDecoder.c **** 	if (!Create(image->_width, image->_height, imageTopLeft, imageBottomLeft, imageTopRight, imageBott
 3388              		.loc 1 977 7
 3389 1a2a 8B450C   		movl	12(%ebp), %eax
 3390 1a2d 8B5004   		movl	4(%eax), %edx
 3391 1a30 8B450C   		movl	12(%ebp), %eax
 3392 1a33 8B00     		movl	(%eax), %eax
 3393 1a35 8D8D40FF 		leal	-192(%ebp), %ecx
 3393      FFFF
 3394 1a3b 894C2438 		movl	%ecx, 56(%esp)
 3395 1a3f 8B4D34   		movl	52(%ebp), %ecx
 3396 1a42 894C242C 		movl	%ecx, 44(%esp)
 3397 1a46 8B4D38   		movl	56(%ebp), %ecx
 3398 1a49 894C2430 		movl	%ecx, 48(%esp)
 3399 1a4d 8B4D3C   		movl	60(%ebp), %ecx
 3400 1a50 894C2434 		movl	%ecx, 52(%esp)
 3401 1a54 8B4D28   		movl	40(%ebp), %ecx
 3402 1a57 894C2420 		movl	%ecx, 32(%esp)
 3403 1a5b 8B4D2C   		movl	44(%ebp), %ecx
 3404 1a5e 894C2424 		movl	%ecx, 36(%esp)
 3405 1a62 8B4D30   		movl	48(%ebp), %ecx
 3406 1a65 894C2428 		movl	%ecx, 40(%esp)
 3407 1a69 8B4D1C   		movl	28(%ebp), %ecx
 3408 1a6c 894C2414 		movl	%ecx, 20(%esp)
 3409 1a70 8B4D20   		movl	32(%ebp), %ecx
 3410 1a73 894C2418 		movl	%ecx, 24(%esp)
 3411 1a77 8B4D24   		movl	36(%ebp), %ecx
 3412 1a7a 894C241C 		movl	%ecx, 28(%esp)
 3413 1a7e 8B4D10   		movl	16(%ebp), %ecx
 3414 1a81 894C2408 		movl	%ecx, 8(%esp)
 3415 1a85 8B4D14   		movl	20(%ebp), %ecx
 3416 1a88 894C240C 		movl	%ecx, 12(%esp)
 3417 1a8c 8B4D18   		movl	24(%ebp), %ecx
 3418 1a8f 894C2410 		movl	%ecx, 16(%esp)
 3419 1a93 89542404 		movl	%edx, 4(%esp)
 3420 1a97 890424   		movl	%eax, (%esp)
 3421 1a9a E8000000 		call	_Create
 3421      00
 3422              		.loc 1 977 5
 3423 1a9f 84C0     		testb	%al, %al
 3424 1aa1 7556     		jne	L208
 978:src/pdf417/PDFScanningDecoder.c **** 	{
 979:src/pdf417/PDFScanningDecoder.c **** 		result_fault.status = NotFound;
 3425              		.loc 1 979 23
 3426 1aa3 C7458C01 		movl	$1, -116(%ebp)
 3426      000000
 980:src/pdf417/PDFScanningDecoder.c **** 		return result_fault;
 3427              		.loc 1 980 10
 3428 1aaa 8B4508   		movl	8(%ebp), %eax
 3429 1aad 8B558C   		movl	-116(%ebp), %edx
 3430 1ab0 8910     		movl	%edx, (%eax)
GAS LISTING C:\Users\jisu8\AppData\Local\Temp\cc0IqG7f.s 			page 86


 3431 1ab2 8B5590   		movl	-112(%ebp), %edx
 3432 1ab5 895004   		movl	%edx, 4(%eax)
 3433 1ab8 8B5594   		movl	-108(%ebp), %edx
 3434 1abb 895008   		movl	%edx, 8(%eax)
 3435 1abe 8B5598   		movl	-104(%ebp), %edx
 3436 1ac1 89500C   		movl	%edx, 12(%eax)
 3437 1ac4 8B559C   		movl	-100(%ebp), %edx
 3438 1ac7 895010   		movl	%edx, 16(%eax)
 3439 1aca 8B55A0   		movl	-96(%ebp), %edx
 3440 1acd 895014   		movl	%edx, 20(%eax)
 3441 1ad0 8B55A4   		movl	-92(%ebp), %edx
 3442 1ad3 895018   		movl	%edx, 24(%eax)
 3443 1ad6 8B55A8   		movl	-88(%ebp), %edx
 3444 1ad9 89501C   		movl	%edx, 28(%eax)
 3445 1adc 8B55AC   		movl	-84(%ebp), %edx
 3446 1adf 895020   		movl	%edx, 32(%eax)
 3447 1ae2 8B55B0   		movl	-80(%ebp), %edx
 3448 1ae5 895024   		movl	%edx, 36(%eax)
 3449 1ae8 8B55B4   		movl	-76(%ebp), %edx
 3450 1aeb 895028   		movl	%edx, 40(%eax)
 3451 1aee 8B55B8   		movl	-72(%ebp), %edx
 3452 1af1 89502C   		movl	%edx, 44(%eax)
 3453 1af4 E9230400 		jmp	L207
 3453      00
 3454              	L208:
 981:src/pdf417/PDFScanningDecoder.c **** 	}
 982:src/pdf417/PDFScanningDecoder.c **** 	int length = 0;
 3455              		.loc 1 982 6
 3456 1af9 C745E400 		movl	$0, -28(%ebp)
 3456      000000
 3457              	LBB26:
 983:src/pdf417/PDFScanningDecoder.c **** 
 984:src/pdf417/PDFScanningDecoder.c **** 	DetectionResultColumn_t leftRowIndicatorColumn;
 985:src/pdf417/PDFScanningDecoder.c **** 	DetectionResultColumn_t rightRowIndicatorColumn;
 986:src/pdf417/PDFScanningDecoder.c **** 	DetectionResult_t detectionResult;
 987:src/pdf417/PDFScanningDecoder.c **** 	for (int i = 0; i < 2; i++) 
 3458              		.loc 1 987 11
 3459 1b00 C745E000 		movl	$0, -32(%ebp)
 3459      000000
 3460              		.loc 1 987 2
 3461 1b07 E9720100 		jmp	L210
 3461      00
 3462              	L217:
 988:src/pdf417/PDFScanningDecoder.c **** 	{
 989:src/pdf417/PDFScanningDecoder.c **** 		if (imageTopLeft.m_hasValue != 0) 
 3463              		.loc 1 989 19
 3464 1b0c 0FB64510 		movzbl	16(%ebp), %eax
 3465              		.loc 1 989 6
 3466 1b10 84C0     		testb	%al, %al
 3467 1b12 743F     		je	L211
 990:src/pdf417/PDFScanningDecoder.c **** 		{
 991:src/pdf417/PDFScanningDecoder.c **** 			length = GetRowIndicatorColumn(image, &boundingBox, &imageTopLeft, 1, minCodewordWidth, maxCodew
 3468              		.loc 1 991 13
 3469 1b14 8D850CD0 		leal	-12276(%ebp), %eax
 3469      FFFF
 3470 1b1a 89442418 		movl	%eax, 24(%esp)
 3471 1b1e 8B4544   		movl	68(%ebp), %eax
GAS LISTING C:\Users\jisu8\AppData\Local\Temp\cc0IqG7f.s 			page 87


 3472 1b21 89442414 		movl	%eax, 20(%esp)
 3473 1b25 8B4540   		movl	64(%ebp), %eax
 3474 1b28 89442410 		movl	%eax, 16(%esp)
 3475 1b2c C744240C 		movl	$1, 12(%esp)
 3475      01000000 
 3476 1b34 8D4510   		leal	16(%ebp), %eax
 3477 1b37 89442408 		movl	%eax, 8(%esp)
 3478 1b3b 8D8540FF 		leal	-192(%ebp), %eax
 3478      FFFF
 3479 1b41 89442404 		movl	%eax, 4(%esp)
 3480 1b45 8B450C   		movl	12(%ebp), %eax
 3481 1b48 890424   		movl	%eax, (%esp)
 3482 1b4b E821EBFF 		call	_GetRowIndicatorColumn
 3482      FF
 3483 1b50 8945E4   		movl	%eax, -28(%ebp)
 3484              	L211:
 992:src/pdf417/PDFScanningDecoder.c **** 		}
 993:src/pdf417/PDFScanningDecoder.c **** 		if (imageTopRight.m_hasValue != 0) 
 3485              		.loc 1 993 20
 3486 1b53 0FB64528 		movzbl	40(%ebp), %eax
 3487              		.loc 1 993 6
 3488 1b57 84C0     		testb	%al, %al
 3489 1b59 743F     		je	L212
 994:src/pdf417/PDFScanningDecoder.c **** 		{
 995:src/pdf417/PDFScanningDecoder.c **** 			length = GetRowIndicatorColumn(image, &boundingBox, &imageTopRight, 0, minCodewordWidth, maxCode
 3490              		.loc 1 995 13
 3491 1b5b 8D85D8A0 		leal	-24360(%ebp), %eax
 3491      FFFF
 3492 1b61 89442418 		movl	%eax, 24(%esp)
 3493 1b65 8B4544   		movl	68(%ebp), %eax
 3494 1b68 89442414 		movl	%eax, 20(%esp)
 3495 1b6c 8B4540   		movl	64(%ebp), %eax
 3496 1b6f 89442410 		movl	%eax, 16(%esp)
 3497 1b73 C744240C 		movl	$0, 12(%esp)
 3497      00000000 
 3498 1b7b 8D4528   		leal	40(%ebp), %eax
 3499 1b7e 89442408 		movl	%eax, 8(%esp)
 3500 1b82 8D8540FF 		leal	-192(%ebp), %eax
 3500      FFFF
 3501 1b88 89442404 		movl	%eax, 4(%esp)
 3502 1b8c 8B450C   		movl	12(%ebp), %eax
 3503 1b8f 890424   		movl	%eax, (%esp)
 3504 1b92 E8DAEAFF 		call	_GetRowIndicatorColumn
 3504      FF
 3505 1b97 8945E4   		movl	%eax, -28(%ebp)
 3506              	L212:
 996:src/pdf417/PDFScanningDecoder.c **** 		}
 997:src/pdf417/PDFScanningDecoder.c **** 		if (!Merge(&leftRowIndicatorColumn, &rightRowIndicatorColumn, &detectionResult,length)) 
 3507              		.loc 1 997 8
 3508 1b9a 8B45E4   		movl	-28(%ebp), %eax
 3509 1b9d 8944240C 		movl	%eax, 12(%esp)
 3510 1ba1 8D852C30 		leal	-1232852(%ebp), %eax
 3510      EDFF
 3511 1ba7 89442408 		movl	%eax, 8(%esp)
 3512 1bab 8D85D8A0 		leal	-24360(%ebp), %eax
 3512      FFFF
 3513 1bb1 89442404 		movl	%eax, 4(%esp)
GAS LISTING C:\Users\jisu8\AppData\Local\Temp\cc0IqG7f.s 			page 88


 3514 1bb5 8D850CD0 		leal	-12276(%ebp), %eax
 3514      FFFF
 3515 1bbb 890424   		movl	%eax, (%esp)
 3516 1bbe E82EF0FF 		call	_Merge
 3516      FF
 3517              		.loc 1 997 6
 3518 1bc3 84C0     		testb	%al, %al
 3519 1bc5 7556     		jne	L213
 998:src/pdf417/PDFScanningDecoder.c **** 		{
 999:src/pdf417/PDFScanningDecoder.c **** 			result_fault.status = NotFound;
 3520              		.loc 1 999 24
 3521 1bc7 C7458C01 		movl	$1, -116(%ebp)
 3521      000000
1000:src/pdf417/PDFScanningDecoder.c **** 			return result_fault;
 3522              		.loc 1 1000 11
 3523 1bce 8B4508   		movl	8(%ebp), %eax
 3524 1bd1 8B558C   		movl	-116(%ebp), %edx
 3525 1bd4 8910     		movl	%edx, (%eax)
 3526 1bd6 8B5590   		movl	-112(%ebp), %edx
 3527 1bd9 895004   		movl	%edx, 4(%eax)
 3528 1bdc 8B5594   		movl	-108(%ebp), %edx
 3529 1bdf 895008   		movl	%edx, 8(%eax)
 3530 1be2 8B5598   		movl	-104(%ebp), %edx
 3531 1be5 89500C   		movl	%edx, 12(%eax)
 3532 1be8 8B559C   		movl	-100(%ebp), %edx
 3533 1beb 895010   		movl	%edx, 16(%eax)
 3534 1bee 8B55A0   		movl	-96(%ebp), %edx
 3535 1bf1 895014   		movl	%edx, 20(%eax)
 3536 1bf4 8B55A4   		movl	-92(%ebp), %edx
 3537 1bf7 895018   		movl	%edx, 24(%eax)
 3538 1bfa 8B55A8   		movl	-88(%ebp), %edx
 3539 1bfd 89501C   		movl	%edx, 28(%eax)
 3540 1c00 8B55AC   		movl	-84(%ebp), %edx
 3541 1c03 895020   		movl	%edx, 32(%eax)
 3542 1c06 8B55B0   		movl	-80(%ebp), %edx
 3543 1c09 895024   		movl	%edx, 36(%eax)
 3544 1c0c 8B55B4   		movl	-76(%ebp), %edx
 3545 1c0f 895028   		movl	%edx, 40(%eax)
 3546 1c12 8B55B8   		movl	-72(%ebp), %edx
 3547 1c15 89502C   		movl	%edx, 44(%eax)
 3548 1c18 E9FF0200 		jmp	L207
 3548      00
 3549              	L213:
1001:src/pdf417/PDFScanningDecoder.c **** 		}
1002:src/pdf417/PDFScanningDecoder.c **** 		if (i == 0 && (detectionResult._boundingBox.m_hasValue != 0) && (detectionResult._boundingBox.m_v
 3550              		.loc 1 1002 6
 3551 1c1d 837DE000 		cmpl	$0, -32(%ebp)
 3552 1c21 7542     		jne	L214
 3553              		.loc 1 1002 46 discriminator 1
 3554 1c23 0FB6858C 		movzbl	-24436(%ebp), %eax
 3554      A0FFFF
 3555              		.loc 1 1002 14 discriminator 1
 3556 1c2a 84C0     		testb	%al, %al
 3557 1c2c 7437     		je	L214
 3558              		.loc 1 1002 104 discriminator 2
 3559 1c2e 8B95D0A0 		movl	-24368(%ebp), %edx
 3559      FFFF
GAS LISTING C:\Users\jisu8\AppData\Local\Temp\cc0IqG7f.s 			page 89


 3560              		.loc 1 1002 132 discriminator 2
 3561 1c34 8B4584   		movl	-124(%ebp), %eax
 3562              		.loc 1 1002 64 discriminator 2
 3563 1c37 39C2     		cmpl	%eax, %edx
 3564 1c39 7C0D     		jl	L215
 3565              		.loc 1 1002 178 discriminator 3
 3566 1c3b 8B95D4A0 		movl	-24364(%ebp), %edx
 3566      FFFF
 3567              		.loc 1 1002 206 discriminator 3
 3568 1c41 8B4588   		movl	-120(%ebp), %eax
 3569              		.loc 1 1002 139 discriminator 3
 3570 1c44 39C2     		cmpl	%eax, %edx
 3571 1c46 7E1D     		jle	L214
 3572              	L215:
1003:src/pdf417/PDFScanningDecoder.c **** 		{
1004:src/pdf417/PDFScanningDecoder.c **** 			boundingBox = detectionResult._boundingBox;
 3573              		.loc 1 1004 16
 3574 1c48 8D8540FF 		leal	-192(%ebp), %eax
 3574      FFFF
 3575 1c4e 8D958CA0 		leal	-24436(%ebp), %edx
 3575      FFFF
 3576 1c54 B9130000 		movl	$19, %ecx
 3576      00
 3577 1c59 89C7     		movl	%eax, %edi
 3578 1c5b 89D6     		movl	%edx, %esi
 3579 1c5d F3A5     		rep movsl
 987:src/pdf417/PDFScanningDecoder.c **** 	{
 3580              		.loc 1 987 26
 3581 1c5f 8345E001 		addl	$1, -32(%ebp)
 3582 1c63 EB19     		jmp	L210
 3583              	L214:
1005:src/pdf417/PDFScanningDecoder.c **** 		}
1006:src/pdf417/PDFScanningDecoder.c **** 		else 
1007:src/pdf417/PDFScanningDecoder.c **** 		{
1008:src/pdf417/PDFScanningDecoder.c **** 			detectionResult._boundingBox = boundingBox;
 3584              		.loc 1 1008 33
 3585 1c65 8D858CA0 		leal	-24436(%ebp), %eax
 3585      FFFF
 3586 1c6b 8D9540FF 		leal	-192(%ebp), %edx
 3586      FFFF
 3587 1c71 B9130000 		movl	$19, %ecx
 3587      00
 3588 1c76 89C7     		movl	%eax, %edi
 3589 1c78 89D6     		movl	%edx, %esi
 3590 1c7a F3A5     		rep movsl
1009:src/pdf417/PDFScanningDecoder.c **** 			break;
 3591              		.loc 1 1009 4
 3592 1c7c EB0A     		jmp	L216
 3593              	L210:
 987:src/pdf417/PDFScanningDecoder.c **** 	{
 3594              		.loc 1 987 2 discriminator 1
 3595 1c7e 837DE001 		cmpl	$1, -32(%ebp)
 3596 1c82 0F8E84FE 		jle	L217
 3596      FFFF
 3597              	L216:
 3598              	LBE26:
1010:src/pdf417/PDFScanningDecoder.c **** 		}
GAS LISTING C:\Users\jisu8\AppData\Local\Temp\cc0IqG7f.s 			page 90


1011:src/pdf417/PDFScanningDecoder.c **** 	}
1012:src/pdf417/PDFScanningDecoder.c **** 
1013:src/pdf417/PDFScanningDecoder.c **** 	int maxBarcodeColumn = detectionResult._barcodeMetadata._columnCount + 1;
 3599              		.loc 1 1013 57
 3600 1c88 8B852C30 		movl	-1232852(%ebp), %eax
 3600      EDFF
 3601              		.loc 1 1013 6
 3602 1c8e 83C001   		addl	$1, %eax
 3603 1c91 8945C8   		movl	%eax, -56(%ebp)
1014:src/pdf417/PDFScanningDecoder.c **** 	detectionResult._detectionResultColumns[0] = leftRowIndicatorColumn;
 3604              		.loc 1 1014 45
 3605 1c94 8D853C30 		leal	-1232836(%ebp), %eax
 3605      EDFF
 3606 1c9a 8D950CD0 		leal	-12276(%ebp), %edx
 3606      FFFF
 3607 1ca0 B9342F00 		movl	$12084, %ecx
 3607      00
 3608 1ca5 894C2408 		movl	%ecx, 8(%esp)
 3609 1ca9 89542404 		movl	%edx, 4(%esp)
 3610 1cad 890424   		movl	%eax, (%esp)
 3611 1cb0 E8000000 		call	_memcpy
 3611      00
1015:src/pdf417/PDFScanningDecoder.c **** 	detectionResult._detectionResultColumns[maxBarcodeColumn] = rightRowIndicatorColumn;
 3612              		.loc 1 1015 60
 3613 1cb5 8B45C8   		movl	-56(%ebp), %eax
 3614 1cb8 69C0342F 		imull	$12084, %eax, %eax
 3614      0000
 3615 1cbe 8D75E8   		leal	-24(%ebp), %esi
 3616 1cc1 01F0     		addl	%esi, %eax
 3617 1cc3 2DACCF12 		subl	$1232812, %eax
 3617      00
 3618 1cc8 89C2     		movl	%eax, %edx
 3619 1cca 8D85D8A0 		leal	-24360(%ebp), %eax
 3619      FFFF
 3620 1cd0 B9342F00 		movl	$12084, %ecx
 3620      00
 3621 1cd5 894C2408 		movl	%ecx, 8(%esp)
 3622 1cd9 89442404 		movl	%eax, 4(%esp)
 3623 1cdd 891424   		movl	%edx, (%esp)
 3624 1ce0 E8000000 		call	_memcpy
 3624      00
1016:src/pdf417/PDFScanningDecoder.c **** 
1017:src/pdf417/PDFScanningDecoder.c **** 	uint8_t leftToRight;
1018:src/pdf417/PDFScanningDecoder.c **** 
1019:src/pdf417/PDFScanningDecoder.c **** 	if(leftRowIndicatorColumn.m_hasValue != 0)
 3625              		.loc 1 1019 27
 3626 1ce5 0FB6850C 		movzbl	-12276(%ebp), %eax
 3626      D0FFFF
 3627              		.loc 1 1019 4
 3628 1cec 84C0     		testb	%al, %al
 3629 1cee 7406     		je	L218
1020:src/pdf417/PDFScanningDecoder.c **** 	{
1021:src/pdf417/PDFScanningDecoder.c **** 		leftToRight = 1;
 3630              		.loc 1 1021 15
 3631 1cf0 C645DF01 		movb	$1, -33(%ebp)
 3632 1cf4 EB04     		jmp	L219
 3633              	L218:
GAS LISTING C:\Users\jisu8\AppData\Local\Temp\cc0IqG7f.s 			page 91


1022:src/pdf417/PDFScanningDecoder.c **** 	}
1023:src/pdf417/PDFScanningDecoder.c **** 	else
1024:src/pdf417/PDFScanningDecoder.c **** 	{
1025:src/pdf417/PDFScanningDecoder.c **** 		leftToRight = 0;
 3634              		.loc 1 1025 15
 3635 1cf6 C645DF00 		movb	$0, -33(%ebp)
 3636              	L219:
 3637              	LBB27:
1026:src/pdf417/PDFScanningDecoder.c **** 	}
1027:src/pdf417/PDFScanningDecoder.c **** 
1028:src/pdf417/PDFScanningDecoder.c **** 	for (int barcodeColumnCount = 1; barcodeColumnCount <= maxBarcodeColumn; barcodeColumnCount++) 
 3638              		.loc 1 1028 11
 3639 1cfa C745D801 		movl	$1, -40(%ebp)
 3639      000000
 3640              		.loc 1 1028 2
 3641 1d01 E9E70100 		jmp	L220
 3641      00
 3642              	L235:
 3643              	LBB28:
1029:src/pdf417/PDFScanningDecoder.c **** 	{
1030:src/pdf417/PDFScanningDecoder.c **** 		int barcodeColumn = leftToRight ? barcodeColumnCount : maxBarcodeColumn - barcodeColumnCount;
 3644              		.loc 1 1030 56
 3645 1d06 807DDF00 		cmpb	$0, -33(%ebp)
 3646 1d0a 7508     		jne	L221
 3647              		.loc 1 1030 56 is_stmt 0 discriminator 1
 3648 1d0c 8B45C8   		movl	-56(%ebp), %eax
 3649 1d0f 2B45D8   		subl	-40(%ebp), %eax
 3650 1d12 EB03     		jmp	L222
 3651              	L221:
 3652              		.loc 1 1030 56 discriminator 2
 3653 1d14 8B45D8   		movl	-40(%ebp), %eax
 3654              	L222:
 3655              		.loc 1 1030 7 is_stmt 1 discriminator 4
 3656 1d17 8945C4   		movl	%eax, -60(%ebp)
1031:src/pdf417/PDFScanningDecoder.c **** 		if (detectionResult._detectionResultColumns[barcodeColumn].m_hasValue != 0) 
 3657              		.loc 1 1031 61 discriminator 4
 3658 1d1a 8B45C4   		movl	-60(%ebp), %eax
 3659 1d1d 69C0342F 		imull	$12084, %eax, %eax
 3659      0000
 3660 1d23 8D7DE8   		leal	-24(%ebp), %edi
 3661 1d26 01F8     		addl	%edi, %eax
 3662 1d28 2DACCF12 		subl	$1232812, %eax
 3662      00
 3663 1d2d 0FB600   		movzbl	(%eax), %eax
 3664              		.loc 1 1031 6 discriminator 4
 3665 1d30 84C0     		testb	%al, %al
 3666 1d32 0F85B001 		jne	L237
 3666      0000
1032:src/pdf417/PDFScanningDecoder.c **** 		{
1033:src/pdf417/PDFScanningDecoder.c **** 			// This will be the case for the opposite row indicator column, which doesn't need to be decoded
1034:src/pdf417/PDFScanningDecoder.c **** 			continue;
1035:src/pdf417/PDFScanningDecoder.c **** 		}
1036:src/pdf417/PDFScanningDecoder.c **** 		RowIndicator_t rowIndicator = barcodeColumn == 0 ? Left : (barcodeColumn == maxBarcodeColumn ? Ri
 3667              		.loc 1 1036 59
 3668 1d38 837DC400 		cmpl	$0, -60(%ebp)
 3669 1d3c 7416     		je	L225
 3670              		.loc 1 1036 59 is_stmt 0 discriminator 1
GAS LISTING C:\Users\jisu8\AppData\Local\Temp\cc0IqG7f.s 			page 92


 3671 1d3e 8B45C4   		movl	-60(%ebp), %eax
 3672 1d41 3B45C8   		cmpl	-56(%ebp), %eax
 3673 1d44 7507     		jne	L226
 3674              		.loc 1 1036 59 discriminator 3
 3675 1d46 B8020000 		movl	$2, %eax
 3675      00
 3676 1d4b EB0C     		jmp	L228
 3677              	L226:
 3678              		.loc 1 1036 59 discriminator 4
 3679 1d4d B8000000 		movl	$0, %eax
 3679      00
 3680 1d52 EB05     		jmp	L228
 3681              	L225:
 3682              		.loc 1 1036 59 discriminator 2
 3683 1d54 B8010000 		movl	$1, %eax
 3683      00
 3684              	L228:
 3685              		.loc 1 1036 18 is_stmt 1 discriminator 8
 3686 1d59 8945C0   		movl	%eax, -64(%ebp)
1037:src/pdf417/PDFScanningDecoder.c **** 		DetectionResultColumn(&boundingBox, rowIndicator,&(detectionResult._detectionResultColumns[barcod
 3687              		.loc 1 1037 3 discriminator 8
 3688 1d5c 8D852C30 		leal	-1232852(%ebp), %eax
 3688      EDFF
 3689 1d62 8B55C4   		movl	-60(%ebp), %edx
 3690 1d65 69D2342F 		imull	$12084, %edx, %edx
 3690      0000
 3691 1d6b 83C210   		addl	$16, %edx
 3692 1d6e 01D0     		addl	%edx, %eax
 3693 1d70 89442408 		movl	%eax, 8(%esp)
 3694 1d74 8B45C0   		movl	-64(%ebp), %eax
 3695 1d77 89442404 		movl	%eax, 4(%esp)
 3696 1d7b 8D8540FF 		leal	-192(%ebp), %eax
 3696      FFFF
 3697 1d81 890424   		movl	%eax, (%esp)
 3698 1d84 E8000000 		call	_DetectionResultColumn
 3698      00
1038:src/pdf417/PDFScanningDecoder.c **** 		int startColumn = -1;
 3699              		.loc 1 1038 7 discriminator 8
 3700 1d89 C745D4FF 		movl	$-1, -44(%ebp)
 3700      FFFFFF
1039:src/pdf417/PDFScanningDecoder.c **** 		int previousStartColumn = startColumn;
 3701              		.loc 1 1039 7 discriminator 8
 3702 1d90 8B45D4   		movl	-44(%ebp), %eax
 3703 1d93 8945D0   		movl	%eax, -48(%ebp)
 3704              	LBB29:
1040:src/pdf417/PDFScanningDecoder.c **** 		// TODO start at a row for which we know the start position, then detect upwards and downwards fr
1041:src/pdf417/PDFScanningDecoder.c **** 		for (int imageRow = boundingBox.m_value._minY; imageRow <= boundingBox.m_value._maxY; imageRow++)
 3705              		.loc 1 1041 12 discriminator 8
 3706 1d96 8B4584   		movl	-124(%ebp), %eax
 3707 1d99 8945CC   		movl	%eax, -52(%ebp)
 3708              		.loc 1 1041 3 discriminator 8
 3709 1d9c E9390100 		jmp	L229
 3709      00
 3710              	L234:
 3711              	LBB30:
1042:src/pdf417/PDFScanningDecoder.c **** 		{
1043:src/pdf417/PDFScanningDecoder.c **** 			startColumn = GetStartColumn(&detectionResult, barcodeColumn, imageRow, leftToRight,length);
GAS LISTING C:\Users\jisu8\AppData\Local\Temp\cc0IqG7f.s 			page 93


 3712              		.loc 1 1043 18
 3713 1da1 0FB645DF 		movzbl	-33(%ebp), %eax
 3714 1da5 8B55E4   		movl	-28(%ebp), %edx
 3715 1da8 89542410 		movl	%edx, 16(%esp)
 3716 1dac 8944240C 		movl	%eax, 12(%esp)
 3717 1db0 8B45CC   		movl	-52(%ebp), %eax
 3718 1db3 89442408 		movl	%eax, 8(%esp)
 3719 1db7 8B45C4   		movl	-60(%ebp), %eax
 3720 1dba 89442404 		movl	%eax, 4(%esp)
 3721 1dbe 8D852C30 		leal	-1232852(%ebp), %eax
 3721      EDFF
 3722 1dc4 890424   		movl	%eax, (%esp)
 3723 1dc7 E81FEFFF 		call	_GetStartColumn
 3723      FF
 3724 1dcc 8945D4   		movl	%eax, -44(%ebp)
1044:src/pdf417/PDFScanningDecoder.c **** 			if (startColumn < 0 || startColumn > boundingBox.m_value._maxX) 
 3725              		.loc 1 1044 7
 3726 1dcf 837DD400 		cmpl	$0, -44(%ebp)
 3727 1dd3 7808     		js	L230
 3728              		.loc 1 1044 60 discriminator 1
 3729 1dd5 8B4580   		movl	-128(%ebp), %eax
 3730              		.loc 1 1044 24 discriminator 1
 3731 1dd8 3945D4   		cmpl	%eax, -44(%ebp)
 3732 1ddb 7E10     		jle	L231
 3733              	L230:
1045:src/pdf417/PDFScanningDecoder.c **** 			{
1046:src/pdf417/PDFScanningDecoder.c **** 				if (previousStartColumn == -1) 
 3734              		.loc 1 1046 8
 3735 1ddd 837DD0FF 		cmpl	$-1, -48(%ebp)
 3736 1de1 0F84EE00 		je	L238
 3736      0000
1047:src/pdf417/PDFScanningDecoder.c **** 				{
1048:src/pdf417/PDFScanningDecoder.c **** 					continue;
1049:src/pdf417/PDFScanningDecoder.c **** 				}
1050:src/pdf417/PDFScanningDecoder.c **** 				startColumn = previousStartColumn;
 3737              		.loc 1 1050 17
 3738 1de7 8B45D0   		movl	-48(%ebp), %eax
 3739 1dea 8945D4   		movl	%eax, -44(%ebp)
 3740              	L231:
1051:src/pdf417/PDFScanningDecoder.c **** 			}
1052:src/pdf417/PDFScanningDecoder.c **** 			Codeword_t * codeword = DetectCodeword(image, boundingBox.m_value._minX, boundingBox.m_value._ma
 3741              		.loc 1 1052 28
 3742 1ded 0FB64DDF 		movzbl	-33(%ebp), %ecx
 3743 1df1 8B5580   		movl	-128(%ebp), %edx
 3744 1df4 8B857CFF 		movl	-132(%ebp), %eax
 3744      FFFF
 3745 1dfa 8B5D44   		movl	68(%ebp), %ebx
 3746 1dfd 895C241C 		movl	%ebx, 28(%esp)
 3747 1e01 8B5D40   		movl	64(%ebp), %ebx
 3748 1e04 895C2418 		movl	%ebx, 24(%esp)
 3749 1e08 8B5DCC   		movl	-52(%ebp), %ebx
 3750 1e0b 895C2414 		movl	%ebx, 20(%esp)
 3751 1e0f 8B5DD4   		movl	-44(%ebp), %ebx
 3752 1e12 895C2410 		movl	%ebx, 16(%esp)
 3753 1e16 894C240C 		movl	%ecx, 12(%esp)
 3754 1e1a 89542408 		movl	%edx, 8(%esp)
 3755 1e1e 89442404 		movl	%eax, 4(%esp)
GAS LISTING C:\Users\jisu8\AppData\Local\Temp\cc0IqG7f.s 			page 94


 3756 1e22 8B450C   		movl	12(%ebp), %eax
 3757 1e25 890424   		movl	%eax, (%esp)
 3758 1e28 E837E5FF 		call	_DetectCodeword
 3758      FF
 3759 1e2d 8945BC   		movl	%eax, -68(%ebp)
1053:src/pdf417/PDFScanningDecoder.c **** 			if (codeword != NULL) 
 3760              		.loc 1 1053 7
 3761 1e30 837DBC00 		cmpl	$0, -68(%ebp)
 3762 1e34 0F849C00 		je	L233
 3762      0000
1054:src/pdf417/PDFScanningDecoder.c **** 			{
1055:src/pdf417/PDFScanningDecoder.c **** 				detectionResult._detectionResultColumns[barcodeColumn].m_value._codewords[imageRow - detectionR
 3763              		.loc 1 1055 173
 3764 1e3a 8B45C4   		movl	-60(%ebp), %eax
 3765 1e3d 69C0342F 		imull	$12084, %eax, %eax
 3765      0000
 3766 1e43 8D75E8   		leal	-24(%ebp), %esi
 3767 1e46 01F0     		addl	%esi, %eax
 3768 1e48 2D64CF12 		subl	$1232740, %eax
 3768      00
 3769 1e4d 8B00     		movl	(%eax), %eax
 3770              		.loc 1 1055 88
 3771 1e4f 8B55CC   		movl	-52(%ebp), %edx
 3772 1e52 29C2     		subl	%eax, %edx
 3773              		.loc 1 1055 181
 3774 1e54 8B4DC4   		movl	-60(%ebp), %ecx
 3775 1e57 89D0     		movl	%edx, %eax
 3776 1e59 01C0     		addl	%eax, %eax
 3777 1e5b 01D0     		addl	%edx, %eax
 3778 1e5d C1E003   		sall	$3, %eax
 3779 1e60 69D1342F 		imull	$12084, %ecx, %edx
 3779      0000
 3780 1e66 01D0     		addl	%edx, %eax
 3781 1e68 8D7DE8   		leal	-24(%ebp), %edi
 3782 1e6b 01F8     		addl	%edi, %eax
 3783 1e6d 8D909430 		leal	-1232748(%eax), %edx
 3783      EDFF
 3784 1e73 8B45BC   		movl	-68(%ebp), %eax
 3785 1e76 8B08     		movl	(%eax), %ecx
 3786 1e78 894A10   		movl	%ecx, 16(%edx)
 3787 1e7b 8B4804   		movl	4(%eax), %ecx
 3788 1e7e 894A14   		movl	%ecx, 20(%edx)
 3789 1e81 8B4808   		movl	8(%eax), %ecx
 3790 1e84 894A18   		movl	%ecx, 24(%edx)
 3791 1e87 8B480C   		movl	12(%eax), %ecx
 3792 1e8a 894A1C   		movl	%ecx, 28(%edx)
 3793 1e8d 8B4810   		movl	16(%eax), %ecx
 3794 1e90 894A20   		movl	%ecx, 32(%edx)
 3795 1e93 8B4014   		movl	20(%eax), %eax
 3796 1e96 894224   		movl	%eax, 36(%edx)
1056:src/pdf417/PDFScanningDecoder.c **** 				previousStartColumn = startColumn;
 3797              		.loc 1 1056 25
 3798 1e99 8B45D4   		movl	-44(%ebp), %eax
 3799 1e9c 8945D0   		movl	%eax, -48(%ebp)
1057:src/pdf417/PDFScanningDecoder.c **** 				minCodewordWidth = __min(minCodewordWidth, (codeword->m_value._endX - codeword->m_value._startX
 3800              		.loc 1 1057 24
 3801 1e9f 8B45BC   		movl	-68(%ebp), %eax
GAS LISTING C:\Users\jisu8\AppData\Local\Temp\cc0IqG7f.s 			page 95


 3802 1ea2 8B5008   		movl	8(%eax), %edx
 3803 1ea5 8B45BC   		movl	-68(%ebp), %eax
 3804 1ea8 8B4004   		movl	4(%eax), %eax
 3805 1eab 29C2     		subl	%eax, %edx
 3806 1ead 89D0     		movl	%edx, %eax
 3807              		.loc 1 1057 22
 3808 1eaf 394540   		cmpl	%eax, 64(%ebp)
 3809 1eb2 0F4E4540 		cmovle	64(%ebp), %eax
 3810 1eb6 894540   		movl	%eax, 64(%ebp)
1058:src/pdf417/PDFScanningDecoder.c **** 				maxCodewordWidth = __max(maxCodewordWidth, (codeword->m_value._endX - codeword->m_value._startX
 3811              		.loc 1 1058 24
 3812 1eb9 8B45BC   		movl	-68(%ebp), %eax
 3813 1ebc 8B5008   		movl	8(%eax), %edx
 3814 1ebf 8B45BC   		movl	-68(%ebp), %eax
 3815 1ec2 8B4004   		movl	4(%eax), %eax
 3816 1ec5 29C2     		subl	%eax, %edx
 3817 1ec7 89D0     		movl	%edx, %eax
 3818              		.loc 1 1058 22
 3819 1ec9 394544   		cmpl	%eax, 68(%ebp)
 3820 1ecc 0F4D4544 		cmovge	68(%ebp), %eax
 3821 1ed0 894544   		movl	%eax, 68(%ebp)
 3822 1ed3 EB01     		jmp	L233
 3823              	L238:
1048:src/pdf417/PDFScanningDecoder.c **** 				}
 3824              		.loc 1 1048 6
 3825 1ed5 90       		nop
 3826              	L233:
 3827              	LBE30:
1041:src/pdf417/PDFScanningDecoder.c **** 		{
 3828              		.loc 1 1041 97 discriminator 2
 3829 1ed6 8345CC01 		addl	$1, -52(%ebp)
 3830              	L229:
1041:src/pdf417/PDFScanningDecoder.c **** 		{
 3831              		.loc 1 1041 81 discriminator 1
 3832 1eda 8B4588   		movl	-120(%ebp), %eax
1041:src/pdf417/PDFScanningDecoder.c **** 		{
 3833              		.loc 1 1041 3 discriminator 1
 3834 1edd 3945CC   		cmpl	%eax, -52(%ebp)
 3835 1ee0 0F8EBBFE 		jle	L234
 3835      FFFF
 3836 1ee6 EB01     		jmp	L224
 3837              	L237:
 3838              	LBE29:
1034:src/pdf417/PDFScanningDecoder.c **** 		}
 3839              		.loc 1 1034 4
 3840 1ee8 90       		nop
 3841              	L224:
 3842              	LBE28:
1028:src/pdf417/PDFScanningDecoder.c **** 	{
 3843              		.loc 1 1028 93 discriminator 2
 3844 1ee9 8345D801 		addl	$1, -40(%ebp)
 3845              	L220:
1028:src/pdf417/PDFScanningDecoder.c **** 	{
 3846              		.loc 1 1028 2 discriminator 1
 3847 1eed 8B45D8   		movl	-40(%ebp), %eax
 3848 1ef0 3B45C8   		cmpl	-56(%ebp), %eax
 3849 1ef3 0F8E0DFE 		jle	L235
GAS LISTING C:\Users\jisu8\AppData\Local\Temp\cc0IqG7f.s 			page 96


 3849      FFFF
 3850              	LBE27:
1059:src/pdf417/PDFScanningDecoder.c **** 			}
1060:src/pdf417/PDFScanningDecoder.c **** 		}
1061:src/pdf417/PDFScanningDecoder.c **** 	}
1062:src/pdf417/PDFScanningDecoder.c **** 	return CreateDecoderResult(&detectionResult, characterSet,length);
 3851              		.loc 1 1062 9
 3852 1ef9 8B4508   		movl	8(%ebp), %eax
 3853 1efc 8B55E4   		movl	-28(%ebp), %edx
 3854 1eff 8954240C 		movl	%edx, 12(%esp)
 3855 1f03 8B5548   		movl	72(%ebp), %edx
 3856 1f06 89542408 		movl	%edx, 8(%esp)
 3857 1f0a 8D952C30 		leal	-1232852(%ebp), %edx
 3857      EDFF
 3858 1f10 89542404 		movl	%edx, 4(%esp)
 3859 1f14 890424   		movl	%eax, (%esp)
 3860 1f17 E8C5F6FF 		call	_CreateDecoderResult
 3860      FF
 3861              	L207:
1063:src/pdf417/PDFScanningDecoder.c **** }
 3862              		.loc 1 1063 1
 3863 1f1c 8B4508   		movl	8(%ebp), %eax
 3864 1f1f 81C40CD0 		addl	$1232908, %esp
 3864      1200
 3865 1f25 5B       		popl	%ebx
 3866              		.cfi_restore 3
 3867 1f26 5E       		popl	%esi
 3868              		.cfi_restore 6
 3869 1f27 5F       		popl	%edi
 3870              		.cfi_restore 7
 3871 1f28 5D       		popl	%ebp
 3872              	LCFI92:
 3873              		.cfi_restore 5
 3874              		.cfi_def_cfa 4, 4
 3875 1f29 C3       		ret
 3876              		.cfi_endproc
 3877              	LFE35:
 3878              	Letext0:
 3879              		.file 2 "src/StructuredAppend.h"
 3880              		.file 3 "src/decodestatus.h"
 3881              		.file 4 "D:/3.tools/mingw/mingw32/i686-w64-mingw32/include/crtdefs.h"
 3882              		.file 5 "D:/3.tools/mingw/mingw32/i686-w64-mingw32/include/stdint.h"
 3883              		.file 6 "src/DecoderResult.h"
 3884              		.file 7 "src/BitMatrix.h"
 3885              		.file 8 "src/ResultPoint.h"
 3886              		.file 9 "src/pdf417/PDFBoundingBox.h"
 3887              		.file 10 "src/pdf417/PDFCodeword.h"
 3888              		.file 11 "src/pdf417/PDFBarcodeMetadata.h"
 3889              		.file 12 "src/pdf417/PDFDetectionResultColumn.h"
 3890              		.file 13 "src/pdf417/PDFDetectionResult.h"
 3891              		.file 14 "src/pdf417/PDFScanningDecoder.h"
 3892              		.file 15 "src/pdf417/PDFCodewordDecoder.h"
 3893              		.file 16 "src/pdf417/PDFBarcodeValue.h"
 3894              		.file 17 "D:/3.tools/mingw/mingw32/i686-w64-mingw32/include/stdlib.h"
 3895              		.file 18 "D:/3.tools/mingw/mingw32/i686-w64-mingw32/include/malloc.h"
 3896              		.file 19 "<built-in>"
 3897 1f2a 9090     		.section	.debug_info,"dr"
GAS LISTING C:\Users\jisu8\AppData\Local\Temp\cc0IqG7f.s 			page 97


 3898              	Ldebug_info0:
 3899 0000 3E230000 		.long	0x233e
 3900 0004 0200     		.word	0x2
 3901 0006 00000000 		.secrel32	Ldebug_abbrev0
 3902 000a 04       		.byte	0x4
 3903 000b 01       		.uleb128 0x1
 3904 000c 474E5520 		.ascii "GNU C17 8.1.0 -mtune=generic -march=i686 -g -gdwarf-2 -O0\0"
 3904      43313720 
 3904      382E312E 
 3904      30202D6D 
 3904      74756E65 
 3905 0046 0C       		.byte	0xc
 3906 0047 7372632F 		.ascii "src/pdf417/PDFScanningDecoder.c\0"
 3906      70646634 
 3906      31372F50 
 3906      44465363 
 3906      616E6E69 
 3907 0067 443A5C31 		.ascii "D:\\1.Project_workspace\\PDF_BARCODE\0"
 3907      2E50726F 
 3907      6A656374 
 3907      5F776F72 
 3907      6B737061 
 3908 008a 00000000 		.long	Ltext0
 3909 008e 2A1F0000 		.long	Letext0
 3910 0092 00000000 		.secrel32	Ldebug_line0
 3911 0096 02       		.uleb128 0x2
 3912 0097 07       		.byte	0x7
 3913 0098 04       		.byte	0x4
 3914 0099 D8000000 		.long	0xd8
 3915 009d 03       		.byte	0x3
 3916 009e 04       		.byte	0x4
 3917 009f 01       		.byte	0x1
 3918 00a0 D8000000 		.long	0xd8
 3919 00a4 03       		.uleb128 0x3
 3920 00a5 4E6F4572 		.ascii "NoError\0"
 3920      726F7200 
 3921 00ad 00       		.byte	0
 3922 00ae 03       		.uleb128 0x3
 3923 00af 4E6F7446 		.ascii "NotFound\0"
 3923      6F756E64 
 3923      00
 3924 00b8 01       		.byte	0x1
 3925 00b9 03       		.uleb128 0x3
 3926 00ba 466F726D 		.ascii "FormatError\0"
 3926      61744572 
 3926      726F7200 
 3927 00c6 02       		.byte	0x2
 3928 00c7 03       		.uleb128 0x3
 3929 00c8 43686563 		.ascii "ChecksumError\0"
 3929      6B73756D 
 3929      4572726F 
 3929      7200
 3930 00d6 03       		.byte	0x3
 3931 00d7 00       		.byte	0
 3932 00d8 04       		.uleb128 0x4
 3933 00d9 04       		.byte	0x4
 3934 00da 07       		.byte	0x7
GAS LISTING C:\Users\jisu8\AppData\Local\Temp\cc0IqG7f.s 			page 98


 3935 00db 756E7369 		.ascii "unsigned int\0"
 3935      676E6564 
 3935      20696E74 
 3935      00
 3936 00e8 05       		.uleb128 0x5
 3937 00e9 4465636F 		.ascii "DecodeStatus_t\0"
 3937      64655374 
 3937      61747573 
 3937      5F7400
 3938 00f8 03       		.byte	0x3
 3939 00f9 09       		.byte	0x9
 3940 00fa 02       		.byte	0x2
 3941 00fb 96000000 		.long	0x96
 3942 00ff 06       		.uleb128 0x6
 3943 0100 0C       		.byte	0xc
 3944 0101 02       		.byte	0x2
 3945 0102 04       		.byte	0x4
 3946 0103 09       		.byte	0x9
 3947 0104 39010000 		.long	0x139
 3948 0108 07       		.uleb128 0x7
 3949 0109 696E6465 		.ascii "index\0"
 3949      7800
 3950 010f 02       		.byte	0x2
 3951 0110 06       		.byte	0x6
 3952 0111 06       		.byte	0x6
 3953 0112 39010000 		.long	0x139
 3954 0116 02       		.byte	0x2
 3955 0117 23       		.byte	0x23
 3956 0118 00       		.uleb128 0
 3957 0119 07       		.uleb128 0x7
 3958 011a 636F756E 		.ascii "count\0"
 3958      7400
 3959 0120 02       		.byte	0x2
 3960 0121 07       		.byte	0x7
 3961 0122 06       		.byte	0x6
 3962 0123 39010000 		.long	0x139
 3963 0127 02       		.byte	0x2
 3964 0128 23       		.byte	0x23
 3965 0129 04       		.uleb128 0x4
 3966 012a 07       		.uleb128 0x7
 3967 012b 696400   		.ascii "id\0"
 3968 012e 02       		.byte	0x2
 3969 012f 08       		.byte	0x8
 3970 0130 09       		.byte	0x9
 3971 0131 45010000 		.long	0x145
 3972 0135 02       		.byte	0x2
 3973 0136 23       		.byte	0x23
 3974 0137 08       		.uleb128 0x8
 3975 0138 00       		.byte	0
 3976 0139 04       		.uleb128 0x4
 3977 013a 04       		.byte	0x4
 3978 013b 05       		.byte	0x5
 3979 013c 696E7400 		.ascii "int\0"
 3980 0140 08       		.uleb128 0x8
 3981 0141 39010000 		.long	0x139
 3982 0145 09       		.uleb128 0x9
 3983 0146 04       		.byte	0x4
GAS LISTING C:\Users\jisu8\AppData\Local\Temp\cc0IqG7f.s 			page 99


 3984 0147 4B010000 		.long	0x14b
 3985 014b 04       		.uleb128 0x4
 3986 014c 01       		.byte	0x1
 3987 014d 06       		.byte	0x6
 3988 014e 63686172 		.ascii "char\0"
 3988      00
 3989 0153 08       		.uleb128 0x8
 3990 0154 4B010000 		.long	0x14b
 3991 0158 05       		.uleb128 0x5
 3992 0159 53747275 		.ascii "StructuredAppendInfo_t\0"
 3992      63747572 
 3992      65644170 
 3992      70656E64 
 3992      496E666F 
 3993 0170 02       		.byte	0x2
 3994 0171 09       		.byte	0x9
 3995 0172 02       		.byte	0x2
 3996 0173 FF000000 		.long	0xff
 3997 0177 05       		.uleb128 0x5
 3998 0178 73697A65 		.ascii "size_t\0"
 3998      5F7400
 3999 017f 04       		.byte	0x4
 4000 0180 25       		.byte	0x25
 4001 0181 16       		.byte	0x16
 4002 0182 D8000000 		.long	0xd8
 4003 0186 05       		.uleb128 0x5
 4004 0187 77636861 		.ascii "wchar_t\0"
 4004      725F7400 
 4005 018f 04       		.byte	0x4
 4006 0190 62       		.byte	0x62
 4007 0191 18       		.byte	0x18
 4008 0192 96010000 		.long	0x196
 4009 0196 04       		.uleb128 0x4
 4010 0197 02       		.byte	0x2
 4011 0198 07       		.byte	0x7
 4012 0199 73686F72 		.ascii "short unsigned int\0"
 4012      7420756E 
 4012      7369676E 
 4012      65642069 
 4012      6E7400
 4013 01ac 04       		.uleb128 0x4
 4014 01ad 04       		.byte	0x4
 4015 01ae 05       		.byte	0x5
 4016 01af 6C6F6E67 		.ascii "long int\0"
 4016      20696E74 
 4016      00
 4017 01b8 04       		.uleb128 0x4
 4018 01b9 08       		.byte	0x8
 4019 01ba 05       		.byte	0x5
 4020 01bb 6C6F6E67 		.ascii "long long int\0"
 4020      206C6F6E 
 4020      6720696E 
 4020      7400
 4021 01c9 09       		.uleb128 0x9
 4022 01ca 04       		.byte	0x4
 4023 01cb 86010000 		.long	0x186
 4024 01cf 09       		.uleb128 0x9
GAS LISTING C:\Users\jisu8\AppData\Local\Temp\cc0IqG7f.s 			page 100


 4025 01d0 04       		.byte	0x4
 4026 01d1 39010000 		.long	0x139
 4027 01d5 04       		.uleb128 0x4
 4028 01d6 04       		.byte	0x4
 4029 01d7 07       		.byte	0x7
 4030 01d8 6C6F6E67 		.ascii "long unsigned int\0"
 4030      20756E73 
 4030      69676E65 
 4030      6420696E 
 4030      7400
 4031 01ea 09       		.uleb128 0x9
 4032 01eb 04       		.byte	0x4
 4033 01ec 01020000 		.long	0x201
 4034 01f0 04       		.uleb128 0x4
 4035 01f1 01       		.byte	0x1
 4036 01f2 08       		.byte	0x8
 4037 01f3 756E7369 		.ascii "unsigned char\0"
 4037      676E6564 
 4037      20636861 
 4037      7200
 4038 0201 08       		.uleb128 0x8
 4039 0202 F0010000 		.long	0x1f0
 4040 0206 04       		.uleb128 0x4
 4041 0207 0C       		.byte	0xc
 4042 0208 04       		.byte	0x4
 4043 0209 6C6F6E67 		.ascii "long double\0"
 4043      20646F75 
 4043      626C6500 
 4044 0215 04       		.uleb128 0x4
 4045 0216 10       		.byte	0x10
 4046 0217 04       		.byte	0x4
 4047 0218 5F466C6F 		.ascii "_Float128\0"
 4047      61743132 
 4047      3800
 4048 0222 04       		.uleb128 0x4
 4049 0223 01       		.byte	0x1
 4050 0224 06       		.byte	0x6
 4051 0225 7369676E 		.ascii "signed char\0"
 4051      65642063 
 4051      68617200 
 4052 0231 05       		.uleb128 0x5
 4053 0232 75696E74 		.ascii "uint8_t\0"
 4053      385F7400 
 4054 023a 05       		.byte	0x5
 4055 023b 24       		.byte	0x24
 4056 023c 19       		.byte	0x19
 4057 023d F0010000 		.long	0x1f0
 4058 0241 04       		.uleb128 0x4
 4059 0242 02       		.byte	0x2
 4060 0243 05       		.byte	0x5
 4061 0244 73686F72 		.ascii "short int\0"
 4061      7420696E 
 4061      7400
 4062 024e 04       		.uleb128 0x4
 4063 024f 08       		.byte	0x8
 4064 0250 07       		.byte	0x7
 4065 0251 6C6F6E67 		.ascii "long long unsigned int\0"
GAS LISTING C:\Users\jisu8\AppData\Local\Temp\cc0IqG7f.s 			page 101


 4065      206C6F6E 
 4065      6720756E 
 4065      7369676E 
 4065      65642069 
 4066 0268 06       		.uleb128 0x6
 4067 0269 30       		.byte	0x30
 4068 026a 06       		.byte	0x6
 4069 026b 06       		.byte	0x6
 4070 026c 09       		.byte	0x9
 4071 026d 49030000 		.long	0x349
 4072 0271 07       		.uleb128 0x7
 4073 0272 73746174 		.ascii "status\0"
 4073      757300
 4074 0279 06       		.byte	0x6
 4075 027a 08       		.byte	0x8
 4076 027b 11       		.byte	0x11
 4077 027c E8000000 		.long	0xe8
 4078 0280 02       		.byte	0x2
 4079 0281 23       		.byte	0x23
 4080 0282 00       		.uleb128 0
 4081 0283 07       		.uleb128 0x7
 4082 0284 5F726177 		.ascii "_rawBytes\0"
 4082      42797465 
 4082      7300
 4083 028e 06       		.byte	0x6
 4084 028f 09       		.byte	0x9
 4085 0290 0C       		.byte	0xc
 4086 0291 49030000 		.long	0x349
 4087 0295 02       		.byte	0x2
 4088 0296 23       		.byte	0x23
 4089 0297 04       		.uleb128 0x4
 4090 0298 07       		.uleb128 0x7
 4091 0299 5F6E756D 		.ascii "_numBits\0"
 4091      42697473 
 4091      00
 4092 02a2 06       		.byte	0x6
 4093 02a3 0A       		.byte	0xa
 4094 02a4 06       		.byte	0x6
 4095 02a5 39010000 		.long	0x139
 4096 02a9 02       		.byte	0x2
 4097 02aa 23       		.byte	0x23
 4098 02ab 08       		.uleb128 0x8
 4099 02ac 07       		.uleb128 0x7
 4100 02ad 5F746578 		.ascii "_text\0"
 4100      7400
 4101 02b3 06       		.byte	0x6
 4102 02b4 0B       		.byte	0xb
 4103 02b5 12       		.byte	0x12
 4104 02b6 4F030000 		.long	0x34f
 4105 02ba 02       		.byte	0x2
 4106 02bb 23       		.byte	0x23
 4107 02bc 0C       		.uleb128 0xc
 4108 02bd 07       		.uleb128 0x7
 4109 02be 5F65634C 		.ascii "_ecLevel\0"
 4109      6576656C 
 4109      00
 4110 02c7 06       		.byte	0x6
GAS LISTING C:\Users\jisu8\AppData\Local\Temp\cc0IqG7f.s 			page 102


 4111 02c8 0C       		.byte	0xc
 4112 02c9 12       		.byte	0x12
 4113 02ca 4F030000 		.long	0x34f
 4114 02ce 02       		.byte	0x2
 4115 02cf 23       		.byte	0x23
 4116 02d0 10       		.uleb128 0x10
 4117 02d1 07       		.uleb128 0x7
 4118 02d2 5F657272 		.ascii "_errorsCorrected\0"
 4118      6F727343 
 4118      6F727265 
 4118      63746564 
 4118      00
 4119 02e3 06       		.byte	0x6
 4120 02e4 0D       		.byte	0xd
 4121 02e5 06       		.byte	0x6
 4122 02e6 39010000 		.long	0x139
 4123 02ea 02       		.byte	0x2
 4124 02eb 23       		.byte	0x23
 4125 02ec 14       		.uleb128 0x14
 4126 02ed 07       		.uleb128 0x7
 4127 02ee 5F657261 		.ascii "_erasures\0"
 4127      73757265 
 4127      7300
 4128 02f8 06       		.byte	0x6
 4129 02f9 0E       		.byte	0xe
 4130 02fa 06       		.byte	0x6
 4131 02fb 39010000 		.long	0x139
 4132 02ff 02       		.byte	0x2
 4133 0300 23       		.byte	0x23
 4134 0301 18       		.uleb128 0x18
 4135 0302 07       		.uleb128 0x7
 4136 0303 5F737472 		.ascii "_structuredAppend\0"
 4136      75637475 
 4136      72656441 
 4136      7070656E 
 4136      6400
 4137 0315 06       		.byte	0x6
 4138 0316 0F       		.byte	0xf
 4139 0317 19       		.byte	0x19
 4140 0318 58010000 		.long	0x158
 4141 031c 02       		.byte	0x2
 4142 031d 23       		.byte	0x23
 4143 031e 1C       		.uleb128 0x1c
 4144 031f 07       		.uleb128 0x7
 4145 0320 5F726561 		.ascii "_readerInit\0"
 4145      64657249 
 4145      6E697400 
 4146 032c 06       		.byte	0x6
 4147 032d 10       		.byte	0x10
 4148 032e 0A       		.byte	0xa
 4149 032f 31020000 		.long	0x231
 4150 0333 02       		.byte	0x2
 4151 0334 23       		.byte	0x23
 4152 0335 28       		.uleb128 0x28
 4153 0336 07       		.uleb128 0x7
 4154 0337 5F657874 		.ascii "_extra\0"
 4154      726100
GAS LISTING C:\Users\jisu8\AppData\Local\Temp\cc0IqG7f.s 			page 103


 4155 033e 06       		.byte	0x6
 4156 033f 11       		.byte	0x11
 4157 0340 0C       		.byte	0xc
 4158 0341 49030000 		.long	0x349
 4159 0345 02       		.byte	0x2
 4160 0346 23       		.byte	0x23
 4161 0347 2C       		.uleb128 0x2c
 4162 0348 00       		.byte	0
 4163 0349 09       		.uleb128 0x9
 4164 034a 04       		.byte	0x4
 4165 034b 31020000 		.long	0x231
 4166 034f 09       		.uleb128 0x9
 4167 0350 04       		.byte	0x4
 4168 0351 F0010000 		.long	0x1f0
 4169 0355 05       		.uleb128 0x5
 4170 0356 4465636F 		.ascii "DecoderResult_t\0"
 4170      64657252 
 4170      6573756C 
 4170      745F7400 
 4171 0366 06       		.byte	0x6
 4172 0367 12       		.byte	0x12
 4173 0368 02       		.byte	0x2
 4174 0369 68020000 		.long	0x268
 4175 036d 06       		.uleb128 0x6
 4176 036e 10       		.byte	0x10
 4177 036f 07       		.byte	0x7
 4178 0370 06       		.byte	0x6
 4179 0371 09       		.byte	0x9
 4180 0372 C0030000 		.long	0x3c0
 4181 0376 07       		.uleb128 0x7
 4182 0377 5F776964 		.ascii "_width\0"
 4182      746800
 4183 037e 07       		.byte	0x7
 4184 037f 08       		.byte	0x8
 4185 0380 06       		.byte	0x6
 4186 0381 39010000 		.long	0x139
 4187 0385 02       		.byte	0x2
 4188 0386 23       		.byte	0x23
 4189 0387 00       		.uleb128 0
 4190 0388 07       		.uleb128 0x7
 4191 0389 5F686569 		.ascii "_height\0"
 4191      67687400 
 4192 0391 07       		.byte	0x7
 4193 0392 09       		.byte	0x9
 4194 0393 06       		.byte	0x6
 4195 0394 39010000 		.long	0x139
 4196 0398 02       		.byte	0x2
 4197 0399 23       		.byte	0x23
 4198 039a 04       		.uleb128 0x4
 4199 039b 07       		.uleb128 0x7
 4200 039c 5F726F77 		.ascii "_rowSize\0"
 4200      53697A65 
 4200      00
 4201 03a5 07       		.byte	0x7
 4202 03a6 0A       		.byte	0xa
 4203 03a7 06       		.byte	0x6
 4204 03a8 39010000 		.long	0x139
GAS LISTING C:\Users\jisu8\AppData\Local\Temp\cc0IqG7f.s 			page 104


 4205 03ac 02       		.byte	0x2
 4206 03ad 23       		.byte	0x23
 4207 03ae 08       		.uleb128 0x8
 4208 03af 07       		.uleb128 0x7
 4209 03b0 62697473 		.ascii "bits\0"
 4209      00
 4210 03b5 07       		.byte	0x7
 4211 03b6 0B       		.byte	0xb
 4212 03b7 0C       		.byte	0xc
 4213 03b8 49030000 		.long	0x349
 4214 03bc 02       		.byte	0x2
 4215 03bd 23       		.byte	0x23
 4216 03be 0C       		.uleb128 0xc
 4217 03bf 00       		.byte	0
 4218 03c0 05       		.uleb128 0x5
 4219 03c1 4269744D 		.ascii "BitMatrix_t\0"
 4219      61747269 
 4219      785F7400 
 4220 03cd 07       		.byte	0x7
 4221 03ce 0E       		.byte	0xe
 4222 03cf 02       		.byte	0x2
 4223 03d0 6D030000 		.long	0x36d
 4224 03d4 08       		.uleb128 0x8
 4225 03d5 C0030000 		.long	0x3c0
 4226 03d9 06       		.uleb128 0x6
 4227 03da 08       		.byte	0x8
 4228 03db 08       		.byte	0x8
 4229 03dc 14       		.byte	0x14
 4230 03dd 09       		.byte	0x9
 4231 03de FD030000 		.long	0x3fd
 4232 03e2 07       		.uleb128 0x7
 4233 03e3 7800     		.ascii "x\0"
 4234 03e5 08       		.byte	0x8
 4235 03e6 16       		.byte	0x16
 4236 03e7 08       		.byte	0x8
 4237 03e8 FD030000 		.long	0x3fd
 4238 03ec 02       		.byte	0x2
 4239 03ed 23       		.byte	0x23
 4240 03ee 00       		.uleb128 0
 4241 03ef 07       		.uleb128 0x7
 4242 03f0 7900     		.ascii "y\0"
 4243 03f2 08       		.byte	0x8
 4244 03f3 17       		.byte	0x17
 4245 03f4 08       		.byte	0x8
 4246 03f5 FD030000 		.long	0x3fd
 4247 03f9 02       		.byte	0x2
 4248 03fa 23       		.byte	0x23
 4249 03fb 04       		.uleb128 0x4
 4250 03fc 00       		.byte	0
 4251 03fd 04       		.uleb128 0x4
 4252 03fe 04       		.byte	0x4
 4253 03ff 04       		.byte	0x4
 4254 0400 666C6F61 		.ascii "float\0"
 4254      7400
 4255 0406 05       		.uleb128 0x5
 4256 0407 506F696E 		.ascii "PointT_t\0"
 4256      74545F74 
GAS LISTING C:\Users\jisu8\AppData\Local\Temp\cc0IqG7f.s 			page 105


 4256      00
 4257 0410 08       		.byte	0x8
 4258 0411 18       		.byte	0x18
 4259 0412 02       		.byte	0x2
 4260 0413 D9030000 		.long	0x3d9
 4261 0417 06       		.uleb128 0x6
 4262 0418 0C       		.byte	0xc
 4263 0419 08       		.byte	0x8
 4264 041a 1A       		.byte	0x1a
 4265 041b 09       		.byte	0x9
 4266 041c 3F040000 		.long	0x43f
 4267 0420 0A       		.uleb128 0xa
 4268 0421 AD010000 		.secrel32	LASF0
 4269 0425 08       		.byte	0x8
 4270 0426 1C       		.byte	0x1c
 4271 0427 0A       		.byte	0xa
 4272 0428 31020000 		.long	0x231
 4273 042c 02       		.byte	0x2
 4274 042d 23       		.byte	0x23
 4275 042e 00       		.uleb128 0
 4276 042f 0A       		.uleb128 0xa
 4277 0430 3C000000 		.secrel32	LASF1
 4278 0434 08       		.byte	0x8
 4279 0435 1D       		.byte	0x1d
 4280 0436 0B       		.byte	0xb
 4281 0437 06040000 		.long	0x406
 4282 043b 02       		.byte	0x2
 4283 043c 23       		.byte	0x23
 4284 043d 04       		.uleb128 0x4
 4285 043e 00       		.byte	0
 4286 043f 05       		.uleb128 0x5
 4287 0440 52657375 		.ascii "ResultPoint_t\0"
 4287      6C74506F 
 4287      696E745F 
 4287      7400
 4288 044e 08       		.byte	0x8
 4289 044f 1E       		.byte	0x1e
 4290 0450 02       		.byte	0x2
 4291 0451 17040000 		.long	0x417
 4292 0455 08       		.uleb128 0x8
 4293 0456 3F040000 		.long	0x43f
 4294 045a 06       		.uleb128 0x6
 4295 045b 48       		.byte	0x48
 4296 045c 09       		.byte	0x9
 4297 045d 06       		.byte	0x6
 4298 045e 09       		.byte	0x9
 4299 045f 2B050000 		.long	0x52b
 4300 0463 07       		.uleb128 0x7
 4301 0464 5F696D67 		.ascii "_imgWidth\0"
 4301      57696474 
 4301      6800
 4302 046e 09       		.byte	0x9
 4303 046f 08       		.byte	0x8
 4304 0470 06       		.byte	0x6
 4305 0471 39010000 		.long	0x139
 4306 0475 02       		.byte	0x2
 4307 0476 23       		.byte	0x23
GAS LISTING C:\Users\jisu8\AppData\Local\Temp\cc0IqG7f.s 			page 106


 4308 0477 00       		.uleb128 0
 4309 0478 07       		.uleb128 0x7
 4310 0479 5F696D67 		.ascii "_imgHeight\0"
 4310      48656967 
 4310      687400
 4311 0484 09       		.byte	0x9
 4312 0485 09       		.byte	0x9
 4313 0486 06       		.byte	0x6
 4314 0487 39010000 		.long	0x139
 4315 048b 02       		.byte	0x2
 4316 048c 23       		.byte	0x23
 4317 048d 04       		.uleb128 0x4
 4318 048e 07       		.uleb128 0x7
 4319 048f 5F746F70 		.ascii "_topLeft\0"
 4319      4C656674 
 4319      00
 4320 0498 09       		.byte	0x9
 4321 0499 0A       		.byte	0xa
 4322 049a 10       		.byte	0x10
 4323 049b 3F040000 		.long	0x43f
 4324 049f 02       		.byte	0x2
 4325 04a0 23       		.byte	0x23
 4326 04a1 08       		.uleb128 0x8
 4327 04a2 07       		.uleb128 0x7
 4328 04a3 5F626F74 		.ascii "_bottomLeft\0"
 4328      746F6D4C 
 4328      65667400 
 4329 04af 09       		.byte	0x9
 4330 04b0 0B       		.byte	0xb
 4331 04b1 10       		.byte	0x10
 4332 04b2 3F040000 		.long	0x43f
 4333 04b6 02       		.byte	0x2
 4334 04b7 23       		.byte	0x23
 4335 04b8 14       		.uleb128 0x14
 4336 04b9 07       		.uleb128 0x7
 4337 04ba 5F746F70 		.ascii "_topRight\0"
 4337      52696768 
 4337      7400
 4338 04c4 09       		.byte	0x9
 4339 04c5 0C       		.byte	0xc
 4340 04c6 10       		.byte	0x10
 4341 04c7 3F040000 		.long	0x43f
 4342 04cb 02       		.byte	0x2
 4343 04cc 23       		.byte	0x23
 4344 04cd 20       		.uleb128 0x20
 4345 04ce 07       		.uleb128 0x7
 4346 04cf 5F626F74 		.ascii "_bottomRight\0"
 4346      746F6D52 
 4346      69676874 
 4346      00
 4347 04dc 09       		.byte	0x9
 4348 04dd 0D       		.byte	0xd
 4349 04de 10       		.byte	0x10
 4350 04df 3F040000 		.long	0x43f
 4351 04e3 02       		.byte	0x2
 4352 04e4 23       		.byte	0x23
 4353 04e5 2C       		.uleb128 0x2c
GAS LISTING C:\Users\jisu8\AppData\Local\Temp\cc0IqG7f.s 			page 107


 4354 04e6 07       		.uleb128 0x7
 4355 04e7 5F6D696E 		.ascii "_minX\0"
 4355      5800
 4356 04ed 09       		.byte	0x9
 4357 04ee 0E       		.byte	0xe
 4358 04ef 06       		.byte	0x6
 4359 04f0 39010000 		.long	0x139
 4360 04f4 02       		.byte	0x2
 4361 04f5 23       		.byte	0x23
 4362 04f6 38       		.uleb128 0x38
 4363 04f7 07       		.uleb128 0x7
 4364 04f8 5F6D6178 		.ascii "_maxX\0"
 4364      5800
 4365 04fe 09       		.byte	0x9
 4366 04ff 0F       		.byte	0xf
 4367 0500 06       		.byte	0x6
 4368 0501 39010000 		.long	0x139
 4369 0505 02       		.byte	0x2
 4370 0506 23       		.byte	0x23
 4371 0507 3C       		.uleb128 0x3c
 4372 0508 07       		.uleb128 0x7
 4373 0509 5F6D696E 		.ascii "_minY\0"
 4373      5900
 4374 050f 09       		.byte	0x9
 4375 0510 10       		.byte	0x10
 4376 0511 06       		.byte	0x6
 4377 0512 39010000 		.long	0x139
 4378 0516 02       		.byte	0x2
 4379 0517 23       		.byte	0x23
 4380 0518 40       		.uleb128 0x40
 4381 0519 07       		.uleb128 0x7
 4382 051a 5F6D6178 		.ascii "_maxY\0"
 4382      5900
 4383 0520 09       		.byte	0x9
 4384 0521 11       		.byte	0x11
 4385 0522 06       		.byte	0x6
 4386 0523 39010000 		.long	0x139
 4387 0527 02       		.byte	0x2
 4388 0528 23       		.byte	0x23
 4389 0529 44       		.uleb128 0x44
 4390 052a 00       		.byte	0
 4391 052b 05       		.uleb128 0x5
 4392 052c 426F756E 		.ascii "BoundingBox_val_t\0"
 4392      64696E67 
 4392      426F785F 
 4392      76616C5F 
 4392      7400
 4393 053e 09       		.byte	0x9
 4394 053f 12       		.byte	0x12
 4395 0540 02       		.byte	0x2
 4396 0541 5A040000 		.long	0x45a
 4397 0545 06       		.uleb128 0x6
 4398 0546 4C       		.byte	0x4c
 4399 0547 09       		.byte	0x9
 4400 0548 14       		.byte	0x14
 4401 0549 09       		.byte	0x9
 4402 054a 6D050000 		.long	0x56d
GAS LISTING C:\Users\jisu8\AppData\Local\Temp\cc0IqG7f.s 			page 108


 4403 054e 0A       		.uleb128 0xa
 4404 054f AD010000 		.secrel32	LASF0
 4405 0553 09       		.byte	0x9
 4406 0554 16       		.byte	0x16
 4407 0555 0A       		.byte	0xa
 4408 0556 31020000 		.long	0x231
 4409 055a 02       		.byte	0x2
 4410 055b 23       		.byte	0x23
 4411 055c 00       		.uleb128 0
 4412 055d 0A       		.uleb128 0xa
 4413 055e 3C000000 		.secrel32	LASF1
 4414 0562 09       		.byte	0x9
 4415 0563 17       		.byte	0x17
 4416 0564 14       		.byte	0x14
 4417 0565 2B050000 		.long	0x52b
 4418 0569 02       		.byte	0x2
 4419 056a 23       		.byte	0x23
 4420 056b 04       		.uleb128 0x4
 4421 056c 00       		.byte	0
 4422 056d 05       		.uleb128 0x5
 4423 056e 426F756E 		.ascii "BoundingBox_t\0"
 4423      64696E67 
 4423      426F785F 
 4423      7400
 4424 057c 09       		.byte	0x9
 4425 057d 18       		.byte	0x18
 4426 057e 02       		.byte	0x2
 4427 057f 45050000 		.long	0x545
 4428 0583 08       		.uleb128 0x8
 4429 0584 6D050000 		.long	0x56d
 4430 0588 06       		.uleb128 0x6
 4431 0589 14       		.byte	0x14
 4432 058a 0A       		.byte	0xa
 4433 058b 04       		.byte	0x4
 4434 058c 09       		.byte	0x9
 4435 058d F1050000 		.long	0x5f1
 4436 0591 07       		.uleb128 0x7
 4437 0592 5F737461 		.ascii "_startX\0"
 4437      72745800 
 4438 059a 0A       		.byte	0xa
 4439 059b 06       		.byte	0x6
 4440 059c 06       		.byte	0x6
 4441 059d 39010000 		.long	0x139
 4442 05a1 02       		.byte	0x2
 4443 05a2 23       		.byte	0x23
 4444 05a3 00       		.uleb128 0
 4445 05a4 07       		.uleb128 0x7
 4446 05a5 5F656E64 		.ascii "_endX\0"
 4446      5800
 4447 05ab 0A       		.byte	0xa
 4448 05ac 07       		.byte	0x7
 4449 05ad 06       		.byte	0x6
 4450 05ae 39010000 		.long	0x139
 4451 05b2 02       		.byte	0x2
 4452 05b3 23       		.byte	0x23
 4453 05b4 04       		.uleb128 0x4
 4454 05b5 07       		.uleb128 0x7
GAS LISTING C:\Users\jisu8\AppData\Local\Temp\cc0IqG7f.s 			page 109


 4455 05b6 5F627563 		.ascii "_bucket\0"
 4455      6B657400 
 4456 05be 0A       		.byte	0xa
 4457 05bf 08       		.byte	0x8
 4458 05c0 06       		.byte	0x6
 4459 05c1 39010000 		.long	0x139
 4460 05c5 02       		.byte	0x2
 4461 05c6 23       		.byte	0x23
 4462 05c7 08       		.uleb128 0x8
 4463 05c8 07       		.uleb128 0x7
 4464 05c9 5F76616C 		.ascii "_value\0"
 4464      756500
 4465 05d0 0A       		.byte	0xa
 4466 05d1 09       		.byte	0x9
 4467 05d2 06       		.byte	0x6
 4468 05d3 39010000 		.long	0x139
 4469 05d7 02       		.byte	0x2
 4470 05d8 23       		.byte	0x23
 4471 05d9 0C       		.uleb128 0xc
 4472 05da 07       		.uleb128 0x7
 4473 05db 5F726F77 		.ascii "_rowNumber\0"
 4473      4E756D62 
 4473      657200
 4474 05e6 0A       		.byte	0xa
 4475 05e7 0A       		.byte	0xa
 4476 05e8 06       		.byte	0x6
 4477 05e9 39010000 		.long	0x139
 4478 05ed 02       		.byte	0x2
 4479 05ee 23       		.byte	0x23
 4480 05ef 10       		.uleb128 0x10
 4481 05f0 00       		.byte	0
 4482 05f1 05       		.uleb128 0x5
 4483 05f2 436F6465 		.ascii "Codeword_val_t\0"
 4483      776F7264 
 4483      5F76616C 
 4483      5F7400
 4484 0601 0A       		.byte	0xa
 4485 0602 0B       		.byte	0xb
 4486 0603 02       		.byte	0x2
 4487 0604 88050000 		.long	0x588
 4488 0608 06       		.uleb128 0x6
 4489 0609 18       		.byte	0x18
 4490 060a 0A       		.byte	0xa
 4491 060b 0C       		.byte	0xc
 4492 060c 09       		.byte	0x9
 4493 060d 30060000 		.long	0x630
 4494 0611 0A       		.uleb128 0xa
 4495 0612 AD010000 		.secrel32	LASF0
 4496 0616 0A       		.byte	0xa
 4497 0617 0E       		.byte	0xe
 4498 0618 0A       		.byte	0xa
 4499 0619 31020000 		.long	0x231
 4500 061d 02       		.byte	0x2
 4501 061e 23       		.byte	0x23
 4502 061f 00       		.uleb128 0
 4503 0620 0A       		.uleb128 0xa
 4504 0621 3C000000 		.secrel32	LASF1
GAS LISTING C:\Users\jisu8\AppData\Local\Temp\cc0IqG7f.s 			page 110


 4505 0625 0A       		.byte	0xa
 4506 0626 0F       		.byte	0xf
 4507 0627 11       		.byte	0x11
 4508 0628 F1050000 		.long	0x5f1
 4509 062c 02       		.byte	0x2
 4510 062d 23       		.byte	0x23
 4511 062e 04       		.uleb128 0x4
 4512 062f 00       		.byte	0
 4513 0630 05       		.uleb128 0x5
 4514 0631 436F6465 		.ascii "Codeword_t\0"
 4514      776F7264 
 4514      5F7400
 4515 063c 0A       		.byte	0xa
 4516 063d 10       		.byte	0x10
 4517 063e 02       		.byte	0x2
 4518 063f 08060000 		.long	0x608
 4519 0643 06       		.uleb128 0x6
 4520 0644 10       		.byte	0x10
 4521 0645 0B       		.byte	0xb
 4522 0646 07       		.byte	0x7
 4523 0647 09       		.byte	0x9
 4524 0648 C2060000 		.long	0x6c2
 4525 064c 07       		.uleb128 0x7
 4526 064d 5F636F6C 		.ascii "_columnCount\0"
 4526      756D6E43 
 4526      6F756E74 
 4526      00
 4527 065a 0B       		.byte	0xb
 4528 065b 09       		.byte	0x9
 4529 065c 06       		.byte	0x6
 4530 065d 39010000 		.long	0x139
 4531 0661 02       		.byte	0x2
 4532 0662 23       		.byte	0x23
 4533 0663 00       		.uleb128 0
 4534 0664 07       		.uleb128 0x7
 4535 0665 5F657272 		.ascii "_errorCorrectionLevel\0"
 4535      6F72436F 
 4535      72726563 
 4535      74696F6E 
 4535      4C657665 
 4536 067b 0B       		.byte	0xb
 4537 067c 0A       		.byte	0xa
 4538 067d 06       		.byte	0x6
 4539 067e 39010000 		.long	0x139
 4540 0682 02       		.byte	0x2
 4541 0683 23       		.byte	0x23
 4542 0684 04       		.uleb128 0x4
 4543 0685 07       		.uleb128 0x7
 4544 0686 5F726F77 		.ascii "_rowCountUpperPart\0"
 4544      436F756E 
 4544      74557070 
 4544      65725061 
 4544      727400
 4545 0699 0B       		.byte	0xb
 4546 069a 0B       		.byte	0xb
 4547 069b 06       		.byte	0x6
 4548 069c 39010000 		.long	0x139
GAS LISTING C:\Users\jisu8\AppData\Local\Temp\cc0IqG7f.s 			page 111


 4549 06a0 02       		.byte	0x2
 4550 06a1 23       		.byte	0x23
 4551 06a2 08       		.uleb128 0x8
 4552 06a3 07       		.uleb128 0x7
 4553 06a4 5F726F77 		.ascii "_rowCountLowerPart\0"
 4553      436F756E 
 4553      744C6F77 
 4553      65725061 
 4553      727400
 4554 06b7 0B       		.byte	0xb
 4555 06b8 0C       		.byte	0xc
 4556 06b9 06       		.byte	0x6
 4557 06ba 39010000 		.long	0x139
 4558 06be 02       		.byte	0x2
 4559 06bf 23       		.byte	0x23
 4560 06c0 0C       		.uleb128 0xc
 4561 06c1 00       		.byte	0
 4562 06c2 05       		.uleb128 0x5
 4563 06c3 42617263 		.ascii "BarcodeMetadata_t\0"
 4563      6F64654D 
 4563      65746164 
 4563      6174615F 
 4563      7400
 4564 06d5 0B       		.byte	0xb
 4565 06d6 0D       		.byte	0xd
 4566 06d7 02       		.byte	0x2
 4567 06d8 43060000 		.long	0x643
 4568 06dc 02       		.uleb128 0x2
 4569 06dd 07       		.byte	0x7
 4570 06de 04       		.byte	0x4
 4571 06df D8000000 		.long	0xd8
 4572 06e3 0C       		.byte	0xc
 4573 06e4 09       		.byte	0x9
 4574 06e5 01       		.byte	0x1
 4575 06e6 01070000 		.long	0x701
 4576 06ea 03       		.uleb128 0x3
 4577 06eb 4E6F6E65 		.ascii "None\0"
 4577      00
 4578 06f0 00       		.byte	0
 4579 06f1 03       		.uleb128 0x3
 4580 06f2 4C656674 		.ascii "Left\0"
 4580      00
 4581 06f7 01       		.byte	0x1
 4582 06f8 03       		.uleb128 0x3
 4583 06f9 52696768 		.ascii "Right\0"
 4583      7400
 4584 06ff 02       		.byte	0x2
 4585 0700 00       		.byte	0
 4586 0701 05       		.uleb128 0x5
 4587 0702 526F7749 		.ascii "RowIndicator_t\0"
 4587      6E646963 
 4587      61746F72 
 4587      5F7400
 4588 0711 0C       		.byte	0xc
 4589 0712 0D       		.byte	0xd
 4590 0713 02       		.byte	0x2
 4591 0714 DC060000 		.long	0x6dc
GAS LISTING C:\Users\jisu8\AppData\Local\Temp\cc0IqG7f.s 			page 112


 4592 0718 0B       		.uleb128 0xb
 4593 0719 302F     		.word	0x2f30
 4594 071b 0C       		.byte	0xc
 4595 071c 0F       		.byte	0xf
 4596 071d 09       		.byte	0x9
 4597 071e 62070000 		.long	0x762
 4598 0722 0A       		.uleb128 0xa
 4599 0723 6D000000 		.secrel32	LASF2
 4600 0727 0C       		.byte	0xc
 4601 0728 11       		.byte	0x11
 4602 0729 10       		.byte	0x10
 4603 072a 6D050000 		.long	0x56d
 4604 072e 02       		.byte	0x2
 4605 072f 23       		.byte	0x23
 4606 0730 00       		.uleb128 0
 4607 0731 07       		.uleb128 0x7
 4608 0732 5F636F64 		.ascii "_codewords\0"
 4608      65776F72 
 4608      647300
 4609 073d 0C       		.byte	0xc
 4610 073e 12       		.byte	0x12
 4611 073f 0D       		.byte	0xd
 4612 0740 62070000 		.long	0x762
 4613 0744 02       		.byte	0x2
 4614 0745 23       		.byte	0x23
 4615 0746 4C       		.uleb128 0x4c
 4616 0747 07       		.uleb128 0x7
 4617 0748 5F726F77 		.ascii "_rowIndicator\0"
 4617      496E6469 
 4617      6361746F 
 4617      7200
 4618 0756 0C       		.byte	0xc
 4619 0757 13       		.byte	0x13
 4620 0758 11       		.byte	0x11
 4621 0759 01070000 		.long	0x701
 4622 075d 03       		.byte	0x3
 4623 075e 23       		.byte	0x23
 4624 075f AC5E     		.uleb128 0x2f2c
 4625 0761 00       		.byte	0
 4626 0762 0C       		.uleb128 0xc
 4627 0763 30060000 		.long	0x630
 4628 0767 73070000 		.long	0x773
 4629 076b 0D       		.uleb128 0xd
 4630 076c D8000000 		.long	0xd8
 4631 0770 F301     		.word	0x1f3
 4632 0772 00       		.byte	0
 4633 0773 05       		.uleb128 0x5
 4634 0774 44657465 		.ascii "DetectionResultColumn_val_t\0"
 4634      6374696F 
 4634      6E526573 
 4634      756C7443 
 4634      6F6C756D 
 4635 0790 0C       		.byte	0xc
 4636 0791 14       		.byte	0x14
 4637 0792 02       		.byte	0x2
 4638 0793 18070000 		.long	0x718
 4639 0797 0B       		.uleb128 0xb
GAS LISTING C:\Users\jisu8\AppData\Local\Temp\cc0IqG7f.s 			page 113


 4640 0798 342F     		.word	0x2f34
 4641 079a 0C       		.byte	0xc
 4642 079b 15       		.byte	0x15
 4643 079c 09       		.byte	0x9
 4644 079d C0070000 		.long	0x7c0
 4645 07a1 0A       		.uleb128 0xa
 4646 07a2 AD010000 		.secrel32	LASF0
 4647 07a6 0C       		.byte	0xc
 4648 07a7 17       		.byte	0x17
 4649 07a8 0A       		.byte	0xa
 4650 07a9 31020000 		.long	0x231
 4651 07ad 02       		.byte	0x2
 4652 07ae 23       		.byte	0x23
 4653 07af 00       		.uleb128 0
 4654 07b0 0A       		.uleb128 0xa
 4655 07b1 3C000000 		.secrel32	LASF1
 4656 07b5 0C       		.byte	0xc
 4657 07b6 18       		.byte	0x18
 4658 07b7 1E       		.byte	0x1e
 4659 07b8 73070000 		.long	0x773
 4660 07bc 02       		.byte	0x2
 4661 07bd 23       		.byte	0x23
 4662 07be 04       		.uleb128 0x4
 4663 07bf 00       		.byte	0
 4664 07c0 05       		.uleb128 0x5
 4665 07c1 44657465 		.ascii "DetectionResultColumn_t\0"
 4665      6374696F 
 4665      6E526573 
 4665      756C7443 
 4665      6F6C756D 
 4666 07d9 0C       		.byte	0xc
 4667 07da 19       		.byte	0x19
 4668 07db 02       		.byte	0x2
 4669 07dc 97070000 		.long	0x797
 4670 07e0 0E       		.uleb128 0xe
 4671 07e1 42415243 		.ascii "BARCODE_ROW_UNKNOWN\0"
 4671      4F44455F 
 4671      524F575F 
 4671      554E4B4E 
 4671      4F574E00 
 4672 07f5 0E       		.byte	0xe
 4673 07f6 09       		.byte	0x9
 4674 07f7 12       		.byte	0x12
 4675 07f8 40010000 		.long	0x140
 4676 07fc 01       		.byte	0x1
 4677 07fd 01       		.byte	0x1
 4678 07fe 0F       		.uleb128 0xf
 4679 07ff 37010000 		.secrel32	LASF3
 4680 0803 0E       		.byte	0xe
 4681 0804 0F       		.byte	0xf
 4682 0805 20       		.byte	0x20
 4683 0806 C0070000 		.long	0x7c0
 4684 080a 01       		.byte	0x1
 4685 080b 01       		.byte	0x1
 4686 080c 10       		.uleb128 0x10
 4687 080d AC701200 		.long	0x1270ac
 4688 0811 0D       		.byte	0xd
GAS LISTING C:\Users\jisu8\AppData\Local\Temp\cc0IqG7f.s 			page 114


 4689 0812 08       		.byte	0x8
 4690 0813 09       		.byte	0x9
 4691 0814 69080000 		.long	0x869
 4692 0818 07       		.uleb128 0x7
 4693 0819 5F626172 		.ascii "_barcodeMetadata\0"
 4693      636F6465 
 4693      4D657461 
 4693      64617461 
 4693      00
 4694 082a 0D       		.byte	0xd
 4695 082b 0A       		.byte	0xa
 4696 082c 14       		.byte	0x14
 4697 082d C2060000 		.long	0x6c2
 4698 0831 02       		.byte	0x2
 4699 0832 23       		.byte	0x23
 4700 0833 00       		.uleb128 0
 4701 0834 07       		.uleb128 0x7
 4702 0835 5F646574 		.ascii "_detectionResultColumns\0"
 4702      65637469 
 4702      6F6E5265 
 4702      73756C74 
 4702      436F6C75 
 4703 084d 0D       		.byte	0xd
 4704 084e 0B       		.byte	0xb
 4705 084f 1A       		.byte	0x1a
 4706 0850 69080000 		.long	0x869
 4707 0854 02       		.byte	0x2
 4708 0855 23       		.byte	0x23
 4709 0856 10       		.uleb128 0x10
 4710 0857 0A       		.uleb128 0xa
 4711 0858 6D000000 		.secrel32	LASF2
 4712 085c 0D       		.byte	0xd
 4713 085d 0C       		.byte	0xc
 4714 085e 10       		.byte	0x10
 4715 085f 6D050000 		.long	0x56d
 4716 0863 04       		.byte	0x4
 4717 0864 23       		.byte	0x23
 4718 0865 E0E049   		.uleb128 0x127060
 4719 0868 00       		.byte	0
 4720 0869 0C       		.uleb128 0xc
 4721 086a C0070000 		.long	0x7c0
 4722 086e 79080000 		.long	0x879
 4723 0872 11       		.uleb128 0x11
 4724 0873 D8000000 		.long	0xd8
 4725 0877 63       		.byte	0x63
 4726 0878 00       		.byte	0
 4727 0879 05       		.uleb128 0x5
 4728 087a 44657465 		.ascii "DetectionResult_t\0"
 4728      6374696F 
 4728      6E526573 
 4728      756C745F 
 4728      7400
 4729 088c 0D       		.byte	0xd
 4730 088d 0D       		.byte	0xd
 4731 088e 02       		.byte	0x2
 4732 088f 0C080000 		.long	0x80c
 4733 0893 08       		.uleb128 0x8
GAS LISTING C:\Users\jisu8\AppData\Local\Temp\cc0IqG7f.s 			page 115


 4734 0894 79080000 		.long	0x879
 4735 0898 0E       		.uleb128 0xe
 4736 0899 4D4F4455 		.ascii "MODULES_IN_CODEWORD\0"
 4736      4C45535F 
 4736      494E5F43 
 4736      4F444557 
 4736      4F524400 
 4737 08ad 0F       		.byte	0xf
 4738 08ae 1D       		.byte	0x1d
 4739 08af 12       		.byte	0x12
 4740 08b0 40010000 		.long	0x140
 4741 08b4 01       		.byte	0x1
 4742 08b5 01       		.byte	0x1
 4743 08b6 0E       		.uleb128 0xe
 4744 08b7 42415253 		.ascii "BARS_IN_MODULE\0"
 4744      5F494E5F 
 4744      4D4F4455 
 4744      4C4500
 4745 08c6 0F       		.byte	0xf
 4746 08c7 1E       		.byte	0x1e
 4747 08c8 12       		.byte	0x12
 4748 08c9 40010000 		.long	0x140
 4749 08cd 01       		.byte	0x1
 4750 08ce 01       		.byte	0x1
 4751 08cf 0E       		.uleb128 0xe
 4752 08d0 4D41585F 		.ascii "MAX_CODEWORDS_IN_BARCODE\0"
 4752      434F4445 
 4752      574F5244 
 4752      535F494E 
 4752      5F424152 
 4753 08e9 0F       		.byte	0xf
 4754 08ea 1F       		.byte	0x1f
 4755 08eb 12       		.byte	0x12
 4756 08ec 40010000 		.long	0x140
 4757 08f0 01       		.byte	0x1
 4758 08f1 01       		.byte	0x1
 4759 08f2 0B       		.uleb128 0xb
 4760 08f3 A00F     		.word	0xfa0
 4761 08f5 10       		.byte	0x10
 4762 08f6 04       		.byte	0x4
 4763 08f7 09       		.byte	0x9
 4764 08f8 10090000 		.long	0x910
 4765 08fc 07       		.uleb128 0x7
 4766 08fd 5F76616C 		.ascii "_values\0"
 4766      75657300 
 4767 0905 10       		.byte	0x10
 4768 0906 06       		.byte	0x6
 4769 0907 06       		.byte	0x6
 4770 0908 10090000 		.long	0x910
 4771 090c 02       		.byte	0x2
 4772 090d 23       		.byte	0x23
 4773 090e 00       		.uleb128 0
 4774 090f 00       		.byte	0
 4775 0910 0C       		.uleb128 0xc
 4776 0911 39010000 		.long	0x139
 4777 0915 21090000 		.long	0x921
 4778 0919 0D       		.uleb128 0xd
GAS LISTING C:\Users\jisu8\AppData\Local\Temp\cc0IqG7f.s 			page 116


 4779 091a D8000000 		.long	0xd8
 4780 091e E703     		.word	0x3e7
 4781 0920 00       		.byte	0
 4782 0921 05       		.uleb128 0x5
 4783 0922 42617263 		.ascii "BarcodeValue_t\0"
 4783      6F646556 
 4783      616C7565 
 4783      5F7400
 4784 0931 10       		.byte	0x10
 4785 0932 07       		.byte	0x7
 4786 0933 02       		.byte	0x2
 4787 0934 F2080000 		.long	0x8f2
 4788 0938 04       		.uleb128 0x4
 4789 0939 08       		.byte	0x8
 4790 093a 04       		.byte	0x4
 4791 093b 646F7562 		.ascii "double\0"
 4791      6C6500
 4792 0942 0E       		.uleb128 0xe
 4793 0943 5F696D70 		.ascii "_imp____mb_cur_max\0"
 4793      5F5F5F5F 
 4793      6D625F63 
 4793      75725F6D 
 4793      617800
 4794 0956 11       		.byte	0x11
 4795 0957 73       		.byte	0x73
 4796 0958 10       		.byte	0x10
 4797 0959 CF010000 		.long	0x1cf
 4798 095d 01       		.byte	0x1
 4799 095e 01       		.byte	0x1
 4800 095f 0C       		.uleb128 0xc
 4801 0960 45010000 		.long	0x145
 4802 0964 6F090000 		.long	0x96f
 4803 0968 11       		.uleb128 0x11
 4804 0969 D8000000 		.long	0xd8
 4805 096d 00       		.byte	0
 4806 096e 00       		.byte	0
 4807 096f 0E       		.uleb128 0xe
 4808 0970 5F737973 		.ascii "_sys_errlist\0"
 4808      5F657272 
 4808      6C697374 
 4808      00
 4809 097d 11       		.byte	0x11
 4810 097e AC       		.byte	0xac
 4811 097f 26       		.byte	0x26
 4812 0980 5F090000 		.long	0x95f
 4813 0984 01       		.byte	0x1
 4814 0985 01       		.byte	0x1
 4815 0986 0E       		.uleb128 0xe
 4816 0987 5F737973 		.ascii "_sys_nerr\0"
 4816      5F6E6572 
 4816      7200
 4817 0991 11       		.byte	0x11
 4818 0992 AD       		.byte	0xad
 4819 0993 24       		.byte	0x24
 4820 0994 39010000 		.long	0x139
 4821 0998 01       		.byte	0x1
 4822 0999 01       		.byte	0x1
GAS LISTING C:\Users\jisu8\AppData\Local\Temp\cc0IqG7f.s 			page 117


 4823 099a 12       		.uleb128 0x12
 4824 099b 5F696D70 		.ascii "_imp____argc\0"
 4824      5F5F5F5F 
 4824      61726763 
 4824      00
 4825 09a8 11       		.byte	0x11
 4826 09a9 1901     		.word	0x119
 4827 09ab 10       		.byte	0x10
 4828 09ac CF010000 		.long	0x1cf
 4829 09b0 01       		.byte	0x1
 4830 09b1 01       		.byte	0x1
 4831 09b2 12       		.uleb128 0x12
 4832 09b3 5F696D70 		.ascii "_imp____argv\0"
 4832      5F5F5F5F 
 4832      61726776 
 4832      00
 4833 09c0 11       		.byte	0x11
 4834 09c1 1D01     		.word	0x11d
 4835 09c3 13       		.byte	0x13
 4836 09c4 CA090000 		.long	0x9ca
 4837 09c8 01       		.byte	0x1
 4838 09c9 01       		.byte	0x1
 4839 09ca 09       		.uleb128 0x9
 4840 09cb 04       		.byte	0x4
 4841 09cc D0090000 		.long	0x9d0
 4842 09d0 09       		.uleb128 0x9
 4843 09d1 04       		.byte	0x4
 4844 09d2 45010000 		.long	0x145
 4845 09d6 12       		.uleb128 0x12
 4846 09d7 5F696D70 		.ascii "_imp____wargv\0"
 4846      5F5F5F5F 
 4846      77617267 
 4846      7600
 4847 09e5 11       		.byte	0x11
 4848 09e6 2101     		.word	0x121
 4849 09e8 16       		.byte	0x16
 4850 09e9 EF090000 		.long	0x9ef
 4851 09ed 01       		.byte	0x1
 4852 09ee 01       		.byte	0x1
 4853 09ef 09       		.uleb128 0x9
 4854 09f0 04       		.byte	0x4
 4855 09f1 F5090000 		.long	0x9f5
 4856 09f5 09       		.uleb128 0x9
 4857 09f6 04       		.byte	0x4
 4858 09f7 C9010000 		.long	0x1c9
 4859 09fb 12       		.uleb128 0x12
 4860 09fc 5F696D70 		.ascii "_imp___environ\0"
 4860      5F5F5F65 
 4860      6E766972 
 4860      6F6E00
 4861 0a0b 11       		.byte	0x11
 4862 0a0c 2701     		.word	0x127
 4863 0a0e 13       		.byte	0x13
 4864 0a0f CA090000 		.long	0x9ca
 4865 0a13 01       		.byte	0x1
 4866 0a14 01       		.byte	0x1
 4867 0a15 12       		.uleb128 0x12
GAS LISTING C:\Users\jisu8\AppData\Local\Temp\cc0IqG7f.s 			page 118


 4868 0a16 5F696D70 		.ascii "_imp___wenviron\0"
 4868      5F5F5F77 
 4868      656E7669 
 4868      726F6E00 
 4869 0a26 11       		.byte	0x11
 4870 0a27 2C01     		.word	0x12c
 4871 0a29 16       		.byte	0x16
 4872 0a2a EF090000 		.long	0x9ef
 4873 0a2e 01       		.byte	0x1
 4874 0a2f 01       		.byte	0x1
 4875 0a30 12       		.uleb128 0x12
 4876 0a31 5F696D70 		.ascii "_imp___pgmptr\0"
 4876      5F5F5F70 
 4876      676D7074 
 4876      7200
 4877 0a3f 11       		.byte	0x11
 4878 0a40 3201     		.word	0x132
 4879 0a42 12       		.byte	0x12
 4880 0a43 D0090000 		.long	0x9d0
 4881 0a47 01       		.byte	0x1
 4882 0a48 01       		.byte	0x1
 4883 0a49 12       		.uleb128 0x12
 4884 0a4a 5F696D70 		.ascii "_imp___wpgmptr\0"
 4884      5F5F5F77 
 4884      70676D70 
 4884      747200
 4885 0a59 11       		.byte	0x11
 4886 0a5a 3701     		.word	0x137
 4887 0a5c 15       		.byte	0x15
 4888 0a5d F5090000 		.long	0x9f5
 4889 0a61 01       		.byte	0x1
 4890 0a62 01       		.byte	0x1
 4891 0a63 12       		.uleb128 0x12
 4892 0a64 5F696D70 		.ascii "_imp___osplatform\0"
 4892      5F5F5F6F 
 4892      73706C61 
 4892      74666F72 
 4892      6D00
 4893 0a76 11       		.byte	0x11
 4894 0a77 3C01     		.word	0x13c
 4895 0a79 19       		.byte	0x19
 4896 0a7a 800A0000 		.long	0xa80
 4897 0a7e 01       		.byte	0x1
 4898 0a7f 01       		.byte	0x1
 4899 0a80 09       		.uleb128 0x9
 4900 0a81 04       		.byte	0x4
 4901 0a82 D8000000 		.long	0xd8
 4902 0a86 12       		.uleb128 0x12
 4903 0a87 5F696D70 		.ascii "_imp___osver\0"
 4903      5F5F5F6F 
 4903      73766572 
 4903      00
 4904 0a94 11       		.byte	0x11
 4905 0a95 4101     		.word	0x141
 4906 0a97 19       		.byte	0x19
 4907 0a98 800A0000 		.long	0xa80
 4908 0a9c 01       		.byte	0x1
GAS LISTING C:\Users\jisu8\AppData\Local\Temp\cc0IqG7f.s 			page 119


 4909 0a9d 01       		.byte	0x1
 4910 0a9e 12       		.uleb128 0x12
 4911 0a9f 5F696D70 		.ascii "_imp___winver\0"
 4911      5F5F5F77 
 4911      696E7665 
 4911      7200
 4912 0aad 11       		.byte	0x11
 4913 0aae 4601     		.word	0x146
 4914 0ab0 19       		.byte	0x19
 4915 0ab1 800A0000 		.long	0xa80
 4916 0ab5 01       		.byte	0x1
 4917 0ab6 01       		.byte	0x1
 4918 0ab7 12       		.uleb128 0x12
 4919 0ab8 5F696D70 		.ascii "_imp___winmajor\0"
 4919      5F5F5F77 
 4919      696E6D61 
 4919      6A6F7200 
 4920 0ac8 11       		.byte	0x11
 4921 0ac9 4B01     		.word	0x14b
 4922 0acb 19       		.byte	0x19
 4923 0acc 800A0000 		.long	0xa80
 4924 0ad0 01       		.byte	0x1
 4925 0ad1 01       		.byte	0x1
 4926 0ad2 12       		.uleb128 0x12
 4927 0ad3 5F696D70 		.ascii "_imp___winminor\0"
 4927      5F5F5F77 
 4927      696E6D69 
 4927      6E6F7200 
 4928 0ae3 11       		.byte	0x11
 4929 0ae4 5001     		.word	0x150
 4930 0ae6 19       		.byte	0x19
 4931 0ae7 800A0000 		.long	0xa80
 4932 0aeb 01       		.byte	0x1
 4933 0aec 01       		.byte	0x1
 4934 0aed 0E       		.uleb128 0xe
 4935 0aee 5F616D62 		.ascii "_amblksiz\0"
 4935      6C6B7369 
 4935      7A00
 4936 0af8 12       		.byte	0x12
 4937 0af9 35       		.byte	0x35
 4938 0afa 17       		.byte	0x17
 4939 0afb D8000000 		.long	0xd8
 4940 0aff 01       		.byte	0x1
 4941 0b00 01       		.byte	0x1
 4942 0b01 13       		.uleb128 0x13
 4943 0b02 434F4445 		.ascii "CODEWORD_SKEW_SIZE\0"
 4943      574F5244 
 4943      5F534B45 
 4943      575F5349 
 4943      5A4500
 4944 0b15 01       		.byte	0x1
 4945 0b16 0E       		.byte	0xe
 4946 0b17 12       		.byte	0x12
 4947 0b18 40010000 		.long	0x140
 4948 0b1c 05       		.byte	0x5
 4949 0b1d 03       		.byte	0x3
 4950 0b1e 00000000 		.long	_CODEWORD_SKEW_SIZE
GAS LISTING C:\Users\jisu8\AppData\Local\Temp\cc0IqG7f.s 			page 120


 4951 0b22 13       		.uleb128 0x13
 4952 0b23 4D41585F 		.ascii "MAX_ERRORS\0"
 4952      4552524F 
 4952      525300
 4953 0b2e 01       		.byte	0x1
 4954 0b2f 0F       		.byte	0xf
 4955 0b30 12       		.byte	0x12
 4956 0b31 40010000 		.long	0x140
 4957 0b35 05       		.byte	0x5
 4958 0b36 03       		.byte	0x3
 4959 0b37 04000000 		.long	_MAX_ERRORS
 4960 0b3b 13       		.uleb128 0x13
 4961 0b3c 4D41585F 		.ascii "MAX_EC_CODEWORDS\0"
 4961      45435F43 
 4961      4F444557 
 4961      4F524453 
 4961      00
 4962 0b4d 01       		.byte	0x1
 4963 0b4e 10       		.byte	0x10
 4964 0b4f 12       		.byte	0x12
 4965 0b50 40010000 		.long	0x140
 4966 0b54 05       		.byte	0x5
 4967 0b55 03       		.byte	0x3
 4968 0b56 08000000 		.long	_MAX_EC_CODEWORDS
 4969 0b5a 14       		.uleb128 0x14
 4970 0b5b E0070000 		.long	0x7e0
 4971 0b5f 01       		.byte	0x1
 4972 0b60 11       		.byte	0x11
 4973 0b61 0B       		.byte	0xb
 4974 0b62 05       		.byte	0x5
 4975 0b63 03       		.byte	0x3
 4976 0b64 0C000000 		.long	_BARCODE_ROW_UNKNOWN
 4977 0b68 0C       		.uleb128 0xc
 4978 0b69 39010000 		.long	0x139
 4979 0b6d 780B0000 		.long	0xb78
 4980 0b71 11       		.uleb128 0x11
 4981 0b72 D8000000 		.long	0xd8
 4982 0b76 07       		.byte	0x7
 4983 0b77 00       		.byte	0
 4984 0b78 15       		.uleb128 0x15
 4985 0b79 72657375 		.ascii "result_bits\0"
 4985      6C745F62 
 4985      69747300 
 4986 0b85 01       		.byte	0x1
 4987 0b86 13       		.byte	0x13
 4988 0b87 05       		.byte	0x5
 4989 0b88 680B0000 		.long	0xb68
 4990 0b8c 01       		.byte	0x1
 4991 0b8d 05       		.byte	0x5
 4992 0b8e 03       		.byte	0x3
 4993 0b8f 00000000 		.long	_result_bits
 4994 0b93 15       		.uleb128 0x15
 4995 0b94 436F6465 		.ascii "CodeWord\0"
 4995      576F7264 
 4995      00
 4996 0b9d 01       		.byte	0x1
 4997 0b9e 15       		.byte	0x15
GAS LISTING C:\Users\jisu8\AppData\Local\Temp\cc0IqG7f.s 			page 121


 4998 0b9f 0C       		.byte	0xc
 4999 0ba0 30060000 		.long	0x630
 5000 0ba4 01       		.byte	0x1
 5001 0ba5 05       		.byte	0x5
 5002 0ba6 03       		.byte	0x3
 5003 0ba7 00000000 		.long	_CodeWord
 5004 0bab 14       		.uleb128 0x14
 5005 0bac FE070000 		.long	0x7fe
 5006 0bb0 01       		.byte	0x1
 5007 0bb1 16       		.byte	0x16
 5008 0bb2 19       		.byte	0x19
 5009 0bb3 05       		.byte	0x5
 5010 0bb4 03       		.byte	0x3
 5011 0bb5 00000000 		.long	_rowIndicatorColumn
 5012 0bb9 16       		.uleb128 0x16
 5013 0bba 01       		.byte	0x1
 5014 0bbb 4465636F 		.ascii "Decode\0"
 5014      646500
 5015 0bc2 01       		.byte	0x1
 5016 0bc3 CA03     		.word	0x3ca
 5017 0bc5 11       		.byte	0x11
 5018 0bc6 01       		.byte	0x1
 5019 0bc7 55030000 		.long	0x355
 5020 0bcb 0D1A0000 		.long	LFB35
 5021 0bcf 2A1F0000 		.long	LFE35
 5022 0bd3 00000000 		.secrel32	LLST30
 5023 0bd7 01       		.byte	0x1
 5024 0bd8 FF0D0000 		.long	0xdff
 5025 0bdc 17       		.uleb128 0x17
 5026 0bdd 88000000 		.secrel32	LASF4
 5027 0be1 01       		.byte	0x1
 5028 0be2 CA03     		.word	0x3ca
 5029 0be4 2C       		.byte	0x2c
 5030 0be5 FF0D0000 		.long	0xdff
 5031 0be9 02       		.byte	0x2
 5032 0bea 91       		.byte	0x91
 5033 0beb 04       		.sleb128 4
 5034 0bec 18       		.uleb128 0x18
 5035 0bed 696D6167 		.ascii "imageTopLeft\0"
 5035      65546F70 
 5035      4C656674 
 5035      00
 5036 0bfa 01       		.byte	0x1
 5037 0bfb CA03     		.word	0x3ca
 5038 0bfd 41       		.byte	0x41
 5039 0bfe 3F040000 		.long	0x43f
 5040 0c02 02       		.byte	0x2
 5041 0c03 91       		.byte	0x91
 5042 0c04 08       		.sleb128 8
 5043 0c05 18       		.uleb128 0x18
 5044 0c06 696D6167 		.ascii "imageBottomLeft\0"
 5044      65426F74 
 5044      746F6D4C 
 5044      65667400 
 5045 0c16 01       		.byte	0x1
 5046 0c17 CA03     		.word	0x3ca
 5047 0c19 5D       		.byte	0x5d
GAS LISTING C:\Users\jisu8\AppData\Local\Temp\cc0IqG7f.s 			page 122


 5048 0c1a 3F040000 		.long	0x43f
 5049 0c1e 02       		.byte	0x2
 5050 0c1f 91       		.byte	0x91
 5051 0c20 14       		.sleb128 20
 5052 0c21 18       		.uleb128 0x18
 5053 0c22 696D6167 		.ascii "imageTopRight\0"
 5053      65546F70 
 5053      52696768 
 5053      7400
 5054 0c30 01       		.byte	0x1
 5055 0c31 CB03     		.word	0x3cb
 5056 0c33 10       		.byte	0x10
 5057 0c34 3F040000 		.long	0x43f
 5058 0c38 02       		.byte	0x2
 5059 0c39 91       		.byte	0x91
 5060 0c3a 20       		.sleb128 32
 5061 0c3b 18       		.uleb128 0x18
 5062 0c3c 696D6167 		.ascii "imageBottomRight\0"
 5062      65426F74 
 5062      746F6D52 
 5062      69676874 
 5062      00
 5063 0c4d 01       		.byte	0x1
 5064 0c4e CB03     		.word	0x3cb
 5065 0c50 2D       		.byte	0x2d
 5066 0c51 3F040000 		.long	0x43f
 5067 0c55 02       		.byte	0x2
 5068 0c56 91       		.byte	0x91
 5069 0c57 2C       		.sleb128 44
 5070 0c58 17       		.uleb128 0x17
 5071 0c59 EC000000 		.secrel32	LASF5
 5072 0c5d 01       		.byte	0x1
 5073 0c5e CC03     		.word	0x3cc
 5074 0c60 06       		.byte	0x6
 5075 0c61 39010000 		.long	0x139
 5076 0c65 02       		.byte	0x2
 5077 0c66 91       		.byte	0x91
 5078 0c67 38       		.sleb128 56
 5079 0c68 17       		.uleb128 0x17
 5080 0c69 21000000 		.secrel32	LASF6
 5081 0c6d 01       		.byte	0x1
 5082 0c6e CC03     		.word	0x3cc
 5083 0c70 1C       		.byte	0x1c
 5084 0c71 39010000 		.long	0x139
 5085 0c75 02       		.byte	0x2
 5086 0c76 91       		.byte	0x91
 5087 0c77 3C       		.sleb128 60
 5088 0c78 17       		.uleb128 0x17
 5089 0c79 73010000 		.secrel32	LASF7
 5090 0c7d 01       		.byte	0x1
 5091 0c7e CC03     		.word	0x3cc
 5092 0c80 44       		.byte	0x44
 5093 0c81 EA010000 		.long	0x1ea
 5094 0c85 03       		.byte	0x3
 5095 0c86 91       		.byte	0x91
 5096 0c87 C000     		.sleb128 64
 5097 0c89 19       		.uleb128 0x19
GAS LISTING C:\Users\jisu8\AppData\Local\Temp\cc0IqG7f.s 			page 123


 5098 0c8a 2A010000 		.secrel32	LASF8
 5099 0c8e 01       		.byte	0x1
 5100 0c8f CE03     		.word	0x3ce
 5101 0c91 12       		.byte	0x12
 5102 0c92 55030000 		.long	0x355
 5103 0c96 03       		.byte	0x3
 5104 0c97 91       		.byte	0x91
 5105 0c98 847F     		.sleb128 -124
 5106 0c9a 19       		.uleb128 0x19
 5107 0c9b D0000000 		.secrel32	LASF9
 5108 0c9f 01       		.byte	0x1
 5109 0ca0 D003     		.word	0x3d0
 5110 0ca2 10       		.byte	0x10
 5111 0ca3 6D050000 		.long	0x56d
 5112 0ca7 03       		.byte	0x3
 5113 0ca8 91       		.byte	0x91
 5114 0ca9 B87E     		.sleb128 -200
 5115 0cab 19       		.uleb128 0x19
 5116 0cac 9C010000 		.secrel32	LASF10
 5117 0cb0 01       		.byte	0x1
 5118 0cb1 D603     		.word	0x3d6
 5119 0cb3 06       		.byte	0x6
 5120 0cb4 39010000 		.long	0x139
 5121 0cb8 02       		.byte	0x2
 5122 0cb9 91       		.byte	0x91
 5123 0cba 5C       		.sleb128 -36
 5124 0cbb 19       		.uleb128 0x19
 5125 0cbc AF000000 		.secrel32	LASF11
 5126 0cc0 01       		.byte	0x1
 5127 0cc1 D803     		.word	0x3d8
 5128 0cc3 1A       		.byte	0x1a
 5129 0cc4 C0070000 		.long	0x7c0
 5130 0cc8 04       		.byte	0x4
 5131 0cc9 91       		.byte	0x91
 5132 0cca 84A07F   		.sleb128 -12284
 5133 0ccd 19       		.uleb128 0x19
 5134 0cce 00000000 		.secrel32	LASF12
 5135 0cd2 01       		.byte	0x1
 5136 0cd3 D903     		.word	0x3d9
 5137 0cd5 1A       		.byte	0x1a
 5138 0cd6 C0070000 		.long	0x7c0
 5139 0cda 04       		.byte	0x4
 5140 0cdb 91       		.byte	0x91
 5141 0cdc D0C17E   		.sleb128 -24368
 5142 0cdf 19       		.uleb128 0x19
 5143 0ce0 DC000000 		.secrel32	LASF13
 5144 0ce4 01       		.byte	0x1
 5145 0ce5 DA03     		.word	0x3da
 5146 0ce7 14       		.byte	0x14
 5147 0ce8 79080000 		.long	0x879
 5148 0cec 05       		.byte	0x5
 5149 0ced 91       		.byte	0x91
 5150 0cee A4E0B47F 		.sleb128 -1232860
 5151 0cf2 1A       		.uleb128 0x1a
 5152 0cf3 6D617842 		.ascii "maxBarcodeColumn\0"
 5152      6172636F 
 5152      6465436F 
GAS LISTING C:\Users\jisu8\AppData\Local\Temp\cc0IqG7f.s 			page 124


 5152      6C756D6E 
 5152      00
 5153 0d04 01       		.byte	0x1
 5154 0d05 F503     		.word	0x3f5
 5155 0d07 06       		.byte	0x6
 5156 0d08 39010000 		.long	0x139
 5157 0d0c 02       		.byte	0x2
 5158 0d0d 91       		.byte	0x91
 5159 0d0e 40       		.sleb128 -64
 5160 0d0f 19       		.uleb128 0x19
 5161 0d10 67010000 		.secrel32	LASF14
 5162 0d14 01       		.byte	0x1
 5163 0d15 F903     		.word	0x3f9
 5164 0d17 0A       		.byte	0xa
 5165 0d18 31020000 		.long	0x231
 5166 0d1c 02       		.byte	0x2
 5167 0d1d 91       		.byte	0x91
 5168 0d1e 57       		.sleb128 -41
 5169 0d1f 1B       		.uleb128 0x1b
 5170 0d20 001B0000 		.long	LBB26
 5171 0d24 881C0000 		.long	LBE26
 5172 0d28 3B0D0000 		.long	0xd3b
 5173 0d2c 1A       		.uleb128 0x1a
 5174 0d2d 6900     		.ascii "i\0"
 5175 0d2f 01       		.byte	0x1
 5176 0d30 DB03     		.word	0x3db
 5177 0d32 0B       		.byte	0xb
 5178 0d33 39010000 		.long	0x139
 5179 0d37 02       		.byte	0x2
 5180 0d38 91       		.byte	0x91
 5181 0d39 58       		.sleb128 -40
 5182 0d3a 00       		.byte	0
 5183 0d3b 1C       		.uleb128 0x1c
 5184 0d3c FA1C0000 		.long	LBB27
 5185 0d40 F91E0000 		.long	LBE27
 5186 0d44 1A       		.uleb128 0x1a
 5187 0d45 62617263 		.ascii "barcodeColumnCount\0"
 5187      6F646543 
 5187      6F6C756D 
 5187      6E436F75 
 5187      6E7400
 5188 0d58 01       		.byte	0x1
 5189 0d59 0404     		.word	0x404
 5190 0d5b 0B       		.byte	0xb
 5191 0d5c 39010000 		.long	0x139
 5192 0d60 02       		.byte	0x2
 5193 0d61 91       		.byte	0x91
 5194 0d62 50       		.sleb128 -48
 5195 0d63 1C       		.uleb128 0x1c
 5196 0d64 061D0000 		.long	LBB28
 5197 0d68 E91E0000 		.long	LBE28
 5198 0d6c 19       		.uleb128 0x19
 5199 0d6d 7A000000 		.secrel32	LASF15
 5200 0d71 01       		.byte	0x1
 5201 0d72 0604     		.word	0x406
 5202 0d74 07       		.byte	0x7
 5203 0d75 39010000 		.long	0x139
GAS LISTING C:\Users\jisu8\AppData\Local\Temp\cc0IqG7f.s 			page 125


 5204 0d79 03       		.byte	0x3
 5205 0d7a 91       		.byte	0x91
 5206 0d7b BC7F     		.sleb128 -68
 5207 0d7d 1A       		.uleb128 0x1a
 5208 0d7e 726F7749 		.ascii "rowIndicator\0"
 5208      6E646963 
 5208      61746F72 
 5208      00
 5209 0d8b 01       		.byte	0x1
 5210 0d8c 0C04     		.word	0x40c
 5211 0d8e 12       		.byte	0x12
 5212 0d8f 01070000 		.long	0x701
 5213 0d93 03       		.byte	0x3
 5214 0d94 91       		.byte	0x91
 5215 0d95 B87F     		.sleb128 -72
 5216 0d97 19       		.uleb128 0x19
 5217 0d98 44000000 		.secrel32	LASF16
 5218 0d9c 01       		.byte	0x1
 5219 0d9d 0E04     		.word	0x40e
 5220 0d9f 07       		.byte	0x7
 5221 0da0 39010000 		.long	0x139
 5222 0da4 02       		.byte	0x2
 5223 0da5 91       		.byte	0x91
 5224 0da6 4C       		.sleb128 -52
 5225 0da7 1A       		.uleb128 0x1a
 5226 0da8 70726576 		.ascii "previousStartColumn\0"
 5226      696F7573 
 5226      53746172 
 5226      74436F6C 
 5226      756D6E00 
 5227 0dbc 01       		.byte	0x1
 5228 0dbd 0F04     		.word	0x40f
 5229 0dbf 07       		.byte	0x7
 5230 0dc0 39010000 		.long	0x139
 5231 0dc4 02       		.byte	0x2
 5232 0dc5 91       		.byte	0x91
 5233 0dc6 48       		.sleb128 -56
 5234 0dc7 1C       		.uleb128 0x1c
 5235 0dc8 961D0000 		.long	LBB29
 5236 0dcc E81E0000 		.long	LBE29
 5237 0dd0 19       		.uleb128 0x19
 5238 0dd1 97000000 		.secrel32	LASF17
 5239 0dd5 01       		.byte	0x1
 5240 0dd6 1104     		.word	0x411
 5241 0dd8 0C       		.byte	0xc
 5242 0dd9 39010000 		.long	0x139
 5243 0ddd 02       		.byte	0x2
 5244 0dde 91       		.byte	0x91
 5245 0ddf 44       		.sleb128 -60
 5246 0de0 1C       		.uleb128 0x1c
 5247 0de1 A11D0000 		.long	LBB30
 5248 0de5 D61E0000 		.long	LBE30
 5249 0de9 19       		.uleb128 0x19
 5250 0dea 8E000000 		.secrel32	LASF18
 5251 0dee 01       		.byte	0x1
 5252 0def 1C04     		.word	0x41c
 5253 0df1 11       		.byte	0x11
GAS LISTING C:\Users\jisu8\AppData\Local\Temp\cc0IqG7f.s 			page 126


 5254 0df2 050E0000 		.long	0xe05
 5255 0df6 03       		.byte	0x3
 5256 0df7 91       		.byte	0x91
 5257 0df8 B47F     		.sleb128 -76
 5258 0dfa 00       		.byte	0
 5259 0dfb 00       		.byte	0
 5260 0dfc 00       		.byte	0
 5261 0dfd 00       		.byte	0
 5262 0dfe 00       		.byte	0
 5263 0dff 09       		.uleb128 0x9
 5264 0e00 04       		.byte	0x4
 5265 0e01 D4030000 		.long	0x3d4
 5266 0e05 09       		.uleb128 0x9
 5267 0e06 04       		.byte	0x4
 5268 0e07 30060000 		.long	0x630
 5269 0e0b 1D       		.uleb128 0x1d
 5270 0e0c 43726561 		.ascii "CreateDecoderResult\0"
 5270      74654465 
 5270      636F6465 
 5270      72526573 
 5270      756C7400 
 5271 0e20 01       		.byte	0x1
 5272 0e21 8E03     		.word	0x38e
 5273 0e23 18       		.byte	0x18
 5274 0e24 01       		.byte	0x1
 5275 0e25 55030000 		.long	0x355
 5276 0e29 E1150000 		.long	LFB34
 5277 0e2d 0D1A0000 		.long	LFE34
 5278 0e31 38000000 		.secrel32	LLST29
 5279 0e35 01       		.byte	0x1
 5280 0e36 A90F0000 		.long	0xfa9
 5281 0e3a 17       		.uleb128 0x17
 5282 0e3b DC000000 		.secrel32	LASF13
 5283 0e3f 01       		.byte	0x1
 5284 0e40 8E03     		.word	0x38e
 5285 0e42 40       		.byte	0x40
 5286 0e43 A90F0000 		.long	0xfa9
 5287 0e47 02       		.byte	0x2
 5288 0e48 91       		.byte	0x91
 5289 0e49 04       		.sleb128 4
 5290 0e4a 17       		.uleb128 0x17
 5291 0e4b 73010000 		.secrel32	LASF7
 5292 0e4f 01       		.byte	0x1
 5293 0e50 8E03     		.word	0x38e
 5294 0e52 67       		.byte	0x67
 5295 0e53 EA010000 		.long	0x1ea
 5296 0e57 02       		.byte	0x2
 5297 0e58 91       		.byte	0x91
 5298 0e59 08       		.sleb128 8
 5299 0e5a 18       		.uleb128 0x18
 5300 0e5b 73697A65 		.ascii "size\0"
 5300      00
 5301 0e60 01       		.byte	0x1
 5302 0e61 8E03     		.word	0x38e
 5303 0e63 78       		.byte	0x78
 5304 0e64 39010000 		.long	0x139
 5305 0e68 02       		.byte	0x2
GAS LISTING C:\Users\jisu8\AppData\Local\Temp\cc0IqG7f.s 			page 127


 5306 0e69 91       		.byte	0x91
 5307 0e6a 0C       		.sleb128 12
 5308 0e6b 19       		.uleb128 0x19
 5309 0e6c 2A010000 		.secrel32	LASF8
 5310 0e70 01       		.byte	0x1
 5311 0e71 9003     		.word	0x390
 5312 0e73 12       		.byte	0x12
 5313 0e74 55030000 		.long	0x355
 5314 0e78 03       		.byte	0x3
 5315 0e79 91       		.byte	0x91
 5316 0e7a FC7E     		.sleb128 -132
 5317 0e7c 1A       		.uleb128 0x1a
 5318 0e7d 726F774E 		.ascii "rowNum\0"
 5318      756D00
 5319 0e84 01       		.byte	0x1
 5320 0e85 9203     		.word	0x392
 5321 0e87 06       		.byte	0x6
 5322 0e88 39010000 		.long	0x139
 5323 0e8c 02       		.byte	0x2
 5324 0e8d 91       		.byte	0x91
 5325 0e8e 4C       		.sleb128 -52
 5326 0e8f 19       		.uleb128 0x19
 5327 0e90 50000000 		.secrel32	LASF19
 5328 0e94 01       		.byte	0x1
 5329 0e95 9303     		.word	0x393
 5330 0e97 06       		.byte	0x6
 5331 0e98 39010000 		.long	0x139
 5332 0e9c 02       		.byte	0x2
 5333 0e9d 91       		.byte	0x91
 5334 0e9e 48       		.sleb128 -56
 5335 0e9f 19       		.uleb128 0x19
 5336 0ea0 1C010000 		.secrel32	LASF20
 5337 0ea4 01       		.byte	0x1
 5338 0ea5 9403     		.word	0x394
 5339 0ea7 11       		.byte	0x11
 5340 0ea8 AF0F0000 		.long	0xfaf
 5341 0eac 04       		.byte	0x4
 5342 0ead 91       		.byte	0x91
 5343 0eae BC7F     		.sleb128 -68
 5344 0eb0 06       		.byte	0x6
 5345 0eb1 19       		.uleb128 0x19
 5346 0eb2 4A010000 		.secrel32	LASF21
 5347 0eb6 01       		.byte	0x1
 5348 0eb7 9D03     		.word	0x39d
 5349 0eb9 06       		.byte	0x6
 5350 0eba CB0F0000 		.long	0xfcb
 5351 0ebe 03       		.byte	0x3
 5352 0ebf 91       		.byte	0x91
 5353 0ec0 D47E     		.sleb128 -172
 5354 0ec2 19       		.uleb128 0x19
 5355 0ec3 5A010000 		.secrel32	LASF22
 5356 0ec7 01       		.byte	0x1
 5357 0ec8 9E03     		.word	0x39e
 5358 0eca 06       		.byte	0x6
 5359 0ecb 39010000 		.long	0x139
 5360 0ecf 03       		.byte	0x3
 5361 0ed0 91       		.byte	0x91
GAS LISTING C:\Users\jisu8\AppData\Local\Temp\cc0IqG7f.s 			page 128


 5362 0ed1 B87F     		.sleb128 -72
 5363 0ed3 19       		.uleb128 0x19
 5364 0ed4 12010000 		.secrel32	LASF23
 5365 0ed8 01       		.byte	0x1
 5366 0ed9 9F03     		.word	0x39f
 5367 0edb 06       		.byte	0x6
 5368 0edc DB0F0000 		.long	0xfdb
 5369 0ee0 04       		.byte	0x4
 5370 0ee1 91       		.byte	0x91
 5371 0ee2 B07F     		.sleb128 -80
 5372 0ee4 06       		.byte	0x6
 5373 0ee5 19       		.uleb128 0x19
 5374 0ee6 B8010000 		.secrel32	LASF24
 5375 0eea 01       		.byte	0x1
 5376 0eeb A003     		.word	0x3a0
 5377 0eed 06       		.byte	0x6
 5378 0eee CB0F0000 		.long	0xfcb
 5379 0ef2 03       		.byte	0x3
 5380 0ef3 91       		.byte	0x91
 5381 0ef4 AC7E     		.sleb128 -212
 5382 0ef6 1A       		.uleb128 0x1a
 5383 0ef7 616D6269 		.ascii "ambiguousIndexesList\0"
 5383      67756F75 
 5383      73496E64 
 5383      65786573 
 5383      4C697374 
 5384 0f0c 01       		.byte	0x1
 5385 0f0d A103     		.word	0x3a1
 5386 0f0f 06       		.byte	0x6
 5387 0f10 CB0F0000 		.long	0xfcb
 5388 0f14 03       		.byte	0x3
 5389 0f15 91       		.byte	0x91
 5390 0f16 847E     		.sleb128 -252
 5391 0f18 1A       		.uleb128 0x1a
 5392 0f19 69647800 		.ascii "idx\0"
 5393 0f1d 01       		.byte	0x1
 5394 0f1e A403     		.word	0x3a4
 5395 0f20 06       		.byte	0x6
 5396 0f21 39010000 		.long	0x139
 5397 0f25 02       		.byte	0x2
 5398 0f26 91       		.byte	0x91
 5399 0f27 50       		.sleb128 -48
 5400 0f28 19       		.uleb128 0x19
 5401 0f29 04010000 		.secrel32	LASF25
 5402 0f2d 01       		.byte	0x1
 5403 0f2e A503     		.word	0x3a5
 5404 0f30 06       		.byte	0x6
 5405 0f31 39010000 		.long	0x139
 5406 0f35 02       		.byte	0x2
 5407 0f36 91       		.byte	0x91
 5408 0f37 54       		.sleb128 -44
 5409 0f38 1C       		.uleb128 0x1c
 5410 0f39 A6180000 		.long	LBB23
 5411 0f3d 9F190000 		.long	LBE23
 5412 0f41 1A       		.uleb128 0x1a
 5413 0f42 726F7700 		.ascii "row\0"
 5414 0f46 01       		.byte	0x1
GAS LISTING C:\Users\jisu8\AppData\Local\Temp\cc0IqG7f.s 			page 129


 5415 0f47 A703     		.word	0x3a7
 5416 0f49 0B       		.byte	0xb
 5417 0f4a 39010000 		.long	0x139
 5418 0f4e 02       		.byte	0x2
 5419 0f4f 91       		.byte	0x91
 5420 0f50 58       		.sleb128 -40
 5421 0f51 1C       		.uleb128 0x1c
 5422 0f52 B2180000 		.long	LBB24
 5423 0f56 87190000 		.long	LBE24
 5424 0f5a 1A       		.uleb128 0x1a
 5425 0f5b 636F6C75 		.ascii "column\0"
 5425      6D6E00
 5426 0f62 01       		.byte	0x1
 5427 0f63 A903     		.word	0x3a9
 5428 0f65 0C       		.byte	0xc
 5429 0f66 39010000 		.long	0x139
 5430 0f6a 02       		.byte	0x2
 5431 0f6b 91       		.byte	0x91
 5432 0f6c 5C       		.sleb128 -36
 5433 0f6d 1C       		.uleb128 0x1c
 5434 0f6e BE180000 		.long	LBB25
 5435 0f72 6F190000 		.long	LBE25
 5436 0f76 1A       		.uleb128 0x1a
 5437 0f77 76616C75 		.ascii "values\0"
 5437      657300
 5438 0f7e 01       		.byte	0x1
 5439 0f7f AB03     		.word	0x3ab
 5440 0f81 08       		.byte	0x8
 5441 0f82 EF0F0000 		.long	0xfef
 5442 0f86 03       		.byte	0x3
 5443 0f87 91       		.byte	0x91
 5444 0f88 807E     		.sleb128 -256
 5445 0f8a 1A       		.uleb128 0x1a
 5446 0f8b 636F6465 		.ascii "codewordIndex\0"
 5446      776F7264 
 5446      496E6465 
 5446      7800
 5447 0f99 01       		.byte	0x1
 5448 0f9a AD03     		.word	0x3ad
 5449 0f9c 08       		.byte	0x8
 5450 0f9d 39010000 		.long	0x139
 5451 0fa1 03       		.byte	0x3
 5452 0fa2 91       		.byte	0x91
 5453 0fa3 AC7F     		.sleb128 -84
 5454 0fa5 00       		.byte	0
 5455 0fa6 00       		.byte	0
 5456 0fa7 00       		.byte	0
 5457 0fa8 00       		.byte	0
 5458 0fa9 09       		.uleb128 0x9
 5459 0faa 04       		.byte	0x4
 5460 0fab 79080000 		.long	0x879
 5461 0faf 0C       		.uleb128 0xc
 5462 0fb0 21090000 		.long	0x921
 5463 0fb4 CB0F0000 		.long	0xfcb
 5464 0fb8 1E       		.uleb128 0x1e
 5465 0fb9 D8000000 		.long	0xd8
 5466 0fbd 03       		.byte	0x3
GAS LISTING C:\Users\jisu8\AppData\Local\Temp\cc0IqG7f.s 			page 130


 5467 0fbe 91       		.byte	0x91
 5468 0fbf 40       		.sleb128 -64
 5469 0fc0 06       		.byte	0x6
 5470 0fc1 1E       		.uleb128 0x1e
 5471 0fc2 D8000000 		.long	0xd8
 5472 0fc6 03       		.byte	0x3
 5473 0fc7 91       		.byte	0x91
 5474 0fc8 44       		.sleb128 -60
 5475 0fc9 06       		.byte	0x6
 5476 0fca 00       		.byte	0
 5477 0fcb 0C       		.uleb128 0xc
 5478 0fcc 39010000 		.long	0x139
 5479 0fd0 DB0F0000 		.long	0xfdb
 5480 0fd4 11       		.uleb128 0x11
 5481 0fd5 D8000000 		.long	0xd8
 5482 0fd9 09       		.byte	0x9
 5483 0fda 00       		.byte	0
 5484 0fdb 0C       		.uleb128 0xc
 5485 0fdc 39010000 		.long	0x139
 5486 0fe0 EF0F0000 		.long	0xfef
 5487 0fe4 1E       		.uleb128 0x1e
 5488 0fe5 D8000000 		.long	0xd8
 5489 0fe9 04       		.byte	0x4
 5490 0fea 91       		.byte	0x91
 5491 0feb B47F     		.sleb128 -76
 5492 0fed 06       		.byte	0x6
 5493 0fee 00       		.byte	0
 5494 0fef 0C       		.uleb128 0xc
 5495 0ff0 39010000 		.long	0x139
 5496 0ff4 FF0F0000 		.long	0xfff
 5497 0ff8 11       		.uleb128 0x11
 5498 0ff9 D8000000 		.long	0xd8
 5499 0ffd 00       		.byte	0
 5500 0ffe 00       		.byte	0
 5501 0fff 1F       		.uleb128 0x1f
 5502 1000 66696E64 		.ascii "find_idx\0"
 5502      5F696478 
 5502      00
 5503 1009 01       		.byte	0x1
 5504 100a 8003     		.word	0x380
 5505 100c 0C       		.byte	0xc
 5506 100d 01       		.byte	0x1
 5507 100e 39010000 		.long	0x139
 5508 1012 A4150000 		.long	LFB33
 5509 1016 E1150000 		.long	LFE33
 5510 101a 70000000 		.secrel32	LLST28
 5511 101e 01       		.byte	0x1
 5512 101f 5F100000 		.long	0x105f
 5513 1023 18       		.uleb128 0x18
 5514 1024 62756666 		.ascii "buffer\0"
 5514      657200
 5515 102b 01       		.byte	0x1
 5516 102c 8003     		.word	0x380
 5517 102e 26       		.byte	0x26
 5518 102f 5F100000 		.long	0x105f
 5519 1033 02       		.byte	0x2
 5520 1034 91       		.byte	0x91
GAS LISTING C:\Users\jisu8\AppData\Local\Temp\cc0IqG7f.s 			page 131


 5521 1035 00       		.sleb128 0
 5522 1036 1A       		.uleb128 0x1a
 5523 1037 69647800 		.ascii "idx\0"
 5524 103b 01       		.byte	0x1
 5525 103c 8203     		.word	0x382
 5526 103e 06       		.byte	0x6
 5527 103f 39010000 		.long	0x139
 5528 1043 02       		.byte	0x2
 5529 1044 91       		.byte	0x91
 5530 1045 74       		.sleb128 -12
 5531 1046 1C       		.uleb128 0x1c
 5532 1047 B1150000 		.long	LBB22
 5533 104b DC150000 		.long	LBE22
 5534 104f 1A       		.uleb128 0x1a
 5535 1050 6900     		.ascii "i\0"
 5536 1052 01       		.byte	0x1
 5537 1053 8303     		.word	0x383
 5538 1055 0A       		.byte	0xa
 5539 1056 39010000 		.long	0x139
 5540 105a 02       		.byte	0x2
 5541 105b 91       		.byte	0x91
 5542 105c 70       		.sleb128 -16
 5543 105d 00       		.byte	0
 5544 105e 00       		.byte	0
 5545 105f 09       		.uleb128 0x9
 5546 1060 04       		.byte	0x4
 5547 1061 21090000 		.long	0x921
 5548 1065 1D       		.uleb128 0x1d
 5549 1066 43726561 		.ascii "CreateDecoderResultFromAmbiguousValues\0"
 5549      74654465 
 5549      636F6465 
 5549      72526573 
 5549      756C7446 
 5550 108d 01       		.byte	0x1
 5551 108e 4A03     		.word	0x34a
 5552 1090 18       		.byte	0x18
 5553 1091 01       		.byte	0x1
 5554 1092 55030000 		.long	0x355
 5555 1096 BA120000 		.long	LFB32
 5556 109a A4150000 		.long	LFE32
 5557 109e A8000000 		.secrel32	LLST27
 5558 10a2 01       		.byte	0x1
 5559 10a3 CA110000 		.long	0x11ca
 5560 10a7 18       		.uleb128 0x18
 5561 10a8 65634C65 		.ascii "ecLevel\0"
 5561      76656C00 
 5562 10b0 01       		.byte	0x1
 5563 10b1 4A03     		.word	0x34a
 5564 10b3 43       		.byte	0x43
 5565 10b4 39010000 		.long	0x139
 5566 10b8 02       		.byte	0x2
 5567 10b9 91       		.byte	0x91
 5568 10ba 04       		.sleb128 4
 5569 10bb 17       		.uleb128 0x17
 5570 10bc 12010000 		.secrel32	LASF23
 5571 10c0 01       		.byte	0x1
 5572 10c1 4A03     		.word	0x34a
GAS LISTING C:\Users\jisu8\AppData\Local\Temp\cc0IqG7f.s 			page 132


 5573 10c3 52       		.byte	0x52
 5574 10c4 CF010000 		.long	0x1cf
 5575 10c8 02       		.byte	0x2
 5576 10c9 91       		.byte	0x91
 5577 10ca 08       		.sleb128 8
 5578 10cb 18       		.uleb128 0x18
 5579 10cc 65726173 		.ascii "erasureArray\0"
 5579      75726541 
 5579      72726179 
 5579      00
 5580 10d9 01       		.byte	0x1
 5581 10da 4B03     		.word	0x34b
 5582 10dc 0E       		.byte	0xe
 5583 10dd CA110000 		.long	0x11ca
 5584 10e1 02       		.byte	0x2
 5585 10e2 91       		.byte	0x91
 5586 10e3 0C       		.sleb128 12
 5587 10e4 18       		.uleb128 0x18
 5588 10e5 616D6269 		.ascii "ambiguousIndexes\0"
 5588      67756F75 
 5588      73496E64 
 5588      65786573 
 5588      00
 5589 10f6 01       		.byte	0x1
 5590 10f7 4B03     		.word	0x34b
 5591 10f9 28       		.byte	0x28
 5592 10fa CA110000 		.long	0x11ca
 5593 10fe 02       		.byte	0x2
 5594 10ff 91       		.byte	0x91
 5595 1100 10       		.sleb128 16
 5596 1101 17       		.uleb128 0x17
 5597 1102 B8010000 		.secrel32	LASF24
 5598 1106 01       		.byte	0x1
 5599 1107 4C03     		.word	0x34c
 5600 1109 0E       		.byte	0xe
 5601 110a CA110000 		.long	0x11ca
 5602 110e 02       		.byte	0x2
 5603 110f 91       		.byte	0x91
 5604 1110 14       		.sleb128 20
 5605 1111 17       		.uleb128 0x17
 5606 1112 73010000 		.secrel32	LASF7
 5607 1116 01       		.byte	0x1
 5608 1117 4C03     		.word	0x34c
 5609 1119 31       		.byte	0x31
 5610 111a D0110000 		.long	0x11d0
 5611 111e 02       		.byte	0x2
 5612 111f 91       		.byte	0x91
 5613 1120 18       		.sleb128 24
 5614 1121 17       		.uleb128 0x17
 5615 1122 8F010000 		.secrel32	LASF26
 5616 1126 01       		.byte	0x1
 5617 1127 4C03     		.word	0x34c
 5618 1129 42       		.byte	0x42
 5619 112a 39010000 		.long	0x139
 5620 112e 02       		.byte	0x2
 5621 112f 91       		.byte	0x91
 5622 1130 1C       		.sleb128 28
GAS LISTING C:\Users\jisu8\AppData\Local\Temp\cc0IqG7f.s 			page 133


 5623 1131 17       		.uleb128 0x17
 5624 1132 5A010000 		.secrel32	LASF22
 5625 1136 01       		.byte	0x1
 5626 1137 4C03     		.word	0x34c
 5627 1139 53       		.byte	0x53
 5628 113a 39010000 		.long	0x139
 5629 113e 02       		.byte	0x2
 5630 113f 91       		.byte	0x91
 5631 1140 20       		.sleb128 32
 5632 1141 17       		.uleb128 0x17
 5633 1142 04010000 		.secrel32	LASF25
 5634 1146 01       		.byte	0x1
 5635 1147 4C03     		.word	0x34c
 5636 1149 64       		.byte	0x64
 5637 114a 39010000 		.long	0x139
 5638 114e 02       		.byte	0x2
 5639 114f 91       		.byte	0x91
 5640 1150 24       		.sleb128 36
 5641 1151 19       		.uleb128 0x19
 5642 1152 FD000000 		.secrel32	LASF27
 5643 1156 01       		.byte	0x1
 5644 1157 4E03     		.word	0x34e
 5645 1159 12       		.byte	0x12
 5646 115a 55030000 		.long	0x355
 5647 115e 03       		.byte	0x3
 5648 115f 91       		.byte	0x91
 5649 1160 AC7F     		.sleb128 -84
 5650 1162 1A       		.uleb128 0x1a
 5651 1163 616D6269 		.ascii "ambiguousIndexCount\0"
 5651      67756F75 
 5651      73496E64 
 5651      6578436F 
 5651      756E7400 
 5652 1177 01       		.byte	0x1
 5653 1178 5003     		.word	0x350
 5654 117a 06       		.byte	0x6
 5655 117b D6110000 		.long	0x11d6
 5656 117f 03       		.byte	0x3
 5657 1180 91       		.byte	0x91
 5658 1181 5C       		.sleb128 -36
 5659 1182 06       		.byte	0x6
 5660 1183 1A       		.uleb128 0x1a
 5661 1184 74726965 		.ascii "tries\0"
 5661      7300
 5662 118a 01       		.byte	0x1
 5663 118b 5303     		.word	0x353
 5664 118d 06       		.byte	0x6
 5665 118e 39010000 		.long	0x139
 5666 1192 02       		.byte	0x2
 5667 1193 91       		.byte	0x91
 5668 1194 64       		.sleb128 -28
 5669 1195 1B       		.uleb128 0x1b
 5670 1196 39130000 		.long	LBB20
 5671 119a 4E130000 		.long	LBE20
 5672 119e B1110000 		.long	0x11b1
 5673 11a2 1A       		.uleb128 0x1a
 5674 11a3 6900     		.ascii "i\0"
GAS LISTING C:\Users\jisu8\AppData\Local\Temp\cc0IqG7f.s 			page 134


 5675 11a5 01       		.byte	0x1
 5676 11a6 5603     		.word	0x356
 5677 11a8 0F       		.byte	0xf
 5678 11a9 77010000 		.long	0x177
 5679 11ad 02       		.byte	0x2
 5680 11ae 91       		.byte	0x91
 5681 11af 68       		.sleb128 -24
 5682 11b0 00       		.byte	0
 5683 11b1 1C       		.uleb128 0x1c
 5684 11b2 87140000 		.long	LBB21
 5685 11b6 38150000 		.long	LBE21
 5686 11ba 1A       		.uleb128 0x1a
 5687 11bb 6900     		.ascii "i\0"
 5688 11bd 01       		.byte	0x1
 5689 11be 6903     		.word	0x369
 5690 11c0 0F       		.byte	0xf
 5691 11c1 77010000 		.long	0x177
 5692 11c5 02       		.byte	0x2
 5693 11c6 91       		.byte	0x91
 5694 11c7 6C       		.sleb128 -20
 5695 11c8 00       		.byte	0
 5696 11c9 00       		.byte	0
 5697 11ca 09       		.uleb128 0x9
 5698 11cb 04       		.byte	0x4
 5699 11cc 40010000 		.long	0x140
 5700 11d0 09       		.uleb128 0x9
 5701 11d1 04       		.byte	0x4
 5702 11d2 53010000 		.long	0x153
 5703 11d6 0C       		.uleb128 0xc
 5704 11d7 39010000 		.long	0x139
 5705 11db E9110000 		.long	0x11e9
 5706 11df 1E       		.uleb128 0x1e
 5707 11e0 D8000000 		.long	0xd8
 5708 11e4 03       		.byte	0x3
 5709 11e5 91       		.byte	0x91
 5710 11e6 60       		.sleb128 -32
 5711 11e7 06       		.byte	0x6
 5712 11e8 00       		.byte	0
 5713 11e9 16       		.uleb128 0x16
 5714 11ea 01       		.byte	0x1
 5715 11eb 4465636F 		.ascii "DecodeCodewords\0"
 5715      6465436F 
 5715      6465776F 
 5715      72647300 
 5716 11fb 01       		.byte	0x1
 5717 11fc 1303     		.word	0x313
 5718 11fe 11       		.byte	0x11
 5719 11ff 01       		.byte	0x1
 5720 1200 55030000 		.long	0x355
 5721 1204 1B110000 		.long	LFB31
 5722 1208 BA120000 		.long	LFE31
 5723 120c E0000000 		.secrel32	LLST26
 5724 1210 01       		.byte	0x1
 5725 1211 BC120000 		.long	0x12bc
 5726 1215 17       		.uleb128 0x17
 5727 1216 12010000 		.secrel32	LASF23
 5728 121a 01       		.byte	0x1
GAS LISTING C:\Users\jisu8\AppData\Local\Temp\cc0IqG7f.s 			page 135


 5729 121b 1303     		.word	0x313
 5730 121d 27       		.byte	0x27
 5731 121e CF010000 		.long	0x1cf
 5732 1222 02       		.byte	0x2
 5733 1223 91       		.byte	0x91
 5734 1224 04       		.sleb128 4
 5735 1225 18       		.uleb128 0x18
 5736 1226 65634C65 		.ascii "ecLevel\0"
 5736      76656C00 
 5737 122e 01       		.byte	0x1
 5738 122f 1303     		.word	0x313
 5739 1231 36       		.byte	0x36
 5740 1232 39010000 		.long	0x139
 5741 1236 02       		.byte	0x2
 5742 1237 91       		.byte	0x91
 5743 1238 08       		.sleb128 8
 5744 1239 17       		.uleb128 0x17
 5745 123a 4A010000 		.secrel32	LASF21
 5746 123e 01       		.byte	0x1
 5747 123f 1303     		.word	0x313
 5748 1241 4B       		.byte	0x4b
 5749 1242 CA110000 		.long	0x11ca
 5750 1246 02       		.byte	0x2
 5751 1247 91       		.byte	0x91
 5752 1248 0C       		.sleb128 12
 5753 1249 17       		.uleb128 0x17
 5754 124a 73010000 		.secrel32	LASF7
 5755 124e 01       		.byte	0x1
 5756 124f 1403     		.word	0x314
 5757 1251 20       		.byte	0x20
 5758 1252 EA010000 		.long	0x1ea
 5759 1256 02       		.byte	0x2
 5760 1257 91       		.byte	0x91
 5761 1258 10       		.sleb128 16
 5762 1259 17       		.uleb128 0x17
 5763 125a 8F010000 		.secrel32	LASF26
 5764 125e 01       		.byte	0x1
 5765 125f 1403     		.word	0x314
 5766 1261 31       		.byte	0x31
 5767 1262 39010000 		.long	0x139
 5768 1266 02       		.byte	0x2
 5769 1267 91       		.byte	0x91
 5770 1268 14       		.sleb128 20
 5771 1269 17       		.uleb128 0x17
 5772 126a 5A010000 		.secrel32	LASF22
 5773 126e 01       		.byte	0x1
 5774 126f 1403     		.word	0x314
 5775 1271 42       		.byte	0x42
 5776 1272 39010000 		.long	0x139
 5777 1276 02       		.byte	0x2
 5778 1277 91       		.byte	0x91
 5779 1278 18       		.sleb128 24
 5780 1279 19       		.uleb128 0x19
 5781 127a FD000000 		.secrel32	LASF27
 5782 127e 01       		.byte	0x1
 5783 127f 1603     		.word	0x316
 5784 1281 12       		.byte	0x12
GAS LISTING C:\Users\jisu8\AppData\Local\Temp\cc0IqG7f.s 			page 136


 5785 1282 55030000 		.long	0x355
 5786 1286 03       		.byte	0x3
 5787 1287 91       		.byte	0x91
 5788 1288 B87F     		.sleb128 -72
 5789 128a 19       		.uleb128 0x19
 5790 128b A0000000 		.secrel32	LASF28
 5791 128f 01       		.byte	0x1
 5792 1290 1F03     		.word	0x31f
 5793 1292 06       		.byte	0x6
 5794 1293 39010000 		.long	0x139
 5795 1297 02       		.byte	0x2
 5796 1298 91       		.byte	0x91
 5797 1299 6C       		.sleb128 -20
 5798 129a 1A       		.uleb128 0x1a
 5799 129b 636F7272 		.ascii "correctedErrorsCount\0"
 5799      65637465 
 5799      64457272 
 5799      6F727343 
 5799      6F756E74 
 5800 12b0 01       		.byte	0x1
 5801 12b1 2003     		.word	0x320
 5802 12b3 06       		.byte	0x6
 5803 12b4 39010000 		.long	0x139
 5804 12b8 02       		.byte	0x2
 5805 12b9 91       		.byte	0x91
 5806 12ba 68       		.sleb128 -24
 5807 12bb 00       		.byte	0
 5808 12bc 20       		.uleb128 0x20
 5809 12bd 01       		.byte	0x1
 5810 12be 72657375 		.ascii "result_init\0"
 5810      6C745F69 
 5810      6E697400 
 5811 12ca 01       		.byte	0x1
 5812 12cb 0503     		.word	0x305
 5813 12cd 06       		.byte	0x6
 5814 12ce 01       		.byte	0x1
 5815 12cf BF100000 		.long	LFB30
 5816 12d3 1B110000 		.long	LFE30
 5817 12d7 18010000 		.secrel32	LLST25
 5818 12db 01       		.byte	0x1
 5819 12dc F1120000 		.long	0x12f1
 5820 12e0 17       		.uleb128 0x17
 5821 12e1 FD000000 		.secrel32	LASF27
 5822 12e5 01       		.byte	0x1
 5823 12e6 0503     		.word	0x305
 5824 12e8 24       		.byte	0x24
 5825 12e9 F1120000 		.long	0x12f1
 5826 12ed 02       		.byte	0x2
 5827 12ee 91       		.byte	0x91
 5828 12ef 00       		.sleb128 0
 5829 12f0 00       		.byte	0
 5830 12f1 09       		.uleb128 0x9
 5831 12f2 04       		.byte	0x4
 5832 12f3 55030000 		.long	0x355
 5833 12f7 1F       		.uleb128 0x1f
 5834 12f8 56657269 		.ascii "VerifyCodewordCount\0"
 5834      6679436F 
GAS LISTING C:\Users\jisu8\AppData\Local\Temp\cc0IqG7f.s 			page 137


 5834      6465776F 
 5834      7264436F 
 5834      756E7400 
 5835 130c 01       		.byte	0x1
 5836 130d E502     		.word	0x2e5
 5837 130f 10       		.byte	0x10
 5838 1310 01       		.byte	0x1
 5839 1311 31020000 		.long	0x231
 5840 1315 6A100000 		.long	LFB29
 5841 1319 BF100000 		.long	LFE29
 5842 131d 50010000 		.secrel32	LLST24
 5843 1321 01       		.byte	0x1
 5844 1322 75130000 		.long	0x1375
 5845 1326 17       		.uleb128 0x17
 5846 1327 12010000 		.secrel32	LASF23
 5847 132b 01       		.byte	0x1
 5848 132c E502     		.word	0x2e5
 5849 132e 2A       		.byte	0x2a
 5850 132f CF010000 		.long	0x1cf
 5851 1333 02       		.byte	0x2
 5852 1334 91       		.byte	0x91
 5853 1335 00       		.sleb128 0
 5854 1336 17       		.uleb128 0x17
 5855 1337 A0000000 		.secrel32	LASF28
 5856 133b 01       		.byte	0x1
 5857 133c E502     		.word	0x2e5
 5858 133e 39       		.byte	0x39
 5859 133f 39010000 		.long	0x139
 5860 1343 02       		.byte	0x2
 5861 1344 91       		.byte	0x91
 5862 1345 04       		.sleb128 4
 5863 1346 17       		.uleb128 0x17
 5864 1347 5A010000 		.secrel32	LASF22
 5865 134b 01       		.byte	0x1
 5866 134c E502     		.word	0x2e5
 5867 134e 4C       		.byte	0x4c
 5868 134f 39010000 		.long	0x139
 5869 1353 02       		.byte	0x2
 5870 1354 91       		.byte	0x91
 5871 1355 08       		.sleb128 8
 5872 1356 1A       		.uleb128 0x1a
 5873 1357 6E756D62 		.ascii "numberOfCodewords\0"
 5873      65724F66 
 5873      436F6465 
 5873      776F7264 
 5873      7300
 5874 1369 01       		.byte	0x1
 5875 136a F002     		.word	0x2f0
 5876 136c 06       		.byte	0x6
 5877 136d 39010000 		.long	0x139
 5878 1371 02       		.byte	0x2
 5879 1372 91       		.byte	0x91
 5880 1373 74       		.sleb128 -12
 5881 1374 00       		.byte	0
 5882 1375 1D       		.uleb128 0x1d
 5883 1376 436F7272 		.ascii "CorrectErrors\0"
 5883      65637445 
GAS LISTING C:\Users\jisu8\AppData\Local\Temp\cc0IqG7f.s 			page 138


 5883      72726F72 
 5883      7300
 5884 1384 01       		.byte	0x1
 5885 1385 D202     		.word	0x2d2
 5886 1387 10       		.byte	0x10
 5887 1388 01       		.byte	0x1
 5888 1389 31020000 		.long	0x231
 5889 138d F70F0000 		.long	LFB28
 5890 1391 6A100000 		.long	LFE28
 5891 1395 88010000 		.secrel32	LLST23
 5892 1399 01       		.byte	0x1
 5893 139a 0B140000 		.long	0x140b
 5894 139e 17       		.uleb128 0x17
 5895 139f 12010000 		.secrel32	LASF23
 5896 13a3 01       		.byte	0x1
 5897 13a4 D202     		.word	0x2d2
 5898 13a6 24       		.byte	0x24
 5899 13a7 CF010000 		.long	0x1cf
 5900 13ab 02       		.byte	0x2
 5901 13ac 91       		.byte	0x91
 5902 13ad 00       		.sleb128 0
 5903 13ae 17       		.uleb128 0x17
 5904 13af 4A010000 		.secrel32	LASF21
 5905 13b3 01       		.byte	0x1
 5906 13b4 D202     		.word	0x2d2
 5907 13b6 3B       		.byte	0x3b
 5908 13b7 CA110000 		.long	0x11ca
 5909 13bb 02       		.byte	0x2
 5910 13bc 91       		.byte	0x91
 5911 13bd 04       		.sleb128 4
 5912 13be 17       		.uleb128 0x17
 5913 13bf A0000000 		.secrel32	LASF28
 5914 13c3 01       		.byte	0x1
 5915 13c4 D202     		.word	0x2d2
 5916 13c6 49       		.byte	0x49
 5917 13c7 39010000 		.long	0x139
 5918 13cb 02       		.byte	0x2
 5919 13cc 91       		.byte	0x91
 5920 13cd 08       		.sleb128 8
 5921 13ce 18       		.uleb128 0x18
 5922 13cf 6572726F 		.ascii "errorCount\0"
 5922      72436F75 
 5922      6E7400
 5923 13da 01       		.byte	0x1
 5924 13db D202     		.word	0x2d2
 5925 13dd 5F       		.byte	0x5f
 5926 13de CF010000 		.long	0x1cf
 5927 13e2 02       		.byte	0x2
 5928 13e3 91       		.byte	0x91
 5929 13e4 0C       		.sleb128 12
 5930 13e5 17       		.uleb128 0x17
 5931 13e6 8F010000 		.secrel32	LASF26
 5932 13ea 01       		.byte	0x1
 5933 13eb D202     		.word	0x2d2
 5934 13ed 6E       		.byte	0x6e
 5935 13ee 39010000 		.long	0x139
 5936 13f2 02       		.byte	0x2
GAS LISTING C:\Users\jisu8\AppData\Local\Temp\cc0IqG7f.s 			page 139


 5937 13f3 91       		.byte	0x91
 5938 13f4 10       		.sleb128 16
 5939 13f5 21       		.uleb128 0x21
 5940 13f6 01       		.byte	0x1
 5941 13f7 53010000 		.secrel32	LASF29
 5942 13fb 13       		.byte	0x13
 5943 13fc 00       		.byte	0
 5944 13fd 01       		.byte	0x1
 5945 13fe 39010000 		.long	0x139
 5946 1402 01       		.byte	0x1
 5947 1403 22       		.uleb128 0x22
 5948 1404 D0110000 		.long	0x11d0
 5949 1408 23       		.uleb128 0x23
 5950 1409 00       		.byte	0
 5951 140a 00       		.byte	0
 5952 140b 24       		.uleb128 0x24
 5953 140c 01       		.byte	0x1
 5954 140d 4465636F 		.ascii "DecodeErrorCorrection\0"
 5954      64654572 
 5954      726F7243 
 5954      6F727265 
 5954      6374696F 
 5955 1423 01       		.byte	0x1
 5956 1424 8102     		.word	0x281
 5957 1426 09       		.byte	0x9
 5958 1427 01       		.byte	0x1
 5959 1428 31020000 		.long	0x231
 5960 142c F10F0000 		.long	LFB27
 5961 1430 F70F0000 		.long	LFE27
 5962 1434 02       		.byte	0x2
 5963 1435 74       		.byte	0x74
 5964 1436 04       		.sleb128 4
 5965 1437 01       		.byte	0x1
 5966 1438 87140000 		.long	0x1487
 5967 143c 18       		.uleb128 0x18
 5968 143d 72656365 		.ascii "received\0"
 5968      69766564 
 5968      00
 5969 1446 01       		.byte	0x1
 5970 1447 8102     		.word	0x281
 5971 1449 25       		.byte	0x25
 5972 144a CF010000 		.long	0x1cf
 5973 144e 02       		.byte	0x2
 5974 144f 91       		.byte	0x91
 5975 1450 00       		.sleb128 0
 5976 1451 17       		.uleb128 0x17
 5977 1452 A0000000 		.secrel32	LASF28
 5978 1456 01       		.byte	0x1
 5979 1457 8102     		.word	0x281
 5980 1459 33       		.byte	0x33
 5981 145a 39010000 		.long	0x139
 5982 145e 02       		.byte	0x2
 5983 145f 91       		.byte	0x91
 5984 1460 04       		.sleb128 4
 5985 1461 17       		.uleb128 0x17
 5986 1462 4A010000 		.secrel32	LASF21
 5987 1466 01       		.byte	0x1
GAS LISTING C:\Users\jisu8\AppData\Local\Temp\cc0IqG7f.s 			page 140


 5988 1467 8102     		.word	0x281
 5989 1469 4F       		.byte	0x4f
 5990 146a CA110000 		.long	0x11ca
 5991 146e 02       		.byte	0x2
 5992 146f 91       		.byte	0x91
 5993 1470 08       		.sleb128 8
 5994 1471 18       		.uleb128 0x18
 5995 1472 6E624572 		.ascii "nbErrors\0"
 5995      726F7273 
 5995      00
 5996 147b 01       		.byte	0x1
 5997 147c 8102     		.word	0x281
 5998 147e 5F       		.byte	0x5f
 5999 147f CF010000 		.long	0x1cf
 6000 1483 02       		.byte	0x2
 6001 1484 91       		.byte	0x91
 6002 1485 0C       		.sleb128 12
 6003 1486 00       		.byte	0
 6004 1487 1D       		.uleb128 0x1d
 6005 1488 41646A75 		.ascii "AdjustCodewordCount\0"
 6005      7374436F 
 6005      6465776F 
 6005      7264436F 
 6005      756E7400 
 6006 149c 01       		.byte	0x1
 6007 149d EE01     		.word	0x1ee
 6008 149f 10       		.byte	0x10
 6009 14a0 01       		.byte	0x1
 6010 14a1 31020000 		.long	0x231
 6011 14a5 D80F0000 		.long	LFB26
 6012 14a9 F10F0000 		.long	LFE26
 6013 14ad C0010000 		.secrel32	LLST22
 6014 14b1 01       		.byte	0x1
 6015 14b2 FD140000 		.long	0x14fd
 6016 14b6 17       		.uleb128 0x17
 6017 14b7 DC000000 		.secrel32	LASF13
 6018 14bb 01       		.byte	0x1
 6019 14bc EE01     		.word	0x1ee
 6020 14be 3E       		.byte	0x3e
 6021 14bf FD140000 		.long	0x14fd
 6022 14c3 02       		.byte	0x2
 6023 14c4 91       		.byte	0x91
 6024 14c5 00       		.sleb128 0
 6025 14c6 17       		.uleb128 0x17
 6026 14c7 1C010000 		.secrel32	LASF20
 6027 14cb 01       		.byte	0x1
 6028 14cc EE01     		.word	0x1ee
 6029 14ce 60       		.byte	0x60
 6030 14cf 5F100000 		.long	0x105f
 6031 14d3 02       		.byte	0x2
 6032 14d4 91       		.byte	0x91
 6033 14d5 04       		.sleb128 4
 6034 14d6 18       		.uleb128 0x18
 6035 14d7 73697A65 		.ascii "size\0"
 6035      00
 6036 14dc 01       		.byte	0x1
 6037 14dd EE01     		.word	0x1ee
GAS LISTING C:\Users\jisu8\AppData\Local\Temp\cc0IqG7f.s 			page 141


 6038 14df 72       		.byte	0x72
 6039 14e0 39010000 		.long	0x139
 6040 14e4 02       		.byte	0x2
 6041 14e5 91       		.byte	0x91
 6042 14e6 08       		.sleb128 8
 6043 14e7 21       		.uleb128 0x21
 6044 14e8 01       		.byte	0x1
 6045 14e9 53010000 		.secrel32	LASF29
 6046 14ed 13       		.byte	0x13
 6047 14ee 00       		.byte	0
 6048 14ef 01       		.byte	0x1
 6049 14f0 39010000 		.long	0x139
 6050 14f4 01       		.byte	0x1
 6051 14f5 22       		.uleb128 0x22
 6052 14f6 D0110000 		.long	0x11d0
 6053 14fa 23       		.uleb128 0x23
 6054 14fb 00       		.byte	0
 6055 14fc 00       		.byte	0
 6056 14fd 09       		.uleb128 0x9
 6057 14fe 04       		.byte	0x4
 6058 14ff 93080000 		.long	0x893
 6059 1503 1F       		.uleb128 0x1f
 6060 1504 4765744E 		.ascii "GetNumberOfECCodeWords\0"
 6060      756D6265 
 6060      724F6645 
 6060      43436F64 
 6060      65576F72 
 6061 151b 01       		.byte	0x1
 6062 151c E801     		.word	0x1e8
 6063 151e 0C       		.byte	0xc
 6064 151f 01       		.byte	0x1
 6065 1520 39010000 		.long	0x139
 6066 1524 C50F0000 		.long	LFB25
 6067 1528 D80F0000 		.long	LFE25
 6068 152c F8010000 		.secrel32	LLST21
 6069 1530 01       		.byte	0x1
 6070 1531 51150000 		.long	0x1551
 6071 1535 18       		.uleb128 0x18
 6072 1536 62617263 		.ascii "barcodeECLevel\0"
 6072      6F646545 
 6072      434C6576 
 6072      656C00
 6073 1545 01       		.byte	0x1
 6074 1546 E801     		.word	0x1e8
 6075 1548 27       		.byte	0x27
 6076 1549 39010000 		.long	0x139
 6077 154d 02       		.byte	0x2
 6078 154e 91       		.byte	0x91
 6079 154f 00       		.sleb128 0
 6080 1550 00       		.byte	0
 6081 1551 25       		.uleb128 0x25
 6082 1552 43726561 		.ascii "CreateBarcodeMatrix\0"
 6082      74654261 
 6082      72636F64 
 6082      654D6174 
 6082      72697800 
 6083 1566 01       		.byte	0x1
GAS LISTING C:\Users\jisu8\AppData\Local\Temp\cc0IqG7f.s 			page 142


 6084 1567 C901     		.word	0x1c9
 6085 1569 0D       		.byte	0xd
 6086 156a 01       		.byte	0x1
 6087 156b B40E0000 		.long	LFB24
 6088 156f C50F0000 		.long	LFE24
 6089 1573 30020000 		.secrel32	LLST20
 6090 1577 01       		.byte	0x1
 6091 1578 6F160000 		.long	0x166f
 6092 157c 17       		.uleb128 0x17
 6093 157d 1C010000 		.secrel32	LASF20
 6094 1581 01       		.byte	0x1
 6095 1582 C901     		.word	0x1c9
 6096 1584 32       		.byte	0x32
 6097 1585 5F100000 		.long	0x105f
 6098 1589 02       		.byte	0x2
 6099 158a 91       		.byte	0x91
 6100 158b 00       		.sleb128 0
 6101 158c 17       		.uleb128 0x17
 6102 158d DC000000 		.secrel32	LASF13
 6103 1591 01       		.byte	0x1
 6104 1592 C901     		.word	0x1c9
 6105 1594 54       		.byte	0x54
 6106 1595 A90F0000 		.long	0xfa9
 6107 1599 02       		.byte	0x2
 6108 159a 91       		.byte	0x91
 6109 159b 04       		.sleb128 4
 6110 159c 18       		.uleb128 0x18
 6111 159d 73697A65 		.ascii "size\0"
 6111      00
 6112 15a2 01       		.byte	0x1
 6113 15a3 C901     		.word	0x1c9
 6114 15a5 68       		.byte	0x68
 6115 15a6 39010000 		.long	0x139
 6116 15aa 02       		.byte	0x2
 6117 15ab 91       		.byte	0x91
 6118 15ac 08       		.sleb128 8
 6119 15ad 18       		.uleb128 0x18
 6120 15ae 726F7700 		.ascii "row\0"
 6121 15b2 01       		.byte	0x1
 6122 15b3 C901     		.word	0x1c9
 6123 15b5 71       		.byte	0x71
 6124 15b6 39010000 		.long	0x139
 6125 15ba 02       		.byte	0x2
 6126 15bb 91       		.byte	0x91
 6127 15bc 0C       		.sleb128 12
 6128 15bd 18       		.uleb128 0x18
 6129 15be 636F6C75 		.ascii "column\0"
 6129      6D6E00
 6130 15c5 01       		.byte	0x1
 6131 15c6 C901     		.word	0x1c9
 6132 15c8 79       		.byte	0x79
 6133 15c9 39010000 		.long	0x139
 6134 15cd 02       		.byte	0x2
 6135 15ce 91       		.byte	0x91
 6136 15cf 10       		.sleb128 16
 6137 15d0 26       		.uleb128 0x26
 6138 15d1 01       		.byte	0x1
GAS LISTING C:\Users\jisu8\AppData\Local\Temp\cc0IqG7f.s 			page 143


 6139 15d2 53010000 		.secrel32	LASF29
 6140 15d6 13       		.byte	0x13
 6141 15d7 00       		.byte	0
 6142 15d8 01       		.byte	0x1
 6143 15d9 39010000 		.long	0x139
 6144 15dd 01       		.byte	0x1
 6145 15de E9150000 		.long	0x15e9
 6146 15e2 22       		.uleb128 0x22
 6147 15e3 D0110000 		.long	0x11d0
 6148 15e7 23       		.uleb128 0x23
 6149 15e8 00       		.byte	0
 6150 15e9 1A       		.uleb128 0x1a
 6151 15ea 72657375 		.ascii "resultColumn\0"
 6151      6C74436F 
 6151      6C756D6E 
 6151      00
 6152 15f7 01       		.byte	0x1
 6153 15f8 CD01     		.word	0x1cd
 6154 15fa 1C       		.byte	0x1c
 6155 15fb 6F160000 		.long	0x166f
 6156 15ff 02       		.byte	0x2
 6157 1600 91       		.byte	0x91
 6158 1601 64       		.sleb128 -28
 6159 1602 1C       		.uleb128 0x1c
 6160 1603 E20E0000 		.long	LBB16
 6161 1607 C20F0000 		.long	LBE16
 6162 160b 19       		.uleb128 0x19
 6163 160c 50000000 		.secrel32	LASF19
 6164 1610 01       		.byte	0x1
 6165 1611 CF01     		.word	0x1cf
 6166 1613 0B       		.byte	0xb
 6167 1614 39010000 		.long	0x139
 6168 1618 02       		.byte	0x2
 6169 1619 91       		.byte	0x91
 6170 161a 6C       		.sleb128 -20
 6171 161b 1C       		.uleb128 0x1c
 6172 161c 070F0000 		.long	LBB17
 6173 1620 B20F0000 		.long	LBE17
 6174 1624 1A       		.uleb128 0x1a
 6175 1625 6A00     		.ascii "j\0"
 6176 1627 01       		.byte	0x1
 6177 1628 D301     		.word	0x1d3
 6178 162a 0D       		.byte	0xd
 6179 162b 39010000 		.long	0x139
 6180 162f 02       		.byte	0x2
 6181 1630 91       		.byte	0x91
 6182 1631 68       		.sleb128 -24
 6183 1632 1C       		.uleb128 0x1c
 6184 1633 130F0000 		.long	LBB18
 6185 1637 A20F0000 		.long	LBE18
 6186 163b 19       		.uleb128 0x19
 6187 163c 8E000000 		.secrel32	LASF18
 6188 1640 01       		.byte	0x1
 6189 1641 D501     		.word	0x1d5
 6190 1643 10       		.byte	0x10
 6191 1644 30060000 		.long	0x630
 6192 1648 02       		.byte	0x2
GAS LISTING C:\Users\jisu8\AppData\Local\Temp\cc0IqG7f.s 			page 144


 6193 1649 91       		.byte	0x91
 6194 164a 48       		.sleb128 -56
 6195 164b 1C       		.uleb128 0x1c
 6196 164c 5F0F0000 		.long	LBB19
 6197 1650 A10F0000 		.long	LBE19
 6198 1654 1A       		.uleb128 0x1a
 6199 1655 726F774E 		.ascii "rowNumber\0"
 6199      756D6265 
 6199      7200
 6200 165f 01       		.byte	0x1
 6201 1660 D801     		.word	0x1d8
 6202 1662 0A       		.byte	0xa
 6203 1663 39010000 		.long	0x139
 6204 1667 02       		.byte	0x2
 6205 1668 91       		.byte	0x91
 6206 1669 60       		.sleb128 -32
 6207 166a 00       		.byte	0
 6208 166b 00       		.byte	0
 6209 166c 00       		.byte	0
 6210 166d 00       		.byte	0
 6211 166e 00       		.byte	0
 6212 166f 09       		.uleb128 0x9
 6213 1670 04       		.byte	0x4
 6214 1671 C0070000 		.long	0x7c0
 6215 1675 1D       		.uleb128 0x1d
 6216 1676 47657453 		.ascii "GetStartColumn\0"
 6216      74617274 
 6216      436F6C75 
 6216      6D6E00
 6217 1685 01       		.byte	0x1
 6218 1686 9301     		.word	0x193
 6219 1688 0C       		.byte	0xc
 6220 1689 01       		.byte	0x1
 6221 168a 39010000 		.long	0x139
 6222 168e EB0C0000 		.long	LFB23
 6223 1692 B40E0000 		.long	LFE23
 6224 1696 68020000 		.secrel32	LLST19
 6225 169a 01       		.byte	0x1
 6226 169b 48170000 		.long	0x1748
 6227 169f 17       		.uleb128 0x17
 6228 16a0 DC000000 		.secrel32	LASF13
 6229 16a4 01       		.byte	0x1
 6230 16a5 9301     		.word	0x193
 6231 16a7 35       		.byte	0x35
 6232 16a8 FD140000 		.long	0x14fd
 6233 16ac 02       		.byte	0x2
 6234 16ad 91       		.byte	0x91
 6235 16ae 00       		.sleb128 0
 6236 16af 17       		.uleb128 0x17
 6237 16b0 7A000000 		.secrel32	LASF15
 6238 16b4 01       		.byte	0x1
 6239 16b5 9301     		.word	0x193
 6240 16b7 4A       		.byte	0x4a
 6241 16b8 39010000 		.long	0x139
 6242 16bc 02       		.byte	0x2
 6243 16bd 91       		.byte	0x91
 6244 16be 04       		.sleb128 4
GAS LISTING C:\Users\jisu8\AppData\Local\Temp\cc0IqG7f.s 			page 145


 6245 16bf 17       		.uleb128 0x17
 6246 16c0 97000000 		.secrel32	LASF17
 6247 16c4 01       		.byte	0x1
 6248 16c5 9301     		.word	0x193
 6249 16c7 5D       		.byte	0x5d
 6250 16c8 39010000 		.long	0x139
 6251 16cc 02       		.byte	0x2
 6252 16cd 91       		.byte	0x91
 6253 16ce 08       		.sleb128 8
 6254 16cf 17       		.uleb128 0x17
 6255 16d0 67010000 		.secrel32	LASF14
 6256 16d4 01       		.byte	0x1
 6257 16d5 9301     		.word	0x193
 6258 16d7 6F       		.byte	0x6f
 6259 16d8 31020000 		.long	0x231
 6260 16dc 02       		.byte	0x2
 6261 16dd 91       		.byte	0x91
 6262 16de 4C       		.sleb128 -52
 6263 16df 18       		.uleb128 0x18
 6264 16e0 73697A65 		.ascii "size\0"
 6264      00
 6265 16e5 01       		.byte	0x1
 6266 16e6 9301     		.word	0x193
 6267 16e8 7F       		.byte	0x7f
 6268 16e9 39010000 		.long	0x139
 6269 16ed 02       		.byte	0x2
 6270 16ee 91       		.byte	0x91
 6271 16ef 10       		.sleb128 16
 6272 16f0 26       		.uleb128 0x26
 6273 16f1 01       		.byte	0x1
 6274 16f2 53010000 		.secrel32	LASF29
 6275 16f6 13       		.byte	0x13
 6276 16f7 00       		.byte	0
 6277 16f8 01       		.byte	0x1
 6278 16f9 39010000 		.long	0x139
 6279 16fd 01       		.byte	0x1
 6280 16fe 09170000 		.long	0x1709
 6281 1702 22       		.uleb128 0x22
 6282 1703 D0110000 		.long	0x11d0
 6283 1707 23       		.uleb128 0x23
 6284 1708 00       		.byte	0
 6285 1709 1A       		.uleb128 0x1a
 6286 170a 6F666673 		.ascii "offset\0"
 6286      657400
 6287 1711 01       		.byte	0x1
 6288 1712 9701     		.word	0x197
 6289 1714 06       		.byte	0x6
 6290 1715 39010000 		.long	0x139
 6291 1719 02       		.byte	0x2
 6292 171a 91       		.byte	0x91
 6293 171b 6C       		.sleb128 -20
 6294 171c 19       		.uleb128 0x19
 6295 171d 8E000000 		.secrel32	LASF18
 6296 1721 01       		.byte	0x1
 6297 1722 9801     		.word	0x198
 6298 1724 0D       		.byte	0xd
 6299 1725 30060000 		.long	0x630
GAS LISTING C:\Users\jisu8\AppData\Local\Temp\cc0IqG7f.s 			page 146


 6300 1729 02       		.byte	0x2
 6301 172a 91       		.byte	0x91
 6302 172b 50       		.sleb128 -48
 6303 172c 1A       		.uleb128 0x1a
 6304 172d 736B6970 		.ascii "skippedColumns\0"
 6304      70656443 
 6304      6F6C756D 
 6304      6E7300
 6305 173c 01       		.byte	0x1
 6306 173d B301     		.word	0x1b3
 6307 173f 06       		.byte	0x6
 6308 1740 39010000 		.long	0x139
 6309 1744 02       		.byte	0x2
 6310 1745 91       		.byte	0x91
 6311 1746 68       		.sleb128 -24
 6312 1747 00       		.byte	0
 6313 1748 1F       		.uleb128 0x1f
 6314 1749 49735661 		.ascii "IsValidBarcodeColumn\0"
 6314      6C696442 
 6314      6172636F 
 6314      6465436F 
 6314      6C756D6E 
 6315 175e 01       		.byte	0x1
 6316 175f 8D01     		.word	0x18d
 6317 1761 10       		.byte	0x10
 6318 1762 01       		.byte	0x1
 6319 1763 31020000 		.long	0x231
 6320 1767 C70C0000 		.long	LFB22
 6321 176b EB0C0000 		.long	LFE22
 6322 176f A0020000 		.secrel32	LLST18
 6323 1773 01       		.byte	0x1
 6324 1774 99170000 		.long	0x1799
 6325 1778 17       		.uleb128 0x17
 6326 1779 DC000000 		.secrel32	LASF13
 6327 177d 01       		.byte	0x1
 6328 177e 8D01     		.word	0x18d
 6329 1780 3F       		.byte	0x3f
 6330 1781 FD140000 		.long	0x14fd
 6331 1785 02       		.byte	0x2
 6332 1786 91       		.byte	0x91
 6333 1787 00       		.sleb128 0
 6334 1788 17       		.uleb128 0x17
 6335 1789 7A000000 		.secrel32	LASF15
 6336 178d 01       		.byte	0x1
 6337 178e 8D01     		.word	0x18d
 6338 1790 54       		.byte	0x54
 6339 1791 39010000 		.long	0x139
 6340 1795 02       		.byte	0x2
 6341 1796 91       		.byte	0x91
 6342 1797 04       		.sleb128 4
 6343 1798 00       		.byte	0
 6344 1799 1D       		.uleb128 0x1d
 6345 179a 4D657267 		.ascii "Merge\0"
 6345      6500
 6346 17a0 01       		.byte	0x1
 6347 17a1 7801     		.word	0x178
 6348 17a3 10       		.byte	0x10
GAS LISTING C:\Users\jisu8\AppData\Local\Temp\cc0IqG7f.s 			page 147


 6349 17a4 01       		.byte	0x1
 6350 17a5 31020000 		.long	0x231
 6351 17a9 F10B0000 		.long	LFB21
 6352 17ad C70C0000 		.long	LFE21
 6353 17b1 D8020000 		.secrel32	LLST17
 6354 17b5 01       		.byte	0x1
 6355 17b6 6D180000 		.long	0x186d
 6356 17ba 17       		.uleb128 0x17
 6357 17bb AF000000 		.secrel32	LASF11
 6358 17bf 01       		.byte	0x1
 6359 17c0 7801     		.word	0x178
 6360 17c2 30       		.byte	0x30
 6361 17c3 6F160000 		.long	0x166f
 6362 17c7 02       		.byte	0x2
 6363 17c8 91       		.byte	0x91
 6364 17c9 00       		.sleb128 0
 6365 17ca 17       		.uleb128 0x17
 6366 17cb 00000000 		.secrel32	LASF12
 6367 17cf 01       		.byte	0x1
 6368 17d0 7801     		.word	0x178
 6369 17d2 62       		.byte	0x62
 6370 17d3 6F160000 		.long	0x166f
 6371 17d7 02       		.byte	0x2
 6372 17d8 91       		.byte	0x91
 6373 17d9 04       		.sleb128 4
 6374 17da 17       		.uleb128 0x17
 6375 17db FD000000 		.secrel32	LASF27
 6376 17df 01       		.byte	0x1
 6377 17e0 7801     		.word	0x178
 6378 17e2 8F       		.byte	0x8f
 6379 17e3 A90F0000 		.long	0xfa9
 6380 17e7 02       		.byte	0x2
 6381 17e8 91       		.byte	0x91
 6382 17e9 08       		.sleb128 8
 6383 17ea 17       		.uleb128 0x17
 6384 17eb 9C010000 		.secrel32	LASF10
 6385 17ef 01       		.byte	0x1
 6386 17f0 7801     		.word	0x178
 6387 17f2 9A       		.byte	0x9a
 6388 17f3 39010000 		.long	0x139
 6389 17f7 02       		.byte	0x2
 6390 17f8 91       		.byte	0x91
 6391 17f9 0C       		.sleb128 12
 6392 17fa 1C       		.uleb128 0x1c
 6393 17fb 0A0C0000 		.long	LBB14
 6394 17ff C00C0000 		.long	LBE14
 6395 1803 1A       		.uleb128 0x1a
 6396 1804 62617263 		.ascii "barcodeMetadata\0"
 6396      6F64654D 
 6396      65746164 
 6396      61746100 
 6397 1814 01       		.byte	0x1
 6398 1815 7C01     		.word	0x17c
 6399 1817 15       		.byte	0x15
 6400 1818 C2060000 		.long	0x6c2
 6401 181c 02       		.byte	0x2
 6402 181d 91       		.byte	0x91
GAS LISTING C:\Users\jisu8\AppData\Local\Temp\cc0IqG7f.s 			page 148


 6403 181e 60       		.sleb128 -32
 6404 181f 1C       		.uleb128 0x1c
 6405 1820 3D0C0000 		.long	LBB15
 6406 1824 C00C0000 		.long	LBE15
 6407 1828 1A       		.uleb128 0x1a
 6408 1829 6C656674 		.ascii "leftBox\0"
 6408      426F7800 
 6409 1831 01       		.byte	0x1
 6410 1832 8001     		.word	0x180
 6411 1834 12       		.byte	0x12
 6412 1835 6D050000 		.long	0x56d
 6413 1839 03       		.byte	0x3
 6414 183a 91       		.byte	0x91
 6415 183b FC7D     		.sleb128 -260
 6416 183d 1A       		.uleb128 0x1a
 6417 183e 72696768 		.ascii "rightBox\0"
 6417      74426F78 
 6417      00
 6418 1847 01       		.byte	0x1
 6419 1848 8001     		.word	0x180
 6420 184a 1B       		.byte	0x1b
 6421 184b 6D050000 		.long	0x56d
 6422 184f 03       		.byte	0x3
 6423 1850 91       		.byte	0x91
 6424 1851 C87E     		.sleb128 -184
 6425 1853 1A       		.uleb128 0x1a
 6426 1854 6D657267 		.ascii "mergedBox\0"
 6426      6564426F 
 6426      7800
 6427 185e 01       		.byte	0x1
 6428 185f 8001     		.word	0x180
 6429 1861 25       		.byte	0x25
 6430 1862 6D050000 		.long	0x56d
 6431 1866 03       		.byte	0x3
 6432 1867 91       		.byte	0x91
 6433 1868 947F     		.sleb128 -108
 6434 186a 00       		.byte	0
 6435 186b 00       		.byte	0
 6436 186c 00       		.byte	0
 6437 186d 1D       		.uleb128 0x1d
 6438 186e 41646A75 		.ascii "AdjustBoundingBox\0"
 6438      7374426F 
 6438      756E6469 
 6438      6E67426F 
 6438      7800
 6439 1880 01       		.byte	0x1
 6440 1881 3C01     		.word	0x13c
 6441 1883 10       		.byte	0x10
 6442 1884 01       		.byte	0x1
 6443 1885 31020000 		.long	0x231
 6444 1889 ED090000 		.long	LFB20
 6445 188d F10B0000 		.long	LFE20
 6446 1891 10030000 		.secrel32	LLST16
 6447 1895 01       		.byte	0x1
 6448 1896 311A0000 		.long	0x1a31
 6449 189a 17       		.uleb128 0x17
 6450 189b 37010000 		.secrel32	LASF3
GAS LISTING C:\Users\jisu8\AppData\Local\Temp\cc0IqG7f.s 			page 149


 6451 189f 01       		.byte	0x1
 6452 18a0 3C01     		.word	0x13c
 6453 18a2 3C       		.byte	0x3c
 6454 18a3 6F160000 		.long	0x166f
 6455 18a7 02       		.byte	0x2
 6456 18a8 91       		.byte	0x91
 6457 18a9 00       		.sleb128 0
 6458 18aa 17       		.uleb128 0x17
 6459 18ab FD000000 		.secrel32	LASF27
 6460 18af 01       		.byte	0x1
 6461 18b0 3C01     		.word	0x13c
 6462 18b2 60       		.byte	0x60
 6463 18b3 311A0000 		.long	0x1a31
 6464 18b7 02       		.byte	0x2
 6465 18b8 91       		.byte	0x91
 6466 18b9 04       		.sleb128 4
 6467 18ba 17       		.uleb128 0x17
 6468 18bb 9C010000 		.secrel32	LASF10
 6469 18bf 01       		.byte	0x1
 6470 18c0 3C01     		.word	0x13c
 6471 18c2 6B       		.byte	0x6b
 6472 18c3 39010000 		.long	0x139
 6473 18c7 02       		.byte	0x2
 6474 18c8 91       		.byte	0x91
 6475 18c9 08       		.sleb128 8
 6476 18ca 26       		.uleb128 0x26
 6477 18cb 01       		.byte	0x1
 6478 18cc 53010000 		.secrel32	LASF29
 6479 18d0 13       		.byte	0x13
 6480 18d1 00       		.byte	0
 6481 18d2 01       		.byte	0x1
 6482 18d3 39010000 		.long	0x139
 6483 18d7 01       		.byte	0x1
 6484 18d8 E3180000 		.long	0x18e3
 6485 18dc 22       		.uleb128 0x22
 6486 18dd D0110000 		.long	0x11d0
 6487 18e1 23       		.uleb128 0x23
 6488 18e2 00       		.byte	0
 6489 18e3 1A       		.uleb128 0x1a
 6490 18e4 726F7748 		.ascii "rowHeights\0"
 6490      65696768 
 6490      747300
 6491 18ef 01       		.byte	0x1
 6492 18f0 4601     		.word	0x146
 6493 18f2 06       		.byte	0x6
 6494 18f3 371A0000 		.long	0x1a37
 6495 18f7 03       		.byte	0x3
 6496 18f8 91       		.byte	0x91
 6497 18f9 C07C     		.sleb128 -448
 6498 18fb 1A       		.uleb128 0x1a
 6499 18fc 73697A65 		.ascii "size\0"
 6499      00
 6500 1901 01       		.byte	0x1
 6501 1902 4701     		.word	0x147
 6502 1904 06       		.byte	0x6
 6503 1905 39010000 		.long	0x139
 6504 1909 03       		.byte	0x3
GAS LISTING C:\Users\jisu8\AppData\Local\Temp\cc0IqG7f.s 			page 150


 6505 190a 91       		.byte	0x91
 6506 190b BC7C     		.sleb128 -452
 6507 190d 1A       		.uleb128 0x1a
 6508 190e 6D617852 		.ascii "maxRowHeight\0"
 6508      6F774865 
 6508      69676874 
 6508      00
 6509 191b 01       		.byte	0x1
 6510 191c 4E01     		.word	0x14e
 6511 191e 06       		.byte	0x6
 6512 191f 39010000 		.long	0x139
 6513 1923 02       		.byte	0x2
 6514 1924 91       		.byte	0x91
 6515 1925 54       		.sleb128 -44
 6516 1926 1A       		.uleb128 0x1a
 6517 1927 6D697373 		.ascii "missingStartRows\0"
 6517      696E6753 
 6517      74617274 
 6517      526F7773 
 6517      00
 6518 1938 01       		.byte	0x1
 6519 1939 4F01     		.word	0x14f
 6520 193b 06       		.byte	0x6
 6521 193c 39010000 		.long	0x139
 6522 1940 02       		.byte	0x2
 6523 1941 91       		.byte	0x91
 6524 1942 6C       		.sleb128 -20
 6525 1943 19       		.uleb128 0x19
 6526 1944 12010000 		.secrel32	LASF23
 6527 1948 01       		.byte	0x1
 6528 1949 5901     		.word	0x159
 6529 194b 0F       		.byte	0xf
 6530 194c 050E0000 		.long	0xe05
 6531 1950 02       		.byte	0x2
 6532 1951 91       		.byte	0x91
 6533 1952 50       		.sleb128 -48
 6534 1953 1A       		.uleb128 0x1a
 6535 1954 6D697373 		.ascii "missingEndRows\0"
 6535      696E6745 
 6535      6E64526F 
 6535      777300
 6536 1963 01       		.byte	0x1
 6537 1964 5F01     		.word	0x15f
 6538 1966 06       		.byte	0x6
 6539 1967 39010000 		.long	0x139
 6540 196b 02       		.byte	0x2
 6541 196c 91       		.byte	0x91
 6542 196d 60       		.sleb128 -32
 6543 196e 1A       		.uleb128 0x1a
 6544 196f 626F7800 		.ascii "box\0"
 6545 1973 01       		.byte	0x1
 6546 1974 6C01     		.word	0x16c
 6547 1976 10       		.byte	0x10
 6548 1977 6D050000 		.long	0x56d
 6549 197b 03       		.byte	0x3
 6550 197c 91       		.byte	0x91
 6551 197d F07B     		.sleb128 -528
GAS LISTING C:\Users\jisu8\AppData\Local\Temp\cc0IqG7f.s 			page 151


 6552 197f 19       		.uleb128 0x19
 6553 1980 D0000000 		.secrel32	LASF9
 6554 1984 01       		.byte	0x1
 6555 1985 6D01     		.word	0x16d
 6556 1987 10       		.byte	0x10
 6557 1988 6D050000 		.long	0x56d
 6558 198c 03       		.byte	0x3
 6559 198d 91       		.byte	0x91
 6560 198e A47B     		.sleb128 -604
 6561 1990 1B       		.uleb128 0x1b
 6562 1991 850A0000 		.long	LBB9
 6563 1995 C20A0000 		.long	LBE9
 6564 1999 AC190000 		.long	0x19ac
 6565 199d 1A       		.uleb128 0x1a
 6566 199e 6900     		.ascii "i\0"
 6567 19a0 01       		.byte	0x1
 6568 19a1 5001     		.word	0x150
 6569 19a3 0B       		.byte	0xb
 6570 19a4 39010000 		.long	0x139
 6571 19a8 02       		.byte	0x2
 6572 19a9 91       		.byte	0x91
 6573 19aa 68       		.sleb128 -24
 6574 19ab 00       		.byte	0
 6575 19ac 1B       		.uleb128 0x1b
 6576 19ad CB0A0000 		.long	LBB10
 6577 19b1 FC0A0000 		.long	LBE10
 6578 19b5 CA190000 		.long	0x19ca
 6579 19b9 1A       		.uleb128 0x1a
 6580 19ba 726F7700 		.ascii "row\0"
 6581 19be 01       		.byte	0x1
 6582 19bf 5A01     		.word	0x15a
 6583 19c1 0B       		.byte	0xb
 6584 19c2 39010000 		.long	0x139
 6585 19c6 02       		.byte	0x2
 6586 19c7 91       		.byte	0x91
 6587 19c8 64       		.sleb128 -28
 6588 19c9 00       		.byte	0
 6589 19ca 1B       		.uleb128 0x1b
 6590 19cb 030B0000 		.long	LBB11
 6591 19cf 400B0000 		.long	LBE11
 6592 19d3 E8190000 		.long	0x19e8
 6593 19d7 1A       		.uleb128 0x1a
 6594 19d8 726F7700 		.ascii "row\0"
 6595 19dc 01       		.byte	0x1
 6596 19dd 6001     		.word	0x160
 6597 19df 0B       		.byte	0xb
 6598 19e0 39010000 		.long	0x139
 6599 19e4 02       		.byte	0x2
 6600 19e5 91       		.byte	0x91
 6601 19e6 5C       		.sleb128 -36
 6602 19e7 00       		.byte	0
 6603 19e8 1B       		.uleb128 0x1b
 6604 19e9 400B0000 		.long	LBB12
 6605 19ed 730B0000 		.long	LBE12
 6606 19f1 061A0000 		.long	0x1a06
 6607 19f5 1A       		.uleb128 0x1a
 6608 19f6 726F7700 		.ascii "row\0"
GAS LISTING C:\Users\jisu8\AppData\Local\Temp\cc0IqG7f.s 			page 152


 6609 19fa 01       		.byte	0x1
 6610 19fb 6801     		.word	0x168
 6611 19fd 0B       		.byte	0xb
 6612 19fe 39010000 		.long	0x139
 6613 1a02 02       		.byte	0x2
 6614 1a03 91       		.byte	0x91
 6615 1a04 58       		.sleb128 -40
 6616 1a05 00       		.byte	0
 6617 1a06 1C       		.uleb128 0x1c
 6618 1a07 8A0B0000 		.long	LBB13
 6619 1a0b E20B0000 		.long	LBE13
 6620 1a0f 27       		.uleb128 0x27
 6621 1a10 01       		.byte	0x1
 6622 1a11 69734C65 		.ascii "isLeftRowIndicator\0"
 6622      6674526F 
 6622      77496E64 
 6622      69636174 
 6622      6F7200
 6623 1a24 01       		.byte	0x1
 6624 1a25 6E01     		.word	0x16e
 6625 1a27 45       		.byte	0x45
 6626 1a28 39010000 		.long	0x139
 6627 1a2c 01       		.byte	0x1
 6628 1a2d 23       		.uleb128 0x23
 6629 1a2e 00       		.byte	0
 6630 1a2f 00       		.byte	0
 6631 1a30 00       		.byte	0
 6632 1a31 09       		.uleb128 0x9
 6633 1a32 04       		.byte	0x4
 6634 1a33 6D050000 		.long	0x56d
 6635 1a37 0C       		.uleb128 0xc
 6636 1a38 39010000 		.long	0x139
 6637 1a3c 471A0000 		.long	0x1a47
 6638 1a40 11       		.uleb128 0x11
 6639 1a41 D8000000 		.long	0xd8
 6640 1a45 63       		.byte	0x63
 6641 1a46 00       		.byte	0
 6642 1a47 1F       		.uleb128 0x1f
 6643 1a48 4765744D 		.ascii "GetMax\0"
 6643      617800
 6644 1a4f 01       		.byte	0x1
 6645 1a50 2E01     		.word	0x12e
 6646 1a52 0C       		.byte	0xc
 6647 1a53 01       		.byte	0x1
 6648 1a54 39010000 		.long	0x139
 6649 1a58 9C090000 		.long	LFB19
 6650 1a5c ED090000 		.long	LFE19
 6651 1a60 48030000 		.secrel32	LLST15
 6652 1a64 01       		.byte	0x1
 6653 1a65 B91A0000 		.long	0x1ab9
 6654 1a69 18       		.uleb128 0x18
 6655 1a6a 62756666 		.ascii "buffer\0"
 6655      657200
 6656 1a71 01       		.byte	0x1
 6657 1a72 2E01     		.word	0x12e
 6658 1a74 19       		.byte	0x19
 6659 1a75 CF010000 		.long	0x1cf
GAS LISTING C:\Users\jisu8\AppData\Local\Temp\cc0IqG7f.s 			page 153


 6660 1a79 02       		.byte	0x2
 6661 1a7a 91       		.byte	0x91
 6662 1a7b 00       		.sleb128 0
 6663 1a7c 17       		.uleb128 0x17
 6664 1a7d 9C010000 		.secrel32	LASF10
 6665 1a81 01       		.byte	0x1
 6666 1a82 2E01     		.word	0x12e
 6667 1a84 25       		.byte	0x25
 6668 1a85 39010000 		.long	0x139
 6669 1a89 02       		.byte	0x2
 6670 1a8a 91       		.byte	0x91
 6671 1a8b 04       		.sleb128 4
 6672 1a8c 1A       		.uleb128 0x1a
 6673 1a8d 7265745F 		.ascii "ret_max\0"
 6673      6D617800 
 6674 1a95 01       		.byte	0x1
 6675 1a96 3001     		.word	0x130
 6676 1a98 06       		.byte	0x6
 6677 1a99 39010000 		.long	0x139
 6678 1a9d 02       		.byte	0x2
 6679 1a9e 91       		.byte	0x91
 6680 1a9f 74       		.sleb128 -12
 6681 1aa0 1C       		.uleb128 0x1c
 6682 1aa1 A9090000 		.long	LBB8
 6683 1aa5 E8090000 		.long	LBE8
 6684 1aa9 1A       		.uleb128 0x1a
 6685 1aaa 6900     		.ascii "i\0"
 6686 1aac 01       		.byte	0x1
 6687 1aad 3201     		.word	0x132
 6688 1aaf 0A       		.byte	0xa
 6689 1ab0 39010000 		.long	0x139
 6690 1ab4 02       		.byte	0x2
 6691 1ab5 91       		.byte	0x91
 6692 1ab6 70       		.sleb128 -16
 6693 1ab7 00       		.byte	0
 6694 1ab8 00       		.byte	0
 6695 1ab9 1D       		.uleb128 0x1d
 6696 1aba 47657442 		.ascii "GetBarcodeMetadata\0"
 6696      6172636F 
 6696      64654D65 
 6696      74616461 
 6696      746100
 6697 1acd 01       		.byte	0x1
 6698 1ace 0201     		.word	0x102
 6699 1ad0 10       		.byte	0x10
 6700 1ad1 01       		.byte	0x1
 6701 1ad2 31020000 		.long	0x231
 6702 1ad6 40080000 		.long	LFB18
 6703 1ada 9C090000 		.long	LFE18
 6704 1ade 80030000 		.secrel32	LLST14
 6705 1ae2 01       		.byte	0x1
 6706 1ae3 821B0000 		.long	0x1b82
 6707 1ae7 17       		.uleb128 0x17
 6708 1ae8 AF000000 		.secrel32	LASF11
 6709 1aec 01       		.byte	0x1
 6710 1aed 0201     		.word	0x102
 6711 1aef 3D       		.byte	0x3d
GAS LISTING C:\Users\jisu8\AppData\Local\Temp\cc0IqG7f.s 			page 154


 6712 1af0 6F160000 		.long	0x166f
 6713 1af4 02       		.byte	0x2
 6714 1af5 91       		.byte	0x91
 6715 1af6 00       		.sleb128 0
 6716 1af7 17       		.uleb128 0x17
 6717 1af8 00000000 		.secrel32	LASF12
 6718 1afc 01       		.byte	0x1
 6719 1afd 0201     		.word	0x102
 6720 1aff 6F       		.byte	0x6f
 6721 1b00 6F160000 		.long	0x166f
 6722 1b04 02       		.byte	0x2
 6723 1b05 91       		.byte	0x91
 6724 1b06 04       		.sleb128 4
 6725 1b07 17       		.uleb128 0x17
 6726 1b08 FD000000 		.secrel32	LASF27
 6727 1b0c 01       		.byte	0x1
 6728 1b0d 0201     		.word	0x102
 6729 1b0f 9C       		.byte	0x9c
 6730 1b10 821B0000 		.long	0x1b82
 6731 1b14 02       		.byte	0x2
 6732 1b15 91       		.byte	0x91
 6733 1b16 08       		.sleb128 8
 6734 1b17 17       		.uleb128 0x17
 6735 1b18 9C010000 		.secrel32	LASF10
 6736 1b1c 01       		.byte	0x1
 6737 1b1d 0201     		.word	0x102
 6738 1b1f A8       		.byte	0xa8
 6739 1b20 39010000 		.long	0x139
 6740 1b24 02       		.byte	0x2
 6741 1b25 91       		.byte	0x91
 6742 1b26 0C       		.sleb128 12
 6743 1b27 26       		.uleb128 0x26
 6744 1b28 01       		.byte	0x1
 6745 1b29 53010000 		.secrel32	LASF29
 6746 1b2d 13       		.byte	0x13
 6747 1b2e 00       		.byte	0
 6748 1b2f 01       		.byte	0x1
 6749 1b30 39010000 		.long	0x139
 6750 1b34 01       		.byte	0x1
 6751 1b35 401B0000 		.long	0x1b40
 6752 1b39 22       		.uleb128 0x22
 6753 1b3a D0110000 		.long	0x11d0
 6754 1b3e 23       		.uleb128 0x23
 6755 1b3f 00       		.byte	0
 6756 1b40 1A       		.uleb128 0x1a
 6757 1b41 6C656674 		.ascii "leftBarcodeMetadata\0"
 6757      42617263 
 6757      6F64654D 
 6757      65746164 
 6757      61746100 
 6758 1b55 01       		.byte	0x1
 6759 1b56 0601     		.word	0x106
 6760 1b58 14       		.byte	0x14
 6761 1b59 C2060000 		.long	0x6c2
 6762 1b5d 02       		.byte	0x2
 6763 1b5e 91       		.byte	0x91
 6764 1b5f 60       		.sleb128 -32
GAS LISTING C:\Users\jisu8\AppData\Local\Temp\cc0IqG7f.s 			page 155


 6765 1b60 1A       		.uleb128 0x1a
 6766 1b61 72696768 		.ascii "rightBarcodeMetadata\0"
 6766      74426172 
 6766      636F6465 
 6766      4D657461 
 6766      64617461 
 6767 1b76 01       		.byte	0x1
 6768 1b77 0D01     		.word	0x10d
 6769 1b79 14       		.byte	0x14
 6770 1b7a C2060000 		.long	0x6c2
 6771 1b7e 02       		.byte	0x2
 6772 1b7f 91       		.byte	0x91
 6773 1b80 50       		.sleb128 -48
 6774 1b81 00       		.byte	0
 6775 1b82 09       		.uleb128 0x9
 6776 1b83 04       		.byte	0x4
 6777 1b84 C2060000 		.long	0x6c2
 6778 1b88 28       		.uleb128 0x28
 6779 1b89 01       		.byte	0x1
 6780 1b8a 726F7743 		.ascii "rowCount\0"
 6780      6F756E74 
 6780      00
 6781 1b93 01       		.byte	0x1
 6782 1b94 FE       		.byte	0xfe
 6783 1b95 05       		.byte	0x5
 6784 1b96 01       		.byte	0x1
 6785 1b97 39010000 		.long	0x139
 6786 1b9b 2D080000 		.long	LFB17
 6787 1b9f 40080000 		.long	LFE17
 6788 1ba3 B8030000 		.secrel32	LLST13
 6789 1ba7 01       		.byte	0x1
 6790 1ba8 BC1B0000 		.long	0x1bbc
 6791 1bac 29       		.uleb128 0x29
 6792 1bad 18000000 		.secrel32	LASF30
 6793 1bb1 01       		.byte	0x1
 6794 1bb2 FE       		.byte	0xfe
 6795 1bb3 22       		.byte	0x22
 6796 1bb4 821B0000 		.long	0x1b82
 6797 1bb8 02       		.byte	0x2
 6798 1bb9 91       		.byte	0x91
 6799 1bba 00       		.sleb128 0
 6800 1bbb 00       		.byte	0
 6801 1bbc 28       		.uleb128 0x28
 6802 1bbd 01       		.byte	0x1
 6803 1bbe 6572726F 		.ascii "errorCorrectionLevel\0"
 6803      72436F72 
 6803      72656374 
 6803      696F6E4C 
 6803      6576656C 
 6804 1bd3 01       		.byte	0x1
 6805 1bd4 FA       		.byte	0xfa
 6806 1bd5 05       		.byte	0x5
 6807 1bd6 01       		.byte	0x1
 6808 1bd7 39010000 		.long	0x139
 6809 1bdb 22080000 		.long	LFB16
 6810 1bdf 2D080000 		.long	LFE16
 6811 1be3 F0030000 		.secrel32	LLST12
GAS LISTING C:\Users\jisu8\AppData\Local\Temp\cc0IqG7f.s 			page 156


 6812 1be7 01       		.byte	0x1
 6813 1be8 FC1B0000 		.long	0x1bfc
 6814 1bec 29       		.uleb128 0x29
 6815 1bed 18000000 		.secrel32	LASF30
 6816 1bf1 01       		.byte	0x1
 6817 1bf2 FA       		.byte	0xfa
 6818 1bf3 2E       		.byte	0x2e
 6819 1bf4 821B0000 		.long	0x1b82
 6820 1bf8 02       		.byte	0x2
 6821 1bf9 91       		.byte	0x91
 6822 1bfa 00       		.sleb128 0
 6823 1bfb 00       		.byte	0
 6824 1bfc 28       		.uleb128 0x28
 6825 1bfd 01       		.byte	0x1
 6826 1bfe 636F6C75 		.ascii "columnCount\0"
 6826      6D6E436F 
 6826      756E7400 
 6827 1c0a 01       		.byte	0x1
 6828 1c0b F6       		.byte	0xf6
 6829 1c0c 05       		.byte	0x5
 6830 1c0d 01       		.byte	0x1
 6831 1c0e 39010000 		.long	0x139
 6832 1c12 18080000 		.long	LFB15
 6833 1c16 22080000 		.long	LFE15
 6834 1c1a 28040000 		.secrel32	LLST11
 6835 1c1e 01       		.byte	0x1
 6836 1c1f 331C0000 		.long	0x1c33
 6837 1c23 29       		.uleb128 0x29
 6838 1c24 18000000 		.secrel32	LASF30
 6839 1c28 01       		.byte	0x1
 6840 1c29 F6       		.byte	0xf6
 6841 1c2a 25       		.byte	0x25
 6842 1c2b 821B0000 		.long	0x1b82
 6843 1c2f 02       		.byte	0x2
 6844 1c30 91       		.byte	0x91
 6845 1c31 00       		.sleb128 0
 6846 1c32 00       		.byte	0
 6847 1c33 2A       		.uleb128 0x2a
 6848 1c34 4D657461 		.ascii "Metadata_Init\0"
 6848      64617461 
 6848      5F496E69 
 6848      7400
 6849 1c42 01       		.byte	0x1
 6850 1c43 EF       		.byte	0xef
 6851 1c44 0D       		.byte	0xd
 6852 1c45 01       		.byte	0x1
 6853 1c46 EB070000 		.long	LFB14
 6854 1c4a 18080000 		.long	LFE14
 6855 1c4e 60040000 		.secrel32	LLST10
 6856 1c52 01       		.byte	0x1
 6857 1c53 671C0000 		.long	0x1c67
 6858 1c57 29       		.uleb128 0x29
 6859 1c58 18000000 		.secrel32	LASF30
 6860 1c5c 01       		.byte	0x1
 6861 1c5d EF       		.byte	0xef
 6862 1c5e 2F       		.byte	0x2f
 6863 1c5f 821B0000 		.long	0x1b82
GAS LISTING C:\Users\jisu8\AppData\Local\Temp\cc0IqG7f.s 			page 157


 6864 1c63 02       		.byte	0x2
 6865 1c64 91       		.byte	0x91
 6866 1c65 00       		.sleb128 0
 6867 1c66 00       		.byte	0
 6868 1c67 2B       		.uleb128 0x2b
 6869 1c68 47657452 		.ascii "GetRowIndicatorColumn\0"
 6869      6F77496E 
 6869      64696361 
 6869      746F7243 
 6869      6F6C756D 
 6870 1c7e 01       		.byte	0x1
 6871 1c7f CB       		.byte	0xcb
 6872 1c80 0C       		.byte	0xc
 6873 1c81 01       		.byte	0x1
 6874 1c82 39010000 		.long	0x139
 6875 1c86 71060000 		.long	LFB13
 6876 1c8a EB070000 		.long	LFE13
 6877 1c8e 98040000 		.secrel32	LLST9
 6878 1c92 01       		.byte	0x1
 6879 1c93 A11D0000 		.long	0x1da1
 6880 1c97 29       		.uleb128 0x29
 6881 1c98 88000000 		.secrel32	LASF4
 6882 1c9c 01       		.byte	0x1
 6883 1c9d CB       		.byte	0xcb
 6884 1c9e 36       		.byte	0x36
 6885 1c9f FF0D0000 		.long	0xdff
 6886 1ca3 02       		.byte	0x2
 6887 1ca4 91       		.byte	0x91
 6888 1ca5 00       		.sleb128 0
 6889 1ca6 29       		.uleb128 0x29
 6890 1ca7 D0000000 		.secrel32	LASF9
 6891 1cab 01       		.byte	0x1
 6892 1cac CB       		.byte	0xcb
 6893 1cad 53       		.byte	0x53
 6894 1cae A11D0000 		.long	0x1da1
 6895 1cb2 02       		.byte	0x2
 6896 1cb3 91       		.byte	0x91
 6897 1cb4 04       		.sleb128 4
 6898 1cb5 2C       		.uleb128 0x2c
 6899 1cb6 73746172 		.ascii "startPoint\0"
 6899      74506F69 
 6899      6E7400
 6900 1cc1 01       		.byte	0x1
 6901 1cc2 CB       		.byte	0xcb
 6902 1cc3 76       		.byte	0x76
 6903 1cc4 A71D0000 		.long	0x1da7
 6904 1cc8 02       		.byte	0x2
 6905 1cc9 91       		.byte	0x91
 6906 1cca 08       		.sleb128 8
 6907 1ccb 29       		.uleb128 0x29
 6908 1ccc 67010000 		.secrel32	LASF14
 6909 1cd0 01       		.byte	0x1
 6910 1cd1 CB       		.byte	0xcb
 6911 1cd2 8A       		.byte	0x8a
 6912 1cd3 31020000 		.long	0x231
 6913 1cd7 02       		.byte	0x2
 6914 1cd8 91       		.byte	0x91
GAS LISTING C:\Users\jisu8\AppData\Local\Temp\cc0IqG7f.s 			page 158


 6915 1cd9 4C       		.sleb128 -52
 6916 1cda 29       		.uleb128 0x29
 6917 1cdb EC000000 		.secrel32	LASF5
 6918 1cdf 01       		.byte	0x1
 6919 1ce0 CB       		.byte	0xcb
 6920 1ce1 9B       		.byte	0x9b
 6921 1ce2 39010000 		.long	0x139
 6922 1ce6 02       		.byte	0x2
 6923 1ce7 91       		.byte	0x91
 6924 1ce8 10       		.sleb128 16
 6925 1ce9 29       		.uleb128 0x29
 6926 1cea 21000000 		.secrel32	LASF6
 6927 1cee 01       		.byte	0x1
 6928 1cef CB       		.byte	0xcb
 6929 1cf0 B1       		.byte	0xb1
 6930 1cf1 39010000 		.long	0x139
 6931 1cf5 02       		.byte	0x2
 6932 1cf6 91       		.byte	0x91
 6933 1cf7 14       		.sleb128 20
 6934 1cf8 29       		.uleb128 0x29
 6935 1cf9 5A000000 		.secrel32	LASF31
 6936 1cfd 01       		.byte	0x1
 6937 1cfe CB       		.byte	0xcb
 6938 1cff DD       		.byte	0xdd
 6939 1d00 6F160000 		.long	0x166f
 6940 1d04 02       		.byte	0x2
 6941 1d05 91       		.byte	0x91
 6942 1d06 18       		.sleb128 24
 6943 1d07 2D       		.uleb128 0x2d
 6944 1d08 9C010000 		.secrel32	LASF10
 6945 1d0c 01       		.byte	0x1
 6946 1d0d CD       		.byte	0xcd
 6947 1d0e 06       		.byte	0x6
 6948 1d0f 39010000 		.long	0x139
 6949 1d13 02       		.byte	0x2
 6950 1d14 91       		.byte	0x91
 6951 1d15 6C       		.sleb128 -20
 6952 1d16 26       		.uleb128 0x26
 6953 1d17 01       		.byte	0x1
 6954 1d18 53010000 		.secrel32	LASF29
 6955 1d1c 13       		.byte	0x13
 6956 1d1d 00       		.byte	0
 6957 1d1e 01       		.byte	0x1
 6958 1d1f 39010000 		.long	0x139
 6959 1d23 01       		.byte	0x1
 6960 1d24 2F1D0000 		.long	0x1d2f
 6961 1d28 22       		.uleb128 0x22
 6962 1d29 D0110000 		.long	0x11d0
 6963 1d2d 23       		.uleb128 0x23
 6964 1d2e 00       		.byte	0
 6965 1d2f 1C       		.uleb128 0x1c
 6966 1d30 B8060000 		.long	LBB4
 6967 1d34 E3070000 		.long	LBE4
 6968 1d38 13       		.uleb128 0x13
 6969 1d39 6900     		.ascii "i\0"
 6970 1d3b 01       		.byte	0x1
 6971 1d3c D2       		.byte	0xd2
GAS LISTING C:\Users\jisu8\AppData\Local\Temp\cc0IqG7f.s 			page 159


 6972 1d3d 0B       		.byte	0xb
 6973 1d3e 39010000 		.long	0x139
 6974 1d42 02       		.byte	0x2
 6975 1d43 91       		.byte	0x91
 6976 1d44 68       		.sleb128 -24
 6977 1d45 1C       		.uleb128 0x1c
 6978 1d46 C4060000 		.long	LBB5
 6979 1d4a D5070000 		.long	LBE5
 6980 1d4e 2D       		.uleb128 0x2d
 6981 1d4f 32000000 		.secrel32	LASF32
 6982 1d53 01       		.byte	0x1
 6983 1d54 D4       		.byte	0xd4
 6984 1d55 07       		.byte	0x7
 6985 1d56 39010000 		.long	0x139
 6986 1d5a 02       		.byte	0x2
 6987 1d5b 91       		.byte	0x91
 6988 1d5c 5C       		.sleb128 -36
 6989 1d5d 2D       		.uleb128 0x2d
 6990 1d5e 44000000 		.secrel32	LASF16
 6991 1d62 01       		.byte	0x1
 6992 1d63 D5       		.byte	0xd5
 6993 1d64 07       		.byte	0x7
 6994 1d65 39010000 		.long	0x139
 6995 1d69 02       		.byte	0x2
 6996 1d6a 91       		.byte	0x91
 6997 1d6b 64       		.sleb128 -28
 6998 1d6c 1C       		.uleb128 0x1c
 6999 1d6d F6060000 		.long	LBB6
 7000 1d71 D5070000 		.long	LBE6
 7001 1d75 2D       		.uleb128 0x2d
 7002 1d76 97000000 		.secrel32	LASF17
 7003 1d7a 01       		.byte	0x1
 7004 1d7b D6       		.byte	0xd6
 7005 1d7c 0C       		.byte	0xc
 7006 1d7d 39010000 		.long	0x139
 7007 1d81 02       		.byte	0x2
 7008 1d82 91       		.byte	0x91
 7009 1d83 60       		.sleb128 -32
 7010 1d84 1C       		.uleb128 0x1c
 7011 1d85 0A070000 		.long	LBB7
 7012 1d89 B5070000 		.long	LBE7
 7013 1d8d 2D       		.uleb128 0x2d
 7014 1d8e 8E000000 		.secrel32	LASF18
 7015 1d92 01       		.byte	0x1
 7016 1d93 D8       		.byte	0xd8
 7017 1d94 11       		.byte	0x11
 7018 1d95 050E0000 		.long	0xe05
 7019 1d99 02       		.byte	0x2
 7020 1d9a 91       		.byte	0x91
 7021 1d9b 58       		.sleb128 -40
 7022 1d9c 00       		.byte	0
 7023 1d9d 00       		.byte	0
 7024 1d9e 00       		.byte	0
 7025 1d9f 00       		.byte	0
 7026 1da0 00       		.byte	0
 7027 1da1 09       		.uleb128 0x9
 7028 1da2 04       		.byte	0x4
GAS LISTING C:\Users\jisu8\AppData\Local\Temp\cc0IqG7f.s 			page 160


 7029 1da3 83050000 		.long	0x583
 7030 1da7 09       		.uleb128 0x9
 7031 1da8 04       		.byte	0x4
 7032 1da9 55040000 		.long	0x455
 7033 1dad 2A       		.uleb128 0x2a
 7034 1dae 73657443 		.ascii "setCodeword\0"
 7034      6F646577 
 7034      6F726400 
 7035 1dba 01       		.byte	0x1
 7036 1dbb B4       		.byte	0xb4
 7037 1dbc 0D       		.byte	0xd
 7038 1dbd 01       		.byte	0x1
 7039 1dbe FD040000 		.long	LFB12
 7040 1dc2 71060000 		.long	LFE12
 7041 1dc6 D0040000 		.secrel32	LLST8
 7042 1dca 01       		.byte	0x1
 7043 1dcb 1D1E0000 		.long	0x1e1d
 7044 1dcf 29       		.uleb128 0x29
 7045 1dd0 97000000 		.secrel32	LASF17
 7046 1dd4 01       		.byte	0x1
 7047 1dd5 B4       		.byte	0xb4
 7048 1dd6 1D       		.byte	0x1d
 7049 1dd7 39010000 		.long	0x139
 7050 1ddb 02       		.byte	0x2
 7051 1ddc 91       		.byte	0x91
 7052 1ddd 00       		.sleb128 0
 7053 1dde 29       		.uleb128 0x29
 7054 1ddf 8E000000 		.secrel32	LASF18
 7055 1de3 01       		.byte	0x1
 7056 1de4 B4       		.byte	0xb4
 7057 1de5 34       		.byte	0x34
 7058 1de6 050E0000 		.long	0xe05
 7059 1dea 02       		.byte	0x2
 7060 1deb 91       		.byte	0x91
 7061 1dec 04       		.sleb128 4
 7062 1ded 29       		.uleb128 0x29
 7063 1dee 5A000000 		.secrel32	LASF31
 7064 1df2 01       		.byte	0x1
 7065 1df3 B4       		.byte	0xb4
 7066 1df4 58       		.byte	0x58
 7067 1df5 6F160000 		.long	0x166f
 7068 1df9 02       		.byte	0x2
 7069 1dfa 91       		.byte	0x91
 7070 1dfb 08       		.sleb128 8
 7071 1dfc 2C       		.uleb128 0x2c
 7072 1dfd 656D7074 		.ascii "empty\0"
 7072      7900
 7073 1e03 01       		.byte	0x1
 7074 1e04 B4       		.byte	0xb4
 7075 1e05 73       		.byte	0x73
 7076 1e06 31020000 		.long	0x231
 7077 1e0a 02       		.byte	0x2
 7078 1e0b 91       		.byte	0x91
 7079 1e0c 60       		.sleb128 -32
 7080 1e0d 13       		.uleb128 0x13
 7081 1e0e 69647800 		.ascii "idx\0"
 7082 1e12 01       		.byte	0x1
GAS LISTING C:\Users\jisu8\AppData\Local\Temp\cc0IqG7f.s 			page 161


 7083 1e13 B6       		.byte	0xb6
 7084 1e14 06       		.byte	0x6
 7085 1e15 39010000 		.long	0x139
 7086 1e19 02       		.byte	0x2
 7087 1e1a 91       		.byte	0x91
 7088 1e1b 70       		.sleb128 -16
 7089 1e1c 00       		.byte	0
 7090 1e1d 2B       		.uleb128 0x2b
 7091 1e1e 44657465 		.ascii "DetectCodeword\0"
 7091      6374436F 
 7091      6465776F 
 7091      726400
 7092 1e2d 01       		.byte	0x1
 7093 1e2e 83       		.byte	0x83
 7094 1e2f 15       		.byte	0x15
 7095 1e30 01       		.byte	0x1
 7096 1e31 050E0000 		.long	0xe05
 7097 1e35 64030000 		.long	LFB11
 7098 1e39 FD040000 		.long	LFE11
 7099 1e3d 08050000 		.secrel32	LLST7
 7100 1e41 01       		.byte	0x1
 7101 1e42 5A1F0000 		.long	0x1f5a
 7102 1e46 29       		.uleb128 0x29
 7103 1e47 88000000 		.secrel32	LASF4
 7104 1e4b 01       		.byte	0x1
 7105 1e4c 83       		.byte	0x83
 7106 1e4d 38       		.byte	0x38
 7107 1e4e FF0D0000 		.long	0xdff
 7108 1e52 02       		.byte	0x2
 7109 1e53 91       		.byte	0x91
 7110 1e54 00       		.sleb128 0
 7111 1e55 29       		.uleb128 0x29
 7112 1e56 A3010000 		.secrel32	LASF33
 7113 1e5a 01       		.byte	0x1
 7114 1e5b 83       		.byte	0x83
 7115 1e5c 43       		.byte	0x43
 7116 1e5d 39010000 		.long	0x139
 7117 1e61 02       		.byte	0x2
 7118 1e62 91       		.byte	0x91
 7119 1e63 04       		.sleb128 4
 7120 1e64 29       		.uleb128 0x29
 7121 1e65 C6000000 		.secrel32	LASF34
 7122 1e69 01       		.byte	0x1
 7123 1e6a 83       		.byte	0x83
 7124 1e6b 52       		.byte	0x52
 7125 1e6c 39010000 		.long	0x139
 7126 1e70 02       		.byte	0x2
 7127 1e71 91       		.byte	0x91
 7128 1e72 08       		.sleb128 8
 7129 1e73 29       		.uleb128 0x29
 7130 1e74 67010000 		.secrel32	LASF14
 7131 1e78 01       		.byte	0x1
 7132 1e79 83       		.byte	0x83
 7133 1e7a 65       		.byte	0x65
 7134 1e7b 31020000 		.long	0x231
 7135 1e7f 03       		.byte	0x3
 7136 1e80 91       		.byte	0x91
GAS LISTING C:\Users\jisu8\AppData\Local\Temp\cc0IqG7f.s 			page 162


 7137 1e81 AC7F     		.sleb128 -84
 7138 1e83 29       		.uleb128 0x29
 7139 1e84 44000000 		.secrel32	LASF16
 7140 1e88 01       		.byte	0x1
 7141 1e89 83       		.byte	0x83
 7142 1e8a 76       		.byte	0x76
 7143 1e8b 39010000 		.long	0x139
 7144 1e8f 02       		.byte	0x2
 7145 1e90 91       		.byte	0x91
 7146 1e91 10       		.sleb128 16
 7147 1e92 29       		.uleb128 0x29
 7148 1e93 97000000 		.secrel32	LASF17
 7149 1e97 01       		.byte	0x1
 7150 1e98 83       		.byte	0x83
 7151 1e99 87       		.byte	0x87
 7152 1e9a 39010000 		.long	0x139
 7153 1e9e 02       		.byte	0x2
 7154 1e9f 91       		.byte	0x91
 7155 1ea0 14       		.sleb128 20
 7156 1ea1 29       		.uleb128 0x29
 7157 1ea2 EC000000 		.secrel32	LASF5
 7158 1ea6 01       		.byte	0x1
 7159 1ea7 83       		.byte	0x83
 7160 1ea8 95       		.byte	0x95
 7161 1ea9 39010000 		.long	0x139
 7162 1ead 02       		.byte	0x2
 7163 1eae 91       		.byte	0x91
 7164 1eaf 18       		.sleb128 24
 7165 1eb0 29       		.uleb128 0x29
 7166 1eb1 21000000 		.secrel32	LASF6
 7167 1eb5 01       		.byte	0x1
 7168 1eb6 83       		.byte	0x83
 7169 1eb7 AB       		.byte	0xab
 7170 1eb8 39010000 		.long	0x139
 7171 1ebc 02       		.byte	0x2
 7172 1ebd 91       		.byte	0x91
 7173 1ebe 1C       		.sleb128 28
 7174 1ebf 26       		.uleb128 0x26
 7175 1ec0 01       		.byte	0x1
 7176 1ec1 53010000 		.secrel32	LASF29
 7177 1ec5 13       		.byte	0x13
 7178 1ec6 00       		.byte	0
 7179 1ec7 01       		.byte	0x1
 7180 1ec8 39010000 		.long	0x139
 7181 1ecc 01       		.byte	0x1
 7182 1ecd D81E0000 		.long	0x1ed8
 7183 1ed1 22       		.uleb128 0x22
 7184 1ed2 D0110000 		.long	0x11d0
 7185 1ed6 23       		.uleb128 0x23
 7186 1ed7 00       		.byte	0
 7187 1ed8 2D       		.uleb128 0x2d
 7188 1ed9 80010000 		.secrel32	LASF35
 7189 1edd 01       		.byte	0x1
 7190 1ede 8D       		.byte	0x8d
 7191 1edf 06       		.byte	0x6
 7192 1ee0 680B0000 		.long	0xb68
 7193 1ee4 03       		.byte	0x3
GAS LISTING C:\Users\jisu8\AppData\Local\Temp\cc0IqG7f.s 			page 163


 7194 1ee5 91       		.byte	0x91
 7195 1ee6 BC7F     		.sleb128 -68
 7196 1ee8 2D       		.uleb128 0x2d
 7197 1ee9 9C010000 		.secrel32	LASF10
 7198 1eed 01       		.byte	0x1
 7199 1eee 8E       		.byte	0x8e
 7200 1eef 06       		.byte	0x6
 7201 1ef0 39010000 		.long	0x139
 7202 1ef4 02       		.byte	0x2
 7203 1ef5 91       		.byte	0x91
 7204 1ef6 68       		.sleb128 -24
 7205 1ef7 13       		.uleb128 0x13
 7206 1ef8 656E6443 		.ascii "endColumn\0"
 7206      6F6C756D 
 7206      6E00
 7207 1f02 01       		.byte	0x1
 7208 1f03 93       		.byte	0x93
 7209 1f04 06       		.byte	0x6
 7210 1f05 39010000 		.long	0x139
 7211 1f09 02       		.byte	0x2
 7212 1f0a 91       		.byte	0x91
 7213 1f0b 6C       		.sleb128 -20
 7214 1f0c 13       		.uleb128 0x13
 7215 1f0d 636F6465 		.ascii "codewordBitCount\0"
 7215      776F7264 
 7215      42697443 
 7215      6F756E74 
 7215      00
 7216 1f1e 01       		.byte	0x1
 7217 1f1f 94       		.byte	0x94
 7218 1f20 06       		.byte	0x6
 7219 1f21 39010000 		.long	0x139
 7220 1f25 02       		.byte	0x2
 7221 1f26 91       		.byte	0x91
 7222 1f27 64       		.sleb128 -28
 7223 1f28 13       		.uleb128 0x13
 7224 1f29 6465636F 		.ascii "decodedValue\0"
 7224      64656456 
 7224      616C7565 
 7224      00
 7225 1f36 01       		.byte	0x1
 7226 1f37 A8       		.byte	0xa8
 7227 1f38 06       		.byte	0x6
 7228 1f39 39010000 		.long	0x139
 7229 1f3d 02       		.byte	0x2
 7230 1f3e 91       		.byte	0x91
 7231 1f3f 60       		.sleb128 -32
 7232 1f40 1C       		.uleb128 0x1c
 7233 1f41 B6040000 		.long	LBB3
 7234 1f45 F6040000 		.long	LBE3
 7235 1f49 2D       		.uleb128 0x2d
 7236 1f4a 8E000000 		.secrel32	LASF18
 7237 1f4e 01       		.byte	0x1
 7238 1f4f AB       		.byte	0xab
 7239 1f50 07       		.byte	0x7
 7240 1f51 39010000 		.long	0x139
 7241 1f55 02       		.byte	0x2
GAS LISTING C:\Users\jisu8\AppData\Local\Temp\cc0IqG7f.s 			page 164


 7242 1f56 91       		.byte	0x91
 7243 1f57 5C       		.sleb128 -36
 7244 1f58 00       		.byte	0
 7245 1f59 00       		.byte	0
 7246 1f5a 2E       		.uleb128 0x2e
 7247 1f5b 436F6465 		.ascii "Codeword\0"
 7247      776F7264 
 7247      00
 7248 1f64 01       		.byte	0x1
 7249 1f65 77       		.byte	0x77
 7250 1f66 15       		.byte	0x15
 7251 1f67 01       		.byte	0x1
 7252 1f68 050E0000 		.long	0xe05
 7253 1f6c 29030000 		.long	LFB10
 7254 1f70 64030000 		.long	LFE10
 7255 1f74 40050000 		.secrel32	LLST6
 7256 1f78 01       		.byte	0x1
 7257 1f79 C31F0000 		.long	0x1fc3
 7258 1f7d 2C       		.uleb128 0x2c
 7259 1f7e 73746172 		.ascii "startX\0"
 7259      745800
 7260 1f85 01       		.byte	0x1
 7261 1f86 77       		.byte	0x77
 7262 1f87 22       		.byte	0x22
 7263 1f88 39010000 		.long	0x139
 7264 1f8c 02       		.byte	0x2
 7265 1f8d 91       		.byte	0x91
 7266 1f8e 00       		.sleb128 0
 7267 1f8f 2C       		.uleb128 0x2c
 7268 1f90 656E6458 		.ascii "endX\0"
 7268      00
 7269 1f95 01       		.byte	0x1
 7270 1f96 77       		.byte	0x77
 7271 1f97 2E       		.byte	0x2e
 7272 1f98 39010000 		.long	0x139
 7273 1f9c 02       		.byte	0x2
 7274 1f9d 91       		.byte	0x91
 7275 1f9e 04       		.sleb128 4
 7276 1f9f 2C       		.uleb128 0x2c
 7277 1fa0 6275636B 		.ascii "bucket\0"
 7277      657400
 7278 1fa7 01       		.byte	0x1
 7279 1fa8 77       		.byte	0x77
 7280 1fa9 38       		.byte	0x38
 7281 1faa 39010000 		.long	0x139
 7282 1fae 02       		.byte	0x2
 7283 1faf 91       		.byte	0x91
 7284 1fb0 08       		.sleb128 8
 7285 1fb1 2C       		.uleb128 0x2c
 7286 1fb2 76616C75 		.ascii "value\0"
 7286      6500
 7287 1fb8 01       		.byte	0x1
 7288 1fb9 77       		.byte	0x77
 7289 1fba 44       		.byte	0x44
 7290 1fbb 39010000 		.long	0x139
 7291 1fbf 02       		.byte	0x2
 7292 1fc0 91       		.byte	0x91
GAS LISTING C:\Users\jisu8\AppData\Local\Temp\cc0IqG7f.s 			page 165


 7293 1fc1 0C       		.sleb128 12
 7294 1fc2 00       		.byte	0
 7295 1fc3 2B       		.uleb128 0x2b
 7296 1fc4 47657443 		.ascii "GetCodewordBucketNumber\0"
 7296      6F646577 
 7296      6F726442 
 7296      75636B65 
 7296      744E756D 
 7297 1fdc 01       		.byte	0x1
 7298 1fdd 72       		.byte	0x72
 7299 1fde 0C       		.byte	0xc
 7300 1fdf 01       		.byte	0x1
 7301 1fe0 39010000 		.long	0x139
 7302 1fe4 0E030000 		.long	LFB9
 7303 1fe8 29030000 		.long	LFE9
 7304 1fec 78050000 		.secrel32	LLST5
 7305 1ff0 01       		.byte	0x1
 7306 1ff1 05200000 		.long	0x2005
 7307 1ff5 29       		.uleb128 0x29
 7308 1ff6 8E000000 		.secrel32	LASF18
 7309 1ffa 01       		.byte	0x1
 7310 1ffb 72       		.byte	0x72
 7311 1ffc 28       		.byte	0x28
 7312 1ffd 39010000 		.long	0x139
 7313 2001 02       		.byte	0x2
 7314 2002 91       		.byte	0x91
 7315 2003 00       		.sleb128 0
 7316 2004 00       		.byte	0
 7317 2005 2E       		.uleb128 0x2e
 7318 2006 47657443 		.ascii "GetCodewordBucketNumberRet\0"
 7318      6F646577 
 7318      6F726442 
 7318      75636B65 
 7318      744E756D 
 7319 2021 01       		.byte	0x1
 7320 2022 6C       		.byte	0x6c
 7321 2023 0C       		.byte	0xc
 7322 2024 01       		.byte	0x1
 7323 2025 39010000 		.long	0x139
 7324 2029 C2020000 		.long	LFB8
 7325 202d 0E030000 		.long	LFE8
 7326 2031 B0050000 		.secrel32	LLST4
 7327 2035 01       		.byte	0x1
 7328 2036 4A200000 		.long	0x204a
 7329 203a 29       		.uleb128 0x29
 7330 203b 80010000 		.secrel32	LASF35
 7331 203f 01       		.byte	0x1
 7332 2040 6C       		.byte	0x6c
 7333 2041 33       		.byte	0x33
 7334 2042 CA110000 		.long	0x11ca
 7335 2046 02       		.byte	0x2
 7336 2047 91       		.byte	0x91
 7337 2048 00       		.sleb128 0
 7338 2049 00       		.byte	0
 7339 204a 2B       		.uleb128 0x2b
 7340 204b 47657442 		.ascii "GetBitCountForCodeword\0"
 7340      6974436F 
GAS LISTING C:\Users\jisu8\AppData\Local\Temp\cc0IqG7f.s 			page 166


 7340      756E7446 
 7340      6F72436F 
 7340      6465776F 
 7341 2062 01       		.byte	0x1
 7342 2063 53       		.byte	0x53
 7343 2064 0E       		.byte	0xe
 7344 2065 01       		.byte	0x1
 7345 2066 CF010000 		.long	0x1cf
 7346 206a 3C020000 		.long	LFB7
 7347 206e C2020000 		.long	LFE7
 7348 2072 E8050000 		.secrel32	LLST3
 7349 2076 01       		.byte	0x1
 7350 2077 CA200000 		.long	0x20ca
 7351 207b 29       		.uleb128 0x29
 7352 207c 8E000000 		.secrel32	LASF18
 7353 2080 01       		.byte	0x1
 7354 2081 53       		.byte	0x53
 7355 2082 29       		.byte	0x29
 7356 2083 39010000 		.long	0x139
 7357 2087 02       		.byte	0x2
 7358 2088 91       		.byte	0x91
 7359 2089 00       		.sleb128 0
 7360 208a 26       		.uleb128 0x26
 7361 208b 01       		.byte	0x1
 7362 208c 53010000 		.secrel32	LASF29
 7363 2090 13       		.byte	0x13
 7364 2091 00       		.byte	0
 7365 2092 01       		.byte	0x1
 7366 2093 39010000 		.long	0x139
 7367 2097 01       		.byte	0x1
 7368 2098 A3200000 		.long	0x20a3
 7369 209c 22       		.uleb128 0x22
 7370 209d D0110000 		.long	0x11d0
 7371 20a1 23       		.uleb128 0x23
 7372 20a2 00       		.byte	0
 7373 20a3 13       		.uleb128 0x13
 7374 20a4 70726576 		.ascii "previousValue\0"
 7374      696F7573 
 7374      56616C75 
 7374      6500
 7375 20b2 01       		.byte	0x1
 7376 20b3 59       		.byte	0x59
 7377 20b4 06       		.byte	0x6
 7378 20b5 39010000 		.long	0x139
 7379 20b9 02       		.byte	0x2
 7380 20ba 91       		.byte	0x91
 7381 20bb 6C       		.sleb128 -20
 7382 20bc 13       		.uleb128 0x13
 7383 20bd 6900     		.ascii "i\0"
 7384 20bf 01       		.byte	0x1
 7385 20c0 5A       		.byte	0x5a
 7386 20c1 06       		.byte	0x6
 7387 20c2 39010000 		.long	0x139
 7388 20c6 02       		.byte	0x2
 7389 20c7 91       		.byte	0x91
 7390 20c8 68       		.sleb128 -24
 7391 20c9 00       		.byte	0
GAS LISTING C:\Users\jisu8\AppData\Local\Temp\cc0IqG7f.s 			page 167


 7392 20ca 2E       		.uleb128 0x2e
 7393 20cb 43686563 		.ascii "CheckCodewordSkew\0"
 7393      6B436F64 
 7393      65776F72 
 7393      64536B65 
 7393      7700
 7394 20dd 01       		.byte	0x1
 7395 20de 4D       		.byte	0x4d
 7396 20df 10       		.byte	0x10
 7397 20e0 01       		.byte	0x1
 7398 20e1 31020000 		.long	0x231
 7399 20e5 0D020000 		.long	LFB6
 7400 20e9 3C020000 		.long	LFE6
 7401 20ed 20060000 		.secrel32	LLST2
 7402 20f1 01       		.byte	0x1
 7403 20f2 2D210000 		.long	0x212d
 7404 20f6 2C       		.uleb128 0x2c
 7405 20f7 636F6465 		.ascii "codewordSize\0"
 7405      776F7264 
 7405      53697A65 
 7405      00
 7406 2104 01       		.byte	0x1
 7407 2105 4D       		.byte	0x4d
 7408 2106 26       		.byte	0x26
 7409 2107 39010000 		.long	0x139
 7410 210b 02       		.byte	0x2
 7411 210c 91       		.byte	0x91
 7412 210d 00       		.sleb128 0
 7413 210e 29       		.uleb128 0x29
 7414 210f EC000000 		.secrel32	LASF5
 7415 2113 01       		.byte	0x1
 7416 2114 4D       		.byte	0x4d
 7417 2115 38       		.byte	0x38
 7418 2116 39010000 		.long	0x139
 7419 211a 02       		.byte	0x2
 7420 211b 91       		.byte	0x91
 7421 211c 04       		.sleb128 4
 7422 211d 29       		.uleb128 0x29
 7423 211e 21000000 		.secrel32	LASF6
 7424 2122 01       		.byte	0x1
 7425 2123 4D       		.byte	0x4d
 7426 2124 4E       		.byte	0x4e
 7427 2125 39010000 		.long	0x139
 7428 2129 02       		.byte	0x2
 7429 212a 91       		.byte	0x91
 7430 212b 08       		.sleb128 8
 7431 212c 00       		.byte	0
 7432 212d 2B       		.uleb128 0x2b
 7433 212e 4765744D 		.ascii "GetModuleBitCount\0"
 7433      6F64756C 
 7433      65426974 
 7433      436F756E 
 7433      7400
 7434 2140 01       		.byte	0x1
 7435 2141 32       		.byte	0x32
 7436 2142 10       		.byte	0x10
 7437 2143 01       		.byte	0x1
GAS LISTING C:\Users\jisu8\AppData\Local\Temp\cc0IqG7f.s 			page 168


 7438 2144 31020000 		.long	0x231
 7439 2148 D3000000 		.long	LFB5
 7440 214c 0D020000 		.long	LFE5
 7441 2150 58060000 		.secrel32	LLST1
 7442 2154 01       		.byte	0x1
 7443 2155 47220000 		.long	0x2247
 7444 2159 29       		.uleb128 0x29
 7445 215a 88000000 		.secrel32	LASF4
 7446 215e 01       		.byte	0x1
 7447 215f 32       		.byte	0x32
 7448 2160 36       		.byte	0x36
 7449 2161 FF0D0000 		.long	0xdff
 7450 2165 02       		.byte	0x2
 7451 2166 91       		.byte	0x91
 7452 2167 00       		.sleb128 0
 7453 2168 29       		.uleb128 0x29
 7454 2169 A3010000 		.secrel32	LASF33
 7455 216d 01       		.byte	0x1
 7456 216e 32       		.byte	0x32
 7457 216f 41       		.byte	0x41
 7458 2170 39010000 		.long	0x139
 7459 2174 02       		.byte	0x2
 7460 2175 91       		.byte	0x91
 7461 2176 04       		.sleb128 4
 7462 2177 29       		.uleb128 0x29
 7463 2178 C6000000 		.secrel32	LASF34
 7464 217c 01       		.byte	0x1
 7465 217d 32       		.byte	0x32
 7466 217e 50       		.byte	0x50
 7467 217f 39010000 		.long	0x139
 7468 2183 02       		.byte	0x2
 7469 2184 91       		.byte	0x91
 7470 2185 08       		.sleb128 8
 7471 2186 29       		.uleb128 0x29
 7472 2187 67010000 		.secrel32	LASF14
 7473 218b 01       		.byte	0x1
 7474 218c 32       		.byte	0x32
 7475 218d 63       		.byte	0x63
 7476 218e 31020000 		.long	0x231
 7477 2192 02       		.byte	0x2
 7478 2193 91       		.byte	0x91
 7479 2194 5C       		.sleb128 -36
 7480 2195 29       		.uleb128 0x29
 7481 2196 44000000 		.secrel32	LASF16
 7482 219a 01       		.byte	0x1
 7483 219b 32       		.byte	0x32
 7484 219c 74       		.byte	0x74
 7485 219d 39010000 		.long	0x139
 7486 21a1 02       		.byte	0x2
 7487 21a2 91       		.byte	0x91
 7488 21a3 10       		.sleb128 16
 7489 21a4 29       		.uleb128 0x29
 7490 21a5 97000000 		.secrel32	LASF17
 7491 21a9 01       		.byte	0x1
 7492 21aa 32       		.byte	0x32
 7493 21ab 85       		.byte	0x85
 7494 21ac 39010000 		.long	0x139
GAS LISTING C:\Users\jisu8\AppData\Local\Temp\cc0IqG7f.s 			page 169


 7495 21b0 02       		.byte	0x2
 7496 21b1 91       		.byte	0x91
 7497 21b2 14       		.sleb128 20
 7498 21b3 29       		.uleb128 0x29
 7499 21b4 80010000 		.secrel32	LASF35
 7500 21b8 01       		.byte	0x1
 7501 21b9 32       		.byte	0x32
 7502 21ba 95       		.byte	0x95
 7503 21bb CF010000 		.long	0x1cf
 7504 21bf 02       		.byte	0x2
 7505 21c0 91       		.byte	0x91
 7506 21c1 18       		.sleb128 24
 7507 21c2 29       		.uleb128 0x29
 7508 21c3 9C010000 		.secrel32	LASF10
 7509 21c7 01       		.byte	0x1
 7510 21c8 32       		.byte	0x32
 7511 21c9 AD       		.byte	0xad
 7512 21ca 31020000 		.long	0x231
 7513 21ce 02       		.byte	0x2
 7514 21cf 91       		.byte	0x91
 7515 21d0 58       		.sleb128 -40
 7516 21d1 26       		.uleb128 0x26
 7517 21d2 01       		.byte	0x1
 7518 21d3 53010000 		.secrel32	LASF29
 7519 21d7 13       		.byte	0x13
 7520 21d8 00       		.byte	0
 7521 21d9 01       		.byte	0x1
 7522 21da 39010000 		.long	0x139
 7523 21de 01       		.byte	0x1
 7524 21df EA210000 		.long	0x21ea
 7525 21e3 22       		.uleb128 0x22
 7526 21e4 D0110000 		.long	0x11d0
 7527 21e8 23       		.uleb128 0x23
 7528 21e9 00       		.byte	0
 7529 21ea 13       		.uleb128 0x13
 7530 21eb 696D6167 		.ascii "imageColumn\0"
 7530      65436F6C 
 7530      756D6E00 
 7531 21f7 01       		.byte	0x1
 7532 21f8 38       		.byte	0x38
 7533 21f9 06       		.byte	0x6
 7534 21fa 39010000 		.long	0x139
 7535 21fe 02       		.byte	0x2
 7536 21ff 91       		.byte	0x91
 7537 2200 6C       		.sleb128 -20
 7538 2201 13       		.uleb128 0x13
 7539 2202 6D6F6475 		.ascii "moduleNumber\0"
 7539      6C654E75 
 7539      6D626572 
 7539      00
 7540 220f 01       		.byte	0x1
 7541 2210 39       		.byte	0x39
 7542 2211 0F       		.byte	0xf
 7543 2212 D8000000 		.long	0xd8
 7544 2216 02       		.byte	0x2
 7545 2217 91       		.byte	0x91
 7546 2218 68       		.sleb128 -24
GAS LISTING C:\Users\jisu8\AppData\Local\Temp\cc0IqG7f.s 			page 170


 7547 2219 2D       		.uleb128 0x2d
 7548 221a 32000000 		.secrel32	LASF32
 7549 221e 01       		.byte	0x1
 7550 221f 3A       		.byte	0x3a
 7551 2220 06       		.byte	0x6
 7552 2221 39010000 		.long	0x139
 7553 2225 02       		.byte	0x2
 7554 2226 91       		.byte	0x91
 7555 2227 60       		.sleb128 -32
 7556 2228 13       		.uleb128 0x13
 7557 2229 70726576 		.ascii "previousPixelValue\0"
 7557      696F7573 
 7557      50697865 
 7557      6C56616C 
 7557      756500
 7558 223c 01       		.byte	0x1
 7559 223d 3B       		.byte	0x3b
 7560 223e 0A       		.byte	0xa
 7561 223f 31020000 		.long	0x231
 7562 2243 02       		.byte	0x2
 7563 2244 91       		.byte	0x91
 7564 2245 67       		.sleb128 -25
 7565 2246 00       		.byte	0
 7566 2247 2F       		.uleb128 0x2f
 7567 2248 41646A75 		.ascii "AdjustCodewordStartColumn\0"
 7567      7374436F 
 7567      6465776F 
 7567      72645374 
 7567      61727443 
 7568 2262 01       		.byte	0x1
 7569 2263 18       		.byte	0x18
 7570 2264 0C       		.byte	0xc
 7571 2265 01       		.byte	0x1
 7572 2266 39010000 		.long	0x139
 7573 226a 00000000 		.long	LFB4
 7574 226e D3000000 		.long	LFE4
 7575 2272 90060000 		.secrel32	LLST0
 7576 2276 01       		.byte	0x1
 7577 2277 29       		.uleb128 0x29
 7578 2278 88000000 		.secrel32	LASF4
 7579 227c 01       		.byte	0x1
 7580 227d 18       		.byte	0x18
 7581 227e 3A       		.byte	0x3a
 7582 227f FF0D0000 		.long	0xdff
 7583 2283 02       		.byte	0x2
 7584 2284 91       		.byte	0x91
 7585 2285 00       		.sleb128 0
 7586 2286 29       		.uleb128 0x29
 7587 2287 A3010000 		.secrel32	LASF33
 7588 228b 01       		.byte	0x1
 7589 228c 18       		.byte	0x18
 7590 228d 45       		.byte	0x45
 7591 228e 39010000 		.long	0x139
 7592 2292 02       		.byte	0x2
 7593 2293 91       		.byte	0x91
 7594 2294 04       		.sleb128 4
 7595 2295 29       		.uleb128 0x29
GAS LISTING C:\Users\jisu8\AppData\Local\Temp\cc0IqG7f.s 			page 171


 7596 2296 C6000000 		.secrel32	LASF34
 7597 229a 01       		.byte	0x1
 7598 229b 18       		.byte	0x18
 7599 229c 54       		.byte	0x54
 7600 229d 39010000 		.long	0x139
 7601 22a1 02       		.byte	0x2
 7602 22a2 91       		.byte	0x91
 7603 22a3 08       		.sleb128 8
 7604 22a4 29       		.uleb128 0x29
 7605 22a5 67010000 		.secrel32	LASF14
 7606 22a9 01       		.byte	0x1
 7607 22aa 18       		.byte	0x18
 7608 22ab 67       		.byte	0x67
 7609 22ac 31020000 		.long	0x231
 7610 22b0 02       		.byte	0x2
 7611 22b1 91       		.byte	0x91
 7612 22b2 5C       		.sleb128 -36
 7613 22b3 2C       		.uleb128 0x2c
 7614 22b4 636F6465 		.ascii "codewordStartColumn\0"
 7614      776F7264 
 7614      53746172 
 7614      74436F6C 
 7614      756D6E00 
 7615 22c8 01       		.byte	0x1
 7616 22c9 18       		.byte	0x18
 7617 22ca 78       		.byte	0x78
 7618 22cb 39010000 		.long	0x139
 7619 22cf 02       		.byte	0x2
 7620 22d0 91       		.byte	0x91
 7621 22d1 10       		.sleb128 16
 7622 22d2 29       		.uleb128 0x29
 7623 22d3 97000000 		.secrel32	LASF17
 7624 22d7 01       		.byte	0x1
 7625 22d8 18       		.byte	0x18
 7626 22d9 91       		.byte	0x91
 7627 22da 39010000 		.long	0x139
 7628 22de 02       		.byte	0x2
 7629 22df 91       		.byte	0x91
 7630 22e0 14       		.sleb128 20
 7631 22e1 26       		.uleb128 0x26
 7632 22e2 01       		.byte	0x1
 7633 22e3 53010000 		.secrel32	LASF29
 7634 22e7 13       		.byte	0x13
 7635 22e8 00       		.byte	0
 7636 22e9 01       		.byte	0x1
 7637 22ea 39010000 		.long	0x139
 7638 22ee 01       		.byte	0x1
 7639 22ef FA220000 		.long	0x22fa
 7640 22f3 22       		.uleb128 0x22
 7641 22f4 D0110000 		.long	0x11d0
 7642 22f8 23       		.uleb128 0x23
 7643 22f9 00       		.byte	0
 7644 22fa 13       		.uleb128 0x13
 7645 22fb 636F7272 		.ascii "correctedStartColumn\0"
 7645      65637465 
 7645      64537461 
 7645      7274436F 
GAS LISTING C:\Users\jisu8\AppData\Local\Temp\cc0IqG7f.s 			page 172


 7645      6C756D6E 
 7646 2310 01       		.byte	0x1
 7647 2311 1E       		.byte	0x1e
 7648 2312 06       		.byte	0x6
 7649 2313 39010000 		.long	0x139
 7650 2317 02       		.byte	0x2
 7651 2318 91       		.byte	0x91
 7652 2319 6C       		.sleb128 -20
 7653 231a 2D       		.uleb128 0x2d
 7654 231b 32000000 		.secrel32	LASF32
 7655 231f 01       		.byte	0x1
 7656 2320 1F       		.byte	0x1f
 7657 2321 06       		.byte	0x6
 7658 2322 39010000 		.long	0x139
 7659 2326 02       		.byte	0x2
 7660 2327 91       		.byte	0x91
 7661 2328 68       		.sleb128 -24
 7662 2329 1C       		.uleb128 0x1c
 7663 232a 57000000 		.long	LBB2
 7664 232e CE000000 		.long	LBE2
 7665 2332 13       		.uleb128 0x13
 7666 2333 6900     		.ascii "i\0"
 7667 2335 01       		.byte	0x1
 7668 2336 21       		.byte	0x21
 7669 2337 0B       		.byte	0xb
 7670 2338 39010000 		.long	0x139
 7671 233c 02       		.byte	0x2
 7672 233d 91       		.byte	0x91
 7673 233e 64       		.sleb128 -28
 7674 233f 00       		.byte	0
 7675 2340 00       		.byte	0
 7676 2341 00       		.byte	0
 7677              		.section	.debug_abbrev,"dr"
 7678              	Ldebug_abbrev0:
 7679 0000 01       		.uleb128 0x1
 7680 0001 11       		.uleb128 0x11
 7681 0002 01       		.byte	0x1
 7682 0003 25       		.uleb128 0x25
 7683 0004 08       		.uleb128 0x8
 7684 0005 13       		.uleb128 0x13
 7685 0006 0B       		.uleb128 0xb
 7686 0007 03       		.uleb128 0x3
 7687 0008 08       		.uleb128 0x8
 7688 0009 1B       		.uleb128 0x1b
 7689 000a 08       		.uleb128 0x8
 7690 000b 11       		.uleb128 0x11
 7691 000c 01       		.uleb128 0x1
 7692 000d 12       		.uleb128 0x12
 7693 000e 01       		.uleb128 0x1
 7694 000f 10       		.uleb128 0x10
 7695 0010 06       		.uleb128 0x6
 7696 0011 00       		.byte	0
 7697 0012 00       		.byte	0
 7698 0013 02       		.uleb128 0x2
 7699 0014 04       		.uleb128 0x4
 7700 0015 01       		.byte	0x1
 7701 0016 3E       		.uleb128 0x3e
GAS LISTING C:\Users\jisu8\AppData\Local\Temp\cc0IqG7f.s 			page 173


 7702 0017 0B       		.uleb128 0xb
 7703 0018 0B       		.uleb128 0xb
 7704 0019 0B       		.uleb128 0xb
 7705 001a 49       		.uleb128 0x49
 7706 001b 13       		.uleb128 0x13
 7707 001c 3A       		.uleb128 0x3a
 7708 001d 0B       		.uleb128 0xb
 7709 001e 3B       		.uleb128 0x3b
 7710 001f 0B       		.uleb128 0xb
 7711 0020 39       		.uleb128 0x39
 7712 0021 0B       		.uleb128 0xb
 7713 0022 01       		.uleb128 0x1
 7714 0023 13       		.uleb128 0x13
 7715 0024 00       		.byte	0
 7716 0025 00       		.byte	0
 7717 0026 03       		.uleb128 0x3
 7718 0027 28       		.uleb128 0x28
 7719 0028 00       		.byte	0
 7720 0029 03       		.uleb128 0x3
 7721 002a 08       		.uleb128 0x8
 7722 002b 1C       		.uleb128 0x1c
 7723 002c 0B       		.uleb128 0xb
 7724 002d 00       		.byte	0
 7725 002e 00       		.byte	0
 7726 002f 04       		.uleb128 0x4
 7727 0030 24       		.uleb128 0x24
 7728 0031 00       		.byte	0
 7729 0032 0B       		.uleb128 0xb
 7730 0033 0B       		.uleb128 0xb
 7731 0034 3E       		.uleb128 0x3e
 7732 0035 0B       		.uleb128 0xb
 7733 0036 03       		.uleb128 0x3
 7734 0037 08       		.uleb128 0x8
 7735 0038 00       		.byte	0
 7736 0039 00       		.byte	0
 7737 003a 05       		.uleb128 0x5
 7738 003b 16       		.uleb128 0x16
 7739 003c 00       		.byte	0
 7740 003d 03       		.uleb128 0x3
 7741 003e 08       		.uleb128 0x8
 7742 003f 3A       		.uleb128 0x3a
 7743 0040 0B       		.uleb128 0xb
 7744 0041 3B       		.uleb128 0x3b
 7745 0042 0B       		.uleb128 0xb
 7746 0043 39       		.uleb128 0x39
 7747 0044 0B       		.uleb128 0xb
 7748 0045 49       		.uleb128 0x49
 7749 0046 13       		.uleb128 0x13
 7750 0047 00       		.byte	0
 7751 0048 00       		.byte	0
 7752 0049 06       		.uleb128 0x6
 7753 004a 13       		.uleb128 0x13
 7754 004b 01       		.byte	0x1
 7755 004c 0B       		.uleb128 0xb
 7756 004d 0B       		.uleb128 0xb
 7757 004e 3A       		.uleb128 0x3a
 7758 004f 0B       		.uleb128 0xb
GAS LISTING C:\Users\jisu8\AppData\Local\Temp\cc0IqG7f.s 			page 174


 7759 0050 3B       		.uleb128 0x3b
 7760 0051 0B       		.uleb128 0xb
 7761 0052 39       		.uleb128 0x39
 7762 0053 0B       		.uleb128 0xb
 7763 0054 01       		.uleb128 0x1
 7764 0055 13       		.uleb128 0x13
 7765 0056 00       		.byte	0
 7766 0057 00       		.byte	0
 7767 0058 07       		.uleb128 0x7
 7768 0059 0D       		.uleb128 0xd
 7769 005a 00       		.byte	0
 7770 005b 03       		.uleb128 0x3
 7771 005c 08       		.uleb128 0x8
 7772 005d 3A       		.uleb128 0x3a
 7773 005e 0B       		.uleb128 0xb
 7774 005f 3B       		.uleb128 0x3b
 7775 0060 0B       		.uleb128 0xb
 7776 0061 39       		.uleb128 0x39
 7777 0062 0B       		.uleb128 0xb
 7778 0063 49       		.uleb128 0x49
 7779 0064 13       		.uleb128 0x13
 7780 0065 38       		.uleb128 0x38
 7781 0066 0A       		.uleb128 0xa
 7782 0067 00       		.byte	0
 7783 0068 00       		.byte	0
 7784 0069 08       		.uleb128 0x8
 7785 006a 26       		.uleb128 0x26
 7786 006b 00       		.byte	0
 7787 006c 49       		.uleb128 0x49
 7788 006d 13       		.uleb128 0x13
 7789 006e 00       		.byte	0
 7790 006f 00       		.byte	0
 7791 0070 09       		.uleb128 0x9
 7792 0071 0F       		.uleb128 0xf
 7793 0072 00       		.byte	0
 7794 0073 0B       		.uleb128 0xb
 7795 0074 0B       		.uleb128 0xb
 7796 0075 49       		.uleb128 0x49
 7797 0076 13       		.uleb128 0x13
 7798 0077 00       		.byte	0
 7799 0078 00       		.byte	0
 7800 0079 0A       		.uleb128 0xa
 7801 007a 0D       		.uleb128 0xd
 7802 007b 00       		.byte	0
 7803 007c 03       		.uleb128 0x3
 7804 007d 0E       		.uleb128 0xe
 7805 007e 3A       		.uleb128 0x3a
 7806 007f 0B       		.uleb128 0xb
 7807 0080 3B       		.uleb128 0x3b
 7808 0081 0B       		.uleb128 0xb
 7809 0082 39       		.uleb128 0x39
 7810 0083 0B       		.uleb128 0xb
 7811 0084 49       		.uleb128 0x49
 7812 0085 13       		.uleb128 0x13
 7813 0086 38       		.uleb128 0x38
 7814 0087 0A       		.uleb128 0xa
 7815 0088 00       		.byte	0
GAS LISTING C:\Users\jisu8\AppData\Local\Temp\cc0IqG7f.s 			page 175


 7816 0089 00       		.byte	0
 7817 008a 0B       		.uleb128 0xb
 7818 008b 13       		.uleb128 0x13
 7819 008c 01       		.byte	0x1
 7820 008d 0B       		.uleb128 0xb
 7821 008e 05       		.uleb128 0x5
 7822 008f 3A       		.uleb128 0x3a
 7823 0090 0B       		.uleb128 0xb
 7824 0091 3B       		.uleb128 0x3b
 7825 0092 0B       		.uleb128 0xb
 7826 0093 39       		.uleb128 0x39
 7827 0094 0B       		.uleb128 0xb
 7828 0095 01       		.uleb128 0x1
 7829 0096 13       		.uleb128 0x13
 7830 0097 00       		.byte	0
 7831 0098 00       		.byte	0
 7832 0099 0C       		.uleb128 0xc
 7833 009a 01       		.uleb128 0x1
 7834 009b 01       		.byte	0x1
 7835 009c 49       		.uleb128 0x49
 7836 009d 13       		.uleb128 0x13
 7837 009e 01       		.uleb128 0x1
 7838 009f 13       		.uleb128 0x13
 7839 00a0 00       		.byte	0
 7840 00a1 00       		.byte	0
 7841 00a2 0D       		.uleb128 0xd
 7842 00a3 21       		.uleb128 0x21
 7843 00a4 00       		.byte	0
 7844 00a5 49       		.uleb128 0x49
 7845 00a6 13       		.uleb128 0x13
 7846 00a7 2F       		.uleb128 0x2f
 7847 00a8 05       		.uleb128 0x5
 7848 00a9 00       		.byte	0
 7849 00aa 00       		.byte	0
 7850 00ab 0E       		.uleb128 0xe
 7851 00ac 34       		.uleb128 0x34
 7852 00ad 00       		.byte	0
 7853 00ae 03       		.uleb128 0x3
 7854 00af 08       		.uleb128 0x8
 7855 00b0 3A       		.uleb128 0x3a
 7856 00b1 0B       		.uleb128 0xb
 7857 00b2 3B       		.uleb128 0x3b
 7858 00b3 0B       		.uleb128 0xb
 7859 00b4 39       		.uleb128 0x39
 7860 00b5 0B       		.uleb128 0xb
 7861 00b6 49       		.uleb128 0x49
 7862 00b7 13       		.uleb128 0x13
 7863 00b8 3F       		.uleb128 0x3f
 7864 00b9 0C       		.uleb128 0xc
 7865 00ba 3C       		.uleb128 0x3c
 7866 00bb 0C       		.uleb128 0xc
 7867 00bc 00       		.byte	0
 7868 00bd 00       		.byte	0
 7869 00be 0F       		.uleb128 0xf
 7870 00bf 34       		.uleb128 0x34
 7871 00c0 00       		.byte	0
 7872 00c1 03       		.uleb128 0x3
GAS LISTING C:\Users\jisu8\AppData\Local\Temp\cc0IqG7f.s 			page 176


 7873 00c2 0E       		.uleb128 0xe
 7874 00c3 3A       		.uleb128 0x3a
 7875 00c4 0B       		.uleb128 0xb
 7876 00c5 3B       		.uleb128 0x3b
 7877 00c6 0B       		.uleb128 0xb
 7878 00c7 39       		.uleb128 0x39
 7879 00c8 0B       		.uleb128 0xb
 7880 00c9 49       		.uleb128 0x49
 7881 00ca 13       		.uleb128 0x13
 7882 00cb 3F       		.uleb128 0x3f
 7883 00cc 0C       		.uleb128 0xc
 7884 00cd 3C       		.uleb128 0x3c
 7885 00ce 0C       		.uleb128 0xc
 7886 00cf 00       		.byte	0
 7887 00d0 00       		.byte	0
 7888 00d1 10       		.uleb128 0x10
 7889 00d2 13       		.uleb128 0x13
 7890 00d3 01       		.byte	0x1
 7891 00d4 0B       		.uleb128 0xb
 7892 00d5 06       		.uleb128 0x6
 7893 00d6 3A       		.uleb128 0x3a
 7894 00d7 0B       		.uleb128 0xb
 7895 00d8 3B       		.uleb128 0x3b
 7896 00d9 0B       		.uleb128 0xb
 7897 00da 39       		.uleb128 0x39
 7898 00db 0B       		.uleb128 0xb
 7899 00dc 01       		.uleb128 0x1
 7900 00dd 13       		.uleb128 0x13
 7901 00de 00       		.byte	0
 7902 00df 00       		.byte	0
 7903 00e0 11       		.uleb128 0x11
 7904 00e1 21       		.uleb128 0x21
 7905 00e2 00       		.byte	0
 7906 00e3 49       		.uleb128 0x49
 7907 00e4 13       		.uleb128 0x13
 7908 00e5 2F       		.uleb128 0x2f
 7909 00e6 0B       		.uleb128 0xb
 7910 00e7 00       		.byte	0
 7911 00e8 00       		.byte	0
 7912 00e9 12       		.uleb128 0x12
 7913 00ea 34       		.uleb128 0x34
 7914 00eb 00       		.byte	0
 7915 00ec 03       		.uleb128 0x3
 7916 00ed 08       		.uleb128 0x8
 7917 00ee 3A       		.uleb128 0x3a
 7918 00ef 0B       		.uleb128 0xb
 7919 00f0 3B       		.uleb128 0x3b
 7920 00f1 05       		.uleb128 0x5
 7921 00f2 39       		.uleb128 0x39
 7922 00f3 0B       		.uleb128 0xb
 7923 00f4 49       		.uleb128 0x49
 7924 00f5 13       		.uleb128 0x13
 7925 00f6 3F       		.uleb128 0x3f
 7926 00f7 0C       		.uleb128 0xc
 7927 00f8 3C       		.uleb128 0x3c
 7928 00f9 0C       		.uleb128 0xc
 7929 00fa 00       		.byte	0
GAS LISTING C:\Users\jisu8\AppData\Local\Temp\cc0IqG7f.s 			page 177


 7930 00fb 00       		.byte	0
 7931 00fc 13       		.uleb128 0x13
 7932 00fd 34       		.uleb128 0x34
 7933 00fe 00       		.byte	0
 7934 00ff 03       		.uleb128 0x3
 7935 0100 08       		.uleb128 0x8
 7936 0101 3A       		.uleb128 0x3a
 7937 0102 0B       		.uleb128 0xb
 7938 0103 3B       		.uleb128 0x3b
 7939 0104 0B       		.uleb128 0xb
 7940 0105 39       		.uleb128 0x39
 7941 0106 0B       		.uleb128 0xb
 7942 0107 49       		.uleb128 0x49
 7943 0108 13       		.uleb128 0x13
 7944 0109 02       		.uleb128 0x2
 7945 010a 0A       		.uleb128 0xa
 7946 010b 00       		.byte	0
 7947 010c 00       		.byte	0
 7948 010d 14       		.uleb128 0x14
 7949 010e 34       		.uleb128 0x34
 7950 010f 00       		.byte	0
 7951 0110 47       		.uleb128 0x47
 7952 0111 13       		.uleb128 0x13
 7953 0112 3A       		.uleb128 0x3a
 7954 0113 0B       		.uleb128 0xb
 7955 0114 3B       		.uleb128 0x3b
 7956 0115 0B       		.uleb128 0xb
 7957 0116 39       		.uleb128 0x39
 7958 0117 0B       		.uleb128 0xb
 7959 0118 02       		.uleb128 0x2
 7960 0119 0A       		.uleb128 0xa
 7961 011a 00       		.byte	0
 7962 011b 00       		.byte	0
 7963 011c 15       		.uleb128 0x15
 7964 011d 34       		.uleb128 0x34
 7965 011e 00       		.byte	0
 7966 011f 03       		.uleb128 0x3
 7967 0120 08       		.uleb128 0x8
 7968 0121 3A       		.uleb128 0x3a
 7969 0122 0B       		.uleb128 0xb
 7970 0123 3B       		.uleb128 0x3b
 7971 0124 0B       		.uleb128 0xb
 7972 0125 39       		.uleb128 0x39
 7973 0126 0B       		.uleb128 0xb
 7974 0127 49       		.uleb128 0x49
 7975 0128 13       		.uleb128 0x13
 7976 0129 3F       		.uleb128 0x3f
 7977 012a 0C       		.uleb128 0xc
 7978 012b 02       		.uleb128 0x2
 7979 012c 0A       		.uleb128 0xa
 7980 012d 00       		.byte	0
 7981 012e 00       		.byte	0
 7982 012f 16       		.uleb128 0x16
 7983 0130 2E       		.uleb128 0x2e
 7984 0131 01       		.byte	0x1
 7985 0132 3F       		.uleb128 0x3f
 7986 0133 0C       		.uleb128 0xc
GAS LISTING C:\Users\jisu8\AppData\Local\Temp\cc0IqG7f.s 			page 178


 7987 0134 03       		.uleb128 0x3
 7988 0135 08       		.uleb128 0x8
 7989 0136 3A       		.uleb128 0x3a
 7990 0137 0B       		.uleb128 0xb
 7991 0138 3B       		.uleb128 0x3b
 7992 0139 05       		.uleb128 0x5
 7993 013a 39       		.uleb128 0x39
 7994 013b 0B       		.uleb128 0xb
 7995 013c 27       		.uleb128 0x27
 7996 013d 0C       		.uleb128 0xc
 7997 013e 49       		.uleb128 0x49
 7998 013f 13       		.uleb128 0x13
 7999 0140 11       		.uleb128 0x11
 8000 0141 01       		.uleb128 0x1
 8001 0142 12       		.uleb128 0x12
 8002 0143 01       		.uleb128 0x1
 8003 0144 40       		.uleb128 0x40
 8004 0145 06       		.uleb128 0x6
 8005 0146 9642     		.uleb128 0x2116
 8006 0148 0C       		.uleb128 0xc
 8007 0149 01       		.uleb128 0x1
 8008 014a 13       		.uleb128 0x13
 8009 014b 00       		.byte	0
 8010 014c 00       		.byte	0
 8011 014d 17       		.uleb128 0x17
 8012 014e 05       		.uleb128 0x5
 8013 014f 00       		.byte	0
 8014 0150 03       		.uleb128 0x3
 8015 0151 0E       		.uleb128 0xe
 8016 0152 3A       		.uleb128 0x3a
 8017 0153 0B       		.uleb128 0xb
 8018 0154 3B       		.uleb128 0x3b
 8019 0155 05       		.uleb128 0x5
 8020 0156 39       		.uleb128 0x39
 8021 0157 0B       		.uleb128 0xb
 8022 0158 49       		.uleb128 0x49
 8023 0159 13       		.uleb128 0x13
 8024 015a 02       		.uleb128 0x2
 8025 015b 0A       		.uleb128 0xa
 8026 015c 00       		.byte	0
 8027 015d 00       		.byte	0
 8028 015e 18       		.uleb128 0x18
 8029 015f 05       		.uleb128 0x5
 8030 0160 00       		.byte	0
 8031 0161 03       		.uleb128 0x3
 8032 0162 08       		.uleb128 0x8
 8033 0163 3A       		.uleb128 0x3a
 8034 0164 0B       		.uleb128 0xb
 8035 0165 3B       		.uleb128 0x3b
 8036 0166 05       		.uleb128 0x5
 8037 0167 39       		.uleb128 0x39
 8038 0168 0B       		.uleb128 0xb
 8039 0169 49       		.uleb128 0x49
 8040 016a 13       		.uleb128 0x13
 8041 016b 02       		.uleb128 0x2
 8042 016c 0A       		.uleb128 0xa
 8043 016d 00       		.byte	0
GAS LISTING C:\Users\jisu8\AppData\Local\Temp\cc0IqG7f.s 			page 179


 8044 016e 00       		.byte	0
 8045 016f 19       		.uleb128 0x19
 8046 0170 34       		.uleb128 0x34
 8047 0171 00       		.byte	0
 8048 0172 03       		.uleb128 0x3
 8049 0173 0E       		.uleb128 0xe
 8050 0174 3A       		.uleb128 0x3a
 8051 0175 0B       		.uleb128 0xb
 8052 0176 3B       		.uleb128 0x3b
 8053 0177 05       		.uleb128 0x5
 8054 0178 39       		.uleb128 0x39
 8055 0179 0B       		.uleb128 0xb
 8056 017a 49       		.uleb128 0x49
 8057 017b 13       		.uleb128 0x13
 8058 017c 02       		.uleb128 0x2
 8059 017d 0A       		.uleb128 0xa
 8060 017e 00       		.byte	0
 8061 017f 00       		.byte	0
 8062 0180 1A       		.uleb128 0x1a
 8063 0181 34       		.uleb128 0x34
 8064 0182 00       		.byte	0
 8065 0183 03       		.uleb128 0x3
 8066 0184 08       		.uleb128 0x8
 8067 0185 3A       		.uleb128 0x3a
 8068 0186 0B       		.uleb128 0xb
 8069 0187 3B       		.uleb128 0x3b
 8070 0188 05       		.uleb128 0x5
 8071 0189 39       		.uleb128 0x39
 8072 018a 0B       		.uleb128 0xb
 8073 018b 49       		.uleb128 0x49
 8074 018c 13       		.uleb128 0x13
 8075 018d 02       		.uleb128 0x2
 8076 018e 0A       		.uleb128 0xa
 8077 018f 00       		.byte	0
 8078 0190 00       		.byte	0
 8079 0191 1B       		.uleb128 0x1b
 8080 0192 0B       		.uleb128 0xb
 8081 0193 01       		.byte	0x1
 8082 0194 11       		.uleb128 0x11
 8083 0195 01       		.uleb128 0x1
 8084 0196 12       		.uleb128 0x12
 8085 0197 01       		.uleb128 0x1
 8086 0198 01       		.uleb128 0x1
 8087 0199 13       		.uleb128 0x13
 8088 019a 00       		.byte	0
 8089 019b 00       		.byte	0
 8090 019c 1C       		.uleb128 0x1c
 8091 019d 0B       		.uleb128 0xb
 8092 019e 01       		.byte	0x1
 8093 019f 11       		.uleb128 0x11
 8094 01a0 01       		.uleb128 0x1
 8095 01a1 12       		.uleb128 0x12
 8096 01a2 01       		.uleb128 0x1
 8097 01a3 00       		.byte	0
 8098 01a4 00       		.byte	0
 8099 01a5 1D       		.uleb128 0x1d
 8100 01a6 2E       		.uleb128 0x2e
GAS LISTING C:\Users\jisu8\AppData\Local\Temp\cc0IqG7f.s 			page 180


 8101 01a7 01       		.byte	0x1
 8102 01a8 03       		.uleb128 0x3
 8103 01a9 08       		.uleb128 0x8
 8104 01aa 3A       		.uleb128 0x3a
 8105 01ab 0B       		.uleb128 0xb
 8106 01ac 3B       		.uleb128 0x3b
 8107 01ad 05       		.uleb128 0x5
 8108 01ae 39       		.uleb128 0x39
 8109 01af 0B       		.uleb128 0xb
 8110 01b0 27       		.uleb128 0x27
 8111 01b1 0C       		.uleb128 0xc
 8112 01b2 49       		.uleb128 0x49
 8113 01b3 13       		.uleb128 0x13
 8114 01b4 11       		.uleb128 0x11
 8115 01b5 01       		.uleb128 0x1
 8116 01b6 12       		.uleb128 0x12
 8117 01b7 01       		.uleb128 0x1
 8118 01b8 40       		.uleb128 0x40
 8119 01b9 06       		.uleb128 0x6
 8120 01ba 9642     		.uleb128 0x2116
 8121 01bc 0C       		.uleb128 0xc
 8122 01bd 01       		.uleb128 0x1
 8123 01be 13       		.uleb128 0x13
 8124 01bf 00       		.byte	0
 8125 01c0 00       		.byte	0
 8126 01c1 1E       		.uleb128 0x1e
 8127 01c2 21       		.uleb128 0x21
 8128 01c3 00       		.byte	0
 8129 01c4 49       		.uleb128 0x49
 8130 01c5 13       		.uleb128 0x13
 8131 01c6 2F       		.uleb128 0x2f
 8132 01c7 0A       		.uleb128 0xa
 8133 01c8 00       		.byte	0
 8134 01c9 00       		.byte	0
 8135 01ca 1F       		.uleb128 0x1f
 8136 01cb 2E       		.uleb128 0x2e
 8137 01cc 01       		.byte	0x1
 8138 01cd 03       		.uleb128 0x3
 8139 01ce 08       		.uleb128 0x8
 8140 01cf 3A       		.uleb128 0x3a
 8141 01d0 0B       		.uleb128 0xb
 8142 01d1 3B       		.uleb128 0x3b
 8143 01d2 05       		.uleb128 0x5
 8144 01d3 39       		.uleb128 0x39
 8145 01d4 0B       		.uleb128 0xb
 8146 01d5 27       		.uleb128 0x27
 8147 01d6 0C       		.uleb128 0xc
 8148 01d7 49       		.uleb128 0x49
 8149 01d8 13       		.uleb128 0x13
 8150 01d9 11       		.uleb128 0x11
 8151 01da 01       		.uleb128 0x1
 8152 01db 12       		.uleb128 0x12
 8153 01dc 01       		.uleb128 0x1
 8154 01dd 40       		.uleb128 0x40
 8155 01de 06       		.uleb128 0x6
 8156 01df 9742     		.uleb128 0x2117
 8157 01e1 0C       		.uleb128 0xc
GAS LISTING C:\Users\jisu8\AppData\Local\Temp\cc0IqG7f.s 			page 181


 8158 01e2 01       		.uleb128 0x1
 8159 01e3 13       		.uleb128 0x13
 8160 01e4 00       		.byte	0
 8161 01e5 00       		.byte	0
 8162 01e6 20       		.uleb128 0x20
 8163 01e7 2E       		.uleb128 0x2e
 8164 01e8 01       		.byte	0x1
 8165 01e9 3F       		.uleb128 0x3f
 8166 01ea 0C       		.uleb128 0xc
 8167 01eb 03       		.uleb128 0x3
 8168 01ec 08       		.uleb128 0x8
 8169 01ed 3A       		.uleb128 0x3a
 8170 01ee 0B       		.uleb128 0xb
 8171 01ef 3B       		.uleb128 0x3b
 8172 01f0 05       		.uleb128 0x5
 8173 01f1 39       		.uleb128 0x39
 8174 01f2 0B       		.uleb128 0xb
 8175 01f3 27       		.uleb128 0x27
 8176 01f4 0C       		.uleb128 0xc
 8177 01f5 11       		.uleb128 0x11
 8178 01f6 01       		.uleb128 0x1
 8179 01f7 12       		.uleb128 0x12
 8180 01f8 01       		.uleb128 0x1
 8181 01f9 40       		.uleb128 0x40
 8182 01fa 06       		.uleb128 0x6
 8183 01fb 9742     		.uleb128 0x2117
 8184 01fd 0C       		.uleb128 0xc
 8185 01fe 01       		.uleb128 0x1
 8186 01ff 13       		.uleb128 0x13
 8187 0200 00       		.byte	0
 8188 0201 00       		.byte	0
 8189 0202 21       		.uleb128 0x21
 8190 0203 2E       		.uleb128 0x2e
 8191 0204 01       		.byte	0x1
 8192 0205 3F       		.uleb128 0x3f
 8193 0206 0C       		.uleb128 0xc
 8194 0207 03       		.uleb128 0x3
 8195 0208 0E       		.uleb128 0xe
 8196 0209 3A       		.uleb128 0x3a
 8197 020a 0B       		.uleb128 0xb
 8198 020b 3B       		.uleb128 0x3b
 8199 020c 0B       		.uleb128 0xb
 8200 020d 27       		.uleb128 0x27
 8201 020e 0C       		.uleb128 0xc
 8202 020f 49       		.uleb128 0x49
 8203 0210 13       		.uleb128 0x13
 8204 0211 3C       		.uleb128 0x3c
 8205 0212 0C       		.uleb128 0xc
 8206 0213 00       		.byte	0
 8207 0214 00       		.byte	0
 8208 0215 22       		.uleb128 0x22
 8209 0216 05       		.uleb128 0x5
 8210 0217 00       		.byte	0
 8211 0218 49       		.uleb128 0x49
 8212 0219 13       		.uleb128 0x13
 8213 021a 00       		.byte	0
 8214 021b 00       		.byte	0
GAS LISTING C:\Users\jisu8\AppData\Local\Temp\cc0IqG7f.s 			page 182


 8215 021c 23       		.uleb128 0x23
 8216 021d 18       		.uleb128 0x18
 8217 021e 00       		.byte	0
 8218 021f 00       		.byte	0
 8219 0220 00       		.byte	0
 8220 0221 24       		.uleb128 0x24
 8221 0222 2E       		.uleb128 0x2e
 8222 0223 01       		.byte	0x1
 8223 0224 3F       		.uleb128 0x3f
 8224 0225 0C       		.uleb128 0xc
 8225 0226 03       		.uleb128 0x3
 8226 0227 08       		.uleb128 0x8
 8227 0228 3A       		.uleb128 0x3a
 8228 0229 0B       		.uleb128 0xb
 8229 022a 3B       		.uleb128 0x3b
 8230 022b 05       		.uleb128 0x5
 8231 022c 39       		.uleb128 0x39
 8232 022d 0B       		.uleb128 0xb
 8233 022e 27       		.uleb128 0x27
 8234 022f 0C       		.uleb128 0xc
 8235 0230 49       		.uleb128 0x49
 8236 0231 13       		.uleb128 0x13
 8237 0232 11       		.uleb128 0x11
 8238 0233 01       		.uleb128 0x1
 8239 0234 12       		.uleb128 0x12
 8240 0235 01       		.uleb128 0x1
 8241 0236 40       		.uleb128 0x40
 8242 0237 0A       		.uleb128 0xa
 8243 0238 9742     		.uleb128 0x2117
 8244 023a 0C       		.uleb128 0xc
 8245 023b 01       		.uleb128 0x1
 8246 023c 13       		.uleb128 0x13
 8247 023d 00       		.byte	0
 8248 023e 00       		.byte	0
 8249 023f 25       		.uleb128 0x25
 8250 0240 2E       		.uleb128 0x2e
 8251 0241 01       		.byte	0x1
 8252 0242 03       		.uleb128 0x3
 8253 0243 08       		.uleb128 0x8
 8254 0244 3A       		.uleb128 0x3a
 8255 0245 0B       		.uleb128 0xb
 8256 0246 3B       		.uleb128 0x3b
 8257 0247 05       		.uleb128 0x5
 8258 0248 39       		.uleb128 0x39
 8259 0249 0B       		.uleb128 0xb
 8260 024a 27       		.uleb128 0x27
 8261 024b 0C       		.uleb128 0xc
 8262 024c 11       		.uleb128 0x11
 8263 024d 01       		.uleb128 0x1
 8264 024e 12       		.uleb128 0x12
 8265 024f 01       		.uleb128 0x1
 8266 0250 40       		.uleb128 0x40
 8267 0251 06       		.uleb128 0x6
 8268 0252 9642     		.uleb128 0x2116
 8269 0254 0C       		.uleb128 0xc
 8270 0255 01       		.uleb128 0x1
 8271 0256 13       		.uleb128 0x13
GAS LISTING C:\Users\jisu8\AppData\Local\Temp\cc0IqG7f.s 			page 183


 8272 0257 00       		.byte	0
 8273 0258 00       		.byte	0
 8274 0259 26       		.uleb128 0x26
 8275 025a 2E       		.uleb128 0x2e
 8276 025b 01       		.byte	0x1
 8277 025c 3F       		.uleb128 0x3f
 8278 025d 0C       		.uleb128 0xc
 8279 025e 03       		.uleb128 0x3
 8280 025f 0E       		.uleb128 0xe
 8281 0260 3A       		.uleb128 0x3a
 8282 0261 0B       		.uleb128 0xb
 8283 0262 3B       		.uleb128 0x3b
 8284 0263 0B       		.uleb128 0xb
 8285 0264 27       		.uleb128 0x27
 8286 0265 0C       		.uleb128 0xc
 8287 0266 49       		.uleb128 0x49
 8288 0267 13       		.uleb128 0x13
 8289 0268 3C       		.uleb128 0x3c
 8290 0269 0C       		.uleb128 0xc
 8291 026a 01       		.uleb128 0x1
 8292 026b 13       		.uleb128 0x13
 8293 026c 00       		.byte	0
 8294 026d 00       		.byte	0
 8295 026e 27       		.uleb128 0x27
 8296 026f 2E       		.uleb128 0x2e
 8297 0270 01       		.byte	0x1
 8298 0271 3F       		.uleb128 0x3f
 8299 0272 0C       		.uleb128 0xc
 8300 0273 03       		.uleb128 0x3
 8301 0274 08       		.uleb128 0x8
 8302 0275 3A       		.uleb128 0x3a
 8303 0276 0B       		.uleb128 0xb
 8304 0277 3B       		.uleb128 0x3b
 8305 0278 05       		.uleb128 0x5
 8306 0279 39       		.uleb128 0x39
 8307 027a 0B       		.uleb128 0xb
 8308 027b 49       		.uleb128 0x49
 8309 027c 13       		.uleb128 0x13
 8310 027d 3C       		.uleb128 0x3c
 8311 027e 0C       		.uleb128 0xc
 8312 027f 00       		.byte	0
 8313 0280 00       		.byte	0
 8314 0281 28       		.uleb128 0x28
 8315 0282 2E       		.uleb128 0x2e
 8316 0283 01       		.byte	0x1
 8317 0284 3F       		.uleb128 0x3f
 8318 0285 0C       		.uleb128 0xc
 8319 0286 03       		.uleb128 0x3
 8320 0287 08       		.uleb128 0x8
 8321 0288 3A       		.uleb128 0x3a
 8322 0289 0B       		.uleb128 0xb
 8323 028a 3B       		.uleb128 0x3b
 8324 028b 0B       		.uleb128 0xb
 8325 028c 39       		.uleb128 0x39
 8326 028d 0B       		.uleb128 0xb
 8327 028e 27       		.uleb128 0x27
 8328 028f 0C       		.uleb128 0xc
GAS LISTING C:\Users\jisu8\AppData\Local\Temp\cc0IqG7f.s 			page 184


 8329 0290 49       		.uleb128 0x49
 8330 0291 13       		.uleb128 0x13
 8331 0292 11       		.uleb128 0x11
 8332 0293 01       		.uleb128 0x1
 8333 0294 12       		.uleb128 0x12
 8334 0295 01       		.uleb128 0x1
 8335 0296 40       		.uleb128 0x40
 8336 0297 06       		.uleb128 0x6
 8337 0298 9742     		.uleb128 0x2117
 8338 029a 0C       		.uleb128 0xc
 8339 029b 01       		.uleb128 0x1
 8340 029c 13       		.uleb128 0x13
 8341 029d 00       		.byte	0
 8342 029e 00       		.byte	0
 8343 029f 29       		.uleb128 0x29
 8344 02a0 05       		.uleb128 0x5
 8345 02a1 00       		.byte	0
 8346 02a2 03       		.uleb128 0x3
 8347 02a3 0E       		.uleb128 0xe
 8348 02a4 3A       		.uleb128 0x3a
 8349 02a5 0B       		.uleb128 0xb
 8350 02a6 3B       		.uleb128 0x3b
 8351 02a7 0B       		.uleb128 0xb
 8352 02a8 39       		.uleb128 0x39
 8353 02a9 0B       		.uleb128 0xb
 8354 02aa 49       		.uleb128 0x49
 8355 02ab 13       		.uleb128 0x13
 8356 02ac 02       		.uleb128 0x2
 8357 02ad 0A       		.uleb128 0xa
 8358 02ae 00       		.byte	0
 8359 02af 00       		.byte	0
 8360 02b0 2A       		.uleb128 0x2a
 8361 02b1 2E       		.uleb128 0x2e
 8362 02b2 01       		.byte	0x1
 8363 02b3 03       		.uleb128 0x3
 8364 02b4 08       		.uleb128 0x8
 8365 02b5 3A       		.uleb128 0x3a
 8366 02b6 0B       		.uleb128 0xb
 8367 02b7 3B       		.uleb128 0x3b
 8368 02b8 0B       		.uleb128 0xb
 8369 02b9 39       		.uleb128 0x39
 8370 02ba 0B       		.uleb128 0xb
 8371 02bb 27       		.uleb128 0x27
 8372 02bc 0C       		.uleb128 0xc
 8373 02bd 11       		.uleb128 0x11
 8374 02be 01       		.uleb128 0x1
 8375 02bf 12       		.uleb128 0x12
 8376 02c0 01       		.uleb128 0x1
 8377 02c1 40       		.uleb128 0x40
 8378 02c2 06       		.uleb128 0x6
 8379 02c3 9742     		.uleb128 0x2117
 8380 02c5 0C       		.uleb128 0xc
 8381 02c6 01       		.uleb128 0x1
 8382 02c7 13       		.uleb128 0x13
 8383 02c8 00       		.byte	0
 8384 02c9 00       		.byte	0
 8385 02ca 2B       		.uleb128 0x2b
GAS LISTING C:\Users\jisu8\AppData\Local\Temp\cc0IqG7f.s 			page 185


 8386 02cb 2E       		.uleb128 0x2e
 8387 02cc 01       		.byte	0x1
 8388 02cd 03       		.uleb128 0x3
 8389 02ce 08       		.uleb128 0x8
 8390 02cf 3A       		.uleb128 0x3a
 8391 02d0 0B       		.uleb128 0xb
 8392 02d1 3B       		.uleb128 0x3b
 8393 02d2 0B       		.uleb128 0xb
 8394 02d3 39       		.uleb128 0x39
 8395 02d4 0B       		.uleb128 0xb
 8396 02d5 27       		.uleb128 0x27
 8397 02d6 0C       		.uleb128 0xc
 8398 02d7 49       		.uleb128 0x49
 8399 02d8 13       		.uleb128 0x13
 8400 02d9 11       		.uleb128 0x11
 8401 02da 01       		.uleb128 0x1
 8402 02db 12       		.uleb128 0x12
 8403 02dc 01       		.uleb128 0x1
 8404 02dd 40       		.uleb128 0x40
 8405 02de 06       		.uleb128 0x6
 8406 02df 9642     		.uleb128 0x2116
 8407 02e1 0C       		.uleb128 0xc
 8408 02e2 01       		.uleb128 0x1
 8409 02e3 13       		.uleb128 0x13
 8410 02e4 00       		.byte	0
 8411 02e5 00       		.byte	0
 8412 02e6 2C       		.uleb128 0x2c
 8413 02e7 05       		.uleb128 0x5
 8414 02e8 00       		.byte	0
 8415 02e9 03       		.uleb128 0x3
 8416 02ea 08       		.uleb128 0x8
 8417 02eb 3A       		.uleb128 0x3a
 8418 02ec 0B       		.uleb128 0xb
 8419 02ed 3B       		.uleb128 0x3b
 8420 02ee 0B       		.uleb128 0xb
 8421 02ef 39       		.uleb128 0x39
 8422 02f0 0B       		.uleb128 0xb
 8423 02f1 49       		.uleb128 0x49
 8424 02f2 13       		.uleb128 0x13
 8425 02f3 02       		.uleb128 0x2
 8426 02f4 0A       		.uleb128 0xa
 8427 02f5 00       		.byte	0
 8428 02f6 00       		.byte	0
 8429 02f7 2D       		.uleb128 0x2d
 8430 02f8 34       		.uleb128 0x34
 8431 02f9 00       		.byte	0
 8432 02fa 03       		.uleb128 0x3
 8433 02fb 0E       		.uleb128 0xe
 8434 02fc 3A       		.uleb128 0x3a
 8435 02fd 0B       		.uleb128 0xb
 8436 02fe 3B       		.uleb128 0x3b
 8437 02ff 0B       		.uleb128 0xb
 8438 0300 39       		.uleb128 0x39
 8439 0301 0B       		.uleb128 0xb
 8440 0302 49       		.uleb128 0x49
 8441 0303 13       		.uleb128 0x13
 8442 0304 02       		.uleb128 0x2
GAS LISTING C:\Users\jisu8\AppData\Local\Temp\cc0IqG7f.s 			page 186


 8443 0305 0A       		.uleb128 0xa
 8444 0306 00       		.byte	0
 8445 0307 00       		.byte	0
 8446 0308 2E       		.uleb128 0x2e
 8447 0309 2E       		.uleb128 0x2e
 8448 030a 01       		.byte	0x1
 8449 030b 03       		.uleb128 0x3
 8450 030c 08       		.uleb128 0x8
 8451 030d 3A       		.uleb128 0x3a
 8452 030e 0B       		.uleb128 0xb
 8453 030f 3B       		.uleb128 0x3b
 8454 0310 0B       		.uleb128 0xb
 8455 0311 39       		.uleb128 0x39
 8456 0312 0B       		.uleb128 0xb
 8457 0313 27       		.uleb128 0x27
 8458 0314 0C       		.uleb128 0xc
 8459 0315 49       		.uleb128 0x49
 8460 0316 13       		.uleb128 0x13
 8461 0317 11       		.uleb128 0x11
 8462 0318 01       		.uleb128 0x1
 8463 0319 12       		.uleb128 0x12
 8464 031a 01       		.uleb128 0x1
 8465 031b 40       		.uleb128 0x40
 8466 031c 06       		.uleb128 0x6
 8467 031d 9742     		.uleb128 0x2117
 8468 031f 0C       		.uleb128 0xc
 8469 0320 01       		.uleb128 0x1
 8470 0321 13       		.uleb128 0x13
 8471 0322 00       		.byte	0
 8472 0323 00       		.byte	0
 8473 0324 2F       		.uleb128 0x2f
 8474 0325 2E       		.uleb128 0x2e
 8475 0326 01       		.byte	0x1
 8476 0327 03       		.uleb128 0x3
 8477 0328 08       		.uleb128 0x8
 8478 0329 3A       		.uleb128 0x3a
 8479 032a 0B       		.uleb128 0xb
 8480 032b 3B       		.uleb128 0x3b
 8481 032c 0B       		.uleb128 0xb
 8482 032d 39       		.uleb128 0x39
 8483 032e 0B       		.uleb128 0xb
 8484 032f 27       		.uleb128 0x27
 8485 0330 0C       		.uleb128 0xc
 8486 0331 49       		.uleb128 0x49
 8487 0332 13       		.uleb128 0x13
 8488 0333 11       		.uleb128 0x11
 8489 0334 01       		.uleb128 0x1
 8490 0335 12       		.uleb128 0x12
 8491 0336 01       		.uleb128 0x1
 8492 0337 40       		.uleb128 0x40
 8493 0338 06       		.uleb128 0x6
 8494 0339 9642     		.uleb128 0x2116
 8495 033b 0C       		.uleb128 0xc
 8496 033c 00       		.byte	0
 8497 033d 00       		.byte	0
 8498 033e 00       		.byte	0
 8499              		.section	.debug_loc,"dr"
GAS LISTING C:\Users\jisu8\AppData\Local\Temp\cc0IqG7f.s 			page 187


 8500              	Ldebug_loc0:
 8501              	LLST30:
 8502 0000 0D1A0000 		.long	LFB35-Ltext0
 8503 0004 0E1A0000 		.long	LCFI90-Ltext0
 8504 0008 0200     		.word	0x2
 8505 000a 74       		.byte	0x74
 8506 000b 04       		.sleb128 4
 8507 000c 0E1A0000 		.long	LCFI90-Ltext0
 8508 0010 101A0000 		.long	LCFI91-Ltext0
 8509 0014 0200     		.word	0x2
 8510 0016 74       		.byte	0x74
 8511 0017 08       		.sleb128 8
 8512 0018 101A0000 		.long	LCFI91-Ltext0
 8513 001c 291F0000 		.long	LCFI92-Ltext0
 8514 0020 0200     		.word	0x2
 8515 0022 75       		.byte	0x75
 8516 0023 08       		.sleb128 8
 8517 0024 291F0000 		.long	LCFI92-Ltext0
 8518 0028 2A1F0000 		.long	LFE35-Ltext0
 8519 002c 0200     		.word	0x2
 8520 002e 74       		.byte	0x74
 8521 002f 04       		.sleb128 4
 8522 0030 00000000 		.long	0
 8523 0034 00000000 		.long	0
 8524              	LLST29:
 8525 0038 E1150000 		.long	LFB34-Ltext0
 8526 003c E2150000 		.long	LCFI87-Ltext0
 8527 0040 0200     		.word	0x2
 8528 0042 74       		.byte	0x74
 8529 0043 04       		.sleb128 4
 8530 0044 E2150000 		.long	LCFI87-Ltext0
 8531 0048 E4150000 		.long	LCFI88-Ltext0
 8532 004c 0200     		.word	0x2
 8533 004e 74       		.byte	0x74
 8534 004f 08       		.sleb128 8
 8535 0050 E4150000 		.long	LCFI88-Ltext0
 8536 0054 0C1A0000 		.long	LCFI89-Ltext0
 8537 0058 0200     		.word	0x2
 8538 005a 75       		.byte	0x75
 8539 005b 08       		.sleb128 8
 8540 005c 0C1A0000 		.long	LCFI89-Ltext0
 8541 0060 0D1A0000 		.long	LFE34-Ltext0
 8542 0064 0200     		.word	0x2
 8543 0066 74       		.byte	0x74
 8544 0067 04       		.sleb128 4
 8545 0068 00000000 		.long	0
 8546 006c 00000000 		.long	0
 8547              	LLST28:
 8548 0070 A4150000 		.long	LFB33-Ltext0
 8549 0074 A5150000 		.long	LCFI84-Ltext0
 8550 0078 0200     		.word	0x2
 8551 007a 74       		.byte	0x74
 8552 007b 04       		.sleb128 4
 8553 007c A5150000 		.long	LCFI84-Ltext0
 8554 0080 A7150000 		.long	LCFI85-Ltext0
 8555 0084 0200     		.word	0x2
 8556 0086 74       		.byte	0x74
GAS LISTING C:\Users\jisu8\AppData\Local\Temp\cc0IqG7f.s 			page 188


 8557 0087 08       		.sleb128 8
 8558 0088 A7150000 		.long	LCFI85-Ltext0
 8559 008c E0150000 		.long	LCFI86-Ltext0
 8560 0090 0200     		.word	0x2
 8561 0092 75       		.byte	0x75
 8562 0093 08       		.sleb128 8
 8563 0094 E0150000 		.long	LCFI86-Ltext0
 8564 0098 E1150000 		.long	LFE33-Ltext0
 8565 009c 0200     		.word	0x2
 8566 009e 74       		.byte	0x74
 8567 009f 04       		.sleb128 4
 8568 00a0 00000000 		.long	0
 8569 00a4 00000000 		.long	0
 8570              	LLST27:
 8571 00a8 BA120000 		.long	LFB32-Ltext0
 8572 00ac BB120000 		.long	LCFI81-Ltext0
 8573 00b0 0200     		.word	0x2
 8574 00b2 74       		.byte	0x74
 8575 00b3 04       		.sleb128 4
 8576 00b4 BB120000 		.long	LCFI81-Ltext0
 8577 00b8 BD120000 		.long	LCFI82-Ltext0
 8578 00bc 0200     		.word	0x2
 8579 00be 74       		.byte	0x74
 8580 00bf 08       		.sleb128 8
 8581 00c0 BD120000 		.long	LCFI82-Ltext0
 8582 00c4 A3150000 		.long	LCFI83-Ltext0
 8583 00c8 0200     		.word	0x2
 8584 00ca 75       		.byte	0x75
 8585 00cb 08       		.sleb128 8
 8586 00cc A3150000 		.long	LCFI83-Ltext0
 8587 00d0 A4150000 		.long	LFE32-Ltext0
 8588 00d4 0200     		.word	0x2
 8589 00d6 74       		.byte	0x74
 8590 00d7 04       		.sleb128 4
 8591 00d8 00000000 		.long	0
 8592 00dc 00000000 		.long	0
 8593              	LLST26:
 8594 00e0 1B110000 		.long	LFB31-Ltext0
 8595 00e4 1C110000 		.long	LCFI78-Ltext0
 8596 00e8 0200     		.word	0x2
 8597 00ea 74       		.byte	0x74
 8598 00eb 04       		.sleb128 4
 8599 00ec 1C110000 		.long	LCFI78-Ltext0
 8600 00f0 1E110000 		.long	LCFI79-Ltext0
 8601 00f4 0200     		.word	0x2
 8602 00f6 74       		.byte	0x74
 8603 00f7 08       		.sleb128 8
 8604 00f8 1E110000 		.long	LCFI79-Ltext0
 8605 00fc B9120000 		.long	LCFI80-Ltext0
 8606 0100 0200     		.word	0x2
 8607 0102 75       		.byte	0x75
 8608 0103 08       		.sleb128 8
 8609 0104 B9120000 		.long	LCFI80-Ltext0
 8610 0108 BA120000 		.long	LFE31-Ltext0
 8611 010c 0200     		.word	0x2
 8612 010e 74       		.byte	0x74
 8613 010f 04       		.sleb128 4
GAS LISTING C:\Users\jisu8\AppData\Local\Temp\cc0IqG7f.s 			page 189


 8614 0110 00000000 		.long	0
 8615 0114 00000000 		.long	0
 8616              	LLST25:
 8617 0118 BF100000 		.long	LFB30-Ltext0
 8618 011c C0100000 		.long	LCFI75-Ltext0
 8619 0120 0200     		.word	0x2
 8620 0122 74       		.byte	0x74
 8621 0123 04       		.sleb128 4
 8622 0124 C0100000 		.long	LCFI75-Ltext0
 8623 0128 C2100000 		.long	LCFI76-Ltext0
 8624 012c 0200     		.word	0x2
 8625 012e 74       		.byte	0x74
 8626 012f 08       		.sleb128 8
 8627 0130 C2100000 		.long	LCFI76-Ltext0
 8628 0134 1A110000 		.long	LCFI77-Ltext0
 8629 0138 0200     		.word	0x2
 8630 013a 75       		.byte	0x75
 8631 013b 08       		.sleb128 8
 8632 013c 1A110000 		.long	LCFI77-Ltext0
 8633 0140 1B110000 		.long	LFE30-Ltext0
 8634 0144 0200     		.word	0x2
 8635 0146 74       		.byte	0x74
 8636 0147 04       		.sleb128 4
 8637 0148 00000000 		.long	0
 8638 014c 00000000 		.long	0
 8639              	LLST24:
 8640 0150 6A100000 		.long	LFB29-Ltext0
 8641 0154 6B100000 		.long	LCFI72-Ltext0
 8642 0158 0200     		.word	0x2
 8643 015a 74       		.byte	0x74
 8644 015b 04       		.sleb128 4
 8645 015c 6B100000 		.long	LCFI72-Ltext0
 8646 0160 6D100000 		.long	LCFI73-Ltext0
 8647 0164 0200     		.word	0x2
 8648 0166 74       		.byte	0x74
 8649 0167 08       		.sleb128 8
 8650 0168 6D100000 		.long	LCFI73-Ltext0
 8651 016c BE100000 		.long	LCFI74-Ltext0
 8652 0170 0200     		.word	0x2
 8653 0172 75       		.byte	0x75
 8654 0173 08       		.sleb128 8
 8655 0174 BE100000 		.long	LCFI74-Ltext0
 8656 0178 BF100000 		.long	LFE29-Ltext0
 8657 017c 0200     		.word	0x2
 8658 017e 74       		.byte	0x74
 8659 017f 04       		.sleb128 4
 8660 0180 00000000 		.long	0
 8661 0184 00000000 		.long	0
 8662              	LLST23:
 8663 0188 F70F0000 		.long	LFB28-Ltext0
 8664 018c F80F0000 		.long	LCFI69-Ltext0
 8665 0190 0200     		.word	0x2
 8666 0192 74       		.byte	0x74
 8667 0193 04       		.sleb128 4
 8668 0194 F80F0000 		.long	LCFI69-Ltext0
 8669 0198 FA0F0000 		.long	LCFI70-Ltext0
 8670 019c 0200     		.word	0x2
GAS LISTING C:\Users\jisu8\AppData\Local\Temp\cc0IqG7f.s 			page 190


 8671 019e 74       		.byte	0x74
 8672 019f 08       		.sleb128 8
 8673 01a0 FA0F0000 		.long	LCFI70-Ltext0
 8674 01a4 69100000 		.long	LCFI71-Ltext0
 8675 01a8 0200     		.word	0x2
 8676 01aa 75       		.byte	0x75
 8677 01ab 08       		.sleb128 8
 8678 01ac 69100000 		.long	LCFI71-Ltext0
 8679 01b0 6A100000 		.long	LFE28-Ltext0
 8680 01b4 0200     		.word	0x2
 8681 01b6 74       		.byte	0x74
 8682 01b7 04       		.sleb128 4
 8683 01b8 00000000 		.long	0
 8684 01bc 00000000 		.long	0
 8685              	LLST22:
 8686 01c0 D80F0000 		.long	LFB26-Ltext0
 8687 01c4 D90F0000 		.long	LCFI66-Ltext0
 8688 01c8 0200     		.word	0x2
 8689 01ca 74       		.byte	0x74
 8690 01cb 04       		.sleb128 4
 8691 01cc D90F0000 		.long	LCFI66-Ltext0
 8692 01d0 DB0F0000 		.long	LCFI67-Ltext0
 8693 01d4 0200     		.word	0x2
 8694 01d6 74       		.byte	0x74
 8695 01d7 08       		.sleb128 8
 8696 01d8 DB0F0000 		.long	LCFI67-Ltext0
 8697 01dc F00F0000 		.long	LCFI68-Ltext0
 8698 01e0 0200     		.word	0x2
 8699 01e2 75       		.byte	0x75
 8700 01e3 08       		.sleb128 8
 8701 01e4 F00F0000 		.long	LCFI68-Ltext0
 8702 01e8 F10F0000 		.long	LFE26-Ltext0
 8703 01ec 0200     		.word	0x2
 8704 01ee 74       		.byte	0x74
 8705 01ef 04       		.sleb128 4
 8706 01f0 00000000 		.long	0
 8707 01f4 00000000 		.long	0
 8708              	LLST21:
 8709 01f8 C50F0000 		.long	LFB25-Ltext0
 8710 01fc C60F0000 		.long	LCFI63-Ltext0
 8711 0200 0200     		.word	0x2
 8712 0202 74       		.byte	0x74
 8713 0203 04       		.sleb128 4
 8714 0204 C60F0000 		.long	LCFI63-Ltext0
 8715 0208 C80F0000 		.long	LCFI64-Ltext0
 8716 020c 0200     		.word	0x2
 8717 020e 74       		.byte	0x74
 8718 020f 08       		.sleb128 8
 8719 0210 C80F0000 		.long	LCFI64-Ltext0
 8720 0214 D70F0000 		.long	LCFI65-Ltext0
 8721 0218 0200     		.word	0x2
 8722 021a 75       		.byte	0x75
 8723 021b 08       		.sleb128 8
 8724 021c D70F0000 		.long	LCFI65-Ltext0
 8725 0220 D80F0000 		.long	LFE25-Ltext0
 8726 0224 0200     		.word	0x2
 8727 0226 74       		.byte	0x74
GAS LISTING C:\Users\jisu8\AppData\Local\Temp\cc0IqG7f.s 			page 191


 8728 0227 04       		.sleb128 4
 8729 0228 00000000 		.long	0
 8730 022c 00000000 		.long	0
 8731              	LLST20:
 8732 0230 B40E0000 		.long	LFB24-Ltext0
 8733 0234 B50E0000 		.long	LCFI60-Ltext0
 8734 0238 0200     		.word	0x2
 8735 023a 74       		.byte	0x74
 8736 023b 04       		.sleb128 4
 8737 023c B50E0000 		.long	LCFI60-Ltext0
 8738 0240 B70E0000 		.long	LCFI61-Ltext0
 8739 0244 0200     		.word	0x2
 8740 0246 74       		.byte	0x74
 8741 0247 08       		.sleb128 8
 8742 0248 B70E0000 		.long	LCFI61-Ltext0
 8743 024c C40F0000 		.long	LCFI62-Ltext0
 8744 0250 0200     		.word	0x2
 8745 0252 75       		.byte	0x75
 8746 0253 08       		.sleb128 8
 8747 0254 C40F0000 		.long	LCFI62-Ltext0
 8748 0258 C50F0000 		.long	LFE24-Ltext0
 8749 025c 0200     		.word	0x2
 8750 025e 74       		.byte	0x74
 8751 025f 04       		.sleb128 4
 8752 0260 00000000 		.long	0
 8753 0264 00000000 		.long	0
 8754              	LLST19:
 8755 0268 EB0C0000 		.long	LFB23-Ltext0
 8756 026c EC0C0000 		.long	LCFI57-Ltext0
 8757 0270 0200     		.word	0x2
 8758 0272 74       		.byte	0x74
 8759 0273 04       		.sleb128 4
 8760 0274 EC0C0000 		.long	LCFI57-Ltext0
 8761 0278 EE0C0000 		.long	LCFI58-Ltext0
 8762 027c 0200     		.word	0x2
 8763 027e 74       		.byte	0x74
 8764 027f 08       		.sleb128 8
 8765 0280 EE0C0000 		.long	LCFI58-Ltext0
 8766 0284 B30E0000 		.long	LCFI59-Ltext0
 8767 0288 0200     		.word	0x2
 8768 028a 75       		.byte	0x75
 8769 028b 08       		.sleb128 8
 8770 028c B30E0000 		.long	LCFI59-Ltext0
 8771 0290 B40E0000 		.long	LFE23-Ltext0
 8772 0294 0200     		.word	0x2
 8773 0296 74       		.byte	0x74
 8774 0297 04       		.sleb128 4
 8775 0298 00000000 		.long	0
 8776 029c 00000000 		.long	0
 8777              	LLST18:
 8778 02a0 C70C0000 		.long	LFB22-Ltext0
 8779 02a4 C80C0000 		.long	LCFI54-Ltext0
 8780 02a8 0200     		.word	0x2
 8781 02aa 74       		.byte	0x74
 8782 02ab 04       		.sleb128 4
 8783 02ac C80C0000 		.long	LCFI54-Ltext0
 8784 02b0 CA0C0000 		.long	LCFI55-Ltext0
GAS LISTING C:\Users\jisu8\AppData\Local\Temp\cc0IqG7f.s 			page 192


 8785 02b4 0200     		.word	0x2
 8786 02b6 74       		.byte	0x74
 8787 02b7 08       		.sleb128 8
 8788 02b8 CA0C0000 		.long	LCFI55-Ltext0
 8789 02bc EA0C0000 		.long	LCFI56-Ltext0
 8790 02c0 0200     		.word	0x2
 8791 02c2 75       		.byte	0x75
 8792 02c3 08       		.sleb128 8
 8793 02c4 EA0C0000 		.long	LCFI56-Ltext0
 8794 02c8 EB0C0000 		.long	LFE22-Ltext0
 8795 02cc 0200     		.word	0x2
 8796 02ce 74       		.byte	0x74
 8797 02cf 04       		.sleb128 4
 8798 02d0 00000000 		.long	0
 8799 02d4 00000000 		.long	0
 8800              	LLST17:
 8801 02d8 F10B0000 		.long	LFB21-Ltext0
 8802 02dc F20B0000 		.long	LCFI51-Ltext0
 8803 02e0 0200     		.word	0x2
 8804 02e2 74       		.byte	0x74
 8805 02e3 04       		.sleb128 4
 8806 02e4 F20B0000 		.long	LCFI51-Ltext0
 8807 02e8 F40B0000 		.long	LCFI52-Ltext0
 8808 02ec 0200     		.word	0x2
 8809 02ee 74       		.byte	0x74
 8810 02ef 08       		.sleb128 8
 8811 02f0 F40B0000 		.long	LCFI52-Ltext0
 8812 02f4 C60C0000 		.long	LCFI53-Ltext0
 8813 02f8 0200     		.word	0x2
 8814 02fa 75       		.byte	0x75
 8815 02fb 08       		.sleb128 8
 8816 02fc C60C0000 		.long	LCFI53-Ltext0
 8817 0300 C70C0000 		.long	LFE21-Ltext0
 8818 0304 0200     		.word	0x2
 8819 0306 74       		.byte	0x74
 8820 0307 04       		.sleb128 4
 8821 0308 00000000 		.long	0
 8822 030c 00000000 		.long	0
 8823              	LLST16:
 8824 0310 ED090000 		.long	LFB20-Ltext0
 8825 0314 EE090000 		.long	LCFI48-Ltext0
 8826 0318 0200     		.word	0x2
 8827 031a 74       		.byte	0x74
 8828 031b 04       		.sleb128 4
 8829 031c EE090000 		.long	LCFI48-Ltext0
 8830 0320 F0090000 		.long	LCFI49-Ltext0
 8831 0324 0200     		.word	0x2
 8832 0326 74       		.byte	0x74
 8833 0327 08       		.sleb128 8
 8834 0328 F0090000 		.long	LCFI49-Ltext0
 8835 032c F00B0000 		.long	LCFI50-Ltext0
 8836 0330 0200     		.word	0x2
 8837 0332 75       		.byte	0x75
 8838 0333 08       		.sleb128 8
 8839 0334 F00B0000 		.long	LCFI50-Ltext0
 8840 0338 F10B0000 		.long	LFE20-Ltext0
 8841 033c 0200     		.word	0x2
GAS LISTING C:\Users\jisu8\AppData\Local\Temp\cc0IqG7f.s 			page 193


 8842 033e 74       		.byte	0x74
 8843 033f 04       		.sleb128 4
 8844 0340 00000000 		.long	0
 8845 0344 00000000 		.long	0
 8846              	LLST15:
 8847 0348 9C090000 		.long	LFB19-Ltext0
 8848 034c 9D090000 		.long	LCFI45-Ltext0
 8849 0350 0200     		.word	0x2
 8850 0352 74       		.byte	0x74
 8851 0353 04       		.sleb128 4
 8852 0354 9D090000 		.long	LCFI45-Ltext0
 8853 0358 9F090000 		.long	LCFI46-Ltext0
 8854 035c 0200     		.word	0x2
 8855 035e 74       		.byte	0x74
 8856 035f 08       		.sleb128 8
 8857 0360 9F090000 		.long	LCFI46-Ltext0
 8858 0364 EC090000 		.long	LCFI47-Ltext0
 8859 0368 0200     		.word	0x2
 8860 036a 75       		.byte	0x75
 8861 036b 08       		.sleb128 8
 8862 036c EC090000 		.long	LCFI47-Ltext0
 8863 0370 ED090000 		.long	LFE19-Ltext0
 8864 0374 0200     		.word	0x2
 8865 0376 74       		.byte	0x74
 8866 0377 04       		.sleb128 4
 8867 0378 00000000 		.long	0
 8868 037c 00000000 		.long	0
 8869              	LLST14:
 8870 0380 40080000 		.long	LFB18-Ltext0
 8871 0384 41080000 		.long	LCFI42-Ltext0
 8872 0388 0200     		.word	0x2
 8873 038a 74       		.byte	0x74
 8874 038b 04       		.sleb128 4
 8875 038c 41080000 		.long	LCFI42-Ltext0
 8876 0390 43080000 		.long	LCFI43-Ltext0
 8877 0394 0200     		.word	0x2
 8878 0396 74       		.byte	0x74
 8879 0397 08       		.sleb128 8
 8880 0398 43080000 		.long	LCFI43-Ltext0
 8881 039c 9B090000 		.long	LCFI44-Ltext0
 8882 03a0 0200     		.word	0x2
 8883 03a2 75       		.byte	0x75
 8884 03a3 08       		.sleb128 8
 8885 03a4 9B090000 		.long	LCFI44-Ltext0
 8886 03a8 9C090000 		.long	LFE18-Ltext0
 8887 03ac 0200     		.word	0x2
 8888 03ae 74       		.byte	0x74
 8889 03af 04       		.sleb128 4
 8890 03b0 00000000 		.long	0
 8891 03b4 00000000 		.long	0
 8892              	LLST13:
 8893 03b8 2D080000 		.long	LFB17-Ltext0
 8894 03bc 2E080000 		.long	LCFI39-Ltext0
 8895 03c0 0200     		.word	0x2
 8896 03c2 74       		.byte	0x74
 8897 03c3 04       		.sleb128 4
 8898 03c4 2E080000 		.long	LCFI39-Ltext0
GAS LISTING C:\Users\jisu8\AppData\Local\Temp\cc0IqG7f.s 			page 194


 8899 03c8 30080000 		.long	LCFI40-Ltext0
 8900 03cc 0200     		.word	0x2
 8901 03ce 74       		.byte	0x74
 8902 03cf 08       		.sleb128 8
 8903 03d0 30080000 		.long	LCFI40-Ltext0
 8904 03d4 3F080000 		.long	LCFI41-Ltext0
 8905 03d8 0200     		.word	0x2
 8906 03da 75       		.byte	0x75
 8907 03db 08       		.sleb128 8
 8908 03dc 3F080000 		.long	LCFI41-Ltext0
 8909 03e0 40080000 		.long	LFE17-Ltext0
 8910 03e4 0200     		.word	0x2
 8911 03e6 74       		.byte	0x74
 8912 03e7 04       		.sleb128 4
 8913 03e8 00000000 		.long	0
 8914 03ec 00000000 		.long	0
 8915              	LLST12:
 8916 03f0 22080000 		.long	LFB16-Ltext0
 8917 03f4 23080000 		.long	LCFI36-Ltext0
 8918 03f8 0200     		.word	0x2
 8919 03fa 74       		.byte	0x74
 8920 03fb 04       		.sleb128 4
 8921 03fc 23080000 		.long	LCFI36-Ltext0
 8922 0400 25080000 		.long	LCFI37-Ltext0
 8923 0404 0200     		.word	0x2
 8924 0406 74       		.byte	0x74
 8925 0407 08       		.sleb128 8
 8926 0408 25080000 		.long	LCFI37-Ltext0
 8927 040c 2C080000 		.long	LCFI38-Ltext0
 8928 0410 0200     		.word	0x2
 8929 0412 75       		.byte	0x75
 8930 0413 08       		.sleb128 8
 8931 0414 2C080000 		.long	LCFI38-Ltext0
 8932 0418 2D080000 		.long	LFE16-Ltext0
 8933 041c 0200     		.word	0x2
 8934 041e 74       		.byte	0x74
 8935 041f 04       		.sleb128 4
 8936 0420 00000000 		.long	0
 8937 0424 00000000 		.long	0
 8938              	LLST11:
 8939 0428 18080000 		.long	LFB15-Ltext0
 8940 042c 19080000 		.long	LCFI33-Ltext0
 8941 0430 0200     		.word	0x2
 8942 0432 74       		.byte	0x74
 8943 0433 04       		.sleb128 4
 8944 0434 19080000 		.long	LCFI33-Ltext0
 8945 0438 1B080000 		.long	LCFI34-Ltext0
 8946 043c 0200     		.word	0x2
 8947 043e 74       		.byte	0x74
 8948 043f 08       		.sleb128 8
 8949 0440 1B080000 		.long	LCFI34-Ltext0
 8950 0444 21080000 		.long	LCFI35-Ltext0
 8951 0448 0200     		.word	0x2
 8952 044a 75       		.byte	0x75
 8953 044b 08       		.sleb128 8
 8954 044c 21080000 		.long	LCFI35-Ltext0
 8955 0450 22080000 		.long	LFE15-Ltext0
GAS LISTING C:\Users\jisu8\AppData\Local\Temp\cc0IqG7f.s 			page 195


 8956 0454 0200     		.word	0x2
 8957 0456 74       		.byte	0x74
 8958 0457 04       		.sleb128 4
 8959 0458 00000000 		.long	0
 8960 045c 00000000 		.long	0
 8961              	LLST10:
 8962 0460 EB070000 		.long	LFB14-Ltext0
 8963 0464 EC070000 		.long	LCFI30-Ltext0
 8964 0468 0200     		.word	0x2
 8965 046a 74       		.byte	0x74
 8966 046b 04       		.sleb128 4
 8967 046c EC070000 		.long	LCFI30-Ltext0
 8968 0470 EE070000 		.long	LCFI31-Ltext0
 8969 0474 0200     		.word	0x2
 8970 0476 74       		.byte	0x74
 8971 0477 08       		.sleb128 8
 8972 0478 EE070000 		.long	LCFI31-Ltext0
 8973 047c 17080000 		.long	LCFI32-Ltext0
 8974 0480 0200     		.word	0x2
 8975 0482 75       		.byte	0x75
 8976 0483 08       		.sleb128 8
 8977 0484 17080000 		.long	LCFI32-Ltext0
 8978 0488 18080000 		.long	LFE14-Ltext0
 8979 048c 0200     		.word	0x2
 8980 048e 74       		.byte	0x74
 8981 048f 04       		.sleb128 4
 8982 0490 00000000 		.long	0
 8983 0494 00000000 		.long	0
 8984              	LLST9:
 8985 0498 71060000 		.long	LFB13-Ltext0
 8986 049c 72060000 		.long	LCFI27-Ltext0
 8987 04a0 0200     		.word	0x2
 8988 04a2 74       		.byte	0x74
 8989 04a3 04       		.sleb128 4
 8990 04a4 72060000 		.long	LCFI27-Ltext0
 8991 04a8 74060000 		.long	LCFI28-Ltext0
 8992 04ac 0200     		.word	0x2
 8993 04ae 74       		.byte	0x74
 8994 04af 08       		.sleb128 8
 8995 04b0 74060000 		.long	LCFI28-Ltext0
 8996 04b4 EA070000 		.long	LCFI29-Ltext0
 8997 04b8 0200     		.word	0x2
 8998 04ba 75       		.byte	0x75
 8999 04bb 08       		.sleb128 8
 9000 04bc EA070000 		.long	LCFI29-Ltext0
 9001 04c0 EB070000 		.long	LFE13-Ltext0
 9002 04c4 0200     		.word	0x2
 9003 04c6 74       		.byte	0x74
 9004 04c7 04       		.sleb128 4
 9005 04c8 00000000 		.long	0
 9006 04cc 00000000 		.long	0
 9007              	LLST8:
 9008 04d0 FD040000 		.long	LFB12-Ltext0
 9009 04d4 FE040000 		.long	LCFI24-Ltext0
 9010 04d8 0200     		.word	0x2
 9011 04da 74       		.byte	0x74
 9012 04db 04       		.sleb128 4
GAS LISTING C:\Users\jisu8\AppData\Local\Temp\cc0IqG7f.s 			page 196


 9013 04dc FE040000 		.long	LCFI24-Ltext0
 9014 04e0 00050000 		.long	LCFI25-Ltext0
 9015 04e4 0200     		.word	0x2
 9016 04e6 74       		.byte	0x74
 9017 04e7 08       		.sleb128 8
 9018 04e8 00050000 		.long	LCFI25-Ltext0
 9019 04ec 70060000 		.long	LCFI26-Ltext0
 9020 04f0 0200     		.word	0x2
 9021 04f2 75       		.byte	0x75
 9022 04f3 08       		.sleb128 8
 9023 04f4 70060000 		.long	LCFI26-Ltext0
 9024 04f8 71060000 		.long	LFE12-Ltext0
 9025 04fc 0200     		.word	0x2
 9026 04fe 74       		.byte	0x74
 9027 04ff 04       		.sleb128 4
 9028 0500 00000000 		.long	0
 9029 0504 00000000 		.long	0
 9030              	LLST7:
 9031 0508 64030000 		.long	LFB11-Ltext0
 9032 050c 65030000 		.long	LCFI21-Ltext0
 9033 0510 0200     		.word	0x2
 9034 0512 74       		.byte	0x74
 9035 0513 04       		.sleb128 4
 9036 0514 65030000 		.long	LCFI21-Ltext0
 9037 0518 67030000 		.long	LCFI22-Ltext0
 9038 051c 0200     		.word	0x2
 9039 051e 74       		.byte	0x74
 9040 051f 08       		.sleb128 8
 9041 0520 67030000 		.long	LCFI22-Ltext0
 9042 0524 FC040000 		.long	LCFI23-Ltext0
 9043 0528 0200     		.word	0x2
 9044 052a 75       		.byte	0x75
 9045 052b 08       		.sleb128 8
 9046 052c FC040000 		.long	LCFI23-Ltext0
 9047 0530 FD040000 		.long	LFE11-Ltext0
 9048 0534 0200     		.word	0x2
 9049 0536 74       		.byte	0x74
 9050 0537 04       		.sleb128 4
 9051 0538 00000000 		.long	0
 9052 053c 00000000 		.long	0
 9053              	LLST6:
 9054 0540 29030000 		.long	LFB10-Ltext0
 9055 0544 2A030000 		.long	LCFI18-Ltext0
 9056 0548 0200     		.word	0x2
 9057 054a 74       		.byte	0x74
 9058 054b 04       		.sleb128 4
 9059 054c 2A030000 		.long	LCFI18-Ltext0
 9060 0550 2C030000 		.long	LCFI19-Ltext0
 9061 0554 0200     		.word	0x2
 9062 0556 74       		.byte	0x74
 9063 0557 08       		.sleb128 8
 9064 0558 2C030000 		.long	LCFI19-Ltext0
 9065 055c 63030000 		.long	LCFI20-Ltext0
 9066 0560 0200     		.word	0x2
 9067 0562 75       		.byte	0x75
 9068 0563 08       		.sleb128 8
 9069 0564 63030000 		.long	LCFI20-Ltext0
GAS LISTING C:\Users\jisu8\AppData\Local\Temp\cc0IqG7f.s 			page 197


 9070 0568 64030000 		.long	LFE10-Ltext0
 9071 056c 0200     		.word	0x2
 9072 056e 74       		.byte	0x74
 9073 056f 04       		.sleb128 4
 9074 0570 00000000 		.long	0
 9075 0574 00000000 		.long	0
 9076              	LLST5:
 9077 0578 0E030000 		.long	LFB9-Ltext0
 9078 057c 0F030000 		.long	LCFI15-Ltext0
 9079 0580 0200     		.word	0x2
 9080 0582 74       		.byte	0x74
 9081 0583 04       		.sleb128 4
 9082 0584 0F030000 		.long	LCFI15-Ltext0
 9083 0588 11030000 		.long	LCFI16-Ltext0
 9084 058c 0200     		.word	0x2
 9085 058e 74       		.byte	0x74
 9086 058f 08       		.sleb128 8
 9087 0590 11030000 		.long	LCFI16-Ltext0
 9088 0594 28030000 		.long	LCFI17-Ltext0
 9089 0598 0200     		.word	0x2
 9090 059a 75       		.byte	0x75
 9091 059b 08       		.sleb128 8
 9092 059c 28030000 		.long	LCFI17-Ltext0
 9093 05a0 29030000 		.long	LFE9-Ltext0
 9094 05a4 0200     		.word	0x2
 9095 05a6 74       		.byte	0x74
 9096 05a7 04       		.sleb128 4
 9097 05a8 00000000 		.long	0
 9098 05ac 00000000 		.long	0
 9099              	LLST4:
 9100 05b0 C2020000 		.long	LFB8-Ltext0
 9101 05b4 C3020000 		.long	LCFI12-Ltext0
 9102 05b8 0200     		.word	0x2
 9103 05ba 74       		.byte	0x74
 9104 05bb 04       		.sleb128 4
 9105 05bc C3020000 		.long	LCFI12-Ltext0
 9106 05c0 C5020000 		.long	LCFI13-Ltext0
 9107 05c4 0200     		.word	0x2
 9108 05c6 74       		.byte	0x74
 9109 05c7 08       		.sleb128 8
 9110 05c8 C5020000 		.long	LCFI13-Ltext0
 9111 05cc 0D030000 		.long	LCFI14-Ltext0
 9112 05d0 0200     		.word	0x2
 9113 05d2 75       		.byte	0x75
 9114 05d3 08       		.sleb128 8
 9115 05d4 0D030000 		.long	LCFI14-Ltext0
 9116 05d8 0E030000 		.long	LFE8-Ltext0
 9117 05dc 0200     		.word	0x2
 9118 05de 74       		.byte	0x74
 9119 05df 04       		.sleb128 4
 9120 05e0 00000000 		.long	0
 9121 05e4 00000000 		.long	0
 9122              	LLST3:
 9123 05e8 3C020000 		.long	LFB7-Ltext0
 9124 05ec 3D020000 		.long	LCFI9-Ltext0
 9125 05f0 0200     		.word	0x2
 9126 05f2 74       		.byte	0x74
GAS LISTING C:\Users\jisu8\AppData\Local\Temp\cc0IqG7f.s 			page 198


 9127 05f3 04       		.sleb128 4
 9128 05f4 3D020000 		.long	LCFI9-Ltext0
 9129 05f8 3F020000 		.long	LCFI10-Ltext0
 9130 05fc 0200     		.word	0x2
 9131 05fe 74       		.byte	0x74
 9132 05ff 08       		.sleb128 8
 9133 0600 3F020000 		.long	LCFI10-Ltext0
 9134 0604 C1020000 		.long	LCFI11-Ltext0
 9135 0608 0200     		.word	0x2
 9136 060a 75       		.byte	0x75
 9137 060b 08       		.sleb128 8
 9138 060c C1020000 		.long	LCFI11-Ltext0
 9139 0610 C2020000 		.long	LFE7-Ltext0
 9140 0614 0200     		.word	0x2
 9141 0616 74       		.byte	0x74
 9142 0617 04       		.sleb128 4
 9143 0618 00000000 		.long	0
 9144 061c 00000000 		.long	0
 9145              	LLST2:
 9146 0620 0D020000 		.long	LFB6-Ltext0
 9147 0624 0E020000 		.long	LCFI6-Ltext0
 9148 0628 0200     		.word	0x2
 9149 062a 74       		.byte	0x74
 9150 062b 04       		.sleb128 4
 9151 062c 0E020000 		.long	LCFI6-Ltext0
 9152 0630 10020000 		.long	LCFI7-Ltext0
 9153 0634 0200     		.word	0x2
 9154 0636 74       		.byte	0x74
 9155 0637 08       		.sleb128 8
 9156 0638 10020000 		.long	LCFI7-Ltext0
 9157 063c 3B020000 		.long	LCFI8-Ltext0
 9158 0640 0200     		.word	0x2
 9159 0642 75       		.byte	0x75
 9160 0643 08       		.sleb128 8
 9161 0644 3B020000 		.long	LCFI8-Ltext0
 9162 0648 3C020000 		.long	LFE6-Ltext0
 9163 064c 0200     		.word	0x2
 9164 064e 74       		.byte	0x74
 9165 064f 04       		.sleb128 4
 9166 0650 00000000 		.long	0
 9167 0654 00000000 		.long	0
 9168              	LLST1:
 9169 0658 D3000000 		.long	LFB5-Ltext0
 9170 065c D4000000 		.long	LCFI3-Ltext0
 9171 0660 0200     		.word	0x2
 9172 0662 74       		.byte	0x74
 9173 0663 04       		.sleb128 4
 9174 0664 D4000000 		.long	LCFI3-Ltext0
 9175 0668 D6000000 		.long	LCFI4-Ltext0
 9176 066c 0200     		.word	0x2
 9177 066e 74       		.byte	0x74
 9178 066f 08       		.sleb128 8
 9179 0670 D6000000 		.long	LCFI4-Ltext0
 9180 0674 0C020000 		.long	LCFI5-Ltext0
 9181 0678 0200     		.word	0x2
 9182 067a 75       		.byte	0x75
 9183 067b 08       		.sleb128 8
GAS LISTING C:\Users\jisu8\AppData\Local\Temp\cc0IqG7f.s 			page 199


 9184 067c 0C020000 		.long	LCFI5-Ltext0
 9185 0680 0D020000 		.long	LFE5-Ltext0
 9186 0684 0200     		.word	0x2
 9187 0686 74       		.byte	0x74
 9188 0687 04       		.sleb128 4
 9189 0688 00000000 		.long	0
 9190 068c 00000000 		.long	0
 9191              	LLST0:
 9192 0690 00000000 		.long	LFB4-Ltext0
 9193 0694 01000000 		.long	LCFI0-Ltext0
 9194 0698 0200     		.word	0x2
 9195 069a 74       		.byte	0x74
 9196 069b 04       		.sleb128 4
 9197 069c 01000000 		.long	LCFI0-Ltext0
 9198 06a0 03000000 		.long	LCFI1-Ltext0
 9199 06a4 0200     		.word	0x2
 9200 06a6 74       		.byte	0x74
 9201 06a7 08       		.sleb128 8
 9202 06a8 03000000 		.long	LCFI1-Ltext0
 9203 06ac D2000000 		.long	LCFI2-Ltext0
 9204 06b0 0200     		.word	0x2
 9205 06b2 75       		.byte	0x75
 9206 06b3 08       		.sleb128 8
 9207 06b4 D2000000 		.long	LCFI2-Ltext0
 9208 06b8 D3000000 		.long	LFE4-Ltext0
 9209 06bc 0200     		.word	0x2
 9210 06be 74       		.byte	0x74
 9211 06bf 04       		.sleb128 4
 9212 06c0 00000000 		.long	0
 9213 06c4 00000000 		.long	0
 9214              		.section	.debug_aranges,"dr"
 9215 0000 1C000000 		.long	0x1c
 9216 0004 0200     		.word	0x2
 9217 0006 00000000 		.secrel32	Ldebug_info0
 9218 000a 04       		.byte	0x4
 9219 000b 00       		.byte	0
 9220 000c 0000     		.word	0
 9221 000e 0000     		.word	0
 9222 0010 00000000 		.long	Ltext0
 9223 0014 2A1F0000 		.long	Letext0-Ltext0
 9224 0018 00000000 		.long	0
 9225 001c 00000000 		.long	0
 9226              		.section	.debug_line,"dr"
 9227              	Ldebug_line0:
 9228 0000 F30C0000 		.section	.debug_str,"dr"
 9228      0200BE01 
 9228      00000101 
 9228      FB0E0D00 
 9228      01010101 
 9229              	LASF12:
 9230 0000 72696768 		.ascii "rightRowIndicatorColumn\0"
 9230      74526F77 
 9230      496E6469 
 9230      6361746F 
 9230      72436F6C 
 9231              	LASF30:
 9232 0018 4D657461 		.ascii "Metadata\0"
GAS LISTING C:\Users\jisu8\AppData\Local\Temp\cc0IqG7f.s 			page 200


 9232      64617461 
 9232      00
 9233              	LASF6:
 9234 0021 6D617843 		.ascii "maxCodewordWidth\0"
 9234      6F646577 
 9234      6F726457 
 9234      69647468 
 9234      00
 9235              	LASF32:
 9236 0032 696E6372 		.ascii "increment\0"
 9236      656D656E 
 9236      7400
 9237              	LASF1:
 9238 003c 6D5F7661 		.ascii "m_value\0"
 9238      6C756500 
 9239              	LASF16:
 9240 0044 73746172 		.ascii "startColumn\0"
 9240      74436F6C 
 9240      756D6E00 
 9241              	LASF19:
 9242 0050 636F6C75 		.ascii "columnNum\0"
 9242      6D6E4E75 
 9242      6D00
 9243              	LASF31:
 9244 005a 526F7749 		.ascii "RowIndicatorColumn\0"
 9244      6E646963 
 9244      61746F72 
 9244      436F6C75 
 9244      6D6E00
 9245              	LASF2:
 9246 006d 5F626F75 		.ascii "_boundingBox\0"
 9246      6E64696E 
 9246      67426F78 
 9246      00
 9247              	LASF15:
 9248 007a 62617263 		.ascii "barcodeColumn\0"
 9248      6F646543 
 9248      6F6C756D 
 9248      6E00
 9249              	LASF4:
 9250 0088 696D6167 		.ascii "image\0"
 9250      6500
 9251              	LASF18:
 9252 008e 636F6465 		.ascii "codeword\0"
 9252      776F7264 
 9252      00
 9253              	LASF17:
 9254 0097 696D6167 		.ascii "imageRow\0"
 9254      65526F77 
 9254      00
 9255              	LASF28:
 9256 00a0 6E756D45 		.ascii "numECCodewords\0"
 9256      43436F64 
 9256      65776F72 
 9256      647300
 9257              	LASF11:
 9258 00af 6C656674 		.ascii "leftRowIndicatorColumn\0"
GAS LISTING C:\Users\jisu8\AppData\Local\Temp\cc0IqG7f.s 			page 201


 9258      526F7749 
 9258      6E646963 
 9258      61746F72 
 9258      436F6C75 
 9259              	LASF34:
 9260 00c6 6D617843 		.ascii "maxColumn\0"
 9260      6F6C756D 
 9260      6E00
 9261              	LASF9:
 9262 00d0 626F756E 		.ascii "boundingBox\0"
 9262      64696E67 
 9262      426F7800 
 9263              	LASF13:
 9264 00dc 64657465 		.ascii "detectionResult\0"
 9264      6374696F 
 9264      6E526573 
 9264      756C7400 
 9265              	LASF5:
 9266 00ec 6D696E43 		.ascii "minCodewordWidth\0"
 9266      6F646577 
 9266      6F726457 
 9266      69647468 
 9266      00
 9267              	LASF27:
 9268 00fd 72657375 		.ascii "result\0"
 9268      6C7400
 9269              	LASF25:
 9270 0104 616D6269 		.ascii "ambiguousSize\0"
 9270      67756F75 
 9270      7353697A 
 9270      6500
 9271              	LASF23:
 9272 0112 636F6465 		.ascii "codewords\0"
 9272      776F7264 
 9272      7300
 9273              	LASF20:
 9274 011c 62617263 		.ascii "barcodeMatrix\0"
 9274      6F64654D 
 9274      61747269 
 9274      7800
 9275              	LASF8:
 9276 012a 72657375 		.ascii "result_fault\0"
 9276      6C745F66 
 9276      61756C74 
 9276      00
 9277              	LASF3:
 9278 0137 726F7749 		.ascii "rowIndicatorColumn\0"
 9278      6E646963 
 9278      61746F72 
 9278      436F6C75 
 9278      6D6E00
 9279              	LASF21:
 9280 014a 65726173 		.ascii "erasures\0"
 9280      75726573 
 9280      00
 9281              	LASF29:
 9282 0153 7072696E 		.ascii "printf\0"
GAS LISTING C:\Users\jisu8\AppData\Local\Temp\cc0IqG7f.s 			page 202


 9282      746600
 9283              	LASF22:
 9284 015a 636F6465 		.ascii "codewordsNum\0"
 9284      776F7264 
 9284      734E756D 
 9284      00
 9285              	LASF14:
 9286 0167 6C656674 		.ascii "leftToRight\0"
 9286      546F5269 
 9286      67687400 
 9287              	LASF7:
 9288 0173 63686172 		.ascii "characterSet\0"
 9288      61637465 
 9288      72536574 
 9288      00
 9289              	LASF35:
 9290 0180 6D6F6475 		.ascii "moduleBitCount\0"
 9290      6C654269 
 9290      74436F75 
 9290      6E7400
 9291              	LASF26:
 9292 018f 65726173 		.ascii "erasure_size\0"
 9292      7572655F 
 9292      73697A65 
 9292      00
 9293              	LASF10:
 9294 019c 6C656E67 		.ascii "length\0"
 9294      746800
 9295              	LASF33:
 9296 01a3 6D696E43 		.ascii "minColumn\0"
 9296      6F6C756D 
 9296      6E00
 9297              	LASF0:
 9298 01ad 6D5F6861 		.ascii "m_hasValue\0"
 9298      7356616C 
 9298      756500
 9299              	LASF24:
 9300 01b8 616D6269 		.ascii "ambiguousIndexValues\0"
 9300      67756F75 
 9300      73496E64 
 9300      65785661 
 9300      6C756573 
 9301              		.ident	"GCC: (i686-posix-dwarf-rev0, Built by MinGW-W64 project) 8.1.0"
GAS LISTING C:\Users\jisu8\AppData\Local\Temp\cc0IqG7f.s 			page 203


DEFINED SYMBOLS
                            *ABS*:00000000 PDFScanningDecoder.c
C:\Users\jisu8\AppData\Local\Temp\cc0IqG7f.s:6      .rdata:00000000 _CODEWORD_SKEW_SIZE
C:\Users\jisu8\AppData\Local\Temp\cc0IqG7f.s:9      .rdata:00000004 _MAX_ERRORS
C:\Users\jisu8\AppData\Local\Temp\cc0IqG7f.s:12     .rdata:00000008 _MAX_EC_CODEWORDS
C:\Users\jisu8\AppData\Local\Temp\cc0IqG7f.s:16     .rdata:0000000c _BARCODE_ROW_UNKNOWN
                            *COM*:00000020 _result_bits
                            *COM*:00000018 _CodeWord
                            *COM*:00002f34 _rowIndicatorColumn
C:\Users\jisu8\AppData\Local\Temp\cc0IqG7f.s:26     .text:00000000 _AdjustCodewordStartColumn
C:\Users\jisu8\AppData\Local\Temp\cc0IqG7f.s:159    .text:000000d3 _GetModuleBitCount
C:\Users\jisu8\AppData\Local\Temp\cc0IqG7f.s:322    .text:0000020d _CheckCodewordSkew
C:\Users\jisu8\AppData\Local\Temp\cc0IqG7f.s:368    .text:0000023c _GetBitCountForCodeword
C:\Users\jisu8\AppData\Local\Temp\cc0IqG7f.s:437    .text:000002c2 _GetCodewordBucketNumberRet
C:\Users\jisu8\AppData\Local\Temp\cc0IqG7f.s:495    .text:0000030e _GetCodewordBucketNumber
C:\Users\jisu8\AppData\Local\Temp\cc0IqG7f.s:523    .text:00000329 _Codeword
C:\Users\jisu8\AppData\Local\Temp\cc0IqG7f.s:567    .text:00000364 _DetectCodeword
C:\Users\jisu8\AppData\Local\Temp\cc0IqG7f.s:732    .text:000004fd _setCodeword
C:\Users\jisu8\AppData\Local\Temp\cc0IqG7f.s:918    .text:00000671 _GetRowIndicatorColumn
C:\Users\jisu8\AppData\Local\Temp\cc0IqG7f.s:1093   .text:000007eb _Metadata_Init
C:\Users\jisu8\AppData\Local\Temp\cc0IqG7f.s:1127   .text:00000818 _columnCount
C:\Users\jisu8\AppData\Local\Temp\cc0IqG7f.s:1151   .text:00000822 _errorCorrectionLevel
C:\Users\jisu8\AppData\Local\Temp\cc0IqG7f.s:1175   .text:0000082d _rowCount
C:\Users\jisu8\AppData\Local\Temp\cc0IqG7f.s:1207   .text:00000840 _GetBarcodeMetadata
C:\Users\jisu8\AppData\Local\Temp\cc0IqG7f.s:1383   .text:0000099c _GetMax
C:\Users\jisu8\AppData\Local\Temp\cc0IqG7f.s:1444   .text:000009ed _AdjustBoundingBox
C:\Users\jisu8\AppData\Local\Temp\cc0IqG7f.s:1701   .text:00000bf1 _Merge
C:\Users\jisu8\AppData\Local\Temp\cc0IqG7f.s:1798   .text:00000cc7 _IsValidBarcodeColumn
C:\Users\jisu8\AppData\Local\Temp\cc0IqG7f.s:1841   .text:00000ceb _GetStartColumn
C:\Users\jisu8\AppData\Local\Temp\cc0IqG7f.s:2054   .text:00000eb4 _CreateBarcodeMatrix
C:\Users\jisu8\AppData\Local\Temp\cc0IqG7f.s:2194   .text:00000fc5 _GetNumberOfECCodeWords
C:\Users\jisu8\AppData\Local\Temp\cc0IqG7f.s:2224   .text:00000fd8 _AdjustCodewordCount
C:\Users\jisu8\AppData\Local\Temp\cc0IqG7f.s:2251   .text:00000ff1 _DecodeErrorCorrection
C:\Users\jisu8\AppData\Local\Temp\cc0IqG7f.s:2267   .text:00000ff7 _CorrectErrors
C:\Users\jisu8\AppData\Local\Temp\cc0IqG7f.s:2332   .text:0000106a _VerifyCodewordCount
C:\Users\jisu8\AppData\Local\Temp\cc0IqG7f.s:2396   .text:000010bf _result_init
C:\Users\jisu8\AppData\Local\Temp\cc0IqG7f.s:2445   .text:0000111b _DecodeCodewords
C:\Users\jisu8\AppData\Local\Temp\cc0IqG7f.s:2617   .text:000012ba _CreateDecoderResultFromAmbiguousValues
C:\Users\jisu8\AppData\Local\Temp\cc0IqG7f.s:2918   .text:000015a4 _find_idx
C:\Users\jisu8\AppData\Local\Temp\cc0IqG7f.s:2970   .text:000015e1 _CreateDecoderResult
C:\Users\jisu8\AppData\Local\Temp\cc0IqG7f.s:3364   .text:00001a0d _Decode

UNDEFINED SYMBOLS
_BARS_IN_MODULE
___chkstk_ms
_printf
_fill
_Reduce
_reverse
_GetDecodedValue
_GetCodeword
_puts
_DetectionResultColumn
_getBarcodeMetadata
_getRowHeights
_isLeftRowIndicator
_AddMissingRows
GAS LISTING C:\Users\jisu8\AppData\Local\Temp\cc0IqG7f.s 			page 204


_copy
_Bounding_Merge
_Detection_Result_init
_codewordNearby
_allColumns
_BarcodeSetValue
_BitStreamDecode
_Create
_memcpy
