GAS LISTING C:\Users\jisu8\AppData\Local\Temp\ccX0Ht2c.s 			page 1


   1              		.file	"PDFScanningDecoder.c"
   2              		.text
   3              	Ltext0:
   4              		.section .rdata,"dr"
   5              		.align 4
   6              	_CODEWORD_SKEW_SIZE:
   7 0000 02000000 		.long	2
   8              		.align 4
   9              	_MAX_ERRORS:
  10 0004 03000000 		.long	3
  11              		.align 4
  12              	_MAX_EC_CODEWORDS:
  13 0008 00020000 		.long	512
  14              		.align 4
  15              	_BARCODE_ROW_UNKNOWN:
  16 000c FFFFFFFF 		.long	-1
  17              		.comm	_result_bits, 32, 5
  18              		.comm	_CodeWord, 24, 2
  19              		.comm	_rowIndicatorColumn, 12084, 5
  20              		.align 4
  21              	LC0:
  22 0010 4765744D 		.ascii "GetModuleBitCount minColumn=%d, maxColumn=%d, leftToRight=%d, codewordStartColumn=%d, imag
  22      6F64756C 
  22      65426974 
  22      436F756E 
  22      74206D69 
  23              		.text
  25              	_AdjustCodewordStartColumn:
  26              	LFB4:
  27              		.file 1 "src/pdf417/PDFScanningDecoder.c"
   1:src/pdf417/PDFScanningDecoder.c **** 
   2:src/pdf417/PDFScanningDecoder.c **** #include "PDFScanningDecoder.h"
   3:src/pdf417/PDFScanningDecoder.c **** #include "PDFBoundingBox.h"
   4:src/pdf417/PDFScanningDecoder.c **** #include "PDFDetectionResultColumn.h"
   5:src/pdf417/PDFScanningDecoder.c **** #include "PDFDetectionResult.h"
   6:src/pdf417/PDFScanningDecoder.c **** #include "PDFCodewordDecoder.h"
   7:src/pdf417/PDFScanningDecoder.c **** #include "DecodeStatus.h"
   8:src/pdf417/PDFScanningDecoder.c **** #include "library.h"
   9:src/pdf417/PDFScanningDecoder.c **** #include <stdlib.h>
  10:src/pdf417/PDFScanningDecoder.c **** 
  11:src/pdf417/PDFScanningDecoder.c **** static const int CODEWORD_SKEW_SIZE = 2;
  12:src/pdf417/PDFScanningDecoder.c **** static const int MAX_ERRORS = 3;
  13:src/pdf417/PDFScanningDecoder.c **** static const int MAX_EC_CODEWORDS = 512;
  14:src/pdf417/PDFScanningDecoder.c **** static const int BARCODE_ROW_UNKNOWN = -1;
  15:src/pdf417/PDFScanningDecoder.c **** 
  16:src/pdf417/PDFScanningDecoder.c **** int result_bits[8];
  17:src/pdf417/PDFScanningDecoder.c **** 
  18:src/pdf417/PDFScanningDecoder.c **** Codeword_t CodeWord;
  19:src/pdf417/PDFScanningDecoder.c **** DetectionResultColumn_t rowIndicatorColumn;
  20:src/pdf417/PDFScanningDecoder.c **** 
  21:src/pdf417/PDFScanningDecoder.c **** static int AdjustCodewordStartColumn(const BitMatrix_t * image, int minColumn, int maxColumn, uint8
  22:src/pdf417/PDFScanningDecoder.c **** {
  28              		.loc 1 22 1
  29              		.cfi_startproc
  30 0000 55       		pushl	%ebp
  31              	LCFI0:
  32              		.cfi_def_cfa_offset 8
GAS LISTING C:\Users\jisu8\AppData\Local\Temp\ccX0Ht2c.s 			page 2


  33              		.cfi_offset 5, -8
  34 0001 89E5     		movl	%esp, %ebp
  35              	LCFI1:
  36              		.cfi_def_cfa_register 5
  37 0003 83EC48   		subl	$72, %esp
  38 0006 8B4514   		movl	20(%ebp), %eax
  39 0009 8845E4   		movb	%al, -28(%ebp)
  23:src/pdf417/PDFScanningDecoder.c **** 
  24:src/pdf417/PDFScanningDecoder.c **** 	printf("GetModuleBitCount minColumn=%d, maxColumn=%d, leftToRight=%d, codewordStartColumn=%d, imag
  40              		.loc 1 24 2
  41 000c 0FB645E4 		movzbl	-28(%ebp), %eax
  42 0010 8B551C   		movl	28(%ebp), %edx
  43 0013 89542414 		movl	%edx, 20(%esp)
  44 0017 8B5518   		movl	24(%ebp), %edx
  45 001a 89542410 		movl	%edx, 16(%esp)
  46 001e 8944240C 		movl	%eax, 12(%esp)
  47 0022 8B4510   		movl	16(%ebp), %eax
  48 0025 89442408 		movl	%eax, 8(%esp)
  49 0029 8B450C   		movl	12(%ebp), %eax
  50 002c 89442404 		movl	%eax, 4(%esp)
  51 0030 C7042410 		movl	$LC0, (%esp)
  51      000000
  52 0037 E8000000 		call	_printf
  52      00
  25:src/pdf417/PDFScanningDecoder.c **** 		minColumn, maxColumn, leftToRight, codewordStartColumn, imageRow);
  26:src/pdf417/PDFScanningDecoder.c **** 	
  27:src/pdf417/PDFScanningDecoder.c **** 	int correctedStartColumn = codewordStartColumn;
  53              		.loc 1 27 6
  54 003c 8B4518   		movl	24(%ebp), %eax
  55 003f 8945F4   		movl	%eax, -12(%ebp)
  28:src/pdf417/PDFScanningDecoder.c **** 	int increment = leftToRight ? -1 : 1;
  56              		.loc 1 28 35
  57 0042 807DE400 		cmpb	$0, -28(%ebp)
  58 0046 7407     		je	L2
  59              		.loc 1 28 35 is_stmt 0 discriminator 1
  60 0048 B8FFFFFF 		movl	$-1, %eax
  60      FF
  61 004d EB05     		jmp	L3
  62              	L2:
  63              		.loc 1 28 35 discriminator 2
  64 004f B8010000 		movl	$1, %eax
  64      00
  65              	L3:
  66              		.loc 1 28 6 is_stmt 1 discriminator 4
  67 0054 8945F0   		movl	%eax, -16(%ebp)
  68              	LBB2:
  29:src/pdf417/PDFScanningDecoder.c **** 	// there should be no black pixels before the start column. If there are, then we need to start ea
  30:src/pdf417/PDFScanningDecoder.c **** 	for (int i = 0; i < 2; i++) 
  69              		.loc 1 30 11 discriminator 4
  70 0057 C745EC00 		movl	$0, -20(%ebp)
  70      000000
  71              		.loc 1 30 2 discriminator 4
  72 005e EB68     		jmp	L4
  73              	L11:
  31:src/pdf417/PDFScanningDecoder.c **** 	{
  32:src/pdf417/PDFScanningDecoder.c **** 		while ((leftToRight ? correctedStartColumn >= minColumn : correctedStartColumn < maxColumn) &&
  33:src/pdf417/PDFScanningDecoder.c **** 			leftToRight == image->bits[imageRow * image->_width + correctedStartColumn]) 
GAS LISTING C:\Users\jisu8\AppData\Local\Temp\ccX0Ht2c.s 			page 3


  34:src/pdf417/PDFScanningDecoder.c **** 			{
  35:src/pdf417/PDFScanningDecoder.c **** 			if (abs(codewordStartColumn - correctedStartColumn) > CODEWORD_SKEW_SIZE) 
  74              		.loc 1 35 32
  75 0060 8B4518   		movl	24(%ebp), %eax
  76 0063 2B45F4   		subl	-12(%ebp), %eax
  77              		.loc 1 35 8
  78 0066 99       		cltd
  79 0067 31D0     		xorl	%edx, %eax
  80 0069 29D0     		subl	%edx, %eax
  81              		.loc 1 35 56
  82 006b BA020000 		movl	$2, %edx
  82      00
  83              		.loc 1 35 7
  84 0070 39D0     		cmpl	%edx, %eax
  85 0072 7E05     		jle	L6
  36:src/pdf417/PDFScanningDecoder.c **** 			{
  37:src/pdf417/PDFScanningDecoder.c **** 				return codewordStartColumn;
  86              		.loc 1 37 12
  87 0074 8B4518   		movl	24(%ebp), %eax
  88 0077 EB58     		jmp	L7
  89              	L6:
  38:src/pdf417/PDFScanningDecoder.c **** 			}
  39:src/pdf417/PDFScanningDecoder.c **** 			correctedStartColumn += increment;
  90              		.loc 1 39 25
  91 0079 8B45F0   		movl	-16(%ebp), %eax
  92 007c 0145F4   		addl	%eax, -12(%ebp)
  93              	L5:
  32:src/pdf417/PDFScanningDecoder.c **** 			leftToRight == image->bits[imageRow * image->_width + correctedStartColumn]) 
  94              		.loc 1 32 9
  95 007f 807DE400 		cmpb	$0, -28(%ebp)
  96 0083 740A     		je	L8
  32:src/pdf417/PDFScanningDecoder.c **** 			leftToRight == image->bits[imageRow * image->_width + correctedStartColumn]) 
  97              		.loc 1 32 9 is_stmt 0 discriminator 1
  98 0085 8B45F4   		movl	-12(%ebp), %eax
  99 0088 3B450C   		cmpl	12(%ebp), %eax
 100 008b 7D0A     		jge	L9
 101 008d EB28     		jmp	L10
 102              	L8:
  32:src/pdf417/PDFScanningDecoder.c **** 			leftToRight == image->bits[imageRow * image->_width + correctedStartColumn]) 
 103              		.loc 1 32 95 is_stmt 1 discriminator 2
 104 008f 8B45F4   		movl	-12(%ebp), %eax
 105 0092 3B4510   		cmpl	16(%ebp), %eax
 106 0095 7D20     		jge	L10
 107              	L9:
  33:src/pdf417/PDFScanningDecoder.c **** 			{
 108              		.loc 1 33 24 discriminator 3
 109 0097 8B4508   		movl	8(%ebp), %eax
 110 009a 8B500C   		movl	12(%eax), %edx
  33:src/pdf417/PDFScanningDecoder.c **** 			{
 111              		.loc 1 33 47 discriminator 3
 112 009d 8B4508   		movl	8(%ebp), %eax
 113 00a0 8B00     		movl	(%eax), %eax
  33:src/pdf417/PDFScanningDecoder.c **** 			{
 114              		.loc 1 33 40 discriminator 3
 115 00a2 0FAF451C 		imull	28(%ebp), %eax
 116 00a6 89C1     		movl	%eax, %ecx
  33:src/pdf417/PDFScanningDecoder.c **** 			{
GAS LISTING C:\Users\jisu8\AppData\Local\Temp\ccX0Ht2c.s 			page 4


 117              		.loc 1 33 56 discriminator 3
 118 00a8 8B45F4   		movl	-12(%ebp), %eax
 119 00ab 01C8     		addl	%ecx, %eax
  33:src/pdf417/PDFScanningDecoder.c **** 			{
 120              		.loc 1 33 30 discriminator 3
 121 00ad 01D0     		addl	%edx, %eax
 122 00af 0FB600   		movzbl	(%eax), %eax
  32:src/pdf417/PDFScanningDecoder.c **** 			leftToRight == image->bits[imageRow * image->_width + correctedStartColumn]) 
 123              		.loc 1 32 95 discriminator 3
 124 00b2 3845E4   		cmpb	%al, -28(%ebp)
 125 00b5 74A9     		je	L11
 126              	L10:
  40:src/pdf417/PDFScanningDecoder.c **** 		}
  41:src/pdf417/PDFScanningDecoder.c **** 		increment = -increment;
 127              		.loc 1 41 13 discriminator 2
 128 00b7 F75DF0   		negl	-16(%ebp)
  42:src/pdf417/PDFScanningDecoder.c **** 		leftToRight = !leftToRight;
 129              		.loc 1 42 17 discriminator 2
 130 00ba 807DE400 		cmpb	$0, -28(%ebp)
 131 00be 0F94C0   		sete	%al
 132              		.loc 1 42 15 discriminator 2
 133 00c1 8845E4   		movb	%al, -28(%ebp)
  30:src/pdf417/PDFScanningDecoder.c **** 	{
 134              		.loc 1 30 26 discriminator 2
 135 00c4 8345EC01 		addl	$1, -20(%ebp)
 136              	L4:
  30:src/pdf417/PDFScanningDecoder.c **** 	{
 137              		.loc 1 30 2 discriminator 1
 138 00c8 837DEC01 		cmpl	$1, -20(%ebp)
 139 00cc 7EB1     		jle	L5
 140              	LBE2:
  43:src/pdf417/PDFScanningDecoder.c **** 	}
  44:src/pdf417/PDFScanningDecoder.c **** 	return correctedStartColumn;
 141              		.loc 1 44 9
 142 00ce 8B45F4   		movl	-12(%ebp), %eax
 143              	L7:
  45:src/pdf417/PDFScanningDecoder.c **** }
 144              		.loc 1 45 1
 145 00d1 C9       		leave
 146              	LCFI2:
 147              		.cfi_restore 5
 148              		.cfi_def_cfa 4, 4
 149 00d2 C3       		ret
 150              		.cfi_endproc
 151              	LFE4:
 152              		.section .rdata,"dr"
 153 0073 00       		.align 4
 154              	LC1:
 155 0074 4765744D 		.ascii "GetModuleBitCount minColumn=%d, maxColumn=%d, leftToRight=%d, startColumn=%d, imageRow=%d\
 155      6F64756C 
 155      65426974 
 155      436F756E 
 155      74206D69 
 156              		.text
 158              	_GetModuleBitCount:
 159              	LFB5:
  46:src/pdf417/PDFScanningDecoder.c **** 
GAS LISTING C:\Users\jisu8\AppData\Local\Temp\ccX0Ht2c.s 			page 5


  47:src/pdf417/PDFScanningDecoder.c **** static uint8_t GetModuleBitCount(const BitMatrix_t * image, int minColumn, int maxColumn, uint8_t l
  48:src/pdf417/PDFScanningDecoder.c **** {
 160              		.loc 1 48 1
 161              		.cfi_startproc
 162 00d3 55       		pushl	%ebp
 163              	LCFI3:
 164              		.cfi_def_cfa_offset 8
 165              		.cfi_offset 5, -8
 166 00d4 89E5     		movl	%esp, %ebp
 167              	LCFI4:
 168              		.cfi_def_cfa_register 5
 169 00d6 83EC48   		subl	$72, %esp
 170 00d9 8B5514   		movl	20(%ebp), %edx
 171 00dc 8B4524   		movl	36(%ebp), %eax
 172 00df 8855E4   		movb	%dl, -28(%ebp)
 173 00e2 8845E0   		movb	%al, -32(%ebp)
  49:src/pdf417/PDFScanningDecoder.c **** 
  50:src/pdf417/PDFScanningDecoder.c **** 	printf("GetModuleBitCount minColumn=%d, maxColumn=%d, leftToRight=%d, startColumn=%d, imageRow=%d\
 174              		.loc 1 50 2
 175 00e5 0FB645E4 		movzbl	-28(%ebp), %eax
 176 00e9 8B551C   		movl	28(%ebp), %edx
 177 00ec 89542414 		movl	%edx, 20(%esp)
 178 00f0 8B5518   		movl	24(%ebp), %edx
 179 00f3 89542410 		movl	%edx, 16(%esp)
 180 00f7 8944240C 		movl	%eax, 12(%esp)
 181 00fb 8B4510   		movl	16(%ebp), %eax
 182 00fe 89442408 		movl	%eax, 8(%esp)
 183 0102 8B450C   		movl	12(%ebp), %eax
 184 0105 89442404 		movl	%eax, 4(%esp)
 185 0109 C7042474 		movl	$LC1, (%esp)
 185      000000
 186 0110 E8000000 		call	_printf
 186      00
  51:src/pdf417/PDFScanningDecoder.c **** 		minColumn, maxColumn, leftToRight, startColumn, imageRow );
  52:src/pdf417/PDFScanningDecoder.c **** 	
  53:src/pdf417/PDFScanningDecoder.c **** 	int imageColumn = startColumn;
 187              		.loc 1 53 6
 188 0115 8B4518   		movl	24(%ebp), %eax
 189 0118 8945F4   		movl	%eax, -12(%ebp)
  54:src/pdf417/PDFScanningDecoder.c **** 	unsigned int moduleNumber = 0;
 190              		.loc 1 54 15
 191 011b C745F000 		movl	$0, -16(%ebp)
 191      000000
  55:src/pdf417/PDFScanningDecoder.c **** 	int increment = leftToRight ? 1 : -1;
 192              		.loc 1 55 34
 193 0122 807DE400 		cmpb	$0, -28(%ebp)
 194 0126 7407     		je	L14
 195              		.loc 1 55 34 is_stmt 0 discriminator 1
 196 0128 B8010000 		movl	$1, %eax
 196      00
 197 012d EB05     		jmp	L15
 198              	L14:
 199              		.loc 1 55 34 discriminator 2
 200 012f B8FFFFFF 		movl	$-1, %eax
 200      FF
 201              	L15:
 202              		.loc 1 55 6 is_stmt 1 discriminator 4
GAS LISTING C:\Users\jisu8\AppData\Local\Temp\ccX0Ht2c.s 			page 6


 203 0134 8945E8   		movl	%eax, -24(%ebp)
  56:src/pdf417/PDFScanningDecoder.c **** 	uint8_t previousPixelValue = leftToRight;
 204              		.loc 1 56 10 discriminator 4
 205 0137 0FB645E4 		movzbl	-28(%ebp), %eax
 206 013b 8845EF   		movb	%al, -17(%ebp)
  57:src/pdf417/PDFScanningDecoder.c **** 	fill(length,moduleBitCount,0);
 207              		.loc 1 57 2 discriminator 4
 208 013e 0FB645E0 		movzbl	-32(%ebp), %eax
 209 0142 C7442408 		movl	$0, 8(%esp)
 209      00000000 
 210 014a 8B5520   		movl	32(%ebp), %edx
 211 014d 89542404 		movl	%edx, 4(%esp)
 212 0151 890424   		movl	%eax, (%esp)
 213 0154 E8000000 		call	_fill
 213      00
  58:src/pdf417/PDFScanningDecoder.c **** 	
  59:src/pdf417/PDFScanningDecoder.c **** 	while ((leftToRight ? (imageColumn < maxColumn) : (imageColumn >= minColumn)) && moduleNumber < le
 214              		.loc 1 59 8 discriminator 4
 215 0159 EB5B     		jmp	L16
 216              	L21:
  60:src/pdf417/PDFScanningDecoder.c **** 	{
  61:src/pdf417/PDFScanningDecoder.c **** 		if (image->bits[imageRow * image->_width + imageColumn] == previousPixelValue) 
 217              		.loc 1 61 12
 218 015b 8B4508   		movl	8(%ebp), %eax
 219 015e 8B500C   		movl	12(%eax), %edx
 220              		.loc 1 61 35
 221 0161 8B4508   		movl	8(%ebp), %eax
 222 0164 8B00     		movl	(%eax), %eax
 223              		.loc 1 61 28
 224 0166 0FAF451C 		imull	28(%ebp), %eax
 225 016a 89C1     		movl	%eax, %ecx
 226              		.loc 1 61 44
 227 016c 8B45F4   		movl	-12(%ebp), %eax
 228 016f 01C8     		addl	%ecx, %eax
 229              		.loc 1 61 18
 230 0171 01D0     		addl	%edx, %eax
 231 0173 0FB600   		movzbl	(%eax), %eax
 232              		.loc 1 61 6
 233 0176 3845EF   		cmpb	%al, -17(%ebp)
 234 0179 752D     		jne	L17
  62:src/pdf417/PDFScanningDecoder.c **** 		{
  63:src/pdf417/PDFScanningDecoder.c **** 			moduleBitCount[moduleNumber] += 1;
 235              		.loc 1 63 33
 236 017b 8B45F0   		movl	-16(%ebp), %eax
 237 017e 8D148500 		leal	0(,%eax,4), %edx
 237      000000
 238 0185 8B4520   		movl	32(%ebp), %eax
 239 0188 01D0     		addl	%edx, %eax
 240 018a 8B10     		movl	(%eax), %edx
 241 018c 8B45F0   		movl	-16(%ebp), %eax
 242 018f 8D0C8500 		leal	0(,%eax,4), %ecx
 242      000000
 243 0196 8B4520   		movl	32(%ebp), %eax
 244 0199 01C8     		addl	%ecx, %eax
 245 019b 83C201   		addl	$1, %edx
 246 019e 8910     		movl	%edx, (%eax)
  64:src/pdf417/PDFScanningDecoder.c **** 			imageColumn += increment;
GAS LISTING C:\Users\jisu8\AppData\Local\Temp\ccX0Ht2c.s 			page 7


 247              		.loc 1 64 16
 248 01a0 8B45E8   		movl	-24(%ebp), %eax
 249 01a3 0145F4   		addl	%eax, -12(%ebp)
 250 01a6 EB0E     		jmp	L16
 251              	L17:
  65:src/pdf417/PDFScanningDecoder.c **** 		}
  66:src/pdf417/PDFScanningDecoder.c **** 		else {
  67:src/pdf417/PDFScanningDecoder.c **** 			moduleNumber += 1;
 252              		.loc 1 67 17
 253 01a8 8345F001 		addl	$1, -16(%ebp)
  68:src/pdf417/PDFScanningDecoder.c **** 			previousPixelValue = !previousPixelValue;
 254              		.loc 1 68 25
 255 01ac 807DEF00 		cmpb	$0, -17(%ebp)
 256 01b0 0F94C0   		sete	%al
 257              		.loc 1 68 23
 258 01b3 8845EF   		movb	%al, -17(%ebp)
 259              	L16:
  59:src/pdf417/PDFScanningDecoder.c **** 	{
 260              		.loc 1 59 8
 261 01b6 807DE400 		cmpb	$0, -28(%ebp)
 262 01ba 740A     		je	L18
  59:src/pdf417/PDFScanningDecoder.c **** 	{
 263              		.loc 1 59 8 is_stmt 0 discriminator 1
 264 01bc 8B45F4   		movl	-12(%ebp), %eax
 265 01bf 3B4510   		cmpl	16(%ebp), %eax
 266 01c2 7C0A     		jl	L19
 267 01c4 EB11     		jmp	L20
 268              	L18:
  59:src/pdf417/PDFScanningDecoder.c **** 	{
 269              		.loc 1 59 80 is_stmt 1 discriminator 2
 270 01c6 8B45F4   		movl	-12(%ebp), %eax
 271 01c9 3B450C   		cmpl	12(%ebp), %eax
 272 01cc 7C09     		jl	L20
 273              	L19:
  59:src/pdf417/PDFScanningDecoder.c **** 	{
 274              		.loc 1 59 96 discriminator 3
 275 01ce 0FB645E0 		movzbl	-32(%ebp), %eax
  59:src/pdf417/PDFScanningDecoder.c **** 	{
 276              		.loc 1 59 80 discriminator 3
 277 01d2 3945F0   		cmpl	%eax, -16(%ebp)
 278 01d5 7284     		jb	L21
 279              	L20:
  69:src/pdf417/PDFScanningDecoder.c **** 		}
  70:src/pdf417/PDFScanningDecoder.c **** 	}
  71:src/pdf417/PDFScanningDecoder.c **** 	return moduleNumber == length || (imageColumn == (leftToRight ? maxColumn : minColumn) && moduleNu
 280              		.loc 1 71 22
 281 01d7 0FB645E0 		movzbl	-32(%ebp), %eax
 282              		.loc 1 71 32
 283 01db 3945F0   		cmpl	%eax, -16(%ebp)
 284 01de 741F     		je	L22
 285              		.loc 1 71 76 discriminator 2
 286 01e0 807DE400 		cmpb	$0, -28(%ebp)
 287 01e4 7405     		je	L23
 288              		.loc 1 71 76 is_stmt 0 discriminator 3
 289 01e6 8B4510   		movl	16(%ebp), %eax
 290 01e9 EB03     		jmp	L24
 291              	L23:
GAS LISTING C:\Users\jisu8\AppData\Local\Temp\ccX0Ht2c.s 			page 8


 292              		.loc 1 71 76 discriminator 4
 293 01eb 8B450C   		movl	12(%ebp), %eax
 294              	L24:
 295              		.loc 1 71 32 is_stmt 1 discriminator 6
 296 01ee 3B45F4   		cmpl	-12(%ebp), %eax
 297 01f1 7513     		jne	L25
 298              		.loc 1 71 115 discriminator 7
 299 01f3 0FB645E0 		movzbl	-32(%ebp), %eax
 300 01f7 83E801   		subl	$1, %eax
 301              		.loc 1 71 89 discriminator 7
 302 01fa 3945F0   		cmpl	%eax, -16(%ebp)
 303 01fd 7507     		jne	L25
 304              	L22:
 305              		.loc 1 71 32 discriminator 9
 306 01ff B8010000 		movl	$1, %eax
 306      00
 307 0204 EB05     		jmp	L26
 308              	L25:
 309              		.loc 1 71 32 is_stmt 0 discriminator 10
 310 0206 B8000000 		movl	$0, %eax
 310      00
 311              	L26:
  72:src/pdf417/PDFScanningDecoder.c **** }
 312              		.loc 1 72 1 is_stmt 1 discriminator 12
 313 020b C9       		leave
 314              	LCFI5:
 315              		.cfi_restore 5
 316              		.cfi_def_cfa 4, 4
 317 020c C3       		ret
 318              		.cfi_endproc
 319              	LFE5:
 321              	_CheckCodewordSkew:
 322              	LFB6:
  73:src/pdf417/PDFScanningDecoder.c **** 
  74:src/pdf417/PDFScanningDecoder.c **** static uint8_t CheckCodewordSkew(int codewordSize, int minCodewordWidth, int maxCodewordWidth)
  75:src/pdf417/PDFScanningDecoder.c **** {
 323              		.loc 1 75 1
 324              		.cfi_startproc
 325 020d 55       		pushl	%ebp
 326              	LCFI6:
 327              		.cfi_def_cfa_offset 8
 328              		.cfi_offset 5, -8
 329 020e 89E5     		movl	%esp, %ebp
 330              	LCFI7:
 331              		.cfi_def_cfa_register 5
  76:src/pdf417/PDFScanningDecoder.c **** 	return minCodewordWidth - CODEWORD_SKEW_SIZE <= codewordSize &&
 332              		.loc 1 76 26
 333 0210 BA020000 		movl	$2, %edx
 333      00
 334 0215 8B450C   		movl	12(%ebp), %eax
 335 0218 29D0     		subl	%edx, %eax
 336              		.loc 1 76 63
 337 021a 394508   		cmpl	%eax, 8(%ebp)
 338 021d 7C16     		jl	L29
  77:src/pdf417/PDFScanningDecoder.c **** 		codewordSize <= maxCodewordWidth + CODEWORD_SKEW_SIZE;
 339              		.loc 1 77 36 discriminator 1
 340 021f BA020000 		movl	$2, %edx
GAS LISTING C:\Users\jisu8\AppData\Local\Temp\ccX0Ht2c.s 			page 9


 340      00
 341 0224 8B4510   		movl	16(%ebp), %eax
 342 0227 01D0     		addl	%edx, %eax
  76:src/pdf417/PDFScanningDecoder.c **** 	return minCodewordWidth - CODEWORD_SKEW_SIZE <= codewordSize &&
 343              		.loc 1 76 63 discriminator 1
 344 0229 394508   		cmpl	%eax, 8(%ebp)
 345 022c 7F07     		jg	L29
  76:src/pdf417/PDFScanningDecoder.c **** 	return minCodewordWidth - CODEWORD_SKEW_SIZE <= codewordSize &&
 346              		.loc 1 76 63 is_stmt 0 discriminator 3
 347 022e B8010000 		movl	$1, %eax
 347      00
 348 0233 EB05     		jmp	L30
 349              	L29:
  76:src/pdf417/PDFScanningDecoder.c **** 	return minCodewordWidth - CODEWORD_SKEW_SIZE <= codewordSize &&
 350              		.loc 1 76 63 discriminator 4
 351 0235 B8000000 		movl	$0, %eax
 351      00
 352              	L30:
  78:src/pdf417/PDFScanningDecoder.c **** }
 353              		.loc 1 78 1 is_stmt 1 discriminator 6
 354 023a 5D       		popl	%ebp
 355              	LCFI8:
 356              		.cfi_restore 5
 357              		.cfi_def_cfa 4, 4
 358 023b C3       		ret
 359              		.cfi_endproc
 360              	LFE6:
 361              		.section .rdata,"dr"
 362 00cf 00       		.align 4
 363              	LC2:
 364 00d0 47657442 		.ascii "GetBitCountForCodeword codeword=%d\12\0"
 364      6974436F 
 364      756E7446 
 364      6F72436F 
 364      6465776F 
 365              		.text
 367              	_GetBitCountForCodeword:
 368              	LFB7:
  79:src/pdf417/PDFScanningDecoder.c **** 
  80:src/pdf417/PDFScanningDecoder.c **** static int * GetBitCountForCodeword(int codeword)
  81:src/pdf417/PDFScanningDecoder.c **** {
 369              		.loc 1 81 1
 370              		.cfi_startproc
 371 023c 55       		pushl	%ebp
 372              	LCFI9:
 373              		.cfi_def_cfa_offset 8
 374              		.cfi_offset 5, -8
 375 023d 89E5     		movl	%esp, %ebp
 376              	LCFI10:
 377              		.cfi_def_cfa_register 5
 378 023f 83EC28   		subl	$40, %esp
  82:src/pdf417/PDFScanningDecoder.c **** 
  83:src/pdf417/PDFScanningDecoder.c **** 	printf("GetBitCountForCodeword codeword=%d\n", codeword);
 379              		.loc 1 83 2
 380 0242 8B4508   		movl	8(%ebp), %eax
 381 0245 89442404 		movl	%eax, 4(%esp)
 382 0249 C70424D0 		movl	$LC2, (%esp)
GAS LISTING C:\Users\jisu8\AppData\Local\Temp\ccX0Ht2c.s 			page 10


 382      000000
 383 0250 E8000000 		call	_printf
 383      00
  84:src/pdf417/PDFScanningDecoder.c **** 
  85:src/pdf417/PDFScanningDecoder.c ****     fill(BARS_IN_MODULE,result_bits,0);
 384              		.loc 1 85 5
 385 0255 A1000000 		movl	_BARS_IN_MODULE, %eax
 385      00
 386 025a C7442408 		movl	$0, 8(%esp)
 386      00000000 
 387 0262 C7442404 		movl	$_result_bits, 4(%esp)
 387      00000000 
 388 026a 890424   		movl	%eax, (%esp)
 389 026d E8000000 		call	_fill
 389      00
  86:src/pdf417/PDFScanningDecoder.c **** 	int previousValue = 0;
 390              		.loc 1 86 6
 391 0272 C745F400 		movl	$0, -12(%ebp)
 391      000000
  87:src/pdf417/PDFScanningDecoder.c **** 	int i = sizeof(result_bits)/sizeof(result_bits[0]) - 1;
 392              		.loc 1 87 6
 393 0279 C745F007 		movl	$7, -16(%ebp)
 393      000000
 394              	L35:
  88:src/pdf417/PDFScanningDecoder.c **** 	while (1) 
  89:src/pdf417/PDFScanningDecoder.c **** 	{
  90:src/pdf417/PDFScanningDecoder.c **** 		if ((codeword & 0x1) != previousValue) 
 395              		.loc 1 90 17
 396 0280 8B4508   		movl	8(%ebp), %eax
 397 0283 83E001   		andl	$1, %eax
 398              		.loc 1 90 6
 399 0286 3945F4   		cmpl	%eax, -12(%ebp)
 400 0289 7413     		je	L33
  91:src/pdf417/PDFScanningDecoder.c **** 		{
  92:src/pdf417/PDFScanningDecoder.c **** 			previousValue = codeword & 0x1;
 401              		.loc 1 92 18
 402 028b 8B4508   		movl	8(%ebp), %eax
 403 028e 83E001   		andl	$1, %eax
 404 0291 8945F4   		movl	%eax, -12(%ebp)
  93:src/pdf417/PDFScanningDecoder.c **** 			i--;
 405              		.loc 1 93 5
 406 0294 836DF001 		subl	$1, -16(%ebp)
  94:src/pdf417/PDFScanningDecoder.c **** 			if (i < 0) 
 407              		.loc 1 94 7
 408 0298 837DF000 		cmpl	$0, -16(%ebp)
 409 029c 781C     		js	L38
 410              	L33:
  95:src/pdf417/PDFScanningDecoder.c **** 			{
  96:src/pdf417/PDFScanningDecoder.c **** 				break;
  97:src/pdf417/PDFScanningDecoder.c **** 			}
  98:src/pdf417/PDFScanningDecoder.c **** 		}
  99:src/pdf417/PDFScanningDecoder.c **** 		result_bits[i]++;
 411              		.loc 1 99 14
 412 029e 8B45F0   		movl	-16(%ebp), %eax
 413 02a1 8B048500 		movl	_result_bits(,%eax,4), %eax
 413      000000
 414              		.loc 1 99 17
GAS LISTING C:\Users\jisu8\AppData\Local\Temp\ccX0Ht2c.s 			page 11


 415 02a8 8D5001   		leal	1(%eax), %edx
 416 02ab 8B45F0   		movl	-16(%ebp), %eax
 417 02ae 89148500 		movl	%edx, _result_bits(,%eax,4)
 417      000000
 100:src/pdf417/PDFScanningDecoder.c **** 		codeword >>= 1;
 418              		.loc 1 100 12
 419 02b5 D17D08   		sarl	8(%ebp)
  90:src/pdf417/PDFScanningDecoder.c **** 		{
 420              		.loc 1 90 6
 421 02b8 EBC6     		jmp	L35
 422              	L38:
  96:src/pdf417/PDFScanningDecoder.c **** 			}
 423              		.loc 1 96 5
 424 02ba 90       		nop
 101:src/pdf417/PDFScanningDecoder.c **** 	}
 102:src/pdf417/PDFScanningDecoder.c **** 	return result_bits;
 425              		.loc 1 102 9
 426 02bb B8000000 		movl	$_result_bits, %eax
 426      00
 103:src/pdf417/PDFScanningDecoder.c **** }
 427              		.loc 1 103 1
 428 02c0 C9       		leave
 429              	LCFI11:
 430              		.cfi_restore 5
 431              		.cfi_def_cfa 4, 4
 432 02c1 C3       		ret
 433              		.cfi_endproc
 434              	LFE7:
 436              	_GetCodewordBucketNumberRet:
 437              	LFB8:
 104:src/pdf417/PDFScanningDecoder.c **** 
 105:src/pdf417/PDFScanningDecoder.c **** static int GetCodewordBucketNumberRet(const int * moduleBitCount)
 106:src/pdf417/PDFScanningDecoder.c **** {
 438              		.loc 1 106 1
 439              		.cfi_startproc
 440 02c2 55       		pushl	%ebp
 441              	LCFI12:
 442              		.cfi_def_cfa_offset 8
 443              		.cfi_offset 5, -8
 444 02c3 89E5     		movl	%esp, %ebp
 445              	LCFI13:
 446              		.cfi_def_cfa_register 5
 107:src/pdf417/PDFScanningDecoder.c **** 	return (moduleBitCount[0] - moduleBitCount[2] + moduleBitCount[4] - moduleBitCount[6] + 9) % 9;
 447              		.loc 1 107 24
 448 02c5 8B4508   		movl	8(%ebp), %eax
 449 02c8 8B10     		movl	(%eax), %edx
 450              		.loc 1 107 44
 451 02ca 8B4508   		movl	8(%ebp), %eax
 452 02cd 83C008   		addl	$8, %eax
 453 02d0 8B00     		movl	(%eax), %eax
 454              		.loc 1 107 28
 455 02d2 29C2     		subl	%eax, %edx
 456              		.loc 1 107 64
 457 02d4 8B4508   		movl	8(%ebp), %eax
 458 02d7 83C010   		addl	$16, %eax
 459 02da 8B00     		movl	(%eax), %eax
 460              		.loc 1 107 48
GAS LISTING C:\Users\jisu8\AppData\Local\Temp\ccX0Ht2c.s 			page 12


 461 02dc 01C2     		addl	%eax, %edx
 462              		.loc 1 107 84
 463 02de 8B4508   		movl	8(%ebp), %eax
 464 02e1 83C018   		addl	$24, %eax
 465 02e4 8B00     		movl	(%eax), %eax
 466              		.loc 1 107 68
 467 02e6 29C2     		subl	%eax, %edx
 468 02e8 89D0     		movl	%edx, %eax
 469              		.loc 1 107 88
 470 02ea 8D4809   		leal	9(%eax), %ecx
 471              		.loc 1 107 93
 472 02ed BA398EE3 		movl	$954437177, %edx
 472      38
 473 02f2 89C8     		movl	%ecx, %eax
 474 02f4 F7EA     		imull	%edx
 475 02f6 D1FA     		sarl	%edx
 476 02f8 89C8     		movl	%ecx, %eax
 477 02fa C1F81F   		sarl	$31, %eax
 478 02fd 29C2     		subl	%eax, %edx
 479 02ff 89D0     		movl	%edx, %eax
 480 0301 C1E003   		sall	$3, %eax
 481 0304 01D0     		addl	%edx, %eax
 482 0306 29C1     		subl	%eax, %ecx
 483 0308 89CA     		movl	%ecx, %edx
 484 030a 89D0     		movl	%edx, %eax
 108:src/pdf417/PDFScanningDecoder.c **** }
 485              		.loc 1 108 1
 486 030c 5D       		popl	%ebp
 487              	LCFI14:
 488              		.cfi_restore 5
 489              		.cfi_def_cfa 4, 4
 490 030d C3       		ret
 491              		.cfi_endproc
 492              	LFE8:
 494              	_GetCodewordBucketNumber:
 495              	LFB9:
 109:src/pdf417/PDFScanningDecoder.c **** 
 110:src/pdf417/PDFScanningDecoder.c **** 
 111:src/pdf417/PDFScanningDecoder.c **** static int GetCodewordBucketNumber(int codeword)
 112:src/pdf417/PDFScanningDecoder.c **** {
 496              		.loc 1 112 1
 497              		.cfi_startproc
 498 030e 55       		pushl	%ebp
 499              	LCFI15:
 500              		.cfi_def_cfa_offset 8
 501              		.cfi_offset 5, -8
 502 030f 89E5     		movl	%esp, %ebp
 503              	LCFI16:
 504              		.cfi_def_cfa_register 5
 505 0311 83EC18   		subl	$24, %esp
 113:src/pdf417/PDFScanningDecoder.c **** 	return GetCodewordBucketNumberRet(GetBitCountForCodeword(codeword));
 506              		.loc 1 113 36
 507 0314 8B4508   		movl	8(%ebp), %eax
 508 0317 890424   		movl	%eax, (%esp)
 509 031a E81DFFFF 		call	_GetBitCountForCodeword
 509      FF
 510              		.loc 1 113 9
GAS LISTING C:\Users\jisu8\AppData\Local\Temp\ccX0Ht2c.s 			page 13


 511 031f 890424   		movl	%eax, (%esp)
 512 0322 E89BFFFF 		call	_GetCodewordBucketNumberRet
 512      FF
 114:src/pdf417/PDFScanningDecoder.c **** }
 513              		.loc 1 114 1
 514 0327 C9       		leave
 515              	LCFI17:
 516              		.cfi_restore 5
 517              		.cfi_def_cfa 4, 4
 518 0328 C3       		ret
 519              		.cfi_endproc
 520              	LFE9:
 522              	_Codeword:
 523              	LFB10:
 115:src/pdf417/PDFScanningDecoder.c **** 
 116:src/pdf417/PDFScanningDecoder.c **** static Codeword_t * Codeword(int startX, int endX, int bucket, int value)
 117:src/pdf417/PDFScanningDecoder.c **** {
 524              		.loc 1 117 1
 525              		.cfi_startproc
 526 0329 55       		pushl	%ebp
 527              	LCFI18:
 528              		.cfi_def_cfa_offset 8
 529              		.cfi_offset 5, -8
 530 032a 89E5     		movl	%esp, %ebp
 531              	LCFI19:
 532              		.cfi_def_cfa_register 5
 118:src/pdf417/PDFScanningDecoder.c **** 	CodeWord.m_hasValue = 1;
 533              		.loc 1 118 22
 534 032c C6050000 		movb	$1, _CodeWord
 534      000001
 119:src/pdf417/PDFScanningDecoder.c **** 	CodeWord.m_value._startX = startX;
 535              		.loc 1 119 27
 536 0333 8B4508   		movl	8(%ebp), %eax
 537 0336 A3040000 		movl	%eax, _CodeWord+4
 537      00
 120:src/pdf417/PDFScanningDecoder.c **** 	CodeWord.m_value._endX = endX;
 538              		.loc 1 120 25
 539 033b 8B450C   		movl	12(%ebp), %eax
 540 033e A3080000 		movl	%eax, _CodeWord+8
 540      00
 121:src/pdf417/PDFScanningDecoder.c **** 	CodeWord.m_value._bucket = bucket;
 541              		.loc 1 121 27
 542 0343 8B4510   		movl	16(%ebp), %eax
 543 0346 A30C0000 		movl	%eax, _CodeWord+12
 543      00
 122:src/pdf417/PDFScanningDecoder.c **** 	CodeWord.m_value._value = value;
 544              		.loc 1 122 26
 545 034b 8B4514   		movl	20(%ebp), %eax
 546 034e A3100000 		movl	%eax, _CodeWord+16
 546      00
 123:src/pdf417/PDFScanningDecoder.c **** 	CodeWord.m_value._rowNumber = BARCODE_ROW_UNKNOWN;	
 547              		.loc 1 123 30
 548 0353 B8FFFFFF 		movl	$-1, %eax
 548      FF
 549 0358 A3140000 		movl	%eax, _CodeWord+20
 549      00
 124:src/pdf417/PDFScanningDecoder.c **** 
GAS LISTING C:\Users\jisu8\AppData\Local\Temp\ccX0Ht2c.s 			page 14


 125:src/pdf417/PDFScanningDecoder.c **** 	return &CodeWord;
 550              		.loc 1 125 9
 551 035d B8000000 		movl	$_CodeWord, %eax
 551      00
 126:src/pdf417/PDFScanningDecoder.c **** }
 552              		.loc 1 126 1
 553 0362 5D       		popl	%ebp
 554              	LCFI20:
 555              		.cfi_restore 5
 556              		.cfi_def_cfa 4, 4
 557 0363 C3       		ret
 558              		.cfi_endproc
 559              	LFE10:
 560              		.section .rdata,"dr"
 561              		.align 4
 562              	LC3:
 563 00f4 44657465 		.ascii "DetectCodeword minColumn=%d, maxColumn=%d, leftToRight=%d, startColumn=%d, imageRow=%d, mi
 563      6374436F 
 563      6465776F 
 563      7264206D 
 563      696E436F 
 564              		.text
 566              	_DetectCodeword:
 567              	LFB11:
 127:src/pdf417/PDFScanningDecoder.c **** 
 128:src/pdf417/PDFScanningDecoder.c **** static Codeword_t * DetectCodeword(const BitMatrix_t * image, int minColumn, int maxColumn, uint8_t
 129:src/pdf417/PDFScanningDecoder.c **** {
 568              		.loc 1 129 1
 569              		.cfi_startproc
 570 0364 55       		pushl	%ebp
 571              	LCFI21:
 572              		.cfi_def_cfa_offset 8
 573              		.cfi_offset 5, -8
 574 0365 89E5     		movl	%esp, %ebp
 575              	LCFI22:
 576              		.cfi_def_cfa_register 5
 577 0367 83EC78   		subl	$120, %esp
 578 036a 8B4514   		movl	20(%ebp), %eax
 579 036d 8845B4   		movb	%al, -76(%ebp)
 130:src/pdf417/PDFScanningDecoder.c **** 	printf("DetectCodeword minColumn=%d, maxColumn=%d, leftToRight=%d, startColumn=%d, imageRow=%d, mi
 580              		.loc 1 130 2
 581 0370 0FB645B4 		movzbl	-76(%ebp), %eax
 582 0374 8B5524   		movl	36(%ebp), %edx
 583 0377 8954241C 		movl	%edx, 28(%esp)
 584 037b 8B5520   		movl	32(%ebp), %edx
 585 037e 89542418 		movl	%edx, 24(%esp)
 586 0382 8B551C   		movl	28(%ebp), %edx
 587 0385 89542414 		movl	%edx, 20(%esp)
 588 0389 8B5518   		movl	24(%ebp), %edx
 589 038c 89542410 		movl	%edx, 16(%esp)
 590 0390 8944240C 		movl	%eax, 12(%esp)
 591 0394 8B4510   		movl	16(%ebp), %eax
 592 0397 89442408 		movl	%eax, 8(%esp)
 593 039b 8B450C   		movl	12(%ebp), %eax
 594 039e 89442404 		movl	%eax, 4(%esp)
 595 03a2 C70424F4 		movl	$LC3, (%esp)
 595      000000
GAS LISTING C:\Users\jisu8\AppData\Local\Temp\ccX0Ht2c.s 			page 15


 596 03a9 E8000000 		call	_printf
 596      00
 131:src/pdf417/PDFScanningDecoder.c **** 		minColumn, maxColumn, leftToRight, startColumn, imageRow, minCodewordWidth, maxCodewordWidth);
 132:src/pdf417/PDFScanningDecoder.c **** 
 133:src/pdf417/PDFScanningDecoder.c **** 	startColumn = AdjustCodewordStartColumn(image, minColumn, maxColumn, leftToRight, startColumn, ima
 597              		.loc 1 133 16
 598 03ae 0FB645B4 		movzbl	-76(%ebp), %eax
 599 03b2 8B551C   		movl	28(%ebp), %edx
 600 03b5 89542414 		movl	%edx, 20(%esp)
 601 03b9 8B5518   		movl	24(%ebp), %edx
 602 03bc 89542410 		movl	%edx, 16(%esp)
 603 03c0 8944240C 		movl	%eax, 12(%esp)
 604 03c4 8B4510   		movl	16(%ebp), %eax
 605 03c7 89442408 		movl	%eax, 8(%esp)
 606 03cb 8B450C   		movl	12(%ebp), %eax
 607 03ce 89442404 		movl	%eax, 4(%esp)
 608 03d2 8B4508   		movl	8(%ebp), %eax
 609 03d5 890424   		movl	%eax, (%esp)
 610 03d8 E823FCFF 		call	_AdjustCodewordStartColumn
 610      FF
 611 03dd 894518   		movl	%eax, 24(%ebp)
 134:src/pdf417/PDFScanningDecoder.c **** 	// we usually know fairly exact now how long a codeword is. We should provide minimum and maximum 
 135:src/pdf417/PDFScanningDecoder.c **** 	// and try to adjust the read pixels, e.g. remove single pixel errors or try to cut off exceeding 
 136:src/pdf417/PDFScanningDecoder.c **** 	// min and maxCodewordWidth should not be used as they are calculated for the whole barcode an can
 137:src/pdf417/PDFScanningDecoder.c **** 	// for the current position
 138:src/pdf417/PDFScanningDecoder.c **** 	int moduleBitCount[8];
 139:src/pdf417/PDFScanningDecoder.c **** 	int length = sizeof(moduleBitCount) / sizeof(moduleBitCount[0]);
 612              		.loc 1 139 6
 613 03e0 C745F008 		movl	$8, -16(%ebp)
 613      000000
 140:src/pdf417/PDFScanningDecoder.c **** 	if (!GetModuleBitCount(image, minColumn, maxColumn, leftToRight, startColumn, imageRow, moduleBitC
 614              		.loc 1 140 7
 615 03e7 8B45F0   		movl	-16(%ebp), %eax
 616 03ea 0FB6D0   		movzbl	%al, %edx
 617 03ed 0FB645B4 		movzbl	-76(%ebp), %eax
 618 03f1 8954241C 		movl	%edx, 28(%esp)
 619 03f5 8D55C4   		leal	-60(%ebp), %edx
 620 03f8 89542418 		movl	%edx, 24(%esp)
 621 03fc 8B551C   		movl	28(%ebp), %edx
 622 03ff 89542414 		movl	%edx, 20(%esp)
 623 0403 8B5518   		movl	24(%ebp), %edx
 624 0406 89542410 		movl	%edx, 16(%esp)
 625 040a 8944240C 		movl	%eax, 12(%esp)
 626 040e 8B4510   		movl	16(%ebp), %eax
 627 0411 89442408 		movl	%eax, 8(%esp)
 628 0415 8B450C   		movl	12(%ebp), %eax
 629 0418 89442404 		movl	%eax, 4(%esp)
 630 041c 8B4508   		movl	8(%ebp), %eax
 631 041f 890424   		movl	%eax, (%esp)
 632 0422 E8ACFCFF 		call	_GetModuleBitCount
 632      FF
 633              		.loc 1 140 5
 634 0427 84C0     		testb	%al, %al
 635 0429 750A     		jne	L46
 141:src/pdf417/PDFScanningDecoder.c **** 	{
 142:src/pdf417/PDFScanningDecoder.c **** 		return NULL;
 636              		.loc 1 142 10
GAS LISTING C:\Users\jisu8\AppData\Local\Temp\ccX0Ht2c.s 			page 16


 637 042b B8000000 		movl	$0, %eax
 637      00
 638 0430 E9C60000 		jmp	L52
 638      00
 639              	L46:
 143:src/pdf417/PDFScanningDecoder.c **** 	}
 144:src/pdf417/PDFScanningDecoder.c **** 	int endColumn;
 145:src/pdf417/PDFScanningDecoder.c **** 	int codewordBitCount = Reduce(length,moduleBitCount);
 640              		.loc 1 145 25
 641 0435 8D45C4   		leal	-60(%ebp), %eax
 642 0438 89442404 		movl	%eax, 4(%esp)
 643 043c 8B45F0   		movl	-16(%ebp), %eax
 644 043f 890424   		movl	%eax, (%esp)
 645 0442 E8000000 		call	_Reduce
 645      00
 646 0447 8945EC   		movl	%eax, -20(%ebp)
 146:src/pdf417/PDFScanningDecoder.c **** 	if (leftToRight) 
 647              		.loc 1 146 5
 648 044a 807DB400 		cmpb	$0, -76(%ebp)
 649 044e 740D     		je	L48
 147:src/pdf417/PDFScanningDecoder.c **** 	{
 148:src/pdf417/PDFScanningDecoder.c **** 		endColumn = startColumn + codewordBitCount;
 650              		.loc 1 148 13
 651 0450 8B5518   		movl	24(%ebp), %edx
 652 0453 8B45EC   		movl	-20(%ebp), %eax
 653 0456 01D0     		addl	%edx, %eax
 654 0458 8945F4   		movl	%eax, -12(%ebp)
 655 045b EB21     		jmp	L49
 656              	L48:
 149:src/pdf417/PDFScanningDecoder.c **** 	}
 150:src/pdf417/PDFScanningDecoder.c **** 	else 
 151:src/pdf417/PDFScanningDecoder.c **** 	{
 152:src/pdf417/PDFScanningDecoder.c **** 		reverse(length,moduleBitCount);
 657              		.loc 1 152 3
 658 045d 8D45C4   		leal	-60(%ebp), %eax
 659 0460 89442404 		movl	%eax, 4(%esp)
 660 0464 8B45F0   		movl	-16(%ebp), %eax
 661 0467 890424   		movl	%eax, (%esp)
 662 046a E8000000 		call	_reverse
 662      00
 153:src/pdf417/PDFScanningDecoder.c **** 		endColumn = startColumn;
 663              		.loc 1 153 13
 664 046f 8B4518   		movl	24(%ebp), %eax
 665 0472 8945F4   		movl	%eax, -12(%ebp)
 154:src/pdf417/PDFScanningDecoder.c **** 		startColumn = endColumn - codewordBitCount;
 666              		.loc 1 154 15
 667 0475 8B45F4   		movl	-12(%ebp), %eax
 668 0478 2B45EC   		subl	-20(%ebp), %eax
 669 047b 894518   		movl	%eax, 24(%ebp)
 670              	L49:
 155:src/pdf417/PDFScanningDecoder.c **** 	}
 156:src/pdf417/PDFScanningDecoder.c **** 
 157:src/pdf417/PDFScanningDecoder.c **** 	// We could also use the width of surrounding codewords for more accurate results, but this seems
 158:src/pdf417/PDFScanningDecoder.c **** 	// sufficient for now
 159:src/pdf417/PDFScanningDecoder.c **** 	if (!CheckCodewordSkew(codewordBitCount, minCodewordWidth, maxCodewordWidth)) {
 671              		.loc 1 159 7
 672 047e 8B4524   		movl	36(%ebp), %eax
GAS LISTING C:\Users\jisu8\AppData\Local\Temp\ccX0Ht2c.s 			page 17


 673 0481 89442408 		movl	%eax, 8(%esp)
 674 0485 8B4520   		movl	32(%ebp), %eax
 675 0488 89442404 		movl	%eax, 4(%esp)
 676 048c 8B45EC   		movl	-20(%ebp), %eax
 677 048f 890424   		movl	%eax, (%esp)
 678 0492 E876FDFF 		call	_CheckCodewordSkew
 678      FF
 679              		.loc 1 159 5
 680 0497 84C0     		testb	%al, %al
 681 0499 7507     		jne	L50
 160:src/pdf417/PDFScanningDecoder.c **** 		// We could try to use the startX and endX position of the codeword in the same column in the pre
 161:src/pdf417/PDFScanningDecoder.c **** 		// create the bit count from it and normalize it to 8. This would help with single pixel errors.
 162:src/pdf417/PDFScanningDecoder.c **** 		return NULL;
 682              		.loc 1 162 10
 683 049b B8000000 		movl	$0, %eax
 683      00
 684 04a0 EB59     		jmp	L52
 685              	L50:
 163:src/pdf417/PDFScanningDecoder.c **** 	}
 164:src/pdf417/PDFScanningDecoder.c **** 
 165:src/pdf417/PDFScanningDecoder.c **** 	int decodedValue = GetDecodedValue(moduleBitCount);
 686              		.loc 1 165 21
 687 04a2 8D45C4   		leal	-60(%ebp), %eax
 688 04a5 890424   		movl	%eax, (%esp)
 689 04a8 E8000000 		call	_GetDecodedValue
 689      00
 690 04ad 8945E8   		movl	%eax, -24(%ebp)
 166:src/pdf417/PDFScanningDecoder.c **** 	if (decodedValue != -1) 
 691              		.loc 1 166 5
 692 04b0 837DE8FF 		cmpl	$-1, -24(%ebp)
 693 04b4 7440     		je	L51
 694              	LBB3:
 167:src/pdf417/PDFScanningDecoder.c **** 	{
 168:src/pdf417/PDFScanningDecoder.c **** 		int codeword = GetCodeword(decodedValue);
 695              		.loc 1 168 18
 696 04b6 8B45E8   		movl	-24(%ebp), %eax
 697 04b9 890424   		movl	%eax, (%esp)
 698 04bc E8000000 		call	_GetCodeword
 698      00
 699 04c1 8945E4   		movl	%eax, -28(%ebp)
 169:src/pdf417/PDFScanningDecoder.c **** 		if (codeword != -1) 
 700              		.loc 1 169 6
 701 04c4 837DE4FF 		cmpl	$-1, -28(%ebp)
 702 04c8 742C     		je	L51
 170:src/pdf417/PDFScanningDecoder.c **** 		{
 171:src/pdf417/PDFScanningDecoder.c **** 			return Codeword(startColumn, endColumn, GetCodewordBucketNumber(decodedValue), codeword);
 703              		.loc 1 171 11
 704 04ca 8B45E8   		movl	-24(%ebp), %eax
 705 04cd 890424   		movl	%eax, (%esp)
 706 04d0 E839FEFF 		call	_GetCodewordBucketNumber
 706      FF
 707 04d5 89C2     		movl	%eax, %edx
 708 04d7 8B45E4   		movl	-28(%ebp), %eax
 709 04da 8944240C 		movl	%eax, 12(%esp)
 710 04de 89542408 		movl	%edx, 8(%esp)
 711 04e2 8B45F4   		movl	-12(%ebp), %eax
 712 04e5 89442404 		movl	%eax, 4(%esp)
GAS LISTING C:\Users\jisu8\AppData\Local\Temp\ccX0Ht2c.s 			page 18


 713 04e9 8B4518   		movl	24(%ebp), %eax
 714 04ec 890424   		movl	%eax, (%esp)
 715 04ef E835FEFF 		call	_Codeword
 715      FF
 716 04f4 EB05     		jmp	L52
 717              	L51:
 718              	LBE3:
 172:src/pdf417/PDFScanningDecoder.c **** 		}
 173:src/pdf417/PDFScanningDecoder.c **** 	}
 174:src/pdf417/PDFScanningDecoder.c **** 
 175:src/pdf417/PDFScanningDecoder.c **** 	return NULL;
 719              		.loc 1 175 9
 720 04f6 B8000000 		movl	$0, %eax
 720      00
 721              	L52:
 176:src/pdf417/PDFScanningDecoder.c **** }
 722              		.loc 1 176 1 discriminator 1
 723 04fb C9       		leave
 724              	LCFI23:
 725              		.cfi_restore 5
 726              		.cfi_def_cfa 4, 4
 727 04fc C3       		ret
 728              		.cfi_endproc
 729              	LFE11:
 731              	_setCodeword:
 732              	LFB12:
 177:src/pdf417/PDFScanningDecoder.c **** static void setCodeword(int imageRow, Codeword_t * codeword, DetectionResultColumn_t * RowIndicator
 178:src/pdf417/PDFScanningDecoder.c **** {
 733              		.loc 1 178 1
 734              		.cfi_startproc
 735 04fd 55       		pushl	%ebp
 736              	LCFI24:
 737              		.cfi_def_cfa_offset 8
 738              		.cfi_offset 5, -8
 739 04fe 89E5     		movl	%esp, %ebp
 740              	LCFI25:
 741              		.cfi_def_cfa_register 5
 742 0500 53       		pushl	%ebx
 743 0501 83EC14   		subl	$20, %esp
 744              		.cfi_offset 3, -12
 745 0504 8B4514   		movl	20(%ebp), %eax
 746 0507 8845E8   		movb	%al, -24(%ebp)
 179:src/pdf417/PDFScanningDecoder.c **** 	int idx = imageRow - RowIndicatorColumn->m_value._boundingBox.m_value._minY;
 747              		.loc 1 179 71
 748 050a 8B4510   		movl	16(%ebp), %eax
 749 050d 8B4048   		movl	72(%eax), %eax
 750              		.loc 1 179 6
 751 0510 8B5508   		movl	8(%ebp), %edx
 752 0513 29C2     		subl	%eax, %edx
 753 0515 89D0     		movl	%edx, %eax
 754 0517 8945F8   		movl	%eax, -8(%ebp)
 180:src/pdf417/PDFScanningDecoder.c **** 	if(empty == 0)
 755              		.loc 1 180 4
 756 051a 807DE800 		cmpb	$0, -24(%ebp)
 757 051e 0F85AD00 		jne	L54
 757      0000
 181:src/pdf417/PDFScanningDecoder.c **** 	{
GAS LISTING C:\Users\jisu8\AppData\Local\Temp\ccX0Ht2c.s 			page 19


 182:src/pdf417/PDFScanningDecoder.c **** 		RowIndicatorColumn->m_value._codewords[idx].m_hasValue = codeword->m_hasValue;
 758              		.loc 1 182 68
 759 0524 8B450C   		movl	12(%ebp), %eax
 760 0527 0FB608   		movzbl	(%eax), %ecx
 761              		.loc 1 182 58
 762 052a 8B5D10   		movl	16(%ebp), %ebx
 763 052d 8B55F8   		movl	-8(%ebp), %edx
 764 0530 89D0     		movl	%edx, %eax
 765 0532 01C0     		addl	%eax, %eax
 766 0534 01D0     		addl	%edx, %eax
 767 0536 C1E003   		sall	$3, %eax
 768 0539 01D8     		addl	%ebx, %eax
 769 053b 83C050   		addl	$80, %eax
 770 053e 8808     		movb	%cl, (%eax)
 183:src/pdf417/PDFScanningDecoder.c **** 		RowIndicatorColumn->m_value._codewords[idx].m_value._bucket = codeword->m_value._bucket;
 771              		.loc 1 183 82
 772 0540 8B450C   		movl	12(%ebp), %eax
 773 0543 8B480C   		movl	12(%eax), %ecx
 774              		.loc 1 183 63
 775 0546 8B5D10   		movl	16(%ebp), %ebx
 776 0549 8B55F8   		movl	-8(%ebp), %edx
 777 054c 89D0     		movl	%edx, %eax
 778 054e 01C0     		addl	%eax, %eax
 779 0550 01D0     		addl	%edx, %eax
 780 0552 C1E003   		sall	$3, %eax
 781 0555 01D8     		addl	%ebx, %eax
 782 0557 83C05C   		addl	$92, %eax
 783 055a 8908     		movl	%ecx, (%eax)
 184:src/pdf417/PDFScanningDecoder.c **** 		RowIndicatorColumn->m_value._codewords[idx].m_value._endX = codeword->m_value._endX;
 784              		.loc 1 184 80
 785 055c 8B450C   		movl	12(%ebp), %eax
 786 055f 8B4808   		movl	8(%eax), %ecx
 787              		.loc 1 184 61
 788 0562 8B5D10   		movl	16(%ebp), %ebx
 789 0565 8B55F8   		movl	-8(%ebp), %edx
 790 0568 89D0     		movl	%edx, %eax
 791 056a 01C0     		addl	%eax, %eax
 792 056c 01D0     		addl	%edx, %eax
 793 056e C1E003   		sall	$3, %eax
 794 0571 01D8     		addl	%ebx, %eax
 795 0573 83C058   		addl	$88, %eax
 796 0576 8908     		movl	%ecx, (%eax)
 185:src/pdf417/PDFScanningDecoder.c **** 		RowIndicatorColumn->m_value._codewords[idx].m_value._rowNumber = codeword->m_value._rowNumber;
 797              		.loc 1 185 85
 798 0578 8B450C   		movl	12(%ebp), %eax
 799 057b 8B4814   		movl	20(%eax), %ecx
 800              		.loc 1 185 66
 801 057e 8B5D10   		movl	16(%ebp), %ebx
 802 0581 8B55F8   		movl	-8(%ebp), %edx
 803 0584 89D0     		movl	%edx, %eax
 804 0586 01C0     		addl	%eax, %eax
 805 0588 01D0     		addl	%edx, %eax
 806 058a C1E003   		sall	$3, %eax
 807 058d 01D8     		addl	%ebx, %eax
 808 058f 83C064   		addl	$100, %eax
 809 0592 8908     		movl	%ecx, (%eax)
 186:src/pdf417/PDFScanningDecoder.c **** 		RowIndicatorColumn->m_value._codewords[idx].m_value._startX = codeword->m_value._startX;
GAS LISTING C:\Users\jisu8\AppData\Local\Temp\ccX0Ht2c.s 			page 20


 810              		.loc 1 186 82
 811 0594 8B450C   		movl	12(%ebp), %eax
 812 0597 8B4804   		movl	4(%eax), %ecx
 813              		.loc 1 186 63
 814 059a 8B5D10   		movl	16(%ebp), %ebx
 815 059d 8B55F8   		movl	-8(%ebp), %edx
 816 05a0 89D0     		movl	%edx, %eax
 817 05a2 01C0     		addl	%eax, %eax
 818 05a4 01D0     		addl	%edx, %eax
 819 05a6 C1E003   		sall	$3, %eax
 820 05a9 01D8     		addl	%ebx, %eax
 821 05ab 83C054   		addl	$84, %eax
 822 05ae 8908     		movl	%ecx, (%eax)
 187:src/pdf417/PDFScanningDecoder.c **** 		RowIndicatorColumn->m_value._codewords[idx].m_value._value = codeword->m_value._value;
 823              		.loc 1 187 81
 824 05b0 8B450C   		movl	12(%ebp), %eax
 825 05b3 8B4810   		movl	16(%eax), %ecx
 826              		.loc 1 187 62
 827 05b6 8B5D10   		movl	16(%ebp), %ebx
 828 05b9 8B55F8   		movl	-8(%ebp), %edx
 829 05bc 89D0     		movl	%edx, %eax
 830 05be 01C0     		addl	%eax, %eax
 831 05c0 01D0     		addl	%edx, %eax
 832 05c2 C1E003   		sall	$3, %eax
 833 05c5 01D8     		addl	%ebx, %eax
 834 05c7 83C060   		addl	$96, %eax
 835 05ca 8908     		movl	%ecx, (%eax)
 188:src/pdf417/PDFScanningDecoder.c **** 	}
 189:src/pdf417/PDFScanningDecoder.c **** 	else
 190:src/pdf417/PDFScanningDecoder.c **** 	{
 191:src/pdf417/PDFScanningDecoder.c **** 		RowIndicatorColumn->m_value._codewords[idx].m_hasValue = 0;
 192:src/pdf417/PDFScanningDecoder.c **** 		RowIndicatorColumn->m_value._codewords[idx].m_value._bucket = 0;
 193:src/pdf417/PDFScanningDecoder.c **** 		RowIndicatorColumn->m_value._codewords[idx].m_value._endX = 0;
 194:src/pdf417/PDFScanningDecoder.c **** 		RowIndicatorColumn->m_value._codewords[idx].m_value._rowNumber = 0;
 195:src/pdf417/PDFScanningDecoder.c **** 		RowIndicatorColumn->m_value._codewords[idx].m_value._startX = 0;
 196:src/pdf417/PDFScanningDecoder.c **** 		RowIndicatorColumn->m_value._codewords[idx].m_value._value = 0;
 197:src/pdf417/PDFScanningDecoder.c **** 	}
 198:src/pdf417/PDFScanningDecoder.c **** }
 836              		.loc 1 198 1
 837 05cc E9990000 		jmp	L56
 837      00
 838              	L54:
 191:src/pdf417/PDFScanningDecoder.c **** 		RowIndicatorColumn->m_value._codewords[idx].m_value._bucket = 0;
 839              		.loc 1 191 58
 840 05d1 8B4D10   		movl	16(%ebp), %ecx
 841 05d4 8B55F8   		movl	-8(%ebp), %edx
 842 05d7 89D0     		movl	%edx, %eax
 843 05d9 01C0     		addl	%eax, %eax
 844 05db 01D0     		addl	%edx, %eax
 845 05dd C1E003   		sall	$3, %eax
 846 05e0 01C8     		addl	%ecx, %eax
 847 05e2 83C050   		addl	$80, %eax
 848 05e5 C60000   		movb	$0, (%eax)
 192:src/pdf417/PDFScanningDecoder.c **** 		RowIndicatorColumn->m_value._codewords[idx].m_value._endX = 0;
 849              		.loc 1 192 63
 850 05e8 8B4D10   		movl	16(%ebp), %ecx
 851 05eb 8B55F8   		movl	-8(%ebp), %edx
GAS LISTING C:\Users\jisu8\AppData\Local\Temp\ccX0Ht2c.s 			page 21


 852 05ee 89D0     		movl	%edx, %eax
 853 05f0 01C0     		addl	%eax, %eax
 854 05f2 01D0     		addl	%edx, %eax
 855 05f4 C1E003   		sall	$3, %eax
 856 05f7 01C8     		addl	%ecx, %eax
 857 05f9 83C05C   		addl	$92, %eax
 858 05fc C7000000 		movl	$0, (%eax)
 858      0000
 193:src/pdf417/PDFScanningDecoder.c **** 		RowIndicatorColumn->m_value._codewords[idx].m_value._rowNumber = 0;
 859              		.loc 1 193 61
 860 0602 8B4D10   		movl	16(%ebp), %ecx
 861 0605 8B55F8   		movl	-8(%ebp), %edx
 862 0608 89D0     		movl	%edx, %eax
 863 060a 01C0     		addl	%eax, %eax
 864 060c 01D0     		addl	%edx, %eax
 865 060e C1E003   		sall	$3, %eax
 866 0611 01C8     		addl	%ecx, %eax
 867 0613 83C058   		addl	$88, %eax
 868 0616 C7000000 		movl	$0, (%eax)
 868      0000
 194:src/pdf417/PDFScanningDecoder.c **** 		RowIndicatorColumn->m_value._codewords[idx].m_value._startX = 0;
 869              		.loc 1 194 66
 870 061c 8B4D10   		movl	16(%ebp), %ecx
 871 061f 8B55F8   		movl	-8(%ebp), %edx
 872 0622 89D0     		movl	%edx, %eax
 873 0624 01C0     		addl	%eax, %eax
 874 0626 01D0     		addl	%edx, %eax
 875 0628 C1E003   		sall	$3, %eax
 876 062b 01C8     		addl	%ecx, %eax
 877 062d 83C064   		addl	$100, %eax
 878 0630 C7000000 		movl	$0, (%eax)
 878      0000
 195:src/pdf417/PDFScanningDecoder.c **** 		RowIndicatorColumn->m_value._codewords[idx].m_value._value = 0;
 879              		.loc 1 195 63
 880 0636 8B4D10   		movl	16(%ebp), %ecx
 881 0639 8B55F8   		movl	-8(%ebp), %edx
 882 063c 89D0     		movl	%edx, %eax
 883 063e 01C0     		addl	%eax, %eax
 884 0640 01D0     		addl	%edx, %eax
 885 0642 C1E003   		sall	$3, %eax
 886 0645 01C8     		addl	%ecx, %eax
 887 0647 83C054   		addl	$84, %eax
 888 064a C7000000 		movl	$0, (%eax)
 888      0000
 196:src/pdf417/PDFScanningDecoder.c **** 	}
 889              		.loc 1 196 62
 890 0650 8B4D10   		movl	16(%ebp), %ecx
 891 0653 8B55F8   		movl	-8(%ebp), %edx
 892 0656 89D0     		movl	%edx, %eax
 893 0658 01C0     		addl	%eax, %eax
 894 065a 01D0     		addl	%edx, %eax
 895 065c C1E003   		sall	$3, %eax
 896 065f 01C8     		addl	%ecx, %eax
 897 0661 83C060   		addl	$96, %eax
 898 0664 C7000000 		movl	$0, (%eax)
 898      0000
 899              	L56:
GAS LISTING C:\Users\jisu8\AppData\Local\Temp\ccX0Ht2c.s 			page 22


 900              		.loc 1 198 1
 901 066a 90       		nop
 902 066b 83C414   		addl	$20, %esp
 903 066e 5B       		popl	%ebx
 904              		.cfi_restore 3
 905 066f 5D       		popl	%ebp
 906              	LCFI26:
 907              		.cfi_restore 5
 908              		.cfi_def_cfa 4, 4
 909 0670 C3       		ret
 910              		.cfi_endproc
 911              	LFE12:
 912              		.section .rdata,"dr"
 913              	LC4:
 914 0176 47657452 		.ascii "GetRowIndicatorColumn \0"
 914      6F77496E 
 914      64696361 
 914      746F7243 
 914      6F6C756D 
 915              		.text
 917              	_GetRowIndicatorColumn:
 918              	LFB13:
 199:src/pdf417/PDFScanningDecoder.c **** 
 200:src/pdf417/PDFScanningDecoder.c **** static int GetRowIndicatorColumn(const BitMatrix_t * image, const BoundingBox_t * boundingBox, cons
 201:src/pdf417/PDFScanningDecoder.c **** {
 919              		.loc 1 201 1
 920              		.cfi_startproc
 921 0671 55       		pushl	%ebp
 922              	LCFI27:
 923              		.cfi_def_cfa_offset 8
 924              		.cfi_offset 5, -8
 925 0672 89E5     		movl	%esp, %ebp
 926              	LCFI28:
 927              		.cfi_def_cfa_register 5
 928 0674 83EC58   		subl	$88, %esp
 929 0677 8B4514   		movl	20(%ebp), %eax
 930 067a 8845D4   		movb	%al, -44(%ebp)
 202:src/pdf417/PDFScanningDecoder.c **** 	int length = 0;
 931              		.loc 1 202 6
 932 067d C745F400 		movl	$0, -12(%ebp)
 932      000000
 203:src/pdf417/PDFScanningDecoder.c **** 	printf("GetRowIndicatorColumn \n");
 933              		.loc 1 203 2
 934 0684 C7042476 		movl	$LC4, (%esp)
 934      010000
 935 068b E8000000 		call	_puts
 935      00
 204:src/pdf417/PDFScanningDecoder.c **** 
 205:src/pdf417/PDFScanningDecoder.c **** 	DetectionResultColumn(boundingBox,leftToRight ? Left : Right,RowIndicatorColumn);
 936              		.loc 1 205 2
 937 0690 807DD400 		cmpb	$0, -44(%ebp)
 938 0694 7407     		je	L58
 939              		.loc 1 205 2 is_stmt 0 discriminator 1
 940 0696 BA010000 		movl	$1, %edx
 940      00
 941 069b EB05     		jmp	L59
 942              	L58:
GAS LISTING C:\Users\jisu8\AppData\Local\Temp\ccX0Ht2c.s 			page 23


 943              		.loc 1 205 2 discriminator 2
 944 069d BA020000 		movl	$2, %edx
 944      00
 945              	L59:
 946              		.loc 1 205 2 discriminator 4
 947 06a2 8B4520   		movl	32(%ebp), %eax
 948 06a5 89442408 		movl	%eax, 8(%esp)
 949 06a9 89542404 		movl	%edx, 4(%esp)
 950 06ad 8B450C   		movl	12(%ebp), %eax
 951 06b0 890424   		movl	%eax, (%esp)
 952 06b3 E8000000 		call	_DetectionResultColumn
 952      00
 953              	LBB4:
 206:src/pdf417/PDFScanningDecoder.c **** 
 207:src/pdf417/PDFScanningDecoder.c **** 	for (int i = 0; i < 2; i++) 
 954              		.loc 1 207 11 is_stmt 1 discriminator 4
 955 06b8 C745F000 		movl	$0, -16(%ebp)
 955      000000
 956              		.loc 1 207 2 discriminator 4
 957 06bf E9150100 		jmp	L60
 957      00
 958              	L70:
 959              	LBB5:
 208:src/pdf417/PDFScanningDecoder.c **** 	{
 209:src/pdf417/PDFScanningDecoder.c **** 		int increment = i == 0 ? 1 : -1;
 960              		.loc 1 209 30
 961 06c4 837DF000 		cmpl	$0, -16(%ebp)
 962 06c8 7507     		jne	L61
 963              		.loc 1 209 30 is_stmt 0 discriminator 1
 964 06ca B8010000 		movl	$1, %eax
 964      00
 965 06cf EB05     		jmp	L62
 966              	L61:
 967              		.loc 1 209 30 discriminator 2
 968 06d1 B8FFFFFF 		movl	$-1, %eax
 968      FF
 969              	L62:
 970              		.loc 1 209 7 is_stmt 1 discriminator 4
 971 06d6 8945E4   		movl	%eax, -28(%ebp)
 210:src/pdf417/PDFScanningDecoder.c **** 		int startColumn = (int)startPoint->m_value.x;
 972              		.loc 1 210 45 discriminator 4
 973 06d9 8B4510   		movl	16(%ebp), %eax
 974 06dc D94004   		flds	4(%eax)
 975              		.loc 1 210 7 discriminator 4
 976 06df D97DD6   		fnstcw	-42(%ebp)
 977 06e2 0FB745D6 		movzwl	-42(%ebp), %eax
 978 06e6 80CC0C   		orb	$12, %ah
 979 06e9 668945D2 		movw	%ax, -46(%ebp)
 980 06ed D96DD2   		fldcw	-46(%ebp)
 981 06f0 DB5DEC   		fistpl	-20(%ebp)
 982 06f3 D96DD6   		fldcw	-42(%ebp)
 983              	LBB6:
 211:src/pdf417/PDFScanningDecoder.c **** 		for (int imageRow = (int)startPoint->m_value.y; imageRow <= boundingBox->m_value._maxY && imageRo
 984              		.loc 1 211 47 discriminator 4
 985 06f6 8B4510   		movl	16(%ebp), %eax
 986 06f9 D94008   		flds	8(%eax)
 987              		.loc 1 211 12 discriminator 4
GAS LISTING C:\Users\jisu8\AppData\Local\Temp\ccX0Ht2c.s 			page 24


 988 06fc D96DD2   		fldcw	-46(%ebp)
 989 06ff DB5DE8   		fistpl	-24(%ebp)
 990 0702 D96DD6   		fldcw	-42(%ebp)
 991              		.loc 1 211 3 discriminator 4
 992 0705 E9B10000 		jmp	L63
 992      00
 993              	L69:
 994              	LBB7:
 212:src/pdf417/PDFScanningDecoder.c **** 		{
 213:src/pdf417/PDFScanningDecoder.c **** 			Codeword_t * codeword = DetectCodeword(image, 0, image->_width, leftToRight, startColumn, imageR
 995              		.loc 1 213 28
 996 070a 0FB655D4 		movzbl	-44(%ebp), %edx
 997 070e 8B4508   		movl	8(%ebp), %eax
 998 0711 8B00     		movl	(%eax), %eax
 999 0713 8B4D1C   		movl	28(%ebp), %ecx
 1000 0716 894C241C 		movl	%ecx, 28(%esp)
 1001 071a 8B4D18   		movl	24(%ebp), %ecx
 1002 071d 894C2418 		movl	%ecx, 24(%esp)
 1003 0721 8B4DE8   		movl	-24(%ebp), %ecx
 1004 0724 894C2414 		movl	%ecx, 20(%esp)
 1005 0728 8B4DEC   		movl	-20(%ebp), %ecx
 1006 072b 894C2410 		movl	%ecx, 16(%esp)
 1007 072f 8954240C 		movl	%edx, 12(%esp)
 1008 0733 89442408 		movl	%eax, 8(%esp)
 1009 0737 C7442404 		movl	$0, 4(%esp)
 1009      00000000 
 1010 073f 8B4508   		movl	8(%ebp), %eax
 1011 0742 890424   		movl	%eax, (%esp)
 1012 0745 E81AFCFF 		call	_DetectCodeword
 1012      FF
 1013 074a 8945E0   		movl	%eax, -32(%ebp)
 214:src/pdf417/PDFScanningDecoder.c **** 
 215:src/pdf417/PDFScanningDecoder.c **** 			if (codeword != NULL) 
 1014              		.loc 1 215 7
 1015 074d 837DE000 		cmpl	$0, -32(%ebp)
 1016 0751 743D     		je	L64
 216:src/pdf417/PDFScanningDecoder.c **** 			{
 217:src/pdf417/PDFScanningDecoder.c **** 				setCodeword(imageRow, codeword, RowIndicatorColumn,0);
 1017              		.loc 1 217 5
 1018 0753 C744240C 		movl	$0, 12(%esp)
 1018      00000000 
 1019 075b 8B4520   		movl	32(%ebp), %eax
 1020 075e 89442408 		movl	%eax, 8(%esp)
 1021 0762 8B45E0   		movl	-32(%ebp), %eax
 1022 0765 89442404 		movl	%eax, 4(%esp)
 1023 0769 8B45E8   		movl	-24(%ebp), %eax
 1024 076c 890424   		movl	%eax, (%esp)
 1025 076f E889FDFF 		call	_setCodeword
 1025      FF
 218:src/pdf417/PDFScanningDecoder.c **** 				if (leftToRight) 
 1026              		.loc 1 218 8
 1027 0774 807DD400 		cmpb	$0, -44(%ebp)
 1028 0778 740B     		je	L65
 219:src/pdf417/PDFScanningDecoder.c **** 				{
 220:src/pdf417/PDFScanningDecoder.c **** 					startColumn = codeword->m_value._startX;
 1029              		.loc 1 220 18
 1030 077a 8B45E0   		movl	-32(%ebp), %eax
GAS LISTING C:\Users\jisu8\AppData\Local\Temp\ccX0Ht2c.s 			page 25


 1031 077d 8B4004   		movl	4(%eax), %eax
 1032 0780 8945EC   		movl	%eax, -20(%ebp)
 1033 0783 EB2C     		jmp	L67
 1034              	L65:
 221:src/pdf417/PDFScanningDecoder.c **** 				}
 222:src/pdf417/PDFScanningDecoder.c **** 				else 
 223:src/pdf417/PDFScanningDecoder.c **** 				{
 224:src/pdf417/PDFScanningDecoder.c **** 					startColumn = codeword->m_value._endX;
 1035              		.loc 1 224 18
 1036 0785 8B45E0   		movl	-32(%ebp), %eax
 1037 0788 8B4008   		movl	8(%eax), %eax
 1038 078b 8945EC   		movl	%eax, -20(%ebp)
 1039 078e EB21     		jmp	L67
 1040              	L64:
 225:src/pdf417/PDFScanningDecoder.c **** 				}
 226:src/pdf417/PDFScanningDecoder.c **** 			}
 227:src/pdf417/PDFScanningDecoder.c **** 			else
 228:src/pdf417/PDFScanningDecoder.c **** 			{
 229:src/pdf417/PDFScanningDecoder.c **** 				setCodeword(imageRow, codeword, RowIndicatorColumn,1);
 1041              		.loc 1 229 5
 1042 0790 C744240C 		movl	$1, 12(%esp)
 1042      01000000 
 1043 0798 8B4520   		movl	32(%ebp), %eax
 1044 079b 89442408 		movl	%eax, 8(%esp)
 1045 079f 8B45E0   		movl	-32(%ebp), %eax
 1046 07a2 89442404 		movl	%eax, 4(%esp)
 1047 07a6 8B45E8   		movl	-24(%ebp), %eax
 1048 07a9 890424   		movl	%eax, (%esp)
 1049 07ac E84CFDFF 		call	_setCodeword
 1049      FF
 1050              	L67:
 230:src/pdf417/PDFScanningDecoder.c **** 			}
 231:src/pdf417/PDFScanningDecoder.c **** 			length++;
 1051              		.loc 1 231 10 discriminator 2
 1052 07b1 8345F401 		addl	$1, -12(%ebp)
 1053              	LBE7:
 211:src/pdf417/PDFScanningDecoder.c **** 		{
 1054              		.loc 1 211 142 discriminator 2
 1055 07b5 8B45E4   		movl	-28(%ebp), %eax
 1056 07b8 0145E8   		addl	%eax, -24(%ebp)
 1057              	L63:
 211:src/pdf417/PDFScanningDecoder.c **** 		{
 1058              		.loc 1 211 83 discriminator 1
 1059 07bb 8B450C   		movl	12(%ebp), %eax
 1060 07be 8B4048   		movl	72(%eax), %eax
 211:src/pdf417/PDFScanningDecoder.c **** 		{
 1061              		.loc 1 211 3 discriminator 1
 1062 07c1 3945E8   		cmpl	%eax, -24(%ebp)
 1063 07c4 7F0F     		jg	L68
 211:src/pdf417/PDFScanningDecoder.c **** 		{
 1064              		.loc 1 211 125 discriminator 3
 1065 07c6 8B450C   		movl	12(%ebp), %eax
 1066 07c9 8B4044   		movl	68(%eax), %eax
 211:src/pdf417/PDFScanningDecoder.c **** 		{
 1067              		.loc 1 211 90 discriminator 3
 1068 07cc 3945E8   		cmpl	%eax, -24(%ebp)
 1069 07cf 0F8D35FF 		jge	L69
GAS LISTING C:\Users\jisu8\AppData\Local\Temp\ccX0Ht2c.s 			page 26


 1069      FFFF
 1070              	L68:
 1071              	LBE6:
 1072              	LBE5:
 207:src/pdf417/PDFScanningDecoder.c **** 	{
 1073              		.loc 1 207 26 discriminator 2
 1074 07d5 8345F001 		addl	$1, -16(%ebp)
 1075              	L60:
 207:src/pdf417/PDFScanningDecoder.c **** 	{
 1076              		.loc 1 207 2 discriminator 1
 1077 07d9 837DF001 		cmpl	$1, -16(%ebp)
 1078 07dd 0F8EE1FE 		jle	L70
 1078      FFFF
 1079              	LBE4:
 232:src/pdf417/PDFScanningDecoder.c **** 		}
 233:src/pdf417/PDFScanningDecoder.c **** 	}
 234:src/pdf417/PDFScanningDecoder.c **** 	return length-1;
 1080              		.loc 1 234 15
 1081 07e3 8B45F4   		movl	-12(%ebp), %eax
 1082 07e6 83E801   		subl	$1, %eax
 235:src/pdf417/PDFScanningDecoder.c **** }
 1083              		.loc 1 235 1
 1084 07e9 C9       		leave
 1085              	LCFI29:
 1086              		.cfi_restore 5
 1087              		.cfi_def_cfa 4, 4
 1088 07ea C3       		ret
 1089              		.cfi_endproc
 1090              	LFE13:
 1092              	_Metadata_Init:
 1093              	LFB14:
 236:src/pdf417/PDFScanningDecoder.c **** static void Metadata_Init(BarcodeMetadata_t * Metadata)
 237:src/pdf417/PDFScanningDecoder.c **** {
 1094              		.loc 1 237 1
 1095              		.cfi_startproc
 1096 07eb 55       		pushl	%ebp
 1097              	LCFI30:
 1098              		.cfi_def_cfa_offset 8
 1099              		.cfi_offset 5, -8
 1100 07ec 89E5     		movl	%esp, %ebp
 1101              	LCFI31:
 1102              		.cfi_def_cfa_register 5
 238:src/pdf417/PDFScanningDecoder.c **** 	Metadata->_columnCount = 0;
 1103              		.loc 1 238 25
 1104 07ee 8B4508   		movl	8(%ebp), %eax
 1105 07f1 C7000000 		movl	$0, (%eax)
 1105      0000
 239:src/pdf417/PDFScanningDecoder.c **** 	Metadata->_errorCorrectionLevel = 0;
 1106              		.loc 1 239 34
 1107 07f7 8B4508   		movl	8(%ebp), %eax
 1108 07fa C7400400 		movl	$0, 4(%eax)
 1108      000000
 240:src/pdf417/PDFScanningDecoder.c **** 	Metadata->_rowCountUpperPart = 0;
 1109              		.loc 1 240 31
 1110 0801 8B4508   		movl	8(%ebp), %eax
 1111 0804 C7400800 		movl	$0, 8(%eax)
 1111      000000
GAS LISTING C:\Users\jisu8\AppData\Local\Temp\ccX0Ht2c.s 			page 27


 241:src/pdf417/PDFScanningDecoder.c **** 	Metadata->_rowCountLowerPart = 0;
 1112              		.loc 1 241 31
 1113 080b 8B4508   		movl	8(%ebp), %eax
 1114 080e C7400C00 		movl	$0, 12(%eax)
 1114      000000
 242:src/pdf417/PDFScanningDecoder.c **** }
 1115              		.loc 1 242 1
 1116 0815 90       		nop
 1117 0816 5D       		popl	%ebp
 1118              	LCFI32:
 1119              		.cfi_restore 5
 1120              		.cfi_def_cfa 4, 4
 1121 0817 C3       		ret
 1122              		.cfi_endproc
 1123              	LFE14:
 1124              		.globl	_columnCount
 1126              	_columnCount:
 1127              	LFB15:
 243:src/pdf417/PDFScanningDecoder.c **** int columnCount(BarcodeMetadata_t * Metadata)
 244:src/pdf417/PDFScanningDecoder.c **** {
 1128              		.loc 1 244 1
 1129              		.cfi_startproc
 1130 0818 55       		pushl	%ebp
 1131              	LCFI33:
 1132              		.cfi_def_cfa_offset 8
 1133              		.cfi_offset 5, -8
 1134 0819 89E5     		movl	%esp, %ebp
 1135              	LCFI34:
 1136              		.cfi_def_cfa_register 5
 245:src/pdf417/PDFScanningDecoder.c **** 	return (Metadata->_columnCount);
 1137              		.loc 1 245 18
 1138 081b 8B4508   		movl	8(%ebp), %eax
 1139 081e 8B00     		movl	(%eax), %eax
 246:src/pdf417/PDFScanningDecoder.c **** }
 1140              		.loc 1 246 1
 1141 0820 5D       		popl	%ebp
 1142              	LCFI35:
 1143              		.cfi_restore 5
 1144              		.cfi_def_cfa 4, 4
 1145 0821 C3       		ret
 1146              		.cfi_endproc
 1147              	LFE15:
 1149              	_errorCorrectionLevel:
 1150              	LFB16:
 247:src/pdf417/PDFScanningDecoder.c **** static int errorCorrectionLevel(BarcodeMetadata_t * Metadata)
 248:src/pdf417/PDFScanningDecoder.c **** {
 1151              		.loc 1 248 1
 1152              		.cfi_startproc
 1153 0822 55       		pushl	%ebp
 1154              	LCFI36:
 1155              		.cfi_def_cfa_offset 8
 1156              		.cfi_offset 5, -8
 1157 0823 89E5     		movl	%esp, %ebp
 1158              	LCFI37:
 1159              		.cfi_def_cfa_register 5
 249:src/pdf417/PDFScanningDecoder.c **** 	return (Metadata->_errorCorrectionLevel);
 1160              		.loc 1 249 18
GAS LISTING C:\Users\jisu8\AppData\Local\Temp\ccX0Ht2c.s 			page 28


 1161 0825 8B4508   		movl	8(%ebp), %eax
 1162 0828 8B4004   		movl	4(%eax), %eax
 250:src/pdf417/PDFScanningDecoder.c **** }
 1163              		.loc 1 250 1
 1164 082b 5D       		popl	%ebp
 1165              	LCFI38:
 1166              		.cfi_restore 5
 1167              		.cfi_def_cfa 4, 4
 1168 082c C3       		ret
 1169              		.cfi_endproc
 1170              	LFE16:
 1171              		.globl	_rowCount
 1173              	_rowCount:
 1174              	LFB17:
 251:src/pdf417/PDFScanningDecoder.c **** int rowCount(BarcodeMetadata_t * Metadata)
 252:src/pdf417/PDFScanningDecoder.c **** {
 1175              		.loc 1 252 1
 1176              		.cfi_startproc
 1177 082d 55       		pushl	%ebp
 1178              	LCFI39:
 1179              		.cfi_def_cfa_offset 8
 1180              		.cfi_offset 5, -8
 1181 082e 89E5     		movl	%esp, %ebp
 1182              	LCFI40:
 1183              		.cfi_def_cfa_register 5
 253:src/pdf417/PDFScanningDecoder.c **** 	return (Metadata->_rowCountUpperPart + Metadata->_rowCountLowerPart);
 1184              		.loc 1 253 18
 1185 0830 8B4508   		movl	8(%ebp), %eax
 1186 0833 8B5008   		movl	8(%eax), %edx
 1187              		.loc 1 253 49
 1188 0836 8B4508   		movl	8(%ebp), %eax
 1189 0839 8B400C   		movl	12(%eax), %eax
 1190              		.loc 1 253 39
 1191 083c 01D0     		addl	%edx, %eax
 254:src/pdf417/PDFScanningDecoder.c **** }
 1192              		.loc 1 254 1
 1193 083e 5D       		popl	%ebp
 1194              	LCFI41:
 1195              		.cfi_restore 5
 1196              		.cfi_def_cfa 4, 4
 1197 083f C3       		ret
 1198              		.cfi_endproc
 1199              	LFE17:
 1200              		.section .rdata,"dr"
 1201              	LC6:
 1202 018d 47657442 		.ascii "GetBarcodeMetadata \0"
 1202      6172636F 
 1202      64654D65 
 1202      74616461 
 1202      74612000 
 1203              		.text
 1205              	_GetBarcodeMetadata:
 1206              	LFB18:
 255:src/pdf417/PDFScanningDecoder.c **** static uint8_t GetBarcodeMetadata(DetectionResultColumn_t * leftRowIndicatorColumn, DetectionResult
 256:src/pdf417/PDFScanningDecoder.c **** {
 1207              		.loc 1 256 1
 1208              		.cfi_startproc
GAS LISTING C:\Users\jisu8\AppData\Local\Temp\ccX0Ht2c.s 			page 29


 1209 0840 55       		pushl	%ebp
 1210              	LCFI42:
 1211              		.cfi_def_cfa_offset 8
 1212              		.cfi_offset 5, -8
 1213 0841 89E5     		movl	%esp, %ebp
 1214              	LCFI43:
 1215              		.cfi_def_cfa_register 5
 1216 0843 53       		pushl	%ebx
 1217 0844 83EC34   		subl	$52, %esp
 1218              		.cfi_offset 3, -12
 257:src/pdf417/PDFScanningDecoder.c **** 	printf("GetBarcodeMetadata \n");
 1219              		.loc 1 257 2
 1220 0847 C704248D 		movl	$LC6, (%esp)
 1220      010000
 1221 084e E8000000 		call	_puts
 1221      00
 258:src/pdf417/PDFScanningDecoder.c **** 
 259:src/pdf417/PDFScanningDecoder.c **** 	BarcodeMetadata_t leftBarcodeMetadata;
 260:src/pdf417/PDFScanningDecoder.c **** 	Metadata_Init(&leftBarcodeMetadata);
 1222              		.loc 1 260 2
 1223 0853 8D45E8   		leal	-24(%ebp), %eax
 1224 0856 890424   		movl	%eax, (%esp)
 1225 0859 E88DFFFF 		call	_Metadata_Init
 1225      FF
 261:src/pdf417/PDFScanningDecoder.c **** 	if ((leftRowIndicatorColumn == NULL) || (!getBarcodeMetadata(leftRowIndicatorColumn,&leftBarcodeMe
 1226              		.loc 1 261 5
 1227 085e 837D0800 		cmpl	$0, 8(%ebp)
 1228 0862 741D     		je	L80
 1229              		.loc 1 261 44 discriminator 1
 1230 0864 8B4514   		movl	20(%ebp), %eax
 1231 0867 89442408 		movl	%eax, 8(%esp)
 1232 086b 8D45E8   		leal	-24(%ebp), %eax
 1233 086e 89442404 		movl	%eax, 4(%esp)
 1234 0872 8B4508   		movl	8(%ebp), %eax
 1235 0875 890424   		movl	%eax, (%esp)
 1236 0878 E8000000 		call	_getBarcodeMetadata
 1236      00
 1237              		.loc 1 261 39 discriminator 1
 1238 087d 84C0     		testb	%al, %al
 1239 087f 7537     		jne	L81
 1240              	L80:
 262:src/pdf417/PDFScanningDecoder.c **** 	{
 263:src/pdf417/PDFScanningDecoder.c **** 		return (rightRowIndicatorColumn != NULL) && (getBarcodeMetadata(rightRowIndicatorColumn,result,le
 1241              		.loc 1 263 44
 1242 0881 837D0C00 		cmpl	$0, 12(%ebp)
 1243 0885 7427     		je	L82
 1244              		.loc 1 263 48 discriminator 1
 1245 0887 8B4514   		movl	20(%ebp), %eax
 1246 088a 89442408 		movl	%eax, 8(%esp)
 1247 088e 8B4510   		movl	16(%ebp), %eax
 1248 0891 89442404 		movl	%eax, 4(%esp)
 1249 0895 8B450C   		movl	12(%ebp), %eax
 1250 0898 890424   		movl	%eax, (%esp)
 1251 089b E8000000 		call	_getBarcodeMetadata
 1251      00
 1252              		.loc 1 263 44 discriminator 1
 1253 08a0 84C0     		testb	%al, %al
GAS LISTING C:\Users\jisu8\AppData\Local\Temp\ccX0Ht2c.s 			page 30


 1254 08a2 740A     		je	L82
 1255              		.loc 1 263 44 is_stmt 0 discriminator 3
 1256 08a4 B8010000 		movl	$1, %eax
 1256      00
 1257 08a9 E9E80000 		jmp	L88
 1257      00
 1258              	L82:
 1259              		.loc 1 263 44 discriminator 4
 1260 08ae B8000000 		movl	$0, %eax
 1260      00
 1261 08b3 E9DE0000 		jmp	L88
 1261      00
 1262              	L81:
 264:src/pdf417/PDFScanningDecoder.c **** 	}
 265:src/pdf417/PDFScanningDecoder.c **** 
 266:src/pdf417/PDFScanningDecoder.c **** 	BarcodeMetadata_t rightBarcodeMetadata;
 267:src/pdf417/PDFScanningDecoder.c **** 	Metadata_Init(&rightBarcodeMetadata);
 1263              		.loc 1 267 2 is_stmt 1
 1264 08b8 8D45D8   		leal	-40(%ebp), %eax
 1265 08bb 890424   		movl	%eax, (%esp)
 1266 08be E828FFFF 		call	_Metadata_Init
 1266      FF
 268:src/pdf417/PDFScanningDecoder.c **** 	if ((rightRowIndicatorColumn == NULL) || (!getBarcodeMetadata(rightRowIndicatorColumn,&rightBarcod
 1267              		.loc 1 268 5
 1268 08c3 837D0C00 		cmpl	$0, 12(%ebp)
 1269 08c7 741D     		je	L85
 1270              		.loc 1 268 45 discriminator 1
 1271 08c9 8B4514   		movl	20(%ebp), %eax
 1272 08cc 89442408 		movl	%eax, 8(%esp)
 1273 08d0 8D45D8   		leal	-40(%ebp), %eax
 1274 08d3 89442404 		movl	%eax, 4(%esp)
 1275 08d7 8B450C   		movl	12(%ebp), %eax
 1276 08da 890424   		movl	%eax, (%esp)
 1277 08dd E8000000 		call	_getBarcodeMetadata
 1277      00
 1278              		.loc 1 268 40 discriminator 1
 1279 08e2 84C0     		testb	%al, %al
 1280 08e4 752D     		jne	L86
 1281              	L85:
 269:src/pdf417/PDFScanningDecoder.c **** 	{
 270:src/pdf417/PDFScanningDecoder.c **** 		result->_columnCount = leftBarcodeMetadata._columnCount;
 1282              		.loc 1 270 45
 1283 08e6 8B55E8   		movl	-24(%ebp), %edx
 1284              		.loc 1 270 24
 1285 08e9 8B4510   		movl	16(%ebp), %eax
 1286 08ec 8910     		movl	%edx, (%eax)
 271:src/pdf417/PDFScanningDecoder.c **** 		result->_errorCorrectionLevel = leftBarcodeMetadata._errorCorrectionLevel;
 1287              		.loc 1 271 54
 1288 08ee 8B55EC   		movl	-20(%ebp), %edx
 1289              		.loc 1 271 33
 1290 08f1 8B4510   		movl	16(%ebp), %eax
 1291 08f4 895004   		movl	%edx, 4(%eax)
 272:src/pdf417/PDFScanningDecoder.c **** 		result->_rowCountUpperPart = leftBarcodeMetadata._rowCountUpperPart;
 1292              		.loc 1 272 51
 1293 08f7 8B55F0   		movl	-16(%ebp), %edx
 1294              		.loc 1 272 30
 1295 08fa 8B4510   		movl	16(%ebp), %eax
GAS LISTING C:\Users\jisu8\AppData\Local\Temp\ccX0Ht2c.s 			page 31


 1296 08fd 895008   		movl	%edx, 8(%eax)
 273:src/pdf417/PDFScanningDecoder.c **** 		result->_rowCountLowerPart = leftBarcodeMetadata._rowCountLowerPart;
 1297              		.loc 1 273 51
 1298 0900 8B55F4   		movl	-12(%ebp), %edx
 1299              		.loc 1 273 30
 1300 0903 8B4510   		movl	16(%ebp), %eax
 1301 0906 89500C   		movl	%edx, 12(%eax)
 274:src/pdf417/PDFScanningDecoder.c **** 		return 1;
 1302              		.loc 1 274 10
 1303 0909 B8010000 		movl	$1, %eax
 1303      00
 1304 090e E9830000 		jmp	L88
 1304      00
 1305              	L86:
 275:src/pdf417/PDFScanningDecoder.c **** 	}
 276:src/pdf417/PDFScanningDecoder.c **** 
 277:src/pdf417/PDFScanningDecoder.c **** 	if (columnCount(&leftBarcodeMetadata) != columnCount(&rightBarcodeMetadata) &&
 1306              		.loc 1 277 6
 1307 0913 8D45E8   		leal	-24(%ebp), %eax
 1308 0916 890424   		movl	%eax, (%esp)
 1309 0919 E8FAFEFF 		call	_columnCount
 1309      FF
 1310 091e 89C3     		movl	%eax, %ebx
 1311              		.loc 1 277 43
 1312 0920 8D45D8   		leal	-40(%ebp), %eax
 1313 0923 890424   		movl	%eax, (%esp)
 1314 0926 E8EDFEFF 		call	_columnCount
 1314      FF
 1315              		.loc 1 277 5
 1316 092b 39C3     		cmpl	%eax, %ebx
 1317 092d 743F     		je	L87
 278:src/pdf417/PDFScanningDecoder.c **** 		errorCorrectionLevel(&leftBarcodeMetadata) != errorCorrectionLevel(&rightBarcodeMetadata) &&
 1318              		.loc 1 278 3 discriminator 1
 1319 092f 8D45E8   		leal	-24(%ebp), %eax
 1320 0932 890424   		movl	%eax, (%esp)
 1321 0935 E8E8FEFF 		call	_errorCorrectionLevel
 1321      FF
 1322 093a 89C3     		movl	%eax, %ebx
 1323              		.loc 1 278 49 discriminator 1
 1324 093c 8D45D8   		leal	-40(%ebp), %eax
 1325 093f 890424   		movl	%eax, (%esp)
 1326 0942 E8DBFEFF 		call	_errorCorrectionLevel
 1326      FF
 277:src/pdf417/PDFScanningDecoder.c **** 		errorCorrectionLevel(&leftBarcodeMetadata) != errorCorrectionLevel(&rightBarcodeMetadata) &&
 1327              		.loc 1 277 78 discriminator 1
 1328 0947 39C3     		cmpl	%eax, %ebx
 1329 0949 7423     		je	L87
 279:src/pdf417/PDFScanningDecoder.c **** 		rowCount(&leftBarcodeMetadata) != rowCount(&rightBarcodeMetadata)) 
 1330              		.loc 1 279 3
 1331 094b 8D45E8   		leal	-24(%ebp), %eax
 1332 094e 890424   		movl	%eax, (%esp)
 1333 0951 E8D7FEFF 		call	_rowCount
 1333      FF
 1334 0956 89C3     		movl	%eax, %ebx
 1335              		.loc 1 279 37
 1336 0958 8D45D8   		leal	-40(%ebp), %eax
 1337 095b 890424   		movl	%eax, (%esp)
GAS LISTING C:\Users\jisu8\AppData\Local\Temp\ccX0Ht2c.s 			page 32


 1338 095e E8CAFEFF 		call	_rowCount
 1338      FF
 278:src/pdf417/PDFScanningDecoder.c **** 		errorCorrectionLevel(&leftBarcodeMetadata) != errorCorrectionLevel(&rightBarcodeMetadata) &&
 1339              		.loc 1 278 93
 1340 0963 39C3     		cmpl	%eax, %ebx
 1341 0965 7407     		je	L87
 280:src/pdf417/PDFScanningDecoder.c **** 	{
 281:src/pdf417/PDFScanningDecoder.c **** 		return 0;
 1342              		.loc 1 281 10
 1343 0967 B8000000 		movl	$0, %eax
 1343      00
 1344 096c EB28     		jmp	L88
 1345              	L87:
 282:src/pdf417/PDFScanningDecoder.c **** 	}
 283:src/pdf417/PDFScanningDecoder.c **** 	result->_columnCount = leftBarcodeMetadata._columnCount;
 1346              		.loc 1 283 44
 1347 096e 8B55E8   		movl	-24(%ebp), %edx
 1348              		.loc 1 283 23
 1349 0971 8B4510   		movl	16(%ebp), %eax
 1350 0974 8910     		movl	%edx, (%eax)
 284:src/pdf417/PDFScanningDecoder.c **** 	result->_errorCorrectionLevel = leftBarcodeMetadata._errorCorrectionLevel;
 1351              		.loc 1 284 53
 1352 0976 8B55EC   		movl	-20(%ebp), %edx
 1353              		.loc 1 284 32
 1354 0979 8B4510   		movl	16(%ebp), %eax
 1355 097c 895004   		movl	%edx, 4(%eax)
 285:src/pdf417/PDFScanningDecoder.c **** 	result->_rowCountUpperPart = leftBarcodeMetadata._rowCountUpperPart;
 1356              		.loc 1 285 50
 1357 097f 8B55F0   		movl	-16(%ebp), %edx
 1358              		.loc 1 285 29
 1359 0982 8B4510   		movl	16(%ebp), %eax
 1360 0985 895008   		movl	%edx, 8(%eax)
 286:src/pdf417/PDFScanningDecoder.c **** 	result->_rowCountLowerPart = leftBarcodeMetadata._rowCountLowerPart;
 1361              		.loc 1 286 50
 1362 0988 8B55F4   		movl	-12(%ebp), %edx
 1363              		.loc 1 286 29
 1364 098b 8B4510   		movl	16(%ebp), %eax
 1365 098e 89500C   		movl	%edx, 12(%eax)
 287:src/pdf417/PDFScanningDecoder.c **** 	return 1;
 1366              		.loc 1 287 9
 1367 0991 B8010000 		movl	$1, %eax
 1367      00
 1368              	L88:
 288:src/pdf417/PDFScanningDecoder.c **** }
 1369              		.loc 1 288 1 discriminator 1
 1370 0996 83C434   		addl	$52, %esp
 1371 0999 5B       		popl	%ebx
 1372              		.cfi_restore 3
 1373 099a 5D       		popl	%ebp
 1374              	LCFI44:
 1375              		.cfi_restore 5
 1376              		.cfi_def_cfa 4, 4
 1377 099b C3       		ret
 1378              		.cfi_endproc
 1379              	LFE18:
 1381              	_GetMax:
 1382              	LFB19:
GAS LISTING C:\Users\jisu8\AppData\Local\Temp\ccX0Ht2c.s 			page 33


 289:src/pdf417/PDFScanningDecoder.c **** 
 290:src/pdf417/PDFScanningDecoder.c **** #if 0
 291:src/pdf417/PDFScanningDecoder.c **** template <typename Iter>
 292:src/pdf417/PDFScanningDecoder.c **** static auto GetMax(Iter start, Iter end) -> typename std::remove_reference<decltype(*start)>::type
 293:src/pdf417/PDFScanningDecoder.c **** {
 294:src/pdf417/PDFScanningDecoder.c **** 	auto it = std::max_element(start, end);
 295:src/pdf417/PDFScanningDecoder.c **** 	return it != end ? *it : -1;
 296:src/pdf417/PDFScanningDecoder.c **** }
 297:src/pdf417/PDFScanningDecoder.c **** 
 298:src/pdf417/PDFScanningDecoder.c **** #endif
 299:src/pdf417/PDFScanningDecoder.c **** static int GetMax(int * buffer, int length)
 300:src/pdf417/PDFScanningDecoder.c **** {
 1383              		.loc 1 300 1
 1384              		.cfi_startproc
 1385 099c 55       		pushl	%ebp
 1386              	LCFI45:
 1387              		.cfi_def_cfa_offset 8
 1388              		.cfi_offset 5, -8
 1389 099d 89E5     		movl	%esp, %ebp
 1390              	LCFI46:
 1391              		.cfi_def_cfa_register 5
 1392 099f 83EC10   		subl	$16, %esp
 301:src/pdf417/PDFScanningDecoder.c **** 	int ret_max = 0;
 1393              		.loc 1 301 6
 1394 09a2 C745FC00 		movl	$0, -4(%ebp)
 1394      000000
 1395              	LBB8:
 302:src/pdf417/PDFScanningDecoder.c **** 
 303:src/pdf417/PDFScanningDecoder.c **** 	for(int i=0;i<length;i++)
 1396              		.loc 1 303 10
 1397 09a9 C745F800 		movl	$0, -8(%ebp)
 1397      000000
 1398              		.loc 1 303 2
 1399 09b0 EB2E     		jmp	L90
 1400              	L92:
 304:src/pdf417/PDFScanningDecoder.c **** 	{
 305:src/pdf417/PDFScanningDecoder.c **** 		if(buffer[i]>ret_max)
 1401              		.loc 1 305 12
 1402 09b2 8B45F8   		movl	-8(%ebp), %eax
 1403 09b5 8D148500 		leal	0(,%eax,4), %edx
 1403      000000
 1404 09bc 8B4508   		movl	8(%ebp), %eax
 1405 09bf 01D0     		addl	%edx, %eax
 1406 09c1 8B00     		movl	(%eax), %eax
 1407              		.loc 1 305 5
 1408 09c3 3945FC   		cmpl	%eax, -4(%ebp)
 1409 09c6 7D14     		jge	L91
 306:src/pdf417/PDFScanningDecoder.c **** 		{
 307:src/pdf417/PDFScanningDecoder.c **** 			ret_max = buffer[i];
 1410              		.loc 1 307 20
 1411 09c8 8B45F8   		movl	-8(%ebp), %eax
 1412 09cb 8D148500 		leal	0(,%eax,4), %edx
 1412      000000
 1413 09d2 8B4508   		movl	8(%ebp), %eax
 1414 09d5 01D0     		addl	%edx, %eax
 1415              		.loc 1 307 12
 1416 09d7 8B00     		movl	(%eax), %eax
GAS LISTING C:\Users\jisu8\AppData\Local\Temp\ccX0Ht2c.s 			page 34


 1417 09d9 8945FC   		movl	%eax, -4(%ebp)
 1418              	L91:
 303:src/pdf417/PDFScanningDecoder.c **** 	{
 1419              		.loc 1 303 24 discriminator 2
 1420 09dc 8345F801 		addl	$1, -8(%ebp)
 1421              	L90:
 303:src/pdf417/PDFScanningDecoder.c **** 	{
 1422              		.loc 1 303 2 discriminator 1
 1423 09e0 8B45F8   		movl	-8(%ebp), %eax
 1424 09e3 3B450C   		cmpl	12(%ebp), %eax
 1425 09e6 7CCA     		jl	L92
 1426              	LBE8:
 308:src/pdf417/PDFScanningDecoder.c **** 		}
 309:src/pdf417/PDFScanningDecoder.c **** 	}
 310:src/pdf417/PDFScanningDecoder.c **** 
 311:src/pdf417/PDFScanningDecoder.c **** 	return ret_max;
 1427              		.loc 1 311 9
 1428 09e8 8B45FC   		movl	-4(%ebp), %eax
 312:src/pdf417/PDFScanningDecoder.c **** }
 1429              		.loc 1 312 1
 1430 09eb C9       		leave
 1431              	LCFI47:
 1432              		.cfi_restore 5
 1433              		.cfi_def_cfa 4, 4
 1434 09ec C3       		ret
 1435              		.cfi_endproc
 1436              	LFE19:
 1437              		.section .rdata,"dr"
 1438              	LC7:
 1439 01a1 41646A75 		.ascii "AdjustBoundingBox \0"
 1439      7374426F 
 1439      756E6469 
 1439      6E67426F 
 1439      782000
 1440              		.text
 1442              	_AdjustBoundingBox:
 1443              	LFB20:
 313:src/pdf417/PDFScanningDecoder.c **** static uint8_t AdjustBoundingBox(DetectionResultColumn_t * rowIndicatorColumn, BoundingBox_t * resu
 314:src/pdf417/PDFScanningDecoder.c **** {
 1444              		.loc 1 314 1
 1445              		.cfi_startproc
 1446 09ed 55       		pushl	%ebp
 1447              	LCFI48:
 1448              		.cfi_def_cfa_offset 8
 1449              		.cfi_offset 5, -8
 1450 09ee 89E5     		movl	%esp, %ebp
 1451              	LCFI49:
 1452              		.cfi_def_cfa_register 5
 1453 09f0 57       		pushl	%edi
 1454 09f1 56       		pushl	%esi
 1455 09f2 81EC7002 		subl	$624, %esp
 1455      0000
 1456              		.cfi_offset 7, -12
 1457              		.cfi_offset 6, -16
 315:src/pdf417/PDFScanningDecoder.c **** 	printf("AdjustBoundingBox \n");
 1458              		.loc 1 315 2
 1459 09f8 C70424A1 		movl	$LC7, (%esp)
GAS LISTING C:\Users\jisu8\AppData\Local\Temp\ccX0Ht2c.s 			page 35


 1459      010000
 1460 09ff E8000000 		call	_puts
 1460      00
 316:src/pdf417/PDFScanningDecoder.c **** 	
 317:src/pdf417/PDFScanningDecoder.c **** 	if (rowIndicatorColumn->m_hasValue == 0)
 1461              		.loc 1 317 24
 1462 0a04 8B4508   		movl	8(%ebp), %eax
 1463 0a07 0FB600   		movzbl	(%eax), %eax
 1464              		.loc 1 317 5
 1465 0a0a 84C0     		testb	%al, %al
 1466 0a0c 7510     		jne	L95
 318:src/pdf417/PDFScanningDecoder.c **** 	{
 319:src/pdf417/PDFScanningDecoder.c **** 		result->m_hasValue = 0;
 1467              		.loc 1 319 22
 1468 0a0e 8B450C   		movl	12(%ebp), %eax
 1469 0a11 C60000   		movb	$0, (%eax)
 320:src/pdf417/PDFScanningDecoder.c **** 		return 1;
 1470              		.loc 1 320 10
 1471 0a14 B8010000 		movl	$1, %eax
 1471      00
 1472 0a19 E9C90100 		jmp	L113
 1472      00
 1473              	L95:
 321:src/pdf417/PDFScanningDecoder.c **** 	}
 322:src/pdf417/PDFScanningDecoder.c **** 
 323:src/pdf417/PDFScanningDecoder.c **** 	int rowHeights[100];
 324:src/pdf417/PDFScanningDecoder.c **** 	int size = 0;
 1474              		.loc 1 324 6
 1475 0a1e C78544FE 		movl	$0, -444(%ebp)
 1475      FFFF0000 
 1475      0000
 325:src/pdf417/PDFScanningDecoder.c **** 	if (!getRowHeights(rowIndicatorColumn,&rowHeights,length,&size)) 
 1476              		.loc 1 325 7
 1477 0a28 8D8544FE 		leal	-444(%ebp), %eax
 1477      FFFF
 1478 0a2e 8944240C 		movl	%eax, 12(%esp)
 1479 0a32 8B4510   		movl	16(%ebp), %eax
 1480 0a35 89442408 		movl	%eax, 8(%esp)
 1481 0a39 8D8548FE 		leal	-440(%ebp), %eax
 1481      FFFF
 1482 0a3f 89442404 		movl	%eax, 4(%esp)
 1483 0a43 8B4508   		movl	8(%ebp), %eax
 1484 0a46 890424   		movl	%eax, (%esp)
 1485 0a49 E8000000 		call	_getRowHeights
 1485      00
 1486              		.loc 1 325 5
 1487 0a4e 84C0     		testb	%al, %al
 1488 0a50 7511     		jne	L97
 326:src/pdf417/PDFScanningDecoder.c **** 	{
 327:src/pdf417/PDFScanningDecoder.c **** 		result = NULL;
 1489              		.loc 1 327 10
 1490 0a52 C7450C00 		movl	$0, 12(%ebp)
 1490      000000
 328:src/pdf417/PDFScanningDecoder.c **** 		return 1;
 1491              		.loc 1 328 10
 1492 0a59 B8010000 		movl	$1, %eax
 1492      00
GAS LISTING C:\Users\jisu8\AppData\Local\Temp\ccX0Ht2c.s 			page 36


 1493 0a5e E9840100 		jmp	L113
 1493      00
 1494              	L97:
 329:src/pdf417/PDFScanningDecoder.c **** 	}
 330:src/pdf417/PDFScanningDecoder.c **** 
 331:src/pdf417/PDFScanningDecoder.c **** 	int maxRowHeight = GetMax(rowHeights,size);
 1495              		.loc 1 331 21
 1496 0a63 8B8544FE 		movl	-444(%ebp), %eax
 1496      FFFF
 1497 0a69 89442404 		movl	%eax, 4(%esp)
 1498 0a6d 8D8548FE 		leal	-440(%ebp), %eax
 1498      FFFF
 1499 0a73 890424   		movl	%eax, (%esp)
 1500 0a76 E821FFFF 		call	_GetMax
 1500      FF
 1501 0a7b 8945DC   		movl	%eax, -36(%ebp)
 332:src/pdf417/PDFScanningDecoder.c **** 	int missingStartRows = 0;
 1502              		.loc 1 332 6
 1503 0a7e C745F400 		movl	$0, -12(%ebp)
 1503      000000
 1504              	LBB9:
 333:src/pdf417/PDFScanningDecoder.c **** 	for (int i=0;i<size;i++) 
 1505              		.loc 1 333 11
 1506 0a85 C745F000 		movl	$0, -16(%ebp)
 1506      000000
 1507              		.loc 1 333 2
 1508 0a8c EB26     		jmp	L98
 1509              	L101:
 334:src/pdf417/PDFScanningDecoder.c **** 	{
 335:src/pdf417/PDFScanningDecoder.c **** 		missingStartRows += maxRowHeight - rowHeights[i];
 1510              		.loc 1 335 48
 1511 0a8e 8B45F0   		movl	-16(%ebp), %eax
 1512 0a91 8B848548 		movl	-440(%ebp,%eax,4), %eax
 1512      FEFFFF
 1513              		.loc 1 335 36
 1514 0a98 8B55DC   		movl	-36(%ebp), %edx
 1515 0a9b 29C2     		subl	%eax, %edx
 1516 0a9d 89D0     		movl	%edx, %eax
 1517              		.loc 1 335 20
 1518 0a9f 0145F4   		addl	%eax, -12(%ebp)
 336:src/pdf417/PDFScanningDecoder.c **** 		if (rowHeights[i] > 0) 
 1519              		.loc 1 336 17
 1520 0aa2 8B45F0   		movl	-16(%ebp), %eax
 1521 0aa5 8B848548 		movl	-440(%ebp,%eax,4), %eax
 1521      FEFFFF
 1522              		.loc 1 336 6
 1523 0aac 85C0     		testl	%eax, %eax
 1524 0aae 7F11     		jg	L114
 333:src/pdf417/PDFScanningDecoder.c **** 	for (int i=0;i<size;i++) 
 1525              		.loc 1 333 23 discriminator 2
 1526 0ab0 8345F001 		addl	$1, -16(%ebp)
 1527              	L98:
 333:src/pdf417/PDFScanningDecoder.c **** 	for (int i=0;i<size;i++) 
 1528              		.loc 1 333 16 discriminator 1
 1529 0ab4 8B8544FE 		movl	-444(%ebp), %eax
 1529      FFFF
 333:src/pdf417/PDFScanningDecoder.c **** 	for (int i=0;i<size;i++) 
GAS LISTING C:\Users\jisu8\AppData\Local\Temp\ccX0Ht2c.s 			page 37


 1530              		.loc 1 333 2 discriminator 1
 1531 0aba 3945F0   		cmpl	%eax, -16(%ebp)
 1532 0abd 7CCF     		jl	L101
 1533 0abf EB01     		jmp	L100
 1534              	L114:
 337:src/pdf417/PDFScanningDecoder.c **** 		{
 338:src/pdf417/PDFScanningDecoder.c **** 			break;
 1535              		.loc 1 338 4
 1536 0ac1 90       		nop
 1537              	L100:
 1538              	LBE9:
 339:src/pdf417/PDFScanningDecoder.c **** 		}
 340:src/pdf417/PDFScanningDecoder.c **** 	}
 341:src/pdf417/PDFScanningDecoder.c **** 
 342:src/pdf417/PDFScanningDecoder.c **** 	Codeword_t * codewords = rowIndicatorColumn->m_value._codewords;
 1539              		.loc 1 342 15
 1540 0ac2 8B4508   		movl	8(%ebp), %eax
 1541 0ac5 83C050   		addl	$80, %eax
 1542 0ac8 8945D8   		movl	%eax, -40(%ebp)
 1543              	LBB10:
 343:src/pdf417/PDFScanningDecoder.c **** 	for (int row = 0; (missingStartRows > 0) && ((codewords+row)->m_hasValue == 0); row++) 
 1544              		.loc 1 343 11
 1545 0acb C745EC00 		movl	$0, -20(%ebp)
 1545      000000
 1546              		.loc 1 343 2
 1547 0ad2 EB08     		jmp	L102
 1548              	L104:
 344:src/pdf417/PDFScanningDecoder.c **** 	{
 345:src/pdf417/PDFScanningDecoder.c **** 		missingStartRows--;
 1549              		.loc 1 345 19 discriminator 4
 1550 0ad4 836DF401 		subl	$1, -12(%ebp)
 343:src/pdf417/PDFScanningDecoder.c **** 	for (int row = 0; (missingStartRows > 0) && ((codewords+row)->m_hasValue == 0); row++) 
 1551              		.loc 1 343 85 discriminator 4
 1552 0ad8 8345EC01 		addl	$1, -20(%ebp)
 1553              	L102:
 343:src/pdf417/PDFScanningDecoder.c **** 	for (int row = 0; (missingStartRows > 0) && ((codewords+row)->m_hasValue == 0); row++) 
 1554              		.loc 1 343 2 discriminator 1
 1555 0adc 837DF400 		cmpl	$0, -12(%ebp)
 1556 0ae0 7E1A     		jle	L103
 343:src/pdf417/PDFScanningDecoder.c **** 	for (int row = 0; (missingStartRows > 0) && ((codewords+row)->m_hasValue == 0); row++) 
 1557              		.loc 1 343 57 discriminator 3
 1558 0ae2 8B55EC   		movl	-20(%ebp), %edx
 1559 0ae5 89D0     		movl	%edx, %eax
 1560 0ae7 01C0     		addl	%eax, %eax
 1561 0ae9 01D0     		addl	%edx, %eax
 1562 0aeb C1E003   		sall	$3, %eax
 1563 0aee 89C2     		movl	%eax, %edx
 1564 0af0 8B45D8   		movl	-40(%ebp), %eax
 1565 0af3 01D0     		addl	%edx, %eax
 343:src/pdf417/PDFScanningDecoder.c **** 	for (int row = 0; (missingStartRows > 0) && ((codewords+row)->m_hasValue == 0); row++) 
 1566              		.loc 1 343 62 discriminator 3
 1567 0af5 0FB600   		movzbl	(%eax), %eax
 343:src/pdf417/PDFScanningDecoder.c **** 	for (int row = 0; (missingStartRows > 0) && ((codewords+row)->m_hasValue == 0); row++) 
 1568              		.loc 1 343 43 discriminator 3
 1569 0af8 84C0     		testb	%al, %al
 1570 0afa 74D8     		je	L104
 1571              	L103:
GAS LISTING C:\Users\jisu8\AppData\Local\Temp\ccX0Ht2c.s 			page 38


 1572              	LBE10:
 346:src/pdf417/PDFScanningDecoder.c **** 	}
 347:src/pdf417/PDFScanningDecoder.c **** 
 348:src/pdf417/PDFScanningDecoder.c **** 	int missingEndRows = 0;
 1573              		.loc 1 348 6
 1574 0afc C745E800 		movl	$0, -24(%ebp)
 1574      000000
 1575              	LBB11:
 349:src/pdf417/PDFScanningDecoder.c **** 	for (int row = size - 1; row >= 0; row--) 
 1576              		.loc 1 349 22
 1577 0b03 8B8544FE 		movl	-444(%ebp), %eax
 1577      FFFF
 1578              		.loc 1 349 11
 1579 0b09 83E801   		subl	$1, %eax
 1580 0b0c 8945E4   		movl	%eax, -28(%ebp)
 1581              		.loc 1 349 2
 1582 0b0f EB26     		jmp	L105
 1583              	L108:
 350:src/pdf417/PDFScanningDecoder.c **** 	{
 351:src/pdf417/PDFScanningDecoder.c **** 		missingEndRows += maxRowHeight - rowHeights[row];
 1584              		.loc 1 351 46
 1585 0b11 8B45E4   		movl	-28(%ebp), %eax
 1586 0b14 8B848548 		movl	-440(%ebp,%eax,4), %eax
 1586      FEFFFF
 1587              		.loc 1 351 34
 1588 0b1b 8B55DC   		movl	-36(%ebp), %edx
 1589 0b1e 29C2     		subl	%eax, %edx
 1590 0b20 89D0     		movl	%edx, %eax
 1591              		.loc 1 351 18
 1592 0b22 0145E8   		addl	%eax, -24(%ebp)
 352:src/pdf417/PDFScanningDecoder.c **** 		if (rowHeights[row] > 0) 
 1593              		.loc 1 352 17
 1594 0b25 8B45E4   		movl	-28(%ebp), %eax
 1595 0b28 8B848548 		movl	-440(%ebp,%eax,4), %eax
 1595      FEFFFF
 1596              		.loc 1 352 6
 1597 0b2f 85C0     		testl	%eax, %eax
 1598 0b31 7F0C     		jg	L115
 349:src/pdf417/PDFScanningDecoder.c **** 	for (int row = size - 1; row >= 0; row--) 
 1599              		.loc 1 349 40 discriminator 2
 1600 0b33 836DE401 		subl	$1, -28(%ebp)
 1601              	L105:
 349:src/pdf417/PDFScanningDecoder.c **** 	for (int row = size - 1; row >= 0; row--) 
 1602              		.loc 1 349 2 discriminator 1
 1603 0b37 837DE400 		cmpl	$0, -28(%ebp)
 1604 0b3b 79D4     		jns	L108
 1605 0b3d EB01     		jmp	L107
 1606              	L115:
 353:src/pdf417/PDFScanningDecoder.c **** 		{
 354:src/pdf417/PDFScanningDecoder.c **** 			break;
 1607              		.loc 1 354 4
 1608 0b3f 90       		nop
 1609              	L107:
 1610              	LBE11:
 1611              	LBB12:
 355:src/pdf417/PDFScanningDecoder.c **** 		}
 356:src/pdf417/PDFScanningDecoder.c **** 	}
GAS LISTING C:\Users\jisu8\AppData\Local\Temp\ccX0Ht2c.s 			page 39


 357:src/pdf417/PDFScanningDecoder.c **** 	for (int row = length - 1; missingEndRows > 0 && ((codewords+row)->m_hasValue == 0); row--) 
 1612              		.loc 1 357 11
 1613 0b40 8B4510   		movl	16(%ebp), %eax
 1614 0b43 83E801   		subl	$1, %eax
 1615 0b46 8945E0   		movl	%eax, -32(%ebp)
 1616              		.loc 1 357 2
 1617 0b49 EB08     		jmp	L109
 1618              	L111:
 358:src/pdf417/PDFScanningDecoder.c **** 	{
 359:src/pdf417/PDFScanningDecoder.c **** 		missingEndRows--;
 1619              		.loc 1 359 17 discriminator 4
 1620 0b4b 836DE801 		subl	$1, -24(%ebp)
 357:src/pdf417/PDFScanningDecoder.c **** 	{
 1621              		.loc 1 357 90 discriminator 4
 1622 0b4f 836DE001 		subl	$1, -32(%ebp)
 1623              	L109:
 357:src/pdf417/PDFScanningDecoder.c **** 	{
 1624              		.loc 1 357 2 discriminator 1
 1625 0b53 837DE800 		cmpl	$0, -24(%ebp)
 1626 0b57 7E1A     		jle	L110
 357:src/pdf417/PDFScanningDecoder.c **** 	{
 1627              		.loc 1 357 62 discriminator 3
 1628 0b59 8B55E0   		movl	-32(%ebp), %edx
 1629 0b5c 89D0     		movl	%edx, %eax
 1630 0b5e 01C0     		addl	%eax, %eax
 1631 0b60 01D0     		addl	%edx, %eax
 1632 0b62 C1E003   		sall	$3, %eax
 1633 0b65 89C2     		movl	%eax, %edx
 1634 0b67 8B45D8   		movl	-40(%ebp), %eax
 1635 0b6a 01D0     		addl	%edx, %eax
 357:src/pdf417/PDFScanningDecoder.c **** 	{
 1636              		.loc 1 357 67 discriminator 3
 1637 0b6c 0FB600   		movzbl	(%eax), %eax
 357:src/pdf417/PDFScanningDecoder.c **** 	{
 1638              		.loc 1 357 48 discriminator 3
 1639 0b6f 84C0     		testb	%al, %al
 1640 0b71 74D8     		je	L111
 1641              	L110:
 1642              	LBE12:
 360:src/pdf417/PDFScanningDecoder.c **** 	}
 361:src/pdf417/PDFScanningDecoder.c **** 	BoundingBox_t box;
 362:src/pdf417/PDFScanningDecoder.c **** 	BoundingBox_t boundingBox = rowIndicatorColumn->m_value._boundingBox;
 1643              		.loc 1 362 16
 1644 0b73 8B5508   		movl	8(%ebp), %edx
 1645 0b76 8D85ACFD 		leal	-596(%ebp), %eax
 1645      FFFF
 1646 0b7c 83C204   		addl	$4, %edx
 1647 0b7f B9130000 		movl	$19, %ecx
 1647      00
 1648 0b84 89C7     		movl	%eax, %edi
 1649 0b86 89D6     		movl	%edx, %esi
 1650 0b88 F3A5     		rep movsl
 1651              	LBB13:
 363:src/pdf417/PDFScanningDecoder.c **** 	if (AddMissingRows(&boundingBox, missingStartRows, missingEndRows, isLeftRowIndicator(rowIndicator
 1652              		.loc 1 363 69
 1653 0b8a 8B4508   		movl	8(%ebp), %eax
 1654 0b8d 890424   		movl	%eax, (%esp)
GAS LISTING C:\Users\jisu8\AppData\Local\Temp\ccX0Ht2c.s 			page 40


 1655 0b90 E8000000 		call	_isLeftRowIndicator
 1655      00
 1656              		.loc 1 363 6
 1657 0b95 0FB6C0   		movzbl	%al, %eax
 1658 0b98 8D95F8FD 		leal	-520(%ebp), %edx
 1658      FFFF
 1659 0b9e 89542410 		movl	%edx, 16(%esp)
 1660 0ba2 8944240C 		movl	%eax, 12(%esp)
 1661 0ba6 8B45E8   		movl	-24(%ebp), %eax
 1662 0ba9 89442408 		movl	%eax, 8(%esp)
 1663 0bad 8B45F4   		movl	-12(%ebp), %eax
 1664 0bb0 89442404 		movl	%eax, 4(%esp)
 1665 0bb4 8D85ACFD 		leal	-596(%ebp), %eax
 1665      FFFF
 1666 0bba 890424   		movl	%eax, (%esp)
 1667 0bbd E8000000 		call	_AddMissingRows
 1667      00
 1668              		.loc 1 363 5
 1669 0bc2 84C0     		testb	%al, %al
 1670 0bc4 741C     		je	L112
 364:src/pdf417/PDFScanningDecoder.c **** 	{
 365:src/pdf417/PDFScanningDecoder.c **** 		copy(&box,result);
 1671              		.loc 1 365 3
 1672 0bc6 8B450C   		movl	12(%ebp), %eax
 1673 0bc9 89442404 		movl	%eax, 4(%esp)
 1674 0bcd 8D85F8FD 		leal	-520(%ebp), %eax
 1674      FFFF
 1675 0bd3 890424   		movl	%eax, (%esp)
 1676 0bd6 E8000000 		call	_copy
 1676      00
 366:src/pdf417/PDFScanningDecoder.c **** 		return 1;
 1677              		.loc 1 366 10
 1678 0bdb B8010000 		movl	$1, %eax
 1678      00
 1679 0be0 EB05     		jmp	L113
 1680              	L112:
 1681              	LBE13:
 367:src/pdf417/PDFScanningDecoder.c **** 	}
 368:src/pdf417/PDFScanningDecoder.c **** 
 369:src/pdf417/PDFScanningDecoder.c **** 	return 0;
 1682              		.loc 1 369 9
 1683 0be2 B8000000 		movl	$0, %eax
 1683      00
 1684              	L113:
 370:src/pdf417/PDFScanningDecoder.c **** }
 1685              		.loc 1 370 1 discriminator 1
 1686 0be7 81C47002 		addl	$624, %esp
 1686      0000
 1687 0bed 5E       		popl	%esi
 1688              		.cfi_restore 6
 1689 0bee 5F       		popl	%edi
 1690              		.cfi_restore 7
 1691 0bef 5D       		popl	%ebp
 1692              	LCFI50:
 1693              		.cfi_restore 5
 1694              		.cfi_def_cfa 4, 4
 1695 0bf0 C3       		ret
GAS LISTING C:\Users\jisu8\AppData\Local\Temp\ccX0Ht2c.s 			page 41


 1696              		.cfi_endproc
 1697              	LFE20:
 1699              	_Merge:
 1700              	LFB21:
 371:src/pdf417/PDFScanningDecoder.c **** 
 372:src/pdf417/PDFScanningDecoder.c **** 
 373:src/pdf417/PDFScanningDecoder.c **** static uint8_t Merge(DetectionResultColumn_t * leftRowIndicatorColumn, DetectionResultColumn_t * ri
 374:src/pdf417/PDFScanningDecoder.c **** {
 1701              		.loc 1 374 1
 1702              		.cfi_startproc
 1703 0bf1 55       		pushl	%ebp
 1704              	LCFI51:
 1705              		.cfi_def_cfa_offset 8
 1706              		.cfi_offset 5, -8
 1707 0bf2 89E5     		movl	%esp, %ebp
 1708              	LCFI52:
 1709              		.cfi_def_cfa_register 5
 1710 0bf4 81EC1801 		subl	$280, %esp
 1710      0000
 375:src/pdf417/PDFScanningDecoder.c **** 	if (leftRowIndicatorColumn != NULL || rightRowIndicatorColumn != NULL) 
 1711              		.loc 1 375 5
 1712 0bfa 837D0800 		cmpl	$0, 8(%ebp)
 1713 0bfe 750A     		jne	L117
 1714              		.loc 1 375 37 discriminator 1
 1715 0c00 837D0C00 		cmpl	$0, 12(%ebp)
 1716 0c04 0F84B600 		je	L118
 1716      0000
 1717              	L117:
 1718              	LBB14:
 376:src/pdf417/PDFScanningDecoder.c **** 	{
 377:src/pdf417/PDFScanningDecoder.c **** 		BarcodeMetadata_t barcodeMetadata;
 378:src/pdf417/PDFScanningDecoder.c **** 		Metadata_Init(&barcodeMetadata);
 1719              		.loc 1 378 3
 1720 0c0a 8D45E8   		leal	-24(%ebp), %eax
 1721 0c0d 890424   		movl	%eax, (%esp)
 1722 0c10 E8D6FBFF 		call	_Metadata_Init
 1722      FF
 379:src/pdf417/PDFScanningDecoder.c **** 		if (GetBarcodeMetadata(leftRowIndicatorColumn, rightRowIndicatorColumn, &barcodeMetadata,length))
 1723              		.loc 1 379 7
 1724 0c15 8B4514   		movl	20(%ebp), %eax
 1725 0c18 8944240C 		movl	%eax, 12(%esp)
 1726 0c1c 8D45E8   		leal	-24(%ebp), %eax
 1727 0c1f 89442408 		movl	%eax, 8(%esp)
 1728 0c23 8B450C   		movl	12(%ebp), %eax
 1729 0c26 89442404 		movl	%eax, 4(%esp)
 1730 0c2a 8B4508   		movl	8(%ebp), %eax
 1731 0c2d 890424   		movl	%eax, (%esp)
 1732 0c30 E80BFCFF 		call	_GetBarcodeMetadata
 1732      FF
 1733              		.loc 1 379 6
 1734 0c35 84C0     		testb	%al, %al
 1735 0c37 0F848300 		je	L118
 1735      0000
 1736              	LBB15:
 380:src/pdf417/PDFScanningDecoder.c **** 		{
 381:src/pdf417/PDFScanningDecoder.c **** 			BoundingBox_t leftBox, rightBox, mergedBox;
 382:src/pdf417/PDFScanningDecoder.c **** 			if (AdjustBoundingBox(leftRowIndicatorColumn, &leftBox,length) && AdjustBoundingBox(rightRowIndi
GAS LISTING C:\Users\jisu8\AppData\Local\Temp\ccX0Ht2c.s 			page 42


 1737              		.loc 1 382 8
 1738 0c3d 8B4514   		movl	20(%ebp), %eax
 1739 0c40 89442408 		movl	%eax, 8(%esp)
 1740 0c44 8D8504FF 		leal	-252(%ebp), %eax
 1740      FFFF
 1741 0c4a 89442404 		movl	%eax, 4(%esp)
 1742 0c4e 8B4508   		movl	8(%ebp), %eax
 1743 0c51 890424   		movl	%eax, (%esp)
 1744 0c54 E894FDFF 		call	_AdjustBoundingBox
 1744      FF
 1745              		.loc 1 382 7
 1746 0c59 84C0     		testb	%al, %al
 1747 0c5b 7463     		je	L118
 1748              		.loc 1 382 70 discriminator 1
 1749 0c5d 8B4514   		movl	20(%ebp), %eax
 1750 0c60 89442408 		movl	%eax, 8(%esp)
 1751 0c64 8D8550FF 		leal	-176(%ebp), %eax
 1751      FFFF
 1752 0c6a 89442404 		movl	%eax, 4(%esp)
 1753 0c6e 8B450C   		movl	12(%ebp), %eax
 1754 0c71 890424   		movl	%eax, (%esp)
 1755 0c74 E874FDFF 		call	_AdjustBoundingBox
 1755      FF
 1756              		.loc 1 382 67 discriminator 1
 1757 0c79 84C0     		testb	%al, %al
 1758 0c7b 7443     		je	L118
 1759              		.loc 1 382 134 discriminator 2
 1760 0c7d 8D459C   		leal	-100(%ebp), %eax
 1761 0c80 89442408 		movl	%eax, 8(%esp)
 1762 0c84 8D8550FF 		leal	-176(%ebp), %eax
 1762      FFFF
 1763 0c8a 89442404 		movl	%eax, 4(%esp)
 1764 0c8e 8D8504FF 		leal	-252(%ebp), %eax
 1764      FFFF
 1765 0c94 890424   		movl	%eax, (%esp)
 1766 0c97 E8000000 		call	_Bounding_Merge
 1766      00
 1767              		.loc 1 382 131 discriminator 2
 1768 0c9c 84C0     		testb	%al, %al
 1769 0c9e 7420     		je	L118
 383:src/pdf417/PDFScanningDecoder.c **** 			{
 384:src/pdf417/PDFScanningDecoder.c **** 				Detection_Result_init(&barcodeMetadata, &mergedBox,result);
 1770              		.loc 1 384 5
 1771 0ca0 8B4510   		movl	16(%ebp), %eax
 1772 0ca3 89442408 		movl	%eax, 8(%esp)
 1773 0ca7 8D459C   		leal	-100(%ebp), %eax
 1774 0caa 89442404 		movl	%eax, 4(%esp)
 1775 0cae 8D45E8   		leal	-24(%ebp), %eax
 1776 0cb1 890424   		movl	%eax, (%esp)
 1777 0cb4 E8000000 		call	_Detection_Result_init
 1777      00
 385:src/pdf417/PDFScanningDecoder.c **** 				return 1;
 1778              		.loc 1 385 12
 1779 0cb9 B8010000 		movl	$1, %eax
 1779      00
 1780 0cbe EB05     		jmp	L121
 1781              	L118:
GAS LISTING C:\Users\jisu8\AppData\Local\Temp\ccX0Ht2c.s 			page 43


 1782              	LBE15:
 1783              	LBE14:
 386:src/pdf417/PDFScanningDecoder.c **** 			}
 387:src/pdf417/PDFScanningDecoder.c **** 		}
 388:src/pdf417/PDFScanningDecoder.c **** 	}
 389:src/pdf417/PDFScanningDecoder.c **** 	return 0;
 1784              		.loc 1 389 9
 1785 0cc0 B8000000 		movl	$0, %eax
 1785      00
 1786              	L121:
 390:src/pdf417/PDFScanningDecoder.c **** }
 1787              		.loc 1 390 1 discriminator 2
 1788 0cc5 C9       		leave
 1789              	LCFI53:
 1790              		.cfi_restore 5
 1791              		.cfi_def_cfa 4, 4
 1792 0cc6 C3       		ret
 1793              		.cfi_endproc
 1794              	LFE21:
 1796              	_IsValidBarcodeColumn:
 1797              	LFB22:
 391:src/pdf417/PDFScanningDecoder.c **** 
 392:src/pdf417/PDFScanningDecoder.c **** 
 393:src/pdf417/PDFScanningDecoder.c **** 
 394:src/pdf417/PDFScanningDecoder.c **** static uint8_t IsValidBarcodeColumn(const DetectionResult_t * detectionResult, int barcodeColumn)
 395:src/pdf417/PDFScanningDecoder.c **** {
 1798              		.loc 1 395 1
 1799              		.cfi_startproc
 1800 0cc7 55       		pushl	%ebp
 1801              	LCFI54:
 1802              		.cfi_def_cfa_offset 8
 1803              		.cfi_offset 5, -8
 1804 0cc8 89E5     		movl	%esp, %ebp
 1805              	LCFI55:
 1806              		.cfi_def_cfa_register 5
 396:src/pdf417/PDFScanningDecoder.c **** 	return barcodeColumn >= 0 && barcodeColumn <= detectionResult->_barcodeMetadata._columnCount + 1;
 1807              		.loc 1 396 28
 1808 0cca 837D0C00 		cmpl	$0, 12(%ebp)
 1809 0cce 7814     		js	L123
 1810              		.loc 1 396 81 discriminator 1
 1811 0cd0 8B4508   		movl	8(%ebp), %eax
 1812 0cd3 8B00     		movl	(%eax), %eax
 1813              		.loc 1 396 95 discriminator 1
 1814 0cd5 83C001   		addl	$1, %eax
 1815              		.loc 1 396 28 discriminator 1
 1816 0cd8 39450C   		cmpl	%eax, 12(%ebp)
 1817 0cdb 7F07     		jg	L123
 1818              		.loc 1 396 28 is_stmt 0 discriminator 3
 1819 0cdd B8010000 		movl	$1, %eax
 1819      00
 1820 0ce2 EB05     		jmp	L124
 1821              	L123:
 1822              		.loc 1 396 28 discriminator 4
 1823 0ce4 B8000000 		movl	$0, %eax
 1823      00
 1824              	L124:
 397:src/pdf417/PDFScanningDecoder.c **** }
GAS LISTING C:\Users\jisu8\AppData\Local\Temp\ccX0Ht2c.s 			page 44


 1825              		.loc 1 397 1 is_stmt 1 discriminator 6
 1826 0ce9 5D       		popl	%ebp
 1827              	LCFI56:
 1828              		.cfi_restore 5
 1829              		.cfi_def_cfa 4, 4
 1830 0cea C3       		ret
 1831              		.cfi_endproc
 1832              	LFE22:
 1833              		.section .rdata,"dr"
 1834              		.align 4
 1835              	LC8:
 1836 01b4 47657453 		.ascii "GetStartColumn barcodeColumn=%d, imageRow=%d, leftToRight=%d \12\0"
 1836      74617274 
 1836      436F6C75 
 1836      6D6E2062 
 1836      6172636F 
 1837 01f3 00       		.text
 1839              	_GetStartColumn:
 1840              	LFB23:
 398:src/pdf417/PDFScanningDecoder.c **** 
 399:src/pdf417/PDFScanningDecoder.c **** 
 400:src/pdf417/PDFScanningDecoder.c **** static int GetStartColumn(const DetectionResult_t * detectionResult, int barcodeColumn, int imageRo
 401:src/pdf417/PDFScanningDecoder.c **** {
 1841              		.loc 1 401 1
 1842              		.cfi_startproc
 1843 0ceb 55       		pushl	%ebp
 1844              	LCFI57:
 1845              		.cfi_def_cfa_offset 8
 1846              		.cfi_offset 5, -8
 1847 0cec 89E5     		movl	%esp, %ebp
 1848              	LCFI58:
 1849              		.cfi_def_cfa_register 5
 1850 0cee 56       		pushl	%esi
 1851 0cef 53       		pushl	%ebx
 1852 0cf0 83EC30   		subl	$48, %esp
 1853              		.cfi_offset 6, -12
 1854              		.cfi_offset 3, -16
 1855 0cf3 8B4514   		movl	20(%ebp), %eax
 1856 0cf6 8845E4   		movb	%al, -28(%ebp)
 402:src/pdf417/PDFScanningDecoder.c **** 	printf("GetStartColumn barcodeColumn=%d, imageRow=%d, leftToRight=%d \n", barcodeColumn, imageRow,
 1857              		.loc 1 402 2
 1858 0cf9 0FB645E4 		movzbl	-28(%ebp), %eax
 1859 0cfd 8944240C 		movl	%eax, 12(%esp)
 1860 0d01 8B4510   		movl	16(%ebp), %eax
 1861 0d04 89442408 		movl	%eax, 8(%esp)
 1862 0d08 8B450C   		movl	12(%ebp), %eax
 1863 0d0b 89442404 		movl	%eax, 4(%esp)
 1864 0d0f C70424B4 		movl	$LC8, (%esp)
 1864      010000
 1865 0d16 E8000000 		call	_printf
 1865      00
 403:src/pdf417/PDFScanningDecoder.c **** 
 404:src/pdf417/PDFScanningDecoder.c **** 	int offset = leftToRight ? 1 : -1;
 1866              		.loc 1 404 31
 1867 0d1b 807DE400 		cmpb	$0, -28(%ebp)
 1868 0d1f 7407     		je	L127
 1869              		.loc 1 404 31 is_stmt 0 discriminator 1
GAS LISTING C:\Users\jisu8\AppData\Local\Temp\ccX0Ht2c.s 			page 45


 1870 0d21 B8010000 		movl	$1, %eax
 1870      00
 1871 0d26 EB05     		jmp	L128
 1872              	L127:
 1873              		.loc 1 404 31 discriminator 2
 1874 0d28 B8FFFFFF 		movl	$-1, %eax
 1874      FF
 1875              	L128:
 1876              		.loc 1 404 6 is_stmt 1 discriminator 4
 1877 0d2d 8945F4   		movl	%eax, -12(%ebp)
 405:src/pdf417/PDFScanningDecoder.c **** 	Codeword_t * codeword;
 406:src/pdf417/PDFScanningDecoder.c **** 	if (IsValidBarcodeColumn(detectionResult, barcodeColumn - offset)) 
 1878              		.loc 1 406 6 discriminator 4
 1879 0d30 8B450C   		movl	12(%ebp), %eax
 1880 0d33 2B45F4   		subl	-12(%ebp), %eax
 1881 0d36 89442404 		movl	%eax, 4(%esp)
 1882 0d3a 8B4508   		movl	8(%ebp), %eax
 1883 0d3d 890424   		movl	%eax, (%esp)
 1884 0d40 E882FFFF 		call	_IsValidBarcodeColumn
 1884      FF
 1885              		.loc 1 406 5 discriminator 4
 1886 0d45 84C0     		testb	%al, %al
 1887 0d47 744A     		je	L129
 407:src/pdf417/PDFScanningDecoder.c **** 	{
 408:src/pdf417/PDFScanningDecoder.c **** 		*codeword = detectionResult->_detectionResultColumns[barcodeColumn - offset].m_value._codewords[i
 1888              		.loc 1 408 70
 1889 0d49 8B450C   		movl	12(%ebp), %eax
 1890 0d4c 2B45F4   		subl	-12(%ebp), %eax
 1891 0d4f 89C6     		movl	%eax, %esi
 1892              		.loc 1 408 13
 1893 0d51 8B55F0   		movl	-16(%ebp), %edx
 1894 0d54 8B5D08   		movl	8(%ebp), %ebx
 1895 0d57 8B4D10   		movl	16(%ebp), %ecx
 1896 0d5a 89C8     		movl	%ecx, %eax
 1897 0d5c 01C0     		addl	%eax, %eax
 1898 0d5e 01C8     		addl	%ecx, %eax
 1899 0d60 C1E003   		sall	$3, %eax
 1900 0d63 69CE342F 		imull	$12084, %esi, %ecx
 1900      0000
 1901 0d69 01C8     		addl	%ecx, %eax
 1902 0d6b 01D8     		addl	%ebx, %eax
 1903 0d6d 83C050   		addl	$80, %eax
 1904 0d70 8B4810   		movl	16(%eax), %ecx
 1905 0d73 890A     		movl	%ecx, (%edx)
 1906 0d75 8B4814   		movl	20(%eax), %ecx
 1907 0d78 894A04   		movl	%ecx, 4(%edx)
 1908 0d7b 8B4818   		movl	24(%eax), %ecx
 1909 0d7e 894A08   		movl	%ecx, 8(%edx)
 1910 0d81 8B481C   		movl	28(%eax), %ecx
 1911 0d84 894A0C   		movl	%ecx, 12(%edx)
 1912 0d87 8B4820   		movl	32(%eax), %ecx
 1913 0d8a 894A10   		movl	%ecx, 16(%edx)
 1914 0d8d 8B4024   		movl	36(%eax), %eax
 1915 0d90 894214   		movl	%eax, 20(%edx)
 1916              	L129:
 409:src/pdf417/PDFScanningDecoder.c **** 	}
 410:src/pdf417/PDFScanningDecoder.c **** 
GAS LISTING C:\Users\jisu8\AppData\Local\Temp\ccX0Ht2c.s 			page 46


 411:src/pdf417/PDFScanningDecoder.c **** 	if (codeword->m_hasValue != 0) 
 1917              		.loc 1 411 14
 1918 0d93 8B45F0   		movl	-16(%ebp), %eax
 1919 0d96 0FB600   		movzbl	(%eax), %eax
 1920              		.loc 1 411 5
 1921 0d99 84C0     		testb	%al, %al
 1922 0d9b 7416     		je	L130
 412:src/pdf417/PDFScanningDecoder.c **** 	{
 413:src/pdf417/PDFScanningDecoder.c **** 		return leftToRight ? codeword->m_value._endX : codeword->m_value._startX;
 1923              		.loc 1 413 48
 1924 0d9d 807DE400 		cmpb	$0, -28(%ebp)
 1925 0da1 7408     		je	L131
 1926              		.loc 1 413 48 is_stmt 0 discriminator 1
 1927 0da3 8B45F0   		movl	-16(%ebp), %eax
 1928 0da6 8B4008   		movl	8(%eax), %eax
 1929 0da9 EB7E     		jmp	L133
 1930              	L131:
 1931              		.loc 1 413 48 discriminator 2
 1932 0dab 8B45F0   		movl	-16(%ebp), %eax
 1933 0dae 8B4004   		movl	4(%eax), %eax
 1934 0db1 EB76     		jmp	L133
 1935              	L130:
 414:src/pdf417/PDFScanningDecoder.c **** 	}
 415:src/pdf417/PDFScanningDecoder.c **** 
 416:src/pdf417/PDFScanningDecoder.c **** 	//codeword = detectionResult->_detectionResultColumns[barcodeColumn].m_value.codewordNearby(imageR
 417:src/pdf417/PDFScanningDecoder.c **** 	if (codeword->m_hasValue != 0) 
 1936              		.loc 1 417 14 is_stmt 1
 1937 0db3 8B45F0   		movl	-16(%ebp), %eax
 1938 0db6 0FB600   		movzbl	(%eax), %eax
 1939              		.loc 1 417 5
 1940 0db9 84C0     		testb	%al, %al
 1941 0dbb 7416     		je	L134
 418:src/pdf417/PDFScanningDecoder.c **** 	{
 419:src/pdf417/PDFScanningDecoder.c **** 		return leftToRight ? codeword->m_value._startX : codeword->m_value._endX;
 1942              		.loc 1 419 50
 1943 0dbd 807DE400 		cmpb	$0, -28(%ebp)
 1944 0dc1 7408     		je	L135
 1945              		.loc 1 419 50 is_stmt 0 discriminator 1
 1946 0dc3 8B45F0   		movl	-16(%ebp), %eax
 1947 0dc6 8B4004   		movl	4(%eax), %eax
 1948 0dc9 EB5E     		jmp	L133
 1949              	L135:
 1950              		.loc 1 419 50 discriminator 2
 1951 0dcb 8B45F0   		movl	-16(%ebp), %eax
 1952 0dce 8B4008   		movl	8(%eax), %eax
 1953 0dd1 EB56     		jmp	L133
 1954              	L134:
 420:src/pdf417/PDFScanningDecoder.c **** 	}
 421:src/pdf417/PDFScanningDecoder.c **** 
 422:src/pdf417/PDFScanningDecoder.c **** 	if (IsValidBarcodeColumn(detectionResult, barcodeColumn - offset)) 
 1955              		.loc 1 422 6 is_stmt 1
 1956 0dd3 8B450C   		movl	12(%ebp), %eax
 1957 0dd6 2B45F4   		subl	-12(%ebp), %eax
 1958 0dd9 89442404 		movl	%eax, 4(%esp)
 1959 0ddd 8B4508   		movl	8(%ebp), %eax
 1960 0de0 890424   		movl	%eax, (%esp)
 1961 0de3 E8DFFEFF 		call	_IsValidBarcodeColumn
GAS LISTING C:\Users\jisu8\AppData\Local\Temp\ccX0Ht2c.s 			page 47


 1961      FF
 423:src/pdf417/PDFScanningDecoder.c **** 	{
 424:src/pdf417/PDFScanningDecoder.c **** 		//codeword = detectionResult->_detectionResultColumns[barcodeColumn - offset].m_value.codewordNea
 425:src/pdf417/PDFScanningDecoder.c **** 	}
 426:src/pdf417/PDFScanningDecoder.c **** 
 427:src/pdf417/PDFScanningDecoder.c **** 	if (codeword->m_hasValue != 0)
 1962              		.loc 1 427 14
 1963 0de8 8B45F0   		movl	-16(%ebp), %eax
 1964 0deb 0FB600   		movzbl	(%eax), %eax
 1965              		.loc 1 427 5
 1966 0dee 84C0     		testb	%al, %al
 1967 0df0 7416     		je	L137
 428:src/pdf417/PDFScanningDecoder.c **** 	{
 429:src/pdf417/PDFScanningDecoder.c **** 		return leftToRight ? codeword->m_value._endX : codeword->m_value._startX;
 1968              		.loc 1 429 48
 1969 0df2 807DE400 		cmpb	$0, -28(%ebp)
 1970 0df6 7408     		je	L138
 1971              		.loc 1 429 48 is_stmt 0 discriminator 1
 1972 0df8 8B45F0   		movl	-16(%ebp), %eax
 1973 0dfb 8B4008   		movl	8(%eax), %eax
 1974 0dfe EB29     		jmp	L133
 1975              	L138:
 1976              		.loc 1 429 48 discriminator 2
 1977 0e00 8B45F0   		movl	-16(%ebp), %eax
 1978 0e03 8B4004   		movl	4(%eax), %eax
 1979 0e06 EB21     		jmp	L133
 1980              	L137:
 430:src/pdf417/PDFScanningDecoder.c **** 	}
 431:src/pdf417/PDFScanningDecoder.c **** 
 432:src/pdf417/PDFScanningDecoder.c **** 	int skippedColumns = 0;
 1981              		.loc 1 432 6 is_stmt 1
 1982 0e08 C745EC00 		movl	$0, -20(%ebp)
 1982      000000
 433:src/pdf417/PDFScanningDecoder.c **** 	#if 0
 434:src/pdf417/PDFScanningDecoder.c **** 	while (IsValidBarcodeColumn(detectionResult, barcodeColumn - offset)) 
 435:src/pdf417/PDFScanningDecoder.c **** 	{
 436:src/pdf417/PDFScanningDecoder.c **** 		barcodeColumn -= offset;
 437:src/pdf417/PDFScanningDecoder.c **** 		for (auto& previousRowCodeword : detectionResult.column(barcodeColumn).value().allCodewords()) 
 438:src/pdf417/PDFScanningDecoder.c **** 		{
 439:src/pdf417/PDFScanningDecoder.c **** 			if (previousRowCodeword != nullptr) 
 440:src/pdf417/PDFScanningDecoder.c **** 			{
 441:src/pdf417/PDFScanningDecoder.c **** 				return (leftToRight ? previousRowCodeword.value().endX() : previousRowCodeword.value().startX()
 442:src/pdf417/PDFScanningDecoder.c **** 					offset *
 443:src/pdf417/PDFScanningDecoder.c **** 					skippedColumns *
 444:src/pdf417/PDFScanningDecoder.c **** 					(previousRowCodeword.value().endX() - previousRowCodeword.value().startX());
 445:src/pdf417/PDFScanningDecoder.c **** 			}
 446:src/pdf417/PDFScanningDecoder.c **** 		}
 447:src/pdf417/PDFScanningDecoder.c **** 		skippedColumns++;
 448:src/pdf417/PDFScanningDecoder.c **** 	}
 449:src/pdf417/PDFScanningDecoder.c **** 	#endif
 450:src/pdf417/PDFScanningDecoder.c **** 	return leftToRight ? detectionResult->_boundingBox.m_value._minX : detectionResult->_boundingBox.m
 1983              		.loc 1 450 67
 1984 0e0f 807DE400 		cmpb	$0, -28(%ebp)
 1985 0e13 740B     		je	L140
 1986              		.loc 1 450 67 is_stmt 0 discriminator 1
 1987 0e15 8B4508   		movl	8(%ebp), %eax
 1988 0e18 8B809C70 		movl	1208476(%eax), %eax
GAS LISTING C:\Users\jisu8\AppData\Local\Temp\ccX0Ht2c.s 			page 48


 1988      1200
 1989 0e1e EB09     		jmp	L133
 1990              	L140:
 1991              		.loc 1 450 67 discriminator 2
 1992 0e20 8B4508   		movl	8(%ebp), %eax
 1993 0e23 8B80A070 		movl	1208480(%eax), %eax
 1993      1200
 1994              	L133:
 451:src/pdf417/PDFScanningDecoder.c **** }
 1995              		.loc 1 451 1 is_stmt 1
 1996 0e29 83C430   		addl	$48, %esp
 1997 0e2c 5B       		popl	%ebx
 1998              		.cfi_restore 3
 1999 0e2d 5E       		popl	%esi
 2000              		.cfi_restore 6
 2001 0e2e 5D       		popl	%ebp
 2002              	LCFI59:
 2003              		.cfi_restore 5
 2004              		.cfi_def_cfa 4, 4
 2005 0e2f C3       		ret
 2006              		.cfi_endproc
 2007              	LFE23:
 2008              		.globl	_Decode
 2010              	_Decode:
 2011              	LFB24:
 452:src/pdf417/PDFScanningDecoder.c **** 
 453:src/pdf417/PDFScanningDecoder.c **** #if 0
 454:src/pdf417/PDFScanningDecoder.c **** static std::vector<std::vector<BarcodeValue>> CreateBarcodeMatrix(DetectionResult& detectionResult)
 455:src/pdf417/PDFScanningDecoder.c **** {
 456:src/pdf417/PDFScanningDecoder.c **** #ifdef HK_DEBUG
 457:src/pdf417/PDFScanningDecoder.c **** 	printf("CreateBarcodeMatrix\n");
 458:src/pdf417/PDFScanningDecoder.c **** #endif
 459:src/pdf417/PDFScanningDecoder.c **** 	
 460:src/pdf417/PDFScanningDecoder.c **** 	std::vector<std::vector<BarcodeValue>> barcodeMatrix(detectionResult.barcodeRowCount());
 461:src/pdf417/PDFScanningDecoder.c **** 	for (auto& row : barcodeMatrix) {
 462:src/pdf417/PDFScanningDecoder.c **** 		row.resize(detectionResult.barcodeColumnCount() + 2);
 463:src/pdf417/PDFScanningDecoder.c **** 	}
 464:src/pdf417/PDFScanningDecoder.c **** 
 465:src/pdf417/PDFScanningDecoder.c **** 	int column = 0;
 466:src/pdf417/PDFScanningDecoder.c **** 	for (auto& resultColumn : detectionResult.allColumns()) {
 467:src/pdf417/PDFScanningDecoder.c **** 		if (resultColumn != nullptr) {
 468:src/pdf417/PDFScanningDecoder.c **** 			for (auto& codeword : resultColumn.value().allCodewords()) {
 469:src/pdf417/PDFScanningDecoder.c **** 				if (codeword != nullptr) {
 470:src/pdf417/PDFScanningDecoder.c **** 					int rowNumber = codeword.value().rowNumber();
 471:src/pdf417/PDFScanningDecoder.c **** 					if (rowNumber >= 0) {
 472:src/pdf417/PDFScanningDecoder.c **** 						if (rowNumber >= Size(barcodeMatrix)) {
 473:src/pdf417/PDFScanningDecoder.c **** 							// We have more rows than the barcode metadata allows for, ignore them.
 474:src/pdf417/PDFScanningDecoder.c **** 							continue;
 475:src/pdf417/PDFScanningDecoder.c **** 						}
 476:src/pdf417/PDFScanningDecoder.c **** 						barcodeMatrix[rowNumber][column].setValue(codeword.value().value());
 477:src/pdf417/PDFScanningDecoder.c **** 					}
 478:src/pdf417/PDFScanningDecoder.c **** 				}
 479:src/pdf417/PDFScanningDecoder.c **** 			}
 480:src/pdf417/PDFScanningDecoder.c **** 		}
 481:src/pdf417/PDFScanningDecoder.c **** 		column++;
 482:src/pdf417/PDFScanningDecoder.c **** 	}
 483:src/pdf417/PDFScanningDecoder.c **** 	return barcodeMatrix;
GAS LISTING C:\Users\jisu8\AppData\Local\Temp\ccX0Ht2c.s 			page 49


 484:src/pdf417/PDFScanningDecoder.c **** }
 485:src/pdf417/PDFScanningDecoder.c **** 
 486:src/pdf417/PDFScanningDecoder.c **** #endif
 487:src/pdf417/PDFScanningDecoder.c **** #if 0
 488:src/pdf417/PDFScanningDecoder.c **** static int GetNumberOfECCodeWords(int barcodeECLevel)
 489:src/pdf417/PDFScanningDecoder.c **** {
 490:src/pdf417/PDFScanningDecoder.c **** 	return 2 << barcodeECLevel;
 491:src/pdf417/PDFScanningDecoder.c **** }
 492:src/pdf417/PDFScanningDecoder.c **** 
 493:src/pdf417/PDFScanningDecoder.c **** #endif
 494:src/pdf417/PDFScanningDecoder.c **** #if 0
 495:src/pdf417/PDFScanningDecoder.c **** static bool AdjustCodewordCount(const DetectionResult& detectionResult, std::vector<std::vector<Bar
 496:src/pdf417/PDFScanningDecoder.c **** {
 497:src/pdf417/PDFScanningDecoder.c **** #ifdef HK_DEBUG
 498:src/pdf417/PDFScanningDecoder.c **** 	printf("AdjustCodewordCount\n");
 499:src/pdf417/PDFScanningDecoder.c **** #endif
 500:src/pdf417/PDFScanningDecoder.c **** 	
 501:src/pdf417/PDFScanningDecoder.c **** 	auto numberOfCodewords = barcodeMatrix[0][1].value();
 502:src/pdf417/PDFScanningDecoder.c **** 	int calculatedNumberOfCodewords = detectionResult.barcodeColumnCount() * detectionResult.barcodeRo
 503:src/pdf417/PDFScanningDecoder.c **** 	if (numberOfCodewords.empty()) {
 504:src/pdf417/PDFScanningDecoder.c **** 		if (calculatedNumberOfCodewords < 1 || calculatedNumberOfCodewords > CodewordDecoder::MAX_CODEWOR
 505:src/pdf417/PDFScanningDecoder.c **** 			return false;
 506:src/pdf417/PDFScanningDecoder.c **** 		}
 507:src/pdf417/PDFScanningDecoder.c **** 		barcodeMatrix[0][1].setValue(calculatedNumberOfCodewords);
 508:src/pdf417/PDFScanningDecoder.c **** 	}
 509:src/pdf417/PDFScanningDecoder.c **** 	else if (numberOfCodewords[0] != calculatedNumberOfCodewords) {
 510:src/pdf417/PDFScanningDecoder.c **** 		// The calculated one is more reliable as it is derived from the row indicator columns
 511:src/pdf417/PDFScanningDecoder.c **** 		barcodeMatrix[0][1].setValue(calculatedNumberOfCodewords);
 512:src/pdf417/PDFScanningDecoder.c **** 	}
 513:src/pdf417/PDFScanningDecoder.c **** 	return true;
 514:src/pdf417/PDFScanningDecoder.c **** }
 515:src/pdf417/PDFScanningDecoder.c **** // +++++++++++++++++++++++++++++++++++ Error Correction
 516:src/pdf417/PDFScanningDecoder.c **** 
 517:src/pdf417/PDFScanningDecoder.c **** #endif
 518:src/pdf417/PDFScanningDecoder.c **** #if 0
 519:src/pdf417/PDFScanningDecoder.c **** static const ModulusGF& GetModulusGF()
 520:src/pdf417/PDFScanningDecoder.c **** {
 521:src/pdf417/PDFScanningDecoder.c **** 	static const ModulusGF field(CodewordDecoder::NUMBER_OF_CODEWORDS, 3);
 522:src/pdf417/PDFScanningDecoder.c **** 	return field;
 523:src/pdf417/PDFScanningDecoder.c **** }
 524:src/pdf417/PDFScanningDecoder.c **** 
 525:src/pdf417/PDFScanningDecoder.c **** #endif
 526:src/pdf417/PDFScanningDecoder.c **** #if 0
 527:src/pdf417/PDFScanningDecoder.c **** static bool RunEuclideanAlgorithm(ModulusPoly a, ModulusPoly b, int R, ModulusPoly& sigma, ModulusP
 528:src/pdf417/PDFScanningDecoder.c **** {
 529:src/pdf417/PDFScanningDecoder.c **** #ifdef HK_DEBUG
 530:src/pdf417/PDFScanningDecoder.c **** 	printf("RunEuclideanAlgorithm\n");
 531:src/pdf417/PDFScanningDecoder.c **** #endif
 532:src/pdf417/PDFScanningDecoder.c **** 	
 533:src/pdf417/PDFScanningDecoder.c **** 	const ModulusGF& field = GetModulusGF();
 534:src/pdf417/PDFScanningDecoder.c **** 
 535:src/pdf417/PDFScanningDecoder.c **** 	// Assume a's degree is >= b's
 536:src/pdf417/PDFScanningDecoder.c **** 	if (a.degree() < b.degree()) 
 537:src/pdf417/PDFScanningDecoder.c **** 	{
 538:src/pdf417/PDFScanningDecoder.c **** 		swap(a, b);
 539:src/pdf417/PDFScanningDecoder.c **** 	}
 540:src/pdf417/PDFScanningDecoder.c **** 
GAS LISTING C:\Users\jisu8\AppData\Local\Temp\ccX0Ht2c.s 			page 50


 541:src/pdf417/PDFScanningDecoder.c **** 	ModulusPoly rLast = a;
 542:src/pdf417/PDFScanningDecoder.c **** 	ModulusPoly r = b;
 543:src/pdf417/PDFScanningDecoder.c **** 	ModulusPoly tLast = field.zero();
 544:src/pdf417/PDFScanningDecoder.c **** 	ModulusPoly t = field.one();
 545:src/pdf417/PDFScanningDecoder.c **** 
 546:src/pdf417/PDFScanningDecoder.c **** 	// Run Euclidean algorithm until r's degree is less than R/2
 547:src/pdf417/PDFScanningDecoder.c **** 	while (r.degree() >= R / 2) 
 548:src/pdf417/PDFScanningDecoder.c **** 	{
 549:src/pdf417/PDFScanningDecoder.c **** 		ModulusPoly rLastLast = rLast;
 550:src/pdf417/PDFScanningDecoder.c **** 		ModulusPoly tLastLast = tLast;
 551:src/pdf417/PDFScanningDecoder.c **** 		rLast = r;
 552:src/pdf417/PDFScanningDecoder.c **** 		tLast = t;
 553:src/pdf417/PDFScanningDecoder.c **** 
 554:src/pdf417/PDFScanningDecoder.c **** 		// Divide rLastLast by rLast, with quotient in q and remainder in r
 555:src/pdf417/PDFScanningDecoder.c **** 		if (rLast.isZero()) {
 556:src/pdf417/PDFScanningDecoder.c **** 			// Oops, Euclidean algorithm already terminated?
 557:src/pdf417/PDFScanningDecoder.c **** 			return false;
 558:src/pdf417/PDFScanningDecoder.c **** 		}
 559:src/pdf417/PDFScanningDecoder.c **** 		r = rLastLast;
 560:src/pdf417/PDFScanningDecoder.c **** 		ModulusPoly q = field.zero();
 561:src/pdf417/PDFScanningDecoder.c **** 		int denominatorLeadingTerm = rLast.coefficient(rLast.degree());
 562:src/pdf417/PDFScanningDecoder.c **** 		int dltInverse = field.inverse(denominatorLeadingTerm);
 563:src/pdf417/PDFScanningDecoder.c **** 		while (r.degree() >= rLast.degree() && !r.isZero()) {
 564:src/pdf417/PDFScanningDecoder.c **** 			int degreeDiff = r.degree() - rLast.degree();
 565:src/pdf417/PDFScanningDecoder.c **** 			int scale = field.multiply(r.coefficient(r.degree()), dltInverse);
 566:src/pdf417/PDFScanningDecoder.c **** 			q = q.add(field.buildMonomial(degreeDiff, scale));
 567:src/pdf417/PDFScanningDecoder.c **** 			r = r.subtract(rLast.multiplyByMonomial(degreeDiff, scale));
 568:src/pdf417/PDFScanningDecoder.c **** 		}
 569:src/pdf417/PDFScanningDecoder.c **** 
 570:src/pdf417/PDFScanningDecoder.c **** 		t = q.multiply(tLast).subtract(tLastLast).negative();
 571:src/pdf417/PDFScanningDecoder.c **** 	}
 572:src/pdf417/PDFScanningDecoder.c **** 
 573:src/pdf417/PDFScanningDecoder.c **** 	int sigmaTildeAtZero = t.coefficient(0);
 574:src/pdf417/PDFScanningDecoder.c **** 	if (sigmaTildeAtZero == 0) {
 575:src/pdf417/PDFScanningDecoder.c **** 		return false;
 576:src/pdf417/PDFScanningDecoder.c **** 	}
 577:src/pdf417/PDFScanningDecoder.c **** 
 578:src/pdf417/PDFScanningDecoder.c **** 	int inverse = field.inverse(sigmaTildeAtZero);
 579:src/pdf417/PDFScanningDecoder.c **** 	sigma = t.multiply(inverse);
 580:src/pdf417/PDFScanningDecoder.c **** 	omega = r.multiply(inverse);
 581:src/pdf417/PDFScanningDecoder.c **** 	return true;
 582:src/pdf417/PDFScanningDecoder.c **** }
 583:src/pdf417/PDFScanningDecoder.c **** 
 584:src/pdf417/PDFScanningDecoder.c **** #endif
 585:src/pdf417/PDFScanningDecoder.c **** #if 0
 586:src/pdf417/PDFScanningDecoder.c **** static bool FindErrorLocations(const ModulusPoly& errorLocator, std::vector<int>& result)
 587:src/pdf417/PDFScanningDecoder.c **** {
 588:src/pdf417/PDFScanningDecoder.c **** #ifdef HK_DEBUG
 589:src/pdf417/PDFScanningDecoder.c **** 	printf("FindErrorLocations \n");
 590:src/pdf417/PDFScanningDecoder.c **** #endif
 591:src/pdf417/PDFScanningDecoder.c **** 	
 592:src/pdf417/PDFScanningDecoder.c **** 	const ModulusGF& field = GetModulusGF();
 593:src/pdf417/PDFScanningDecoder.c **** 	// This is a direct application of Chien's search
 594:src/pdf417/PDFScanningDecoder.c **** 	int numErrors = errorLocator.degree();
 595:src/pdf417/PDFScanningDecoder.c **** 	result.resize(numErrors);
 596:src/pdf417/PDFScanningDecoder.c **** 	int e = 0;
 597:src/pdf417/PDFScanningDecoder.c **** 	for (int i = 1; i < field.size() && e < numErrors; i++) 
GAS LISTING C:\Users\jisu8\AppData\Local\Temp\ccX0Ht2c.s 			page 51


 598:src/pdf417/PDFScanningDecoder.c **** 	{
 599:src/pdf417/PDFScanningDecoder.c **** 		if (errorLocator.evaluateAt(i) == 0) {
 600:src/pdf417/PDFScanningDecoder.c **** 			result[e] = field.inverse(i);
 601:src/pdf417/PDFScanningDecoder.c **** 			e++;
 602:src/pdf417/PDFScanningDecoder.c **** 		}
 603:src/pdf417/PDFScanningDecoder.c **** 	}
 604:src/pdf417/PDFScanningDecoder.c **** 	return e == numErrors;
 605:src/pdf417/PDFScanningDecoder.c **** }
 606:src/pdf417/PDFScanningDecoder.c **** 
 607:src/pdf417/PDFScanningDecoder.c **** #endif
 608:src/pdf417/PDFScanningDecoder.c **** #if 0
 609:src/pdf417/PDFScanningDecoder.c **** static std::vector<int> FindErrorMagnitudes(const ModulusPoly& errorEvaluator, const ModulusPoly& e
 610:src/pdf417/PDFScanningDecoder.c **** {
 611:src/pdf417/PDFScanningDecoder.c **** #ifdef HK_DEBUG
 612:src/pdf417/PDFScanningDecoder.c **** 	printf("FindErrorMagnitudes \n");
 613:src/pdf417/PDFScanningDecoder.c **** #endif
 614:src/pdf417/PDFScanningDecoder.c **** 	const ModulusGF& field = GetModulusGF();
 615:src/pdf417/PDFScanningDecoder.c **** 	int errorLocatorDegree = errorLocator.degree();
 616:src/pdf417/PDFScanningDecoder.c **** 	std::vector<int> formalDerivativeCoefficients(errorLocatorDegree);
 617:src/pdf417/PDFScanningDecoder.c **** 	for (int i = 1; i <= errorLocatorDegree; i++) {
 618:src/pdf417/PDFScanningDecoder.c **** 		formalDerivativeCoefficients[errorLocatorDegree - i] = field.multiply(i, errorLocator.coefficient
 619:src/pdf417/PDFScanningDecoder.c **** 	}
 620:src/pdf417/PDFScanningDecoder.c **** 
 621:src/pdf417/PDFScanningDecoder.c **** 	ModulusPoly formalDerivative(field, formalDerivativeCoefficients);
 622:src/pdf417/PDFScanningDecoder.c **** 	// This is directly applying Forney's Formula
 623:src/pdf417/PDFScanningDecoder.c **** 	std::vector<int> result(errorLocations.size());
 624:src/pdf417/PDFScanningDecoder.c **** 	for (size_t i = 0; i < result.size(); i++) {
 625:src/pdf417/PDFScanningDecoder.c **** 		int xiInverse = field.inverse(errorLocations[i]);
 626:src/pdf417/PDFScanningDecoder.c **** 		int numerator = field.subtract(0, errorEvaluator.evaluateAt(xiInverse));
 627:src/pdf417/PDFScanningDecoder.c **** 		int denominator = field.inverse(formalDerivative.evaluateAt(xiInverse));
 628:src/pdf417/PDFScanningDecoder.c **** 		result[i] = field.multiply(numerator, denominator);
 629:src/pdf417/PDFScanningDecoder.c **** 	}
 630:src/pdf417/PDFScanningDecoder.c **** 	return result;
 631:src/pdf417/PDFScanningDecoder.c **** }
 632:src/pdf417/PDFScanningDecoder.c **** 
 633:src/pdf417/PDFScanningDecoder.c **** /**
 634:src/pdf417/PDFScanningDecoder.c **** * @param received received codewords
 635:src/pdf417/PDFScanningDecoder.c **** * @param numECCodewords number of those codewords used for EC
 636:src/pdf417/PDFScanningDecoder.c **** * @param erasures location of erasures
 637:src/pdf417/PDFScanningDecoder.c **** * @return number of errors
 638:src/pdf417/PDFScanningDecoder.c **** * @throws ChecksumException if errors cannot be corrected, maybe because of too many errors
 639:src/pdf417/PDFScanningDecoder.c **** */
 640:src/pdf417/PDFScanningDecoder.c **** ZXING_EXPORT_TEST_ONLY
 641:src/pdf417/PDFScanningDecoder.c **** bool DecodeErrorCorrection(std::vector<int>& received, int numECCodewords, const std::vector<int>& 
 642:src/pdf417/PDFScanningDecoder.c **** {
 643:src/pdf417/PDFScanningDecoder.c **** #ifdef HK_DEBUG
 644:src/pdf417/PDFScanningDecoder.c **** 	printf("DecodeErrorCorrection  numECCodewords=%d, nbErrors=%d\n", numECCodewords, nbErrors);
 645:src/pdf417/PDFScanningDecoder.c **** #endif
 646:src/pdf417/PDFScanningDecoder.c **** 	
 647:src/pdf417/PDFScanningDecoder.c **** 	const ModulusGF& field = GetModulusGF();
 648:src/pdf417/PDFScanningDecoder.c **** 	ModulusPoly poly(field, received);
 649:src/pdf417/PDFScanningDecoder.c **** 	std::vector<int> S(numECCodewords);
 650:src/pdf417/PDFScanningDecoder.c **** 	bool error = false;
 651:src/pdf417/PDFScanningDecoder.c **** 	for (int i = numECCodewords; i > 0; i--) 
 652:src/pdf417/PDFScanningDecoder.c **** 	{
 653:src/pdf417/PDFScanningDecoder.c **** 		int eval = poly.evaluateAt(field.exp(i));
 654:src/pdf417/PDFScanningDecoder.c **** 		S[numECCodewords - i] = eval;
GAS LISTING C:\Users\jisu8\AppData\Local\Temp\ccX0Ht2c.s 			page 52


 655:src/pdf417/PDFScanningDecoder.c **** 		if (eval != 0) {
 656:src/pdf417/PDFScanningDecoder.c **** 			error = true;
 657:src/pdf417/PDFScanningDecoder.c **** 		}
 658:src/pdf417/PDFScanningDecoder.c **** 	}
 659:src/pdf417/PDFScanningDecoder.c **** 
 660:src/pdf417/PDFScanningDecoder.c **** 	if (!error) 
 661:src/pdf417/PDFScanningDecoder.c **** 	{
 662:src/pdf417/PDFScanningDecoder.c **** 		nbErrors = 0;
 663:src/pdf417/PDFScanningDecoder.c **** 		return true;
 664:src/pdf417/PDFScanningDecoder.c **** 	}
 665:src/pdf417/PDFScanningDecoder.c **** 
 666:src/pdf417/PDFScanningDecoder.c **** 	ModulusPoly knownErrors = field.one();
 667:src/pdf417/PDFScanningDecoder.c **** 	for (int erasure : erasures) {
 668:src/pdf417/PDFScanningDecoder.c **** 		int b = field.exp(Size(received) - 1 - erasure);
 669:src/pdf417/PDFScanningDecoder.c **** 		// Add (1 - bx) term:
 670:src/pdf417/PDFScanningDecoder.c **** 		ModulusPoly term(field, { field.subtract(0, b), 1 });
 671:src/pdf417/PDFScanningDecoder.c **** 		knownErrors = knownErrors.multiply(term);
 672:src/pdf417/PDFScanningDecoder.c **** 	}
 673:src/pdf417/PDFScanningDecoder.c **** 
 674:src/pdf417/PDFScanningDecoder.c **** 	ModulusPoly syndrome(field, S);
 675:src/pdf417/PDFScanningDecoder.c **** 	//syndrome = syndrome.multiply(knownErrors);
 676:src/pdf417/PDFScanningDecoder.c **** 
 677:src/pdf417/PDFScanningDecoder.c **** 	ModulusPoly sigma, omega;
 678:src/pdf417/PDFScanningDecoder.c **** 	if (!RunEuclideanAlgorithm(field.buildMonomial(numECCodewords, 1), syndrome, numECCodewords, sigma
 679:src/pdf417/PDFScanningDecoder.c **** 		return false;
 680:src/pdf417/PDFScanningDecoder.c **** 	}
 681:src/pdf417/PDFScanningDecoder.c **** 
 682:src/pdf417/PDFScanningDecoder.c **** 	//sigma = sigma.multiply(knownErrors);
 683:src/pdf417/PDFScanningDecoder.c **** 
 684:src/pdf417/PDFScanningDecoder.c **** 	std::vector<int> errorLocations;
 685:src/pdf417/PDFScanningDecoder.c **** 	if (!FindErrorLocations(sigma, errorLocations)) {
 686:src/pdf417/PDFScanningDecoder.c **** 		return false;
 687:src/pdf417/PDFScanningDecoder.c **** 	}
 688:src/pdf417/PDFScanningDecoder.c **** 
 689:src/pdf417/PDFScanningDecoder.c **** 	std::vector<int> errorMagnitudes = FindErrorMagnitudes(omega, sigma, errorLocations);
 690:src/pdf417/PDFScanningDecoder.c **** 
 691:src/pdf417/PDFScanningDecoder.c **** 	int receivedSize = Size(received);
 692:src/pdf417/PDFScanningDecoder.c **** 	for (size_t i = 0; i < errorLocations.size(); i++) {
 693:src/pdf417/PDFScanningDecoder.c **** 		int position = receivedSize - 1 - field.log(errorLocations[i]);
 694:src/pdf417/PDFScanningDecoder.c **** 		if (position < 0) {
 695:src/pdf417/PDFScanningDecoder.c **** 			return false;
 696:src/pdf417/PDFScanningDecoder.c **** 		}
 697:src/pdf417/PDFScanningDecoder.c **** 		received[position] = field.subtract(received[position], errorMagnitudes[i]);
 698:src/pdf417/PDFScanningDecoder.c **** 	}
 699:src/pdf417/PDFScanningDecoder.c **** 	nbErrors = Size(errorLocations);
 700:src/pdf417/PDFScanningDecoder.c **** 	return true;
 701:src/pdf417/PDFScanningDecoder.c **** }
 702:src/pdf417/PDFScanningDecoder.c **** 
 703:src/pdf417/PDFScanningDecoder.c **** #endif
 704:src/pdf417/PDFScanningDecoder.c **** #if 0
 705:src/pdf417/PDFScanningDecoder.c **** // --------------------------------------- Error Correction
 706:src/pdf417/PDFScanningDecoder.c **** 
 707:src/pdf417/PDFScanningDecoder.c **** /**
 708:src/pdf417/PDFScanningDecoder.c **** * <p>Given data and error-correction codewords received, possibly corrupted by errors, attempts to
 709:src/pdf417/PDFScanningDecoder.c **** * correct the errors in-place.</p>
 710:src/pdf417/PDFScanningDecoder.c **** *
 711:src/pdf417/PDFScanningDecoder.c **** * @param codewords   data and error correction codewords
GAS LISTING C:\Users\jisu8\AppData\Local\Temp\ccX0Ht2c.s 			page 53


 712:src/pdf417/PDFScanningDecoder.c **** * @param erasures positions of any known erasures
 713:src/pdf417/PDFScanningDecoder.c **** * @param numECCodewords number of error correction codewords that are available in codewords
 714:src/pdf417/PDFScanningDecoder.c **** * @throws ChecksumException if error correction fails
 715:src/pdf417/PDFScanningDecoder.c **** */
 716:src/pdf417/PDFScanningDecoder.c **** static bool CorrectErrors(std::vector<int>& codewords, const std::vector<int>& erasures, int numECC
 717:src/pdf417/PDFScanningDecoder.c **** {
 718:src/pdf417/PDFScanningDecoder.c **** #ifdef HK_DEBUG
 719:src/pdf417/PDFScanningDecoder.c **** 	printf("CorrectErrors  numECCodewords=%d, errorCount=%d\n", numECCodewords, errorCount);
 720:src/pdf417/PDFScanningDecoder.c **** #endif
 721:src/pdf417/PDFScanningDecoder.c **** 	
 722:src/pdf417/PDFScanningDecoder.c **** 	if (Size(erasures) > numECCodewords / 2 + MAX_ERRORS ||
 723:src/pdf417/PDFScanningDecoder.c **** 		numECCodewords < 0 ||
 724:src/pdf417/PDFScanningDecoder.c **** 		numECCodewords > MAX_EC_CODEWORDS) {
 725:src/pdf417/PDFScanningDecoder.c **** 		// Too many errors or EC Codewords is corrupted
 726:src/pdf417/PDFScanningDecoder.c **** 		return false;
 727:src/pdf417/PDFScanningDecoder.c **** 	}
 728:src/pdf417/PDFScanningDecoder.c **** 	return DecodeErrorCorrection(codewords, numECCodewords, erasures, errorCount);
 729:src/pdf417/PDFScanningDecoder.c **** }
 730:src/pdf417/PDFScanningDecoder.c **** 
 731:src/pdf417/PDFScanningDecoder.c **** #endif
 732:src/pdf417/PDFScanningDecoder.c **** #if 0
 733:src/pdf417/PDFScanningDecoder.c **** /**
 734:src/pdf417/PDFScanningDecoder.c **** * Verify that all is OK with the codeword array.
 735:src/pdf417/PDFScanningDecoder.c **** */
 736:src/pdf417/PDFScanningDecoder.c **** static bool VerifyCodewordCount(std::vector<int>& codewords, int numECCodewords)
 737:src/pdf417/PDFScanningDecoder.c **** {
 738:src/pdf417/PDFScanningDecoder.c **** 	if (codewords.size() < 4) 
 739:src/pdf417/PDFScanningDecoder.c **** 	{
 740:src/pdf417/PDFScanningDecoder.c **** 		// Codeword array size should be at least 4 allowing for
 741:src/pdf417/PDFScanningDecoder.c **** 		// Count CW, At least one Data CW, Error Correction CW, Error Correction CW
 742:src/pdf417/PDFScanningDecoder.c **** 		return false;
 743:src/pdf417/PDFScanningDecoder.c **** 	}
 744:src/pdf417/PDFScanningDecoder.c **** 	// The first codeword, the Symbol Length Descriptor, shall always encode the total number of data
 745:src/pdf417/PDFScanningDecoder.c **** 	// codewords in the symbol, including the Symbol Length Descriptor itself, data codewords and pad
 746:src/pdf417/PDFScanningDecoder.c **** 	// codewords, but excluding the number of error correction codewords.
 747:src/pdf417/PDFScanningDecoder.c **** 	int numberOfCodewords = codewords[0];
 748:src/pdf417/PDFScanningDecoder.c **** 
 749:src/pdf417/PDFScanningDecoder.c **** 	if (numberOfCodewords > Size(codewords)) 
 750:src/pdf417/PDFScanningDecoder.c **** 	{
 751:src/pdf417/PDFScanningDecoder.c **** 		return false;
 752:src/pdf417/PDFScanningDecoder.c **** 	}
 753:src/pdf417/PDFScanningDecoder.c **** 
 754:src/pdf417/PDFScanningDecoder.c **** 	if (numberOfCodewords == 0) 
 755:src/pdf417/PDFScanningDecoder.c **** 	{
 756:src/pdf417/PDFScanningDecoder.c **** 		// Reset to the length of the array - 8 (Allow for at least level 3 Error Correction (8 Error Cod
 757:src/pdf417/PDFScanningDecoder.c **** 		if (numECCodewords < Size(codewords)) 
 758:src/pdf417/PDFScanningDecoder.c **** 		{
 759:src/pdf417/PDFScanningDecoder.c **** 			codewords[0] = Size(codewords) - numECCodewords;
 760:src/pdf417/PDFScanningDecoder.c **** 		}
 761:src/pdf417/PDFScanningDecoder.c **** 		else 
 762:src/pdf417/PDFScanningDecoder.c **** 		{
 763:src/pdf417/PDFScanningDecoder.c **** 			return false;
 764:src/pdf417/PDFScanningDecoder.c **** 		}
 765:src/pdf417/PDFScanningDecoder.c **** 	}
 766:src/pdf417/PDFScanningDecoder.c **** 	return true;
 767:src/pdf417/PDFScanningDecoder.c **** }
 768:src/pdf417/PDFScanningDecoder.c **** 
GAS LISTING C:\Users\jisu8\AppData\Local\Temp\ccX0Ht2c.s 			page 54


 769:src/pdf417/PDFScanningDecoder.c **** #endif
 770:src/pdf417/PDFScanningDecoder.c **** #if 0
 771:src/pdf417/PDFScanningDecoder.c **** DecoderResult DecodeCodewords(std::vector<int>& codewords, int ecLevel, const std::vector<int>& era
 772:src/pdf417/PDFScanningDecoder.c **** 							  const std::string& characterSet)
 773:src/pdf417/PDFScanningDecoder.c **** {
 774:src/pdf417/PDFScanningDecoder.c **** 	if (codewords.empty()) 
 775:src/pdf417/PDFScanningDecoder.c **** 	{
 776:src/pdf417/PDFScanningDecoder.c **** 		return DecodeStatus::FormatError;
 777:src/pdf417/PDFScanningDecoder.c **** 	}
 778:src/pdf417/PDFScanningDecoder.c **** 
 779:src/pdf417/PDFScanningDecoder.c **** 	int numECCodewords = 1 << (ecLevel + 1);
 780:src/pdf417/PDFScanningDecoder.c **** 	int correctedErrorsCount = 0;
 781:src/pdf417/PDFScanningDecoder.c **** 	if (!CorrectErrors(codewords, erasures, numECCodewords, correctedErrorsCount))
 782:src/pdf417/PDFScanningDecoder.c **** 		return DecodeStatus::ChecksumError;
 783:src/pdf417/PDFScanningDecoder.c **** 
 784:src/pdf417/PDFScanningDecoder.c **** 	if (!VerifyCodewordCount(codewords, numECCodewords))
 785:src/pdf417/PDFScanningDecoder.c **** 		return DecodeStatus::FormatError;
 786:src/pdf417/PDFScanningDecoder.c **** 
 787:src/pdf417/PDFScanningDecoder.c **** 	// Decode the codewords
 788:src/pdf417/PDFScanningDecoder.c **** 	auto result = DecodedBitStreamParser::Decode(codewords, ecLevel, characterSet);
 789:src/pdf417/PDFScanningDecoder.c **** 	if (result.isValid()) 
 790:src/pdf417/PDFScanningDecoder.c **** 	{
 791:src/pdf417/PDFScanningDecoder.c **** 		result.setErrorsCorrected(correctedErrorsCount);
 792:src/pdf417/PDFScanningDecoder.c **** 		result.setErasures(Size(erasures));
 793:src/pdf417/PDFScanningDecoder.c **** 	}
 794:src/pdf417/PDFScanningDecoder.c **** 
 795:src/pdf417/PDFScanningDecoder.c **** 	return result;
 796:src/pdf417/PDFScanningDecoder.c **** }
 797:src/pdf417/PDFScanningDecoder.c **** 
 798:src/pdf417/PDFScanningDecoder.c **** 
 799:src/pdf417/PDFScanningDecoder.c **** #endif
 800:src/pdf417/PDFScanningDecoder.c **** #if 0
 801:src/pdf417/PDFScanningDecoder.c **** /**
 802:src/pdf417/PDFScanningDecoder.c **** * This method deals with the fact, that the decoding process doesn't always yield a single most lik
 803:src/pdf417/PDFScanningDecoder.c **** * current error correction implementation doesn't deal with erasures very well, so it's better to p
 804:src/pdf417/PDFScanningDecoder.c **** * for these ambiguous codewords instead of treating it as an erasure. The problem is that we don't 
 805:src/pdf417/PDFScanningDecoder.c **** * the ambiguous values to choose. We try decode using the first value, and if that fails, we use an
 806:src/pdf417/PDFScanningDecoder.c **** * ambiguous values and try to decode again. This usually only happens on very hard to read and deco
 807:src/pdf417/PDFScanningDecoder.c **** * so decoding the normal barcodes is not affected by this.
 808:src/pdf417/PDFScanningDecoder.c **** *
 809:src/pdf417/PDFScanningDecoder.c **** * @param erasureArray contains the indexes of erasures
 810:src/pdf417/PDFScanningDecoder.c **** * @param ambiguousIndexes array with the indexes that have more than one most likely value
 811:src/pdf417/PDFScanningDecoder.c **** * @param ambiguousIndexValues two dimensional array that contains the ambiguous values. The first d
 812:src/pdf417/PDFScanningDecoder.c **** * be the same length as the ambiguousIndexes array
 813:src/pdf417/PDFScanningDecoder.c **** */
 814:src/pdf417/PDFScanningDecoder.c **** static DecoderResult CreateDecoderResultFromAmbiguousValues(int ecLevel, std::vector<int>& codeword
 815:src/pdf417/PDFScanningDecoder.c **** 	const std::vector<int>& erasureArray, const std::vector<int>& ambiguousIndexes,
 816:src/pdf417/PDFScanningDecoder.c **** 	const std::vector<std::vector<int>>& ambiguousIndexValues, const std::string& characterSet)
 817:src/pdf417/PDFScanningDecoder.c **** {
 818:src/pdf417/PDFScanningDecoder.c **** 	std::vector<int> ambiguousIndexCount(ambiguousIndexes.size(), 0);
 819:src/pdf417/PDFScanningDecoder.c **** 
 820:src/pdf417/PDFScanningDecoder.c **** 	int tries = 100;
 821:src/pdf417/PDFScanningDecoder.c **** 	while (tries-- > 0) {
 822:src/pdf417/PDFScanningDecoder.c **** 		for (size_t i = 0; i < ambiguousIndexCount.size(); i++) {
 823:src/pdf417/PDFScanningDecoder.c **** 			codewords[ambiguousIndexes[i]] = ambiguousIndexValues[i][ambiguousIndexCount[i]];
 824:src/pdf417/PDFScanningDecoder.c **** 		}
 825:src/pdf417/PDFScanningDecoder.c **** 		auto result = DecodeCodewords(codewords, ecLevel, erasureArray, characterSet);
GAS LISTING C:\Users\jisu8\AppData\Local\Temp\ccX0Ht2c.s 			page 55


 826:src/pdf417/PDFScanningDecoder.c **** 		if (result.errorCode() != DecodeStatus::ChecksumError) {
 827:src/pdf417/PDFScanningDecoder.c **** 			return result;
 828:src/pdf417/PDFScanningDecoder.c **** 		}
 829:src/pdf417/PDFScanningDecoder.c **** 
 830:src/pdf417/PDFScanningDecoder.c **** 		if (ambiguousIndexCount.empty()) {
 831:src/pdf417/PDFScanningDecoder.c **** 			return DecodeStatus::ChecksumError;
 832:src/pdf417/PDFScanningDecoder.c **** 		}
 833:src/pdf417/PDFScanningDecoder.c **** 		for (size_t i = 0; i < ambiguousIndexCount.size(); i++) {
 834:src/pdf417/PDFScanningDecoder.c **** 			if (ambiguousIndexCount[i] < Size(ambiguousIndexValues[i]) - 1) {
 835:src/pdf417/PDFScanningDecoder.c **** 				ambiguousIndexCount[i]++;
 836:src/pdf417/PDFScanningDecoder.c **** 				break;
 837:src/pdf417/PDFScanningDecoder.c **** 			}
 838:src/pdf417/PDFScanningDecoder.c **** 			else {
 839:src/pdf417/PDFScanningDecoder.c **** 				ambiguousIndexCount[i] = 0;
 840:src/pdf417/PDFScanningDecoder.c **** 				if (i == ambiguousIndexCount.size() - 1) {
 841:src/pdf417/PDFScanningDecoder.c **** 					return DecodeStatus::ChecksumError;
 842:src/pdf417/PDFScanningDecoder.c **** 				}
 843:src/pdf417/PDFScanningDecoder.c **** 			}
 844:src/pdf417/PDFScanningDecoder.c **** 		}
 845:src/pdf417/PDFScanningDecoder.c **** 	}
 846:src/pdf417/PDFScanningDecoder.c **** 	return DecodeStatus::ChecksumError;
 847:src/pdf417/PDFScanningDecoder.c **** }
 848:src/pdf417/PDFScanningDecoder.c **** 
 849:src/pdf417/PDFScanningDecoder.c **** 
 850:src/pdf417/PDFScanningDecoder.c **** #endif
 851:src/pdf417/PDFScanningDecoder.c **** #if 0
 852:src/pdf417/PDFScanningDecoder.c **** static DecoderResult CreateDecoderResult(DetectionResult& detectionResult, const std::string& chara
 853:src/pdf417/PDFScanningDecoder.c **** {
 854:src/pdf417/PDFScanningDecoder.c **** 	auto barcodeMatrix = CreateBarcodeMatrix(detectionResult);
 855:src/pdf417/PDFScanningDecoder.c **** 	if (!AdjustCodewordCount(detectionResult, barcodeMatrix)) {
 856:src/pdf417/PDFScanningDecoder.c **** 		return DecodeStatus::NotFound;
 857:src/pdf417/PDFScanningDecoder.c **** 	}
 858:src/pdf417/PDFScanningDecoder.c **** 	std::vector<int> erasures;
 859:src/pdf417/PDFScanningDecoder.c **** 	std::vector<int> codewords(detectionResult.barcodeRowCount() * detectionResult.barcodeColumnCount(
 860:src/pdf417/PDFScanningDecoder.c **** 	std::vector<std::vector<int>> ambiguousIndexValues;
 861:src/pdf417/PDFScanningDecoder.c **** 	std::vector<int> ambiguousIndexesList;
 862:src/pdf417/PDFScanningDecoder.c **** 	for (int row = 0; row < detectionResult.barcodeRowCount(); row++) {
 863:src/pdf417/PDFScanningDecoder.c **** 		for (int column = 0; column < detectionResult.barcodeColumnCount(); column++) {
 864:src/pdf417/PDFScanningDecoder.c **** 			auto values = barcodeMatrix[row][column + 1].value();
 865:src/pdf417/PDFScanningDecoder.c **** 			int codewordIndex = row * detectionResult.barcodeColumnCount() + column;
 866:src/pdf417/PDFScanningDecoder.c **** 			if (values.empty()) {
 867:src/pdf417/PDFScanningDecoder.c **** 				erasures.push_back(codewordIndex);
 868:src/pdf417/PDFScanningDecoder.c **** 			}
 869:src/pdf417/PDFScanningDecoder.c **** 			else if (values.size() == 1) {
 870:src/pdf417/PDFScanningDecoder.c **** 				codewords[codewordIndex] = values[0];
 871:src/pdf417/PDFScanningDecoder.c **** 			}
 872:src/pdf417/PDFScanningDecoder.c **** 			else {
 873:src/pdf417/PDFScanningDecoder.c **** 				ambiguousIndexesList.push_back(codewordIndex);
 874:src/pdf417/PDFScanningDecoder.c **** 				ambiguousIndexValues.push_back(values);
 875:src/pdf417/PDFScanningDecoder.c **** 			}
 876:src/pdf417/PDFScanningDecoder.c **** 		}
 877:src/pdf417/PDFScanningDecoder.c **** 	}
 878:src/pdf417/PDFScanningDecoder.c **** 	return CreateDecoderResultFromAmbiguousValues(detectionResult.barcodeECLevel(), codewords, erasure
 879:src/pdf417/PDFScanningDecoder.c **** 												  ambiguousIndexesList, ambiguousIndexValues, characterSet);
 880:src/pdf417/PDFScanningDecoder.c **** }
 881:src/pdf417/PDFScanningDecoder.c **** #endif
 882:src/pdf417/PDFScanningDecoder.c **** 
GAS LISTING C:\Users\jisu8\AppData\Local\Temp\ccX0Ht2c.s 			page 56


 883:src/pdf417/PDFScanningDecoder.c **** // TODO don't pass in minCodewordWidth and maxCodewordWidth, pass in barcode columns for start and 
 884:src/pdf417/PDFScanningDecoder.c **** // columns. That way width can be deducted from the pattern column.
 885:src/pdf417/PDFScanningDecoder.c **** // This approach also allows to detect more details about the barcode, e.g. if a bar type (white or
 886:src/pdf417/PDFScanningDecoder.c **** // than it should be. This can happen if the scanner used a bad blackpoint.
 887:src/pdf417/PDFScanningDecoder.c **** DecoderResult_t * Decode(const BitMatrix_t * image, ResultPoint_t imageTopLeft, ResultPoint_t image
 888:src/pdf417/PDFScanningDecoder.c **** 	ResultPoint_t imageTopRight, ResultPoint_t imageBottomRight,
 889:src/pdf417/PDFScanningDecoder.c **** 	int minCodewordWidth, int maxCodewordWidth, const unsigned char * characterSet)
 890:src/pdf417/PDFScanningDecoder.c **** {
 2012              		.loc 1 890 1
 2013              		.cfi_startproc
 2014 0e30 55       		pushl	%ebp
 2015              	LCFI60:
 2016              		.cfi_def_cfa_offset 8
 2017              		.cfi_offset 5, -8
 2018 0e31 89E5     		movl	%esp, %ebp
 2019              	LCFI61:
 2020              		.cfi_def_cfa_register 5
 2021 0e33 57       		pushl	%edi
 2022 0e34 56       		pushl	%esi
 2023 0e35 53       		pushl	%ebx
 2024 0e36 B8DCCF12 		movl	$1232860, %eax
 2024      00
 2025 0e3b E8000000 		call	___chkstk_ms
 2025      00
 2026 0e40 29C4     		subl	%eax, %esp
 2027              		.cfi_offset 7, -12
 2028              		.cfi_offset 6, -16
 2029              		.cfi_offset 3, -20
 891:src/pdf417/PDFScanningDecoder.c **** 	BoundingBox_t boundingBox;
 892:src/pdf417/PDFScanningDecoder.c **** 	if (!Create(image->_width, image->_height, imageTopLeft, imageBottomLeft, imageTopRight, imageBott
 2030              		.loc 1 892 7
 2031 0e42 8B4508   		movl	8(%ebp), %eax
 2032 0e45 8B5004   		movl	4(%eax), %edx
 2033 0e48 8B4508   		movl	8(%ebp), %eax
 2034 0e4b 8B00     		movl	(%eax), %eax
 2035 0e4d 8D8D70FF 		leal	-144(%ebp), %ecx
 2035      FFFF
 2036 0e53 894C2438 		movl	%ecx, 56(%esp)
 2037 0e57 8B4D30   		movl	48(%ebp), %ecx
 2038 0e5a 894C242C 		movl	%ecx, 44(%esp)
 2039 0e5e 8B4D34   		movl	52(%ebp), %ecx
 2040 0e61 894C2430 		movl	%ecx, 48(%esp)
 2041 0e65 8B4D38   		movl	56(%ebp), %ecx
 2042 0e68 894C2434 		movl	%ecx, 52(%esp)
 2043 0e6c 8B4D24   		movl	36(%ebp), %ecx
 2044 0e6f 894C2420 		movl	%ecx, 32(%esp)
 2045 0e73 8B4D28   		movl	40(%ebp), %ecx
 2046 0e76 894C2424 		movl	%ecx, 36(%esp)
 2047 0e7a 8B4D2C   		movl	44(%ebp), %ecx
 2048 0e7d 894C2428 		movl	%ecx, 40(%esp)
 2049 0e81 8B4D18   		movl	24(%ebp), %ecx
 2050 0e84 894C2414 		movl	%ecx, 20(%esp)
 2051 0e88 8B4D1C   		movl	28(%ebp), %ecx
 2052 0e8b 894C2418 		movl	%ecx, 24(%esp)
 2053 0e8f 8B4D20   		movl	32(%ebp), %ecx
 2054 0e92 894C241C 		movl	%ecx, 28(%esp)
 2055 0e96 8B4D0C   		movl	12(%ebp), %ecx
GAS LISTING C:\Users\jisu8\AppData\Local\Temp\ccX0Ht2c.s 			page 57


 2056 0e99 894C2408 		movl	%ecx, 8(%esp)
 2057 0e9d 8B4D10   		movl	16(%ebp), %ecx
 2058 0ea0 894C240C 		movl	%ecx, 12(%esp)
 2059 0ea4 8B4D14   		movl	20(%ebp), %ecx
 2060 0ea7 894C2410 		movl	%ecx, 16(%esp)
 2061 0eab 89542404 		movl	%edx, 4(%esp)
 2062 0eaf 890424   		movl	%eax, (%esp)
 2063 0eb2 E8000000 		call	_Create
 2063      00
 2064              		.loc 1 892 5
 2065 0eb7 84C0     		testb	%al, %al
 2066 0eb9 750A     		jne	L143
 893:src/pdf417/PDFScanningDecoder.c **** 	{
 894:src/pdf417/PDFScanningDecoder.c **** 		return NotFound;
 2067              		.loc 1 894 10
 2068 0ebb B8010000 		movl	$1, %eax
 2068      00
 2069 0ec0 E9AE0300 		jmp	L142
 2069      00
 2070              	L143:
 895:src/pdf417/PDFScanningDecoder.c **** 	}
 896:src/pdf417/PDFScanningDecoder.c **** 	int length = 0;
 2071              		.loc 1 896 6
 2072 0ec5 C745E400 		movl	$0, -28(%ebp)
 2072      000000
 2073              	LBB16:
 897:src/pdf417/PDFScanningDecoder.c **** 
 898:src/pdf417/PDFScanningDecoder.c **** 	DetectionResultColumn_t leftRowIndicatorColumn;
 899:src/pdf417/PDFScanningDecoder.c **** 	DetectionResultColumn_t rightRowIndicatorColumn;
 900:src/pdf417/PDFScanningDecoder.c **** 	DetectionResult_t detectionResult;
 901:src/pdf417/PDFScanningDecoder.c **** 	for (int i = 0; i < 2; i++) 
 2074              		.loc 1 901 11
 2075 0ecc C745E000 		movl	$0, -32(%ebp)
 2075      000000
 2076              		.loc 1 901 2
 2077 0ed3 E9260100 		jmp	L145
 2077      00
 2078              	L152:
 902:src/pdf417/PDFScanningDecoder.c **** 	{
 903:src/pdf417/PDFScanningDecoder.c **** 		if (imageTopLeft.m_hasValue != 0) 
 2079              		.loc 1 903 19
 2080 0ed8 0FB6450C 		movzbl	12(%ebp), %eax
 2081              		.loc 1 903 6
 2082 0edc 84C0     		testb	%al, %al
 2083 0ede 743F     		je	L146
 904:src/pdf417/PDFScanningDecoder.c **** 		{
 905:src/pdf417/PDFScanningDecoder.c **** 			length = GetRowIndicatorColumn(image, &boundingBox, &imageTopLeft, 1, minCodewordWidth, maxCodew
 2084              		.loc 1 905 13
 2085 0ee0 8D853CD0 		leal	-12228(%ebp), %eax
 2085      FFFF
 2086 0ee6 89442418 		movl	%eax, 24(%esp)
 2087 0eea 8B4540   		movl	64(%ebp), %eax
 2088 0eed 89442414 		movl	%eax, 20(%esp)
 2089 0ef1 8B453C   		movl	60(%ebp), %eax
 2090 0ef4 89442410 		movl	%eax, 16(%esp)
 2091 0ef8 C744240C 		movl	$1, 12(%esp)
 2091      01000000 
GAS LISTING C:\Users\jisu8\AppData\Local\Temp\ccX0Ht2c.s 			page 58


 2092 0f00 8D450C   		leal	12(%ebp), %eax
 2093 0f03 89442408 		movl	%eax, 8(%esp)
 2094 0f07 8D8570FF 		leal	-144(%ebp), %eax
 2094      FFFF
 2095 0f0d 89442404 		movl	%eax, 4(%esp)
 2096 0f11 8B4508   		movl	8(%ebp), %eax
 2097 0f14 890424   		movl	%eax, (%esp)
 2098 0f17 E855F7FF 		call	_GetRowIndicatorColumn
 2098      FF
 2099 0f1c 8945E4   		movl	%eax, -28(%ebp)
 2100              	L146:
 906:src/pdf417/PDFScanningDecoder.c **** 		}
 907:src/pdf417/PDFScanningDecoder.c **** 		if (imageTopRight.m_hasValue != 0) 
 2101              		.loc 1 907 20
 2102 0f1f 0FB64524 		movzbl	36(%ebp), %eax
 2103              		.loc 1 907 6
 2104 0f23 84C0     		testb	%al, %al
 2105 0f25 743F     		je	L147
 908:src/pdf417/PDFScanningDecoder.c **** 		{
 909:src/pdf417/PDFScanningDecoder.c **** 			length = GetRowIndicatorColumn(image, &boundingBox, &imageTopRight, 0, minCodewordWidth, maxCode
 2106              		.loc 1 909 13
 2107 0f27 8D8508A1 		leal	-24312(%ebp), %eax
 2107      FFFF
 2108 0f2d 89442418 		movl	%eax, 24(%esp)
 2109 0f31 8B4540   		movl	64(%ebp), %eax
 2110 0f34 89442414 		movl	%eax, 20(%esp)
 2111 0f38 8B453C   		movl	60(%ebp), %eax
 2112 0f3b 89442410 		movl	%eax, 16(%esp)
 2113 0f3f C744240C 		movl	$0, 12(%esp)
 2113      00000000 
 2114 0f47 8D4524   		leal	36(%ebp), %eax
 2115 0f4a 89442408 		movl	%eax, 8(%esp)
 2116 0f4e 8D8570FF 		leal	-144(%ebp), %eax
 2116      FFFF
 2117 0f54 89442404 		movl	%eax, 4(%esp)
 2118 0f58 8B4508   		movl	8(%ebp), %eax
 2119 0f5b 890424   		movl	%eax, (%esp)
 2120 0f5e E80EF7FF 		call	_GetRowIndicatorColumn
 2120      FF
 2121 0f63 8945E4   		movl	%eax, -28(%ebp)
 2122              	L147:
 910:src/pdf417/PDFScanningDecoder.c **** 		}
 911:src/pdf417/PDFScanningDecoder.c **** 		if (!Merge(&leftRowIndicatorColumn, &rightRowIndicatorColumn, &detectionResult,length)) 
 2123              		.loc 1 911 8
 2124 0f66 8B45E4   		movl	-28(%ebp), %eax
 2125 0f69 8944240C 		movl	%eax, 12(%esp)
 2126 0f6d 8D855C30 		leal	-1232804(%ebp), %eax
 2126      EDFF
 2127 0f73 89442408 		movl	%eax, 8(%esp)
 2128 0f77 8D8508A1 		leal	-24312(%ebp), %eax
 2128      FFFF
 2129 0f7d 89442404 		movl	%eax, 4(%esp)
 2130 0f81 8D853CD0 		leal	-12228(%ebp), %eax
 2130      FFFF
 2131 0f87 890424   		movl	%eax, (%esp)
 2132 0f8a E862FCFF 		call	_Merge
 2132      FF
GAS LISTING C:\Users\jisu8\AppData\Local\Temp\ccX0Ht2c.s 			page 59


 2133              		.loc 1 911 6
 2134 0f8f 84C0     		testb	%al, %al
 2135 0f91 750A     		jne	L148
 912:src/pdf417/PDFScanningDecoder.c **** 		{
 913:src/pdf417/PDFScanningDecoder.c **** 			return NotFound;
 2136              		.loc 1 913 11
 2137 0f93 B8010000 		movl	$1, %eax
 2137      00
 2138 0f98 E9D60200 		jmp	L142
 2138      00
 2139              	L148:
 914:src/pdf417/PDFScanningDecoder.c **** 		}
 915:src/pdf417/PDFScanningDecoder.c **** 		if (i == 0 && (detectionResult._boundingBox.m_hasValue != 0) && (detectionResult._boundingBox.m_v
 2140              		.loc 1 915 6
 2141 0f9d 837DE000 		cmpl	$0, -32(%ebp)
 2142 0fa1 7542     		jne	L149
 2143              		.loc 1 915 46 discriminator 1
 2144 0fa3 0FB685BC 		movzbl	-24388(%ebp), %eax
 2144      A0FFFF
 2145              		.loc 1 915 14 discriminator 1
 2146 0faa 84C0     		testb	%al, %al
 2147 0fac 7437     		je	L149
 2148              		.loc 1 915 104 discriminator 2
 2149 0fae 8B9500A1 		movl	-24320(%ebp), %edx
 2149      FFFF
 2150              		.loc 1 915 132 discriminator 2
 2151 0fb4 8B45B4   		movl	-76(%ebp), %eax
 2152              		.loc 1 915 64 discriminator 2
 2153 0fb7 39C2     		cmpl	%eax, %edx
 2154 0fb9 7C0D     		jl	L150
 2155              		.loc 1 915 178 discriminator 3
 2156 0fbb 8B9504A1 		movl	-24316(%ebp), %edx
 2156      FFFF
 2157              		.loc 1 915 206 discriminator 3
 2158 0fc1 8B45B8   		movl	-72(%ebp), %eax
 2159              		.loc 1 915 139 discriminator 3
 2160 0fc4 39C2     		cmpl	%eax, %edx
 2161 0fc6 7E1D     		jle	L149
 2162              	L150:
 916:src/pdf417/PDFScanningDecoder.c **** 		{
 917:src/pdf417/PDFScanningDecoder.c **** 			boundingBox = detectionResult._boundingBox;
 2163              		.loc 1 917 16
 2164 0fc8 8D8570FF 		leal	-144(%ebp), %eax
 2164      FFFF
 2165 0fce 8D95BCA0 		leal	-24388(%ebp), %edx
 2165      FFFF
 2166 0fd4 B9130000 		movl	$19, %ecx
 2166      00
 2167 0fd9 89C7     		movl	%eax, %edi
 2168 0fdb 89D6     		movl	%edx, %esi
 2169 0fdd F3A5     		rep movsl
 901:src/pdf417/PDFScanningDecoder.c **** 	{
 2170              		.loc 1 901 26
 2171 0fdf 8345E001 		addl	$1, -32(%ebp)
 2172 0fe3 EB19     		jmp	L145
 2173              	L149:
 918:src/pdf417/PDFScanningDecoder.c **** 		}
GAS LISTING C:\Users\jisu8\AppData\Local\Temp\ccX0Ht2c.s 			page 60


 919:src/pdf417/PDFScanningDecoder.c **** 		else 
 920:src/pdf417/PDFScanningDecoder.c **** 		{
 921:src/pdf417/PDFScanningDecoder.c **** 			detectionResult._boundingBox = boundingBox;
 2174              		.loc 1 921 33
 2175 0fe5 8D85BCA0 		leal	-24388(%ebp), %eax
 2175      FFFF
 2176 0feb 8D9570FF 		leal	-144(%ebp), %edx
 2176      FFFF
 2177 0ff1 B9130000 		movl	$19, %ecx
 2177      00
 2178 0ff6 89C7     		movl	%eax, %edi
 2179 0ff8 89D6     		movl	%edx, %esi
 2180 0ffa F3A5     		rep movsl
 922:src/pdf417/PDFScanningDecoder.c **** 			break;
 2181              		.loc 1 922 4
 2182 0ffc EB0A     		jmp	L151
 2183              	L145:
 901:src/pdf417/PDFScanningDecoder.c **** 	{
 2184              		.loc 1 901 2 discriminator 1
 2185 0ffe 837DE001 		cmpl	$1, -32(%ebp)
 2186 1002 0F8ED0FE 		jle	L152
 2186      FFFF
 2187              	L151:
 2188              	LBE16:
 923:src/pdf417/PDFScanningDecoder.c **** 		}
 924:src/pdf417/PDFScanningDecoder.c **** 	}
 925:src/pdf417/PDFScanningDecoder.c **** 
 926:src/pdf417/PDFScanningDecoder.c **** 	int maxBarcodeColumn = detectionResult._barcodeMetadata._columnCount + 1;
 2189              		.loc 1 926 57
 2190 1008 8B855C30 		movl	-1232804(%ebp), %eax
 2190      EDFF
 2191              		.loc 1 926 6
 2192 100e 83C001   		addl	$1, %eax
 2193 1011 8945C8   		movl	%eax, -56(%ebp)
 927:src/pdf417/PDFScanningDecoder.c **** 	detectionResult._detectionResultColumns[0] = leftRowIndicatorColumn;
 2194              		.loc 1 927 45
 2195 1014 8D856C30 		leal	-1232788(%ebp), %eax
 2195      EDFF
 2196 101a 8D953CD0 		leal	-12228(%ebp), %edx
 2196      FFFF
 2197 1020 B9342F00 		movl	$12084, %ecx
 2197      00
 2198 1025 894C2408 		movl	%ecx, 8(%esp)
 2199 1029 89542404 		movl	%edx, 4(%esp)
 2200 102d 890424   		movl	%eax, (%esp)
 2201 1030 E8000000 		call	_memcpy
 2201      00
 928:src/pdf417/PDFScanningDecoder.c **** 	detectionResult._detectionResultColumns[maxBarcodeColumn] = rightRowIndicatorColumn;
 2202              		.loc 1 928 60
 2203 1035 8B45C8   		movl	-56(%ebp), %eax
 2204 1038 69C0342F 		imull	$12084, %eax, %eax
 2204      0000
 2205 103e 8D75E8   		leal	-24(%ebp), %esi
 2206 1041 01F0     		addl	%esi, %eax
 2207 1043 2D7CCF12 		subl	$1232764, %eax
 2207      00
 2208 1048 89C2     		movl	%eax, %edx
GAS LISTING C:\Users\jisu8\AppData\Local\Temp\ccX0Ht2c.s 			page 61


 2209 104a 8D8508A1 		leal	-24312(%ebp), %eax
 2209      FFFF
 2210 1050 B9342F00 		movl	$12084, %ecx
 2210      00
 2211 1055 894C2408 		movl	%ecx, 8(%esp)
 2212 1059 89442404 		movl	%eax, 4(%esp)
 2213 105d 891424   		movl	%edx, (%esp)
 2214 1060 E8000000 		call	_memcpy
 2214      00
 929:src/pdf417/PDFScanningDecoder.c **** 
 930:src/pdf417/PDFScanningDecoder.c **** 	uint8_t leftToRight;
 931:src/pdf417/PDFScanningDecoder.c **** 
 932:src/pdf417/PDFScanningDecoder.c **** 	if(leftRowIndicatorColumn.m_hasValue != 0)
 2215              		.loc 1 932 27
 2216 1065 0FB6853C 		movzbl	-12228(%ebp), %eax
 2216      D0FFFF
 2217              		.loc 1 932 4
 2218 106c 84C0     		testb	%al, %al
 2219 106e 7406     		je	L153
 933:src/pdf417/PDFScanningDecoder.c **** 	{
 934:src/pdf417/PDFScanningDecoder.c **** 		leftToRight = 1;
 2220              		.loc 1 934 15
 2221 1070 C645DF01 		movb	$1, -33(%ebp)
 2222 1074 EB04     		jmp	L154
 2223              	L153:
 935:src/pdf417/PDFScanningDecoder.c **** 	}
 936:src/pdf417/PDFScanningDecoder.c **** 	else
 937:src/pdf417/PDFScanningDecoder.c **** 	{
 938:src/pdf417/PDFScanningDecoder.c **** 		leftToRight = 0;
 2224              		.loc 1 938 15
 2225 1076 C645DF00 		movb	$0, -33(%ebp)
 2226              	L154:
 2227              	LBB17:
 939:src/pdf417/PDFScanningDecoder.c **** 	}
 940:src/pdf417/PDFScanningDecoder.c **** 
 941:src/pdf417/PDFScanningDecoder.c **** 	for (int barcodeColumnCount = 1; barcodeColumnCount <= maxBarcodeColumn; barcodeColumnCount++) 
 2228              		.loc 1 941 11
 2229 107a C745D801 		movl	$1, -40(%ebp)
 2229      000000
 2230              		.loc 1 941 2
 2231 1081 E9E10100 		jmp	L155
 2231      00
 2232              	L170:
 2233              	LBB18:
 942:src/pdf417/PDFScanningDecoder.c **** 	{
 943:src/pdf417/PDFScanningDecoder.c **** 		int barcodeColumn = leftToRight ? barcodeColumnCount : maxBarcodeColumn - barcodeColumnCount;
 2234              		.loc 1 943 56
 2235 1086 807DDF00 		cmpb	$0, -33(%ebp)
 2236 108a 7508     		jne	L156
 2237              		.loc 1 943 56 is_stmt 0 discriminator 1
 2238 108c 8B45C8   		movl	-56(%ebp), %eax
 2239 108f 2B45D8   		subl	-40(%ebp), %eax
 2240 1092 EB03     		jmp	L157
 2241              	L156:
 2242              		.loc 1 943 56 discriminator 2
 2243 1094 8B45D8   		movl	-40(%ebp), %eax
 2244              	L157:
GAS LISTING C:\Users\jisu8\AppData\Local\Temp\ccX0Ht2c.s 			page 62


 2245              		.loc 1 943 7 is_stmt 1 discriminator 4
 2246 1097 8945C4   		movl	%eax, -60(%ebp)
 944:src/pdf417/PDFScanningDecoder.c **** 		if (detectionResult._detectionResultColumns[barcodeColumn].m_hasValue != 0) 
 2247              		.loc 1 944 61 discriminator 4
 2248 109a 8B45C4   		movl	-60(%ebp), %eax
 2249 109d 69C0342F 		imull	$12084, %eax, %eax
 2249      0000
 2250 10a3 8D7DE8   		leal	-24(%ebp), %edi
 2251 10a6 01F8     		addl	%edi, %eax
 2252 10a8 2D7CCF12 		subl	$1232764, %eax
 2252      00
 2253 10ad 0FB600   		movzbl	(%eax), %eax
 2254              		.loc 1 944 6 discriminator 4
 2255 10b0 84C0     		testb	%al, %al
 2256 10b2 0F85AA01 		jne	L172
 2256      0000
 945:src/pdf417/PDFScanningDecoder.c **** 		{
 946:src/pdf417/PDFScanningDecoder.c **** 			// This will be the case for the opposite row indicator column, which doesn't need to be decoded
 947:src/pdf417/PDFScanningDecoder.c **** 			continue;
 948:src/pdf417/PDFScanningDecoder.c **** 		}
 949:src/pdf417/PDFScanningDecoder.c **** 		RowIndicator_t rowIndicator = barcodeColumn == 0 ? Left : (barcodeColumn == maxBarcodeColumn ? Ri
 2257              		.loc 1 949 59
 2258 10b8 837DC400 		cmpl	$0, -60(%ebp)
 2259 10bc 7416     		je	L160
 2260              		.loc 1 949 59 is_stmt 0 discriminator 1
 2261 10be 8B45C4   		movl	-60(%ebp), %eax
 2262 10c1 3B45C8   		cmpl	-56(%ebp), %eax
 2263 10c4 7507     		jne	L161
 2264              		.loc 1 949 59 discriminator 3
 2265 10c6 B8020000 		movl	$2, %eax
 2265      00
 2266 10cb EB0C     		jmp	L163
 2267              	L161:
 2268              		.loc 1 949 59 discriminator 4
 2269 10cd B8000000 		movl	$0, %eax
 2269      00
 2270 10d2 EB05     		jmp	L163
 2271              	L160:
 2272              		.loc 1 949 59 discriminator 2
 2273 10d4 B8010000 		movl	$1, %eax
 2273      00
 2274              	L163:
 2275              		.loc 1 949 18 is_stmt 1 discriminator 8
 2276 10d9 8945C0   		movl	%eax, -64(%ebp)
 950:src/pdf417/PDFScanningDecoder.c **** 		DetectionResultColumn(&boundingBox, rowIndicator,&(detectionResult._detectionResultColumns[barcod
 2277              		.loc 1 950 3 discriminator 8
 2278 10dc 8D855C30 		leal	-1232804(%ebp), %eax
 2278      EDFF
 2279 10e2 8B55C4   		movl	-60(%ebp), %edx
 2280 10e5 69D2342F 		imull	$12084, %edx, %edx
 2280      0000
 2281 10eb 83C210   		addl	$16, %edx
 2282 10ee 01D0     		addl	%edx, %eax
 2283 10f0 89442408 		movl	%eax, 8(%esp)
 2284 10f4 8B45C0   		movl	-64(%ebp), %eax
 2285 10f7 89442404 		movl	%eax, 4(%esp)
 2286 10fb 8D8570FF 		leal	-144(%ebp), %eax
GAS LISTING C:\Users\jisu8\AppData\Local\Temp\ccX0Ht2c.s 			page 63


 2286      FFFF
 2287 1101 890424   		movl	%eax, (%esp)
 2288 1104 E8000000 		call	_DetectionResultColumn
 2288      00
 951:src/pdf417/PDFScanningDecoder.c **** 		int startColumn = -1;
 2289              		.loc 1 951 7 discriminator 8
 2290 1109 C745D4FF 		movl	$-1, -44(%ebp)
 2290      FFFFFF
 952:src/pdf417/PDFScanningDecoder.c **** 		int previousStartColumn = startColumn;
 2291              		.loc 1 952 7 discriminator 8
 2292 1110 8B45D4   		movl	-44(%ebp), %eax
 2293 1113 8945D0   		movl	%eax, -48(%ebp)
 2294              	LBB19:
 953:src/pdf417/PDFScanningDecoder.c **** 		// TODO start at a row for which we know the start position, then detect upwards and downwards fr
 954:src/pdf417/PDFScanningDecoder.c **** 		for (int imageRow = boundingBox.m_value._minY; imageRow <= boundingBox.m_value._maxY; imageRow++)
 2295              		.loc 1 954 12 discriminator 8
 2296 1116 8B45B4   		movl	-76(%ebp), %eax
 2297 1119 8945CC   		movl	%eax, -52(%ebp)
 2298              		.loc 1 954 3 discriminator 8
 2299 111c E9330100 		jmp	L164
 2299      00
 2300              	L169:
 2301              	LBB20:
 955:src/pdf417/PDFScanningDecoder.c **** 		{
 956:src/pdf417/PDFScanningDecoder.c **** 			startColumn = GetStartColumn(&detectionResult, barcodeColumn, imageRow, leftToRight);
 2302              		.loc 1 956 18
 2303 1121 0FB645DF 		movzbl	-33(%ebp), %eax
 2304 1125 8944240C 		movl	%eax, 12(%esp)
 2305 1129 8B45CC   		movl	-52(%ebp), %eax
 2306 112c 89442408 		movl	%eax, 8(%esp)
 2307 1130 8B45C4   		movl	-60(%ebp), %eax
 2308 1133 89442404 		movl	%eax, 4(%esp)
 2309 1137 8D855C30 		leal	-1232804(%ebp), %eax
 2309      EDFF
 2310 113d 890424   		movl	%eax, (%esp)
 2311 1140 E8A6FBFF 		call	_GetStartColumn
 2311      FF
 2312 1145 8945D4   		movl	%eax, -44(%ebp)
 957:src/pdf417/PDFScanningDecoder.c **** 			if (startColumn < 0 || startColumn > boundingBox.m_value._maxX) 
 2313              		.loc 1 957 7
 2314 1148 837DD400 		cmpl	$0, -44(%ebp)
 2315 114c 7808     		js	L165
 2316              		.loc 1 957 60 discriminator 1
 2317 114e 8B45B0   		movl	-80(%ebp), %eax
 2318              		.loc 1 957 24 discriminator 1
 2319 1151 3945D4   		cmpl	%eax, -44(%ebp)
 2320 1154 7E10     		jle	L166
 2321              	L165:
 958:src/pdf417/PDFScanningDecoder.c **** 			{
 959:src/pdf417/PDFScanningDecoder.c **** 				if (previousStartColumn == -1) 
 2322              		.loc 1 959 8
 2323 1156 837DD0FF 		cmpl	$-1, -48(%ebp)
 2324 115a 0F84EF00 		je	L173
 2324      0000
 960:src/pdf417/PDFScanningDecoder.c **** 				{
 961:src/pdf417/PDFScanningDecoder.c **** 					continue;
 962:src/pdf417/PDFScanningDecoder.c **** 				}
GAS LISTING C:\Users\jisu8\AppData\Local\Temp\ccX0Ht2c.s 			page 64


 963:src/pdf417/PDFScanningDecoder.c **** 				startColumn = previousStartColumn;
 2325              		.loc 1 963 17
 2326 1160 8B45D0   		movl	-48(%ebp), %eax
 2327 1163 8945D4   		movl	%eax, -44(%ebp)
 2328              	L166:
 964:src/pdf417/PDFScanningDecoder.c **** 			}
 965:src/pdf417/PDFScanningDecoder.c **** 			Codeword_t * codeword = DetectCodeword(image, boundingBox.m_value._minX, boundingBox.m_value._ma
 2329              		.loc 1 965 28
 2330 1166 0FB64DDF 		movzbl	-33(%ebp), %ecx
 2331 116a 8B55B0   		movl	-80(%ebp), %edx
 2332 116d 8B45AC   		movl	-84(%ebp), %eax
 2333 1170 8B5D40   		movl	64(%ebp), %ebx
 2334 1173 895C241C 		movl	%ebx, 28(%esp)
 2335 1177 8B5D3C   		movl	60(%ebp), %ebx
 2336 117a 895C2418 		movl	%ebx, 24(%esp)
 2337 117e 8B5DCC   		movl	-52(%ebp), %ebx
 2338 1181 895C2414 		movl	%ebx, 20(%esp)
 2339 1185 8B5DD4   		movl	-44(%ebp), %ebx
 2340 1188 895C2410 		movl	%ebx, 16(%esp)
 2341 118c 894C240C 		movl	%ecx, 12(%esp)
 2342 1190 89542408 		movl	%edx, 8(%esp)
 2343 1194 89442404 		movl	%eax, 4(%esp)
 2344 1198 8B4508   		movl	8(%ebp), %eax
 2345 119b 890424   		movl	%eax, (%esp)
 2346 119e E8C1F1FF 		call	_DetectCodeword
 2346      FF
 2347 11a3 8945BC   		movl	%eax, -68(%ebp)
 966:src/pdf417/PDFScanningDecoder.c **** 			if (codeword->m_hasValue != 0) 
 2348              		.loc 1 966 16
 2349 11a6 8B45BC   		movl	-68(%ebp), %eax
 2350 11a9 0FB600   		movzbl	(%eax), %eax
 2351              		.loc 1 966 7
 2352 11ac 84C0     		testb	%al, %al
 2353 11ae 0F849C00 		je	L168
 2353      0000
 967:src/pdf417/PDFScanningDecoder.c **** 			{
 968:src/pdf417/PDFScanningDecoder.c **** 				detectionResult._detectionResultColumns[barcodeColumn].m_value._codewords[imageRow - detectionR
 2354              		.loc 1 968 173
 2355 11b4 8B45C4   		movl	-60(%ebp), %eax
 2356 11b7 69C0342F 		imull	$12084, %eax, %eax
 2356      0000
 2357 11bd 8D75E8   		leal	-24(%ebp), %esi
 2358 11c0 01F0     		addl	%esi, %eax
 2359 11c2 2D34CF12 		subl	$1232692, %eax
 2359      00
 2360 11c7 8B00     		movl	(%eax), %eax
 2361              		.loc 1 968 88
 2362 11c9 8B55CC   		movl	-52(%ebp), %edx
 2363 11cc 29C2     		subl	%eax, %edx
 2364              		.loc 1 968 181
 2365 11ce 8B4DC4   		movl	-60(%ebp), %ecx
 2366 11d1 89D0     		movl	%edx, %eax
 2367 11d3 01C0     		addl	%eax, %eax
 2368 11d5 01D0     		addl	%edx, %eax
 2369 11d7 C1E003   		sall	$3, %eax
 2370 11da 69D1342F 		imull	$12084, %ecx, %edx
 2370      0000
GAS LISTING C:\Users\jisu8\AppData\Local\Temp\ccX0Ht2c.s 			page 65


 2371 11e0 01D0     		addl	%edx, %eax
 2372 11e2 8D7DE8   		leal	-24(%ebp), %edi
 2373 11e5 01F8     		addl	%edi, %eax
 2374 11e7 8D90C430 		leal	-1232700(%eax), %edx
 2374      EDFF
 2375 11ed 8B45BC   		movl	-68(%ebp), %eax
 2376 11f0 8B08     		movl	(%eax), %ecx
 2377 11f2 894A10   		movl	%ecx, 16(%edx)
 2378 11f5 8B4804   		movl	4(%eax), %ecx
 2379 11f8 894A14   		movl	%ecx, 20(%edx)
 2380 11fb 8B4808   		movl	8(%eax), %ecx
 2381 11fe 894A18   		movl	%ecx, 24(%edx)
 2382 1201 8B480C   		movl	12(%eax), %ecx
 2383 1204 894A1C   		movl	%ecx, 28(%edx)
 2384 1207 8B4810   		movl	16(%eax), %ecx
 2385 120a 894A20   		movl	%ecx, 32(%edx)
 2386 120d 8B4014   		movl	20(%eax), %eax
 2387 1210 894224   		movl	%eax, 36(%edx)
 969:src/pdf417/PDFScanningDecoder.c **** 				previousStartColumn = startColumn;
 2388              		.loc 1 969 25
 2389 1213 8B45D4   		movl	-44(%ebp), %eax
 2390 1216 8945D0   		movl	%eax, -48(%ebp)
 970:src/pdf417/PDFScanningDecoder.c **** 				minCodewordWidth = __min(minCodewordWidth, (codeword->m_value._endX - codeword->m_value._startX
 2391              		.loc 1 970 24
 2392 1219 8B45BC   		movl	-68(%ebp), %eax
 2393 121c 8B5008   		movl	8(%eax), %edx
 2394 121f 8B45BC   		movl	-68(%ebp), %eax
 2395 1222 8B4004   		movl	4(%eax), %eax
 2396 1225 29C2     		subl	%eax, %edx
 2397 1227 89D0     		movl	%edx, %eax
 2398              		.loc 1 970 22
 2399 1229 39453C   		cmpl	%eax, 60(%ebp)
 2400 122c 0F4E453C 		cmovle	60(%ebp), %eax
 2401 1230 89453C   		movl	%eax, 60(%ebp)
 971:src/pdf417/PDFScanningDecoder.c **** 				maxCodewordWidth = __max(maxCodewordWidth, (codeword->m_value._endX - codeword->m_value._startX
 2402              		.loc 1 971 24
 2403 1233 8B45BC   		movl	-68(%ebp), %eax
 2404 1236 8B5008   		movl	8(%eax), %edx
 2405 1239 8B45BC   		movl	-68(%ebp), %eax
 2406 123c 8B4004   		movl	4(%eax), %eax
 2407 123f 29C2     		subl	%eax, %edx
 2408 1241 89D0     		movl	%edx, %eax
 2409              		.loc 1 971 22
 2410 1243 394540   		cmpl	%eax, 64(%ebp)
 2411 1246 0F4D4540 		cmovge	64(%ebp), %eax
 2412 124a 894540   		movl	%eax, 64(%ebp)
 2413 124d EB01     		jmp	L168
 2414              	L173:
 961:src/pdf417/PDFScanningDecoder.c **** 				}
 2415              		.loc 1 961 6
 2416 124f 90       		nop
 2417              	L168:
 2418              	LBE20:
 954:src/pdf417/PDFScanningDecoder.c **** 		{
 2419              		.loc 1 954 97 discriminator 2
 2420 1250 8345CC01 		addl	$1, -52(%ebp)
 2421              	L164:
GAS LISTING C:\Users\jisu8\AppData\Local\Temp\ccX0Ht2c.s 			page 66


 954:src/pdf417/PDFScanningDecoder.c **** 		{
 2422              		.loc 1 954 81 discriminator 1
 2423 1254 8B45B8   		movl	-72(%ebp), %eax
 954:src/pdf417/PDFScanningDecoder.c **** 		{
 2424              		.loc 1 954 3 discriminator 1
 2425 1257 3945CC   		cmpl	%eax, -52(%ebp)
 2426 125a 0F8EC1FE 		jle	L169
 2426      FFFF
 2427 1260 EB01     		jmp	L159
 2428              	L172:
 2429              	LBE19:
 947:src/pdf417/PDFScanningDecoder.c **** 		}
 2430              		.loc 1 947 4
 2431 1262 90       		nop
 2432              	L159:
 2433              	LBE18:
 941:src/pdf417/PDFScanningDecoder.c **** 	{
 2434              		.loc 1 941 93 discriminator 2
 2435 1263 8345D801 		addl	$1, -40(%ebp)
 2436              	L155:
 941:src/pdf417/PDFScanningDecoder.c **** 	{
 2437              		.loc 1 941 2 discriminator 1
 2438 1267 8B45D8   		movl	-40(%ebp), %eax
 2439 126a 3B45C8   		cmpl	-56(%ebp), %eax
 2440 126d 0F8E13FE 		jle	L170
 2440      FFFF
 2441              	L142:
 2442              	LBE17:
 972:src/pdf417/PDFScanningDecoder.c **** 			}
 973:src/pdf417/PDFScanningDecoder.c **** 		}
 974:src/pdf417/PDFScanningDecoder.c **** 	}
 975:src/pdf417/PDFScanningDecoder.c **** 	//return CreateDecoderResult(detectionResult, characterSet);
 976:src/pdf417/PDFScanningDecoder.c **** 
 977:src/pdf417/PDFScanningDecoder.c **** }
 2443              		.loc 1 977 1
 2444 1273 81C4DCCF 		addl	$1232860, %esp
 2444      1200
 2445 1279 5B       		popl	%ebx
 2446              		.cfi_restore 3
 2447 127a 5E       		popl	%esi
 2448              		.cfi_restore 6
 2449 127b 5F       		popl	%edi
 2450              		.cfi_restore 7
 2451 127c 5D       		popl	%ebp
 2452              	LCFI62:
 2453              		.cfi_restore 5
 2454              		.cfi_def_cfa 4, 4
 2455 127d C3       		ret
 2456              		.cfi_endproc
 2457              	LFE24:
 2458              	Letext0:
 2459              		.file 2 "src/StructuredAppend.h"
 2460              		.file 3 "src/decodestatus.h"
 2461              		.file 4 "D:/3.tools/mingw/mingw32/i686-w64-mingw32/include/crtdefs.h"
 2462              		.file 5 "D:/3.tools/mingw/mingw32/i686-w64-mingw32/include/stdint.h"
 2463              		.file 6 "src/DecoderResult.h"
 2464              		.file 7 "src/BitMatrix.h"
GAS LISTING C:\Users\jisu8\AppData\Local\Temp\ccX0Ht2c.s 			page 67


 2465              		.file 8 "src/ResultPoint.h"
 2466              		.file 9 "src/pdf417/PDFBoundingBox.h"
 2467              		.file 10 "src/pdf417/PDFCodeword.h"
 2468              		.file 11 "src/pdf417/PDFBarcodeMetadata.h"
 2469              		.file 12 "src/pdf417/PDFDetectionResultColumn.h"
 2470              		.file 13 "src/pdf417/PDFDetectionResult.h"
 2471              		.file 14 "src/pdf417/PDFCodewordDecoder.h"
 2472              		.file 15 "D:/3.tools/mingw/mingw32/i686-w64-mingw32/include/stdlib.h"
 2473              		.file 16 "D:/3.tools/mingw/mingw32/i686-w64-mingw32/include/malloc.h"
 2474              		.file 17 "<built-in>"
 2475              		.file 18 "src/pdf417/PDFScanningDecoder.h"
 2476 127e 9090     		.section	.debug_info,"dr"
 2477              	Ldebug_info0:
 2478 0000 5C1A0000 		.long	0x1a5c
 2479 0004 0200     		.word	0x2
 2480 0006 00000000 		.secrel32	Ldebug_abbrev0
 2481 000a 04       		.byte	0x4
 2482 000b 01       		.uleb128 0x1
 2483 000c 474E5520 		.ascii "GNU C17 8.1.0 -mtune=generic -march=i686 -g -gdwarf-2 -O0\0"
 2483      43313720 
 2483      382E312E 
 2483      30202D6D 
 2483      74756E65 
 2484 0046 0C       		.byte	0xc
 2485 0047 7372632F 		.ascii "src/pdf417/PDFScanningDecoder.c\0"
 2485      70646634 
 2485      31372F50 
 2485      44465363 
 2485      616E6E69 
 2486 0067 443A5C31 		.ascii "D:\\1.Project_workspace\\PDF_BARCODE\0"
 2486      2E50726F 
 2486      6A656374 
 2486      5F776F72 
 2486      6B737061 
 2487 008a 00000000 		.long	Ltext0
 2488 008e 7E120000 		.long	Letext0
 2489 0092 00000000 		.secrel32	Ldebug_line0
 2490 0096 02       		.uleb128 0x2
 2491 0097 07       		.byte	0x7
 2492 0098 04       		.byte	0x4
 2493 0099 D8000000 		.long	0xd8
 2494 009d 03       		.byte	0x3
 2495 009e 04       		.byte	0x4
 2496 009f 01       		.byte	0x1
 2497 00a0 D8000000 		.long	0xd8
 2498 00a4 03       		.uleb128 0x3
 2499 00a5 4E6F4572 		.ascii "NoError\0"
 2499      726F7200 
 2500 00ad 00       		.byte	0
 2501 00ae 03       		.uleb128 0x3
 2502 00af 4E6F7446 		.ascii "NotFound\0"
 2502      6F756E64 
 2502      00
 2503 00b8 01       		.byte	0x1
 2504 00b9 03       		.uleb128 0x3
 2505 00ba 466F726D 		.ascii "FormatError\0"
 2505      61744572 
GAS LISTING C:\Users\jisu8\AppData\Local\Temp\ccX0Ht2c.s 			page 68


 2505      726F7200 
 2506 00c6 02       		.byte	0x2
 2507 00c7 03       		.uleb128 0x3
 2508 00c8 43686563 		.ascii "ChecksumError\0"
 2508      6B73756D 
 2508      4572726F 
 2508      7200
 2509 00d6 03       		.byte	0x3
 2510 00d7 00       		.byte	0
 2511 00d8 04       		.uleb128 0x4
 2512 00d9 04       		.byte	0x4
 2513 00da 07       		.byte	0x7
 2514 00db 756E7369 		.ascii "unsigned int\0"
 2514      676E6564 
 2514      20696E74 
 2514      00
 2515 00e8 05       		.uleb128 0x5
 2516 00e9 4465636F 		.ascii "DecodeStatus_t\0"
 2516      64655374 
 2516      61747573 
 2516      5F7400
 2517 00f8 03       		.byte	0x3
 2518 00f9 09       		.byte	0x9
 2519 00fa 02       		.byte	0x2
 2520 00fb 96000000 		.long	0x96
 2521 00ff 06       		.uleb128 0x6
 2522 0100 0C       		.byte	0xc
 2523 0101 02       		.byte	0x2
 2524 0102 04       		.byte	0x4
 2525 0103 09       		.byte	0x9
 2526 0104 39010000 		.long	0x139
 2527 0108 07       		.uleb128 0x7
 2528 0109 696E6465 		.ascii "index\0"
 2528      7800
 2529 010f 02       		.byte	0x2
 2530 0110 06       		.byte	0x6
 2531 0111 06       		.byte	0x6
 2532 0112 39010000 		.long	0x139
 2533 0116 02       		.byte	0x2
 2534 0117 23       		.byte	0x23
 2535 0118 00       		.uleb128 0
 2536 0119 07       		.uleb128 0x7
 2537 011a 636F756E 		.ascii "count\0"
 2537      7400
 2538 0120 02       		.byte	0x2
 2539 0121 07       		.byte	0x7
 2540 0122 06       		.byte	0x6
 2541 0123 39010000 		.long	0x139
 2542 0127 02       		.byte	0x2
 2543 0128 23       		.byte	0x23
 2544 0129 04       		.uleb128 0x4
 2545 012a 07       		.uleb128 0x7
 2546 012b 696400   		.ascii "id\0"
 2547 012e 02       		.byte	0x2
 2548 012f 08       		.byte	0x8
 2549 0130 09       		.byte	0x9
 2550 0131 45010000 		.long	0x145
GAS LISTING C:\Users\jisu8\AppData\Local\Temp\ccX0Ht2c.s 			page 69


 2551 0135 02       		.byte	0x2
 2552 0136 23       		.byte	0x23
 2553 0137 08       		.uleb128 0x8
 2554 0138 00       		.byte	0
 2555 0139 04       		.uleb128 0x4
 2556 013a 04       		.byte	0x4
 2557 013b 05       		.byte	0x5
 2558 013c 696E7400 		.ascii "int\0"
 2559 0140 08       		.uleb128 0x8
 2560 0141 39010000 		.long	0x139
 2561 0145 09       		.uleb128 0x9
 2562 0146 04       		.byte	0x4
 2563 0147 4B010000 		.long	0x14b
 2564 014b 04       		.uleb128 0x4
 2565 014c 01       		.byte	0x1
 2566 014d 06       		.byte	0x6
 2567 014e 63686172 		.ascii "char\0"
 2567      00
 2568 0153 08       		.uleb128 0x8
 2569 0154 4B010000 		.long	0x14b
 2570 0158 05       		.uleb128 0x5
 2571 0159 53747275 		.ascii "StructuredAppendInfo_t\0"
 2571      63747572 
 2571      65644170 
 2571      70656E64 
 2571      496E666F 
 2572 0170 02       		.byte	0x2
 2573 0171 09       		.byte	0x9
 2574 0172 02       		.byte	0x2
 2575 0173 FF000000 		.long	0xff
 2576 0177 05       		.uleb128 0x5
 2577 0178 77636861 		.ascii "wchar_t\0"
 2577      725F7400 
 2578 0180 04       		.byte	0x4
 2579 0181 62       		.byte	0x62
 2580 0182 18       		.byte	0x18
 2581 0183 87010000 		.long	0x187
 2582 0187 04       		.uleb128 0x4
 2583 0188 02       		.byte	0x2
 2584 0189 07       		.byte	0x7
 2585 018a 73686F72 		.ascii "short unsigned int\0"
 2585      7420756E 
 2585      7369676E 
 2585      65642069 
 2585      6E7400
 2586 019d 04       		.uleb128 0x4
 2587 019e 04       		.byte	0x4
 2588 019f 05       		.byte	0x5
 2589 01a0 6C6F6E67 		.ascii "long int\0"
 2589      20696E74 
 2589      00
 2590 01a9 04       		.uleb128 0x4
 2591 01aa 08       		.byte	0x8
 2592 01ab 05       		.byte	0x5
 2593 01ac 6C6F6E67 		.ascii "long long int\0"
 2593      206C6F6E 
 2593      6720696E 
GAS LISTING C:\Users\jisu8\AppData\Local\Temp\ccX0Ht2c.s 			page 70


 2593      7400
 2594 01ba 09       		.uleb128 0x9
 2595 01bb 04       		.byte	0x4
 2596 01bc 77010000 		.long	0x177
 2597 01c0 09       		.uleb128 0x9
 2598 01c1 04       		.byte	0x4
 2599 01c2 39010000 		.long	0x139
 2600 01c6 04       		.uleb128 0x4
 2601 01c7 04       		.byte	0x4
 2602 01c8 07       		.byte	0x7
 2603 01c9 6C6F6E67 		.ascii "long unsigned int\0"
 2603      20756E73 
 2603      69676E65 
 2603      6420696E 
 2603      7400
 2604 01db 09       		.uleb128 0x9
 2605 01dc 04       		.byte	0x4
 2606 01dd F2010000 		.long	0x1f2
 2607 01e1 04       		.uleb128 0x4
 2608 01e2 01       		.byte	0x1
 2609 01e3 08       		.byte	0x8
 2610 01e4 756E7369 		.ascii "unsigned char\0"
 2610      676E6564 
 2610      20636861 
 2610      7200
 2611 01f2 08       		.uleb128 0x8
 2612 01f3 E1010000 		.long	0x1e1
 2613 01f7 04       		.uleb128 0x4
 2614 01f8 0C       		.byte	0xc
 2615 01f9 04       		.byte	0x4
 2616 01fa 6C6F6E67 		.ascii "long double\0"
 2616      20646F75 
 2616      626C6500 
 2617 0206 04       		.uleb128 0x4
 2618 0207 10       		.byte	0x10
 2619 0208 04       		.byte	0x4
 2620 0209 5F466C6F 		.ascii "_Float128\0"
 2620      61743132 
 2620      3800
 2621 0213 04       		.uleb128 0x4
 2622 0214 01       		.byte	0x1
 2623 0215 06       		.byte	0x6
 2624 0216 7369676E 		.ascii "signed char\0"
 2624      65642063 
 2624      68617200 
 2625 0222 05       		.uleb128 0x5
 2626 0223 75696E74 		.ascii "uint8_t\0"
 2626      385F7400 
 2627 022b 05       		.byte	0x5
 2628 022c 24       		.byte	0x24
 2629 022d 19       		.byte	0x19
 2630 022e E1010000 		.long	0x1e1
 2631 0232 04       		.uleb128 0x4
 2632 0233 02       		.byte	0x2
 2633 0234 05       		.byte	0x5
 2634 0235 73686F72 		.ascii "short int\0"
 2634      7420696E 
GAS LISTING C:\Users\jisu8\AppData\Local\Temp\ccX0Ht2c.s 			page 71


 2634      7400
 2635 023f 04       		.uleb128 0x4
 2636 0240 08       		.byte	0x8
 2637 0241 07       		.byte	0x7
 2638 0242 6C6F6E67 		.ascii "long long unsigned int\0"
 2638      206C6F6E 
 2638      6720756E 
 2638      7369676E 
 2638      65642069 
 2639 0259 06       		.uleb128 0x6
 2640 025a 30       		.byte	0x30
 2641 025b 06       		.byte	0x6
 2642 025c 06       		.byte	0x6
 2643 025d 09       		.byte	0x9
 2644 025e 3A030000 		.long	0x33a
 2645 0262 07       		.uleb128 0x7
 2646 0263 73746174 		.ascii "status\0"
 2646      757300
 2647 026a 06       		.byte	0x6
 2648 026b 08       		.byte	0x8
 2649 026c 11       		.byte	0x11
 2650 026d E8000000 		.long	0xe8
 2651 0271 02       		.byte	0x2
 2652 0272 23       		.byte	0x23
 2653 0273 00       		.uleb128 0
 2654 0274 07       		.uleb128 0x7
 2655 0275 5F726177 		.ascii "_rawBytes\0"
 2655      42797465 
 2655      7300
 2656 027f 06       		.byte	0x6
 2657 0280 09       		.byte	0x9
 2658 0281 0C       		.byte	0xc
 2659 0282 3A030000 		.long	0x33a
 2660 0286 02       		.byte	0x2
 2661 0287 23       		.byte	0x23
 2662 0288 04       		.uleb128 0x4
 2663 0289 07       		.uleb128 0x7
 2664 028a 5F6E756D 		.ascii "_numBits\0"
 2664      42697473 
 2664      00
 2665 0293 06       		.byte	0x6
 2666 0294 0A       		.byte	0xa
 2667 0295 06       		.byte	0x6
 2668 0296 39010000 		.long	0x139
 2669 029a 02       		.byte	0x2
 2670 029b 23       		.byte	0x23
 2671 029c 08       		.uleb128 0x8
 2672 029d 07       		.uleb128 0x7
 2673 029e 5F746578 		.ascii "_text\0"
 2673      7400
 2674 02a4 06       		.byte	0x6
 2675 02a5 0B       		.byte	0xb
 2676 02a6 12       		.byte	0x12
 2677 02a7 40030000 		.long	0x340
 2678 02ab 02       		.byte	0x2
 2679 02ac 23       		.byte	0x23
 2680 02ad 0C       		.uleb128 0xc
GAS LISTING C:\Users\jisu8\AppData\Local\Temp\ccX0Ht2c.s 			page 72


 2681 02ae 07       		.uleb128 0x7
 2682 02af 5F65634C 		.ascii "_ecLevel\0"
 2682      6576656C 
 2682      00
 2683 02b8 06       		.byte	0x6
 2684 02b9 0C       		.byte	0xc
 2685 02ba 12       		.byte	0x12
 2686 02bb 40030000 		.long	0x340
 2687 02bf 02       		.byte	0x2
 2688 02c0 23       		.byte	0x23
 2689 02c1 10       		.uleb128 0x10
 2690 02c2 07       		.uleb128 0x7
 2691 02c3 5F657272 		.ascii "_errorsCorrected\0"
 2691      6F727343 
 2691      6F727265 
 2691      63746564 
 2691      00
 2692 02d4 06       		.byte	0x6
 2693 02d5 0D       		.byte	0xd
 2694 02d6 06       		.byte	0x6
 2695 02d7 39010000 		.long	0x139
 2696 02db 02       		.byte	0x2
 2697 02dc 23       		.byte	0x23
 2698 02dd 14       		.uleb128 0x14
 2699 02de 07       		.uleb128 0x7
 2700 02df 5F657261 		.ascii "_erasures\0"
 2700      73757265 
 2700      7300
 2701 02e9 06       		.byte	0x6
 2702 02ea 0E       		.byte	0xe
 2703 02eb 06       		.byte	0x6
 2704 02ec 39010000 		.long	0x139
 2705 02f0 02       		.byte	0x2
 2706 02f1 23       		.byte	0x23
 2707 02f2 18       		.uleb128 0x18
 2708 02f3 07       		.uleb128 0x7
 2709 02f4 5F737472 		.ascii "_structuredAppend\0"
 2709      75637475 
 2709      72656441 
 2709      7070656E 
 2709      6400
 2710 0306 06       		.byte	0x6
 2711 0307 0F       		.byte	0xf
 2712 0308 19       		.byte	0x19
 2713 0309 58010000 		.long	0x158
 2714 030d 02       		.byte	0x2
 2715 030e 23       		.byte	0x23
 2716 030f 1C       		.uleb128 0x1c
 2717 0310 07       		.uleb128 0x7
 2718 0311 5F726561 		.ascii "_readerInit\0"
 2718      64657249 
 2718      6E697400 
 2719 031d 06       		.byte	0x6
 2720 031e 10       		.byte	0x10
 2721 031f 0A       		.byte	0xa
 2722 0320 22020000 		.long	0x222
 2723 0324 02       		.byte	0x2
GAS LISTING C:\Users\jisu8\AppData\Local\Temp\ccX0Ht2c.s 			page 73


 2724 0325 23       		.byte	0x23
 2725 0326 28       		.uleb128 0x28
 2726 0327 07       		.uleb128 0x7
 2727 0328 5F657874 		.ascii "_extra\0"
 2727      726100
 2728 032f 06       		.byte	0x6
 2729 0330 11       		.byte	0x11
 2730 0331 0C       		.byte	0xc
 2731 0332 3A030000 		.long	0x33a
 2732 0336 02       		.byte	0x2
 2733 0337 23       		.byte	0x23
 2734 0338 2C       		.uleb128 0x2c
 2735 0339 00       		.byte	0
 2736 033a 09       		.uleb128 0x9
 2737 033b 04       		.byte	0x4
 2738 033c 22020000 		.long	0x222
 2739 0340 09       		.uleb128 0x9
 2740 0341 04       		.byte	0x4
 2741 0342 E1010000 		.long	0x1e1
 2742 0346 05       		.uleb128 0x5
 2743 0347 4465636F 		.ascii "DecoderResult_t\0"
 2743      64657252 
 2743      6573756C 
 2743      745F7400 
 2744 0357 06       		.byte	0x6
 2745 0358 12       		.byte	0x12
 2746 0359 02       		.byte	0x2
 2747 035a 59020000 		.long	0x259
 2748 035e 06       		.uleb128 0x6
 2749 035f 10       		.byte	0x10
 2750 0360 07       		.byte	0x7
 2751 0361 06       		.byte	0x6
 2752 0362 09       		.byte	0x9
 2753 0363 B1030000 		.long	0x3b1
 2754 0367 07       		.uleb128 0x7
 2755 0368 5F776964 		.ascii "_width\0"
 2755      746800
 2756 036f 07       		.byte	0x7
 2757 0370 08       		.byte	0x8
 2758 0371 06       		.byte	0x6
 2759 0372 39010000 		.long	0x139
 2760 0376 02       		.byte	0x2
 2761 0377 23       		.byte	0x23
 2762 0378 00       		.uleb128 0
 2763 0379 07       		.uleb128 0x7
 2764 037a 5F686569 		.ascii "_height\0"
 2764      67687400 
 2765 0382 07       		.byte	0x7
 2766 0383 09       		.byte	0x9
 2767 0384 06       		.byte	0x6
 2768 0385 39010000 		.long	0x139
 2769 0389 02       		.byte	0x2
 2770 038a 23       		.byte	0x23
 2771 038b 04       		.uleb128 0x4
 2772 038c 07       		.uleb128 0x7
 2773 038d 5F726F77 		.ascii "_rowSize\0"
 2773      53697A65 
GAS LISTING C:\Users\jisu8\AppData\Local\Temp\ccX0Ht2c.s 			page 74


 2773      00
 2774 0396 07       		.byte	0x7
 2775 0397 0A       		.byte	0xa
 2776 0398 06       		.byte	0x6
 2777 0399 39010000 		.long	0x139
 2778 039d 02       		.byte	0x2
 2779 039e 23       		.byte	0x23
 2780 039f 08       		.uleb128 0x8
 2781 03a0 07       		.uleb128 0x7
 2782 03a1 62697473 		.ascii "bits\0"
 2782      00
 2783 03a6 07       		.byte	0x7
 2784 03a7 0B       		.byte	0xb
 2785 03a8 0C       		.byte	0xc
 2786 03a9 3A030000 		.long	0x33a
 2787 03ad 02       		.byte	0x2
 2788 03ae 23       		.byte	0x23
 2789 03af 0C       		.uleb128 0xc
 2790 03b0 00       		.byte	0
 2791 03b1 05       		.uleb128 0x5
 2792 03b2 4269744D 		.ascii "BitMatrix_t\0"
 2792      61747269 
 2792      785F7400 
 2793 03be 07       		.byte	0x7
 2794 03bf 0E       		.byte	0xe
 2795 03c0 02       		.byte	0x2
 2796 03c1 5E030000 		.long	0x35e
 2797 03c5 08       		.uleb128 0x8
 2798 03c6 B1030000 		.long	0x3b1
 2799 03ca 06       		.uleb128 0x6
 2800 03cb 08       		.byte	0x8
 2801 03cc 08       		.byte	0x8
 2802 03cd 14       		.byte	0x14
 2803 03ce 09       		.byte	0x9
 2804 03cf EE030000 		.long	0x3ee
 2805 03d3 07       		.uleb128 0x7
 2806 03d4 7800     		.ascii "x\0"
 2807 03d6 08       		.byte	0x8
 2808 03d7 16       		.byte	0x16
 2809 03d8 08       		.byte	0x8
 2810 03d9 EE030000 		.long	0x3ee
 2811 03dd 02       		.byte	0x2
 2812 03de 23       		.byte	0x23
 2813 03df 00       		.uleb128 0
 2814 03e0 07       		.uleb128 0x7
 2815 03e1 7900     		.ascii "y\0"
 2816 03e3 08       		.byte	0x8
 2817 03e4 17       		.byte	0x17
 2818 03e5 08       		.byte	0x8
 2819 03e6 EE030000 		.long	0x3ee
 2820 03ea 02       		.byte	0x2
 2821 03eb 23       		.byte	0x23
 2822 03ec 04       		.uleb128 0x4
 2823 03ed 00       		.byte	0
 2824 03ee 04       		.uleb128 0x4
 2825 03ef 04       		.byte	0x4
 2826 03f0 04       		.byte	0x4
GAS LISTING C:\Users\jisu8\AppData\Local\Temp\ccX0Ht2c.s 			page 75


 2827 03f1 666C6F61 		.ascii "float\0"
 2827      7400
 2828 03f7 05       		.uleb128 0x5
 2829 03f8 506F696E 		.ascii "PointT_t\0"
 2829      74545F74 
 2829      00
 2830 0401 08       		.byte	0x8
 2831 0402 18       		.byte	0x18
 2832 0403 02       		.byte	0x2
 2833 0404 CA030000 		.long	0x3ca
 2834 0408 06       		.uleb128 0x6
 2835 0409 0C       		.byte	0xc
 2836 040a 08       		.byte	0x8
 2837 040b 1A       		.byte	0x1a
 2838 040c 09       		.byte	0x9
 2839 040d 30040000 		.long	0x430
 2840 0411 0A       		.uleb128 0xa
 2841 0412 48000000 		.secrel32	LASF0
 2842 0416 08       		.byte	0x8
 2843 0417 1C       		.byte	0x1c
 2844 0418 0A       		.byte	0xa
 2845 0419 22020000 		.long	0x222
 2846 041d 02       		.byte	0x2
 2847 041e 23       		.byte	0x23
 2848 041f 00       		.uleb128 0
 2849 0420 0A       		.uleb128 0xa
 2850 0421 96000000 		.secrel32	LASF1
 2851 0425 08       		.byte	0x8
 2852 0426 1D       		.byte	0x1d
 2853 0427 0B       		.byte	0xb
 2854 0428 F7030000 		.long	0x3f7
 2855 042c 02       		.byte	0x2
 2856 042d 23       		.byte	0x23
 2857 042e 04       		.uleb128 0x4
 2858 042f 00       		.byte	0
 2859 0430 05       		.uleb128 0x5
 2860 0431 52657375 		.ascii "ResultPoint_t\0"
 2860      6C74506F 
 2860      696E745F 
 2860      7400
 2861 043f 08       		.byte	0x8
 2862 0440 1E       		.byte	0x1e
 2863 0441 02       		.byte	0x2
 2864 0442 08040000 		.long	0x408
 2865 0446 08       		.uleb128 0x8
 2866 0447 30040000 		.long	0x430
 2867 044b 06       		.uleb128 0x6
 2868 044c 48       		.byte	0x48
 2869 044d 09       		.byte	0x9
 2870 044e 06       		.byte	0x6
 2871 044f 09       		.byte	0x9
 2872 0450 1C050000 		.long	0x51c
 2873 0454 07       		.uleb128 0x7
 2874 0455 5F696D67 		.ascii "_imgWidth\0"
 2874      57696474 
 2874      6800
 2875 045f 09       		.byte	0x9
GAS LISTING C:\Users\jisu8\AppData\Local\Temp\ccX0Ht2c.s 			page 76


 2876 0460 08       		.byte	0x8
 2877 0461 06       		.byte	0x6
 2878 0462 39010000 		.long	0x139
 2879 0466 02       		.byte	0x2
 2880 0467 23       		.byte	0x23
 2881 0468 00       		.uleb128 0
 2882 0469 07       		.uleb128 0x7
 2883 046a 5F696D67 		.ascii "_imgHeight\0"
 2883      48656967 
 2883      687400
 2884 0475 09       		.byte	0x9
 2885 0476 09       		.byte	0x9
 2886 0477 06       		.byte	0x6
 2887 0478 39010000 		.long	0x139
 2888 047c 02       		.byte	0x2
 2889 047d 23       		.byte	0x23
 2890 047e 04       		.uleb128 0x4
 2891 047f 07       		.uleb128 0x7
 2892 0480 5F746F70 		.ascii "_topLeft\0"
 2892      4C656674 
 2892      00
 2893 0489 09       		.byte	0x9
 2894 048a 0A       		.byte	0xa
 2895 048b 10       		.byte	0x10
 2896 048c 30040000 		.long	0x430
 2897 0490 02       		.byte	0x2
 2898 0491 23       		.byte	0x23
 2899 0492 08       		.uleb128 0x8
 2900 0493 07       		.uleb128 0x7
 2901 0494 5F626F74 		.ascii "_bottomLeft\0"
 2901      746F6D4C 
 2901      65667400 
 2902 04a0 09       		.byte	0x9
 2903 04a1 0B       		.byte	0xb
 2904 04a2 10       		.byte	0x10
 2905 04a3 30040000 		.long	0x430
 2906 04a7 02       		.byte	0x2
 2907 04a8 23       		.byte	0x23
 2908 04a9 14       		.uleb128 0x14
 2909 04aa 07       		.uleb128 0x7
 2910 04ab 5F746F70 		.ascii "_topRight\0"
 2910      52696768 
 2910      7400
 2911 04b5 09       		.byte	0x9
 2912 04b6 0C       		.byte	0xc
 2913 04b7 10       		.byte	0x10
 2914 04b8 30040000 		.long	0x430
 2915 04bc 02       		.byte	0x2
 2916 04bd 23       		.byte	0x23
 2917 04be 20       		.uleb128 0x20
 2918 04bf 07       		.uleb128 0x7
 2919 04c0 5F626F74 		.ascii "_bottomRight\0"
 2919      746F6D52 
 2919      69676874 
 2919      00
 2920 04cd 09       		.byte	0x9
 2921 04ce 0D       		.byte	0xd
GAS LISTING C:\Users\jisu8\AppData\Local\Temp\ccX0Ht2c.s 			page 77


 2922 04cf 10       		.byte	0x10
 2923 04d0 30040000 		.long	0x430
 2924 04d4 02       		.byte	0x2
 2925 04d5 23       		.byte	0x23
 2926 04d6 2C       		.uleb128 0x2c
 2927 04d7 07       		.uleb128 0x7
 2928 04d8 5F6D696E 		.ascii "_minX\0"
 2928      5800
 2929 04de 09       		.byte	0x9
 2930 04df 0E       		.byte	0xe
 2931 04e0 06       		.byte	0x6
 2932 04e1 39010000 		.long	0x139
 2933 04e5 02       		.byte	0x2
 2934 04e6 23       		.byte	0x23
 2935 04e7 38       		.uleb128 0x38
 2936 04e8 07       		.uleb128 0x7
 2937 04e9 5F6D6178 		.ascii "_maxX\0"
 2937      5800
 2938 04ef 09       		.byte	0x9
 2939 04f0 0F       		.byte	0xf
 2940 04f1 06       		.byte	0x6
 2941 04f2 39010000 		.long	0x139
 2942 04f6 02       		.byte	0x2
 2943 04f7 23       		.byte	0x23
 2944 04f8 3C       		.uleb128 0x3c
 2945 04f9 07       		.uleb128 0x7
 2946 04fa 5F6D696E 		.ascii "_minY\0"
 2946      5900
 2947 0500 09       		.byte	0x9
 2948 0501 10       		.byte	0x10
 2949 0502 06       		.byte	0x6
 2950 0503 39010000 		.long	0x139
 2951 0507 02       		.byte	0x2
 2952 0508 23       		.byte	0x23
 2953 0509 40       		.uleb128 0x40
 2954 050a 07       		.uleb128 0x7
 2955 050b 5F6D6178 		.ascii "_maxY\0"
 2955      5900
 2956 0511 09       		.byte	0x9
 2957 0512 11       		.byte	0x11
 2958 0513 06       		.byte	0x6
 2959 0514 39010000 		.long	0x139
 2960 0518 02       		.byte	0x2
 2961 0519 23       		.byte	0x23
 2962 051a 44       		.uleb128 0x44
 2963 051b 00       		.byte	0
 2964 051c 05       		.uleb128 0x5
 2965 051d 426F756E 		.ascii "BoundingBox_val_t\0"
 2965      64696E67 
 2965      426F785F 
 2965      76616C5F 
 2965      7400
 2966 052f 09       		.byte	0x9
 2967 0530 12       		.byte	0x12
 2968 0531 02       		.byte	0x2
 2969 0532 4B040000 		.long	0x44b
 2970 0536 06       		.uleb128 0x6
GAS LISTING C:\Users\jisu8\AppData\Local\Temp\ccX0Ht2c.s 			page 78


 2971 0537 4C       		.byte	0x4c
 2972 0538 09       		.byte	0x9
 2973 0539 14       		.byte	0x14
 2974 053a 09       		.byte	0x9
 2975 053b 5E050000 		.long	0x55e
 2976 053f 0A       		.uleb128 0xa
 2977 0540 48000000 		.secrel32	LASF0
 2978 0544 09       		.byte	0x9
 2979 0545 16       		.byte	0x16
 2980 0546 0A       		.byte	0xa
 2981 0547 22020000 		.long	0x222
 2982 054b 02       		.byte	0x2
 2983 054c 23       		.byte	0x23
 2984 054d 00       		.uleb128 0
 2985 054e 0A       		.uleb128 0xa
 2986 054f 96000000 		.secrel32	LASF1
 2987 0553 09       		.byte	0x9
 2988 0554 17       		.byte	0x17
 2989 0555 14       		.byte	0x14
 2990 0556 1C050000 		.long	0x51c
 2991 055a 02       		.byte	0x2
 2992 055b 23       		.byte	0x23
 2993 055c 04       		.uleb128 0x4
 2994 055d 00       		.byte	0
 2995 055e 05       		.uleb128 0x5
 2996 055f 426F756E 		.ascii "BoundingBox_t\0"
 2996      64696E67 
 2996      426F785F 
 2996      7400
 2997 056d 09       		.byte	0x9
 2998 056e 18       		.byte	0x18
 2999 056f 02       		.byte	0x2
 3000 0570 36050000 		.long	0x536
 3001 0574 08       		.uleb128 0x8
 3002 0575 5E050000 		.long	0x55e
 3003 0579 06       		.uleb128 0x6
 3004 057a 14       		.byte	0x14
 3005 057b 0A       		.byte	0xa
 3006 057c 04       		.byte	0x4
 3007 057d 09       		.byte	0x9
 3008 057e E2050000 		.long	0x5e2
 3009 0582 07       		.uleb128 0x7
 3010 0583 5F737461 		.ascii "_startX\0"
 3010      72745800 
 3011 058b 0A       		.byte	0xa
 3012 058c 06       		.byte	0x6
 3013 058d 06       		.byte	0x6
 3014 058e 39010000 		.long	0x139
 3015 0592 02       		.byte	0x2
 3016 0593 23       		.byte	0x23
 3017 0594 00       		.uleb128 0
 3018 0595 07       		.uleb128 0x7
 3019 0596 5F656E64 		.ascii "_endX\0"
 3019      5800
 3020 059c 0A       		.byte	0xa
 3021 059d 07       		.byte	0x7
 3022 059e 06       		.byte	0x6
GAS LISTING C:\Users\jisu8\AppData\Local\Temp\ccX0Ht2c.s 			page 79


 3023 059f 39010000 		.long	0x139
 3024 05a3 02       		.byte	0x2
 3025 05a4 23       		.byte	0x23
 3026 05a5 04       		.uleb128 0x4
 3027 05a6 07       		.uleb128 0x7
 3028 05a7 5F627563 		.ascii "_bucket\0"
 3028      6B657400 
 3029 05af 0A       		.byte	0xa
 3030 05b0 08       		.byte	0x8
 3031 05b1 06       		.byte	0x6
 3032 05b2 39010000 		.long	0x139
 3033 05b6 02       		.byte	0x2
 3034 05b7 23       		.byte	0x23
 3035 05b8 08       		.uleb128 0x8
 3036 05b9 07       		.uleb128 0x7
 3037 05ba 5F76616C 		.ascii "_value\0"
 3037      756500
 3038 05c1 0A       		.byte	0xa
 3039 05c2 09       		.byte	0x9
 3040 05c3 06       		.byte	0x6
 3041 05c4 39010000 		.long	0x139
 3042 05c8 02       		.byte	0x2
 3043 05c9 23       		.byte	0x23
 3044 05ca 0C       		.uleb128 0xc
 3045 05cb 07       		.uleb128 0x7
 3046 05cc 5F726F77 		.ascii "_rowNumber\0"
 3046      4E756D62 
 3046      657200
 3047 05d7 0A       		.byte	0xa
 3048 05d8 0A       		.byte	0xa
 3049 05d9 06       		.byte	0x6
 3050 05da 39010000 		.long	0x139
 3051 05de 02       		.byte	0x2
 3052 05df 23       		.byte	0x23
 3053 05e0 10       		.uleb128 0x10
 3054 05e1 00       		.byte	0
 3055 05e2 05       		.uleb128 0x5
 3056 05e3 436F6465 		.ascii "Codeword_val_t\0"
 3056      776F7264 
 3056      5F76616C 
 3056      5F7400
 3057 05f2 0A       		.byte	0xa
 3058 05f3 0B       		.byte	0xb
 3059 05f4 02       		.byte	0x2
 3060 05f5 79050000 		.long	0x579
 3061 05f9 06       		.uleb128 0x6
 3062 05fa 18       		.byte	0x18
 3063 05fb 0A       		.byte	0xa
 3064 05fc 0C       		.byte	0xc
 3065 05fd 09       		.byte	0x9
 3066 05fe 21060000 		.long	0x621
 3067 0602 0A       		.uleb128 0xa
 3068 0603 48000000 		.secrel32	LASF0
 3069 0607 0A       		.byte	0xa
 3070 0608 0E       		.byte	0xe
 3071 0609 0A       		.byte	0xa
 3072 060a 22020000 		.long	0x222
GAS LISTING C:\Users\jisu8\AppData\Local\Temp\ccX0Ht2c.s 			page 80


 3073 060e 02       		.byte	0x2
 3074 060f 23       		.byte	0x23
 3075 0610 00       		.uleb128 0
 3076 0611 0A       		.uleb128 0xa
 3077 0612 96000000 		.secrel32	LASF1
 3078 0616 0A       		.byte	0xa
 3079 0617 0F       		.byte	0xf
 3080 0618 11       		.byte	0x11
 3081 0619 E2050000 		.long	0x5e2
 3082 061d 02       		.byte	0x2
 3083 061e 23       		.byte	0x23
 3084 061f 04       		.uleb128 0x4
 3085 0620 00       		.byte	0
 3086 0621 05       		.uleb128 0x5
 3087 0622 436F6465 		.ascii "Codeword_t\0"
 3087      776F7264 
 3087      5F7400
 3088 062d 0A       		.byte	0xa
 3089 062e 10       		.byte	0x10
 3090 062f 02       		.byte	0x2
 3091 0630 F9050000 		.long	0x5f9
 3092 0634 06       		.uleb128 0x6
 3093 0635 10       		.byte	0x10
 3094 0636 0B       		.byte	0xb
 3095 0637 07       		.byte	0x7
 3096 0638 09       		.byte	0x9
 3097 0639 B3060000 		.long	0x6b3
 3098 063d 07       		.uleb128 0x7
 3099 063e 5F636F6C 		.ascii "_columnCount\0"
 3099      756D6E43 
 3099      6F756E74 
 3099      00
 3100 064b 0B       		.byte	0xb
 3101 064c 09       		.byte	0x9
 3102 064d 06       		.byte	0x6
 3103 064e 39010000 		.long	0x139
 3104 0652 02       		.byte	0x2
 3105 0653 23       		.byte	0x23
 3106 0654 00       		.uleb128 0
 3107 0655 07       		.uleb128 0x7
 3108 0656 5F657272 		.ascii "_errorCorrectionLevel\0"
 3108      6F72436F 
 3108      72726563 
 3108      74696F6E 
 3108      4C657665 
 3109 066c 0B       		.byte	0xb
 3110 066d 0A       		.byte	0xa
 3111 066e 06       		.byte	0x6
 3112 066f 39010000 		.long	0x139
 3113 0673 02       		.byte	0x2
 3114 0674 23       		.byte	0x23
 3115 0675 04       		.uleb128 0x4
 3116 0676 07       		.uleb128 0x7
 3117 0677 5F726F77 		.ascii "_rowCountUpperPart\0"
 3117      436F756E 
 3117      74557070 
 3117      65725061 
GAS LISTING C:\Users\jisu8\AppData\Local\Temp\ccX0Ht2c.s 			page 81


 3117      727400
 3118 068a 0B       		.byte	0xb
 3119 068b 0B       		.byte	0xb
 3120 068c 06       		.byte	0x6
 3121 068d 39010000 		.long	0x139
 3122 0691 02       		.byte	0x2
 3123 0692 23       		.byte	0x23
 3124 0693 08       		.uleb128 0x8
 3125 0694 07       		.uleb128 0x7
 3126 0695 5F726F77 		.ascii "_rowCountLowerPart\0"
 3126      436F756E 
 3126      744C6F77 
 3126      65725061 
 3126      727400
 3127 06a8 0B       		.byte	0xb
 3128 06a9 0C       		.byte	0xc
 3129 06aa 06       		.byte	0x6
 3130 06ab 39010000 		.long	0x139
 3131 06af 02       		.byte	0x2
 3132 06b0 23       		.byte	0x23
 3133 06b1 0C       		.uleb128 0xc
 3134 06b2 00       		.byte	0
 3135 06b3 05       		.uleb128 0x5
 3136 06b4 42617263 		.ascii "BarcodeMetadata_t\0"
 3136      6F64654D 
 3136      65746164 
 3136      6174615F 
 3136      7400
 3137 06c6 0B       		.byte	0xb
 3138 06c7 0D       		.byte	0xd
 3139 06c8 02       		.byte	0x2
 3140 06c9 34060000 		.long	0x634
 3141 06cd 02       		.uleb128 0x2
 3142 06ce 07       		.byte	0x7
 3143 06cf 04       		.byte	0x4
 3144 06d0 D8000000 		.long	0xd8
 3145 06d4 0C       		.byte	0xc
 3146 06d5 09       		.byte	0x9
 3147 06d6 01       		.byte	0x1
 3148 06d7 F2060000 		.long	0x6f2
 3149 06db 03       		.uleb128 0x3
 3150 06dc 4E6F6E65 		.ascii "None\0"
 3150      00
 3151 06e1 00       		.byte	0
 3152 06e2 03       		.uleb128 0x3
 3153 06e3 4C656674 		.ascii "Left\0"
 3153      00
 3154 06e8 01       		.byte	0x1
 3155 06e9 03       		.uleb128 0x3
 3156 06ea 52696768 		.ascii "Right\0"
 3156      7400
 3157 06f0 02       		.byte	0x2
 3158 06f1 00       		.byte	0
 3159 06f2 05       		.uleb128 0x5
 3160 06f3 526F7749 		.ascii "RowIndicator_t\0"
 3160      6E646963 
 3160      61746F72 
GAS LISTING C:\Users\jisu8\AppData\Local\Temp\ccX0Ht2c.s 			page 82


 3160      5F7400
 3161 0702 0C       		.byte	0xc
 3162 0703 0D       		.byte	0xd
 3163 0704 02       		.byte	0x2
 3164 0705 CD060000 		.long	0x6cd
 3165 0709 0B       		.uleb128 0xb
 3166 070a 302F     		.word	0x2f30
 3167 070c 0C       		.byte	0xc
 3168 070d 0F       		.byte	0xf
 3169 070e 09       		.byte	0x9
 3170 070f 53070000 		.long	0x753
 3171 0713 0A       		.uleb128 0xa
 3172 0714 66000000 		.secrel32	LASF2
 3173 0718 0C       		.byte	0xc
 3174 0719 11       		.byte	0x11
 3175 071a 10       		.byte	0x10
 3176 071b 5E050000 		.long	0x55e
 3177 071f 02       		.byte	0x2
 3178 0720 23       		.byte	0x23
 3179 0721 00       		.uleb128 0
 3180 0722 07       		.uleb128 0x7
 3181 0723 5F636F64 		.ascii "_codewords\0"
 3181      65776F72 
 3181      647300
 3182 072e 0C       		.byte	0xc
 3183 072f 12       		.byte	0x12
 3184 0730 0D       		.byte	0xd
 3185 0731 53070000 		.long	0x753
 3186 0735 02       		.byte	0x2
 3187 0736 23       		.byte	0x23
 3188 0737 4C       		.uleb128 0x4c
 3189 0738 07       		.uleb128 0x7
 3190 0739 5F726F77 		.ascii "_rowIndicator\0"
 3190      496E6469 
 3190      6361746F 
 3190      7200
 3191 0747 0C       		.byte	0xc
 3192 0748 13       		.byte	0x13
 3193 0749 11       		.byte	0x11
 3194 074a F2060000 		.long	0x6f2
 3195 074e 03       		.byte	0x3
 3196 074f 23       		.byte	0x23
 3197 0750 AC5E     		.uleb128 0x2f2c
 3198 0752 00       		.byte	0
 3199 0753 0C       		.uleb128 0xc
 3200 0754 21060000 		.long	0x621
 3201 0758 64070000 		.long	0x764
 3202 075c 0D       		.uleb128 0xd
 3203 075d D8000000 		.long	0xd8
 3204 0761 F301     		.word	0x1f3
 3205 0763 00       		.byte	0
 3206 0764 05       		.uleb128 0x5
 3207 0765 44657465 		.ascii "DetectionResultColumn_val_t\0"
 3207      6374696F 
 3207      6E526573 
 3207      756C7443 
 3207      6F6C756D 
GAS LISTING C:\Users\jisu8\AppData\Local\Temp\ccX0Ht2c.s 			page 83


 3208 0781 0C       		.byte	0xc
 3209 0782 14       		.byte	0x14
 3210 0783 02       		.byte	0x2
 3211 0784 09070000 		.long	0x709
 3212 0788 0B       		.uleb128 0xb
 3213 0789 342F     		.word	0x2f34
 3214 078b 0C       		.byte	0xc
 3215 078c 15       		.byte	0x15
 3216 078d 09       		.byte	0x9
 3217 078e B1070000 		.long	0x7b1
 3218 0792 0A       		.uleb128 0xa
 3219 0793 48000000 		.secrel32	LASF0
 3220 0797 0C       		.byte	0xc
 3221 0798 17       		.byte	0x17
 3222 0799 0A       		.byte	0xa
 3223 079a 22020000 		.long	0x222
 3224 079e 02       		.byte	0x2
 3225 079f 23       		.byte	0x23
 3226 07a0 00       		.uleb128 0
 3227 07a1 0A       		.uleb128 0xa
 3228 07a2 96000000 		.secrel32	LASF1
 3229 07a6 0C       		.byte	0xc
 3230 07a7 18       		.byte	0x18
 3231 07a8 1E       		.byte	0x1e
 3232 07a9 64070000 		.long	0x764
 3233 07ad 02       		.byte	0x2
 3234 07ae 23       		.byte	0x23
 3235 07af 04       		.uleb128 0x4
 3236 07b0 00       		.byte	0
 3237 07b1 05       		.uleb128 0x5
 3238 07b2 44657465 		.ascii "DetectionResultColumn_t\0"
 3238      6374696F 
 3238      6E526573 
 3238      756C7443 
 3238      6F6C756D 
 3239 07ca 0C       		.byte	0xc
 3240 07cb 19       		.byte	0x19
 3241 07cc 02       		.byte	0x2
 3242 07cd 88070000 		.long	0x788
 3243 07d1 0E       		.uleb128 0xe
 3244 07d2 18010000 		.secrel32	LASF3
 3245 07d6 12       		.byte	0x12
 3246 07d7 0D       		.byte	0xd
 3247 07d8 20       		.byte	0x20
 3248 07d9 B1070000 		.long	0x7b1
 3249 07dd 01       		.byte	0x1
 3250 07de 01       		.byte	0x1
 3251 07df 0F       		.uleb128 0xf
 3252 07e0 AC701200 		.long	0x1270ac
 3253 07e4 0D       		.byte	0xd
 3254 07e5 08       		.byte	0x8
 3255 07e6 09       		.byte	0x9
 3256 07e7 3C080000 		.long	0x83c
 3257 07eb 07       		.uleb128 0x7
 3258 07ec 5F626172 		.ascii "_barcodeMetadata\0"
 3258      636F6465 
 3258      4D657461 
GAS LISTING C:\Users\jisu8\AppData\Local\Temp\ccX0Ht2c.s 			page 84


 3258      64617461 
 3258      00
 3259 07fd 0D       		.byte	0xd
 3260 07fe 0A       		.byte	0xa
 3261 07ff 14       		.byte	0x14
 3262 0800 B3060000 		.long	0x6b3
 3263 0804 02       		.byte	0x2
 3264 0805 23       		.byte	0x23
 3265 0806 00       		.uleb128 0
 3266 0807 07       		.uleb128 0x7
 3267 0808 5F646574 		.ascii "_detectionResultColumns\0"
 3267      65637469 
 3267      6F6E5265 
 3267      73756C74 
 3267      436F6C75 
 3268 0820 0D       		.byte	0xd
 3269 0821 0B       		.byte	0xb
 3270 0822 1A       		.byte	0x1a
 3271 0823 3C080000 		.long	0x83c
 3272 0827 02       		.byte	0x2
 3273 0828 23       		.byte	0x23
 3274 0829 10       		.uleb128 0x10
 3275 082a 0A       		.uleb128 0xa
 3276 082b 66000000 		.secrel32	LASF2
 3277 082f 0D       		.byte	0xd
 3278 0830 0C       		.byte	0xc
 3279 0831 10       		.byte	0x10
 3280 0832 5E050000 		.long	0x55e
 3281 0836 04       		.byte	0x4
 3282 0837 23       		.byte	0x23
 3283 0838 E0E049   		.uleb128 0x127060
 3284 083b 00       		.byte	0
 3285 083c 0C       		.uleb128 0xc
 3286 083d B1070000 		.long	0x7b1
 3287 0841 4C080000 		.long	0x84c
 3288 0845 10       		.uleb128 0x10
 3289 0846 D8000000 		.long	0xd8
 3290 084a 63       		.byte	0x63
 3291 084b 00       		.byte	0
 3292 084c 05       		.uleb128 0x5
 3293 084d 44657465 		.ascii "DetectionResult_t\0"
 3293      6374696F 
 3293      6E526573 
 3293      756C745F 
 3293      7400
 3294 085f 0D       		.byte	0xd
 3295 0860 0D       		.byte	0xd
 3296 0861 02       		.byte	0x2
 3297 0862 DF070000 		.long	0x7df
 3298 0866 08       		.uleb128 0x8
 3299 0867 4C080000 		.long	0x84c
 3300 086b 11       		.uleb128 0x11
 3301 086c 4D4F4455 		.ascii "MODULES_IN_CODEWORD\0"
 3301      4C45535F 
 3301      494E5F43 
 3301      4F444557 
 3301      4F524400 
GAS LISTING C:\Users\jisu8\AppData\Local\Temp\ccX0Ht2c.s 			page 85


 3302 0880 0E       		.byte	0xe
 3303 0881 1D       		.byte	0x1d
 3304 0882 12       		.byte	0x12
 3305 0883 40010000 		.long	0x140
 3306 0887 01       		.byte	0x1
 3307 0888 01       		.byte	0x1
 3308 0889 11       		.uleb128 0x11
 3309 088a 42415253 		.ascii "BARS_IN_MODULE\0"
 3309      5F494E5F 
 3309      4D4F4455 
 3309      4C4500
 3310 0899 0E       		.byte	0xe
 3311 089a 1E       		.byte	0x1e
 3312 089b 12       		.byte	0x12
 3313 089c 40010000 		.long	0x140
 3314 08a0 01       		.byte	0x1
 3315 08a1 01       		.byte	0x1
 3316 08a2 04       		.uleb128 0x4
 3317 08a3 08       		.byte	0x8
 3318 08a4 04       		.byte	0x4
 3319 08a5 646F7562 		.ascii "double\0"
 3319      6C6500
 3320 08ac 11       		.uleb128 0x11
 3321 08ad 5F696D70 		.ascii "_imp____mb_cur_max\0"
 3321      5F5F5F5F 
 3321      6D625F63 
 3321      75725F6D 
 3321      617800
 3322 08c0 0F       		.byte	0xf
 3323 08c1 73       		.byte	0x73
 3324 08c2 10       		.byte	0x10
 3325 08c3 C0010000 		.long	0x1c0
 3326 08c7 01       		.byte	0x1
 3327 08c8 01       		.byte	0x1
 3328 08c9 0C       		.uleb128 0xc
 3329 08ca 45010000 		.long	0x145
 3330 08ce D9080000 		.long	0x8d9
 3331 08d2 10       		.uleb128 0x10
 3332 08d3 D8000000 		.long	0xd8
 3333 08d7 00       		.byte	0
 3334 08d8 00       		.byte	0
 3335 08d9 11       		.uleb128 0x11
 3336 08da 5F737973 		.ascii "_sys_errlist\0"
 3336      5F657272 
 3336      6C697374 
 3336      00
 3337 08e7 0F       		.byte	0xf
 3338 08e8 AC       		.byte	0xac
 3339 08e9 26       		.byte	0x26
 3340 08ea C9080000 		.long	0x8c9
 3341 08ee 01       		.byte	0x1
 3342 08ef 01       		.byte	0x1
 3343 08f0 11       		.uleb128 0x11
 3344 08f1 5F737973 		.ascii "_sys_nerr\0"
 3344      5F6E6572 
 3344      7200
 3345 08fb 0F       		.byte	0xf
GAS LISTING C:\Users\jisu8\AppData\Local\Temp\ccX0Ht2c.s 			page 86


 3346 08fc AD       		.byte	0xad
 3347 08fd 24       		.byte	0x24
 3348 08fe 39010000 		.long	0x139
 3349 0902 01       		.byte	0x1
 3350 0903 01       		.byte	0x1
 3351 0904 12       		.uleb128 0x12
 3352 0905 5F696D70 		.ascii "_imp____argc\0"
 3352      5F5F5F5F 
 3352      61726763 
 3352      00
 3353 0912 0F       		.byte	0xf
 3354 0913 1901     		.word	0x119
 3355 0915 10       		.byte	0x10
 3356 0916 C0010000 		.long	0x1c0
 3357 091a 01       		.byte	0x1
 3358 091b 01       		.byte	0x1
 3359 091c 12       		.uleb128 0x12
 3360 091d 5F696D70 		.ascii "_imp____argv\0"
 3360      5F5F5F5F 
 3360      61726776 
 3360      00
 3361 092a 0F       		.byte	0xf
 3362 092b 1D01     		.word	0x11d
 3363 092d 13       		.byte	0x13
 3364 092e 34090000 		.long	0x934
 3365 0932 01       		.byte	0x1
 3366 0933 01       		.byte	0x1
 3367 0934 09       		.uleb128 0x9
 3368 0935 04       		.byte	0x4
 3369 0936 3A090000 		.long	0x93a
 3370 093a 09       		.uleb128 0x9
 3371 093b 04       		.byte	0x4
 3372 093c 45010000 		.long	0x145
 3373 0940 12       		.uleb128 0x12
 3374 0941 5F696D70 		.ascii "_imp____wargv\0"
 3374      5F5F5F5F 
 3374      77617267 
 3374      7600
 3375 094f 0F       		.byte	0xf
 3376 0950 2101     		.word	0x121
 3377 0952 16       		.byte	0x16
 3378 0953 59090000 		.long	0x959
 3379 0957 01       		.byte	0x1
 3380 0958 01       		.byte	0x1
 3381 0959 09       		.uleb128 0x9
 3382 095a 04       		.byte	0x4
 3383 095b 5F090000 		.long	0x95f
 3384 095f 09       		.uleb128 0x9
 3385 0960 04       		.byte	0x4
 3386 0961 BA010000 		.long	0x1ba
 3387 0965 12       		.uleb128 0x12
 3388 0966 5F696D70 		.ascii "_imp___environ\0"
 3388      5F5F5F65 
 3388      6E766972 
 3388      6F6E00
 3389 0975 0F       		.byte	0xf
 3390 0976 2701     		.word	0x127
GAS LISTING C:\Users\jisu8\AppData\Local\Temp\ccX0Ht2c.s 			page 87


 3391 0978 13       		.byte	0x13
 3392 0979 34090000 		.long	0x934
 3393 097d 01       		.byte	0x1
 3394 097e 01       		.byte	0x1
 3395 097f 12       		.uleb128 0x12
 3396 0980 5F696D70 		.ascii "_imp___wenviron\0"
 3396      5F5F5F77 
 3396      656E7669 
 3396      726F6E00 
 3397 0990 0F       		.byte	0xf
 3398 0991 2C01     		.word	0x12c
 3399 0993 16       		.byte	0x16
 3400 0994 59090000 		.long	0x959
 3401 0998 01       		.byte	0x1
 3402 0999 01       		.byte	0x1
 3403 099a 12       		.uleb128 0x12
 3404 099b 5F696D70 		.ascii "_imp___pgmptr\0"
 3404      5F5F5F70 
 3404      676D7074 
 3404      7200
 3405 09a9 0F       		.byte	0xf
 3406 09aa 3201     		.word	0x132
 3407 09ac 12       		.byte	0x12
 3408 09ad 3A090000 		.long	0x93a
 3409 09b1 01       		.byte	0x1
 3410 09b2 01       		.byte	0x1
 3411 09b3 12       		.uleb128 0x12
 3412 09b4 5F696D70 		.ascii "_imp___wpgmptr\0"
 3412      5F5F5F77 
 3412      70676D70 
 3412      747200
 3413 09c3 0F       		.byte	0xf
 3414 09c4 3701     		.word	0x137
 3415 09c6 15       		.byte	0x15
 3416 09c7 5F090000 		.long	0x95f
 3417 09cb 01       		.byte	0x1
 3418 09cc 01       		.byte	0x1
 3419 09cd 12       		.uleb128 0x12
 3420 09ce 5F696D70 		.ascii "_imp___osplatform\0"
 3420      5F5F5F6F 
 3420      73706C61 
 3420      74666F72 
 3420      6D00
 3421 09e0 0F       		.byte	0xf
 3422 09e1 3C01     		.word	0x13c
 3423 09e3 19       		.byte	0x19
 3424 09e4 EA090000 		.long	0x9ea
 3425 09e8 01       		.byte	0x1
 3426 09e9 01       		.byte	0x1
 3427 09ea 09       		.uleb128 0x9
 3428 09eb 04       		.byte	0x4
 3429 09ec D8000000 		.long	0xd8
 3430 09f0 12       		.uleb128 0x12
 3431 09f1 5F696D70 		.ascii "_imp___osver\0"
 3431      5F5F5F6F 
 3431      73766572 
 3431      00
GAS LISTING C:\Users\jisu8\AppData\Local\Temp\ccX0Ht2c.s 			page 88


 3432 09fe 0F       		.byte	0xf
 3433 09ff 4101     		.word	0x141
 3434 0a01 19       		.byte	0x19
 3435 0a02 EA090000 		.long	0x9ea
 3436 0a06 01       		.byte	0x1
 3437 0a07 01       		.byte	0x1
 3438 0a08 12       		.uleb128 0x12
 3439 0a09 5F696D70 		.ascii "_imp___winver\0"
 3439      5F5F5F77 
 3439      696E7665 
 3439      7200
 3440 0a17 0F       		.byte	0xf
 3441 0a18 4601     		.word	0x146
 3442 0a1a 19       		.byte	0x19
 3443 0a1b EA090000 		.long	0x9ea
 3444 0a1f 01       		.byte	0x1
 3445 0a20 01       		.byte	0x1
 3446 0a21 12       		.uleb128 0x12
 3447 0a22 5F696D70 		.ascii "_imp___winmajor\0"
 3447      5F5F5F77 
 3447      696E6D61 
 3447      6A6F7200 
 3448 0a32 0F       		.byte	0xf
 3449 0a33 4B01     		.word	0x14b
 3450 0a35 19       		.byte	0x19
 3451 0a36 EA090000 		.long	0x9ea
 3452 0a3a 01       		.byte	0x1
 3453 0a3b 01       		.byte	0x1
 3454 0a3c 12       		.uleb128 0x12
 3455 0a3d 5F696D70 		.ascii "_imp___winminor\0"
 3455      5F5F5F77 
 3455      696E6D69 
 3455      6E6F7200 
 3456 0a4d 0F       		.byte	0xf
 3457 0a4e 5001     		.word	0x150
 3458 0a50 19       		.byte	0x19
 3459 0a51 EA090000 		.long	0x9ea
 3460 0a55 01       		.byte	0x1
 3461 0a56 01       		.byte	0x1
 3462 0a57 11       		.uleb128 0x11
 3463 0a58 5F616D62 		.ascii "_amblksiz\0"
 3463      6C6B7369 
 3463      7A00
 3464 0a62 10       		.byte	0x10
 3465 0a63 35       		.byte	0x35
 3466 0a64 17       		.byte	0x17
 3467 0a65 D8000000 		.long	0xd8
 3468 0a69 01       		.byte	0x1
 3469 0a6a 01       		.byte	0x1
 3470 0a6b 13       		.uleb128 0x13
 3471 0a6c 434F4445 		.ascii "CODEWORD_SKEW_SIZE\0"
 3471      574F5244 
 3471      5F534B45 
 3471      575F5349 
 3471      5A4500
 3472 0a7f 01       		.byte	0x1
 3473 0a80 0B       		.byte	0xb
GAS LISTING C:\Users\jisu8\AppData\Local\Temp\ccX0Ht2c.s 			page 89


 3474 0a81 12       		.byte	0x12
 3475 0a82 40010000 		.long	0x140
 3476 0a86 05       		.byte	0x5
 3477 0a87 03       		.byte	0x3
 3478 0a88 00000000 		.long	_CODEWORD_SKEW_SIZE
 3479 0a8c 13       		.uleb128 0x13
 3480 0a8d 4D41585F 		.ascii "MAX_ERRORS\0"
 3480      4552524F 
 3480      525300
 3481 0a98 01       		.byte	0x1
 3482 0a99 0C       		.byte	0xc
 3483 0a9a 12       		.byte	0x12
 3484 0a9b 40010000 		.long	0x140
 3485 0a9f 05       		.byte	0x5
 3486 0aa0 03       		.byte	0x3
 3487 0aa1 04000000 		.long	_MAX_ERRORS
 3488 0aa5 13       		.uleb128 0x13
 3489 0aa6 4D41585F 		.ascii "MAX_EC_CODEWORDS\0"
 3489      45435F43 
 3489      4F444557 
 3489      4F524453 
 3489      00
 3490 0ab7 01       		.byte	0x1
 3491 0ab8 0D       		.byte	0xd
 3492 0ab9 12       		.byte	0x12
 3493 0aba 40010000 		.long	0x140
 3494 0abe 05       		.byte	0x5
 3495 0abf 03       		.byte	0x3
 3496 0ac0 08000000 		.long	_MAX_EC_CODEWORDS
 3497 0ac4 13       		.uleb128 0x13
 3498 0ac5 42415243 		.ascii "BARCODE_ROW_UNKNOWN\0"
 3498      4F44455F 
 3498      524F575F 
 3498      554E4B4E 
 3498      4F574E00 
 3499 0ad9 01       		.byte	0x1
 3500 0ada 0E       		.byte	0xe
 3501 0adb 12       		.byte	0x12
 3502 0adc 40010000 		.long	0x140
 3503 0ae0 05       		.byte	0x5
 3504 0ae1 03       		.byte	0x3
 3505 0ae2 0C000000 		.long	_BARCODE_ROW_UNKNOWN
 3506 0ae6 0C       		.uleb128 0xc
 3507 0ae7 39010000 		.long	0x139
 3508 0aeb F60A0000 		.long	0xaf6
 3509 0aef 10       		.uleb128 0x10
 3510 0af0 D8000000 		.long	0xd8
 3511 0af4 07       		.byte	0x7
 3512 0af5 00       		.byte	0
 3513 0af6 14       		.uleb128 0x14
 3514 0af7 72657375 		.ascii "result_bits\0"
 3514      6C745F62 
 3514      69747300 
 3515 0b03 01       		.byte	0x1
 3516 0b04 10       		.byte	0x10
 3517 0b05 05       		.byte	0x5
 3518 0b06 E60A0000 		.long	0xae6
GAS LISTING C:\Users\jisu8\AppData\Local\Temp\ccX0Ht2c.s 			page 90


 3519 0b0a 01       		.byte	0x1
 3520 0b0b 05       		.byte	0x5
 3521 0b0c 03       		.byte	0x3
 3522 0b0d 00000000 		.long	_result_bits
 3523 0b11 14       		.uleb128 0x14
 3524 0b12 436F6465 		.ascii "CodeWord\0"
 3524      576F7264 
 3524      00
 3525 0b1b 01       		.byte	0x1
 3526 0b1c 12       		.byte	0x12
 3527 0b1d 0C       		.byte	0xc
 3528 0b1e 21060000 		.long	0x621
 3529 0b22 01       		.byte	0x1
 3530 0b23 05       		.byte	0x5
 3531 0b24 03       		.byte	0x3
 3532 0b25 00000000 		.long	_CodeWord
 3533 0b29 15       		.uleb128 0x15
 3534 0b2a D1070000 		.long	0x7d1
 3535 0b2e 01       		.byte	0x1
 3536 0b2f 13       		.byte	0x13
 3537 0b30 19       		.byte	0x19
 3538 0b31 05       		.byte	0x5
 3539 0b32 03       		.byte	0x3
 3540 0b33 00000000 		.long	_rowIndicatorColumn
 3541 0b37 16       		.uleb128 0x16
 3542 0b38 01       		.byte	0x1
 3543 0b39 4465636F 		.ascii "Decode\0"
 3543      646500
 3544 0b40 01       		.byte	0x1
 3545 0b41 7703     		.word	0x377
 3546 0b43 13       		.byte	0x13
 3547 0b44 01       		.byte	0x1
 3548 0b45 740D0000 		.long	0xd74
 3549 0b49 300E0000 		.long	LFB24
 3550 0b4d 7E120000 		.long	LFE24
 3551 0b51 00000000 		.secrel32	LLST20
 3552 0b55 01       		.byte	0x1
 3553 0b56 740D0000 		.long	0xd74
 3554 0b5a 17       		.uleb128 0x17
 3555 0b5b 42000000 		.secrel32	LASF4
 3556 0b5f 01       		.byte	0x1
 3557 0b60 7703     		.word	0x377
 3558 0b62 2E       		.byte	0x2e
 3559 0b63 7A0D0000 		.long	0xd7a
 3560 0b67 02       		.byte	0x2
 3561 0b68 91       		.byte	0x91
 3562 0b69 00       		.sleb128 0
 3563 0b6a 18       		.uleb128 0x18
 3564 0b6b 696D6167 		.ascii "imageTopLeft\0"
 3564      65546F70 
 3564      4C656674 
 3564      00
 3565 0b78 01       		.byte	0x1
 3566 0b79 7703     		.word	0x377
 3567 0b7b 43       		.byte	0x43
 3568 0b7c 30040000 		.long	0x430
 3569 0b80 02       		.byte	0x2
GAS LISTING C:\Users\jisu8\AppData\Local\Temp\ccX0Ht2c.s 			page 91


 3570 0b81 91       		.byte	0x91
 3571 0b82 04       		.sleb128 4
 3572 0b83 18       		.uleb128 0x18
 3573 0b84 696D6167 		.ascii "imageBottomLeft\0"
 3573      65426F74 
 3573      746F6D4C 
 3573      65667400 
 3574 0b94 01       		.byte	0x1
 3575 0b95 7703     		.word	0x377
 3576 0b97 5F       		.byte	0x5f
 3577 0b98 30040000 		.long	0x430
 3578 0b9c 02       		.byte	0x2
 3579 0b9d 91       		.byte	0x91
 3580 0b9e 10       		.sleb128 16
 3581 0b9f 18       		.uleb128 0x18
 3582 0ba0 696D6167 		.ascii "imageTopRight\0"
 3582      65546F70 
 3582      52696768 
 3582      7400
 3583 0bae 01       		.byte	0x1
 3584 0baf 7803     		.word	0x378
 3585 0bb1 10       		.byte	0x10
 3586 0bb2 30040000 		.long	0x430
 3587 0bb6 02       		.byte	0x2
 3588 0bb7 91       		.byte	0x91
 3589 0bb8 1C       		.sleb128 28
 3590 0bb9 18       		.uleb128 0x18
 3591 0bba 696D6167 		.ascii "imageBottomRight\0"
 3591      65426F74 
 3591      746F6D52 
 3591      69676874 
 3591      00
 3592 0bcb 01       		.byte	0x1
 3593 0bcc 7803     		.word	0x378
 3594 0bce 2D       		.byte	0x2d
 3595 0bcf 30040000 		.long	0x430
 3596 0bd3 02       		.byte	0x2
 3597 0bd4 91       		.byte	0x91
 3598 0bd5 28       		.sleb128 40
 3599 0bd6 17       		.uleb128 0x17
 3600 0bd7 2A000000 		.secrel32	LASF5
 3601 0bdb 01       		.byte	0x1
 3602 0bdc 7903     		.word	0x379
 3603 0bde 06       		.byte	0x6
 3604 0bdf 39010000 		.long	0x139
 3605 0be3 02       		.byte	0x2
 3606 0be4 91       		.byte	0x91
 3607 0be5 34       		.sleb128 52
 3608 0be6 17       		.uleb128 0x17
 3609 0be7 00000000 		.secrel32	LASF6
 3610 0beb 01       		.byte	0x1
 3611 0bec 7903     		.word	0x379
 3612 0bee 1C       		.byte	0x1c
 3613 0bef 39010000 		.long	0x139
 3614 0bf3 02       		.byte	0x2
 3615 0bf4 91       		.byte	0x91
 3616 0bf5 38       		.sleb128 56
GAS LISTING C:\Users\jisu8\AppData\Local\Temp\ccX0Ht2c.s 			page 92


 3617 0bf6 18       		.uleb128 0x18
 3618 0bf7 63686172 		.ascii "characterSet\0"
 3618      61637465 
 3618      72536574 
 3618      00
 3619 0c04 01       		.byte	0x1
 3620 0c05 7903     		.word	0x379
 3621 0c07 44       		.byte	0x44
 3622 0c08 DB010000 		.long	0x1db
 3623 0c0c 02       		.byte	0x2
 3624 0c0d 91       		.byte	0x91
 3625 0c0e 3C       		.sleb128 60
 3626 0c0f 19       		.uleb128 0x19
 3627 0c10 8A000000 		.secrel32	LASF7
 3628 0c14 01       		.byte	0x1
 3629 0c15 7B03     		.word	0x37b
 3630 0c17 10       		.byte	0x10
 3631 0c18 5E050000 		.long	0x55e
 3632 0c1c 03       		.byte	0x3
 3633 0c1d 91       		.byte	0x91
 3634 0c1e E87E     		.sleb128 -152
 3635 0c20 19       		.uleb128 0x19
 3636 0c21 3B000000 		.secrel32	LASF8
 3637 0c25 01       		.byte	0x1
 3638 0c26 8003     		.word	0x380
 3639 0c28 06       		.byte	0x6
 3640 0c29 39010000 		.long	0x139
 3641 0c2d 02       		.byte	0x2
 3642 0c2e 91       		.byte	0x91
 3643 0c2f 5C       		.sleb128 -36
 3644 0c30 19       		.uleb128 0x19
 3645 0c31 73000000 		.secrel32	LASF9
 3646 0c35 01       		.byte	0x1
 3647 0c36 8203     		.word	0x382
 3648 0c38 1A       		.byte	0x1a
 3649 0c39 B1070000 		.long	0x7b1
 3650 0c3d 04       		.byte	0x4
 3651 0c3e 91       		.byte	0x91
 3652 0c3f B4A07F   		.sleb128 -12236
 3653 0c42 19       		.uleb128 0x19
 3654 0c43 00010000 		.secrel32	LASF10
 3655 0c47 01       		.byte	0x1
 3656 0c48 8303     		.word	0x383
 3657 0c4a 1A       		.byte	0x1a
 3658 0c4b B1070000 		.long	0x7b1
 3659 0c4f 04       		.byte	0x4
 3660 0c50 91       		.byte	0x91
 3661 0c51 80C27E   		.sleb128 -24320
 3662 0c54 19       		.uleb128 0x19
 3663 0c55 1A000000 		.secrel32	LASF11
 3664 0c59 01       		.byte	0x1
 3665 0c5a 8403     		.word	0x384
 3666 0c5c 14       		.byte	0x14
 3667 0c5d 4C080000 		.long	0x84c
 3668 0c61 05       		.byte	0x5
 3669 0c62 91       		.byte	0x91
 3670 0c63 D4E0B47F 		.sleb128 -1232812
GAS LISTING C:\Users\jisu8\AppData\Local\Temp\ccX0Ht2c.s 			page 93


 3671 0c67 1A       		.uleb128 0x1a
 3672 0c68 6D617842 		.ascii "maxBarcodeColumn\0"
 3672      6172636F 
 3672      6465436F 
 3672      6C756D6E 
 3672      00
 3673 0c79 01       		.byte	0x1
 3674 0c7a 9E03     		.word	0x39e
 3675 0c7c 06       		.byte	0x6
 3676 0c7d 39010000 		.long	0x139
 3677 0c81 02       		.byte	0x2
 3678 0c82 91       		.byte	0x91
 3679 0c83 40       		.sleb128 -64
 3680 0c84 19       		.uleb128 0x19
 3681 0c85 AA000000 		.secrel32	LASF12
 3682 0c89 01       		.byte	0x1
 3683 0c8a A203     		.word	0x3a2
 3684 0c8c 0A       		.byte	0xa
 3685 0c8d 22020000 		.long	0x222
 3686 0c91 02       		.byte	0x2
 3687 0c92 91       		.byte	0x91
 3688 0c93 57       		.sleb128 -41
 3689 0c94 1B       		.uleb128 0x1b
 3690 0c95 CC0E0000 		.long	LBB16
 3691 0c99 08100000 		.long	LBE16
 3692 0c9d B00C0000 		.long	0xcb0
 3693 0ca1 1A       		.uleb128 0x1a
 3694 0ca2 6900     		.ascii "i\0"
 3695 0ca4 01       		.byte	0x1
 3696 0ca5 8503     		.word	0x385
 3697 0ca7 0B       		.byte	0xb
 3698 0ca8 39010000 		.long	0x139
 3699 0cac 02       		.byte	0x2
 3700 0cad 91       		.byte	0x91
 3701 0cae 58       		.sleb128 -40
 3702 0caf 00       		.byte	0
 3703 0cb0 1C       		.uleb128 0x1c
 3704 0cb1 7A100000 		.long	LBB17
 3705 0cb5 73120000 		.long	LBE17
 3706 0cb9 1A       		.uleb128 0x1a
 3707 0cba 62617263 		.ascii "barcodeColumnCount\0"
 3707      6F646543 
 3707      6F6C756D 
 3707      6E436F75 
 3707      6E7400
 3708 0ccd 01       		.byte	0x1
 3709 0cce AD03     		.word	0x3ad
 3710 0cd0 0B       		.byte	0xb
 3711 0cd1 39010000 		.long	0x139
 3712 0cd5 02       		.byte	0x2
 3713 0cd6 91       		.byte	0x91
 3714 0cd7 50       		.sleb128 -48
 3715 0cd8 1C       		.uleb128 0x1c
 3716 0cd9 86100000 		.long	LBB18
 3717 0cdd 63120000 		.long	LBE18
 3718 0ce1 19       		.uleb128 0x19
 3719 0ce2 BF000000 		.secrel32	LASF13
GAS LISTING C:\Users\jisu8\AppData\Local\Temp\ccX0Ht2c.s 			page 94


 3720 0ce6 01       		.byte	0x1
 3721 0ce7 AF03     		.word	0x3af
 3722 0ce9 07       		.byte	0x7
 3723 0cea 39010000 		.long	0x139
 3724 0cee 03       		.byte	0x3
 3725 0cef 91       		.byte	0x91
 3726 0cf0 BC7F     		.sleb128 -68
 3727 0cf2 1A       		.uleb128 0x1a
 3728 0cf3 726F7749 		.ascii "rowIndicator\0"
 3728      6E646963 
 3728      61746F72 
 3728      00
 3729 0d00 01       		.byte	0x1
 3730 0d01 B503     		.word	0x3b5
 3731 0d03 12       		.byte	0x12
 3732 0d04 F2060000 		.long	0x6f2
 3733 0d08 03       		.byte	0x3
 3734 0d09 91       		.byte	0x91
 3735 0d0a B87F     		.sleb128 -72
 3736 0d0c 19       		.uleb128 0x19
 3737 0d0d 9E000000 		.secrel32	LASF14
 3738 0d11 01       		.byte	0x1
 3739 0d12 B703     		.word	0x3b7
 3740 0d14 07       		.byte	0x7
 3741 0d15 39010000 		.long	0x139
 3742 0d19 02       		.byte	0x2
 3743 0d1a 91       		.byte	0x91
 3744 0d1b 4C       		.sleb128 -52
 3745 0d1c 1A       		.uleb128 0x1a
 3746 0d1d 70726576 		.ascii "previousStartColumn\0"
 3746      696F7573 
 3746      53746172 
 3746      74436F6C 
 3746      756D6E00 
 3747 0d31 01       		.byte	0x1
 3748 0d32 B803     		.word	0x3b8
 3749 0d34 07       		.byte	0x7
 3750 0d35 39010000 		.long	0x139
 3751 0d39 02       		.byte	0x2
 3752 0d3a 91       		.byte	0x91
 3753 0d3b 48       		.sleb128 -56
 3754 0d3c 1C       		.uleb128 0x1c
 3755 0d3d 16110000 		.long	LBB19
 3756 0d41 62120000 		.long	LBE19
 3757 0d45 19       		.uleb128 0x19
 3758 0d46 B6000000 		.secrel32	LASF15
 3759 0d4a 01       		.byte	0x1
 3760 0d4b BA03     		.word	0x3ba
 3761 0d4d 0C       		.byte	0xc
 3762 0d4e 39010000 		.long	0x139
 3763 0d52 02       		.byte	0x2
 3764 0d53 91       		.byte	0x91
 3765 0d54 44       		.sleb128 -60
 3766 0d55 1C       		.uleb128 0x1c
 3767 0d56 21110000 		.long	LBB20
 3768 0d5a 50120000 		.long	LBE20
 3769 0d5e 19       		.uleb128 0x19
GAS LISTING C:\Users\jisu8\AppData\Local\Temp\ccX0Ht2c.s 			page 95


 3770 0d5f 11000000 		.secrel32	LASF16
 3771 0d63 01       		.byte	0x1
 3772 0d64 C503     		.word	0x3c5
 3773 0d66 11       		.byte	0x11
 3774 0d67 800D0000 		.long	0xd80
 3775 0d6b 03       		.byte	0x3
 3776 0d6c 91       		.byte	0x91
 3777 0d6d B47F     		.sleb128 -76
 3778 0d6f 00       		.byte	0
 3779 0d70 00       		.byte	0
 3780 0d71 00       		.byte	0
 3781 0d72 00       		.byte	0
 3782 0d73 00       		.byte	0
 3783 0d74 09       		.uleb128 0x9
 3784 0d75 04       		.byte	0x4
 3785 0d76 46030000 		.long	0x346
 3786 0d7a 09       		.uleb128 0x9
 3787 0d7b 04       		.byte	0x4
 3788 0d7c C5030000 		.long	0x3c5
 3789 0d80 09       		.uleb128 0x9
 3790 0d81 04       		.byte	0x4
 3791 0d82 21060000 		.long	0x621
 3792 0d86 1D       		.uleb128 0x1d
 3793 0d87 47657453 		.ascii "GetStartColumn\0"
 3793      74617274 
 3793      436F6C75 
 3793      6D6E00
 3794 0d96 01       		.byte	0x1
 3795 0d97 9001     		.word	0x190
 3796 0d99 0C       		.byte	0xc
 3797 0d9a 01       		.byte	0x1
 3798 0d9b 39010000 		.long	0x139
 3799 0d9f EB0C0000 		.long	LFB23
 3800 0da3 300E0000 		.long	LFE23
 3801 0da7 38000000 		.secrel32	LLST19
 3802 0dab 01       		.byte	0x1
 3803 0dac 480E0000 		.long	0xe48
 3804 0db0 17       		.uleb128 0x17
 3805 0db1 1A000000 		.secrel32	LASF11
 3806 0db5 01       		.byte	0x1
 3807 0db6 9001     		.word	0x190
 3808 0db8 35       		.byte	0x35
 3809 0db9 480E0000 		.long	0xe48
 3810 0dbd 02       		.byte	0x2
 3811 0dbe 91       		.byte	0x91
 3812 0dbf 00       		.sleb128 0
 3813 0dc0 17       		.uleb128 0x17
 3814 0dc1 BF000000 		.secrel32	LASF13
 3815 0dc5 01       		.byte	0x1
 3816 0dc6 9001     		.word	0x190
 3817 0dc8 4A       		.byte	0x4a
 3818 0dc9 39010000 		.long	0x139
 3819 0dcd 02       		.byte	0x2
 3820 0dce 91       		.byte	0x91
 3821 0dcf 04       		.sleb128 4
 3822 0dd0 17       		.uleb128 0x17
 3823 0dd1 B6000000 		.secrel32	LASF15
GAS LISTING C:\Users\jisu8\AppData\Local\Temp\ccX0Ht2c.s 			page 96


 3824 0dd5 01       		.byte	0x1
 3825 0dd6 9001     		.word	0x190
 3826 0dd8 5D       		.byte	0x5d
 3827 0dd9 39010000 		.long	0x139
 3828 0ddd 02       		.byte	0x2
 3829 0dde 91       		.byte	0x91
 3830 0ddf 08       		.sleb128 8
 3831 0de0 17       		.uleb128 0x17
 3832 0de1 AA000000 		.secrel32	LASF12
 3833 0de5 01       		.byte	0x1
 3834 0de6 9001     		.word	0x190
 3835 0de8 6F       		.byte	0x6f
 3836 0de9 22020000 		.long	0x222
 3837 0ded 02       		.byte	0x2
 3838 0dee 91       		.byte	0x91
 3839 0def 5C       		.sleb128 -36
 3840 0df0 1E       		.uleb128 0x1e
 3841 0df1 01       		.byte	0x1
 3842 0df2 CD000000 		.secrel32	LASF18
 3843 0df6 11       		.byte	0x11
 3844 0df7 00       		.byte	0
 3845 0df8 01       		.byte	0x1
 3846 0df9 39010000 		.long	0x139
 3847 0dfd 01       		.byte	0x1
 3848 0dfe 090E0000 		.long	0xe09
 3849 0e02 1F       		.uleb128 0x1f
 3850 0e03 4E0E0000 		.long	0xe4e
 3851 0e07 20       		.uleb128 0x20
 3852 0e08 00       		.byte	0
 3853 0e09 1A       		.uleb128 0x1a
 3854 0e0a 6F666673 		.ascii "offset\0"
 3854      657400
 3855 0e11 01       		.byte	0x1
 3856 0e12 9401     		.word	0x194
 3857 0e14 06       		.byte	0x6
 3858 0e15 39010000 		.long	0x139
 3859 0e19 02       		.byte	0x2
 3860 0e1a 91       		.byte	0x91
 3861 0e1b 6C       		.sleb128 -20
 3862 0e1c 19       		.uleb128 0x19
 3863 0e1d 11000000 		.secrel32	LASF16
 3864 0e21 01       		.byte	0x1
 3865 0e22 9501     		.word	0x195
 3866 0e24 0F       		.byte	0xf
 3867 0e25 800D0000 		.long	0xd80
 3868 0e29 02       		.byte	0x2
 3869 0e2a 91       		.byte	0x91
 3870 0e2b 68       		.sleb128 -24
 3871 0e2c 1A       		.uleb128 0x1a
 3872 0e2d 736B6970 		.ascii "skippedColumns\0"
 3872      70656443 
 3872      6F6C756D 
 3872      6E7300
 3873 0e3c 01       		.byte	0x1
 3874 0e3d B001     		.word	0x1b0
 3875 0e3f 06       		.byte	0x6
 3876 0e40 39010000 		.long	0x139
GAS LISTING C:\Users\jisu8\AppData\Local\Temp\ccX0Ht2c.s 			page 97


 3877 0e44 02       		.byte	0x2
 3878 0e45 91       		.byte	0x91
 3879 0e46 64       		.sleb128 -28
 3880 0e47 00       		.byte	0
 3881 0e48 09       		.uleb128 0x9
 3882 0e49 04       		.byte	0x4
 3883 0e4a 66080000 		.long	0x866
 3884 0e4e 09       		.uleb128 0x9
 3885 0e4f 04       		.byte	0x4
 3886 0e50 53010000 		.long	0x153
 3887 0e54 21       		.uleb128 0x21
 3888 0e55 49735661 		.ascii "IsValidBarcodeColumn\0"
 3888      6C696442 
 3888      6172636F 
 3888      6465436F 
 3888      6C756D6E 
 3889 0e6a 01       		.byte	0x1
 3890 0e6b 8A01     		.word	0x18a
 3891 0e6d 10       		.byte	0x10
 3892 0e6e 01       		.byte	0x1
 3893 0e6f 22020000 		.long	0x222
 3894 0e73 C70C0000 		.long	LFB22
 3895 0e77 EB0C0000 		.long	LFE22
 3896 0e7b 70000000 		.secrel32	LLST18
 3897 0e7f 01       		.byte	0x1
 3898 0e80 A50E0000 		.long	0xea5
 3899 0e84 17       		.uleb128 0x17
 3900 0e85 1A000000 		.secrel32	LASF11
 3901 0e89 01       		.byte	0x1
 3902 0e8a 8A01     		.word	0x18a
 3903 0e8c 3F       		.byte	0x3f
 3904 0e8d 480E0000 		.long	0xe48
 3905 0e91 02       		.byte	0x2
 3906 0e92 91       		.byte	0x91
 3907 0e93 00       		.sleb128 0
 3908 0e94 17       		.uleb128 0x17
 3909 0e95 BF000000 		.secrel32	LASF13
 3910 0e99 01       		.byte	0x1
 3911 0e9a 8A01     		.word	0x18a
 3912 0e9c 54       		.byte	0x54
 3913 0e9d 39010000 		.long	0x139
 3914 0ea1 02       		.byte	0x2
 3915 0ea2 91       		.byte	0x91
 3916 0ea3 04       		.sleb128 4
 3917 0ea4 00       		.byte	0
 3918 0ea5 1D       		.uleb128 0x1d
 3919 0ea6 4D657267 		.ascii "Merge\0"
 3919      6500
 3920 0eac 01       		.byte	0x1
 3921 0ead 7501     		.word	0x175
 3922 0eaf 10       		.byte	0x10
 3923 0eb0 01       		.byte	0x1
 3924 0eb1 22020000 		.long	0x222
 3925 0eb5 F10B0000 		.long	LFB21
 3926 0eb9 C70C0000 		.long	LFE21
 3927 0ebd A8000000 		.secrel32	LLST17
 3928 0ec1 01       		.byte	0x1
GAS LISTING C:\Users\jisu8\AppData\Local\Temp\ccX0Ht2c.s 			page 98


 3929 0ec2 790F0000 		.long	0xf79
 3930 0ec6 17       		.uleb128 0x17
 3931 0ec7 73000000 		.secrel32	LASF9
 3932 0ecb 01       		.byte	0x1
 3933 0ecc 7501     		.word	0x175
 3934 0ece 30       		.byte	0x30
 3935 0ecf 790F0000 		.long	0xf79
 3936 0ed3 02       		.byte	0x2
 3937 0ed4 91       		.byte	0x91
 3938 0ed5 00       		.sleb128 0
 3939 0ed6 17       		.uleb128 0x17
 3940 0ed7 00010000 		.secrel32	LASF10
 3941 0edb 01       		.byte	0x1
 3942 0edc 7501     		.word	0x175
 3943 0ede 62       		.byte	0x62
 3944 0edf 790F0000 		.long	0xf79
 3945 0ee3 02       		.byte	0x2
 3946 0ee4 91       		.byte	0x91
 3947 0ee5 04       		.sleb128 4
 3948 0ee6 17       		.uleb128 0x17
 3949 0ee7 2B010000 		.secrel32	LASF17
 3950 0eeb 01       		.byte	0x1
 3951 0eec 7501     		.word	0x175
 3952 0eee 8F       		.byte	0x8f
 3953 0eef 7F0F0000 		.long	0xf7f
 3954 0ef3 02       		.byte	0x2
 3955 0ef4 91       		.byte	0x91
 3956 0ef5 08       		.sleb128 8
 3957 0ef6 17       		.uleb128 0x17
 3958 0ef7 3B000000 		.secrel32	LASF8
 3959 0efb 01       		.byte	0x1
 3960 0efc 7501     		.word	0x175
 3961 0efe 9A       		.byte	0x9a
 3962 0eff 39010000 		.long	0x139
 3963 0f03 02       		.byte	0x2
 3964 0f04 91       		.byte	0x91
 3965 0f05 0C       		.sleb128 12
 3966 0f06 1C       		.uleb128 0x1c
 3967 0f07 0A0C0000 		.long	LBB14
 3968 0f0b C00C0000 		.long	LBE14
 3969 0f0f 1A       		.uleb128 0x1a
 3970 0f10 62617263 		.ascii "barcodeMetadata\0"
 3970      6F64654D 
 3970      65746164 
 3970      61746100 
 3971 0f20 01       		.byte	0x1
 3972 0f21 7901     		.word	0x179
 3973 0f23 15       		.byte	0x15
 3974 0f24 B3060000 		.long	0x6b3
 3975 0f28 02       		.byte	0x2
 3976 0f29 91       		.byte	0x91
 3977 0f2a 60       		.sleb128 -32
 3978 0f2b 1C       		.uleb128 0x1c
 3979 0f2c 3D0C0000 		.long	LBB15
 3980 0f30 C00C0000 		.long	LBE15
 3981 0f34 1A       		.uleb128 0x1a
 3982 0f35 6C656674 		.ascii "leftBox\0"
GAS LISTING C:\Users\jisu8\AppData\Local\Temp\ccX0Ht2c.s 			page 99


 3982      426F7800 
 3983 0f3d 01       		.byte	0x1
 3984 0f3e 7D01     		.word	0x17d
 3985 0f40 12       		.byte	0x12
 3986 0f41 5E050000 		.long	0x55e
 3987 0f45 03       		.byte	0x3
 3988 0f46 91       		.byte	0x91
 3989 0f47 FC7D     		.sleb128 -260
 3990 0f49 1A       		.uleb128 0x1a
 3991 0f4a 72696768 		.ascii "rightBox\0"
 3991      74426F78 
 3991      00
 3992 0f53 01       		.byte	0x1
 3993 0f54 7D01     		.word	0x17d
 3994 0f56 1B       		.byte	0x1b
 3995 0f57 5E050000 		.long	0x55e
 3996 0f5b 03       		.byte	0x3
 3997 0f5c 91       		.byte	0x91
 3998 0f5d C87E     		.sleb128 -184
 3999 0f5f 1A       		.uleb128 0x1a
 4000 0f60 6D657267 		.ascii "mergedBox\0"
 4000      6564426F 
 4000      7800
 4001 0f6a 01       		.byte	0x1
 4002 0f6b 7D01     		.word	0x17d
 4003 0f6d 25       		.byte	0x25
 4004 0f6e 5E050000 		.long	0x55e
 4005 0f72 03       		.byte	0x3
 4006 0f73 91       		.byte	0x91
 4007 0f74 947F     		.sleb128 -108
 4008 0f76 00       		.byte	0
 4009 0f77 00       		.byte	0
 4010 0f78 00       		.byte	0
 4011 0f79 09       		.uleb128 0x9
 4012 0f7a 04       		.byte	0x4
 4013 0f7b B1070000 		.long	0x7b1
 4014 0f7f 09       		.uleb128 0x9
 4015 0f80 04       		.byte	0x4
 4016 0f81 4C080000 		.long	0x84c
 4017 0f85 1D       		.uleb128 0x1d
 4018 0f86 41646A75 		.ascii "AdjustBoundingBox\0"
 4018      7374426F 
 4018      756E6469 
 4018      6E67426F 
 4018      7800
 4019 0f98 01       		.byte	0x1
 4020 0f99 3901     		.word	0x139
 4021 0f9b 10       		.byte	0x10
 4022 0f9c 01       		.byte	0x1
 4023 0f9d 22020000 		.long	0x222
 4024 0fa1 ED090000 		.long	LFB20
 4025 0fa5 F10B0000 		.long	LFE20
 4026 0fa9 E0000000 		.secrel32	LLST16
 4027 0fad 01       		.byte	0x1
 4028 0fae 4F110000 		.long	0x114f
 4029 0fb2 17       		.uleb128 0x17
 4030 0fb3 18010000 		.secrel32	LASF3
GAS LISTING C:\Users\jisu8\AppData\Local\Temp\ccX0Ht2c.s 			page 100


 4031 0fb7 01       		.byte	0x1
 4032 0fb8 3901     		.word	0x139
 4033 0fba 3C       		.byte	0x3c
 4034 0fbb 790F0000 		.long	0xf79
 4035 0fbf 02       		.byte	0x2
 4036 0fc0 91       		.byte	0x91
 4037 0fc1 00       		.sleb128 0
 4038 0fc2 17       		.uleb128 0x17
 4039 0fc3 2B010000 		.secrel32	LASF17
 4040 0fc7 01       		.byte	0x1
 4041 0fc8 3901     		.word	0x139
 4042 0fca 60       		.byte	0x60
 4043 0fcb 4F110000 		.long	0x114f
 4044 0fcf 02       		.byte	0x2
 4045 0fd0 91       		.byte	0x91
 4046 0fd1 04       		.sleb128 4
 4047 0fd2 17       		.uleb128 0x17
 4048 0fd3 3B000000 		.secrel32	LASF8
 4049 0fd7 01       		.byte	0x1
 4050 0fd8 3901     		.word	0x139
 4051 0fda 6B       		.byte	0x6b
 4052 0fdb 39010000 		.long	0x139
 4053 0fdf 02       		.byte	0x2
 4054 0fe0 91       		.byte	0x91
 4055 0fe1 08       		.sleb128 8
 4056 0fe2 1E       		.uleb128 0x1e
 4057 0fe3 01       		.byte	0x1
 4058 0fe4 CD000000 		.secrel32	LASF18
 4059 0fe8 11       		.byte	0x11
 4060 0fe9 00       		.byte	0
 4061 0fea 01       		.byte	0x1
 4062 0feb 39010000 		.long	0x139
 4063 0fef 01       		.byte	0x1
 4064 0ff0 FB0F0000 		.long	0xffb
 4065 0ff4 1F       		.uleb128 0x1f
 4066 0ff5 4E0E0000 		.long	0xe4e
 4067 0ff9 20       		.uleb128 0x20
 4068 0ffa 00       		.byte	0
 4069 0ffb 1A       		.uleb128 0x1a
 4070 0ffc 726F7748 		.ascii "rowHeights\0"
 4070      65696768 
 4070      747300
 4071 1007 01       		.byte	0x1
 4072 1008 4301     		.word	0x143
 4073 100a 06       		.byte	0x6
 4074 100b 55110000 		.long	0x1155
 4075 100f 03       		.byte	0x3
 4076 1010 91       		.byte	0x91
 4077 1011 C07C     		.sleb128 -448
 4078 1013 1A       		.uleb128 0x1a
 4079 1014 73697A65 		.ascii "size\0"
 4079      00
 4080 1019 01       		.byte	0x1
 4081 101a 4401     		.word	0x144
 4082 101c 06       		.byte	0x6
 4083 101d 39010000 		.long	0x139
 4084 1021 03       		.byte	0x3
GAS LISTING C:\Users\jisu8\AppData\Local\Temp\ccX0Ht2c.s 			page 101


 4085 1022 91       		.byte	0x91
 4086 1023 BC7C     		.sleb128 -452
 4087 1025 1A       		.uleb128 0x1a
 4088 1026 6D617852 		.ascii "maxRowHeight\0"
 4088      6F774865 
 4088      69676874 
 4088      00
 4089 1033 01       		.byte	0x1
 4090 1034 4B01     		.word	0x14b
 4091 1036 06       		.byte	0x6
 4092 1037 39010000 		.long	0x139
 4093 103b 02       		.byte	0x2
 4094 103c 91       		.byte	0x91
 4095 103d 54       		.sleb128 -44
 4096 103e 1A       		.uleb128 0x1a
 4097 103f 6D697373 		.ascii "missingStartRows\0"
 4097      696E6753 
 4097      74617274 
 4097      526F7773 
 4097      00
 4098 1050 01       		.byte	0x1
 4099 1051 4C01     		.word	0x14c
 4100 1053 06       		.byte	0x6
 4101 1054 39010000 		.long	0x139
 4102 1058 02       		.byte	0x2
 4103 1059 91       		.byte	0x91
 4104 105a 6C       		.sleb128 -20
 4105 105b 1A       		.uleb128 0x1a
 4106 105c 636F6465 		.ascii "codewords\0"
 4106      776F7264 
 4106      7300
 4107 1066 01       		.byte	0x1
 4108 1067 5601     		.word	0x156
 4109 1069 0F       		.byte	0xf
 4110 106a 800D0000 		.long	0xd80
 4111 106e 02       		.byte	0x2
 4112 106f 91       		.byte	0x91
 4113 1070 50       		.sleb128 -48
 4114 1071 1A       		.uleb128 0x1a
 4115 1072 6D697373 		.ascii "missingEndRows\0"
 4115      696E6745 
 4115      6E64526F 
 4115      777300
 4116 1081 01       		.byte	0x1
 4117 1082 5C01     		.word	0x15c
 4118 1084 06       		.byte	0x6
 4119 1085 39010000 		.long	0x139
 4120 1089 02       		.byte	0x2
 4121 108a 91       		.byte	0x91
 4122 108b 60       		.sleb128 -32
 4123 108c 1A       		.uleb128 0x1a
 4124 108d 626F7800 		.ascii "box\0"
 4125 1091 01       		.byte	0x1
 4126 1092 6901     		.word	0x169
 4127 1094 10       		.byte	0x10
 4128 1095 5E050000 		.long	0x55e
 4129 1099 03       		.byte	0x3
GAS LISTING C:\Users\jisu8\AppData\Local\Temp\ccX0Ht2c.s 			page 102


 4130 109a 91       		.byte	0x91
 4131 109b F07B     		.sleb128 -528
 4132 109d 19       		.uleb128 0x19
 4133 109e 8A000000 		.secrel32	LASF7
 4134 10a2 01       		.byte	0x1
 4135 10a3 6A01     		.word	0x16a
 4136 10a5 10       		.byte	0x10
 4137 10a6 5E050000 		.long	0x55e
 4138 10aa 03       		.byte	0x3
 4139 10ab 91       		.byte	0x91
 4140 10ac A47B     		.sleb128 -604
 4141 10ae 1B       		.uleb128 0x1b
 4142 10af 850A0000 		.long	LBB9
 4143 10b3 C20A0000 		.long	LBE9
 4144 10b7 CA100000 		.long	0x10ca
 4145 10bb 1A       		.uleb128 0x1a
 4146 10bc 6900     		.ascii "i\0"
 4147 10be 01       		.byte	0x1
 4148 10bf 4D01     		.word	0x14d
 4149 10c1 0B       		.byte	0xb
 4150 10c2 39010000 		.long	0x139
 4151 10c6 02       		.byte	0x2
 4152 10c7 91       		.byte	0x91
 4153 10c8 68       		.sleb128 -24
 4154 10c9 00       		.byte	0
 4155 10ca 1B       		.uleb128 0x1b
 4156 10cb CB0A0000 		.long	LBB10
 4157 10cf FC0A0000 		.long	LBE10
 4158 10d3 E8100000 		.long	0x10e8
 4159 10d7 1A       		.uleb128 0x1a
 4160 10d8 726F7700 		.ascii "row\0"
 4161 10dc 01       		.byte	0x1
 4162 10dd 5701     		.word	0x157
 4163 10df 0B       		.byte	0xb
 4164 10e0 39010000 		.long	0x139
 4165 10e4 02       		.byte	0x2
 4166 10e5 91       		.byte	0x91
 4167 10e6 64       		.sleb128 -28
 4168 10e7 00       		.byte	0
 4169 10e8 1B       		.uleb128 0x1b
 4170 10e9 030B0000 		.long	LBB11
 4171 10ed 400B0000 		.long	LBE11
 4172 10f1 06110000 		.long	0x1106
 4173 10f5 1A       		.uleb128 0x1a
 4174 10f6 726F7700 		.ascii "row\0"
 4175 10fa 01       		.byte	0x1
 4176 10fb 5D01     		.word	0x15d
 4177 10fd 0B       		.byte	0xb
 4178 10fe 39010000 		.long	0x139
 4179 1102 02       		.byte	0x2
 4180 1103 91       		.byte	0x91
 4181 1104 5C       		.sleb128 -36
 4182 1105 00       		.byte	0
 4183 1106 1B       		.uleb128 0x1b
 4184 1107 400B0000 		.long	LBB12
 4185 110b 730B0000 		.long	LBE12
 4186 110f 24110000 		.long	0x1124
GAS LISTING C:\Users\jisu8\AppData\Local\Temp\ccX0Ht2c.s 			page 103


 4187 1113 1A       		.uleb128 0x1a
 4188 1114 726F7700 		.ascii "row\0"
 4189 1118 01       		.byte	0x1
 4190 1119 6501     		.word	0x165
 4191 111b 0B       		.byte	0xb
 4192 111c 39010000 		.long	0x139
 4193 1120 02       		.byte	0x2
 4194 1121 91       		.byte	0x91
 4195 1122 58       		.sleb128 -40
 4196 1123 00       		.byte	0
 4197 1124 1C       		.uleb128 0x1c
 4198 1125 8A0B0000 		.long	LBB13
 4199 1129 E20B0000 		.long	LBE13
 4200 112d 22       		.uleb128 0x22
 4201 112e 01       		.byte	0x1
 4202 112f 69734C65 		.ascii "isLeftRowIndicator\0"
 4202      6674526F 
 4202      77496E64 
 4202      69636174 
 4202      6F7200
 4203 1142 01       		.byte	0x1
 4204 1143 6B01     		.word	0x16b
 4205 1145 45       		.byte	0x45
 4206 1146 39010000 		.long	0x139
 4207 114a 01       		.byte	0x1
 4208 114b 20       		.uleb128 0x20
 4209 114c 00       		.byte	0
 4210 114d 00       		.byte	0
 4211 114e 00       		.byte	0
 4212 114f 09       		.uleb128 0x9
 4213 1150 04       		.byte	0x4
 4214 1151 5E050000 		.long	0x55e
 4215 1155 0C       		.uleb128 0xc
 4216 1156 39010000 		.long	0x139
 4217 115a 65110000 		.long	0x1165
 4218 115e 10       		.uleb128 0x10
 4219 115f D8000000 		.long	0xd8
 4220 1163 63       		.byte	0x63
 4221 1164 00       		.byte	0
 4222 1165 21       		.uleb128 0x21
 4223 1166 4765744D 		.ascii "GetMax\0"
 4223      617800
 4224 116d 01       		.byte	0x1
 4225 116e 2B01     		.word	0x12b
 4226 1170 0C       		.byte	0xc
 4227 1171 01       		.byte	0x1
 4228 1172 39010000 		.long	0x139
 4229 1176 9C090000 		.long	LFB19
 4230 117a ED090000 		.long	LFE19
 4231 117e 18010000 		.secrel32	LLST15
 4232 1182 01       		.byte	0x1
 4233 1183 D7110000 		.long	0x11d7
 4234 1187 18       		.uleb128 0x18
 4235 1188 62756666 		.ascii "buffer\0"
 4235      657200
 4236 118f 01       		.byte	0x1
 4237 1190 2B01     		.word	0x12b
GAS LISTING C:\Users\jisu8\AppData\Local\Temp\ccX0Ht2c.s 			page 104


 4238 1192 19       		.byte	0x19
 4239 1193 C0010000 		.long	0x1c0
 4240 1197 02       		.byte	0x2
 4241 1198 91       		.byte	0x91
 4242 1199 00       		.sleb128 0
 4243 119a 17       		.uleb128 0x17
 4244 119b 3B000000 		.secrel32	LASF8
 4245 119f 01       		.byte	0x1
 4246 11a0 2B01     		.word	0x12b
 4247 11a2 25       		.byte	0x25
 4248 11a3 39010000 		.long	0x139
 4249 11a7 02       		.byte	0x2
 4250 11a8 91       		.byte	0x91
 4251 11a9 04       		.sleb128 4
 4252 11aa 1A       		.uleb128 0x1a
 4253 11ab 7265745F 		.ascii "ret_max\0"
 4253      6D617800 
 4254 11b3 01       		.byte	0x1
 4255 11b4 2D01     		.word	0x12d
 4256 11b6 06       		.byte	0x6
 4257 11b7 39010000 		.long	0x139
 4258 11bb 02       		.byte	0x2
 4259 11bc 91       		.byte	0x91
 4260 11bd 74       		.sleb128 -12
 4261 11be 1C       		.uleb128 0x1c
 4262 11bf A9090000 		.long	LBB8
 4263 11c3 E8090000 		.long	LBE8
 4264 11c7 1A       		.uleb128 0x1a
 4265 11c8 6900     		.ascii "i\0"
 4266 11ca 01       		.byte	0x1
 4267 11cb 2F01     		.word	0x12f
 4268 11cd 0A       		.byte	0xa
 4269 11ce 39010000 		.long	0x139
 4270 11d2 02       		.byte	0x2
 4271 11d3 91       		.byte	0x91
 4272 11d4 70       		.sleb128 -16
 4273 11d5 00       		.byte	0
 4274 11d6 00       		.byte	0
 4275 11d7 23       		.uleb128 0x23
 4276 11d8 47657442 		.ascii "GetBarcodeMetadata\0"
 4276      6172636F 
 4276      64654D65 
 4276      74616461 
 4276      746100
 4277 11eb 01       		.byte	0x1
 4278 11ec FF       		.byte	0xff
 4279 11ed 10       		.byte	0x10
 4280 11ee 01       		.byte	0x1
 4281 11ef 22020000 		.long	0x222
 4282 11f3 40080000 		.long	LFB18
 4283 11f7 9C090000 		.long	LFE18
 4284 11fb 50010000 		.secrel32	LLST14
 4285 11ff 01       		.byte	0x1
 4286 1200 9B120000 		.long	0x129b
 4287 1204 24       		.uleb128 0x24
 4288 1205 73000000 		.secrel32	LASF9
 4289 1209 01       		.byte	0x1
GAS LISTING C:\Users\jisu8\AppData\Local\Temp\ccX0Ht2c.s 			page 105


 4290 120a FF       		.byte	0xff
 4291 120b 3D       		.byte	0x3d
 4292 120c 790F0000 		.long	0xf79
 4293 1210 02       		.byte	0x2
 4294 1211 91       		.byte	0x91
 4295 1212 00       		.sleb128 0
 4296 1213 24       		.uleb128 0x24
 4297 1214 00010000 		.secrel32	LASF10
 4298 1218 01       		.byte	0x1
 4299 1219 FF       		.byte	0xff
 4300 121a 6F       		.byte	0x6f
 4301 121b 790F0000 		.long	0xf79
 4302 121f 02       		.byte	0x2
 4303 1220 91       		.byte	0x91
 4304 1221 04       		.sleb128 4
 4305 1222 24       		.uleb128 0x24
 4306 1223 2B010000 		.secrel32	LASF17
 4307 1227 01       		.byte	0x1
 4308 1228 FF       		.byte	0xff
 4309 1229 9C       		.byte	0x9c
 4310 122a 9B120000 		.long	0x129b
 4311 122e 02       		.byte	0x2
 4312 122f 91       		.byte	0x91
 4313 1230 08       		.sleb128 8
 4314 1231 24       		.uleb128 0x24
 4315 1232 3B000000 		.secrel32	LASF8
 4316 1236 01       		.byte	0x1
 4317 1237 FF       		.byte	0xff
 4318 1238 A8       		.byte	0xa8
 4319 1239 39010000 		.long	0x139
 4320 123d 02       		.byte	0x2
 4321 123e 91       		.byte	0x91
 4322 123f 0C       		.sleb128 12
 4323 1240 1E       		.uleb128 0x1e
 4324 1241 01       		.byte	0x1
 4325 1242 CD000000 		.secrel32	LASF18
 4326 1246 11       		.byte	0x11
 4327 1247 00       		.byte	0
 4328 1248 01       		.byte	0x1
 4329 1249 39010000 		.long	0x139
 4330 124d 01       		.byte	0x1
 4331 124e 59120000 		.long	0x1259
 4332 1252 1F       		.uleb128 0x1f
 4333 1253 4E0E0000 		.long	0xe4e
 4334 1257 20       		.uleb128 0x20
 4335 1258 00       		.byte	0
 4336 1259 1A       		.uleb128 0x1a
 4337 125a 6C656674 		.ascii "leftBarcodeMetadata\0"
 4337      42617263 
 4337      6F64654D 
 4337      65746164 
 4337      61746100 
 4338 126e 01       		.byte	0x1
 4339 126f 0301     		.word	0x103
 4340 1271 14       		.byte	0x14
 4341 1272 B3060000 		.long	0x6b3
 4342 1276 02       		.byte	0x2
GAS LISTING C:\Users\jisu8\AppData\Local\Temp\ccX0Ht2c.s 			page 106


 4343 1277 91       		.byte	0x91
 4344 1278 60       		.sleb128 -32
 4345 1279 1A       		.uleb128 0x1a
 4346 127a 72696768 		.ascii "rightBarcodeMetadata\0"
 4346      74426172 
 4346      636F6465 
 4346      4D657461 
 4346      64617461 
 4347 128f 01       		.byte	0x1
 4348 1290 0A01     		.word	0x10a
 4349 1292 14       		.byte	0x14
 4350 1293 B3060000 		.long	0x6b3
 4351 1297 02       		.byte	0x2
 4352 1298 91       		.byte	0x91
 4353 1299 50       		.sleb128 -48
 4354 129a 00       		.byte	0
 4355 129b 09       		.uleb128 0x9
 4356 129c 04       		.byte	0x4
 4357 129d B3060000 		.long	0x6b3
 4358 12a1 25       		.uleb128 0x25
 4359 12a2 01       		.byte	0x1
 4360 12a3 726F7743 		.ascii "rowCount\0"
 4360      6F756E74 
 4360      00
 4361 12ac 01       		.byte	0x1
 4362 12ad FB       		.byte	0xfb
 4363 12ae 05       		.byte	0x5
 4364 12af 01       		.byte	0x1
 4365 12b0 39010000 		.long	0x139
 4366 12b4 2D080000 		.long	LFB17
 4367 12b8 40080000 		.long	LFE17
 4368 12bc 88010000 		.secrel32	LLST13
 4369 12c0 01       		.byte	0x1
 4370 12c1 D5120000 		.long	0x12d5
 4371 12c5 24       		.uleb128 0x24
 4372 12c6 5D000000 		.secrel32	LASF19
 4373 12ca 01       		.byte	0x1
 4374 12cb FB       		.byte	0xfb
 4375 12cc 22       		.byte	0x22
 4376 12cd 9B120000 		.long	0x129b
 4377 12d1 02       		.byte	0x2
 4378 12d2 91       		.byte	0x91
 4379 12d3 00       		.sleb128 0
 4380 12d4 00       		.byte	0
 4381 12d5 26       		.uleb128 0x26
 4382 12d6 6572726F 		.ascii "errorCorrectionLevel\0"
 4382      72436F72 
 4382      72656374 
 4382      696F6E4C 
 4382      6576656C 
 4383 12eb 01       		.byte	0x1
 4384 12ec F7       		.byte	0xf7
 4385 12ed 0C       		.byte	0xc
 4386 12ee 01       		.byte	0x1
 4387 12ef 39010000 		.long	0x139
 4388 12f3 22080000 		.long	LFB16
 4389 12f7 2D080000 		.long	LFE16
GAS LISTING C:\Users\jisu8\AppData\Local\Temp\ccX0Ht2c.s 			page 107


 4390 12fb C0010000 		.secrel32	LLST12
 4391 12ff 01       		.byte	0x1
 4392 1300 14130000 		.long	0x1314
 4393 1304 24       		.uleb128 0x24
 4394 1305 5D000000 		.secrel32	LASF19
 4395 1309 01       		.byte	0x1
 4396 130a F7       		.byte	0xf7
 4397 130b 35       		.byte	0x35
 4398 130c 9B120000 		.long	0x129b
 4399 1310 02       		.byte	0x2
 4400 1311 91       		.byte	0x91
 4401 1312 00       		.sleb128 0
 4402 1313 00       		.byte	0
 4403 1314 25       		.uleb128 0x25
 4404 1315 01       		.byte	0x1
 4405 1316 636F6C75 		.ascii "columnCount\0"
 4405      6D6E436F 
 4405      756E7400 
 4406 1322 01       		.byte	0x1
 4407 1323 F3       		.byte	0xf3
 4408 1324 05       		.byte	0x5
 4409 1325 01       		.byte	0x1
 4410 1326 39010000 		.long	0x139
 4411 132a 18080000 		.long	LFB15
 4412 132e 22080000 		.long	LFE15
 4413 1332 F8010000 		.secrel32	LLST11
 4414 1336 01       		.byte	0x1
 4415 1337 4B130000 		.long	0x134b
 4416 133b 24       		.uleb128 0x24
 4417 133c 5D000000 		.secrel32	LASF19
 4418 1340 01       		.byte	0x1
 4419 1341 F3       		.byte	0xf3
 4420 1342 25       		.byte	0x25
 4421 1343 9B120000 		.long	0x129b
 4422 1347 02       		.byte	0x2
 4423 1348 91       		.byte	0x91
 4424 1349 00       		.sleb128 0
 4425 134a 00       		.byte	0
 4426 134b 27       		.uleb128 0x27
 4427 134c 4D657461 		.ascii "Metadata_Init\0"
 4427      64617461 
 4427      5F496E69 
 4427      7400
 4428 135a 01       		.byte	0x1
 4429 135b EC       		.byte	0xec
 4430 135c 0D       		.byte	0xd
 4431 135d 01       		.byte	0x1
 4432 135e EB070000 		.long	LFB14
 4433 1362 18080000 		.long	LFE14
 4434 1366 30020000 		.secrel32	LLST10
 4435 136a 01       		.byte	0x1
 4436 136b 7F130000 		.long	0x137f
 4437 136f 24       		.uleb128 0x24
 4438 1370 5D000000 		.secrel32	LASF19
 4439 1374 01       		.byte	0x1
 4440 1375 EC       		.byte	0xec
 4441 1376 2F       		.byte	0x2f
GAS LISTING C:\Users\jisu8\AppData\Local\Temp\ccX0Ht2c.s 			page 108


 4442 1377 9B120000 		.long	0x129b
 4443 137b 02       		.byte	0x2
 4444 137c 91       		.byte	0x91
 4445 137d 00       		.sleb128 0
 4446 137e 00       		.byte	0
 4447 137f 23       		.uleb128 0x23
 4448 1380 47657452 		.ascii "GetRowIndicatorColumn\0"
 4448      6F77496E 
 4448      64696361 
 4448      746F7243 
 4448      6F6C756D 
 4449 1396 01       		.byte	0x1
 4450 1397 C8       		.byte	0xc8
 4451 1398 0C       		.byte	0xc
 4452 1399 01       		.byte	0x1
 4453 139a 39010000 		.long	0x139
 4454 139e 71060000 		.long	LFB13
 4455 13a2 EB070000 		.long	LFE13
 4456 13a6 68020000 		.secrel32	LLST9
 4457 13aa 01       		.byte	0x1
 4458 13ab B9140000 		.long	0x14b9
 4459 13af 24       		.uleb128 0x24
 4460 13b0 42000000 		.secrel32	LASF4
 4461 13b4 01       		.byte	0x1
 4462 13b5 C8       		.byte	0xc8
 4463 13b6 36       		.byte	0x36
 4464 13b7 7A0D0000 		.long	0xd7a
 4465 13bb 02       		.byte	0x2
 4466 13bc 91       		.byte	0x91
 4467 13bd 00       		.sleb128 0
 4468 13be 24       		.uleb128 0x24
 4469 13bf 8A000000 		.secrel32	LASF7
 4470 13c3 01       		.byte	0x1
 4471 13c4 C8       		.byte	0xc8
 4472 13c5 53       		.byte	0x53
 4473 13c6 B9140000 		.long	0x14b9
 4474 13ca 02       		.byte	0x2
 4475 13cb 91       		.byte	0x91
 4476 13cc 04       		.sleb128 4
 4477 13cd 28       		.uleb128 0x28
 4478 13ce 73746172 		.ascii "startPoint\0"
 4478      74506F69 
 4478      6E7400
 4479 13d9 01       		.byte	0x1
 4480 13da C8       		.byte	0xc8
 4481 13db 76       		.byte	0x76
 4482 13dc BF140000 		.long	0x14bf
 4483 13e0 02       		.byte	0x2
 4484 13e1 91       		.byte	0x91
 4485 13e2 08       		.sleb128 8
 4486 13e3 24       		.uleb128 0x24
 4487 13e4 AA000000 		.secrel32	LASF12
 4488 13e8 01       		.byte	0x1
 4489 13e9 C8       		.byte	0xc8
 4490 13ea 8A       		.byte	0x8a
 4491 13eb 22020000 		.long	0x222
 4492 13ef 02       		.byte	0x2
GAS LISTING C:\Users\jisu8\AppData\Local\Temp\ccX0Ht2c.s 			page 109


 4493 13f0 91       		.byte	0x91
 4494 13f1 4C       		.sleb128 -52
 4495 13f2 24       		.uleb128 0x24
 4496 13f3 2A000000 		.secrel32	LASF5
 4497 13f7 01       		.byte	0x1
 4498 13f8 C8       		.byte	0xc8
 4499 13f9 9B       		.byte	0x9b
 4500 13fa 39010000 		.long	0x139
 4501 13fe 02       		.byte	0x2
 4502 13ff 91       		.byte	0x91
 4503 1400 10       		.sleb128 16
 4504 1401 24       		.uleb128 0x24
 4505 1402 00000000 		.secrel32	LASF6
 4506 1406 01       		.byte	0x1
 4507 1407 C8       		.byte	0xc8
 4508 1408 B1       		.byte	0xb1
 4509 1409 39010000 		.long	0x139
 4510 140d 02       		.byte	0x2
 4511 140e 91       		.byte	0x91
 4512 140f 14       		.sleb128 20
 4513 1410 24       		.uleb128 0x24
 4514 1411 DE000000 		.secrel32	LASF20
 4515 1415 01       		.byte	0x1
 4516 1416 C8       		.byte	0xc8
 4517 1417 DD       		.byte	0xdd
 4518 1418 790F0000 		.long	0xf79
 4519 141c 02       		.byte	0x2
 4520 141d 91       		.byte	0x91
 4521 141e 18       		.sleb128 24
 4522 141f 29       		.uleb128 0x29
 4523 1420 3B000000 		.secrel32	LASF8
 4524 1424 01       		.byte	0x1
 4525 1425 CA       		.byte	0xca
 4526 1426 06       		.byte	0x6
 4527 1427 39010000 		.long	0x139
 4528 142b 02       		.byte	0x2
 4529 142c 91       		.byte	0x91
 4530 142d 6C       		.sleb128 -20
 4531 142e 1E       		.uleb128 0x1e
 4532 142f 01       		.byte	0x1
 4533 1430 CD000000 		.secrel32	LASF18
 4534 1434 11       		.byte	0x11
 4535 1435 00       		.byte	0
 4536 1436 01       		.byte	0x1
 4537 1437 39010000 		.long	0x139
 4538 143b 01       		.byte	0x1
 4539 143c 47140000 		.long	0x1447
 4540 1440 1F       		.uleb128 0x1f
 4541 1441 4E0E0000 		.long	0xe4e
 4542 1445 20       		.uleb128 0x20
 4543 1446 00       		.byte	0
 4544 1447 1C       		.uleb128 0x1c
 4545 1448 B8060000 		.long	LBB4
 4546 144c E3070000 		.long	LBE4
 4547 1450 13       		.uleb128 0x13
 4548 1451 6900     		.ascii "i\0"
 4549 1453 01       		.byte	0x1
GAS LISTING C:\Users\jisu8\AppData\Local\Temp\ccX0Ht2c.s 			page 110


 4550 1454 CF       		.byte	0xcf
 4551 1455 0B       		.byte	0xb
 4552 1456 39010000 		.long	0x139
 4553 145a 02       		.byte	0x2
 4554 145b 91       		.byte	0x91
 4555 145c 68       		.sleb128 -24
 4556 145d 1C       		.uleb128 0x1c
 4557 145e C4060000 		.long	LBB5
 4558 1462 D5070000 		.long	LBE5
 4559 1466 29       		.uleb128 0x29
 4560 1467 32010000 		.secrel32	LASF21
 4561 146b 01       		.byte	0x1
 4562 146c D1       		.byte	0xd1
 4563 146d 07       		.byte	0x7
 4564 146e 39010000 		.long	0x139
 4565 1472 02       		.byte	0x2
 4566 1473 91       		.byte	0x91
 4567 1474 5C       		.sleb128 -36
 4568 1475 29       		.uleb128 0x29
 4569 1476 9E000000 		.secrel32	LASF14
 4570 147a 01       		.byte	0x1
 4571 147b D2       		.byte	0xd2
 4572 147c 07       		.byte	0x7
 4573 147d 39010000 		.long	0x139
 4574 1481 02       		.byte	0x2
 4575 1482 91       		.byte	0x91
 4576 1483 64       		.sleb128 -28
 4577 1484 1C       		.uleb128 0x1c
 4578 1485 F6060000 		.long	LBB6
 4579 1489 D5070000 		.long	LBE6
 4580 148d 29       		.uleb128 0x29
 4581 148e B6000000 		.secrel32	LASF15
 4582 1492 01       		.byte	0x1
 4583 1493 D3       		.byte	0xd3
 4584 1494 0C       		.byte	0xc
 4585 1495 39010000 		.long	0x139
 4586 1499 02       		.byte	0x2
 4587 149a 91       		.byte	0x91
 4588 149b 60       		.sleb128 -32
 4589 149c 1C       		.uleb128 0x1c
 4590 149d 0A070000 		.long	LBB7
 4591 14a1 B5070000 		.long	LBE7
 4592 14a5 29       		.uleb128 0x29
 4593 14a6 11000000 		.secrel32	LASF16
 4594 14aa 01       		.byte	0x1
 4595 14ab D5       		.byte	0xd5
 4596 14ac 11       		.byte	0x11
 4597 14ad 800D0000 		.long	0xd80
 4598 14b1 02       		.byte	0x2
 4599 14b2 91       		.byte	0x91
 4600 14b3 58       		.sleb128 -40
 4601 14b4 00       		.byte	0
 4602 14b5 00       		.byte	0
 4603 14b6 00       		.byte	0
 4604 14b7 00       		.byte	0
 4605 14b8 00       		.byte	0
 4606 14b9 09       		.uleb128 0x9
GAS LISTING C:\Users\jisu8\AppData\Local\Temp\ccX0Ht2c.s 			page 111


 4607 14ba 04       		.byte	0x4
 4608 14bb 74050000 		.long	0x574
 4609 14bf 09       		.uleb128 0x9
 4610 14c0 04       		.byte	0x4
 4611 14c1 46040000 		.long	0x446
 4612 14c5 27       		.uleb128 0x27
 4613 14c6 73657443 		.ascii "setCodeword\0"
 4613      6F646577 
 4613      6F726400 
 4614 14d2 01       		.byte	0x1
 4615 14d3 B1       		.byte	0xb1
 4616 14d4 0D       		.byte	0xd
 4617 14d5 01       		.byte	0x1
 4618 14d6 FD040000 		.long	LFB12
 4619 14da 71060000 		.long	LFE12
 4620 14de A0020000 		.secrel32	LLST8
 4621 14e2 01       		.byte	0x1
 4622 14e3 35150000 		.long	0x1535
 4623 14e7 24       		.uleb128 0x24
 4624 14e8 B6000000 		.secrel32	LASF15
 4625 14ec 01       		.byte	0x1
 4626 14ed B1       		.byte	0xb1
 4627 14ee 1D       		.byte	0x1d
 4628 14ef 39010000 		.long	0x139
 4629 14f3 02       		.byte	0x2
 4630 14f4 91       		.byte	0x91
 4631 14f5 00       		.sleb128 0
 4632 14f6 24       		.uleb128 0x24
 4633 14f7 11000000 		.secrel32	LASF16
 4634 14fb 01       		.byte	0x1
 4635 14fc B1       		.byte	0xb1
 4636 14fd 34       		.byte	0x34
 4637 14fe 800D0000 		.long	0xd80
 4638 1502 02       		.byte	0x2
 4639 1503 91       		.byte	0x91
 4640 1504 04       		.sleb128 4
 4641 1505 24       		.uleb128 0x24
 4642 1506 DE000000 		.secrel32	LASF20
 4643 150a 01       		.byte	0x1
 4644 150b B1       		.byte	0xb1
 4645 150c 58       		.byte	0x58
 4646 150d 790F0000 		.long	0xf79
 4647 1511 02       		.byte	0x2
 4648 1512 91       		.byte	0x91
 4649 1513 08       		.sleb128 8
 4650 1514 28       		.uleb128 0x28
 4651 1515 656D7074 		.ascii "empty\0"
 4651      7900
 4652 151b 01       		.byte	0x1
 4653 151c B1       		.byte	0xb1
 4654 151d 73       		.byte	0x73
 4655 151e 22020000 		.long	0x222
 4656 1522 02       		.byte	0x2
 4657 1523 91       		.byte	0x91
 4658 1524 60       		.sleb128 -32
 4659 1525 13       		.uleb128 0x13
 4660 1526 69647800 		.ascii "idx\0"
GAS LISTING C:\Users\jisu8\AppData\Local\Temp\ccX0Ht2c.s 			page 112


 4661 152a 01       		.byte	0x1
 4662 152b B3       		.byte	0xb3
 4663 152c 06       		.byte	0x6
 4664 152d 39010000 		.long	0x139
 4665 1531 02       		.byte	0x2
 4666 1532 91       		.byte	0x91
 4667 1533 70       		.sleb128 -16
 4668 1534 00       		.byte	0
 4669 1535 23       		.uleb128 0x23
 4670 1536 44657465 		.ascii "DetectCodeword\0"
 4670      6374436F 
 4670      6465776F 
 4670      726400
 4671 1545 01       		.byte	0x1
 4672 1546 80       		.byte	0x80
 4673 1547 15       		.byte	0x15
 4674 1548 01       		.byte	0x1
 4675 1549 800D0000 		.long	0xd80
 4676 154d 64030000 		.long	LFB11
 4677 1551 FD040000 		.long	LFE11
 4678 1555 D8020000 		.secrel32	LLST7
 4679 1559 01       		.byte	0x1
 4680 155a 72160000 		.long	0x1672
 4681 155e 24       		.uleb128 0x24
 4682 155f 42000000 		.secrel32	LASF4
 4683 1563 01       		.byte	0x1
 4684 1564 80       		.byte	0x80
 4685 1565 38       		.byte	0x38
 4686 1566 7A0D0000 		.long	0xd7a
 4687 156a 02       		.byte	0x2
 4688 156b 91       		.byte	0x91
 4689 156c 00       		.sleb128 0
 4690 156d 24       		.uleb128 0x24
 4691 156e 53000000 		.secrel32	LASF22
 4692 1572 01       		.byte	0x1
 4693 1573 80       		.byte	0x80
 4694 1574 43       		.byte	0x43
 4695 1575 39010000 		.long	0x139
 4696 1579 02       		.byte	0x2
 4697 157a 91       		.byte	0x91
 4698 157b 04       		.sleb128 4
 4699 157c 24       		.uleb128 0x24
 4700 157d D4000000 		.secrel32	LASF23
 4701 1581 01       		.byte	0x1
 4702 1582 80       		.byte	0x80
 4703 1583 52       		.byte	0x52
 4704 1584 39010000 		.long	0x139
 4705 1588 02       		.byte	0x2
 4706 1589 91       		.byte	0x91
 4707 158a 08       		.sleb128 8
 4708 158b 24       		.uleb128 0x24
 4709 158c AA000000 		.secrel32	LASF12
 4710 1590 01       		.byte	0x1
 4711 1591 80       		.byte	0x80
 4712 1592 65       		.byte	0x65
 4713 1593 22020000 		.long	0x222
 4714 1597 03       		.byte	0x3
GAS LISTING C:\Users\jisu8\AppData\Local\Temp\ccX0Ht2c.s 			page 113


 4715 1598 91       		.byte	0x91
 4716 1599 AC7F     		.sleb128 -84
 4717 159b 24       		.uleb128 0x24
 4718 159c 9E000000 		.secrel32	LASF14
 4719 15a0 01       		.byte	0x1
 4720 15a1 80       		.byte	0x80
 4721 15a2 76       		.byte	0x76
 4722 15a3 39010000 		.long	0x139
 4723 15a7 02       		.byte	0x2
 4724 15a8 91       		.byte	0x91
 4725 15a9 10       		.sleb128 16
 4726 15aa 24       		.uleb128 0x24
 4727 15ab B6000000 		.secrel32	LASF15
 4728 15af 01       		.byte	0x1
 4729 15b0 80       		.byte	0x80
 4730 15b1 87       		.byte	0x87
 4731 15b2 39010000 		.long	0x139
 4732 15b6 02       		.byte	0x2
 4733 15b7 91       		.byte	0x91
 4734 15b8 14       		.sleb128 20
 4735 15b9 24       		.uleb128 0x24
 4736 15ba 2A000000 		.secrel32	LASF5
 4737 15be 01       		.byte	0x1
 4738 15bf 80       		.byte	0x80
 4739 15c0 95       		.byte	0x95
 4740 15c1 39010000 		.long	0x139
 4741 15c5 02       		.byte	0x2
 4742 15c6 91       		.byte	0x91
 4743 15c7 18       		.sleb128 24
 4744 15c8 24       		.uleb128 0x24
 4745 15c9 00000000 		.secrel32	LASF6
 4746 15cd 01       		.byte	0x1
 4747 15ce 80       		.byte	0x80
 4748 15cf AB       		.byte	0xab
 4749 15d0 39010000 		.long	0x139
 4750 15d4 02       		.byte	0x2
 4751 15d5 91       		.byte	0x91
 4752 15d6 1C       		.sleb128 28
 4753 15d7 1E       		.uleb128 0x1e
 4754 15d8 01       		.byte	0x1
 4755 15d9 CD000000 		.secrel32	LASF18
 4756 15dd 11       		.byte	0x11
 4757 15de 00       		.byte	0
 4758 15df 01       		.byte	0x1
 4759 15e0 39010000 		.long	0x139
 4760 15e4 01       		.byte	0x1
 4761 15e5 F0150000 		.long	0x15f0
 4762 15e9 1F       		.uleb128 0x1f
 4763 15ea 4E0E0000 		.long	0xe4e
 4764 15ee 20       		.uleb128 0x20
 4765 15ef 00       		.byte	0
 4766 15f0 29       		.uleb128 0x29
 4767 15f1 F1000000 		.secrel32	LASF24
 4768 15f5 01       		.byte	0x1
 4769 15f6 8A       		.byte	0x8a
 4770 15f7 06       		.byte	0x6
 4771 15f8 E60A0000 		.long	0xae6
GAS LISTING C:\Users\jisu8\AppData\Local\Temp\ccX0Ht2c.s 			page 114


 4772 15fc 03       		.byte	0x3
 4773 15fd 91       		.byte	0x91
 4774 15fe BC7F     		.sleb128 -68
 4775 1600 29       		.uleb128 0x29
 4776 1601 3B000000 		.secrel32	LASF8
 4777 1605 01       		.byte	0x1
 4778 1606 8B       		.byte	0x8b
 4779 1607 06       		.byte	0x6
 4780 1608 39010000 		.long	0x139
 4781 160c 02       		.byte	0x2
 4782 160d 91       		.byte	0x91
 4783 160e 68       		.sleb128 -24
 4784 160f 13       		.uleb128 0x13
 4785 1610 656E6443 		.ascii "endColumn\0"
 4785      6F6C756D 
 4785      6E00
 4786 161a 01       		.byte	0x1
 4787 161b 90       		.byte	0x90
 4788 161c 06       		.byte	0x6
 4789 161d 39010000 		.long	0x139
 4790 1621 02       		.byte	0x2
 4791 1622 91       		.byte	0x91
 4792 1623 6C       		.sleb128 -20
 4793 1624 13       		.uleb128 0x13
 4794 1625 636F6465 		.ascii "codewordBitCount\0"
 4794      776F7264 
 4794      42697443 
 4794      6F756E74 
 4794      00
 4795 1636 01       		.byte	0x1
 4796 1637 91       		.byte	0x91
 4797 1638 06       		.byte	0x6
 4798 1639 39010000 		.long	0x139
 4799 163d 02       		.byte	0x2
 4800 163e 91       		.byte	0x91
 4801 163f 64       		.sleb128 -28
 4802 1640 13       		.uleb128 0x13
 4803 1641 6465636F 		.ascii "decodedValue\0"
 4803      64656456 
 4803      616C7565 
 4803      00
 4804 164e 01       		.byte	0x1
 4805 164f A5       		.byte	0xa5
 4806 1650 06       		.byte	0x6
 4807 1651 39010000 		.long	0x139
 4808 1655 02       		.byte	0x2
 4809 1656 91       		.byte	0x91
 4810 1657 60       		.sleb128 -32
 4811 1658 1C       		.uleb128 0x1c
 4812 1659 B6040000 		.long	LBB3
 4813 165d F6040000 		.long	LBE3
 4814 1661 29       		.uleb128 0x29
 4815 1662 11000000 		.secrel32	LASF16
 4816 1666 01       		.byte	0x1
 4817 1667 A8       		.byte	0xa8
 4818 1668 07       		.byte	0x7
 4819 1669 39010000 		.long	0x139
GAS LISTING C:\Users\jisu8\AppData\Local\Temp\ccX0Ht2c.s 			page 115


 4820 166d 02       		.byte	0x2
 4821 166e 91       		.byte	0x91
 4822 166f 5C       		.sleb128 -36
 4823 1670 00       		.byte	0
 4824 1671 00       		.byte	0
 4825 1672 26       		.uleb128 0x26
 4826 1673 436F6465 		.ascii "Codeword\0"
 4826      776F7264 
 4826      00
 4827 167c 01       		.byte	0x1
 4828 167d 74       		.byte	0x74
 4829 167e 15       		.byte	0x15
 4830 167f 01       		.byte	0x1
 4831 1680 800D0000 		.long	0xd80
 4832 1684 29030000 		.long	LFB10
 4833 1688 64030000 		.long	LFE10
 4834 168c 10030000 		.secrel32	LLST6
 4835 1690 01       		.byte	0x1
 4836 1691 DB160000 		.long	0x16db
 4837 1695 28       		.uleb128 0x28
 4838 1696 73746172 		.ascii "startX\0"
 4838      745800
 4839 169d 01       		.byte	0x1
 4840 169e 74       		.byte	0x74
 4841 169f 22       		.byte	0x22
 4842 16a0 39010000 		.long	0x139
 4843 16a4 02       		.byte	0x2
 4844 16a5 91       		.byte	0x91
 4845 16a6 00       		.sleb128 0
 4846 16a7 28       		.uleb128 0x28
 4847 16a8 656E6458 		.ascii "endX\0"
 4847      00
 4848 16ad 01       		.byte	0x1
 4849 16ae 74       		.byte	0x74
 4850 16af 2E       		.byte	0x2e
 4851 16b0 39010000 		.long	0x139
 4852 16b4 02       		.byte	0x2
 4853 16b5 91       		.byte	0x91
 4854 16b6 04       		.sleb128 4
 4855 16b7 28       		.uleb128 0x28
 4856 16b8 6275636B 		.ascii "bucket\0"
 4856      657400
 4857 16bf 01       		.byte	0x1
 4858 16c0 74       		.byte	0x74
 4859 16c1 38       		.byte	0x38
 4860 16c2 39010000 		.long	0x139
 4861 16c6 02       		.byte	0x2
 4862 16c7 91       		.byte	0x91
 4863 16c8 08       		.sleb128 8
 4864 16c9 28       		.uleb128 0x28
 4865 16ca 76616C75 		.ascii "value\0"
 4865      6500
 4866 16d0 01       		.byte	0x1
 4867 16d1 74       		.byte	0x74
 4868 16d2 44       		.byte	0x44
 4869 16d3 39010000 		.long	0x139
 4870 16d7 02       		.byte	0x2
GAS LISTING C:\Users\jisu8\AppData\Local\Temp\ccX0Ht2c.s 			page 116


 4871 16d8 91       		.byte	0x91
 4872 16d9 0C       		.sleb128 12
 4873 16da 00       		.byte	0
 4874 16db 23       		.uleb128 0x23
 4875 16dc 47657443 		.ascii "GetCodewordBucketNumber\0"
 4875      6F646577 
 4875      6F726442 
 4875      75636B65 
 4875      744E756D 
 4876 16f4 01       		.byte	0x1
 4877 16f5 6F       		.byte	0x6f
 4878 16f6 0C       		.byte	0xc
 4879 16f7 01       		.byte	0x1
 4880 16f8 39010000 		.long	0x139
 4881 16fc 0E030000 		.long	LFB9
 4882 1700 29030000 		.long	LFE9
 4883 1704 48030000 		.secrel32	LLST5
 4884 1708 01       		.byte	0x1
 4885 1709 1D170000 		.long	0x171d
 4886 170d 24       		.uleb128 0x24
 4887 170e 11000000 		.secrel32	LASF16
 4888 1712 01       		.byte	0x1
 4889 1713 6F       		.byte	0x6f
 4890 1714 28       		.byte	0x28
 4891 1715 39010000 		.long	0x139
 4892 1719 02       		.byte	0x2
 4893 171a 91       		.byte	0x91
 4894 171b 00       		.sleb128 0
 4895 171c 00       		.byte	0
 4896 171d 26       		.uleb128 0x26
 4897 171e 47657443 		.ascii "GetCodewordBucketNumberRet\0"
 4897      6F646577 
 4897      6F726442 
 4897      75636B65 
 4897      744E756D 
 4898 1739 01       		.byte	0x1
 4899 173a 69       		.byte	0x69
 4900 173b 0C       		.byte	0xc
 4901 173c 01       		.byte	0x1
 4902 173d 39010000 		.long	0x139
 4903 1741 C2020000 		.long	LFB8
 4904 1745 0E030000 		.long	LFE8
 4905 1749 80030000 		.secrel32	LLST4
 4906 174d 01       		.byte	0x1
 4907 174e 62170000 		.long	0x1762
 4908 1752 24       		.uleb128 0x24
 4909 1753 F1000000 		.secrel32	LASF24
 4910 1757 01       		.byte	0x1
 4911 1758 69       		.byte	0x69
 4912 1759 33       		.byte	0x33
 4913 175a 62170000 		.long	0x1762
 4914 175e 02       		.byte	0x2
 4915 175f 91       		.byte	0x91
 4916 1760 00       		.sleb128 0
 4917 1761 00       		.byte	0
 4918 1762 09       		.uleb128 0x9
 4919 1763 04       		.byte	0x4
GAS LISTING C:\Users\jisu8\AppData\Local\Temp\ccX0Ht2c.s 			page 117


 4920 1764 40010000 		.long	0x140
 4921 1768 23       		.uleb128 0x23
 4922 1769 47657442 		.ascii "GetBitCountForCodeword\0"
 4922      6974436F 
 4922      756E7446 
 4922      6F72436F 
 4922      6465776F 
 4923 1780 01       		.byte	0x1
 4924 1781 50       		.byte	0x50
 4925 1782 0E       		.byte	0xe
 4926 1783 01       		.byte	0x1
 4927 1784 C0010000 		.long	0x1c0
 4928 1788 3C020000 		.long	LFB7
 4929 178c C2020000 		.long	LFE7
 4930 1790 B8030000 		.secrel32	LLST3
 4931 1794 01       		.byte	0x1
 4932 1795 E8170000 		.long	0x17e8
 4933 1799 24       		.uleb128 0x24
 4934 179a 11000000 		.secrel32	LASF16
 4935 179e 01       		.byte	0x1
 4936 179f 50       		.byte	0x50
 4937 17a0 29       		.byte	0x29
 4938 17a1 39010000 		.long	0x139
 4939 17a5 02       		.byte	0x2
 4940 17a6 91       		.byte	0x91
 4941 17a7 00       		.sleb128 0
 4942 17a8 1E       		.uleb128 0x1e
 4943 17a9 01       		.byte	0x1
 4944 17aa CD000000 		.secrel32	LASF18
 4945 17ae 11       		.byte	0x11
 4946 17af 00       		.byte	0
 4947 17b0 01       		.byte	0x1
 4948 17b1 39010000 		.long	0x139
 4949 17b5 01       		.byte	0x1
 4950 17b6 C1170000 		.long	0x17c1
 4951 17ba 1F       		.uleb128 0x1f
 4952 17bb 4E0E0000 		.long	0xe4e
 4953 17bf 20       		.uleb128 0x20
 4954 17c0 00       		.byte	0
 4955 17c1 13       		.uleb128 0x13
 4956 17c2 70726576 		.ascii "previousValue\0"
 4956      696F7573 
 4956      56616C75 
 4956      6500
 4957 17d0 01       		.byte	0x1
 4958 17d1 56       		.byte	0x56
 4959 17d2 06       		.byte	0x6
 4960 17d3 39010000 		.long	0x139
 4961 17d7 02       		.byte	0x2
 4962 17d8 91       		.byte	0x91
 4963 17d9 6C       		.sleb128 -20
 4964 17da 13       		.uleb128 0x13
 4965 17db 6900     		.ascii "i\0"
 4966 17dd 01       		.byte	0x1
 4967 17de 57       		.byte	0x57
 4968 17df 06       		.byte	0x6
 4969 17e0 39010000 		.long	0x139
GAS LISTING C:\Users\jisu8\AppData\Local\Temp\ccX0Ht2c.s 			page 118


 4970 17e4 02       		.byte	0x2
 4971 17e5 91       		.byte	0x91
 4972 17e6 68       		.sleb128 -24
 4973 17e7 00       		.byte	0
 4974 17e8 26       		.uleb128 0x26
 4975 17e9 43686563 		.ascii "CheckCodewordSkew\0"
 4975      6B436F64 
 4975      65776F72 
 4975      64536B65 
 4975      7700
 4976 17fb 01       		.byte	0x1
 4977 17fc 4A       		.byte	0x4a
 4978 17fd 10       		.byte	0x10
 4979 17fe 01       		.byte	0x1
 4980 17ff 22020000 		.long	0x222
 4981 1803 0D020000 		.long	LFB6
 4982 1807 3C020000 		.long	LFE6
 4983 180b F0030000 		.secrel32	LLST2
 4984 180f 01       		.byte	0x1
 4985 1810 4B180000 		.long	0x184b
 4986 1814 28       		.uleb128 0x28
 4987 1815 636F6465 		.ascii "codewordSize\0"
 4987      776F7264 
 4987      53697A65 
 4987      00
 4988 1822 01       		.byte	0x1
 4989 1823 4A       		.byte	0x4a
 4990 1824 26       		.byte	0x26
 4991 1825 39010000 		.long	0x139
 4992 1829 02       		.byte	0x2
 4993 182a 91       		.byte	0x91
 4994 182b 00       		.sleb128 0
 4995 182c 24       		.uleb128 0x24
 4996 182d 2A000000 		.secrel32	LASF5
 4997 1831 01       		.byte	0x1
 4998 1832 4A       		.byte	0x4a
 4999 1833 38       		.byte	0x38
 5000 1834 39010000 		.long	0x139
 5001 1838 02       		.byte	0x2
 5002 1839 91       		.byte	0x91
 5003 183a 04       		.sleb128 4
 5004 183b 24       		.uleb128 0x24
 5005 183c 00000000 		.secrel32	LASF6
 5006 1840 01       		.byte	0x1
 5007 1841 4A       		.byte	0x4a
 5008 1842 4E       		.byte	0x4e
 5009 1843 39010000 		.long	0x139
 5010 1847 02       		.byte	0x2
 5011 1848 91       		.byte	0x91
 5012 1849 08       		.sleb128 8
 5013 184a 00       		.byte	0
 5014 184b 23       		.uleb128 0x23
 5015 184c 4765744D 		.ascii "GetModuleBitCount\0"
 5015      6F64756C 
 5015      65426974 
 5015      436F756E 
 5015      7400
GAS LISTING C:\Users\jisu8\AppData\Local\Temp\ccX0Ht2c.s 			page 119


 5016 185e 01       		.byte	0x1
 5017 185f 2F       		.byte	0x2f
 5018 1860 10       		.byte	0x10
 5019 1861 01       		.byte	0x1
 5020 1862 22020000 		.long	0x222
 5021 1866 D3000000 		.long	LFB5
 5022 186a 0D020000 		.long	LFE5
 5023 186e 28040000 		.secrel32	LLST1
 5024 1872 01       		.byte	0x1
 5025 1873 65190000 		.long	0x1965
 5026 1877 24       		.uleb128 0x24
 5027 1878 42000000 		.secrel32	LASF4
 5028 187c 01       		.byte	0x1
 5029 187d 2F       		.byte	0x2f
 5030 187e 36       		.byte	0x36
 5031 187f 7A0D0000 		.long	0xd7a
 5032 1883 02       		.byte	0x2
 5033 1884 91       		.byte	0x91
 5034 1885 00       		.sleb128 0
 5035 1886 24       		.uleb128 0x24
 5036 1887 53000000 		.secrel32	LASF22
 5037 188b 01       		.byte	0x1
 5038 188c 2F       		.byte	0x2f
 5039 188d 41       		.byte	0x41
 5040 188e 39010000 		.long	0x139
 5041 1892 02       		.byte	0x2
 5042 1893 91       		.byte	0x91
 5043 1894 04       		.sleb128 4
 5044 1895 24       		.uleb128 0x24
 5045 1896 D4000000 		.secrel32	LASF23
 5046 189a 01       		.byte	0x1
 5047 189b 2F       		.byte	0x2f
 5048 189c 50       		.byte	0x50
 5049 189d 39010000 		.long	0x139
 5050 18a1 02       		.byte	0x2
 5051 18a2 91       		.byte	0x91
 5052 18a3 08       		.sleb128 8
 5053 18a4 24       		.uleb128 0x24
 5054 18a5 AA000000 		.secrel32	LASF12
 5055 18a9 01       		.byte	0x1
 5056 18aa 2F       		.byte	0x2f
 5057 18ab 63       		.byte	0x63
 5058 18ac 22020000 		.long	0x222
 5059 18b0 02       		.byte	0x2
 5060 18b1 91       		.byte	0x91
 5061 18b2 5C       		.sleb128 -36
 5062 18b3 24       		.uleb128 0x24
 5063 18b4 9E000000 		.secrel32	LASF14
 5064 18b8 01       		.byte	0x1
 5065 18b9 2F       		.byte	0x2f
 5066 18ba 74       		.byte	0x74
 5067 18bb 39010000 		.long	0x139
 5068 18bf 02       		.byte	0x2
 5069 18c0 91       		.byte	0x91
 5070 18c1 10       		.sleb128 16
 5071 18c2 24       		.uleb128 0x24
 5072 18c3 B6000000 		.secrel32	LASF15
GAS LISTING C:\Users\jisu8\AppData\Local\Temp\ccX0Ht2c.s 			page 120


 5073 18c7 01       		.byte	0x1
 5074 18c8 2F       		.byte	0x2f
 5075 18c9 85       		.byte	0x85
 5076 18ca 39010000 		.long	0x139
 5077 18ce 02       		.byte	0x2
 5078 18cf 91       		.byte	0x91
 5079 18d0 14       		.sleb128 20
 5080 18d1 24       		.uleb128 0x24
 5081 18d2 F1000000 		.secrel32	LASF24
 5082 18d6 01       		.byte	0x1
 5083 18d7 2F       		.byte	0x2f
 5084 18d8 95       		.byte	0x95
 5085 18d9 C0010000 		.long	0x1c0
 5086 18dd 02       		.byte	0x2
 5087 18de 91       		.byte	0x91
 5088 18df 18       		.sleb128 24
 5089 18e0 24       		.uleb128 0x24
 5090 18e1 3B000000 		.secrel32	LASF8
 5091 18e5 01       		.byte	0x1
 5092 18e6 2F       		.byte	0x2f
 5093 18e7 AD       		.byte	0xad
 5094 18e8 22020000 		.long	0x222
 5095 18ec 02       		.byte	0x2
 5096 18ed 91       		.byte	0x91
 5097 18ee 58       		.sleb128 -40
 5098 18ef 1E       		.uleb128 0x1e
 5099 18f0 01       		.byte	0x1
 5100 18f1 CD000000 		.secrel32	LASF18
 5101 18f5 11       		.byte	0x11
 5102 18f6 00       		.byte	0
 5103 18f7 01       		.byte	0x1
 5104 18f8 39010000 		.long	0x139
 5105 18fc 01       		.byte	0x1
 5106 18fd 08190000 		.long	0x1908
 5107 1901 1F       		.uleb128 0x1f
 5108 1902 4E0E0000 		.long	0xe4e
 5109 1906 20       		.uleb128 0x20
 5110 1907 00       		.byte	0
 5111 1908 13       		.uleb128 0x13
 5112 1909 696D6167 		.ascii "imageColumn\0"
 5112      65436F6C 
 5112      756D6E00 
 5113 1915 01       		.byte	0x1
 5114 1916 35       		.byte	0x35
 5115 1917 06       		.byte	0x6
 5116 1918 39010000 		.long	0x139
 5117 191c 02       		.byte	0x2
 5118 191d 91       		.byte	0x91
 5119 191e 6C       		.sleb128 -20
 5120 191f 13       		.uleb128 0x13
 5121 1920 6D6F6475 		.ascii "moduleNumber\0"
 5121      6C654E75 
 5121      6D626572 
 5121      00
 5122 192d 01       		.byte	0x1
 5123 192e 36       		.byte	0x36
 5124 192f 0F       		.byte	0xf
GAS LISTING C:\Users\jisu8\AppData\Local\Temp\ccX0Ht2c.s 			page 121


 5125 1930 D8000000 		.long	0xd8
 5126 1934 02       		.byte	0x2
 5127 1935 91       		.byte	0x91
 5128 1936 68       		.sleb128 -24
 5129 1937 29       		.uleb128 0x29
 5130 1938 32010000 		.secrel32	LASF21
 5131 193c 01       		.byte	0x1
 5132 193d 37       		.byte	0x37
 5133 193e 06       		.byte	0x6
 5134 193f 39010000 		.long	0x139
 5135 1943 02       		.byte	0x2
 5136 1944 91       		.byte	0x91
 5137 1945 60       		.sleb128 -32
 5138 1946 13       		.uleb128 0x13
 5139 1947 70726576 		.ascii "previousPixelValue\0"
 5139      696F7573 
 5139      50697865 
 5139      6C56616C 
 5139      756500
 5140 195a 01       		.byte	0x1
 5141 195b 38       		.byte	0x38
 5142 195c 0A       		.byte	0xa
 5143 195d 22020000 		.long	0x222
 5144 1961 02       		.byte	0x2
 5145 1962 91       		.byte	0x91
 5146 1963 67       		.sleb128 -25
 5147 1964 00       		.byte	0
 5148 1965 2A       		.uleb128 0x2a
 5149 1966 41646A75 		.ascii "AdjustCodewordStartColumn\0"
 5149      7374436F 
 5149      6465776F 
 5149      72645374 
 5149      61727443 
 5150 1980 01       		.byte	0x1
 5151 1981 15       		.byte	0x15
 5152 1982 0C       		.byte	0xc
 5153 1983 01       		.byte	0x1
 5154 1984 39010000 		.long	0x139
 5155 1988 00000000 		.long	LFB4
 5156 198c D3000000 		.long	LFE4
 5157 1990 60040000 		.secrel32	LLST0
 5158 1994 01       		.byte	0x1
 5159 1995 24       		.uleb128 0x24
 5160 1996 42000000 		.secrel32	LASF4
 5161 199a 01       		.byte	0x1
 5162 199b 15       		.byte	0x15
 5163 199c 3A       		.byte	0x3a
 5164 199d 7A0D0000 		.long	0xd7a
 5165 19a1 02       		.byte	0x2
 5166 19a2 91       		.byte	0x91
 5167 19a3 00       		.sleb128 0
 5168 19a4 24       		.uleb128 0x24
 5169 19a5 53000000 		.secrel32	LASF22
 5170 19a9 01       		.byte	0x1
 5171 19aa 15       		.byte	0x15
 5172 19ab 45       		.byte	0x45
 5173 19ac 39010000 		.long	0x139
GAS LISTING C:\Users\jisu8\AppData\Local\Temp\ccX0Ht2c.s 			page 122


 5174 19b0 02       		.byte	0x2
 5175 19b1 91       		.byte	0x91
 5176 19b2 04       		.sleb128 4
 5177 19b3 24       		.uleb128 0x24
 5178 19b4 D4000000 		.secrel32	LASF23
 5179 19b8 01       		.byte	0x1
 5180 19b9 15       		.byte	0x15
 5181 19ba 54       		.byte	0x54
 5182 19bb 39010000 		.long	0x139
 5183 19bf 02       		.byte	0x2
 5184 19c0 91       		.byte	0x91
 5185 19c1 08       		.sleb128 8
 5186 19c2 24       		.uleb128 0x24
 5187 19c3 AA000000 		.secrel32	LASF12
 5188 19c7 01       		.byte	0x1
 5189 19c8 15       		.byte	0x15
 5190 19c9 67       		.byte	0x67
 5191 19ca 22020000 		.long	0x222
 5192 19ce 02       		.byte	0x2
 5193 19cf 91       		.byte	0x91
 5194 19d0 5C       		.sleb128 -36
 5195 19d1 28       		.uleb128 0x28
 5196 19d2 636F6465 		.ascii "codewordStartColumn\0"
 5196      776F7264 
 5196      53746172 
 5196      74436F6C 
 5196      756D6E00 
 5197 19e6 01       		.byte	0x1
 5198 19e7 15       		.byte	0x15
 5199 19e8 78       		.byte	0x78
 5200 19e9 39010000 		.long	0x139
 5201 19ed 02       		.byte	0x2
 5202 19ee 91       		.byte	0x91
 5203 19ef 10       		.sleb128 16
 5204 19f0 24       		.uleb128 0x24
 5205 19f1 B6000000 		.secrel32	LASF15
 5206 19f5 01       		.byte	0x1
 5207 19f6 15       		.byte	0x15
 5208 19f7 91       		.byte	0x91
 5209 19f8 39010000 		.long	0x139
 5210 19fc 02       		.byte	0x2
 5211 19fd 91       		.byte	0x91
 5212 19fe 14       		.sleb128 20
 5213 19ff 1E       		.uleb128 0x1e
 5214 1a00 01       		.byte	0x1
 5215 1a01 CD000000 		.secrel32	LASF18
 5216 1a05 11       		.byte	0x11
 5217 1a06 00       		.byte	0
 5218 1a07 01       		.byte	0x1
 5219 1a08 39010000 		.long	0x139
 5220 1a0c 01       		.byte	0x1
 5221 1a0d 181A0000 		.long	0x1a18
 5222 1a11 1F       		.uleb128 0x1f
 5223 1a12 4E0E0000 		.long	0xe4e
 5224 1a16 20       		.uleb128 0x20
 5225 1a17 00       		.byte	0
 5226 1a18 13       		.uleb128 0x13
GAS LISTING C:\Users\jisu8\AppData\Local\Temp\ccX0Ht2c.s 			page 123


 5227 1a19 636F7272 		.ascii "correctedStartColumn\0"
 5227      65637465 
 5227      64537461 
 5227      7274436F 
 5227      6C756D6E 
 5228 1a2e 01       		.byte	0x1
 5229 1a2f 1B       		.byte	0x1b
 5230 1a30 06       		.byte	0x6
 5231 1a31 39010000 		.long	0x139
 5232 1a35 02       		.byte	0x2
 5233 1a36 91       		.byte	0x91
 5234 1a37 6C       		.sleb128 -20
 5235 1a38 29       		.uleb128 0x29
 5236 1a39 32010000 		.secrel32	LASF21
 5237 1a3d 01       		.byte	0x1
 5238 1a3e 1C       		.byte	0x1c
 5239 1a3f 06       		.byte	0x6
 5240 1a40 39010000 		.long	0x139
 5241 1a44 02       		.byte	0x2
 5242 1a45 91       		.byte	0x91
 5243 1a46 68       		.sleb128 -24
 5244 1a47 1C       		.uleb128 0x1c
 5245 1a48 57000000 		.long	LBB2
 5246 1a4c CE000000 		.long	LBE2
 5247 1a50 13       		.uleb128 0x13
 5248 1a51 6900     		.ascii "i\0"
 5249 1a53 01       		.byte	0x1
 5250 1a54 1E       		.byte	0x1e
 5251 1a55 0B       		.byte	0xb
 5252 1a56 39010000 		.long	0x139
 5253 1a5a 02       		.byte	0x2
 5254 1a5b 91       		.byte	0x91
 5255 1a5c 64       		.sleb128 -28
 5256 1a5d 00       		.byte	0
 5257 1a5e 00       		.byte	0
 5258 1a5f 00       		.byte	0
 5259              		.section	.debug_abbrev,"dr"
 5260              	Ldebug_abbrev0:
 5261 0000 01       		.uleb128 0x1
 5262 0001 11       		.uleb128 0x11
 5263 0002 01       		.byte	0x1
 5264 0003 25       		.uleb128 0x25
 5265 0004 08       		.uleb128 0x8
 5266 0005 13       		.uleb128 0x13
 5267 0006 0B       		.uleb128 0xb
 5268 0007 03       		.uleb128 0x3
 5269 0008 08       		.uleb128 0x8
 5270 0009 1B       		.uleb128 0x1b
 5271 000a 08       		.uleb128 0x8
 5272 000b 11       		.uleb128 0x11
 5273 000c 01       		.uleb128 0x1
 5274 000d 12       		.uleb128 0x12
 5275 000e 01       		.uleb128 0x1
 5276 000f 10       		.uleb128 0x10
 5277 0010 06       		.uleb128 0x6
 5278 0011 00       		.byte	0
 5279 0012 00       		.byte	0
GAS LISTING C:\Users\jisu8\AppData\Local\Temp\ccX0Ht2c.s 			page 124


 5280 0013 02       		.uleb128 0x2
 5281 0014 04       		.uleb128 0x4
 5282 0015 01       		.byte	0x1
 5283 0016 3E       		.uleb128 0x3e
 5284 0017 0B       		.uleb128 0xb
 5285 0018 0B       		.uleb128 0xb
 5286 0019 0B       		.uleb128 0xb
 5287 001a 49       		.uleb128 0x49
 5288 001b 13       		.uleb128 0x13
 5289 001c 3A       		.uleb128 0x3a
 5290 001d 0B       		.uleb128 0xb
 5291 001e 3B       		.uleb128 0x3b
 5292 001f 0B       		.uleb128 0xb
 5293 0020 39       		.uleb128 0x39
 5294 0021 0B       		.uleb128 0xb
 5295 0022 01       		.uleb128 0x1
 5296 0023 13       		.uleb128 0x13
 5297 0024 00       		.byte	0
 5298 0025 00       		.byte	0
 5299 0026 03       		.uleb128 0x3
 5300 0027 28       		.uleb128 0x28
 5301 0028 00       		.byte	0
 5302 0029 03       		.uleb128 0x3
 5303 002a 08       		.uleb128 0x8
 5304 002b 1C       		.uleb128 0x1c
 5305 002c 0B       		.uleb128 0xb
 5306 002d 00       		.byte	0
 5307 002e 00       		.byte	0
 5308 002f 04       		.uleb128 0x4
 5309 0030 24       		.uleb128 0x24
 5310 0031 00       		.byte	0
 5311 0032 0B       		.uleb128 0xb
 5312 0033 0B       		.uleb128 0xb
 5313 0034 3E       		.uleb128 0x3e
 5314 0035 0B       		.uleb128 0xb
 5315 0036 03       		.uleb128 0x3
 5316 0037 08       		.uleb128 0x8
 5317 0038 00       		.byte	0
 5318 0039 00       		.byte	0
 5319 003a 05       		.uleb128 0x5
 5320 003b 16       		.uleb128 0x16
 5321 003c 00       		.byte	0
 5322 003d 03       		.uleb128 0x3
 5323 003e 08       		.uleb128 0x8
 5324 003f 3A       		.uleb128 0x3a
 5325 0040 0B       		.uleb128 0xb
 5326 0041 3B       		.uleb128 0x3b
 5327 0042 0B       		.uleb128 0xb
 5328 0043 39       		.uleb128 0x39
 5329 0044 0B       		.uleb128 0xb
 5330 0045 49       		.uleb128 0x49
 5331 0046 13       		.uleb128 0x13
 5332 0047 00       		.byte	0
 5333 0048 00       		.byte	0
 5334 0049 06       		.uleb128 0x6
 5335 004a 13       		.uleb128 0x13
 5336 004b 01       		.byte	0x1
GAS LISTING C:\Users\jisu8\AppData\Local\Temp\ccX0Ht2c.s 			page 125


 5337 004c 0B       		.uleb128 0xb
 5338 004d 0B       		.uleb128 0xb
 5339 004e 3A       		.uleb128 0x3a
 5340 004f 0B       		.uleb128 0xb
 5341 0050 3B       		.uleb128 0x3b
 5342 0051 0B       		.uleb128 0xb
 5343 0052 39       		.uleb128 0x39
 5344 0053 0B       		.uleb128 0xb
 5345 0054 01       		.uleb128 0x1
 5346 0055 13       		.uleb128 0x13
 5347 0056 00       		.byte	0
 5348 0057 00       		.byte	0
 5349 0058 07       		.uleb128 0x7
 5350 0059 0D       		.uleb128 0xd
 5351 005a 00       		.byte	0
 5352 005b 03       		.uleb128 0x3
 5353 005c 08       		.uleb128 0x8
 5354 005d 3A       		.uleb128 0x3a
 5355 005e 0B       		.uleb128 0xb
 5356 005f 3B       		.uleb128 0x3b
 5357 0060 0B       		.uleb128 0xb
 5358 0061 39       		.uleb128 0x39
 5359 0062 0B       		.uleb128 0xb
 5360 0063 49       		.uleb128 0x49
 5361 0064 13       		.uleb128 0x13
 5362 0065 38       		.uleb128 0x38
 5363 0066 0A       		.uleb128 0xa
 5364 0067 00       		.byte	0
 5365 0068 00       		.byte	0
 5366 0069 08       		.uleb128 0x8
 5367 006a 26       		.uleb128 0x26
 5368 006b 00       		.byte	0
 5369 006c 49       		.uleb128 0x49
 5370 006d 13       		.uleb128 0x13
 5371 006e 00       		.byte	0
 5372 006f 00       		.byte	0
 5373 0070 09       		.uleb128 0x9
 5374 0071 0F       		.uleb128 0xf
 5375 0072 00       		.byte	0
 5376 0073 0B       		.uleb128 0xb
 5377 0074 0B       		.uleb128 0xb
 5378 0075 49       		.uleb128 0x49
 5379 0076 13       		.uleb128 0x13
 5380 0077 00       		.byte	0
 5381 0078 00       		.byte	0
 5382 0079 0A       		.uleb128 0xa
 5383 007a 0D       		.uleb128 0xd
 5384 007b 00       		.byte	0
 5385 007c 03       		.uleb128 0x3
 5386 007d 0E       		.uleb128 0xe
 5387 007e 3A       		.uleb128 0x3a
 5388 007f 0B       		.uleb128 0xb
 5389 0080 3B       		.uleb128 0x3b
 5390 0081 0B       		.uleb128 0xb
 5391 0082 39       		.uleb128 0x39
 5392 0083 0B       		.uleb128 0xb
 5393 0084 49       		.uleb128 0x49
GAS LISTING C:\Users\jisu8\AppData\Local\Temp\ccX0Ht2c.s 			page 126


 5394 0085 13       		.uleb128 0x13
 5395 0086 38       		.uleb128 0x38
 5396 0087 0A       		.uleb128 0xa
 5397 0088 00       		.byte	0
 5398 0089 00       		.byte	0
 5399 008a 0B       		.uleb128 0xb
 5400 008b 13       		.uleb128 0x13
 5401 008c 01       		.byte	0x1
 5402 008d 0B       		.uleb128 0xb
 5403 008e 05       		.uleb128 0x5
 5404 008f 3A       		.uleb128 0x3a
 5405 0090 0B       		.uleb128 0xb
 5406 0091 3B       		.uleb128 0x3b
 5407 0092 0B       		.uleb128 0xb
 5408 0093 39       		.uleb128 0x39
 5409 0094 0B       		.uleb128 0xb
 5410 0095 01       		.uleb128 0x1
 5411 0096 13       		.uleb128 0x13
 5412 0097 00       		.byte	0
 5413 0098 00       		.byte	0
 5414 0099 0C       		.uleb128 0xc
 5415 009a 01       		.uleb128 0x1
 5416 009b 01       		.byte	0x1
 5417 009c 49       		.uleb128 0x49
 5418 009d 13       		.uleb128 0x13
 5419 009e 01       		.uleb128 0x1
 5420 009f 13       		.uleb128 0x13
 5421 00a0 00       		.byte	0
 5422 00a1 00       		.byte	0
 5423 00a2 0D       		.uleb128 0xd
 5424 00a3 21       		.uleb128 0x21
 5425 00a4 00       		.byte	0
 5426 00a5 49       		.uleb128 0x49
 5427 00a6 13       		.uleb128 0x13
 5428 00a7 2F       		.uleb128 0x2f
 5429 00a8 05       		.uleb128 0x5
 5430 00a9 00       		.byte	0
 5431 00aa 00       		.byte	0
 5432 00ab 0E       		.uleb128 0xe
 5433 00ac 34       		.uleb128 0x34
 5434 00ad 00       		.byte	0
 5435 00ae 03       		.uleb128 0x3
 5436 00af 0E       		.uleb128 0xe
 5437 00b0 3A       		.uleb128 0x3a
 5438 00b1 0B       		.uleb128 0xb
 5439 00b2 3B       		.uleb128 0x3b
 5440 00b3 0B       		.uleb128 0xb
 5441 00b4 39       		.uleb128 0x39
 5442 00b5 0B       		.uleb128 0xb
 5443 00b6 49       		.uleb128 0x49
 5444 00b7 13       		.uleb128 0x13
 5445 00b8 3F       		.uleb128 0x3f
 5446 00b9 0C       		.uleb128 0xc
 5447 00ba 3C       		.uleb128 0x3c
 5448 00bb 0C       		.uleb128 0xc
 5449 00bc 00       		.byte	0
 5450 00bd 00       		.byte	0
GAS LISTING C:\Users\jisu8\AppData\Local\Temp\ccX0Ht2c.s 			page 127


 5451 00be 0F       		.uleb128 0xf
 5452 00bf 13       		.uleb128 0x13
 5453 00c0 01       		.byte	0x1
 5454 00c1 0B       		.uleb128 0xb
 5455 00c2 06       		.uleb128 0x6
 5456 00c3 3A       		.uleb128 0x3a
 5457 00c4 0B       		.uleb128 0xb
 5458 00c5 3B       		.uleb128 0x3b
 5459 00c6 0B       		.uleb128 0xb
 5460 00c7 39       		.uleb128 0x39
 5461 00c8 0B       		.uleb128 0xb
 5462 00c9 01       		.uleb128 0x1
 5463 00ca 13       		.uleb128 0x13
 5464 00cb 00       		.byte	0
 5465 00cc 00       		.byte	0
 5466 00cd 10       		.uleb128 0x10
 5467 00ce 21       		.uleb128 0x21
 5468 00cf 00       		.byte	0
 5469 00d0 49       		.uleb128 0x49
 5470 00d1 13       		.uleb128 0x13
 5471 00d2 2F       		.uleb128 0x2f
 5472 00d3 0B       		.uleb128 0xb
 5473 00d4 00       		.byte	0
 5474 00d5 00       		.byte	0
 5475 00d6 11       		.uleb128 0x11
 5476 00d7 34       		.uleb128 0x34
 5477 00d8 00       		.byte	0
 5478 00d9 03       		.uleb128 0x3
 5479 00da 08       		.uleb128 0x8
 5480 00db 3A       		.uleb128 0x3a
 5481 00dc 0B       		.uleb128 0xb
 5482 00dd 3B       		.uleb128 0x3b
 5483 00de 0B       		.uleb128 0xb
 5484 00df 39       		.uleb128 0x39
 5485 00e0 0B       		.uleb128 0xb
 5486 00e1 49       		.uleb128 0x49
 5487 00e2 13       		.uleb128 0x13
 5488 00e3 3F       		.uleb128 0x3f
 5489 00e4 0C       		.uleb128 0xc
 5490 00e5 3C       		.uleb128 0x3c
 5491 00e6 0C       		.uleb128 0xc
 5492 00e7 00       		.byte	0
 5493 00e8 00       		.byte	0
 5494 00e9 12       		.uleb128 0x12
 5495 00ea 34       		.uleb128 0x34
 5496 00eb 00       		.byte	0
 5497 00ec 03       		.uleb128 0x3
 5498 00ed 08       		.uleb128 0x8
 5499 00ee 3A       		.uleb128 0x3a
 5500 00ef 0B       		.uleb128 0xb
 5501 00f0 3B       		.uleb128 0x3b
 5502 00f1 05       		.uleb128 0x5
 5503 00f2 39       		.uleb128 0x39
 5504 00f3 0B       		.uleb128 0xb
 5505 00f4 49       		.uleb128 0x49
 5506 00f5 13       		.uleb128 0x13
 5507 00f6 3F       		.uleb128 0x3f
GAS LISTING C:\Users\jisu8\AppData\Local\Temp\ccX0Ht2c.s 			page 128


 5508 00f7 0C       		.uleb128 0xc
 5509 00f8 3C       		.uleb128 0x3c
 5510 00f9 0C       		.uleb128 0xc
 5511 00fa 00       		.byte	0
 5512 00fb 00       		.byte	0
 5513 00fc 13       		.uleb128 0x13
 5514 00fd 34       		.uleb128 0x34
 5515 00fe 00       		.byte	0
 5516 00ff 03       		.uleb128 0x3
 5517 0100 08       		.uleb128 0x8
 5518 0101 3A       		.uleb128 0x3a
 5519 0102 0B       		.uleb128 0xb
 5520 0103 3B       		.uleb128 0x3b
 5521 0104 0B       		.uleb128 0xb
 5522 0105 39       		.uleb128 0x39
 5523 0106 0B       		.uleb128 0xb
 5524 0107 49       		.uleb128 0x49
 5525 0108 13       		.uleb128 0x13
 5526 0109 02       		.uleb128 0x2
 5527 010a 0A       		.uleb128 0xa
 5528 010b 00       		.byte	0
 5529 010c 00       		.byte	0
 5530 010d 14       		.uleb128 0x14
 5531 010e 34       		.uleb128 0x34
 5532 010f 00       		.byte	0
 5533 0110 03       		.uleb128 0x3
 5534 0111 08       		.uleb128 0x8
 5535 0112 3A       		.uleb128 0x3a
 5536 0113 0B       		.uleb128 0xb
 5537 0114 3B       		.uleb128 0x3b
 5538 0115 0B       		.uleb128 0xb
 5539 0116 39       		.uleb128 0x39
 5540 0117 0B       		.uleb128 0xb
 5541 0118 49       		.uleb128 0x49
 5542 0119 13       		.uleb128 0x13
 5543 011a 3F       		.uleb128 0x3f
 5544 011b 0C       		.uleb128 0xc
 5545 011c 02       		.uleb128 0x2
 5546 011d 0A       		.uleb128 0xa
 5547 011e 00       		.byte	0
 5548 011f 00       		.byte	0
 5549 0120 15       		.uleb128 0x15
 5550 0121 34       		.uleb128 0x34
 5551 0122 00       		.byte	0
 5552 0123 47       		.uleb128 0x47
 5553 0124 13       		.uleb128 0x13
 5554 0125 3A       		.uleb128 0x3a
 5555 0126 0B       		.uleb128 0xb
 5556 0127 3B       		.uleb128 0x3b
 5557 0128 0B       		.uleb128 0xb
 5558 0129 39       		.uleb128 0x39
 5559 012a 0B       		.uleb128 0xb
 5560 012b 02       		.uleb128 0x2
 5561 012c 0A       		.uleb128 0xa
 5562 012d 00       		.byte	0
 5563 012e 00       		.byte	0
 5564 012f 16       		.uleb128 0x16
GAS LISTING C:\Users\jisu8\AppData\Local\Temp\ccX0Ht2c.s 			page 129


 5565 0130 2E       		.uleb128 0x2e
 5566 0131 01       		.byte	0x1
 5567 0132 3F       		.uleb128 0x3f
 5568 0133 0C       		.uleb128 0xc
 5569 0134 03       		.uleb128 0x3
 5570 0135 08       		.uleb128 0x8
 5571 0136 3A       		.uleb128 0x3a
 5572 0137 0B       		.uleb128 0xb
 5573 0138 3B       		.uleb128 0x3b
 5574 0139 05       		.uleb128 0x5
 5575 013a 39       		.uleb128 0x39
 5576 013b 0B       		.uleb128 0xb
 5577 013c 27       		.uleb128 0x27
 5578 013d 0C       		.uleb128 0xc
 5579 013e 49       		.uleb128 0x49
 5580 013f 13       		.uleb128 0x13
 5581 0140 11       		.uleb128 0x11
 5582 0141 01       		.uleb128 0x1
 5583 0142 12       		.uleb128 0x12
 5584 0143 01       		.uleb128 0x1
 5585 0144 40       		.uleb128 0x40
 5586 0145 06       		.uleb128 0x6
 5587 0146 9642     		.uleb128 0x2116
 5588 0148 0C       		.uleb128 0xc
 5589 0149 01       		.uleb128 0x1
 5590 014a 13       		.uleb128 0x13
 5591 014b 00       		.byte	0
 5592 014c 00       		.byte	0
 5593 014d 17       		.uleb128 0x17
 5594 014e 05       		.uleb128 0x5
 5595 014f 00       		.byte	0
 5596 0150 03       		.uleb128 0x3
 5597 0151 0E       		.uleb128 0xe
 5598 0152 3A       		.uleb128 0x3a
 5599 0153 0B       		.uleb128 0xb
 5600 0154 3B       		.uleb128 0x3b
 5601 0155 05       		.uleb128 0x5
 5602 0156 39       		.uleb128 0x39
 5603 0157 0B       		.uleb128 0xb
 5604 0158 49       		.uleb128 0x49
 5605 0159 13       		.uleb128 0x13
 5606 015a 02       		.uleb128 0x2
 5607 015b 0A       		.uleb128 0xa
 5608 015c 00       		.byte	0
 5609 015d 00       		.byte	0
 5610 015e 18       		.uleb128 0x18
 5611 015f 05       		.uleb128 0x5
 5612 0160 00       		.byte	0
 5613 0161 03       		.uleb128 0x3
 5614 0162 08       		.uleb128 0x8
 5615 0163 3A       		.uleb128 0x3a
 5616 0164 0B       		.uleb128 0xb
 5617 0165 3B       		.uleb128 0x3b
 5618 0166 05       		.uleb128 0x5
 5619 0167 39       		.uleb128 0x39
 5620 0168 0B       		.uleb128 0xb
 5621 0169 49       		.uleb128 0x49
GAS LISTING C:\Users\jisu8\AppData\Local\Temp\ccX0Ht2c.s 			page 130


 5622 016a 13       		.uleb128 0x13
 5623 016b 02       		.uleb128 0x2
 5624 016c 0A       		.uleb128 0xa
 5625 016d 00       		.byte	0
 5626 016e 00       		.byte	0
 5627 016f 19       		.uleb128 0x19
 5628 0170 34       		.uleb128 0x34
 5629 0171 00       		.byte	0
 5630 0172 03       		.uleb128 0x3
 5631 0173 0E       		.uleb128 0xe
 5632 0174 3A       		.uleb128 0x3a
 5633 0175 0B       		.uleb128 0xb
 5634 0176 3B       		.uleb128 0x3b
 5635 0177 05       		.uleb128 0x5
 5636 0178 39       		.uleb128 0x39
 5637 0179 0B       		.uleb128 0xb
 5638 017a 49       		.uleb128 0x49
 5639 017b 13       		.uleb128 0x13
 5640 017c 02       		.uleb128 0x2
 5641 017d 0A       		.uleb128 0xa
 5642 017e 00       		.byte	0
 5643 017f 00       		.byte	0
 5644 0180 1A       		.uleb128 0x1a
 5645 0181 34       		.uleb128 0x34
 5646 0182 00       		.byte	0
 5647 0183 03       		.uleb128 0x3
 5648 0184 08       		.uleb128 0x8
 5649 0185 3A       		.uleb128 0x3a
 5650 0186 0B       		.uleb128 0xb
 5651 0187 3B       		.uleb128 0x3b
 5652 0188 05       		.uleb128 0x5
 5653 0189 39       		.uleb128 0x39
 5654 018a 0B       		.uleb128 0xb
 5655 018b 49       		.uleb128 0x49
 5656 018c 13       		.uleb128 0x13
 5657 018d 02       		.uleb128 0x2
 5658 018e 0A       		.uleb128 0xa
 5659 018f 00       		.byte	0
 5660 0190 00       		.byte	0
 5661 0191 1B       		.uleb128 0x1b
 5662 0192 0B       		.uleb128 0xb
 5663 0193 01       		.byte	0x1
 5664 0194 11       		.uleb128 0x11
 5665 0195 01       		.uleb128 0x1
 5666 0196 12       		.uleb128 0x12
 5667 0197 01       		.uleb128 0x1
 5668 0198 01       		.uleb128 0x1
 5669 0199 13       		.uleb128 0x13
 5670 019a 00       		.byte	0
 5671 019b 00       		.byte	0
 5672 019c 1C       		.uleb128 0x1c
 5673 019d 0B       		.uleb128 0xb
 5674 019e 01       		.byte	0x1
 5675 019f 11       		.uleb128 0x11
 5676 01a0 01       		.uleb128 0x1
 5677 01a1 12       		.uleb128 0x12
 5678 01a2 01       		.uleb128 0x1
GAS LISTING C:\Users\jisu8\AppData\Local\Temp\ccX0Ht2c.s 			page 131


 5679 01a3 00       		.byte	0
 5680 01a4 00       		.byte	0
 5681 01a5 1D       		.uleb128 0x1d
 5682 01a6 2E       		.uleb128 0x2e
 5683 01a7 01       		.byte	0x1
 5684 01a8 03       		.uleb128 0x3
 5685 01a9 08       		.uleb128 0x8
 5686 01aa 3A       		.uleb128 0x3a
 5687 01ab 0B       		.uleb128 0xb
 5688 01ac 3B       		.uleb128 0x3b
 5689 01ad 05       		.uleb128 0x5
 5690 01ae 39       		.uleb128 0x39
 5691 01af 0B       		.uleb128 0xb
 5692 01b0 27       		.uleb128 0x27
 5693 01b1 0C       		.uleb128 0xc
 5694 01b2 49       		.uleb128 0x49
 5695 01b3 13       		.uleb128 0x13
 5696 01b4 11       		.uleb128 0x11
 5697 01b5 01       		.uleb128 0x1
 5698 01b6 12       		.uleb128 0x12
 5699 01b7 01       		.uleb128 0x1
 5700 01b8 40       		.uleb128 0x40
 5701 01b9 06       		.uleb128 0x6
 5702 01ba 9642     		.uleb128 0x2116
 5703 01bc 0C       		.uleb128 0xc
 5704 01bd 01       		.uleb128 0x1
 5705 01be 13       		.uleb128 0x13
 5706 01bf 00       		.byte	0
 5707 01c0 00       		.byte	0
 5708 01c1 1E       		.uleb128 0x1e
 5709 01c2 2E       		.uleb128 0x2e
 5710 01c3 01       		.byte	0x1
 5711 01c4 3F       		.uleb128 0x3f
 5712 01c5 0C       		.uleb128 0xc
 5713 01c6 03       		.uleb128 0x3
 5714 01c7 0E       		.uleb128 0xe
 5715 01c8 3A       		.uleb128 0x3a
 5716 01c9 0B       		.uleb128 0xb
 5717 01ca 3B       		.uleb128 0x3b
 5718 01cb 0B       		.uleb128 0xb
 5719 01cc 27       		.uleb128 0x27
 5720 01cd 0C       		.uleb128 0xc
 5721 01ce 49       		.uleb128 0x49
 5722 01cf 13       		.uleb128 0x13
 5723 01d0 3C       		.uleb128 0x3c
 5724 01d1 0C       		.uleb128 0xc
 5725 01d2 01       		.uleb128 0x1
 5726 01d3 13       		.uleb128 0x13
 5727 01d4 00       		.byte	0
 5728 01d5 00       		.byte	0
 5729 01d6 1F       		.uleb128 0x1f
 5730 01d7 05       		.uleb128 0x5
 5731 01d8 00       		.byte	0
 5732 01d9 49       		.uleb128 0x49
 5733 01da 13       		.uleb128 0x13
 5734 01db 00       		.byte	0
 5735 01dc 00       		.byte	0
GAS LISTING C:\Users\jisu8\AppData\Local\Temp\ccX0Ht2c.s 			page 132


 5736 01dd 20       		.uleb128 0x20
 5737 01de 18       		.uleb128 0x18
 5738 01df 00       		.byte	0
 5739 01e0 00       		.byte	0
 5740 01e1 00       		.byte	0
 5741 01e2 21       		.uleb128 0x21
 5742 01e3 2E       		.uleb128 0x2e
 5743 01e4 01       		.byte	0x1
 5744 01e5 03       		.uleb128 0x3
 5745 01e6 08       		.uleb128 0x8
 5746 01e7 3A       		.uleb128 0x3a
 5747 01e8 0B       		.uleb128 0xb
 5748 01e9 3B       		.uleb128 0x3b
 5749 01ea 05       		.uleb128 0x5
 5750 01eb 39       		.uleb128 0x39
 5751 01ec 0B       		.uleb128 0xb
 5752 01ed 27       		.uleb128 0x27
 5753 01ee 0C       		.uleb128 0xc
 5754 01ef 49       		.uleb128 0x49
 5755 01f0 13       		.uleb128 0x13
 5756 01f1 11       		.uleb128 0x11
 5757 01f2 01       		.uleb128 0x1
 5758 01f3 12       		.uleb128 0x12
 5759 01f4 01       		.uleb128 0x1
 5760 01f5 40       		.uleb128 0x40
 5761 01f6 06       		.uleb128 0x6
 5762 01f7 9742     		.uleb128 0x2117
 5763 01f9 0C       		.uleb128 0xc
 5764 01fa 01       		.uleb128 0x1
 5765 01fb 13       		.uleb128 0x13
 5766 01fc 00       		.byte	0
 5767 01fd 00       		.byte	0
 5768 01fe 22       		.uleb128 0x22
 5769 01ff 2E       		.uleb128 0x2e
 5770 0200 01       		.byte	0x1
 5771 0201 3F       		.uleb128 0x3f
 5772 0202 0C       		.uleb128 0xc
 5773 0203 03       		.uleb128 0x3
 5774 0204 08       		.uleb128 0x8
 5775 0205 3A       		.uleb128 0x3a
 5776 0206 0B       		.uleb128 0xb
 5777 0207 3B       		.uleb128 0x3b
 5778 0208 05       		.uleb128 0x5
 5779 0209 39       		.uleb128 0x39
 5780 020a 0B       		.uleb128 0xb
 5781 020b 49       		.uleb128 0x49
 5782 020c 13       		.uleb128 0x13
 5783 020d 3C       		.uleb128 0x3c
 5784 020e 0C       		.uleb128 0xc
 5785 020f 00       		.byte	0
 5786 0210 00       		.byte	0
 5787 0211 23       		.uleb128 0x23
 5788 0212 2E       		.uleb128 0x2e
 5789 0213 01       		.byte	0x1
 5790 0214 03       		.uleb128 0x3
 5791 0215 08       		.uleb128 0x8
 5792 0216 3A       		.uleb128 0x3a
GAS LISTING C:\Users\jisu8\AppData\Local\Temp\ccX0Ht2c.s 			page 133


 5793 0217 0B       		.uleb128 0xb
 5794 0218 3B       		.uleb128 0x3b
 5795 0219 0B       		.uleb128 0xb
 5796 021a 39       		.uleb128 0x39
 5797 021b 0B       		.uleb128 0xb
 5798 021c 27       		.uleb128 0x27
 5799 021d 0C       		.uleb128 0xc
 5800 021e 49       		.uleb128 0x49
 5801 021f 13       		.uleb128 0x13
 5802 0220 11       		.uleb128 0x11
 5803 0221 01       		.uleb128 0x1
 5804 0222 12       		.uleb128 0x12
 5805 0223 01       		.uleb128 0x1
 5806 0224 40       		.uleb128 0x40
 5807 0225 06       		.uleb128 0x6
 5808 0226 9642     		.uleb128 0x2116
 5809 0228 0C       		.uleb128 0xc
 5810 0229 01       		.uleb128 0x1
 5811 022a 13       		.uleb128 0x13
 5812 022b 00       		.byte	0
 5813 022c 00       		.byte	0
 5814 022d 24       		.uleb128 0x24
 5815 022e 05       		.uleb128 0x5
 5816 022f 00       		.byte	0
 5817 0230 03       		.uleb128 0x3
 5818 0231 0E       		.uleb128 0xe
 5819 0232 3A       		.uleb128 0x3a
 5820 0233 0B       		.uleb128 0xb
 5821 0234 3B       		.uleb128 0x3b
 5822 0235 0B       		.uleb128 0xb
 5823 0236 39       		.uleb128 0x39
 5824 0237 0B       		.uleb128 0xb
 5825 0238 49       		.uleb128 0x49
 5826 0239 13       		.uleb128 0x13
 5827 023a 02       		.uleb128 0x2
 5828 023b 0A       		.uleb128 0xa
 5829 023c 00       		.byte	0
 5830 023d 00       		.byte	0
 5831 023e 25       		.uleb128 0x25
 5832 023f 2E       		.uleb128 0x2e
 5833 0240 01       		.byte	0x1
 5834 0241 3F       		.uleb128 0x3f
 5835 0242 0C       		.uleb128 0xc
 5836 0243 03       		.uleb128 0x3
 5837 0244 08       		.uleb128 0x8
 5838 0245 3A       		.uleb128 0x3a
 5839 0246 0B       		.uleb128 0xb
 5840 0247 3B       		.uleb128 0x3b
 5841 0248 0B       		.uleb128 0xb
 5842 0249 39       		.uleb128 0x39
 5843 024a 0B       		.uleb128 0xb
 5844 024b 27       		.uleb128 0x27
 5845 024c 0C       		.uleb128 0xc
 5846 024d 49       		.uleb128 0x49
 5847 024e 13       		.uleb128 0x13
 5848 024f 11       		.uleb128 0x11
 5849 0250 01       		.uleb128 0x1
GAS LISTING C:\Users\jisu8\AppData\Local\Temp\ccX0Ht2c.s 			page 134


 5850 0251 12       		.uleb128 0x12
 5851 0252 01       		.uleb128 0x1
 5852 0253 40       		.uleb128 0x40
 5853 0254 06       		.uleb128 0x6
 5854 0255 9742     		.uleb128 0x2117
 5855 0257 0C       		.uleb128 0xc
 5856 0258 01       		.uleb128 0x1
 5857 0259 13       		.uleb128 0x13
 5858 025a 00       		.byte	0
 5859 025b 00       		.byte	0
 5860 025c 26       		.uleb128 0x26
 5861 025d 2E       		.uleb128 0x2e
 5862 025e 01       		.byte	0x1
 5863 025f 03       		.uleb128 0x3
 5864 0260 08       		.uleb128 0x8
 5865 0261 3A       		.uleb128 0x3a
 5866 0262 0B       		.uleb128 0xb
 5867 0263 3B       		.uleb128 0x3b
 5868 0264 0B       		.uleb128 0xb
 5869 0265 39       		.uleb128 0x39
 5870 0266 0B       		.uleb128 0xb
 5871 0267 27       		.uleb128 0x27
 5872 0268 0C       		.uleb128 0xc
 5873 0269 49       		.uleb128 0x49
 5874 026a 13       		.uleb128 0x13
 5875 026b 11       		.uleb128 0x11
 5876 026c 01       		.uleb128 0x1
 5877 026d 12       		.uleb128 0x12
 5878 026e 01       		.uleb128 0x1
 5879 026f 40       		.uleb128 0x40
 5880 0270 06       		.uleb128 0x6
 5881 0271 9742     		.uleb128 0x2117
 5882 0273 0C       		.uleb128 0xc
 5883 0274 01       		.uleb128 0x1
 5884 0275 13       		.uleb128 0x13
 5885 0276 00       		.byte	0
 5886 0277 00       		.byte	0
 5887 0278 27       		.uleb128 0x27
 5888 0279 2E       		.uleb128 0x2e
 5889 027a 01       		.byte	0x1
 5890 027b 03       		.uleb128 0x3
 5891 027c 08       		.uleb128 0x8
 5892 027d 3A       		.uleb128 0x3a
 5893 027e 0B       		.uleb128 0xb
 5894 027f 3B       		.uleb128 0x3b
 5895 0280 0B       		.uleb128 0xb
 5896 0281 39       		.uleb128 0x39
 5897 0282 0B       		.uleb128 0xb
 5898 0283 27       		.uleb128 0x27
 5899 0284 0C       		.uleb128 0xc
 5900 0285 11       		.uleb128 0x11
 5901 0286 01       		.uleb128 0x1
 5902 0287 12       		.uleb128 0x12
 5903 0288 01       		.uleb128 0x1
 5904 0289 40       		.uleb128 0x40
 5905 028a 06       		.uleb128 0x6
 5906 028b 9742     		.uleb128 0x2117
GAS LISTING C:\Users\jisu8\AppData\Local\Temp\ccX0Ht2c.s 			page 135


 5907 028d 0C       		.uleb128 0xc
 5908 028e 01       		.uleb128 0x1
 5909 028f 13       		.uleb128 0x13
 5910 0290 00       		.byte	0
 5911 0291 00       		.byte	0
 5912 0292 28       		.uleb128 0x28
 5913 0293 05       		.uleb128 0x5
 5914 0294 00       		.byte	0
 5915 0295 03       		.uleb128 0x3
 5916 0296 08       		.uleb128 0x8
 5917 0297 3A       		.uleb128 0x3a
 5918 0298 0B       		.uleb128 0xb
 5919 0299 3B       		.uleb128 0x3b
 5920 029a 0B       		.uleb128 0xb
 5921 029b 39       		.uleb128 0x39
 5922 029c 0B       		.uleb128 0xb
 5923 029d 49       		.uleb128 0x49
 5924 029e 13       		.uleb128 0x13
 5925 029f 02       		.uleb128 0x2
 5926 02a0 0A       		.uleb128 0xa
 5927 02a1 00       		.byte	0
 5928 02a2 00       		.byte	0
 5929 02a3 29       		.uleb128 0x29
 5930 02a4 34       		.uleb128 0x34
 5931 02a5 00       		.byte	0
 5932 02a6 03       		.uleb128 0x3
 5933 02a7 0E       		.uleb128 0xe
 5934 02a8 3A       		.uleb128 0x3a
 5935 02a9 0B       		.uleb128 0xb
 5936 02aa 3B       		.uleb128 0x3b
 5937 02ab 0B       		.uleb128 0xb
 5938 02ac 39       		.uleb128 0x39
 5939 02ad 0B       		.uleb128 0xb
 5940 02ae 49       		.uleb128 0x49
 5941 02af 13       		.uleb128 0x13
 5942 02b0 02       		.uleb128 0x2
 5943 02b1 0A       		.uleb128 0xa
 5944 02b2 00       		.byte	0
 5945 02b3 00       		.byte	0
 5946 02b4 2A       		.uleb128 0x2a
 5947 02b5 2E       		.uleb128 0x2e
 5948 02b6 01       		.byte	0x1
 5949 02b7 03       		.uleb128 0x3
 5950 02b8 08       		.uleb128 0x8
 5951 02b9 3A       		.uleb128 0x3a
 5952 02ba 0B       		.uleb128 0xb
 5953 02bb 3B       		.uleb128 0x3b
 5954 02bc 0B       		.uleb128 0xb
 5955 02bd 39       		.uleb128 0x39
 5956 02be 0B       		.uleb128 0xb
 5957 02bf 27       		.uleb128 0x27
 5958 02c0 0C       		.uleb128 0xc
 5959 02c1 49       		.uleb128 0x49
 5960 02c2 13       		.uleb128 0x13
 5961 02c3 11       		.uleb128 0x11
 5962 02c4 01       		.uleb128 0x1
 5963 02c5 12       		.uleb128 0x12
GAS LISTING C:\Users\jisu8\AppData\Local\Temp\ccX0Ht2c.s 			page 136


 5964 02c6 01       		.uleb128 0x1
 5965 02c7 40       		.uleb128 0x40
 5966 02c8 06       		.uleb128 0x6
 5967 02c9 9642     		.uleb128 0x2116
 5968 02cb 0C       		.uleb128 0xc
 5969 02cc 00       		.byte	0
 5970 02cd 00       		.byte	0
 5971 02ce 00       		.byte	0
 5972              		.section	.debug_loc,"dr"
 5973              	Ldebug_loc0:
 5974              	LLST20:
 5975 0000 300E0000 		.long	LFB24-Ltext0
 5976 0004 310E0000 		.long	LCFI60-Ltext0
 5977 0008 0200     		.word	0x2
 5978 000a 74       		.byte	0x74
 5979 000b 04       		.sleb128 4
 5980 000c 310E0000 		.long	LCFI60-Ltext0
 5981 0010 330E0000 		.long	LCFI61-Ltext0
 5982 0014 0200     		.word	0x2
 5983 0016 74       		.byte	0x74
 5984 0017 08       		.sleb128 8
 5985 0018 330E0000 		.long	LCFI61-Ltext0
 5986 001c 7D120000 		.long	LCFI62-Ltext0
 5987 0020 0200     		.word	0x2
 5988 0022 75       		.byte	0x75
 5989 0023 08       		.sleb128 8
 5990 0024 7D120000 		.long	LCFI62-Ltext0
 5991 0028 7E120000 		.long	LFE24-Ltext0
 5992 002c 0200     		.word	0x2
 5993 002e 74       		.byte	0x74
 5994 002f 04       		.sleb128 4
 5995 0030 00000000 		.long	0
 5996 0034 00000000 		.long	0
 5997              	LLST19:
 5998 0038 EB0C0000 		.long	LFB23-Ltext0
 5999 003c EC0C0000 		.long	LCFI57-Ltext0
 6000 0040 0200     		.word	0x2
 6001 0042 74       		.byte	0x74
 6002 0043 04       		.sleb128 4
 6003 0044 EC0C0000 		.long	LCFI57-Ltext0
 6004 0048 EE0C0000 		.long	LCFI58-Ltext0
 6005 004c 0200     		.word	0x2
 6006 004e 74       		.byte	0x74
 6007 004f 08       		.sleb128 8
 6008 0050 EE0C0000 		.long	LCFI58-Ltext0
 6009 0054 2F0E0000 		.long	LCFI59-Ltext0
 6010 0058 0200     		.word	0x2
 6011 005a 75       		.byte	0x75
 6012 005b 08       		.sleb128 8
 6013 005c 2F0E0000 		.long	LCFI59-Ltext0
 6014 0060 300E0000 		.long	LFE23-Ltext0
 6015 0064 0200     		.word	0x2
 6016 0066 74       		.byte	0x74
 6017 0067 04       		.sleb128 4
 6018 0068 00000000 		.long	0
 6019 006c 00000000 		.long	0
 6020              	LLST18:
GAS LISTING C:\Users\jisu8\AppData\Local\Temp\ccX0Ht2c.s 			page 137


 6021 0070 C70C0000 		.long	LFB22-Ltext0
 6022 0074 C80C0000 		.long	LCFI54-Ltext0
 6023 0078 0200     		.word	0x2
 6024 007a 74       		.byte	0x74
 6025 007b 04       		.sleb128 4
 6026 007c C80C0000 		.long	LCFI54-Ltext0
 6027 0080 CA0C0000 		.long	LCFI55-Ltext0
 6028 0084 0200     		.word	0x2
 6029 0086 74       		.byte	0x74
 6030 0087 08       		.sleb128 8
 6031 0088 CA0C0000 		.long	LCFI55-Ltext0
 6032 008c EA0C0000 		.long	LCFI56-Ltext0
 6033 0090 0200     		.word	0x2
 6034 0092 75       		.byte	0x75
 6035 0093 08       		.sleb128 8
 6036 0094 EA0C0000 		.long	LCFI56-Ltext0
 6037 0098 EB0C0000 		.long	LFE22-Ltext0
 6038 009c 0200     		.word	0x2
 6039 009e 74       		.byte	0x74
 6040 009f 04       		.sleb128 4
 6041 00a0 00000000 		.long	0
 6042 00a4 00000000 		.long	0
 6043              	LLST17:
 6044 00a8 F10B0000 		.long	LFB21-Ltext0
 6045 00ac F20B0000 		.long	LCFI51-Ltext0
 6046 00b0 0200     		.word	0x2
 6047 00b2 74       		.byte	0x74
 6048 00b3 04       		.sleb128 4
 6049 00b4 F20B0000 		.long	LCFI51-Ltext0
 6050 00b8 F40B0000 		.long	LCFI52-Ltext0
 6051 00bc 0200     		.word	0x2
 6052 00be 74       		.byte	0x74
 6053 00bf 08       		.sleb128 8
 6054 00c0 F40B0000 		.long	LCFI52-Ltext0
 6055 00c4 C60C0000 		.long	LCFI53-Ltext0
 6056 00c8 0200     		.word	0x2
 6057 00ca 75       		.byte	0x75
 6058 00cb 08       		.sleb128 8
 6059 00cc C60C0000 		.long	LCFI53-Ltext0
 6060 00d0 C70C0000 		.long	LFE21-Ltext0
 6061 00d4 0200     		.word	0x2
 6062 00d6 74       		.byte	0x74
 6063 00d7 04       		.sleb128 4
 6064 00d8 00000000 		.long	0
 6065 00dc 00000000 		.long	0
 6066              	LLST16:
 6067 00e0 ED090000 		.long	LFB20-Ltext0
 6068 00e4 EE090000 		.long	LCFI48-Ltext0
 6069 00e8 0200     		.word	0x2
 6070 00ea 74       		.byte	0x74
 6071 00eb 04       		.sleb128 4
 6072 00ec EE090000 		.long	LCFI48-Ltext0
 6073 00f0 F0090000 		.long	LCFI49-Ltext0
 6074 00f4 0200     		.word	0x2
 6075 00f6 74       		.byte	0x74
 6076 00f7 08       		.sleb128 8
 6077 00f8 F0090000 		.long	LCFI49-Ltext0
GAS LISTING C:\Users\jisu8\AppData\Local\Temp\ccX0Ht2c.s 			page 138


 6078 00fc F00B0000 		.long	LCFI50-Ltext0
 6079 0100 0200     		.word	0x2
 6080 0102 75       		.byte	0x75
 6081 0103 08       		.sleb128 8
 6082 0104 F00B0000 		.long	LCFI50-Ltext0
 6083 0108 F10B0000 		.long	LFE20-Ltext0
 6084 010c 0200     		.word	0x2
 6085 010e 74       		.byte	0x74
 6086 010f 04       		.sleb128 4
 6087 0110 00000000 		.long	0
 6088 0114 00000000 		.long	0
 6089              	LLST15:
 6090 0118 9C090000 		.long	LFB19-Ltext0
 6091 011c 9D090000 		.long	LCFI45-Ltext0
 6092 0120 0200     		.word	0x2
 6093 0122 74       		.byte	0x74
 6094 0123 04       		.sleb128 4
 6095 0124 9D090000 		.long	LCFI45-Ltext0
 6096 0128 9F090000 		.long	LCFI46-Ltext0
 6097 012c 0200     		.word	0x2
 6098 012e 74       		.byte	0x74
 6099 012f 08       		.sleb128 8
 6100 0130 9F090000 		.long	LCFI46-Ltext0
 6101 0134 EC090000 		.long	LCFI47-Ltext0
 6102 0138 0200     		.word	0x2
 6103 013a 75       		.byte	0x75
 6104 013b 08       		.sleb128 8
 6105 013c EC090000 		.long	LCFI47-Ltext0
 6106 0140 ED090000 		.long	LFE19-Ltext0
 6107 0144 0200     		.word	0x2
 6108 0146 74       		.byte	0x74
 6109 0147 04       		.sleb128 4
 6110 0148 00000000 		.long	0
 6111 014c 00000000 		.long	0
 6112              	LLST14:
 6113 0150 40080000 		.long	LFB18-Ltext0
 6114 0154 41080000 		.long	LCFI42-Ltext0
 6115 0158 0200     		.word	0x2
 6116 015a 74       		.byte	0x74
 6117 015b 04       		.sleb128 4
 6118 015c 41080000 		.long	LCFI42-Ltext0
 6119 0160 43080000 		.long	LCFI43-Ltext0
 6120 0164 0200     		.word	0x2
 6121 0166 74       		.byte	0x74
 6122 0167 08       		.sleb128 8
 6123 0168 43080000 		.long	LCFI43-Ltext0
 6124 016c 9B090000 		.long	LCFI44-Ltext0
 6125 0170 0200     		.word	0x2
 6126 0172 75       		.byte	0x75
 6127 0173 08       		.sleb128 8
 6128 0174 9B090000 		.long	LCFI44-Ltext0
 6129 0178 9C090000 		.long	LFE18-Ltext0
 6130 017c 0200     		.word	0x2
 6131 017e 74       		.byte	0x74
 6132 017f 04       		.sleb128 4
 6133 0180 00000000 		.long	0
 6134 0184 00000000 		.long	0
GAS LISTING C:\Users\jisu8\AppData\Local\Temp\ccX0Ht2c.s 			page 139


 6135              	LLST13:
 6136 0188 2D080000 		.long	LFB17-Ltext0
 6137 018c 2E080000 		.long	LCFI39-Ltext0
 6138 0190 0200     		.word	0x2
 6139 0192 74       		.byte	0x74
 6140 0193 04       		.sleb128 4
 6141 0194 2E080000 		.long	LCFI39-Ltext0
 6142 0198 30080000 		.long	LCFI40-Ltext0
 6143 019c 0200     		.word	0x2
 6144 019e 74       		.byte	0x74
 6145 019f 08       		.sleb128 8
 6146 01a0 30080000 		.long	LCFI40-Ltext0
 6147 01a4 3F080000 		.long	LCFI41-Ltext0
 6148 01a8 0200     		.word	0x2
 6149 01aa 75       		.byte	0x75
 6150 01ab 08       		.sleb128 8
 6151 01ac 3F080000 		.long	LCFI41-Ltext0
 6152 01b0 40080000 		.long	LFE17-Ltext0
 6153 01b4 0200     		.word	0x2
 6154 01b6 74       		.byte	0x74
 6155 01b7 04       		.sleb128 4
 6156 01b8 00000000 		.long	0
 6157 01bc 00000000 		.long	0
 6158              	LLST12:
 6159 01c0 22080000 		.long	LFB16-Ltext0
 6160 01c4 23080000 		.long	LCFI36-Ltext0
 6161 01c8 0200     		.word	0x2
 6162 01ca 74       		.byte	0x74
 6163 01cb 04       		.sleb128 4
 6164 01cc 23080000 		.long	LCFI36-Ltext0
 6165 01d0 25080000 		.long	LCFI37-Ltext0
 6166 01d4 0200     		.word	0x2
 6167 01d6 74       		.byte	0x74
 6168 01d7 08       		.sleb128 8
 6169 01d8 25080000 		.long	LCFI37-Ltext0
 6170 01dc 2C080000 		.long	LCFI38-Ltext0
 6171 01e0 0200     		.word	0x2
 6172 01e2 75       		.byte	0x75
 6173 01e3 08       		.sleb128 8
 6174 01e4 2C080000 		.long	LCFI38-Ltext0
 6175 01e8 2D080000 		.long	LFE16-Ltext0
 6176 01ec 0200     		.word	0x2
 6177 01ee 74       		.byte	0x74
 6178 01ef 04       		.sleb128 4
 6179 01f0 00000000 		.long	0
 6180 01f4 00000000 		.long	0
 6181              	LLST11:
 6182 01f8 18080000 		.long	LFB15-Ltext0
 6183 01fc 19080000 		.long	LCFI33-Ltext0
 6184 0200 0200     		.word	0x2
 6185 0202 74       		.byte	0x74
 6186 0203 04       		.sleb128 4
 6187 0204 19080000 		.long	LCFI33-Ltext0
 6188 0208 1B080000 		.long	LCFI34-Ltext0
 6189 020c 0200     		.word	0x2
 6190 020e 74       		.byte	0x74
 6191 020f 08       		.sleb128 8
GAS LISTING C:\Users\jisu8\AppData\Local\Temp\ccX0Ht2c.s 			page 140


 6192 0210 1B080000 		.long	LCFI34-Ltext0
 6193 0214 21080000 		.long	LCFI35-Ltext0
 6194 0218 0200     		.word	0x2
 6195 021a 75       		.byte	0x75
 6196 021b 08       		.sleb128 8
 6197 021c 21080000 		.long	LCFI35-Ltext0
 6198 0220 22080000 		.long	LFE15-Ltext0
 6199 0224 0200     		.word	0x2
 6200 0226 74       		.byte	0x74
 6201 0227 04       		.sleb128 4
 6202 0228 00000000 		.long	0
 6203 022c 00000000 		.long	0
 6204              	LLST10:
 6205 0230 EB070000 		.long	LFB14-Ltext0
 6206 0234 EC070000 		.long	LCFI30-Ltext0
 6207 0238 0200     		.word	0x2
 6208 023a 74       		.byte	0x74
 6209 023b 04       		.sleb128 4
 6210 023c EC070000 		.long	LCFI30-Ltext0
 6211 0240 EE070000 		.long	LCFI31-Ltext0
 6212 0244 0200     		.word	0x2
 6213 0246 74       		.byte	0x74
 6214 0247 08       		.sleb128 8
 6215 0248 EE070000 		.long	LCFI31-Ltext0
 6216 024c 17080000 		.long	LCFI32-Ltext0
 6217 0250 0200     		.word	0x2
 6218 0252 75       		.byte	0x75
 6219 0253 08       		.sleb128 8
 6220 0254 17080000 		.long	LCFI32-Ltext0
 6221 0258 18080000 		.long	LFE14-Ltext0
 6222 025c 0200     		.word	0x2
 6223 025e 74       		.byte	0x74
 6224 025f 04       		.sleb128 4
 6225 0260 00000000 		.long	0
 6226 0264 00000000 		.long	0
 6227              	LLST9:
 6228 0268 71060000 		.long	LFB13-Ltext0
 6229 026c 72060000 		.long	LCFI27-Ltext0
 6230 0270 0200     		.word	0x2
 6231 0272 74       		.byte	0x74
 6232 0273 04       		.sleb128 4
 6233 0274 72060000 		.long	LCFI27-Ltext0
 6234 0278 74060000 		.long	LCFI28-Ltext0
 6235 027c 0200     		.word	0x2
 6236 027e 74       		.byte	0x74
 6237 027f 08       		.sleb128 8
 6238 0280 74060000 		.long	LCFI28-Ltext0
 6239 0284 EA070000 		.long	LCFI29-Ltext0
 6240 0288 0200     		.word	0x2
 6241 028a 75       		.byte	0x75
 6242 028b 08       		.sleb128 8
 6243 028c EA070000 		.long	LCFI29-Ltext0
 6244 0290 EB070000 		.long	LFE13-Ltext0
 6245 0294 0200     		.word	0x2
 6246 0296 74       		.byte	0x74
 6247 0297 04       		.sleb128 4
 6248 0298 00000000 		.long	0
GAS LISTING C:\Users\jisu8\AppData\Local\Temp\ccX0Ht2c.s 			page 141


 6249 029c 00000000 		.long	0
 6250              	LLST8:
 6251 02a0 FD040000 		.long	LFB12-Ltext0
 6252 02a4 FE040000 		.long	LCFI24-Ltext0
 6253 02a8 0200     		.word	0x2
 6254 02aa 74       		.byte	0x74
 6255 02ab 04       		.sleb128 4
 6256 02ac FE040000 		.long	LCFI24-Ltext0
 6257 02b0 00050000 		.long	LCFI25-Ltext0
 6258 02b4 0200     		.word	0x2
 6259 02b6 74       		.byte	0x74
 6260 02b7 08       		.sleb128 8
 6261 02b8 00050000 		.long	LCFI25-Ltext0
 6262 02bc 70060000 		.long	LCFI26-Ltext0
 6263 02c0 0200     		.word	0x2
 6264 02c2 75       		.byte	0x75
 6265 02c3 08       		.sleb128 8
 6266 02c4 70060000 		.long	LCFI26-Ltext0
 6267 02c8 71060000 		.long	LFE12-Ltext0
 6268 02cc 0200     		.word	0x2
 6269 02ce 74       		.byte	0x74
 6270 02cf 04       		.sleb128 4
 6271 02d0 00000000 		.long	0
 6272 02d4 00000000 		.long	0
 6273              	LLST7:
 6274 02d8 64030000 		.long	LFB11-Ltext0
 6275 02dc 65030000 		.long	LCFI21-Ltext0
 6276 02e0 0200     		.word	0x2
 6277 02e2 74       		.byte	0x74
 6278 02e3 04       		.sleb128 4
 6279 02e4 65030000 		.long	LCFI21-Ltext0
 6280 02e8 67030000 		.long	LCFI22-Ltext0
 6281 02ec 0200     		.word	0x2
 6282 02ee 74       		.byte	0x74
 6283 02ef 08       		.sleb128 8
 6284 02f0 67030000 		.long	LCFI22-Ltext0
 6285 02f4 FC040000 		.long	LCFI23-Ltext0
 6286 02f8 0200     		.word	0x2
 6287 02fa 75       		.byte	0x75
 6288 02fb 08       		.sleb128 8
 6289 02fc FC040000 		.long	LCFI23-Ltext0
 6290 0300 FD040000 		.long	LFE11-Ltext0
 6291 0304 0200     		.word	0x2
 6292 0306 74       		.byte	0x74
 6293 0307 04       		.sleb128 4
 6294 0308 00000000 		.long	0
 6295 030c 00000000 		.long	0
 6296              	LLST6:
 6297 0310 29030000 		.long	LFB10-Ltext0
 6298 0314 2A030000 		.long	LCFI18-Ltext0
 6299 0318 0200     		.word	0x2
 6300 031a 74       		.byte	0x74
 6301 031b 04       		.sleb128 4
 6302 031c 2A030000 		.long	LCFI18-Ltext0
 6303 0320 2C030000 		.long	LCFI19-Ltext0
 6304 0324 0200     		.word	0x2
 6305 0326 74       		.byte	0x74
GAS LISTING C:\Users\jisu8\AppData\Local\Temp\ccX0Ht2c.s 			page 142


 6306 0327 08       		.sleb128 8
 6307 0328 2C030000 		.long	LCFI19-Ltext0
 6308 032c 63030000 		.long	LCFI20-Ltext0
 6309 0330 0200     		.word	0x2
 6310 0332 75       		.byte	0x75
 6311 0333 08       		.sleb128 8
 6312 0334 63030000 		.long	LCFI20-Ltext0
 6313 0338 64030000 		.long	LFE10-Ltext0
 6314 033c 0200     		.word	0x2
 6315 033e 74       		.byte	0x74
 6316 033f 04       		.sleb128 4
 6317 0340 00000000 		.long	0
 6318 0344 00000000 		.long	0
 6319              	LLST5:
 6320 0348 0E030000 		.long	LFB9-Ltext0
 6321 034c 0F030000 		.long	LCFI15-Ltext0
 6322 0350 0200     		.word	0x2
 6323 0352 74       		.byte	0x74
 6324 0353 04       		.sleb128 4
 6325 0354 0F030000 		.long	LCFI15-Ltext0
 6326 0358 11030000 		.long	LCFI16-Ltext0
 6327 035c 0200     		.word	0x2
 6328 035e 74       		.byte	0x74
 6329 035f 08       		.sleb128 8
 6330 0360 11030000 		.long	LCFI16-Ltext0
 6331 0364 28030000 		.long	LCFI17-Ltext0
 6332 0368 0200     		.word	0x2
 6333 036a 75       		.byte	0x75
 6334 036b 08       		.sleb128 8
 6335 036c 28030000 		.long	LCFI17-Ltext0
 6336 0370 29030000 		.long	LFE9-Ltext0
 6337 0374 0200     		.word	0x2
 6338 0376 74       		.byte	0x74
 6339 0377 04       		.sleb128 4
 6340 0378 00000000 		.long	0
 6341 037c 00000000 		.long	0
 6342              	LLST4:
 6343 0380 C2020000 		.long	LFB8-Ltext0
 6344 0384 C3020000 		.long	LCFI12-Ltext0
 6345 0388 0200     		.word	0x2
 6346 038a 74       		.byte	0x74
 6347 038b 04       		.sleb128 4
 6348 038c C3020000 		.long	LCFI12-Ltext0
 6349 0390 C5020000 		.long	LCFI13-Ltext0
 6350 0394 0200     		.word	0x2
 6351 0396 74       		.byte	0x74
 6352 0397 08       		.sleb128 8
 6353 0398 C5020000 		.long	LCFI13-Ltext0
 6354 039c 0D030000 		.long	LCFI14-Ltext0
 6355 03a0 0200     		.word	0x2
 6356 03a2 75       		.byte	0x75
 6357 03a3 08       		.sleb128 8
 6358 03a4 0D030000 		.long	LCFI14-Ltext0
 6359 03a8 0E030000 		.long	LFE8-Ltext0
 6360 03ac 0200     		.word	0x2
 6361 03ae 74       		.byte	0x74
 6362 03af 04       		.sleb128 4
GAS LISTING C:\Users\jisu8\AppData\Local\Temp\ccX0Ht2c.s 			page 143


 6363 03b0 00000000 		.long	0
 6364 03b4 00000000 		.long	0
 6365              	LLST3:
 6366 03b8 3C020000 		.long	LFB7-Ltext0
 6367 03bc 3D020000 		.long	LCFI9-Ltext0
 6368 03c0 0200     		.word	0x2
 6369 03c2 74       		.byte	0x74
 6370 03c3 04       		.sleb128 4
 6371 03c4 3D020000 		.long	LCFI9-Ltext0
 6372 03c8 3F020000 		.long	LCFI10-Ltext0
 6373 03cc 0200     		.word	0x2
 6374 03ce 74       		.byte	0x74
 6375 03cf 08       		.sleb128 8
 6376 03d0 3F020000 		.long	LCFI10-Ltext0
 6377 03d4 C1020000 		.long	LCFI11-Ltext0
 6378 03d8 0200     		.word	0x2
 6379 03da 75       		.byte	0x75
 6380 03db 08       		.sleb128 8
 6381 03dc C1020000 		.long	LCFI11-Ltext0
 6382 03e0 C2020000 		.long	LFE7-Ltext0
 6383 03e4 0200     		.word	0x2
 6384 03e6 74       		.byte	0x74
 6385 03e7 04       		.sleb128 4
 6386 03e8 00000000 		.long	0
 6387 03ec 00000000 		.long	0
 6388              	LLST2:
 6389 03f0 0D020000 		.long	LFB6-Ltext0
 6390 03f4 0E020000 		.long	LCFI6-Ltext0
 6391 03f8 0200     		.word	0x2
 6392 03fa 74       		.byte	0x74
 6393 03fb 04       		.sleb128 4
 6394 03fc 0E020000 		.long	LCFI6-Ltext0
 6395 0400 10020000 		.long	LCFI7-Ltext0
 6396 0404 0200     		.word	0x2
 6397 0406 74       		.byte	0x74
 6398 0407 08       		.sleb128 8
 6399 0408 10020000 		.long	LCFI7-Ltext0
 6400 040c 3B020000 		.long	LCFI8-Ltext0
 6401 0410 0200     		.word	0x2
 6402 0412 75       		.byte	0x75
 6403 0413 08       		.sleb128 8
 6404 0414 3B020000 		.long	LCFI8-Ltext0
 6405 0418 3C020000 		.long	LFE6-Ltext0
 6406 041c 0200     		.word	0x2
 6407 041e 74       		.byte	0x74
 6408 041f 04       		.sleb128 4
 6409 0420 00000000 		.long	0
 6410 0424 00000000 		.long	0
 6411              	LLST1:
 6412 0428 D3000000 		.long	LFB5-Ltext0
 6413 042c D4000000 		.long	LCFI3-Ltext0
 6414 0430 0200     		.word	0x2
 6415 0432 74       		.byte	0x74
 6416 0433 04       		.sleb128 4
 6417 0434 D4000000 		.long	LCFI3-Ltext0
 6418 0438 D6000000 		.long	LCFI4-Ltext0
 6419 043c 0200     		.word	0x2
GAS LISTING C:\Users\jisu8\AppData\Local\Temp\ccX0Ht2c.s 			page 144


 6420 043e 74       		.byte	0x74
 6421 043f 08       		.sleb128 8
 6422 0440 D6000000 		.long	LCFI4-Ltext0
 6423 0444 0C020000 		.long	LCFI5-Ltext0
 6424 0448 0200     		.word	0x2
 6425 044a 75       		.byte	0x75
 6426 044b 08       		.sleb128 8
 6427 044c 0C020000 		.long	LCFI5-Ltext0
 6428 0450 0D020000 		.long	LFE5-Ltext0
 6429 0454 0200     		.word	0x2
 6430 0456 74       		.byte	0x74
 6431 0457 04       		.sleb128 4
 6432 0458 00000000 		.long	0
 6433 045c 00000000 		.long	0
 6434              	LLST0:
 6435 0460 00000000 		.long	LFB4-Ltext0
 6436 0464 01000000 		.long	LCFI0-Ltext0
 6437 0468 0200     		.word	0x2
 6438 046a 74       		.byte	0x74
 6439 046b 04       		.sleb128 4
 6440 046c 01000000 		.long	LCFI0-Ltext0
 6441 0470 03000000 		.long	LCFI1-Ltext0
 6442 0474 0200     		.word	0x2
 6443 0476 74       		.byte	0x74
 6444 0477 08       		.sleb128 8
 6445 0478 03000000 		.long	LCFI1-Ltext0
 6446 047c D2000000 		.long	LCFI2-Ltext0
 6447 0480 0200     		.word	0x2
 6448 0482 75       		.byte	0x75
 6449 0483 08       		.sleb128 8
 6450 0484 D2000000 		.long	LCFI2-Ltext0
 6451 0488 D3000000 		.long	LFE4-Ltext0
 6452 048c 0200     		.word	0x2
 6453 048e 74       		.byte	0x74
 6454 048f 04       		.sleb128 4
 6455 0490 00000000 		.long	0
 6456 0494 00000000 		.long	0
 6457              		.section	.debug_aranges,"dr"
 6458 0000 1C000000 		.long	0x1c
 6459 0004 0200     		.word	0x2
 6460 0006 00000000 		.secrel32	Ldebug_info0
 6461 000a 04       		.byte	0x4
 6462 000b 00       		.byte	0
 6463 000c 0000     		.word	0
 6464 000e 0000     		.word	0
 6465 0010 00000000 		.long	Ltext0
 6466 0014 7E120000 		.long	Letext0-Ltext0
 6467 0018 00000000 		.long	0
 6468 001c 00000000 		.long	0
 6469              		.section	.debug_line,"dr"
 6470              	Ldebug_line0:
 6471 0000 D4090000 		.section	.debug_str,"dr"
 6471      0200A901 
 6471      00000101 
 6471      FB0E0D00 
 6471      01010101 
 6472              	LASF6:
GAS LISTING C:\Users\jisu8\AppData\Local\Temp\ccX0Ht2c.s 			page 145


 6473 0000 6D617843 		.ascii "maxCodewordWidth\0"
 6473      6F646577 
 6473      6F726457 
 6473      69647468 
 6473      00
 6474              	LASF16:
 6475 0011 636F6465 		.ascii "codeword\0"
 6475      776F7264 
 6475      00
 6476              	LASF11:
 6477 001a 64657465 		.ascii "detectionResult\0"
 6477      6374696F 
 6477      6E526573 
 6477      756C7400 
 6478              	LASF5:
 6479 002a 6D696E43 		.ascii "minCodewordWidth\0"
 6479      6F646577 
 6479      6F726457 
 6479      69647468 
 6479      00
 6480              	LASF8:
 6481 003b 6C656E67 		.ascii "length\0"
 6481      746800
 6482              	LASF4:
 6483 0042 696D6167 		.ascii "image\0"
 6483      6500
 6484              	LASF0:
 6485 0048 6D5F6861 		.ascii "m_hasValue\0"
 6485      7356616C 
 6485      756500
 6486              	LASF22:
 6487 0053 6D696E43 		.ascii "minColumn\0"
 6487      6F6C756D 
 6487      6E00
 6488              	LASF19:
 6489 005d 4D657461 		.ascii "Metadata\0"
 6489      64617461 
 6489      00
 6490              	LASF2:
 6491 0066 5F626F75 		.ascii "_boundingBox\0"
 6491      6E64696E 
 6491      67426F78 
 6491      00
 6492              	LASF9:
 6493 0073 6C656674 		.ascii "leftRowIndicatorColumn\0"
 6493      526F7749 
 6493      6E646963 
 6493      61746F72 
 6493      436F6C75 
 6494              	LASF7:
 6495 008a 626F756E 		.ascii "boundingBox\0"
 6495      64696E67 
 6495      426F7800 
 6496              	LASF1:
 6497 0096 6D5F7661 		.ascii "m_value\0"
 6497      6C756500 
 6498              	LASF14:
GAS LISTING C:\Users\jisu8\AppData\Local\Temp\ccX0Ht2c.s 			page 146


 6499 009e 73746172 		.ascii "startColumn\0"
 6499      74436F6C 
 6499      756D6E00 
 6500              	LASF12:
 6501 00aa 6C656674 		.ascii "leftToRight\0"
 6501      546F5269 
 6501      67687400 
 6502              	LASF15:
 6503 00b6 696D6167 		.ascii "imageRow\0"
 6503      65526F77 
 6503      00
 6504              	LASF13:
 6505 00bf 62617263 		.ascii "barcodeColumn\0"
 6505      6F646543 
 6505      6F6C756D 
 6505      6E00
 6506              	LASF18:
 6507 00cd 7072696E 		.ascii "printf\0"
 6507      746600
 6508              	LASF23:
 6509 00d4 6D617843 		.ascii "maxColumn\0"
 6509      6F6C756D 
 6509      6E00
 6510              	LASF20:
 6511 00de 526F7749 		.ascii "RowIndicatorColumn\0"
 6511      6E646963 
 6511      61746F72 
 6511      436F6C75 
 6511      6D6E00
 6512              	LASF24:
 6513 00f1 6D6F6475 		.ascii "moduleBitCount\0"
 6513      6C654269 
 6513      74436F75 
 6513      6E7400
 6514              	LASF10:
 6515 0100 72696768 		.ascii "rightRowIndicatorColumn\0"
 6515      74526F77 
 6515      496E6469 
 6515      6361746F 
 6515      72436F6C 
 6516              	LASF3:
 6517 0118 726F7749 		.ascii "rowIndicatorColumn\0"
 6517      6E646963 
 6517      61746F72 
 6517      436F6C75 
 6517      6D6E00
 6518              	LASF17:
 6519 012b 72657375 		.ascii "result\0"
 6519      6C7400
 6520              	LASF21:
 6521 0132 696E6372 		.ascii "increment\0"
 6521      656D656E 
 6521      7400
 6522              		.ident	"GCC: (i686-posix-dwarf-rev0, Built by MinGW-W64 project) 8.1.0"
GAS LISTING C:\Users\jisu8\AppData\Local\Temp\ccX0Ht2c.s 			page 147


DEFINED SYMBOLS
                            *ABS*:00000000 PDFScanningDecoder.c
C:\Users\jisu8\AppData\Local\Temp\ccX0Ht2c.s:6      .rdata:00000000 _CODEWORD_SKEW_SIZE
C:\Users\jisu8\AppData\Local\Temp\ccX0Ht2c.s:9      .rdata:00000004 _MAX_ERRORS
C:\Users\jisu8\AppData\Local\Temp\ccX0Ht2c.s:12     .rdata:00000008 _MAX_EC_CODEWORDS
C:\Users\jisu8\AppData\Local\Temp\ccX0Ht2c.s:15     .rdata:0000000c _BARCODE_ROW_UNKNOWN
                            *COM*:00000020 _result_bits
                            *COM*:00000018 _CodeWord
                            *COM*:00002f34 _rowIndicatorColumn
C:\Users\jisu8\AppData\Local\Temp\ccX0Ht2c.s:25     .text:00000000 _AdjustCodewordStartColumn
C:\Users\jisu8\AppData\Local\Temp\ccX0Ht2c.s:158    .text:000000d3 _GetModuleBitCount
C:\Users\jisu8\AppData\Local\Temp\ccX0Ht2c.s:321    .text:0000020d _CheckCodewordSkew
C:\Users\jisu8\AppData\Local\Temp\ccX0Ht2c.s:367    .text:0000023c _GetBitCountForCodeword
C:\Users\jisu8\AppData\Local\Temp\ccX0Ht2c.s:436    .text:000002c2 _GetCodewordBucketNumberRet
C:\Users\jisu8\AppData\Local\Temp\ccX0Ht2c.s:494    .text:0000030e _GetCodewordBucketNumber
C:\Users\jisu8\AppData\Local\Temp\ccX0Ht2c.s:522    .text:00000329 _Codeword
C:\Users\jisu8\AppData\Local\Temp\ccX0Ht2c.s:566    .text:00000364 _DetectCodeword
C:\Users\jisu8\AppData\Local\Temp\ccX0Ht2c.s:731    .text:000004fd _setCodeword
C:\Users\jisu8\AppData\Local\Temp\ccX0Ht2c.s:917    .text:00000671 _GetRowIndicatorColumn
C:\Users\jisu8\AppData\Local\Temp\ccX0Ht2c.s:1092   .text:000007eb _Metadata_Init
C:\Users\jisu8\AppData\Local\Temp\ccX0Ht2c.s:1126   .text:00000818 _columnCount
C:\Users\jisu8\AppData\Local\Temp\ccX0Ht2c.s:1149   .text:00000822 _errorCorrectionLevel
C:\Users\jisu8\AppData\Local\Temp\ccX0Ht2c.s:1173   .text:0000082d _rowCount
C:\Users\jisu8\AppData\Local\Temp\ccX0Ht2c.s:1205   .text:00000840 _GetBarcodeMetadata
C:\Users\jisu8\AppData\Local\Temp\ccX0Ht2c.s:1381   .text:0000099c _GetMax
C:\Users\jisu8\AppData\Local\Temp\ccX0Ht2c.s:1442   .text:000009ed _AdjustBoundingBox
C:\Users\jisu8\AppData\Local\Temp\ccX0Ht2c.s:1699   .text:00000bf1 _Merge
C:\Users\jisu8\AppData\Local\Temp\ccX0Ht2c.s:1796   .text:00000cc7 _IsValidBarcodeColumn
C:\Users\jisu8\AppData\Local\Temp\ccX0Ht2c.s:1839   .text:00000ceb _GetStartColumn
C:\Users\jisu8\AppData\Local\Temp\ccX0Ht2c.s:2010   .text:00000e30 _Decode

UNDEFINED SYMBOLS
_BARS_IN_MODULE
___chkstk_ms
_printf
_fill
_Reduce
_reverse
_GetDecodedValue
_GetCodeword
_puts
_DetectionResultColumn
_getBarcodeMetadata
_getRowHeights
_isLeftRowIndicator
_AddMissingRows
_copy
_Bounding_Merge
_Detection_Result_init
_Create
_memcpy
