GAS LISTING C:\Users\jisu8\AppData\Local\Temp\ccIqWD58.s 			page 1


   1              		.file	"PDFScanningDecoder.c"
   2              		.text
   3              	Ltext0:
   4              		.section .rdata,"dr"
   5              		.align 4
   6              	_CODEWORD_SKEW_SIZE:
   7 0000 02000000 		.long	2
   8              		.align 4
   9              	_MAX_ERRORS:
  10 0004 03000000 		.long	3
  11              		.align 4
  12              	_MAX_EC_CODEWORDS:
  13 0008 00020000 		.long	512
  14              		.globl	_BARCODE_ROW_UNKNOWN
  15              		.align 4
  16              	_BARCODE_ROW_UNKNOWN:
  17 000c FFFFFFFF 		.long	-1
  18              		.comm	_result_bits, 32, 5
  19              		.comm	_CodeWord, 24, 2
  20              		.comm	_rowIndicatorColumn, 12084, 5
  21              		.align 4
  22              	LC0:
  23 0010 4765744D 		.ascii "GetModuleBitCount minColumn=%d, maxColumn=%d, leftToRight=%d, codewordStartColumn=%d, imag
  23      6F64756C 
  23      65426974 
  23      436F756E 
  23      74206D69 
  24              		.text
  26              	_AdjustCodewordStartColumn:
  27              	LFB4:
  28              		.file 1 "src/pdf417/PDFScanningDecoder.c"
   1:src/pdf417/PDFScanningDecoder.c **** 
   2:src/pdf417/PDFScanningDecoder.c **** #include "PDFScanningDecoder.h"
   3:src/pdf417/PDFScanningDecoder.c **** #include "PDFBoundingBox.h"
   4:src/pdf417/PDFScanningDecoder.c **** #include "PDFDetectionResultColumn.h"
   5:src/pdf417/PDFScanningDecoder.c **** #include "PDFDetectionResult.h"
   6:src/pdf417/PDFScanningDecoder.c **** #include "PDFCodewordDecoder.h"
   7:src/pdf417/PDFScanningDecoder.c **** #include "PDFBarcodeValue.h"
   8:src/pdf417/PDFScanningDecoder.c **** #include "DecodeStatus.h"
   9:src/pdf417/PDFScanningDecoder.c **** #include "library.h"
  10:src/pdf417/PDFScanningDecoder.c **** #include <stdlib.h>
  11:src/pdf417/PDFScanningDecoder.c **** 
  12:src/pdf417/PDFScanningDecoder.c **** static const int CODEWORD_SKEW_SIZE = 2;
  13:src/pdf417/PDFScanningDecoder.c **** static const int MAX_ERRORS = 3;
  14:src/pdf417/PDFScanningDecoder.c **** static const int MAX_EC_CODEWORDS = 512;
  15:src/pdf417/PDFScanningDecoder.c **** const int BARCODE_ROW_UNKNOWN = -1;
  16:src/pdf417/PDFScanningDecoder.c **** 
  17:src/pdf417/PDFScanningDecoder.c **** int result_bits[8];
  18:src/pdf417/PDFScanningDecoder.c **** 
  19:src/pdf417/PDFScanningDecoder.c **** Codeword_t CodeWord;
  20:src/pdf417/PDFScanningDecoder.c **** DetectionResultColumn_t rowIndicatorColumn;
  21:src/pdf417/PDFScanningDecoder.c **** 
  22:src/pdf417/PDFScanningDecoder.c **** static int AdjustCodewordStartColumn(const BitMatrix_t * image, int minColumn, int maxColumn, uint8
  23:src/pdf417/PDFScanningDecoder.c **** {
  29              		.loc 1 23 1
  30              		.cfi_startproc
  31 0000 55       		pushl	%ebp
GAS LISTING C:\Users\jisu8\AppData\Local\Temp\ccIqWD58.s 			page 2


  32              	LCFI0:
  33              		.cfi_def_cfa_offset 8
  34              		.cfi_offset 5, -8
  35 0001 89E5     		movl	%esp, %ebp
  36              	LCFI1:
  37              		.cfi_def_cfa_register 5
  38 0003 83EC48   		subl	$72, %esp
  39 0006 8B4514   		movl	20(%ebp), %eax
  40 0009 8845E4   		movb	%al, -28(%ebp)
  24:src/pdf417/PDFScanningDecoder.c **** 
  25:src/pdf417/PDFScanningDecoder.c **** 	printf("GetModuleBitCount minColumn=%d, maxColumn=%d, leftToRight=%d, codewordStartColumn=%d, imag
  41              		.loc 1 25 2
  42 000c 0FB645E4 		movzbl	-28(%ebp), %eax
  43 0010 8B551C   		movl	28(%ebp), %edx
  44 0013 89542414 		movl	%edx, 20(%esp)
  45 0017 8B5518   		movl	24(%ebp), %edx
  46 001a 89542410 		movl	%edx, 16(%esp)
  47 001e 8944240C 		movl	%eax, 12(%esp)
  48 0022 8B4510   		movl	16(%ebp), %eax
  49 0025 89442408 		movl	%eax, 8(%esp)
  50 0029 8B450C   		movl	12(%ebp), %eax
  51 002c 89442404 		movl	%eax, 4(%esp)
  52 0030 C7042410 		movl	$LC0, (%esp)
  52      000000
  53 0037 E8000000 		call	_printf
  53      00
  26:src/pdf417/PDFScanningDecoder.c **** 		minColumn, maxColumn, leftToRight, codewordStartColumn, imageRow);
  27:src/pdf417/PDFScanningDecoder.c **** 	
  28:src/pdf417/PDFScanningDecoder.c **** 	int correctedStartColumn = codewordStartColumn;
  54              		.loc 1 28 6
  55 003c 8B4518   		movl	24(%ebp), %eax
  56 003f 8945F4   		movl	%eax, -12(%ebp)
  29:src/pdf417/PDFScanningDecoder.c **** 	int increment = leftToRight ? -1 : 1;
  57              		.loc 1 29 35
  58 0042 807DE400 		cmpb	$0, -28(%ebp)
  59 0046 7407     		je	L2
  60              		.loc 1 29 35 is_stmt 0 discriminator 1
  61 0048 B8FFFFFF 		movl	$-1, %eax
  61      FF
  62 004d EB05     		jmp	L3
  63              	L2:
  64              		.loc 1 29 35 discriminator 2
  65 004f B8010000 		movl	$1, %eax
  65      00
  66              	L3:
  67              		.loc 1 29 6 is_stmt 1 discriminator 4
  68 0054 8945F0   		movl	%eax, -16(%ebp)
  69              	LBB2:
  30:src/pdf417/PDFScanningDecoder.c **** 	// there should be no black pixels before the start column. If there are, then we need to start ea
  31:src/pdf417/PDFScanningDecoder.c **** 	for (int i = 0; i < 2; i++) 
  70              		.loc 1 31 11 discriminator 4
  71 0057 C745EC00 		movl	$0, -20(%ebp)
  71      000000
  72              		.loc 1 31 2 discriminator 4
  73 005e EB68     		jmp	L4
  74              	L11:
  32:src/pdf417/PDFScanningDecoder.c **** 	{
GAS LISTING C:\Users\jisu8\AppData\Local\Temp\ccIqWD58.s 			page 3


  33:src/pdf417/PDFScanningDecoder.c **** 		while ((leftToRight ? correctedStartColumn >= minColumn : correctedStartColumn < maxColumn) &&
  34:src/pdf417/PDFScanningDecoder.c **** 			leftToRight == image->bits[imageRow * image->_width + correctedStartColumn]) 
  35:src/pdf417/PDFScanningDecoder.c **** 			{
  36:src/pdf417/PDFScanningDecoder.c **** 			if (abs(codewordStartColumn - correctedStartColumn) > CODEWORD_SKEW_SIZE) 
  75              		.loc 1 36 32
  76 0060 8B4518   		movl	24(%ebp), %eax
  77 0063 2B45F4   		subl	-12(%ebp), %eax
  78              		.loc 1 36 8
  79 0066 99       		cltd
  80 0067 31D0     		xorl	%edx, %eax
  81 0069 29D0     		subl	%edx, %eax
  82              		.loc 1 36 56
  83 006b BA020000 		movl	$2, %edx
  83      00
  84              		.loc 1 36 7
  85 0070 39D0     		cmpl	%edx, %eax
  86 0072 7E05     		jle	L6
  37:src/pdf417/PDFScanningDecoder.c **** 			{
  38:src/pdf417/PDFScanningDecoder.c **** 				return codewordStartColumn;
  87              		.loc 1 38 12
  88 0074 8B4518   		movl	24(%ebp), %eax
  89 0077 EB58     		jmp	L7
  90              	L6:
  39:src/pdf417/PDFScanningDecoder.c **** 			}
  40:src/pdf417/PDFScanningDecoder.c **** 			correctedStartColumn += increment;
  91              		.loc 1 40 25
  92 0079 8B45F0   		movl	-16(%ebp), %eax
  93 007c 0145F4   		addl	%eax, -12(%ebp)
  94              	L5:
  33:src/pdf417/PDFScanningDecoder.c **** 			leftToRight == image->bits[imageRow * image->_width + correctedStartColumn]) 
  95              		.loc 1 33 9
  96 007f 807DE400 		cmpb	$0, -28(%ebp)
  97 0083 740A     		je	L8
  33:src/pdf417/PDFScanningDecoder.c **** 			leftToRight == image->bits[imageRow * image->_width + correctedStartColumn]) 
  98              		.loc 1 33 9 is_stmt 0 discriminator 1
  99 0085 8B45F4   		movl	-12(%ebp), %eax
 100 0088 3B450C   		cmpl	12(%ebp), %eax
 101 008b 7D0A     		jge	L9
 102 008d EB28     		jmp	L10
 103              	L8:
  33:src/pdf417/PDFScanningDecoder.c **** 			leftToRight == image->bits[imageRow * image->_width + correctedStartColumn]) 
 104              		.loc 1 33 95 is_stmt 1 discriminator 2
 105 008f 8B45F4   		movl	-12(%ebp), %eax
 106 0092 3B4510   		cmpl	16(%ebp), %eax
 107 0095 7D20     		jge	L10
 108              	L9:
  34:src/pdf417/PDFScanningDecoder.c **** 			{
 109              		.loc 1 34 24 discriminator 3
 110 0097 8B4508   		movl	8(%ebp), %eax
 111 009a 8B500C   		movl	12(%eax), %edx
  34:src/pdf417/PDFScanningDecoder.c **** 			{
 112              		.loc 1 34 47 discriminator 3
 113 009d 8B4508   		movl	8(%ebp), %eax
 114 00a0 8B00     		movl	(%eax), %eax
  34:src/pdf417/PDFScanningDecoder.c **** 			{
 115              		.loc 1 34 40 discriminator 3
 116 00a2 0FAF451C 		imull	28(%ebp), %eax
GAS LISTING C:\Users\jisu8\AppData\Local\Temp\ccIqWD58.s 			page 4


 117 00a6 89C1     		movl	%eax, %ecx
  34:src/pdf417/PDFScanningDecoder.c **** 			{
 118              		.loc 1 34 56 discriminator 3
 119 00a8 8B45F4   		movl	-12(%ebp), %eax
 120 00ab 01C8     		addl	%ecx, %eax
  34:src/pdf417/PDFScanningDecoder.c **** 			{
 121              		.loc 1 34 30 discriminator 3
 122 00ad 01D0     		addl	%edx, %eax
 123 00af 0FB600   		movzbl	(%eax), %eax
  33:src/pdf417/PDFScanningDecoder.c **** 			leftToRight == image->bits[imageRow * image->_width + correctedStartColumn]) 
 124              		.loc 1 33 95 discriminator 3
 125 00b2 3845E4   		cmpb	%al, -28(%ebp)
 126 00b5 74A9     		je	L11
 127              	L10:
  41:src/pdf417/PDFScanningDecoder.c **** 		}
  42:src/pdf417/PDFScanningDecoder.c **** 		increment = -increment;
 128              		.loc 1 42 13 discriminator 2
 129 00b7 F75DF0   		negl	-16(%ebp)
  43:src/pdf417/PDFScanningDecoder.c **** 		leftToRight = !leftToRight;
 130              		.loc 1 43 17 discriminator 2
 131 00ba 807DE400 		cmpb	$0, -28(%ebp)
 132 00be 0F94C0   		sete	%al
 133              		.loc 1 43 15 discriminator 2
 134 00c1 8845E4   		movb	%al, -28(%ebp)
  31:src/pdf417/PDFScanningDecoder.c **** 	{
 135              		.loc 1 31 26 discriminator 2
 136 00c4 8345EC01 		addl	$1, -20(%ebp)
 137              	L4:
  31:src/pdf417/PDFScanningDecoder.c **** 	{
 138              		.loc 1 31 2 discriminator 1
 139 00c8 837DEC01 		cmpl	$1, -20(%ebp)
 140 00cc 7EB1     		jle	L5
 141              	LBE2:
  44:src/pdf417/PDFScanningDecoder.c **** 	}
  45:src/pdf417/PDFScanningDecoder.c **** 	return correctedStartColumn;
 142              		.loc 1 45 9
 143 00ce 8B45F4   		movl	-12(%ebp), %eax
 144              	L7:
  46:src/pdf417/PDFScanningDecoder.c **** }
 145              		.loc 1 46 1
 146 00d1 C9       		leave
 147              	LCFI2:
 148              		.cfi_restore 5
 149              		.cfi_def_cfa 4, 4
 150 00d2 C3       		ret
 151              		.cfi_endproc
 152              	LFE4:
 153              		.section .rdata,"dr"
 154 0073 00       		.align 4
 155              	LC1:
 156 0074 4765744D 		.ascii "GetModuleBitCount minColumn=%d, maxColumn=%d, leftToRight=%d, startColumn=%d, imageRow=%d\
 156      6F64756C 
 156      65426974 
 156      436F756E 
 156      74206D69 
 157              		.text
 159              	_GetModuleBitCount:
GAS LISTING C:\Users\jisu8\AppData\Local\Temp\ccIqWD58.s 			page 5


 160              	LFB5:
  47:src/pdf417/PDFScanningDecoder.c **** 
  48:src/pdf417/PDFScanningDecoder.c **** static uint8_t GetModuleBitCount(const BitMatrix_t * image, int minColumn, int maxColumn, uint8_t l
  49:src/pdf417/PDFScanningDecoder.c **** {
 161              		.loc 1 49 1
 162              		.cfi_startproc
 163 00d3 55       		pushl	%ebp
 164              	LCFI3:
 165              		.cfi_def_cfa_offset 8
 166              		.cfi_offset 5, -8
 167 00d4 89E5     		movl	%esp, %ebp
 168              	LCFI4:
 169              		.cfi_def_cfa_register 5
 170 00d6 83EC48   		subl	$72, %esp
 171 00d9 8B5514   		movl	20(%ebp), %edx
 172 00dc 8B4524   		movl	36(%ebp), %eax
 173 00df 8855E4   		movb	%dl, -28(%ebp)
 174 00e2 8845E0   		movb	%al, -32(%ebp)
  50:src/pdf417/PDFScanningDecoder.c **** 
  51:src/pdf417/PDFScanningDecoder.c **** 	printf("GetModuleBitCount minColumn=%d, maxColumn=%d, leftToRight=%d, startColumn=%d, imageRow=%d\
 175              		.loc 1 51 2
 176 00e5 0FB645E4 		movzbl	-28(%ebp), %eax
 177 00e9 8B551C   		movl	28(%ebp), %edx
 178 00ec 89542414 		movl	%edx, 20(%esp)
 179 00f0 8B5518   		movl	24(%ebp), %edx
 180 00f3 89542410 		movl	%edx, 16(%esp)
 181 00f7 8944240C 		movl	%eax, 12(%esp)
 182 00fb 8B4510   		movl	16(%ebp), %eax
 183 00fe 89442408 		movl	%eax, 8(%esp)
 184 0102 8B450C   		movl	12(%ebp), %eax
 185 0105 89442404 		movl	%eax, 4(%esp)
 186 0109 C7042474 		movl	$LC1, (%esp)
 186      000000
 187 0110 E8000000 		call	_printf
 187      00
  52:src/pdf417/PDFScanningDecoder.c **** 		minColumn, maxColumn, leftToRight, startColumn, imageRow );
  53:src/pdf417/PDFScanningDecoder.c **** 	
  54:src/pdf417/PDFScanningDecoder.c **** 	int imageColumn = startColumn;
 188              		.loc 1 54 6
 189 0115 8B4518   		movl	24(%ebp), %eax
 190 0118 8945F4   		movl	%eax, -12(%ebp)
  55:src/pdf417/PDFScanningDecoder.c **** 	unsigned int moduleNumber = 0;
 191              		.loc 1 55 15
 192 011b C745F000 		movl	$0, -16(%ebp)
 192      000000
  56:src/pdf417/PDFScanningDecoder.c **** 	int increment = leftToRight ? 1 : -1;
 193              		.loc 1 56 34
 194 0122 807DE400 		cmpb	$0, -28(%ebp)
 195 0126 7407     		je	L14
 196              		.loc 1 56 34 is_stmt 0 discriminator 1
 197 0128 B8010000 		movl	$1, %eax
 197      00
 198 012d EB05     		jmp	L15
 199              	L14:
 200              		.loc 1 56 34 discriminator 2
 201 012f B8FFFFFF 		movl	$-1, %eax
 201      FF
GAS LISTING C:\Users\jisu8\AppData\Local\Temp\ccIqWD58.s 			page 6


 202              	L15:
 203              		.loc 1 56 6 is_stmt 1 discriminator 4
 204 0134 8945E8   		movl	%eax, -24(%ebp)
  57:src/pdf417/PDFScanningDecoder.c **** 	uint8_t previousPixelValue = leftToRight;
 205              		.loc 1 57 10 discriminator 4
 206 0137 0FB645E4 		movzbl	-28(%ebp), %eax
 207 013b 8845EF   		movb	%al, -17(%ebp)
  58:src/pdf417/PDFScanningDecoder.c **** 	fill(length,moduleBitCount,0);
 208              		.loc 1 58 2 discriminator 4
 209 013e 0FB645E0 		movzbl	-32(%ebp), %eax
 210 0142 C7442408 		movl	$0, 8(%esp)
 210      00000000 
 211 014a 8B5520   		movl	32(%ebp), %edx
 212 014d 89542404 		movl	%edx, 4(%esp)
 213 0151 890424   		movl	%eax, (%esp)
 214 0154 E8000000 		call	_fill
 214      00
  59:src/pdf417/PDFScanningDecoder.c **** 	
  60:src/pdf417/PDFScanningDecoder.c **** 	while ((leftToRight ? (imageColumn < maxColumn) : (imageColumn >= minColumn)) && moduleNumber < le
 215              		.loc 1 60 8 discriminator 4
 216 0159 EB5B     		jmp	L16
 217              	L21:
  61:src/pdf417/PDFScanningDecoder.c **** 	{
  62:src/pdf417/PDFScanningDecoder.c **** 		if (image->bits[imageRow * image->_width + imageColumn] == previousPixelValue) 
 218              		.loc 1 62 12
 219 015b 8B4508   		movl	8(%ebp), %eax
 220 015e 8B500C   		movl	12(%eax), %edx
 221              		.loc 1 62 35
 222 0161 8B4508   		movl	8(%ebp), %eax
 223 0164 8B00     		movl	(%eax), %eax
 224              		.loc 1 62 28
 225 0166 0FAF451C 		imull	28(%ebp), %eax
 226 016a 89C1     		movl	%eax, %ecx
 227              		.loc 1 62 44
 228 016c 8B45F4   		movl	-12(%ebp), %eax
 229 016f 01C8     		addl	%ecx, %eax
 230              		.loc 1 62 18
 231 0171 01D0     		addl	%edx, %eax
 232 0173 0FB600   		movzbl	(%eax), %eax
 233              		.loc 1 62 6
 234 0176 3845EF   		cmpb	%al, -17(%ebp)
 235 0179 752D     		jne	L17
  63:src/pdf417/PDFScanningDecoder.c **** 		{
  64:src/pdf417/PDFScanningDecoder.c **** 			moduleBitCount[moduleNumber] += 1;
 236              		.loc 1 64 33
 237 017b 8B45F0   		movl	-16(%ebp), %eax
 238 017e 8D148500 		leal	0(,%eax,4), %edx
 238      000000
 239 0185 8B4520   		movl	32(%ebp), %eax
 240 0188 01D0     		addl	%edx, %eax
 241 018a 8B10     		movl	(%eax), %edx
 242 018c 8B45F0   		movl	-16(%ebp), %eax
 243 018f 8D0C8500 		leal	0(,%eax,4), %ecx
 243      000000
 244 0196 8B4520   		movl	32(%ebp), %eax
 245 0199 01C8     		addl	%ecx, %eax
 246 019b 83C201   		addl	$1, %edx
GAS LISTING C:\Users\jisu8\AppData\Local\Temp\ccIqWD58.s 			page 7


 247 019e 8910     		movl	%edx, (%eax)
  65:src/pdf417/PDFScanningDecoder.c **** 			imageColumn += increment;
 248              		.loc 1 65 16
 249 01a0 8B45E8   		movl	-24(%ebp), %eax
 250 01a3 0145F4   		addl	%eax, -12(%ebp)
 251 01a6 EB0E     		jmp	L16
 252              	L17:
  66:src/pdf417/PDFScanningDecoder.c **** 		}
  67:src/pdf417/PDFScanningDecoder.c **** 		else {
  68:src/pdf417/PDFScanningDecoder.c **** 			moduleNumber += 1;
 253              		.loc 1 68 17
 254 01a8 8345F001 		addl	$1, -16(%ebp)
  69:src/pdf417/PDFScanningDecoder.c **** 			previousPixelValue = !previousPixelValue;
 255              		.loc 1 69 25
 256 01ac 807DEF00 		cmpb	$0, -17(%ebp)
 257 01b0 0F94C0   		sete	%al
 258              		.loc 1 69 23
 259 01b3 8845EF   		movb	%al, -17(%ebp)
 260              	L16:
  60:src/pdf417/PDFScanningDecoder.c **** 	{
 261              		.loc 1 60 8
 262 01b6 807DE400 		cmpb	$0, -28(%ebp)
 263 01ba 740A     		je	L18
  60:src/pdf417/PDFScanningDecoder.c **** 	{
 264              		.loc 1 60 8 is_stmt 0 discriminator 1
 265 01bc 8B45F4   		movl	-12(%ebp), %eax
 266 01bf 3B4510   		cmpl	16(%ebp), %eax
 267 01c2 7C0A     		jl	L19
 268 01c4 EB11     		jmp	L20
 269              	L18:
  60:src/pdf417/PDFScanningDecoder.c **** 	{
 270              		.loc 1 60 80 is_stmt 1 discriminator 2
 271 01c6 8B45F4   		movl	-12(%ebp), %eax
 272 01c9 3B450C   		cmpl	12(%ebp), %eax
 273 01cc 7C09     		jl	L20
 274              	L19:
  60:src/pdf417/PDFScanningDecoder.c **** 	{
 275              		.loc 1 60 96 discriminator 3
 276 01ce 0FB645E0 		movzbl	-32(%ebp), %eax
  60:src/pdf417/PDFScanningDecoder.c **** 	{
 277              		.loc 1 60 80 discriminator 3
 278 01d2 3945F0   		cmpl	%eax, -16(%ebp)
 279 01d5 7284     		jb	L21
 280              	L20:
  70:src/pdf417/PDFScanningDecoder.c **** 		}
  71:src/pdf417/PDFScanningDecoder.c **** 	}
  72:src/pdf417/PDFScanningDecoder.c **** 	return moduleNumber == length || (imageColumn == (leftToRight ? maxColumn : minColumn) && moduleNu
 281              		.loc 1 72 22
 282 01d7 0FB645E0 		movzbl	-32(%ebp), %eax
 283              		.loc 1 72 32
 284 01db 3945F0   		cmpl	%eax, -16(%ebp)
 285 01de 741F     		je	L22
 286              		.loc 1 72 76 discriminator 2
 287 01e0 807DE400 		cmpb	$0, -28(%ebp)
 288 01e4 7405     		je	L23
 289              		.loc 1 72 76 is_stmt 0 discriminator 3
 290 01e6 8B4510   		movl	16(%ebp), %eax
GAS LISTING C:\Users\jisu8\AppData\Local\Temp\ccIqWD58.s 			page 8


 291 01e9 EB03     		jmp	L24
 292              	L23:
 293              		.loc 1 72 76 discriminator 4
 294 01eb 8B450C   		movl	12(%ebp), %eax
 295              	L24:
 296              		.loc 1 72 32 is_stmt 1 discriminator 6
 297 01ee 3B45F4   		cmpl	-12(%ebp), %eax
 298 01f1 7513     		jne	L25
 299              		.loc 1 72 115 discriminator 7
 300 01f3 0FB645E0 		movzbl	-32(%ebp), %eax
 301 01f7 83E801   		subl	$1, %eax
 302              		.loc 1 72 89 discriminator 7
 303 01fa 3945F0   		cmpl	%eax, -16(%ebp)
 304 01fd 7507     		jne	L25
 305              	L22:
 306              		.loc 1 72 32 discriminator 9
 307 01ff B8010000 		movl	$1, %eax
 307      00
 308 0204 EB05     		jmp	L26
 309              	L25:
 310              		.loc 1 72 32 is_stmt 0 discriminator 10
 311 0206 B8000000 		movl	$0, %eax
 311      00
 312              	L26:
  73:src/pdf417/PDFScanningDecoder.c **** }
 313              		.loc 1 73 1 is_stmt 1 discriminator 12
 314 020b C9       		leave
 315              	LCFI5:
 316              		.cfi_restore 5
 317              		.cfi_def_cfa 4, 4
 318 020c C3       		ret
 319              		.cfi_endproc
 320              	LFE5:
 322              	_CheckCodewordSkew:
 323              	LFB6:
  74:src/pdf417/PDFScanningDecoder.c **** 
  75:src/pdf417/PDFScanningDecoder.c **** static uint8_t CheckCodewordSkew(int codewordSize, int minCodewordWidth, int maxCodewordWidth)
  76:src/pdf417/PDFScanningDecoder.c **** {
 324              		.loc 1 76 1
 325              		.cfi_startproc
 326 020d 55       		pushl	%ebp
 327              	LCFI6:
 328              		.cfi_def_cfa_offset 8
 329              		.cfi_offset 5, -8
 330 020e 89E5     		movl	%esp, %ebp
 331              	LCFI7:
 332              		.cfi_def_cfa_register 5
  77:src/pdf417/PDFScanningDecoder.c **** 	return minCodewordWidth - CODEWORD_SKEW_SIZE <= codewordSize &&
 333              		.loc 1 77 26
 334 0210 BA020000 		movl	$2, %edx
 334      00
 335 0215 8B450C   		movl	12(%ebp), %eax
 336 0218 29D0     		subl	%edx, %eax
 337              		.loc 1 77 63
 338 021a 394508   		cmpl	%eax, 8(%ebp)
 339 021d 7C16     		jl	L29
  78:src/pdf417/PDFScanningDecoder.c **** 		codewordSize <= maxCodewordWidth + CODEWORD_SKEW_SIZE;
GAS LISTING C:\Users\jisu8\AppData\Local\Temp\ccIqWD58.s 			page 9


 340              		.loc 1 78 36 discriminator 1
 341 021f BA020000 		movl	$2, %edx
 341      00
 342 0224 8B4510   		movl	16(%ebp), %eax
 343 0227 01D0     		addl	%edx, %eax
  77:src/pdf417/PDFScanningDecoder.c **** 	return minCodewordWidth - CODEWORD_SKEW_SIZE <= codewordSize &&
 344              		.loc 1 77 63 discriminator 1
 345 0229 394508   		cmpl	%eax, 8(%ebp)
 346 022c 7F07     		jg	L29
  77:src/pdf417/PDFScanningDecoder.c **** 	return minCodewordWidth - CODEWORD_SKEW_SIZE <= codewordSize &&
 347              		.loc 1 77 63 is_stmt 0 discriminator 3
 348 022e B8010000 		movl	$1, %eax
 348      00
 349 0233 EB05     		jmp	L30
 350              	L29:
  77:src/pdf417/PDFScanningDecoder.c **** 	return minCodewordWidth - CODEWORD_SKEW_SIZE <= codewordSize &&
 351              		.loc 1 77 63 discriminator 4
 352 0235 B8000000 		movl	$0, %eax
 352      00
 353              	L30:
  79:src/pdf417/PDFScanningDecoder.c **** }
 354              		.loc 1 79 1 is_stmt 1 discriminator 6
 355 023a 5D       		popl	%ebp
 356              	LCFI8:
 357              		.cfi_restore 5
 358              		.cfi_def_cfa 4, 4
 359 023b C3       		ret
 360              		.cfi_endproc
 361              	LFE6:
 362              		.section .rdata,"dr"
 363 00cf 00       		.align 4
 364              	LC2:
 365 00d0 47657442 		.ascii "GetBitCountForCodeword codeword=%d\12\0"
 365      6974436F 
 365      756E7446 
 365      6F72436F 
 365      6465776F 
 366              		.text
 368              	_GetBitCountForCodeword:
 369              	LFB7:
  80:src/pdf417/PDFScanningDecoder.c **** 
  81:src/pdf417/PDFScanningDecoder.c **** static int * GetBitCountForCodeword(int codeword)
  82:src/pdf417/PDFScanningDecoder.c **** {
 370              		.loc 1 82 1
 371              		.cfi_startproc
 372 023c 55       		pushl	%ebp
 373              	LCFI9:
 374              		.cfi_def_cfa_offset 8
 375              		.cfi_offset 5, -8
 376 023d 89E5     		movl	%esp, %ebp
 377              	LCFI10:
 378              		.cfi_def_cfa_register 5
 379 023f 83EC28   		subl	$40, %esp
  83:src/pdf417/PDFScanningDecoder.c **** 
  84:src/pdf417/PDFScanningDecoder.c **** 	printf("GetBitCountForCodeword codeword=%d\n", codeword);
 380              		.loc 1 84 2
 381 0242 8B4508   		movl	8(%ebp), %eax
GAS LISTING C:\Users\jisu8\AppData\Local\Temp\ccIqWD58.s 			page 10


 382 0245 89442404 		movl	%eax, 4(%esp)
 383 0249 C70424D0 		movl	$LC2, (%esp)
 383      000000
 384 0250 E8000000 		call	_printf
 384      00
  85:src/pdf417/PDFScanningDecoder.c **** 
  86:src/pdf417/PDFScanningDecoder.c ****     fill(BARS_IN_MODULE,result_bits,0);
 385              		.loc 1 86 5
 386 0255 A1000000 		movl	_BARS_IN_MODULE, %eax
 386      00
 387 025a C7442408 		movl	$0, 8(%esp)
 387      00000000 
 388 0262 C7442404 		movl	$_result_bits, 4(%esp)
 388      00000000 
 389 026a 890424   		movl	%eax, (%esp)
 390 026d E8000000 		call	_fill
 390      00
  87:src/pdf417/PDFScanningDecoder.c **** 	int previousValue = 0;
 391              		.loc 1 87 6
 392 0272 C745F400 		movl	$0, -12(%ebp)
 392      000000
  88:src/pdf417/PDFScanningDecoder.c **** 	int i = sizeof(result_bits)/sizeof(result_bits[0]) - 1;
 393              		.loc 1 88 6
 394 0279 C745F007 		movl	$7, -16(%ebp)
 394      000000
 395              	L35:
  89:src/pdf417/PDFScanningDecoder.c **** 	while (1) 
  90:src/pdf417/PDFScanningDecoder.c **** 	{
  91:src/pdf417/PDFScanningDecoder.c **** 		if ((codeword & 0x1) != previousValue) 
 396              		.loc 1 91 17
 397 0280 8B4508   		movl	8(%ebp), %eax
 398 0283 83E001   		andl	$1, %eax
 399              		.loc 1 91 6
 400 0286 3945F4   		cmpl	%eax, -12(%ebp)
 401 0289 7413     		je	L33
  92:src/pdf417/PDFScanningDecoder.c **** 		{
  93:src/pdf417/PDFScanningDecoder.c **** 			previousValue = codeword & 0x1;
 402              		.loc 1 93 18
 403 028b 8B4508   		movl	8(%ebp), %eax
 404 028e 83E001   		andl	$1, %eax
 405 0291 8945F4   		movl	%eax, -12(%ebp)
  94:src/pdf417/PDFScanningDecoder.c **** 			i--;
 406              		.loc 1 94 5
 407 0294 836DF001 		subl	$1, -16(%ebp)
  95:src/pdf417/PDFScanningDecoder.c **** 			if (i < 0) 
 408              		.loc 1 95 7
 409 0298 837DF000 		cmpl	$0, -16(%ebp)
 410 029c 781C     		js	L38
 411              	L33:
  96:src/pdf417/PDFScanningDecoder.c **** 			{
  97:src/pdf417/PDFScanningDecoder.c **** 				break;
  98:src/pdf417/PDFScanningDecoder.c **** 			}
  99:src/pdf417/PDFScanningDecoder.c **** 		}
 100:src/pdf417/PDFScanningDecoder.c **** 		result_bits[i]++;
 412              		.loc 1 100 14
 413 029e 8B45F0   		movl	-16(%ebp), %eax
 414 02a1 8B048500 		movl	_result_bits(,%eax,4), %eax
GAS LISTING C:\Users\jisu8\AppData\Local\Temp\ccIqWD58.s 			page 11


 414      000000
 415              		.loc 1 100 17
 416 02a8 8D5001   		leal	1(%eax), %edx
 417 02ab 8B45F0   		movl	-16(%ebp), %eax
 418 02ae 89148500 		movl	%edx, _result_bits(,%eax,4)
 418      000000
 101:src/pdf417/PDFScanningDecoder.c **** 		codeword >>= 1;
 419              		.loc 1 101 12
 420 02b5 D17D08   		sarl	8(%ebp)
  91:src/pdf417/PDFScanningDecoder.c **** 		{
 421              		.loc 1 91 6
 422 02b8 EBC6     		jmp	L35
 423              	L38:
  97:src/pdf417/PDFScanningDecoder.c **** 			}
 424              		.loc 1 97 5
 425 02ba 90       		nop
 102:src/pdf417/PDFScanningDecoder.c **** 	}
 103:src/pdf417/PDFScanningDecoder.c **** 	return result_bits;
 426              		.loc 1 103 9
 427 02bb B8000000 		movl	$_result_bits, %eax
 427      00
 104:src/pdf417/PDFScanningDecoder.c **** }
 428              		.loc 1 104 1
 429 02c0 C9       		leave
 430              	LCFI11:
 431              		.cfi_restore 5
 432              		.cfi_def_cfa 4, 4
 433 02c1 C3       		ret
 434              		.cfi_endproc
 435              	LFE7:
 437              	_GetCodewordBucketNumberRet:
 438              	LFB8:
 105:src/pdf417/PDFScanningDecoder.c **** 
 106:src/pdf417/PDFScanningDecoder.c **** static int GetCodewordBucketNumberRet(const int * moduleBitCount)
 107:src/pdf417/PDFScanningDecoder.c **** {
 439              		.loc 1 107 1
 440              		.cfi_startproc
 441 02c2 55       		pushl	%ebp
 442              	LCFI12:
 443              		.cfi_def_cfa_offset 8
 444              		.cfi_offset 5, -8
 445 02c3 89E5     		movl	%esp, %ebp
 446              	LCFI13:
 447              		.cfi_def_cfa_register 5
 108:src/pdf417/PDFScanningDecoder.c **** 	return (moduleBitCount[0] - moduleBitCount[2] + moduleBitCount[4] - moduleBitCount[6] + 9) % 9;
 448              		.loc 1 108 24
 449 02c5 8B4508   		movl	8(%ebp), %eax
 450 02c8 8B10     		movl	(%eax), %edx
 451              		.loc 1 108 44
 452 02ca 8B4508   		movl	8(%ebp), %eax
 453 02cd 83C008   		addl	$8, %eax
 454 02d0 8B00     		movl	(%eax), %eax
 455              		.loc 1 108 28
 456 02d2 29C2     		subl	%eax, %edx
 457              		.loc 1 108 64
 458 02d4 8B4508   		movl	8(%ebp), %eax
 459 02d7 83C010   		addl	$16, %eax
GAS LISTING C:\Users\jisu8\AppData\Local\Temp\ccIqWD58.s 			page 12


 460 02da 8B00     		movl	(%eax), %eax
 461              		.loc 1 108 48
 462 02dc 01C2     		addl	%eax, %edx
 463              		.loc 1 108 84
 464 02de 8B4508   		movl	8(%ebp), %eax
 465 02e1 83C018   		addl	$24, %eax
 466 02e4 8B00     		movl	(%eax), %eax
 467              		.loc 1 108 68
 468 02e6 29C2     		subl	%eax, %edx
 469 02e8 89D0     		movl	%edx, %eax
 470              		.loc 1 108 88
 471 02ea 8D4809   		leal	9(%eax), %ecx
 472              		.loc 1 108 93
 473 02ed BA398EE3 		movl	$954437177, %edx
 473      38
 474 02f2 89C8     		movl	%ecx, %eax
 475 02f4 F7EA     		imull	%edx
 476 02f6 D1FA     		sarl	%edx
 477 02f8 89C8     		movl	%ecx, %eax
 478 02fa C1F81F   		sarl	$31, %eax
 479 02fd 29C2     		subl	%eax, %edx
 480 02ff 89D0     		movl	%edx, %eax
 481 0301 C1E003   		sall	$3, %eax
 482 0304 01D0     		addl	%edx, %eax
 483 0306 29C1     		subl	%eax, %ecx
 484 0308 89CA     		movl	%ecx, %edx
 485 030a 89D0     		movl	%edx, %eax
 109:src/pdf417/PDFScanningDecoder.c **** }
 486              		.loc 1 109 1
 487 030c 5D       		popl	%ebp
 488              	LCFI14:
 489              		.cfi_restore 5
 490              		.cfi_def_cfa 4, 4
 491 030d C3       		ret
 492              		.cfi_endproc
 493              	LFE8:
 495              	_GetCodewordBucketNumber:
 496              	LFB9:
 110:src/pdf417/PDFScanningDecoder.c **** 
 111:src/pdf417/PDFScanningDecoder.c **** 
 112:src/pdf417/PDFScanningDecoder.c **** static int GetCodewordBucketNumber(int codeword)
 113:src/pdf417/PDFScanningDecoder.c **** {
 497              		.loc 1 113 1
 498              		.cfi_startproc
 499 030e 55       		pushl	%ebp
 500              	LCFI15:
 501              		.cfi_def_cfa_offset 8
 502              		.cfi_offset 5, -8
 503 030f 89E5     		movl	%esp, %ebp
 504              	LCFI16:
 505              		.cfi_def_cfa_register 5
 506 0311 83EC18   		subl	$24, %esp
 114:src/pdf417/PDFScanningDecoder.c **** 	return GetCodewordBucketNumberRet(GetBitCountForCodeword(codeword));
 507              		.loc 1 114 36
 508 0314 8B4508   		movl	8(%ebp), %eax
 509 0317 890424   		movl	%eax, (%esp)
 510 031a E81DFFFF 		call	_GetBitCountForCodeword
GAS LISTING C:\Users\jisu8\AppData\Local\Temp\ccIqWD58.s 			page 13


 510      FF
 511              		.loc 1 114 9
 512 031f 890424   		movl	%eax, (%esp)
 513 0322 E89BFFFF 		call	_GetCodewordBucketNumberRet
 513      FF
 115:src/pdf417/PDFScanningDecoder.c **** }
 514              		.loc 1 115 1
 515 0327 C9       		leave
 516              	LCFI17:
 517              		.cfi_restore 5
 518              		.cfi_def_cfa 4, 4
 519 0328 C3       		ret
 520              		.cfi_endproc
 521              	LFE9:
 523              	_Codeword:
 524              	LFB10:
 116:src/pdf417/PDFScanningDecoder.c **** 
 117:src/pdf417/PDFScanningDecoder.c **** static Codeword_t * Codeword(int startX, int endX, int bucket, int value)
 118:src/pdf417/PDFScanningDecoder.c **** {
 525              		.loc 1 118 1
 526              		.cfi_startproc
 527 0329 55       		pushl	%ebp
 528              	LCFI18:
 529              		.cfi_def_cfa_offset 8
 530              		.cfi_offset 5, -8
 531 032a 89E5     		movl	%esp, %ebp
 532              	LCFI19:
 533              		.cfi_def_cfa_register 5
 119:src/pdf417/PDFScanningDecoder.c **** 	CodeWord.m_hasValue = 1;
 534              		.loc 1 119 22
 535 032c C6050000 		movb	$1, _CodeWord
 535      000001
 120:src/pdf417/PDFScanningDecoder.c **** 	CodeWord.m_value._startX = startX;
 536              		.loc 1 120 27
 537 0333 8B4508   		movl	8(%ebp), %eax
 538 0336 A3040000 		movl	%eax, _CodeWord+4
 538      00
 121:src/pdf417/PDFScanningDecoder.c **** 	CodeWord.m_value._endX = endX;
 539              		.loc 1 121 25
 540 033b 8B450C   		movl	12(%ebp), %eax
 541 033e A3080000 		movl	%eax, _CodeWord+8
 541      00
 122:src/pdf417/PDFScanningDecoder.c **** 	CodeWord.m_value._bucket = bucket;
 542              		.loc 1 122 27
 543 0343 8B4510   		movl	16(%ebp), %eax
 544 0346 A30C0000 		movl	%eax, _CodeWord+12
 544      00
 123:src/pdf417/PDFScanningDecoder.c **** 	CodeWord.m_value._value = value;
 545              		.loc 1 123 26
 546 034b 8B4514   		movl	20(%ebp), %eax
 547 034e A3100000 		movl	%eax, _CodeWord+16
 547      00
 124:src/pdf417/PDFScanningDecoder.c **** 	CodeWord.m_value._rowNumber = BARCODE_ROW_UNKNOWN;	
 548              		.loc 1 124 30
 549 0353 B8FFFFFF 		movl	$-1, %eax
 549      FF
 550 0358 A3140000 		movl	%eax, _CodeWord+20
GAS LISTING C:\Users\jisu8\AppData\Local\Temp\ccIqWD58.s 			page 14


 550      00
 125:src/pdf417/PDFScanningDecoder.c **** 
 126:src/pdf417/PDFScanningDecoder.c **** 	return &CodeWord;
 551              		.loc 1 126 9
 552 035d B8000000 		movl	$_CodeWord, %eax
 552      00
 127:src/pdf417/PDFScanningDecoder.c **** }
 553              		.loc 1 127 1
 554 0362 5D       		popl	%ebp
 555              	LCFI20:
 556              		.cfi_restore 5
 557              		.cfi_def_cfa 4, 4
 558 0363 C3       		ret
 559              		.cfi_endproc
 560              	LFE10:
 561              		.section .rdata,"dr"
 562              		.align 4
 563              	LC3:
 564 00f4 44657465 		.ascii "DetectCodeword minColumn=%d, maxColumn=%d, leftToRight=%d, startColumn=%d, imageRow=%d, mi
 564      6374436F 
 564      6465776F 
 564      7264206D 
 564      696E436F 
 565              		.text
 567              	_DetectCodeword:
 568              	LFB11:
 128:src/pdf417/PDFScanningDecoder.c **** 
 129:src/pdf417/PDFScanningDecoder.c **** static Codeword_t * DetectCodeword(const BitMatrix_t * image, int minColumn, int maxColumn, uint8_t
 130:src/pdf417/PDFScanningDecoder.c **** {
 569              		.loc 1 130 1
 570              		.cfi_startproc
 571 0364 55       		pushl	%ebp
 572              	LCFI21:
 573              		.cfi_def_cfa_offset 8
 574              		.cfi_offset 5, -8
 575 0365 89E5     		movl	%esp, %ebp
 576              	LCFI22:
 577              		.cfi_def_cfa_register 5
 578 0367 83EC78   		subl	$120, %esp
 579 036a 8B4514   		movl	20(%ebp), %eax
 580 036d 8845B4   		movb	%al, -76(%ebp)
 131:src/pdf417/PDFScanningDecoder.c **** 	printf("DetectCodeword minColumn=%d, maxColumn=%d, leftToRight=%d, startColumn=%d, imageRow=%d, mi
 581              		.loc 1 131 2
 582 0370 0FB645B4 		movzbl	-76(%ebp), %eax
 583 0374 8B5524   		movl	36(%ebp), %edx
 584 0377 8954241C 		movl	%edx, 28(%esp)
 585 037b 8B5520   		movl	32(%ebp), %edx
 586 037e 89542418 		movl	%edx, 24(%esp)
 587 0382 8B551C   		movl	28(%ebp), %edx
 588 0385 89542414 		movl	%edx, 20(%esp)
 589 0389 8B5518   		movl	24(%ebp), %edx
 590 038c 89542410 		movl	%edx, 16(%esp)
 591 0390 8944240C 		movl	%eax, 12(%esp)
 592 0394 8B4510   		movl	16(%ebp), %eax
 593 0397 89442408 		movl	%eax, 8(%esp)
 594 039b 8B450C   		movl	12(%ebp), %eax
 595 039e 89442404 		movl	%eax, 4(%esp)
GAS LISTING C:\Users\jisu8\AppData\Local\Temp\ccIqWD58.s 			page 15


 596 03a2 C70424F4 		movl	$LC3, (%esp)
 596      000000
 597 03a9 E8000000 		call	_printf
 597      00
 132:src/pdf417/PDFScanningDecoder.c **** 		minColumn, maxColumn, leftToRight, startColumn, imageRow, minCodewordWidth, maxCodewordWidth);
 133:src/pdf417/PDFScanningDecoder.c **** 
 134:src/pdf417/PDFScanningDecoder.c **** 	startColumn = AdjustCodewordStartColumn(image, minColumn, maxColumn, leftToRight, startColumn, ima
 598              		.loc 1 134 16
 599 03ae 0FB645B4 		movzbl	-76(%ebp), %eax
 600 03b2 8B551C   		movl	28(%ebp), %edx
 601 03b5 89542414 		movl	%edx, 20(%esp)
 602 03b9 8B5518   		movl	24(%ebp), %edx
 603 03bc 89542410 		movl	%edx, 16(%esp)
 604 03c0 8944240C 		movl	%eax, 12(%esp)
 605 03c4 8B4510   		movl	16(%ebp), %eax
 606 03c7 89442408 		movl	%eax, 8(%esp)
 607 03cb 8B450C   		movl	12(%ebp), %eax
 608 03ce 89442404 		movl	%eax, 4(%esp)
 609 03d2 8B4508   		movl	8(%ebp), %eax
 610 03d5 890424   		movl	%eax, (%esp)
 611 03d8 E823FCFF 		call	_AdjustCodewordStartColumn
 611      FF
 612 03dd 894518   		movl	%eax, 24(%ebp)
 135:src/pdf417/PDFScanningDecoder.c **** 	// we usually know fairly exact now how long a codeword is. We should provide minimum and maximum 
 136:src/pdf417/PDFScanningDecoder.c **** 	// and try to adjust the read pixels, e.g. remove single pixel errors or try to cut off exceeding 
 137:src/pdf417/PDFScanningDecoder.c **** 	// min and maxCodewordWidth should not be used as they are calculated for the whole barcode an can
 138:src/pdf417/PDFScanningDecoder.c **** 	// for the current position
 139:src/pdf417/PDFScanningDecoder.c **** 	int moduleBitCount[8];
 140:src/pdf417/PDFScanningDecoder.c **** 	int length = sizeof(moduleBitCount) / sizeof(moduleBitCount[0]);
 613              		.loc 1 140 6
 614 03e0 C745F008 		movl	$8, -16(%ebp)
 614      000000
 141:src/pdf417/PDFScanningDecoder.c **** 	if (!GetModuleBitCount(image, minColumn, maxColumn, leftToRight, startColumn, imageRow, moduleBitC
 615              		.loc 1 141 7
 616 03e7 8B45F0   		movl	-16(%ebp), %eax
 617 03ea 0FB6D0   		movzbl	%al, %edx
 618 03ed 0FB645B4 		movzbl	-76(%ebp), %eax
 619 03f1 8954241C 		movl	%edx, 28(%esp)
 620 03f5 8D55C4   		leal	-60(%ebp), %edx
 621 03f8 89542418 		movl	%edx, 24(%esp)
 622 03fc 8B551C   		movl	28(%ebp), %edx
 623 03ff 89542414 		movl	%edx, 20(%esp)
 624 0403 8B5518   		movl	24(%ebp), %edx
 625 0406 89542410 		movl	%edx, 16(%esp)
 626 040a 8944240C 		movl	%eax, 12(%esp)
 627 040e 8B4510   		movl	16(%ebp), %eax
 628 0411 89442408 		movl	%eax, 8(%esp)
 629 0415 8B450C   		movl	12(%ebp), %eax
 630 0418 89442404 		movl	%eax, 4(%esp)
 631 041c 8B4508   		movl	8(%ebp), %eax
 632 041f 890424   		movl	%eax, (%esp)
 633 0422 E8ACFCFF 		call	_GetModuleBitCount
 633      FF
 634              		.loc 1 141 5
 635 0427 84C0     		testb	%al, %al
 636 0429 750A     		jne	L46
 142:src/pdf417/PDFScanningDecoder.c **** 	{
GAS LISTING C:\Users\jisu8\AppData\Local\Temp\ccIqWD58.s 			page 16


 143:src/pdf417/PDFScanningDecoder.c **** 		return NULL;
 637              		.loc 1 143 10
 638 042b B8000000 		movl	$0, %eax
 638      00
 639 0430 E9C60000 		jmp	L52
 639      00
 640              	L46:
 144:src/pdf417/PDFScanningDecoder.c **** 	}
 145:src/pdf417/PDFScanningDecoder.c **** 	int endColumn;
 146:src/pdf417/PDFScanningDecoder.c **** 	int codewordBitCount = Reduce(length,moduleBitCount);
 641              		.loc 1 146 25
 642 0435 8D45C4   		leal	-60(%ebp), %eax
 643 0438 89442404 		movl	%eax, 4(%esp)
 644 043c 8B45F0   		movl	-16(%ebp), %eax
 645 043f 890424   		movl	%eax, (%esp)
 646 0442 E8000000 		call	_Reduce
 646      00
 647 0447 8945EC   		movl	%eax, -20(%ebp)
 147:src/pdf417/PDFScanningDecoder.c **** 	if (leftToRight) 
 648              		.loc 1 147 5
 649 044a 807DB400 		cmpb	$0, -76(%ebp)
 650 044e 740D     		je	L48
 148:src/pdf417/PDFScanningDecoder.c **** 	{
 149:src/pdf417/PDFScanningDecoder.c **** 		endColumn = startColumn + codewordBitCount;
 651              		.loc 1 149 13
 652 0450 8B5518   		movl	24(%ebp), %edx
 653 0453 8B45EC   		movl	-20(%ebp), %eax
 654 0456 01D0     		addl	%edx, %eax
 655 0458 8945F4   		movl	%eax, -12(%ebp)
 656 045b EB21     		jmp	L49
 657              	L48:
 150:src/pdf417/PDFScanningDecoder.c **** 	}
 151:src/pdf417/PDFScanningDecoder.c **** 	else 
 152:src/pdf417/PDFScanningDecoder.c **** 	{
 153:src/pdf417/PDFScanningDecoder.c **** 		reverse(length,moduleBitCount);
 658              		.loc 1 153 3
 659 045d 8D45C4   		leal	-60(%ebp), %eax
 660 0460 89442404 		movl	%eax, 4(%esp)
 661 0464 8B45F0   		movl	-16(%ebp), %eax
 662 0467 890424   		movl	%eax, (%esp)
 663 046a E8000000 		call	_reverse
 663      00
 154:src/pdf417/PDFScanningDecoder.c **** 		endColumn = startColumn;
 664              		.loc 1 154 13
 665 046f 8B4518   		movl	24(%ebp), %eax
 666 0472 8945F4   		movl	%eax, -12(%ebp)
 155:src/pdf417/PDFScanningDecoder.c **** 		startColumn = endColumn - codewordBitCount;
 667              		.loc 1 155 15
 668 0475 8B45F4   		movl	-12(%ebp), %eax
 669 0478 2B45EC   		subl	-20(%ebp), %eax
 670 047b 894518   		movl	%eax, 24(%ebp)
 671              	L49:
 156:src/pdf417/PDFScanningDecoder.c **** 	}
 157:src/pdf417/PDFScanningDecoder.c **** 
 158:src/pdf417/PDFScanningDecoder.c **** 	// We could also use the width of surrounding codewords for more accurate results, but this seems
 159:src/pdf417/PDFScanningDecoder.c **** 	// sufficient for now
 160:src/pdf417/PDFScanningDecoder.c **** 	if (!CheckCodewordSkew(codewordBitCount, minCodewordWidth, maxCodewordWidth)) {
GAS LISTING C:\Users\jisu8\AppData\Local\Temp\ccIqWD58.s 			page 17


 672              		.loc 1 160 7
 673 047e 8B4524   		movl	36(%ebp), %eax
 674 0481 89442408 		movl	%eax, 8(%esp)
 675 0485 8B4520   		movl	32(%ebp), %eax
 676 0488 89442404 		movl	%eax, 4(%esp)
 677 048c 8B45EC   		movl	-20(%ebp), %eax
 678 048f 890424   		movl	%eax, (%esp)
 679 0492 E876FDFF 		call	_CheckCodewordSkew
 679      FF
 680              		.loc 1 160 5
 681 0497 84C0     		testb	%al, %al
 682 0499 7507     		jne	L50
 161:src/pdf417/PDFScanningDecoder.c **** 		// We could try to use the startX and endX position of the codeword in the same column in the pre
 162:src/pdf417/PDFScanningDecoder.c **** 		// create the bit count from it and normalize it to 8. This would help with single pixel errors.
 163:src/pdf417/PDFScanningDecoder.c **** 		return NULL;
 683              		.loc 1 163 10
 684 049b B8000000 		movl	$0, %eax
 684      00
 685 04a0 EB59     		jmp	L52
 686              	L50:
 164:src/pdf417/PDFScanningDecoder.c **** 	}
 165:src/pdf417/PDFScanningDecoder.c **** 
 166:src/pdf417/PDFScanningDecoder.c **** 	int decodedValue = GetDecodedValue(moduleBitCount);
 687              		.loc 1 166 21
 688 04a2 8D45C4   		leal	-60(%ebp), %eax
 689 04a5 890424   		movl	%eax, (%esp)
 690 04a8 E8000000 		call	_GetDecodedValue
 690      00
 691 04ad 8945E8   		movl	%eax, -24(%ebp)
 167:src/pdf417/PDFScanningDecoder.c **** 	if (decodedValue != -1) 
 692              		.loc 1 167 5
 693 04b0 837DE8FF 		cmpl	$-1, -24(%ebp)
 694 04b4 7440     		je	L51
 695              	LBB3:
 168:src/pdf417/PDFScanningDecoder.c **** 	{
 169:src/pdf417/PDFScanningDecoder.c **** 		int codeword = GetCodeword(decodedValue);
 696              		.loc 1 169 18
 697 04b6 8B45E8   		movl	-24(%ebp), %eax
 698 04b9 890424   		movl	%eax, (%esp)
 699 04bc E8000000 		call	_GetCodeword
 699      00
 700 04c1 8945E4   		movl	%eax, -28(%ebp)
 170:src/pdf417/PDFScanningDecoder.c **** 		if (codeword != -1) 
 701              		.loc 1 170 6
 702 04c4 837DE4FF 		cmpl	$-1, -28(%ebp)
 703 04c8 742C     		je	L51
 171:src/pdf417/PDFScanningDecoder.c **** 		{
 172:src/pdf417/PDFScanningDecoder.c **** 			return Codeword(startColumn, endColumn, GetCodewordBucketNumber(decodedValue), codeword);
 704              		.loc 1 172 11
 705 04ca 8B45E8   		movl	-24(%ebp), %eax
 706 04cd 890424   		movl	%eax, (%esp)
 707 04d0 E839FEFF 		call	_GetCodewordBucketNumber
 707      FF
 708 04d5 89C2     		movl	%eax, %edx
 709 04d7 8B45E4   		movl	-28(%ebp), %eax
 710 04da 8944240C 		movl	%eax, 12(%esp)
 711 04de 89542408 		movl	%edx, 8(%esp)
GAS LISTING C:\Users\jisu8\AppData\Local\Temp\ccIqWD58.s 			page 18


 712 04e2 8B45F4   		movl	-12(%ebp), %eax
 713 04e5 89442404 		movl	%eax, 4(%esp)
 714 04e9 8B4518   		movl	24(%ebp), %eax
 715 04ec 890424   		movl	%eax, (%esp)
 716 04ef E835FEFF 		call	_Codeword
 716      FF
 717 04f4 EB05     		jmp	L52
 718              	L51:
 719              	LBE3:
 173:src/pdf417/PDFScanningDecoder.c **** 		}
 174:src/pdf417/PDFScanningDecoder.c **** 	}
 175:src/pdf417/PDFScanningDecoder.c **** 
 176:src/pdf417/PDFScanningDecoder.c **** 	return NULL;
 720              		.loc 1 176 9
 721 04f6 B8000000 		movl	$0, %eax
 721      00
 722              	L52:
 177:src/pdf417/PDFScanningDecoder.c **** }
 723              		.loc 1 177 1 discriminator 1
 724 04fb C9       		leave
 725              	LCFI23:
 726              		.cfi_restore 5
 727              		.cfi_def_cfa 4, 4
 728 04fc C3       		ret
 729              		.cfi_endproc
 730              	LFE11:
 732              	_setCodeword:
 733              	LFB12:
 178:src/pdf417/PDFScanningDecoder.c **** static void setCodeword(int imageRow, Codeword_t * codeword, DetectionResultColumn_t * RowIndicator
 179:src/pdf417/PDFScanningDecoder.c **** {
 734              		.loc 1 179 1
 735              		.cfi_startproc
 736 04fd 55       		pushl	%ebp
 737              	LCFI24:
 738              		.cfi_def_cfa_offset 8
 739              		.cfi_offset 5, -8
 740 04fe 89E5     		movl	%esp, %ebp
 741              	LCFI25:
 742              		.cfi_def_cfa_register 5
 743 0500 53       		pushl	%ebx
 744 0501 83EC14   		subl	$20, %esp
 745              		.cfi_offset 3, -12
 746 0504 8B4514   		movl	20(%ebp), %eax
 747 0507 8845E8   		movb	%al, -24(%ebp)
 180:src/pdf417/PDFScanningDecoder.c **** 	int idx = imageRow - RowIndicatorColumn->m_value._boundingBox.m_value._minY;
 748              		.loc 1 180 71
 749 050a 8B4510   		movl	16(%ebp), %eax
 750 050d 8B4048   		movl	72(%eax), %eax
 751              		.loc 1 180 6
 752 0510 8B5508   		movl	8(%ebp), %edx
 753 0513 29C2     		subl	%eax, %edx
 754 0515 89D0     		movl	%edx, %eax
 755 0517 8945F8   		movl	%eax, -8(%ebp)
 181:src/pdf417/PDFScanningDecoder.c **** 	if(empty == 0)
 756              		.loc 1 181 4
 757 051a 807DE800 		cmpb	$0, -24(%ebp)
 758 051e 0F85AD00 		jne	L54
GAS LISTING C:\Users\jisu8\AppData\Local\Temp\ccIqWD58.s 			page 19


 758      0000
 182:src/pdf417/PDFScanningDecoder.c **** 	{
 183:src/pdf417/PDFScanningDecoder.c **** 		RowIndicatorColumn->m_value._codewords[idx].m_hasValue = codeword->m_hasValue;
 759              		.loc 1 183 68
 760 0524 8B450C   		movl	12(%ebp), %eax
 761 0527 0FB608   		movzbl	(%eax), %ecx
 762              		.loc 1 183 58
 763 052a 8B5D10   		movl	16(%ebp), %ebx
 764 052d 8B55F8   		movl	-8(%ebp), %edx
 765 0530 89D0     		movl	%edx, %eax
 766 0532 01C0     		addl	%eax, %eax
 767 0534 01D0     		addl	%edx, %eax
 768 0536 C1E003   		sall	$3, %eax
 769 0539 01D8     		addl	%ebx, %eax
 770 053b 83C050   		addl	$80, %eax
 771 053e 8808     		movb	%cl, (%eax)
 184:src/pdf417/PDFScanningDecoder.c **** 		RowIndicatorColumn->m_value._codewords[idx].m_value._bucket = codeword->m_value._bucket;
 772              		.loc 1 184 82
 773 0540 8B450C   		movl	12(%ebp), %eax
 774 0543 8B480C   		movl	12(%eax), %ecx
 775              		.loc 1 184 63
 776 0546 8B5D10   		movl	16(%ebp), %ebx
 777 0549 8B55F8   		movl	-8(%ebp), %edx
 778 054c 89D0     		movl	%edx, %eax
 779 054e 01C0     		addl	%eax, %eax
 780 0550 01D0     		addl	%edx, %eax
 781 0552 C1E003   		sall	$3, %eax
 782 0555 01D8     		addl	%ebx, %eax
 783 0557 83C05C   		addl	$92, %eax
 784 055a 8908     		movl	%ecx, (%eax)
 185:src/pdf417/PDFScanningDecoder.c **** 		RowIndicatorColumn->m_value._codewords[idx].m_value._endX = codeword->m_value._endX;
 785              		.loc 1 185 80
 786 055c 8B450C   		movl	12(%ebp), %eax
 787 055f 8B4808   		movl	8(%eax), %ecx
 788              		.loc 1 185 61
 789 0562 8B5D10   		movl	16(%ebp), %ebx
 790 0565 8B55F8   		movl	-8(%ebp), %edx
 791 0568 89D0     		movl	%edx, %eax
 792 056a 01C0     		addl	%eax, %eax
 793 056c 01D0     		addl	%edx, %eax
 794 056e C1E003   		sall	$3, %eax
 795 0571 01D8     		addl	%ebx, %eax
 796 0573 83C058   		addl	$88, %eax
 797 0576 8908     		movl	%ecx, (%eax)
 186:src/pdf417/PDFScanningDecoder.c **** 		RowIndicatorColumn->m_value._codewords[idx].m_value._rowNumber = codeword->m_value._rowNumber;
 798              		.loc 1 186 85
 799 0578 8B450C   		movl	12(%ebp), %eax
 800 057b 8B4814   		movl	20(%eax), %ecx
 801              		.loc 1 186 66
 802 057e 8B5D10   		movl	16(%ebp), %ebx
 803 0581 8B55F8   		movl	-8(%ebp), %edx
 804 0584 89D0     		movl	%edx, %eax
 805 0586 01C0     		addl	%eax, %eax
 806 0588 01D0     		addl	%edx, %eax
 807 058a C1E003   		sall	$3, %eax
 808 058d 01D8     		addl	%ebx, %eax
 809 058f 83C064   		addl	$100, %eax
GAS LISTING C:\Users\jisu8\AppData\Local\Temp\ccIqWD58.s 			page 20


 810 0592 8908     		movl	%ecx, (%eax)
 187:src/pdf417/PDFScanningDecoder.c **** 		RowIndicatorColumn->m_value._codewords[idx].m_value._startX = codeword->m_value._startX;
 811              		.loc 1 187 82
 812 0594 8B450C   		movl	12(%ebp), %eax
 813 0597 8B4804   		movl	4(%eax), %ecx
 814              		.loc 1 187 63
 815 059a 8B5D10   		movl	16(%ebp), %ebx
 816 059d 8B55F8   		movl	-8(%ebp), %edx
 817 05a0 89D0     		movl	%edx, %eax
 818 05a2 01C0     		addl	%eax, %eax
 819 05a4 01D0     		addl	%edx, %eax
 820 05a6 C1E003   		sall	$3, %eax
 821 05a9 01D8     		addl	%ebx, %eax
 822 05ab 83C054   		addl	$84, %eax
 823 05ae 8908     		movl	%ecx, (%eax)
 188:src/pdf417/PDFScanningDecoder.c **** 		RowIndicatorColumn->m_value._codewords[idx].m_value._value = codeword->m_value._value;
 824              		.loc 1 188 81
 825 05b0 8B450C   		movl	12(%ebp), %eax
 826 05b3 8B4810   		movl	16(%eax), %ecx
 827              		.loc 1 188 62
 828 05b6 8B5D10   		movl	16(%ebp), %ebx
 829 05b9 8B55F8   		movl	-8(%ebp), %edx
 830 05bc 89D0     		movl	%edx, %eax
 831 05be 01C0     		addl	%eax, %eax
 832 05c0 01D0     		addl	%edx, %eax
 833 05c2 C1E003   		sall	$3, %eax
 834 05c5 01D8     		addl	%ebx, %eax
 835 05c7 83C060   		addl	$96, %eax
 836 05ca 8908     		movl	%ecx, (%eax)
 189:src/pdf417/PDFScanningDecoder.c **** 	}
 190:src/pdf417/PDFScanningDecoder.c **** 	else
 191:src/pdf417/PDFScanningDecoder.c **** 	{
 192:src/pdf417/PDFScanningDecoder.c **** 		RowIndicatorColumn->m_value._codewords[idx].m_hasValue = 0;
 193:src/pdf417/PDFScanningDecoder.c **** 		RowIndicatorColumn->m_value._codewords[idx].m_value._bucket = 0;
 194:src/pdf417/PDFScanningDecoder.c **** 		RowIndicatorColumn->m_value._codewords[idx].m_value._endX = 0;
 195:src/pdf417/PDFScanningDecoder.c **** 		RowIndicatorColumn->m_value._codewords[idx].m_value._rowNumber = 0;
 196:src/pdf417/PDFScanningDecoder.c **** 		RowIndicatorColumn->m_value._codewords[idx].m_value._startX = 0;
 197:src/pdf417/PDFScanningDecoder.c **** 		RowIndicatorColumn->m_value._codewords[idx].m_value._value = 0;
 198:src/pdf417/PDFScanningDecoder.c **** 	}
 199:src/pdf417/PDFScanningDecoder.c **** }
 837              		.loc 1 199 1
 838 05cc E9990000 		jmp	L56
 838      00
 839              	L54:
 192:src/pdf417/PDFScanningDecoder.c **** 		RowIndicatorColumn->m_value._codewords[idx].m_value._bucket = 0;
 840              		.loc 1 192 58
 841 05d1 8B4D10   		movl	16(%ebp), %ecx
 842 05d4 8B55F8   		movl	-8(%ebp), %edx
 843 05d7 89D0     		movl	%edx, %eax
 844 05d9 01C0     		addl	%eax, %eax
 845 05db 01D0     		addl	%edx, %eax
 846 05dd C1E003   		sall	$3, %eax
 847 05e0 01C8     		addl	%ecx, %eax
 848 05e2 83C050   		addl	$80, %eax
 849 05e5 C60000   		movb	$0, (%eax)
 193:src/pdf417/PDFScanningDecoder.c **** 		RowIndicatorColumn->m_value._codewords[idx].m_value._endX = 0;
 850              		.loc 1 193 63
GAS LISTING C:\Users\jisu8\AppData\Local\Temp\ccIqWD58.s 			page 21


 851 05e8 8B4D10   		movl	16(%ebp), %ecx
 852 05eb 8B55F8   		movl	-8(%ebp), %edx
 853 05ee 89D0     		movl	%edx, %eax
 854 05f0 01C0     		addl	%eax, %eax
 855 05f2 01D0     		addl	%edx, %eax
 856 05f4 C1E003   		sall	$3, %eax
 857 05f7 01C8     		addl	%ecx, %eax
 858 05f9 83C05C   		addl	$92, %eax
 859 05fc C7000000 		movl	$0, (%eax)
 859      0000
 194:src/pdf417/PDFScanningDecoder.c **** 		RowIndicatorColumn->m_value._codewords[idx].m_value._rowNumber = 0;
 860              		.loc 1 194 61
 861 0602 8B4D10   		movl	16(%ebp), %ecx
 862 0605 8B55F8   		movl	-8(%ebp), %edx
 863 0608 89D0     		movl	%edx, %eax
 864 060a 01C0     		addl	%eax, %eax
 865 060c 01D0     		addl	%edx, %eax
 866 060e C1E003   		sall	$3, %eax
 867 0611 01C8     		addl	%ecx, %eax
 868 0613 83C058   		addl	$88, %eax
 869 0616 C7000000 		movl	$0, (%eax)
 869      0000
 195:src/pdf417/PDFScanningDecoder.c **** 		RowIndicatorColumn->m_value._codewords[idx].m_value._startX = 0;
 870              		.loc 1 195 66
 871 061c 8B4D10   		movl	16(%ebp), %ecx
 872 061f 8B55F8   		movl	-8(%ebp), %edx
 873 0622 89D0     		movl	%edx, %eax
 874 0624 01C0     		addl	%eax, %eax
 875 0626 01D0     		addl	%edx, %eax
 876 0628 C1E003   		sall	$3, %eax
 877 062b 01C8     		addl	%ecx, %eax
 878 062d 83C064   		addl	$100, %eax
 879 0630 C7000000 		movl	$0, (%eax)
 879      0000
 196:src/pdf417/PDFScanningDecoder.c **** 		RowIndicatorColumn->m_value._codewords[idx].m_value._value = 0;
 880              		.loc 1 196 63
 881 0636 8B4D10   		movl	16(%ebp), %ecx
 882 0639 8B55F8   		movl	-8(%ebp), %edx
 883 063c 89D0     		movl	%edx, %eax
 884 063e 01C0     		addl	%eax, %eax
 885 0640 01D0     		addl	%edx, %eax
 886 0642 C1E003   		sall	$3, %eax
 887 0645 01C8     		addl	%ecx, %eax
 888 0647 83C054   		addl	$84, %eax
 889 064a C7000000 		movl	$0, (%eax)
 889      0000
 197:src/pdf417/PDFScanningDecoder.c **** 	}
 890              		.loc 1 197 62
 891 0650 8B4D10   		movl	16(%ebp), %ecx
 892 0653 8B55F8   		movl	-8(%ebp), %edx
 893 0656 89D0     		movl	%edx, %eax
 894 0658 01C0     		addl	%eax, %eax
 895 065a 01D0     		addl	%edx, %eax
 896 065c C1E003   		sall	$3, %eax
 897 065f 01C8     		addl	%ecx, %eax
 898 0661 83C060   		addl	$96, %eax
 899 0664 C7000000 		movl	$0, (%eax)
GAS LISTING C:\Users\jisu8\AppData\Local\Temp\ccIqWD58.s 			page 22


 899      0000
 900              	L56:
 901              		.loc 1 199 1
 902 066a 90       		nop
 903 066b 83C414   		addl	$20, %esp
 904 066e 5B       		popl	%ebx
 905              		.cfi_restore 3
 906 066f 5D       		popl	%ebp
 907              	LCFI26:
 908              		.cfi_restore 5
 909              		.cfi_def_cfa 4, 4
 910 0670 C3       		ret
 911              		.cfi_endproc
 912              	LFE12:
 913              		.section .rdata,"dr"
 914              	LC4:
 915 0176 47657452 		.ascii "GetRowIndicatorColumn \0"
 915      6F77496E 
 915      64696361 
 915      746F7243 
 915      6F6C756D 
 916              		.text
 918              	_GetRowIndicatorColumn:
 919              	LFB13:
 200:src/pdf417/PDFScanningDecoder.c **** 
 201:src/pdf417/PDFScanningDecoder.c **** static int GetRowIndicatorColumn(const BitMatrix_t * image, const BoundingBox_t * boundingBox, cons
 202:src/pdf417/PDFScanningDecoder.c **** {
 920              		.loc 1 202 1
 921              		.cfi_startproc
 922 0671 55       		pushl	%ebp
 923              	LCFI27:
 924              		.cfi_def_cfa_offset 8
 925              		.cfi_offset 5, -8
 926 0672 89E5     		movl	%esp, %ebp
 927              	LCFI28:
 928              		.cfi_def_cfa_register 5
 929 0674 83EC58   		subl	$88, %esp
 930 0677 8B4514   		movl	20(%ebp), %eax
 931 067a 8845D4   		movb	%al, -44(%ebp)
 203:src/pdf417/PDFScanningDecoder.c **** 	int length = 0;
 932              		.loc 1 203 6
 933 067d C745F400 		movl	$0, -12(%ebp)
 933      000000
 204:src/pdf417/PDFScanningDecoder.c **** 	printf("GetRowIndicatorColumn \n");
 934              		.loc 1 204 2
 935 0684 C7042476 		movl	$LC4, (%esp)
 935      010000
 936 068b E8000000 		call	_puts
 936      00
 205:src/pdf417/PDFScanningDecoder.c **** 
 206:src/pdf417/PDFScanningDecoder.c **** 	DetectionResultColumn(boundingBox,leftToRight ? Left : Right,RowIndicatorColumn);
 937              		.loc 1 206 2
 938 0690 807DD400 		cmpb	$0, -44(%ebp)
 939 0694 7407     		je	L58
 940              		.loc 1 206 2 is_stmt 0 discriminator 1
 941 0696 BA010000 		movl	$1, %edx
 941      00
GAS LISTING C:\Users\jisu8\AppData\Local\Temp\ccIqWD58.s 			page 23


 942 069b EB05     		jmp	L59
 943              	L58:
 944              		.loc 1 206 2 discriminator 2
 945 069d BA020000 		movl	$2, %edx
 945      00
 946              	L59:
 947              		.loc 1 206 2 discriminator 4
 948 06a2 8B4520   		movl	32(%ebp), %eax
 949 06a5 89442408 		movl	%eax, 8(%esp)
 950 06a9 89542404 		movl	%edx, 4(%esp)
 951 06ad 8B450C   		movl	12(%ebp), %eax
 952 06b0 890424   		movl	%eax, (%esp)
 953 06b3 E8000000 		call	_DetectionResultColumn
 953      00
 954              	LBB4:
 207:src/pdf417/PDFScanningDecoder.c **** 
 208:src/pdf417/PDFScanningDecoder.c **** 	for (int i = 0; i < 2; i++) 
 955              		.loc 1 208 11 is_stmt 1 discriminator 4
 956 06b8 C745F000 		movl	$0, -16(%ebp)
 956      000000
 957              		.loc 1 208 2 discriminator 4
 958 06bf E9150100 		jmp	L60
 958      00
 959              	L70:
 960              	LBB5:
 209:src/pdf417/PDFScanningDecoder.c **** 	{
 210:src/pdf417/PDFScanningDecoder.c **** 		int increment = i == 0 ? 1 : -1;
 961              		.loc 1 210 30
 962 06c4 837DF000 		cmpl	$0, -16(%ebp)
 963 06c8 7507     		jne	L61
 964              		.loc 1 210 30 is_stmt 0 discriminator 1
 965 06ca B8010000 		movl	$1, %eax
 965      00
 966 06cf EB05     		jmp	L62
 967              	L61:
 968              		.loc 1 210 30 discriminator 2
 969 06d1 B8FFFFFF 		movl	$-1, %eax
 969      FF
 970              	L62:
 971              		.loc 1 210 7 is_stmt 1 discriminator 4
 972 06d6 8945E4   		movl	%eax, -28(%ebp)
 211:src/pdf417/PDFScanningDecoder.c **** 		int startColumn = (int)startPoint->m_value.x;
 973              		.loc 1 211 45 discriminator 4
 974 06d9 8B4510   		movl	16(%ebp), %eax
 975 06dc D94004   		flds	4(%eax)
 976              		.loc 1 211 7 discriminator 4
 977 06df D97DD6   		fnstcw	-42(%ebp)
 978 06e2 0FB745D6 		movzwl	-42(%ebp), %eax
 979 06e6 80CC0C   		orb	$12, %ah
 980 06e9 668945D2 		movw	%ax, -46(%ebp)
 981 06ed D96DD2   		fldcw	-46(%ebp)
 982 06f0 DB5DEC   		fistpl	-20(%ebp)
 983 06f3 D96DD6   		fldcw	-42(%ebp)
 984              	LBB6:
 212:src/pdf417/PDFScanningDecoder.c **** 		for (int imageRow = (int)startPoint->m_value.y; imageRow <= boundingBox->m_value._maxY && imageRo
 985              		.loc 1 212 47 discriminator 4
 986 06f6 8B4510   		movl	16(%ebp), %eax
GAS LISTING C:\Users\jisu8\AppData\Local\Temp\ccIqWD58.s 			page 24


 987 06f9 D94008   		flds	8(%eax)
 988              		.loc 1 212 12 discriminator 4
 989 06fc D96DD2   		fldcw	-46(%ebp)
 990 06ff DB5DE8   		fistpl	-24(%ebp)
 991 0702 D96DD6   		fldcw	-42(%ebp)
 992              		.loc 1 212 3 discriminator 4
 993 0705 E9B10000 		jmp	L63
 993      00
 994              	L69:
 995              	LBB7:
 213:src/pdf417/PDFScanningDecoder.c **** 		{
 214:src/pdf417/PDFScanningDecoder.c **** 			Codeword_t * codeword = DetectCodeword(image, 0, image->_width, leftToRight, startColumn, imageR
 996              		.loc 1 214 28
 997 070a 0FB655D4 		movzbl	-44(%ebp), %edx
 998 070e 8B4508   		movl	8(%ebp), %eax
 999 0711 8B00     		movl	(%eax), %eax
 1000 0713 8B4D1C   		movl	28(%ebp), %ecx
 1001 0716 894C241C 		movl	%ecx, 28(%esp)
 1002 071a 8B4D18   		movl	24(%ebp), %ecx
 1003 071d 894C2418 		movl	%ecx, 24(%esp)
 1004 0721 8B4DE8   		movl	-24(%ebp), %ecx
 1005 0724 894C2414 		movl	%ecx, 20(%esp)
 1006 0728 8B4DEC   		movl	-20(%ebp), %ecx
 1007 072b 894C2410 		movl	%ecx, 16(%esp)
 1008 072f 8954240C 		movl	%edx, 12(%esp)
 1009 0733 89442408 		movl	%eax, 8(%esp)
 1010 0737 C7442404 		movl	$0, 4(%esp)
 1010      00000000 
 1011 073f 8B4508   		movl	8(%ebp), %eax
 1012 0742 890424   		movl	%eax, (%esp)
 1013 0745 E81AFCFF 		call	_DetectCodeword
 1013      FF
 1014 074a 8945E0   		movl	%eax, -32(%ebp)
 215:src/pdf417/PDFScanningDecoder.c **** 
 216:src/pdf417/PDFScanningDecoder.c **** 			if (codeword != NULL) 
 1015              		.loc 1 216 7
 1016 074d 837DE000 		cmpl	$0, -32(%ebp)
 1017 0751 743D     		je	L64
 217:src/pdf417/PDFScanningDecoder.c **** 			{
 218:src/pdf417/PDFScanningDecoder.c **** 				setCodeword(imageRow, codeword, RowIndicatorColumn,0);
 1018              		.loc 1 218 5
 1019 0753 C744240C 		movl	$0, 12(%esp)
 1019      00000000 
 1020 075b 8B4520   		movl	32(%ebp), %eax
 1021 075e 89442408 		movl	%eax, 8(%esp)
 1022 0762 8B45E0   		movl	-32(%ebp), %eax
 1023 0765 89442404 		movl	%eax, 4(%esp)
 1024 0769 8B45E8   		movl	-24(%ebp), %eax
 1025 076c 890424   		movl	%eax, (%esp)
 1026 076f E889FDFF 		call	_setCodeword
 1026      FF
 219:src/pdf417/PDFScanningDecoder.c **** 				if (leftToRight) 
 1027              		.loc 1 219 8
 1028 0774 807DD400 		cmpb	$0, -44(%ebp)
 1029 0778 740B     		je	L65
 220:src/pdf417/PDFScanningDecoder.c **** 				{
 221:src/pdf417/PDFScanningDecoder.c **** 					startColumn = codeword->m_value._startX;
GAS LISTING C:\Users\jisu8\AppData\Local\Temp\ccIqWD58.s 			page 25


 1030              		.loc 1 221 18
 1031 077a 8B45E0   		movl	-32(%ebp), %eax
 1032 077d 8B4004   		movl	4(%eax), %eax
 1033 0780 8945EC   		movl	%eax, -20(%ebp)
 1034 0783 EB2C     		jmp	L67
 1035              	L65:
 222:src/pdf417/PDFScanningDecoder.c **** 				}
 223:src/pdf417/PDFScanningDecoder.c **** 				else 
 224:src/pdf417/PDFScanningDecoder.c **** 				{
 225:src/pdf417/PDFScanningDecoder.c **** 					startColumn = codeword->m_value._endX;
 1036              		.loc 1 225 18
 1037 0785 8B45E0   		movl	-32(%ebp), %eax
 1038 0788 8B4008   		movl	8(%eax), %eax
 1039 078b 8945EC   		movl	%eax, -20(%ebp)
 1040 078e EB21     		jmp	L67
 1041              	L64:
 226:src/pdf417/PDFScanningDecoder.c **** 				}
 227:src/pdf417/PDFScanningDecoder.c **** 			}
 228:src/pdf417/PDFScanningDecoder.c **** 			else
 229:src/pdf417/PDFScanningDecoder.c **** 			{
 230:src/pdf417/PDFScanningDecoder.c **** 				setCodeword(imageRow, codeword, RowIndicatorColumn,1);
 1042              		.loc 1 230 5
 1043 0790 C744240C 		movl	$1, 12(%esp)
 1043      01000000 
 1044 0798 8B4520   		movl	32(%ebp), %eax
 1045 079b 89442408 		movl	%eax, 8(%esp)
 1046 079f 8B45E0   		movl	-32(%ebp), %eax
 1047 07a2 89442404 		movl	%eax, 4(%esp)
 1048 07a6 8B45E8   		movl	-24(%ebp), %eax
 1049 07a9 890424   		movl	%eax, (%esp)
 1050 07ac E84CFDFF 		call	_setCodeword
 1050      FF
 1051              	L67:
 231:src/pdf417/PDFScanningDecoder.c **** 			}
 232:src/pdf417/PDFScanningDecoder.c **** 			length++;
 1052              		.loc 1 232 10 discriminator 2
 1053 07b1 8345F401 		addl	$1, -12(%ebp)
 1054              	LBE7:
 212:src/pdf417/PDFScanningDecoder.c **** 		{
 1055              		.loc 1 212 142 discriminator 2
 1056 07b5 8B45E4   		movl	-28(%ebp), %eax
 1057 07b8 0145E8   		addl	%eax, -24(%ebp)
 1058              	L63:
 212:src/pdf417/PDFScanningDecoder.c **** 		{
 1059              		.loc 1 212 83 discriminator 1
 1060 07bb 8B450C   		movl	12(%ebp), %eax
 1061 07be 8B4048   		movl	72(%eax), %eax
 212:src/pdf417/PDFScanningDecoder.c **** 		{
 1062              		.loc 1 212 3 discriminator 1
 1063 07c1 3945E8   		cmpl	%eax, -24(%ebp)
 1064 07c4 7F0F     		jg	L68
 212:src/pdf417/PDFScanningDecoder.c **** 		{
 1065              		.loc 1 212 125 discriminator 3
 1066 07c6 8B450C   		movl	12(%ebp), %eax
 1067 07c9 8B4044   		movl	68(%eax), %eax
 212:src/pdf417/PDFScanningDecoder.c **** 		{
 1068              		.loc 1 212 90 discriminator 3
GAS LISTING C:\Users\jisu8\AppData\Local\Temp\ccIqWD58.s 			page 26


 1069 07cc 3945E8   		cmpl	%eax, -24(%ebp)
 1070 07cf 0F8D35FF 		jge	L69
 1070      FFFF
 1071              	L68:
 1072              	LBE6:
 1073              	LBE5:
 208:src/pdf417/PDFScanningDecoder.c **** 	{
 1074              		.loc 1 208 26 discriminator 2
 1075 07d5 8345F001 		addl	$1, -16(%ebp)
 1076              	L60:
 208:src/pdf417/PDFScanningDecoder.c **** 	{
 1077              		.loc 1 208 2 discriminator 1
 1078 07d9 837DF001 		cmpl	$1, -16(%ebp)
 1079 07dd 0F8EE1FE 		jle	L70
 1079      FFFF
 1080              	LBE4:
 233:src/pdf417/PDFScanningDecoder.c **** 		}
 234:src/pdf417/PDFScanningDecoder.c **** 	}
 235:src/pdf417/PDFScanningDecoder.c **** 	return length-1;
 1081              		.loc 1 235 15
 1082 07e3 8B45F4   		movl	-12(%ebp), %eax
 1083 07e6 83E801   		subl	$1, %eax
 236:src/pdf417/PDFScanningDecoder.c **** }
 1084              		.loc 1 236 1
 1085 07e9 C9       		leave
 1086              	LCFI29:
 1087              		.cfi_restore 5
 1088              		.cfi_def_cfa 4, 4
 1089 07ea C3       		ret
 1090              		.cfi_endproc
 1091              	LFE13:
 1093              	_Metadata_Init:
 1094              	LFB14:
 237:src/pdf417/PDFScanningDecoder.c **** static void Metadata_Init(BarcodeMetadata_t * Metadata)
 238:src/pdf417/PDFScanningDecoder.c **** {
 1095              		.loc 1 238 1
 1096              		.cfi_startproc
 1097 07eb 55       		pushl	%ebp
 1098              	LCFI30:
 1099              		.cfi_def_cfa_offset 8
 1100              		.cfi_offset 5, -8
 1101 07ec 89E5     		movl	%esp, %ebp
 1102              	LCFI31:
 1103              		.cfi_def_cfa_register 5
 239:src/pdf417/PDFScanningDecoder.c **** 	Metadata->_columnCount = 0;
 1104              		.loc 1 239 25
 1105 07ee 8B4508   		movl	8(%ebp), %eax
 1106 07f1 C7000000 		movl	$0, (%eax)
 1106      0000
 240:src/pdf417/PDFScanningDecoder.c **** 	Metadata->_errorCorrectionLevel = 0;
 1107              		.loc 1 240 34
 1108 07f7 8B4508   		movl	8(%ebp), %eax
 1109 07fa C7400400 		movl	$0, 4(%eax)
 1109      000000
 241:src/pdf417/PDFScanningDecoder.c **** 	Metadata->_rowCountUpperPart = 0;
 1110              		.loc 1 241 31
 1111 0801 8B4508   		movl	8(%ebp), %eax
GAS LISTING C:\Users\jisu8\AppData\Local\Temp\ccIqWD58.s 			page 27


 1112 0804 C7400800 		movl	$0, 8(%eax)
 1112      000000
 242:src/pdf417/PDFScanningDecoder.c **** 	Metadata->_rowCountLowerPart = 0;
 1113              		.loc 1 242 31
 1114 080b 8B4508   		movl	8(%ebp), %eax
 1115 080e C7400C00 		movl	$0, 12(%eax)
 1115      000000
 243:src/pdf417/PDFScanningDecoder.c **** }
 1116              		.loc 1 243 1
 1117 0815 90       		nop
 1118 0816 5D       		popl	%ebp
 1119              	LCFI32:
 1120              		.cfi_restore 5
 1121              		.cfi_def_cfa 4, 4
 1122 0817 C3       		ret
 1123              		.cfi_endproc
 1124              	LFE14:
 1125              		.globl	_columnCount
 1127              	_columnCount:
 1128              	LFB15:
 244:src/pdf417/PDFScanningDecoder.c **** int columnCount(BarcodeMetadata_t * Metadata)
 245:src/pdf417/PDFScanningDecoder.c **** {
 1129              		.loc 1 245 1
 1130              		.cfi_startproc
 1131 0818 55       		pushl	%ebp
 1132              	LCFI33:
 1133              		.cfi_def_cfa_offset 8
 1134              		.cfi_offset 5, -8
 1135 0819 89E5     		movl	%esp, %ebp
 1136              	LCFI34:
 1137              		.cfi_def_cfa_register 5
 246:src/pdf417/PDFScanningDecoder.c **** 	return (Metadata->_columnCount);
 1138              		.loc 1 246 18
 1139 081b 8B4508   		movl	8(%ebp), %eax
 1140 081e 8B00     		movl	(%eax), %eax
 247:src/pdf417/PDFScanningDecoder.c **** }
 1141              		.loc 1 247 1
 1142 0820 5D       		popl	%ebp
 1143              	LCFI35:
 1144              		.cfi_restore 5
 1145              		.cfi_def_cfa 4, 4
 1146 0821 C3       		ret
 1147              		.cfi_endproc
 1148              	LFE15:
 1149              		.globl	_errorCorrectionLevel
 1151              	_errorCorrectionLevel:
 1152              	LFB16:
 248:src/pdf417/PDFScanningDecoder.c **** int errorCorrectionLevel(BarcodeMetadata_t * Metadata)
 249:src/pdf417/PDFScanningDecoder.c **** {
 1153              		.loc 1 249 1
 1154              		.cfi_startproc
 1155 0822 55       		pushl	%ebp
 1156              	LCFI36:
 1157              		.cfi_def_cfa_offset 8
 1158              		.cfi_offset 5, -8
 1159 0823 89E5     		movl	%esp, %ebp
 1160              	LCFI37:
GAS LISTING C:\Users\jisu8\AppData\Local\Temp\ccIqWD58.s 			page 28


 1161              		.cfi_def_cfa_register 5
 250:src/pdf417/PDFScanningDecoder.c **** 	return (Metadata->_errorCorrectionLevel);
 1162              		.loc 1 250 18
 1163 0825 8B4508   		movl	8(%ebp), %eax
 1164 0828 8B4004   		movl	4(%eax), %eax
 251:src/pdf417/PDFScanningDecoder.c **** }
 1165              		.loc 1 251 1
 1166 082b 5D       		popl	%ebp
 1167              	LCFI38:
 1168              		.cfi_restore 5
 1169              		.cfi_def_cfa 4, 4
 1170 082c C3       		ret
 1171              		.cfi_endproc
 1172              	LFE16:
 1173              		.globl	_rowCount
 1175              	_rowCount:
 1176              	LFB17:
 252:src/pdf417/PDFScanningDecoder.c **** int rowCount(BarcodeMetadata_t * Metadata)
 253:src/pdf417/PDFScanningDecoder.c **** {
 1177              		.loc 1 253 1
 1178              		.cfi_startproc
 1179 082d 55       		pushl	%ebp
 1180              	LCFI39:
 1181              		.cfi_def_cfa_offset 8
 1182              		.cfi_offset 5, -8
 1183 082e 89E5     		movl	%esp, %ebp
 1184              	LCFI40:
 1185              		.cfi_def_cfa_register 5
 254:src/pdf417/PDFScanningDecoder.c **** 	return (Metadata->_rowCountUpperPart + Metadata->_rowCountLowerPart);
 1186              		.loc 1 254 18
 1187 0830 8B4508   		movl	8(%ebp), %eax
 1188 0833 8B5008   		movl	8(%eax), %edx
 1189              		.loc 1 254 49
 1190 0836 8B4508   		movl	8(%ebp), %eax
 1191 0839 8B400C   		movl	12(%eax), %eax
 1192              		.loc 1 254 39
 1193 083c 01D0     		addl	%edx, %eax
 255:src/pdf417/PDFScanningDecoder.c **** }
 1194              		.loc 1 255 1
 1195 083e 5D       		popl	%ebp
 1196              	LCFI41:
 1197              		.cfi_restore 5
 1198              		.cfi_def_cfa 4, 4
 1199 083f C3       		ret
 1200              		.cfi_endproc
 1201              	LFE17:
 1202              		.section .rdata,"dr"
 1203              	LC6:
 1204 018d 47657442 		.ascii "GetBarcodeMetadata \0"
 1204      6172636F 
 1204      64654D65 
 1204      74616461 
 1204      74612000 
 1205              		.text
 1207              	_GetBarcodeMetadata:
 1208              	LFB18:
 256:src/pdf417/PDFScanningDecoder.c **** static uint8_t GetBarcodeMetadata(DetectionResultColumn_t * leftRowIndicatorColumn, DetectionResult
GAS LISTING C:\Users\jisu8\AppData\Local\Temp\ccIqWD58.s 			page 29


 257:src/pdf417/PDFScanningDecoder.c **** {
 1209              		.loc 1 257 1
 1210              		.cfi_startproc
 1211 0840 55       		pushl	%ebp
 1212              	LCFI42:
 1213              		.cfi_def_cfa_offset 8
 1214              		.cfi_offset 5, -8
 1215 0841 89E5     		movl	%esp, %ebp
 1216              	LCFI43:
 1217              		.cfi_def_cfa_register 5
 1218 0843 53       		pushl	%ebx
 1219 0844 83EC34   		subl	$52, %esp
 1220              		.cfi_offset 3, -12
 258:src/pdf417/PDFScanningDecoder.c **** 	printf("GetBarcodeMetadata \n");
 1221              		.loc 1 258 2
 1222 0847 C704248D 		movl	$LC6, (%esp)
 1222      010000
 1223 084e E8000000 		call	_puts
 1223      00
 259:src/pdf417/PDFScanningDecoder.c **** 
 260:src/pdf417/PDFScanningDecoder.c **** 	BarcodeMetadata_t leftBarcodeMetadata;
 261:src/pdf417/PDFScanningDecoder.c **** 	Metadata_Init(&leftBarcodeMetadata);
 1224              		.loc 1 261 2
 1225 0853 8D45E8   		leal	-24(%ebp), %eax
 1226 0856 890424   		movl	%eax, (%esp)
 1227 0859 E88DFFFF 		call	_Metadata_Init
 1227      FF
 262:src/pdf417/PDFScanningDecoder.c **** 	if ((leftRowIndicatorColumn == NULL) || (!getBarcodeMetadata(leftRowIndicatorColumn,&leftBarcodeMe
 1228              		.loc 1 262 5
 1229 085e 837D0800 		cmpl	$0, 8(%ebp)
 1230 0862 741D     		je	L80
 1231              		.loc 1 262 44 discriminator 1
 1232 0864 8B4514   		movl	20(%ebp), %eax
 1233 0867 89442408 		movl	%eax, 8(%esp)
 1234 086b 8D45E8   		leal	-24(%ebp), %eax
 1235 086e 89442404 		movl	%eax, 4(%esp)
 1236 0872 8B4508   		movl	8(%ebp), %eax
 1237 0875 890424   		movl	%eax, (%esp)
 1238 0878 E8000000 		call	_getBarcodeMetadata
 1238      00
 1239              		.loc 1 262 39 discriminator 1
 1240 087d 84C0     		testb	%al, %al
 1241 087f 7537     		jne	L81
 1242              	L80:
 263:src/pdf417/PDFScanningDecoder.c **** 	{
 264:src/pdf417/PDFScanningDecoder.c **** 		return (rightRowIndicatorColumn != NULL) && (getBarcodeMetadata(rightRowIndicatorColumn,result,le
 1243              		.loc 1 264 44
 1244 0881 837D0C00 		cmpl	$0, 12(%ebp)
 1245 0885 7427     		je	L82
 1246              		.loc 1 264 48 discriminator 1
 1247 0887 8B4514   		movl	20(%ebp), %eax
 1248 088a 89442408 		movl	%eax, 8(%esp)
 1249 088e 8B4510   		movl	16(%ebp), %eax
 1250 0891 89442404 		movl	%eax, 4(%esp)
 1251 0895 8B450C   		movl	12(%ebp), %eax
 1252 0898 890424   		movl	%eax, (%esp)
 1253 089b E8000000 		call	_getBarcodeMetadata
GAS LISTING C:\Users\jisu8\AppData\Local\Temp\ccIqWD58.s 			page 30


 1253      00
 1254              		.loc 1 264 44 discriminator 1
 1255 08a0 84C0     		testb	%al, %al
 1256 08a2 740A     		je	L82
 1257              		.loc 1 264 44 is_stmt 0 discriminator 3
 1258 08a4 B8010000 		movl	$1, %eax
 1258      00
 1259 08a9 E9E80000 		jmp	L88
 1259      00
 1260              	L82:
 1261              		.loc 1 264 44 discriminator 4
 1262 08ae B8000000 		movl	$0, %eax
 1262      00
 1263 08b3 E9DE0000 		jmp	L88
 1263      00
 1264              	L81:
 265:src/pdf417/PDFScanningDecoder.c **** 	}
 266:src/pdf417/PDFScanningDecoder.c **** 
 267:src/pdf417/PDFScanningDecoder.c **** 	BarcodeMetadata_t rightBarcodeMetadata;
 268:src/pdf417/PDFScanningDecoder.c **** 	Metadata_Init(&rightBarcodeMetadata);
 1265              		.loc 1 268 2 is_stmt 1
 1266 08b8 8D45D8   		leal	-40(%ebp), %eax
 1267 08bb 890424   		movl	%eax, (%esp)
 1268 08be E828FFFF 		call	_Metadata_Init
 1268      FF
 269:src/pdf417/PDFScanningDecoder.c **** 	if ((rightRowIndicatorColumn == NULL) || (!getBarcodeMetadata(rightRowIndicatorColumn,&rightBarcod
 1269              		.loc 1 269 5
 1270 08c3 837D0C00 		cmpl	$0, 12(%ebp)
 1271 08c7 741D     		je	L85
 1272              		.loc 1 269 45 discriminator 1
 1273 08c9 8B4514   		movl	20(%ebp), %eax
 1274 08cc 89442408 		movl	%eax, 8(%esp)
 1275 08d0 8D45D8   		leal	-40(%ebp), %eax
 1276 08d3 89442404 		movl	%eax, 4(%esp)
 1277 08d7 8B450C   		movl	12(%ebp), %eax
 1278 08da 890424   		movl	%eax, (%esp)
 1279 08dd E8000000 		call	_getBarcodeMetadata
 1279      00
 1280              		.loc 1 269 40 discriminator 1
 1281 08e2 84C0     		testb	%al, %al
 1282 08e4 752D     		jne	L86
 1283              	L85:
 270:src/pdf417/PDFScanningDecoder.c **** 	{
 271:src/pdf417/PDFScanningDecoder.c **** 		result->_columnCount = leftBarcodeMetadata._columnCount;
 1284              		.loc 1 271 45
 1285 08e6 8B55E8   		movl	-24(%ebp), %edx
 1286              		.loc 1 271 24
 1287 08e9 8B4510   		movl	16(%ebp), %eax
 1288 08ec 8910     		movl	%edx, (%eax)
 272:src/pdf417/PDFScanningDecoder.c **** 		result->_errorCorrectionLevel = leftBarcodeMetadata._errorCorrectionLevel;
 1289              		.loc 1 272 54
 1290 08ee 8B55EC   		movl	-20(%ebp), %edx
 1291              		.loc 1 272 33
 1292 08f1 8B4510   		movl	16(%ebp), %eax
 1293 08f4 895004   		movl	%edx, 4(%eax)
 273:src/pdf417/PDFScanningDecoder.c **** 		result->_rowCountUpperPart = leftBarcodeMetadata._rowCountUpperPart;
 1294              		.loc 1 273 51
GAS LISTING C:\Users\jisu8\AppData\Local\Temp\ccIqWD58.s 			page 31


 1295 08f7 8B55F0   		movl	-16(%ebp), %edx
 1296              		.loc 1 273 30
 1297 08fa 8B4510   		movl	16(%ebp), %eax
 1298 08fd 895008   		movl	%edx, 8(%eax)
 274:src/pdf417/PDFScanningDecoder.c **** 		result->_rowCountLowerPart = leftBarcodeMetadata._rowCountLowerPart;
 1299              		.loc 1 274 51
 1300 0900 8B55F4   		movl	-12(%ebp), %edx
 1301              		.loc 1 274 30
 1302 0903 8B4510   		movl	16(%ebp), %eax
 1303 0906 89500C   		movl	%edx, 12(%eax)
 275:src/pdf417/PDFScanningDecoder.c **** 		return 1;
 1304              		.loc 1 275 10
 1305 0909 B8010000 		movl	$1, %eax
 1305      00
 1306 090e E9830000 		jmp	L88
 1306      00
 1307              	L86:
 276:src/pdf417/PDFScanningDecoder.c **** 	}
 277:src/pdf417/PDFScanningDecoder.c **** 
 278:src/pdf417/PDFScanningDecoder.c **** 	if (columnCount(&leftBarcodeMetadata) != columnCount(&rightBarcodeMetadata) &&
 1308              		.loc 1 278 6
 1309 0913 8D45E8   		leal	-24(%ebp), %eax
 1310 0916 890424   		movl	%eax, (%esp)
 1311 0919 E8FAFEFF 		call	_columnCount
 1311      FF
 1312 091e 89C3     		movl	%eax, %ebx
 1313              		.loc 1 278 43
 1314 0920 8D45D8   		leal	-40(%ebp), %eax
 1315 0923 890424   		movl	%eax, (%esp)
 1316 0926 E8EDFEFF 		call	_columnCount
 1316      FF
 1317              		.loc 1 278 5
 1318 092b 39C3     		cmpl	%eax, %ebx
 1319 092d 743F     		je	L87
 279:src/pdf417/PDFScanningDecoder.c **** 		errorCorrectionLevel(&leftBarcodeMetadata) != errorCorrectionLevel(&rightBarcodeMetadata) &&
 1320              		.loc 1 279 3 discriminator 1
 1321 092f 8D45E8   		leal	-24(%ebp), %eax
 1322 0932 890424   		movl	%eax, (%esp)
 1323 0935 E8E8FEFF 		call	_errorCorrectionLevel
 1323      FF
 1324 093a 89C3     		movl	%eax, %ebx
 1325              		.loc 1 279 49 discriminator 1
 1326 093c 8D45D8   		leal	-40(%ebp), %eax
 1327 093f 890424   		movl	%eax, (%esp)
 1328 0942 E8DBFEFF 		call	_errorCorrectionLevel
 1328      FF
 278:src/pdf417/PDFScanningDecoder.c **** 		errorCorrectionLevel(&leftBarcodeMetadata) != errorCorrectionLevel(&rightBarcodeMetadata) &&
 1329              		.loc 1 278 78 discriminator 1
 1330 0947 39C3     		cmpl	%eax, %ebx
 1331 0949 7423     		je	L87
 280:src/pdf417/PDFScanningDecoder.c **** 		rowCount(&leftBarcodeMetadata) != rowCount(&rightBarcodeMetadata)) 
 1332              		.loc 1 280 3
 1333 094b 8D45E8   		leal	-24(%ebp), %eax
 1334 094e 890424   		movl	%eax, (%esp)
 1335 0951 E8D7FEFF 		call	_rowCount
 1335      FF
 1336 0956 89C3     		movl	%eax, %ebx
GAS LISTING C:\Users\jisu8\AppData\Local\Temp\ccIqWD58.s 			page 32


 1337              		.loc 1 280 37
 1338 0958 8D45D8   		leal	-40(%ebp), %eax
 1339 095b 890424   		movl	%eax, (%esp)
 1340 095e E8CAFEFF 		call	_rowCount
 1340      FF
 279:src/pdf417/PDFScanningDecoder.c **** 		errorCorrectionLevel(&leftBarcodeMetadata) != errorCorrectionLevel(&rightBarcodeMetadata) &&
 1341              		.loc 1 279 93
 1342 0963 39C3     		cmpl	%eax, %ebx
 1343 0965 7407     		je	L87
 281:src/pdf417/PDFScanningDecoder.c **** 	{
 282:src/pdf417/PDFScanningDecoder.c **** 		return 0;
 1344              		.loc 1 282 10
 1345 0967 B8000000 		movl	$0, %eax
 1345      00
 1346 096c EB28     		jmp	L88
 1347              	L87:
 283:src/pdf417/PDFScanningDecoder.c **** 	}
 284:src/pdf417/PDFScanningDecoder.c **** 	result->_columnCount = leftBarcodeMetadata._columnCount;
 1348              		.loc 1 284 44
 1349 096e 8B55E8   		movl	-24(%ebp), %edx
 1350              		.loc 1 284 23
 1351 0971 8B4510   		movl	16(%ebp), %eax
 1352 0974 8910     		movl	%edx, (%eax)
 285:src/pdf417/PDFScanningDecoder.c **** 	result->_errorCorrectionLevel = leftBarcodeMetadata._errorCorrectionLevel;
 1353              		.loc 1 285 53
 1354 0976 8B55EC   		movl	-20(%ebp), %edx
 1355              		.loc 1 285 32
 1356 0979 8B4510   		movl	16(%ebp), %eax
 1357 097c 895004   		movl	%edx, 4(%eax)
 286:src/pdf417/PDFScanningDecoder.c **** 	result->_rowCountUpperPart = leftBarcodeMetadata._rowCountUpperPart;
 1358              		.loc 1 286 50
 1359 097f 8B55F0   		movl	-16(%ebp), %edx
 1360              		.loc 1 286 29
 1361 0982 8B4510   		movl	16(%ebp), %eax
 1362 0985 895008   		movl	%edx, 8(%eax)
 287:src/pdf417/PDFScanningDecoder.c **** 	result->_rowCountLowerPart = leftBarcodeMetadata._rowCountLowerPart;
 1363              		.loc 1 287 50
 1364 0988 8B55F4   		movl	-12(%ebp), %edx
 1365              		.loc 1 287 29
 1366 098b 8B4510   		movl	16(%ebp), %eax
 1367 098e 89500C   		movl	%edx, 12(%eax)
 288:src/pdf417/PDFScanningDecoder.c **** 	return 1;
 1368              		.loc 1 288 9
 1369 0991 B8010000 		movl	$1, %eax
 1369      00
 1370              	L88:
 289:src/pdf417/PDFScanningDecoder.c **** }
 1371              		.loc 1 289 1 discriminator 1
 1372 0996 83C434   		addl	$52, %esp
 1373 0999 5B       		popl	%ebx
 1374              		.cfi_restore 3
 1375 099a 5D       		popl	%ebp
 1376              	LCFI44:
 1377              		.cfi_restore 5
 1378              		.cfi_def_cfa 4, 4
 1379 099b C3       		ret
 1380              		.cfi_endproc
GAS LISTING C:\Users\jisu8\AppData\Local\Temp\ccIqWD58.s 			page 33


 1381              	LFE18:
 1383              	_GetMax:
 1384              	LFB19:
 290:src/pdf417/PDFScanningDecoder.c **** 
 291:src/pdf417/PDFScanningDecoder.c **** #if 0
 292:src/pdf417/PDFScanningDecoder.c **** template <typename Iter>
 293:src/pdf417/PDFScanningDecoder.c **** static auto GetMax(Iter start, Iter end) -> typename std::remove_reference<decltype(*start)>::type
 294:src/pdf417/PDFScanningDecoder.c **** {
 295:src/pdf417/PDFScanningDecoder.c **** 	auto it = std::max_element(start, end);
 296:src/pdf417/PDFScanningDecoder.c **** 	return it != end ? *it : -1;
 297:src/pdf417/PDFScanningDecoder.c **** }
 298:src/pdf417/PDFScanningDecoder.c **** 
 299:src/pdf417/PDFScanningDecoder.c **** #endif
 300:src/pdf417/PDFScanningDecoder.c **** static int GetMax(int * buffer, int length)
 301:src/pdf417/PDFScanningDecoder.c **** {
 1385              		.loc 1 301 1
 1386              		.cfi_startproc
 1387 099c 55       		pushl	%ebp
 1388              	LCFI45:
 1389              		.cfi_def_cfa_offset 8
 1390              		.cfi_offset 5, -8
 1391 099d 89E5     		movl	%esp, %ebp
 1392              	LCFI46:
 1393              		.cfi_def_cfa_register 5
 1394 099f 83EC10   		subl	$16, %esp
 302:src/pdf417/PDFScanningDecoder.c **** 	int ret_max = 0;
 1395              		.loc 1 302 6
 1396 09a2 C745FC00 		movl	$0, -4(%ebp)
 1396      000000
 1397              	LBB8:
 303:src/pdf417/PDFScanningDecoder.c **** 
 304:src/pdf417/PDFScanningDecoder.c **** 	for(int i=0;i<length;i++)
 1398              		.loc 1 304 10
 1399 09a9 C745F800 		movl	$0, -8(%ebp)
 1399      000000
 1400              		.loc 1 304 2
 1401 09b0 EB2E     		jmp	L90
 1402              	L92:
 305:src/pdf417/PDFScanningDecoder.c **** 	{
 306:src/pdf417/PDFScanningDecoder.c **** 		if(buffer[i]>ret_max)
 1403              		.loc 1 306 12
 1404 09b2 8B45F8   		movl	-8(%ebp), %eax
 1405 09b5 8D148500 		leal	0(,%eax,4), %edx
 1405      000000
 1406 09bc 8B4508   		movl	8(%ebp), %eax
 1407 09bf 01D0     		addl	%edx, %eax
 1408 09c1 8B00     		movl	(%eax), %eax
 1409              		.loc 1 306 5
 1410 09c3 3945FC   		cmpl	%eax, -4(%ebp)
 1411 09c6 7D14     		jge	L91
 307:src/pdf417/PDFScanningDecoder.c **** 		{
 308:src/pdf417/PDFScanningDecoder.c **** 			ret_max = buffer[i];
 1412              		.loc 1 308 20
 1413 09c8 8B45F8   		movl	-8(%ebp), %eax
 1414 09cb 8D148500 		leal	0(,%eax,4), %edx
 1414      000000
 1415 09d2 8B4508   		movl	8(%ebp), %eax
GAS LISTING C:\Users\jisu8\AppData\Local\Temp\ccIqWD58.s 			page 34


 1416 09d5 01D0     		addl	%edx, %eax
 1417              		.loc 1 308 12
 1418 09d7 8B00     		movl	(%eax), %eax
 1419 09d9 8945FC   		movl	%eax, -4(%ebp)
 1420              	L91:
 304:src/pdf417/PDFScanningDecoder.c **** 	{
 1421              		.loc 1 304 24 discriminator 2
 1422 09dc 8345F801 		addl	$1, -8(%ebp)
 1423              	L90:
 304:src/pdf417/PDFScanningDecoder.c **** 	{
 1424              		.loc 1 304 2 discriminator 1
 1425 09e0 8B45F8   		movl	-8(%ebp), %eax
 1426 09e3 3B450C   		cmpl	12(%ebp), %eax
 1427 09e6 7CCA     		jl	L92
 1428              	LBE8:
 309:src/pdf417/PDFScanningDecoder.c **** 		}
 310:src/pdf417/PDFScanningDecoder.c **** 	}
 311:src/pdf417/PDFScanningDecoder.c **** 
 312:src/pdf417/PDFScanningDecoder.c **** 	return ret_max;
 1429              		.loc 1 312 9
 1430 09e8 8B45FC   		movl	-4(%ebp), %eax
 313:src/pdf417/PDFScanningDecoder.c **** }
 1431              		.loc 1 313 1
 1432 09eb C9       		leave
 1433              	LCFI47:
 1434              		.cfi_restore 5
 1435              		.cfi_def_cfa 4, 4
 1436 09ec C3       		ret
 1437              		.cfi_endproc
 1438              	LFE19:
 1439              		.section .rdata,"dr"
 1440              	LC7:
 1441 01a1 41646A75 		.ascii "AdjustBoundingBox \0"
 1441      7374426F 
 1441      756E6469 
 1441      6E67426F 
 1441      782000
 1442              		.text
 1444              	_AdjustBoundingBox:
 1445              	LFB20:
 314:src/pdf417/PDFScanningDecoder.c **** static uint8_t AdjustBoundingBox(DetectionResultColumn_t * rowIndicatorColumn, BoundingBox_t * resu
 315:src/pdf417/PDFScanningDecoder.c **** {
 1446              		.loc 1 315 1
 1447              		.cfi_startproc
 1448 09ed 55       		pushl	%ebp
 1449              	LCFI48:
 1450              		.cfi_def_cfa_offset 8
 1451              		.cfi_offset 5, -8
 1452 09ee 89E5     		movl	%esp, %ebp
 1453              	LCFI49:
 1454              		.cfi_def_cfa_register 5
 1455 09f0 57       		pushl	%edi
 1456 09f1 56       		pushl	%esi
 1457 09f2 81EC7002 		subl	$624, %esp
 1457      0000
 1458              		.cfi_offset 7, -12
 1459              		.cfi_offset 6, -16
GAS LISTING C:\Users\jisu8\AppData\Local\Temp\ccIqWD58.s 			page 35


 316:src/pdf417/PDFScanningDecoder.c **** 	printf("AdjustBoundingBox \n");
 1460              		.loc 1 316 2
 1461 09f8 C70424A1 		movl	$LC7, (%esp)
 1461      010000
 1462 09ff E8000000 		call	_puts
 1462      00
 317:src/pdf417/PDFScanningDecoder.c **** 	
 318:src/pdf417/PDFScanningDecoder.c **** 	if (rowIndicatorColumn->m_hasValue == 0)
 1463              		.loc 1 318 24
 1464 0a04 8B4508   		movl	8(%ebp), %eax
 1465 0a07 0FB600   		movzbl	(%eax), %eax
 1466              		.loc 1 318 5
 1467 0a0a 84C0     		testb	%al, %al
 1468 0a0c 7510     		jne	L95
 319:src/pdf417/PDFScanningDecoder.c **** 	{
 320:src/pdf417/PDFScanningDecoder.c **** 		result->m_hasValue = 0;
 1469              		.loc 1 320 22
 1470 0a0e 8B450C   		movl	12(%ebp), %eax
 1471 0a11 C60000   		movb	$0, (%eax)
 321:src/pdf417/PDFScanningDecoder.c **** 		return 1;
 1472              		.loc 1 321 10
 1473 0a14 B8010000 		movl	$1, %eax
 1473      00
 1474 0a19 E9C90100 		jmp	L113
 1474      00
 1475              	L95:
 322:src/pdf417/PDFScanningDecoder.c **** 	}
 323:src/pdf417/PDFScanningDecoder.c **** 
 324:src/pdf417/PDFScanningDecoder.c **** 	int rowHeights[100];
 325:src/pdf417/PDFScanningDecoder.c **** 	int size = 0;
 1476              		.loc 1 325 6
 1477 0a1e C78544FE 		movl	$0, -444(%ebp)
 1477      FFFF0000 
 1477      0000
 326:src/pdf417/PDFScanningDecoder.c **** 	if (!getRowHeights(rowIndicatorColumn,&rowHeights,length,&size)) 
 1478              		.loc 1 326 7
 1479 0a28 8D8544FE 		leal	-444(%ebp), %eax
 1479      FFFF
 1480 0a2e 8944240C 		movl	%eax, 12(%esp)
 1481 0a32 8B4510   		movl	16(%ebp), %eax
 1482 0a35 89442408 		movl	%eax, 8(%esp)
 1483 0a39 8D8548FE 		leal	-440(%ebp), %eax
 1483      FFFF
 1484 0a3f 89442404 		movl	%eax, 4(%esp)
 1485 0a43 8B4508   		movl	8(%ebp), %eax
 1486 0a46 890424   		movl	%eax, (%esp)
 1487 0a49 E8000000 		call	_getRowHeights
 1487      00
 1488              		.loc 1 326 5
 1489 0a4e 84C0     		testb	%al, %al
 1490 0a50 7511     		jne	L97
 327:src/pdf417/PDFScanningDecoder.c **** 	{
 328:src/pdf417/PDFScanningDecoder.c **** 		result = NULL;
 1491              		.loc 1 328 10
 1492 0a52 C7450C00 		movl	$0, 12(%ebp)
 1492      000000
 329:src/pdf417/PDFScanningDecoder.c **** 		return 1;
GAS LISTING C:\Users\jisu8\AppData\Local\Temp\ccIqWD58.s 			page 36


 1493              		.loc 1 329 10
 1494 0a59 B8010000 		movl	$1, %eax
 1494      00
 1495 0a5e E9840100 		jmp	L113
 1495      00
 1496              	L97:
 330:src/pdf417/PDFScanningDecoder.c **** 	}
 331:src/pdf417/PDFScanningDecoder.c **** 
 332:src/pdf417/PDFScanningDecoder.c **** 	int maxRowHeight = GetMax(rowHeights,size);
 1497              		.loc 1 332 21
 1498 0a63 8B8544FE 		movl	-444(%ebp), %eax
 1498      FFFF
 1499 0a69 89442404 		movl	%eax, 4(%esp)
 1500 0a6d 8D8548FE 		leal	-440(%ebp), %eax
 1500      FFFF
 1501 0a73 890424   		movl	%eax, (%esp)
 1502 0a76 E821FFFF 		call	_GetMax
 1502      FF
 1503 0a7b 8945DC   		movl	%eax, -36(%ebp)
 333:src/pdf417/PDFScanningDecoder.c **** 	int missingStartRows = 0;
 1504              		.loc 1 333 6
 1505 0a7e C745F400 		movl	$0, -12(%ebp)
 1505      000000
 1506              	LBB9:
 334:src/pdf417/PDFScanningDecoder.c **** 	for (int i=0;i<size;i++) 
 1507              		.loc 1 334 11
 1508 0a85 C745F000 		movl	$0, -16(%ebp)
 1508      000000
 1509              		.loc 1 334 2
 1510 0a8c EB26     		jmp	L98
 1511              	L101:
 335:src/pdf417/PDFScanningDecoder.c **** 	{
 336:src/pdf417/PDFScanningDecoder.c **** 		missingStartRows += maxRowHeight - rowHeights[i];
 1512              		.loc 1 336 48
 1513 0a8e 8B45F0   		movl	-16(%ebp), %eax
 1514 0a91 8B848548 		movl	-440(%ebp,%eax,4), %eax
 1514      FEFFFF
 1515              		.loc 1 336 36
 1516 0a98 8B55DC   		movl	-36(%ebp), %edx
 1517 0a9b 29C2     		subl	%eax, %edx
 1518 0a9d 89D0     		movl	%edx, %eax
 1519              		.loc 1 336 20
 1520 0a9f 0145F4   		addl	%eax, -12(%ebp)
 337:src/pdf417/PDFScanningDecoder.c **** 		if (rowHeights[i] > 0) 
 1521              		.loc 1 337 17
 1522 0aa2 8B45F0   		movl	-16(%ebp), %eax
 1523 0aa5 8B848548 		movl	-440(%ebp,%eax,4), %eax
 1523      FEFFFF
 1524              		.loc 1 337 6
 1525 0aac 85C0     		testl	%eax, %eax
 1526 0aae 7F11     		jg	L114
 334:src/pdf417/PDFScanningDecoder.c **** 	for (int i=0;i<size;i++) 
 1527              		.loc 1 334 23 discriminator 2
 1528 0ab0 8345F001 		addl	$1, -16(%ebp)
 1529              	L98:
 334:src/pdf417/PDFScanningDecoder.c **** 	for (int i=0;i<size;i++) 
 1530              		.loc 1 334 16 discriminator 1
GAS LISTING C:\Users\jisu8\AppData\Local\Temp\ccIqWD58.s 			page 37


 1531 0ab4 8B8544FE 		movl	-444(%ebp), %eax
 1531      FFFF
 334:src/pdf417/PDFScanningDecoder.c **** 	for (int i=0;i<size;i++) 
 1532              		.loc 1 334 2 discriminator 1
 1533 0aba 3945F0   		cmpl	%eax, -16(%ebp)
 1534 0abd 7CCF     		jl	L101
 1535 0abf EB01     		jmp	L100
 1536              	L114:
 338:src/pdf417/PDFScanningDecoder.c **** 		{
 339:src/pdf417/PDFScanningDecoder.c **** 			break;
 1537              		.loc 1 339 4
 1538 0ac1 90       		nop
 1539              	L100:
 1540              	LBE9:
 340:src/pdf417/PDFScanningDecoder.c **** 		}
 341:src/pdf417/PDFScanningDecoder.c **** 	}
 342:src/pdf417/PDFScanningDecoder.c **** 
 343:src/pdf417/PDFScanningDecoder.c **** 	Codeword_t * codewords = rowIndicatorColumn->m_value._codewords;
 1541              		.loc 1 343 15
 1542 0ac2 8B4508   		movl	8(%ebp), %eax
 1543 0ac5 83C050   		addl	$80, %eax
 1544 0ac8 8945D8   		movl	%eax, -40(%ebp)
 1545              	LBB10:
 344:src/pdf417/PDFScanningDecoder.c **** 	for (int row = 0; (missingStartRows > 0) && ((codewords+row)->m_hasValue == 0); row++) 
 1546              		.loc 1 344 11
 1547 0acb C745EC00 		movl	$0, -20(%ebp)
 1547      000000
 1548              		.loc 1 344 2
 1549 0ad2 EB08     		jmp	L102
 1550              	L104:
 345:src/pdf417/PDFScanningDecoder.c **** 	{
 346:src/pdf417/PDFScanningDecoder.c **** 		missingStartRows--;
 1551              		.loc 1 346 19 discriminator 4
 1552 0ad4 836DF401 		subl	$1, -12(%ebp)
 344:src/pdf417/PDFScanningDecoder.c **** 	for (int row = 0; (missingStartRows > 0) && ((codewords+row)->m_hasValue == 0); row++) 
 1553              		.loc 1 344 85 discriminator 4
 1554 0ad8 8345EC01 		addl	$1, -20(%ebp)
 1555              	L102:
 344:src/pdf417/PDFScanningDecoder.c **** 	for (int row = 0; (missingStartRows > 0) && ((codewords+row)->m_hasValue == 0); row++) 
 1556              		.loc 1 344 2 discriminator 1
 1557 0adc 837DF400 		cmpl	$0, -12(%ebp)
 1558 0ae0 7E1A     		jle	L103
 344:src/pdf417/PDFScanningDecoder.c **** 	for (int row = 0; (missingStartRows > 0) && ((codewords+row)->m_hasValue == 0); row++) 
 1559              		.loc 1 344 57 discriminator 3
 1560 0ae2 8B55EC   		movl	-20(%ebp), %edx
 1561 0ae5 89D0     		movl	%edx, %eax
 1562 0ae7 01C0     		addl	%eax, %eax
 1563 0ae9 01D0     		addl	%edx, %eax
 1564 0aeb C1E003   		sall	$3, %eax
 1565 0aee 89C2     		movl	%eax, %edx
 1566 0af0 8B45D8   		movl	-40(%ebp), %eax
 1567 0af3 01D0     		addl	%edx, %eax
 344:src/pdf417/PDFScanningDecoder.c **** 	for (int row = 0; (missingStartRows > 0) && ((codewords+row)->m_hasValue == 0); row++) 
 1568              		.loc 1 344 62 discriminator 3
 1569 0af5 0FB600   		movzbl	(%eax), %eax
 344:src/pdf417/PDFScanningDecoder.c **** 	for (int row = 0; (missingStartRows > 0) && ((codewords+row)->m_hasValue == 0); row++) 
 1570              		.loc 1 344 43 discriminator 3
GAS LISTING C:\Users\jisu8\AppData\Local\Temp\ccIqWD58.s 			page 38


 1571 0af8 84C0     		testb	%al, %al
 1572 0afa 74D8     		je	L104
 1573              	L103:
 1574              	LBE10:
 347:src/pdf417/PDFScanningDecoder.c **** 	}
 348:src/pdf417/PDFScanningDecoder.c **** 
 349:src/pdf417/PDFScanningDecoder.c **** 	int missingEndRows = 0;
 1575              		.loc 1 349 6
 1576 0afc C745E800 		movl	$0, -24(%ebp)
 1576      000000
 1577              	LBB11:
 350:src/pdf417/PDFScanningDecoder.c **** 	for (int row = size - 1; row >= 0; row--) 
 1578              		.loc 1 350 22
 1579 0b03 8B8544FE 		movl	-444(%ebp), %eax
 1579      FFFF
 1580              		.loc 1 350 11
 1581 0b09 83E801   		subl	$1, %eax
 1582 0b0c 8945E4   		movl	%eax, -28(%ebp)
 1583              		.loc 1 350 2
 1584 0b0f EB26     		jmp	L105
 1585              	L108:
 351:src/pdf417/PDFScanningDecoder.c **** 	{
 352:src/pdf417/PDFScanningDecoder.c **** 		missingEndRows += maxRowHeight - rowHeights[row];
 1586              		.loc 1 352 46
 1587 0b11 8B45E4   		movl	-28(%ebp), %eax
 1588 0b14 8B848548 		movl	-440(%ebp,%eax,4), %eax
 1588      FEFFFF
 1589              		.loc 1 352 34
 1590 0b1b 8B55DC   		movl	-36(%ebp), %edx
 1591 0b1e 29C2     		subl	%eax, %edx
 1592 0b20 89D0     		movl	%edx, %eax
 1593              		.loc 1 352 18
 1594 0b22 0145E8   		addl	%eax, -24(%ebp)
 353:src/pdf417/PDFScanningDecoder.c **** 		if (rowHeights[row] > 0) 
 1595              		.loc 1 353 17
 1596 0b25 8B45E4   		movl	-28(%ebp), %eax
 1597 0b28 8B848548 		movl	-440(%ebp,%eax,4), %eax
 1597      FEFFFF
 1598              		.loc 1 353 6
 1599 0b2f 85C0     		testl	%eax, %eax
 1600 0b31 7F0C     		jg	L115
 350:src/pdf417/PDFScanningDecoder.c **** 	for (int row = size - 1; row >= 0; row--) 
 1601              		.loc 1 350 40 discriminator 2
 1602 0b33 836DE401 		subl	$1, -28(%ebp)
 1603              	L105:
 350:src/pdf417/PDFScanningDecoder.c **** 	for (int row = size - 1; row >= 0; row--) 
 1604              		.loc 1 350 2 discriminator 1
 1605 0b37 837DE400 		cmpl	$0, -28(%ebp)
 1606 0b3b 79D4     		jns	L108
 1607 0b3d EB01     		jmp	L107
 1608              	L115:
 354:src/pdf417/PDFScanningDecoder.c **** 		{
 355:src/pdf417/PDFScanningDecoder.c **** 			break;
 1609              		.loc 1 355 4
 1610 0b3f 90       		nop
 1611              	L107:
 1612              	LBE11:
GAS LISTING C:\Users\jisu8\AppData\Local\Temp\ccIqWD58.s 			page 39


 1613              	LBB12:
 356:src/pdf417/PDFScanningDecoder.c **** 		}
 357:src/pdf417/PDFScanningDecoder.c **** 	}
 358:src/pdf417/PDFScanningDecoder.c **** 	for (int row = length - 1; missingEndRows > 0 && ((codewords+row)->m_hasValue == 0); row--) 
 1614              		.loc 1 358 11
 1615 0b40 8B4510   		movl	16(%ebp), %eax
 1616 0b43 83E801   		subl	$1, %eax
 1617 0b46 8945E0   		movl	%eax, -32(%ebp)
 1618              		.loc 1 358 2
 1619 0b49 EB08     		jmp	L109
 1620              	L111:
 359:src/pdf417/PDFScanningDecoder.c **** 	{
 360:src/pdf417/PDFScanningDecoder.c **** 		missingEndRows--;
 1621              		.loc 1 360 17 discriminator 4
 1622 0b4b 836DE801 		subl	$1, -24(%ebp)
 358:src/pdf417/PDFScanningDecoder.c **** 	{
 1623              		.loc 1 358 90 discriminator 4
 1624 0b4f 836DE001 		subl	$1, -32(%ebp)
 1625              	L109:
 358:src/pdf417/PDFScanningDecoder.c **** 	{
 1626              		.loc 1 358 2 discriminator 1
 1627 0b53 837DE800 		cmpl	$0, -24(%ebp)
 1628 0b57 7E1A     		jle	L110
 358:src/pdf417/PDFScanningDecoder.c **** 	{
 1629              		.loc 1 358 62 discriminator 3
 1630 0b59 8B55E0   		movl	-32(%ebp), %edx
 1631 0b5c 89D0     		movl	%edx, %eax
 1632 0b5e 01C0     		addl	%eax, %eax
 1633 0b60 01D0     		addl	%edx, %eax
 1634 0b62 C1E003   		sall	$3, %eax
 1635 0b65 89C2     		movl	%eax, %edx
 1636 0b67 8B45D8   		movl	-40(%ebp), %eax
 1637 0b6a 01D0     		addl	%edx, %eax
 358:src/pdf417/PDFScanningDecoder.c **** 	{
 1638              		.loc 1 358 67 discriminator 3
 1639 0b6c 0FB600   		movzbl	(%eax), %eax
 358:src/pdf417/PDFScanningDecoder.c **** 	{
 1640              		.loc 1 358 48 discriminator 3
 1641 0b6f 84C0     		testb	%al, %al
 1642 0b71 74D8     		je	L111
 1643              	L110:
 1644              	LBE12:
 361:src/pdf417/PDFScanningDecoder.c **** 	}
 362:src/pdf417/PDFScanningDecoder.c **** 	BoundingBox_t box;
 363:src/pdf417/PDFScanningDecoder.c **** 	BoundingBox_t boundingBox = rowIndicatorColumn->m_value._boundingBox;
 1645              		.loc 1 363 16
 1646 0b73 8B5508   		movl	8(%ebp), %edx
 1647 0b76 8D85ACFD 		leal	-596(%ebp), %eax
 1647      FFFF
 1648 0b7c 83C204   		addl	$4, %edx
 1649 0b7f B9130000 		movl	$19, %ecx
 1649      00
 1650 0b84 89C7     		movl	%eax, %edi
 1651 0b86 89D6     		movl	%edx, %esi
 1652 0b88 F3A5     		rep movsl
 1653              	LBB13:
 364:src/pdf417/PDFScanningDecoder.c **** 	if (AddMissingRows(&boundingBox, missingStartRows, missingEndRows, isLeftRowIndicator(rowIndicator
GAS LISTING C:\Users\jisu8\AppData\Local\Temp\ccIqWD58.s 			page 40


 1654              		.loc 1 364 69
 1655 0b8a 8B4508   		movl	8(%ebp), %eax
 1656 0b8d 890424   		movl	%eax, (%esp)
 1657 0b90 E8000000 		call	_isLeftRowIndicator
 1657      00
 1658              		.loc 1 364 6
 1659 0b95 0FB6C0   		movzbl	%al, %eax
 1660 0b98 8D95F8FD 		leal	-520(%ebp), %edx
 1660      FFFF
 1661 0b9e 89542410 		movl	%edx, 16(%esp)
 1662 0ba2 8944240C 		movl	%eax, 12(%esp)
 1663 0ba6 8B45E8   		movl	-24(%ebp), %eax
 1664 0ba9 89442408 		movl	%eax, 8(%esp)
 1665 0bad 8B45F4   		movl	-12(%ebp), %eax
 1666 0bb0 89442404 		movl	%eax, 4(%esp)
 1667 0bb4 8D85ACFD 		leal	-596(%ebp), %eax
 1667      FFFF
 1668 0bba 890424   		movl	%eax, (%esp)
 1669 0bbd E8000000 		call	_AddMissingRows
 1669      00
 1670              		.loc 1 364 5
 1671 0bc2 84C0     		testb	%al, %al
 1672 0bc4 741C     		je	L112
 365:src/pdf417/PDFScanningDecoder.c **** 	{
 366:src/pdf417/PDFScanningDecoder.c **** 		copy(&box,result);
 1673              		.loc 1 366 3
 1674 0bc6 8B450C   		movl	12(%ebp), %eax
 1675 0bc9 89442404 		movl	%eax, 4(%esp)
 1676 0bcd 8D85F8FD 		leal	-520(%ebp), %eax
 1676      FFFF
 1677 0bd3 890424   		movl	%eax, (%esp)
 1678 0bd6 E8000000 		call	_copy
 1678      00
 367:src/pdf417/PDFScanningDecoder.c **** 		return 1;
 1679              		.loc 1 367 10
 1680 0bdb B8010000 		movl	$1, %eax
 1680      00
 1681 0be0 EB05     		jmp	L113
 1682              	L112:
 1683              	LBE13:
 368:src/pdf417/PDFScanningDecoder.c **** 	}
 369:src/pdf417/PDFScanningDecoder.c **** 
 370:src/pdf417/PDFScanningDecoder.c **** 	return 0;
 1684              		.loc 1 370 9
 1685 0be2 B8000000 		movl	$0, %eax
 1685      00
 1686              	L113:
 371:src/pdf417/PDFScanningDecoder.c **** }
 1687              		.loc 1 371 1 discriminator 1
 1688 0be7 81C47002 		addl	$624, %esp
 1688      0000
 1689 0bed 5E       		popl	%esi
 1690              		.cfi_restore 6
 1691 0bee 5F       		popl	%edi
 1692              		.cfi_restore 7
 1693 0bef 5D       		popl	%ebp
 1694              	LCFI50:
GAS LISTING C:\Users\jisu8\AppData\Local\Temp\ccIqWD58.s 			page 41


 1695              		.cfi_restore 5
 1696              		.cfi_def_cfa 4, 4
 1697 0bf0 C3       		ret
 1698              		.cfi_endproc
 1699              	LFE20:
 1701              	_Merge:
 1702              	LFB21:
 372:src/pdf417/PDFScanningDecoder.c **** 
 373:src/pdf417/PDFScanningDecoder.c **** 
 374:src/pdf417/PDFScanningDecoder.c **** static uint8_t Merge(DetectionResultColumn_t * leftRowIndicatorColumn, DetectionResultColumn_t * ri
 375:src/pdf417/PDFScanningDecoder.c **** {
 1703              		.loc 1 375 1
 1704              		.cfi_startproc
 1705 0bf1 55       		pushl	%ebp
 1706              	LCFI51:
 1707              		.cfi_def_cfa_offset 8
 1708              		.cfi_offset 5, -8
 1709 0bf2 89E5     		movl	%esp, %ebp
 1710              	LCFI52:
 1711              		.cfi_def_cfa_register 5
 1712 0bf4 81EC1801 		subl	$280, %esp
 1712      0000
 376:src/pdf417/PDFScanningDecoder.c **** 	if (leftRowIndicatorColumn != NULL || rightRowIndicatorColumn != NULL) 
 1713              		.loc 1 376 5
 1714 0bfa 837D0800 		cmpl	$0, 8(%ebp)
 1715 0bfe 750A     		jne	L117
 1716              		.loc 1 376 37 discriminator 1
 1717 0c00 837D0C00 		cmpl	$0, 12(%ebp)
 1718 0c04 0F84B600 		je	L118
 1718      0000
 1719              	L117:
 1720              	LBB14:
 377:src/pdf417/PDFScanningDecoder.c **** 	{
 378:src/pdf417/PDFScanningDecoder.c **** 		BarcodeMetadata_t barcodeMetadata;
 379:src/pdf417/PDFScanningDecoder.c **** 		Metadata_Init(&barcodeMetadata);
 1721              		.loc 1 379 3
 1722 0c0a 8D45E8   		leal	-24(%ebp), %eax
 1723 0c0d 890424   		movl	%eax, (%esp)
 1724 0c10 E8D6FBFF 		call	_Metadata_Init
 1724      FF
 380:src/pdf417/PDFScanningDecoder.c **** 		if (GetBarcodeMetadata(leftRowIndicatorColumn, rightRowIndicatorColumn, &barcodeMetadata,length))
 1725              		.loc 1 380 7
 1726 0c15 8B4514   		movl	20(%ebp), %eax
 1727 0c18 8944240C 		movl	%eax, 12(%esp)
 1728 0c1c 8D45E8   		leal	-24(%ebp), %eax
 1729 0c1f 89442408 		movl	%eax, 8(%esp)
 1730 0c23 8B450C   		movl	12(%ebp), %eax
 1731 0c26 89442404 		movl	%eax, 4(%esp)
 1732 0c2a 8B4508   		movl	8(%ebp), %eax
 1733 0c2d 890424   		movl	%eax, (%esp)
 1734 0c30 E80BFCFF 		call	_GetBarcodeMetadata
 1734      FF
 1735              		.loc 1 380 6
 1736 0c35 84C0     		testb	%al, %al
 1737 0c37 0F848300 		je	L118
 1737      0000
 1738              	LBB15:
GAS LISTING C:\Users\jisu8\AppData\Local\Temp\ccIqWD58.s 			page 42


 381:src/pdf417/PDFScanningDecoder.c **** 		{
 382:src/pdf417/PDFScanningDecoder.c **** 			BoundingBox_t leftBox, rightBox, mergedBox;
 383:src/pdf417/PDFScanningDecoder.c **** 			if (AdjustBoundingBox(leftRowIndicatorColumn, &leftBox,length) && AdjustBoundingBox(rightRowIndi
 1739              		.loc 1 383 8
 1740 0c3d 8B4514   		movl	20(%ebp), %eax
 1741 0c40 89442408 		movl	%eax, 8(%esp)
 1742 0c44 8D8504FF 		leal	-252(%ebp), %eax
 1742      FFFF
 1743 0c4a 89442404 		movl	%eax, 4(%esp)
 1744 0c4e 8B4508   		movl	8(%ebp), %eax
 1745 0c51 890424   		movl	%eax, (%esp)
 1746 0c54 E894FDFF 		call	_AdjustBoundingBox
 1746      FF
 1747              		.loc 1 383 7
 1748 0c59 84C0     		testb	%al, %al
 1749 0c5b 7463     		je	L118
 1750              		.loc 1 383 70 discriminator 1
 1751 0c5d 8B4514   		movl	20(%ebp), %eax
 1752 0c60 89442408 		movl	%eax, 8(%esp)
 1753 0c64 8D8550FF 		leal	-176(%ebp), %eax
 1753      FFFF
 1754 0c6a 89442404 		movl	%eax, 4(%esp)
 1755 0c6e 8B450C   		movl	12(%ebp), %eax
 1756 0c71 890424   		movl	%eax, (%esp)
 1757 0c74 E874FDFF 		call	_AdjustBoundingBox
 1757      FF
 1758              		.loc 1 383 67 discriminator 1
 1759 0c79 84C0     		testb	%al, %al
 1760 0c7b 7443     		je	L118
 1761              		.loc 1 383 134 discriminator 2
 1762 0c7d 8D459C   		leal	-100(%ebp), %eax
 1763 0c80 89442408 		movl	%eax, 8(%esp)
 1764 0c84 8D8550FF 		leal	-176(%ebp), %eax
 1764      FFFF
 1765 0c8a 89442404 		movl	%eax, 4(%esp)
 1766 0c8e 8D8504FF 		leal	-252(%ebp), %eax
 1766      FFFF
 1767 0c94 890424   		movl	%eax, (%esp)
 1768 0c97 E8000000 		call	_Bounding_Merge
 1768      00
 1769              		.loc 1 383 131 discriminator 2
 1770 0c9c 84C0     		testb	%al, %al
 1771 0c9e 7420     		je	L118
 384:src/pdf417/PDFScanningDecoder.c **** 			{
 385:src/pdf417/PDFScanningDecoder.c **** 				Detection_Result_init(&barcodeMetadata, &mergedBox,result);
 1772              		.loc 1 385 5
 1773 0ca0 8B4510   		movl	16(%ebp), %eax
 1774 0ca3 89442408 		movl	%eax, 8(%esp)
 1775 0ca7 8D459C   		leal	-100(%ebp), %eax
 1776 0caa 89442404 		movl	%eax, 4(%esp)
 1777 0cae 8D45E8   		leal	-24(%ebp), %eax
 1778 0cb1 890424   		movl	%eax, (%esp)
 1779 0cb4 E8000000 		call	_Detection_Result_init
 1779      00
 386:src/pdf417/PDFScanningDecoder.c **** 				return 1;
 1780              		.loc 1 386 12
 1781 0cb9 B8010000 		movl	$1, %eax
GAS LISTING C:\Users\jisu8\AppData\Local\Temp\ccIqWD58.s 			page 43


 1781      00
 1782 0cbe EB05     		jmp	L121
 1783              	L118:
 1784              	LBE15:
 1785              	LBE14:
 387:src/pdf417/PDFScanningDecoder.c **** 			}
 388:src/pdf417/PDFScanningDecoder.c **** 		}
 389:src/pdf417/PDFScanningDecoder.c **** 	}
 390:src/pdf417/PDFScanningDecoder.c **** 	return 0;
 1786              		.loc 1 390 9
 1787 0cc0 B8000000 		movl	$0, %eax
 1787      00
 1788              	L121:
 391:src/pdf417/PDFScanningDecoder.c **** }
 1789              		.loc 1 391 1 discriminator 2
 1790 0cc5 C9       		leave
 1791              	LCFI53:
 1792              		.cfi_restore 5
 1793              		.cfi_def_cfa 4, 4
 1794 0cc6 C3       		ret
 1795              		.cfi_endproc
 1796              	LFE21:
 1798              	_IsValidBarcodeColumn:
 1799              	LFB22:
 392:src/pdf417/PDFScanningDecoder.c **** 
 393:src/pdf417/PDFScanningDecoder.c **** 
 394:src/pdf417/PDFScanningDecoder.c **** 
 395:src/pdf417/PDFScanningDecoder.c **** static uint8_t IsValidBarcodeColumn(const DetectionResult_t * detectionResult, int barcodeColumn)
 396:src/pdf417/PDFScanningDecoder.c **** {
 1800              		.loc 1 396 1
 1801              		.cfi_startproc
 1802 0cc7 55       		pushl	%ebp
 1803              	LCFI54:
 1804              		.cfi_def_cfa_offset 8
 1805              		.cfi_offset 5, -8
 1806 0cc8 89E5     		movl	%esp, %ebp
 1807              	LCFI55:
 1808              		.cfi_def_cfa_register 5
 397:src/pdf417/PDFScanningDecoder.c **** 	return barcodeColumn >= 0 && barcodeColumn <= detectionResult->_barcodeMetadata._columnCount + 1;
 1809              		.loc 1 397 28
 1810 0cca 837D0C00 		cmpl	$0, 12(%ebp)
 1811 0cce 7814     		js	L123
 1812              		.loc 1 397 81 discriminator 1
 1813 0cd0 8B4508   		movl	8(%ebp), %eax
 1814 0cd3 8B00     		movl	(%eax), %eax
 1815              		.loc 1 397 95 discriminator 1
 1816 0cd5 83C001   		addl	$1, %eax
 1817              		.loc 1 397 28 discriminator 1
 1818 0cd8 39450C   		cmpl	%eax, 12(%ebp)
 1819 0cdb 7F07     		jg	L123
 1820              		.loc 1 397 28 is_stmt 0 discriminator 3
 1821 0cdd B8010000 		movl	$1, %eax
 1821      00
 1822 0ce2 EB05     		jmp	L124
 1823              	L123:
 1824              		.loc 1 397 28 discriminator 4
 1825 0ce4 B8000000 		movl	$0, %eax
GAS LISTING C:\Users\jisu8\AppData\Local\Temp\ccIqWD58.s 			page 44


 1825      00
 1826              	L124:
 398:src/pdf417/PDFScanningDecoder.c **** }
 1827              		.loc 1 398 1 is_stmt 1 discriminator 6
 1828 0ce9 5D       		popl	%ebp
 1829              	LCFI56:
 1830              		.cfi_restore 5
 1831              		.cfi_def_cfa 4, 4
 1832 0cea C3       		ret
 1833              		.cfi_endproc
 1834              	LFE22:
 1835              		.section .rdata,"dr"
 1836              		.align 4
 1837              	LC8:
 1838 01b4 47657453 		.ascii "GetStartColumn barcodeColumn=%d, imageRow=%d, leftToRight=%d \12\0"
 1838      74617274 
 1838      436F6C75 
 1838      6D6E2062 
 1838      6172636F 
 1839              		.text
 1841              	_GetStartColumn:
 1842              	LFB23:
 399:src/pdf417/PDFScanningDecoder.c **** 
 400:src/pdf417/PDFScanningDecoder.c **** 
 401:src/pdf417/PDFScanningDecoder.c **** static int GetStartColumn(const DetectionResult_t * detectionResult, int barcodeColumn, int imageRo
 402:src/pdf417/PDFScanningDecoder.c **** {
 1843              		.loc 1 402 1
 1844              		.cfi_startproc
 1845 0ceb 55       		pushl	%ebp
 1846              	LCFI57:
 1847              		.cfi_def_cfa_offset 8
 1848              		.cfi_offset 5, -8
 1849 0cec 89E5     		movl	%esp, %ebp
 1850              	LCFI58:
 1851              		.cfi_def_cfa_register 5
 1852 0cee 53       		pushl	%ebx
 1853 0cef 83EC64   		subl	$100, %esp
 1854              		.cfi_offset 3, -12
 1855 0cf2 8B4514   		movl	20(%ebp), %eax
 1856 0cf5 8845D4   		movb	%al, -44(%ebp)
 403:src/pdf417/PDFScanningDecoder.c **** 	printf("GetStartColumn barcodeColumn=%d, imageRow=%d, leftToRight=%d \n", barcodeColumn, imageRow,
 1857              		.loc 1 403 2
 1858 0cf8 0FB645D4 		movzbl	-44(%ebp), %eax
 1859 0cfc 8944240C 		movl	%eax, 12(%esp)
 1860 0d00 8B4510   		movl	16(%ebp), %eax
 1861 0d03 89442408 		movl	%eax, 8(%esp)
 1862 0d07 8B450C   		movl	12(%ebp), %eax
 1863 0d0a 89442404 		movl	%eax, 4(%esp)
 1864 0d0e C70424B4 		movl	$LC8, (%esp)
 1864      010000
 1865 0d15 E8000000 		call	_printf
 1865      00
 404:src/pdf417/PDFScanningDecoder.c **** 
 405:src/pdf417/PDFScanningDecoder.c **** 	int offset = leftToRight ? 1 : -1;
 1866              		.loc 1 405 31
 1867 0d1a 807DD400 		cmpb	$0, -44(%ebp)
 1868 0d1e 7407     		je	L127
GAS LISTING C:\Users\jisu8\AppData\Local\Temp\ccIqWD58.s 			page 45


 1869              		.loc 1 405 31 is_stmt 0 discriminator 1
 1870 0d20 B8010000 		movl	$1, %eax
 1870      00
 1871 0d25 EB05     		jmp	L128
 1872              	L127:
 1873              		.loc 1 405 31 discriminator 2
 1874 0d27 B8FFFFFF 		movl	$-1, %eax
 1874      FF
 1875              	L128:
 1876              		.loc 1 405 6 is_stmt 1 discriminator 4
 1877 0d2c 8945F4   		movl	%eax, -12(%ebp)
 406:src/pdf417/PDFScanningDecoder.c **** 	Codeword_t codeword;
 407:src/pdf417/PDFScanningDecoder.c **** 	if (IsValidBarcodeColumn(detectionResult, barcodeColumn - offset)) 
 1878              		.loc 1 407 6 discriminator 4
 1879 0d2f 8B450C   		movl	12(%ebp), %eax
 1880 0d32 2B45F4   		subl	-12(%ebp), %eax
 1881 0d35 89442404 		movl	%eax, 4(%esp)
 1882 0d39 8B4508   		movl	8(%ebp), %eax
 1883 0d3c 890424   		movl	%eax, (%esp)
 1884 0d3f E883FFFF 		call	_IsValidBarcodeColumn
 1884      FF
 1885              		.loc 1 407 5 discriminator 4
 1886 0d44 84C0     		testb	%al, %al
 1887 0d46 7453     		je	L129
 408:src/pdf417/PDFScanningDecoder.c **** 	{
 409:src/pdf417/PDFScanningDecoder.c **** 		codeword = detectionResult->_detectionResultColumns[barcodeColumn - offset].m_value._codewords[im
 1888              		.loc 1 409 69
 1889 0d48 8B450C   		movl	12(%ebp), %eax
 1890 0d4b 2B45F4   		subl	-12(%ebp), %eax
 1891 0d4e 89C3     		movl	%eax, %ebx
 1892              		.loc 1 409 144
 1893 0d50 8B4508   		movl	8(%ebp), %eax
 1894 0d53 8B80A470 		movl	1208484(%eax), %eax
 1894      1200
 1895              		.loc 1 409 106
 1896 0d59 8B5510   		movl	16(%ebp), %edx
 1897 0d5c 29C2     		subl	%eax, %edx
 1898              		.loc 1 409 12
 1899 0d5e 8B4D08   		movl	8(%ebp), %ecx
 1900 0d61 89D0     		movl	%edx, %eax
 1901 0d63 01C0     		addl	%eax, %eax
 1902 0d65 01D0     		addl	%edx, %eax
 1903 0d67 C1E003   		sall	$3, %eax
 1904 0d6a 69D3342F 		imull	$12084, %ebx, %edx
 1904      0000
 1905 0d70 01D0     		addl	%edx, %eax
 1906 0d72 01C8     		addl	%ecx, %eax
 1907 0d74 83C050   		addl	$80, %eax
 1908 0d77 8B5010   		movl	16(%eax), %edx
 1909 0d7a 8955D8   		movl	%edx, -40(%ebp)
 1910 0d7d 8B5014   		movl	20(%eax), %edx
 1911 0d80 8955DC   		movl	%edx, -36(%ebp)
 1912 0d83 8B5018   		movl	24(%eax), %edx
 1913 0d86 8955E0   		movl	%edx, -32(%ebp)
 1914 0d89 8B501C   		movl	28(%eax), %edx
 1915 0d8c 8955E4   		movl	%edx, -28(%ebp)
 1916 0d8f 8B5020   		movl	32(%eax), %edx
GAS LISTING C:\Users\jisu8\AppData\Local\Temp\ccIqWD58.s 			page 46


 1917 0d92 8955E8   		movl	%edx, -24(%ebp)
 1918 0d95 8B4024   		movl	36(%eax), %eax
 1919 0d98 8945EC   		movl	%eax, -20(%ebp)
 1920              	L129:
 410:src/pdf417/PDFScanningDecoder.c **** 	}
 411:src/pdf417/PDFScanningDecoder.c **** 
 412:src/pdf417/PDFScanningDecoder.c **** 	if (codeword.m_hasValue != 0) 
 1921              		.loc 1 412 14
 1922 0d9b 0FB645D8 		movzbl	-40(%ebp), %eax
 1923              		.loc 1 412 5
 1924 0d9f 84C0     		testb	%al, %al
 1925 0da1 7416     		je	L130
 413:src/pdf417/PDFScanningDecoder.c **** 	{
 414:src/pdf417/PDFScanningDecoder.c **** 		return leftToRight ? codeword.m_value._endX : codeword.m_value._startX;
 1926              		.loc 1 414 47
 1927 0da3 807DD400 		cmpb	$0, -44(%ebp)
 1928 0da7 7408     		je	L131
 1929              		.loc 1 414 47 is_stmt 0 discriminator 1
 1930 0da9 8B45E0   		movl	-32(%ebp), %eax
 1931 0dac E9FD0000 		jmp	L143
 1931      00
 1932              	L131:
 1933              		.loc 1 414 47 discriminator 2
 1934 0db1 8B45DC   		movl	-36(%ebp), %eax
 1935 0db4 E9F50000 		jmp	L143
 1935      00
 1936              	L130:
 415:src/pdf417/PDFScanningDecoder.c **** 	}
 416:src/pdf417/PDFScanningDecoder.c **** 
 417:src/pdf417/PDFScanningDecoder.c **** 	codeword = codewordNearby(&(detectionResult->_detectionResultColumns[barcodeColumn]),imageRow,size
 1937              		.loc 1 417 28 is_stmt 1
 1938 0db9 8B450C   		movl	12(%ebp), %eax
 1939 0dbc 69C0342F 		imull	$12084, %eax, %eax
 1939      0000
 1940 0dc2 8D5010   		leal	16(%eax), %edx
 1941 0dc5 8B4508   		movl	8(%ebp), %eax
 1942 0dc8 8D0C02   		leal	(%edx,%eax), %ecx
 1943              		.loc 1 417 13
 1944 0dcb 8D45D8   		leal	-40(%ebp), %eax
 1945 0dce 8B5518   		movl	24(%ebp), %edx
 1946 0dd1 8954240C 		movl	%edx, 12(%esp)
 1947 0dd5 8B5510   		movl	16(%ebp), %edx
 1948 0dd8 89542408 		movl	%edx, 8(%esp)
 1949 0ddc 894C2404 		movl	%ecx, 4(%esp)
 1950 0de0 890424   		movl	%eax, (%esp)
 1951 0de3 E8000000 		call	_codewordNearby
 1951      00
 418:src/pdf417/PDFScanningDecoder.c **** 	if (codeword.m_hasValue != 0) 
 1952              		.loc 1 418 14
 1953 0de8 0FB645D8 		movzbl	-40(%ebp), %eax
 1954              		.loc 1 418 5
 1955 0dec 84C0     		testb	%al, %al
 1956 0dee 7416     		je	L134
 419:src/pdf417/PDFScanningDecoder.c **** 	{
 420:src/pdf417/PDFScanningDecoder.c **** 		return leftToRight ? codeword.m_value._startX : codeword.m_value._endX;
 1957              		.loc 1 420 49
 1958 0df0 807DD400 		cmpb	$0, -44(%ebp)
GAS LISTING C:\Users\jisu8\AppData\Local\Temp\ccIqWD58.s 			page 47


 1959 0df4 7408     		je	L135
 1960              		.loc 1 420 49 is_stmt 0 discriminator 1
 1961 0df6 8B45DC   		movl	-36(%ebp), %eax
 1962 0df9 E9B00000 		jmp	L143
 1962      00
 1963              	L135:
 1964              		.loc 1 420 49 discriminator 2
 1965 0dfe 8B45E0   		movl	-32(%ebp), %eax
 1966 0e01 E9A80000 		jmp	L143
 1966      00
 1967              	L134:
 421:src/pdf417/PDFScanningDecoder.c **** 	}
 422:src/pdf417/PDFScanningDecoder.c **** 
 423:src/pdf417/PDFScanningDecoder.c **** 	if (IsValidBarcodeColumn(detectionResult, barcodeColumn - offset)) 
 1968              		.loc 1 423 6 is_stmt 1
 1969 0e06 8B450C   		movl	12(%ebp), %eax
 1970 0e09 2B45F4   		subl	-12(%ebp), %eax
 1971 0e0c 89442404 		movl	%eax, 4(%esp)
 1972 0e10 8B4508   		movl	8(%ebp), %eax
 1973 0e13 890424   		movl	%eax, (%esp)
 1974 0e16 E8ACFEFF 		call	_IsValidBarcodeColumn
 1974      FF
 1975              		.loc 1 423 5
 1976 0e1b 84C0     		testb	%al, %al
 1977 0e1d 7456     		je	L137
 424:src/pdf417/PDFScanningDecoder.c **** 	{
 425:src/pdf417/PDFScanningDecoder.c **** 		codeword = codewordNearby(&(detectionResult->_detectionResultColumns[barcodeColumn - offset]),ima
 1978              		.loc 1 425 86
 1979 0e1f 8B450C   		movl	12(%ebp), %eax
 1980 0e22 2B45F4   		subl	-12(%ebp), %eax
 1981              		.loc 1 425 29
 1982 0e25 69C0342F 		imull	$12084, %eax, %eax
 1982      0000
 1983 0e2b 8D5010   		leal	16(%eax), %edx
 1984 0e2e 8B4508   		movl	8(%ebp), %eax
 1985 0e31 8D0C02   		leal	(%edx,%eax), %ecx
 1986              		.loc 1 425 14
 1987 0e34 8D45A8   		leal	-88(%ebp), %eax
 1988 0e37 8B5518   		movl	24(%ebp), %edx
 1989 0e3a 8954240C 		movl	%edx, 12(%esp)
 1990 0e3e 8B5510   		movl	16(%ebp), %edx
 1991 0e41 89542408 		movl	%edx, 8(%esp)
 1992 0e45 894C2404 		movl	%ecx, 4(%esp)
 1993 0e49 890424   		movl	%eax, (%esp)
 1994 0e4c E8000000 		call	_codewordNearby
 1994      00
 1995 0e51 8B45A8   		movl	-88(%ebp), %eax
 1996 0e54 8945D8   		movl	%eax, -40(%ebp)
 1997 0e57 8B45AC   		movl	-84(%ebp), %eax
 1998 0e5a 8945DC   		movl	%eax, -36(%ebp)
 1999 0e5d 8B45B0   		movl	-80(%ebp), %eax
 2000 0e60 8945E0   		movl	%eax, -32(%ebp)
 2001 0e63 8B45B4   		movl	-76(%ebp), %eax
 2002 0e66 8945E4   		movl	%eax, -28(%ebp)
 2003 0e69 8B45B8   		movl	-72(%ebp), %eax
 2004 0e6c 8945E8   		movl	%eax, -24(%ebp)
 2005 0e6f 8B45BC   		movl	-68(%ebp), %eax
GAS LISTING C:\Users\jisu8\AppData\Local\Temp\ccIqWD58.s 			page 48


 2006 0e72 8945EC   		movl	%eax, -20(%ebp)
 2007              	L137:
 426:src/pdf417/PDFScanningDecoder.c **** 	}
 427:src/pdf417/PDFScanningDecoder.c **** 
 428:src/pdf417/PDFScanningDecoder.c **** 	if (codeword.m_hasValue != 0)
 2008              		.loc 1 428 14
 2009 0e75 0FB645D8 		movzbl	-40(%ebp), %eax
 2010              		.loc 1 428 5
 2011 0e79 84C0     		testb	%al, %al
 2012 0e7b 7410     		je	L138
 429:src/pdf417/PDFScanningDecoder.c **** 	{
 430:src/pdf417/PDFScanningDecoder.c **** 		return leftToRight ? codeword.m_value._endX : codeword.m_value._startX;
 2013              		.loc 1 430 47
 2014 0e7d 807DD400 		cmpb	$0, -44(%ebp)
 2015 0e81 7405     		je	L139
 2016              		.loc 1 430 47 is_stmt 0 discriminator 1
 2017 0e83 8B45E0   		movl	-32(%ebp), %eax
 2018 0e86 EB26     		jmp	L143
 2019              	L139:
 2020              		.loc 1 430 47 discriminator 2
 2021 0e88 8B45DC   		movl	-36(%ebp), %eax
 2022 0e8b EB21     		jmp	L143
 2023              	L138:
 431:src/pdf417/PDFScanningDecoder.c **** 	}
 432:src/pdf417/PDFScanningDecoder.c **** 
 433:src/pdf417/PDFScanningDecoder.c **** 	int skippedColumns = 0;
 2024              		.loc 1 433 6 is_stmt 1
 2025 0e8d C745F000 		movl	$0, -16(%ebp)
 2025      000000
 434:src/pdf417/PDFScanningDecoder.c **** 	#if 0
 435:src/pdf417/PDFScanningDecoder.c **** 	while (IsValidBarcodeColumn(detectionResult, barcodeColumn - offset)) 
 436:src/pdf417/PDFScanningDecoder.c **** 	{
 437:src/pdf417/PDFScanningDecoder.c **** 		barcodeColumn -= offset;
 438:src/pdf417/PDFScanningDecoder.c **** 		for (auto& previousRowCodeword : detectionResult.column(barcodeColumn).value().allCodewords()) 
 439:src/pdf417/PDFScanningDecoder.c **** 		{
 440:src/pdf417/PDFScanningDecoder.c **** 			if (previousRowCodeword != nullptr) 
 441:src/pdf417/PDFScanningDecoder.c **** 			{
 442:src/pdf417/PDFScanningDecoder.c **** 				return (leftToRight ? previousRowCodeword.value().endX() : previousRowCodeword.value().startX()
 443:src/pdf417/PDFScanningDecoder.c **** 					offset *
 444:src/pdf417/PDFScanningDecoder.c **** 					skippedColumns *
 445:src/pdf417/PDFScanningDecoder.c **** 					(previousRowCodeword.value().endX() - previousRowCodeword.value().startX());
 446:src/pdf417/PDFScanningDecoder.c **** 			}
 447:src/pdf417/PDFScanningDecoder.c **** 		}
 448:src/pdf417/PDFScanningDecoder.c **** 		skippedColumns++;
 449:src/pdf417/PDFScanningDecoder.c **** 	}
 450:src/pdf417/PDFScanningDecoder.c **** 	#endif
 451:src/pdf417/PDFScanningDecoder.c **** 	return leftToRight ? detectionResult->_boundingBox.m_value._minX : detectionResult->_boundingBox.m
 2026              		.loc 1 451 67
 2027 0e94 807DD400 		cmpb	$0, -44(%ebp)
 2028 0e98 740B     		je	L141
 2029              		.loc 1 451 67 is_stmt 0 discriminator 1
 2030 0e9a 8B4508   		movl	8(%ebp), %eax
 2031 0e9d 8B809C70 		movl	1208476(%eax), %eax
 2031      1200
 2032 0ea3 EB09     		jmp	L143
 2033              	L141:
 2034              		.loc 1 451 67 discriminator 2
GAS LISTING C:\Users\jisu8\AppData\Local\Temp\ccIqWD58.s 			page 49


 2035 0ea5 8B4508   		movl	8(%ebp), %eax
 2036 0ea8 8B80A070 		movl	1208480(%eax), %eax
 2036      1200
 2037              	L143:
 452:src/pdf417/PDFScanningDecoder.c **** }
 2038              		.loc 1 452 1 is_stmt 1 discriminator 1
 2039 0eae 83C464   		addl	$100, %esp
 2040 0eb1 5B       		popl	%ebx
 2041              		.cfi_restore 3
 2042 0eb2 5D       		popl	%ebp
 2043              	LCFI59:
 2044              		.cfi_restore 5
 2045              		.cfi_def_cfa 4, 4
 2046 0eb3 C3       		ret
 2047              		.cfi_endproc
 2048              	LFE23:
 2049              		.section .rdata,"dr"
 2050              	LC9:
 2051 01f3 43726561 		.ascii "CreateBarcodeMatrix\0"
 2051      74654261 
 2051      72636F64 
 2051      654D6174 
 2051      72697800 
 2052              		.text
 2054              	_CreateBarcodeMatrix:
 2055              	LFB24:
 453:src/pdf417/PDFScanningDecoder.c **** 
 454:src/pdf417/PDFScanningDecoder.c **** 
 455:src/pdf417/PDFScanningDecoder.c **** static BarcodeValue_t * CreateBarcodeMatrix(DetectionResult_t * detectionResult,int size)
 456:src/pdf417/PDFScanningDecoder.c **** {
 2056              		.loc 1 456 1
 2057              		.cfi_startproc
 2058 0eb4 55       		pushl	%ebp
 2059              	LCFI60:
 2060              		.cfi_def_cfa_offset 8
 2061              		.cfi_offset 5, -8
 2062 0eb5 89E5     		movl	%esp, %ebp
 2063              	LCFI61:
 2064              		.cfi_def_cfa_register 5
 2065 0eb7 57       		pushl	%edi
 2066 0eb8 56       		pushl	%esi
 2067 0eb9 53       		pushl	%ebx
 2068 0eba B89C2F00 		movl	$12188, %eax
 2068      00
 2069 0ebf E8000000 		call	___chkstk_ms
 2069      00
 2070 0ec4 29C4     		subl	%eax, %esp
 2071              		.cfi_offset 7, -12
 2072              		.cfi_offset 6, -16
 2073              		.cfi_offset 3, -20
 2074              		.loc 1 456 1
 2075 0ec6 89E0     		movl	%esp, %eax
 2076 0ec8 89856CD0 		movl	%eax, -12180(%ebp)
 2076      FFFF
 457:src/pdf417/PDFScanningDecoder.c **** 	printf("CreateBarcodeMatrix\n");
 2077              		.loc 1 457 2
 2078 0ece C70424F3 		movl	$LC9, (%esp)
GAS LISTING C:\Users\jisu8\AppData\Local\Temp\ccIqWD58.s 			page 50


 2078      010000
 2079 0ed5 E8000000 		call	_puts
 2079      00
 458:src/pdf417/PDFScanningDecoder.c **** 
 459:src/pdf417/PDFScanningDecoder.c **** 	int column = (detectionResult->_barcodeMetadata._rowCountLowerPart)+(detectionResult->_barcodeMeta
 2080              		.loc 1 459 49
 2081 0eda 8B4508   		movl	8(%ebp), %eax
 2082 0edd 8B500C   		movl	12(%eax), %edx
 2083              		.loc 1 459 104
 2084 0ee0 8B4508   		movl	8(%ebp), %eax
 2085 0ee3 8B4008   		movl	8(%eax), %eax
 2086              		.loc 1 459 6
 2087 0ee6 01D0     		addl	%edx, %eax
 2088 0ee8 8945D8   		movl	%eax, -40(%ebp)
 460:src/pdf417/PDFScanningDecoder.c **** 	int row = detectionResult->_barcodeMetadata._columnCount + 2;
 2089              		.loc 1 460 45
 2090 0eeb 8B4508   		movl	8(%ebp), %eax
 2091 0eee 8B00     		movl	(%eax), %eax
 2092              		.loc 1 460 6
 2093 0ef0 83C002   		addl	$2, %eax
 2094 0ef3 8945D4   		movl	%eax, -44(%ebp)
 461:src/pdf417/PDFScanningDecoder.c **** 	BarcodeValue_t barcodeMatrix[column][row];
 2095              		.loc 1 461 2
 2096 0ef6 8B7DD4   		movl	-44(%ebp), %edi
 2097 0ef9 8B75D8   		movl	-40(%ebp), %esi
 2098              		.loc 1 461 17
 2099 0efc 8D47FF   		leal	-1(%edi), %eax
 2100 0eff 8945D0   		movl	%eax, -48(%ebp)
 2101 0f02 89F8     		movl	%edi, %eax
 2102 0f04 BA000000 		movl	$0, %edx
 2102      00
 2103 0f09 69DA007D 		imull	$32000, %edx, %ebx
 2103      0000
 2104 0f0f 6BC800   		imull	$0, %eax, %ecx
 2105 0f12 01D9     		addl	%ebx, %ecx
 2106 0f14 BB007D00 		movl	$32000, %ebx
 2106      00
 2107 0f19 F7E3     		mull	%ebx
 2108 0f1b 01D1     		addl	%edx, %ecx
 2109 0f1d 89CA     		movl	%ecx, %edx
 2110 0f1f 89F8     		movl	%edi, %eax
 2111 0f21 69C0A00F 		imull	$4000, %eax, %eax
 2111      0000
 2112 0f27 898568D0 		movl	%eax, -12184(%ebp)
 2112      FFFF
 2113 0f2d 8D46FF   		leal	-1(%esi), %eax
 2114 0f30 8945CC   		movl	%eax, -52(%ebp)
 2115 0f33 89BD74D0 		movl	%edi, -12172(%ebp)
 2115      FFFF
 2116 0f39 89F8     		movl	%edi, %eax
 2117 0f3b 89C1     		movl	%eax, %ecx
 2118 0f3d BB000000 		movl	$0, %ebx
 2118      00
 2119 0f42 89B570D0 		movl	%esi, -12176(%ebp)
 2119      FFFF
 2120 0f48 89F0     		movl	%esi, %eax
 2121 0f4a BA000000 		movl	$0, %edx
GAS LISTING C:\Users\jisu8\AppData\Local\Temp\ccIqWD58.s 			page 51


 2121      00
 2122 0f4f 89DF     		movl	%ebx, %edi
 2123 0f51 0FAFF8   		imull	%eax, %edi
 2124 0f54 89D6     		movl	%edx, %esi
 2125 0f56 0FAFF1   		imull	%ecx, %esi
 2126 0f59 01FE     		addl	%edi, %esi
 2127 0f5b F7E1     		mull	%ecx
 2128 0f5d 8D0C16   		leal	(%esi,%edx), %ecx
 2129 0f60 89CA     		movl	%ecx, %edx
 2130 0f62 69DA007D 		imull	$32000, %edx, %ebx
 2130      0000
 2131 0f68 6BC800   		imull	$0, %eax, %ecx
 2132 0f6b 01CB     		addl	%ecx, %ebx
 2133 0f6d B9007D00 		movl	$32000, %ecx
 2133      00
 2134 0f72 F7E1     		mull	%ecx
 2135 0f74 8D0C13   		leal	(%ebx,%edx), %ecx
 2136 0f77 89CA     		movl	%ecx, %edx
 2137 0f79 8B8574D0 		movl	-12172(%ebp), %eax
 2137      FFFF
 2138 0f7f 89C1     		movl	%eax, %ecx
 2139 0f81 BB000000 		movl	$0, %ebx
 2139      00
 2140 0f86 8B8570D0 		movl	-12176(%ebp), %eax
 2140      FFFF
 2141 0f8c BA000000 		movl	$0, %edx
 2141      00
 2142 0f91 89DF     		movl	%ebx, %edi
 2143 0f93 0FAFF8   		imull	%eax, %edi
 2144 0f96 89D6     		movl	%edx, %esi
 2145 0f98 0FAFF1   		imull	%ecx, %esi
 2146 0f9b 01FE     		addl	%edi, %esi
 2147 0f9d F7E1     		mull	%ecx
 2148 0f9f 8D0C16   		leal	(%esi,%edx), %ecx
 2149 0fa2 89CA     		movl	%ecx, %edx
 2150 0fa4 69DA007D 		imull	$32000, %edx, %ebx
 2150      0000
 2151 0faa 6BC800   		imull	$0, %eax, %ecx
 2152 0fad 01CB     		addl	%ecx, %ebx
 2153 0faf B9007D00 		movl	$32000, %ecx
 2153      00
 2154 0fb4 F7E1     		mull	%ecx
 2155 0fb6 8D0C13   		leal	(%ebx,%edx), %ecx
 2156 0fb9 89CA     		movl	%ecx, %edx
 2157 0fbb 8B9574D0 		movl	-12172(%ebp), %edx
 2157      FFFF
 2158 0fc1 8B8570D0 		movl	-12176(%ebp), %eax
 2158      FFFF
 2159 0fc7 0FAFC2   		imull	%edx, %eax
 2160 0fca 69C0A00F 		imull	$4000, %eax, %eax
 2160      0000
 2161 0fd0 BA100000 		movl	$16, %edx
 2161      00
 2162 0fd5 83EA01   		subl	$1, %edx
 2163 0fd8 01D0     		addl	%edx, %eax
 2164 0fda BB100000 		movl	$16, %ebx
 2164      00
GAS LISTING C:\Users\jisu8\AppData\Local\Temp\ccIqWD58.s 			page 52


 2165 0fdf BA000000 		movl	$0, %edx
 2165      00
 2166 0fe4 F7F3     		divl	%ebx
 2167 0fe6 6BC010   		imull	$16, %eax, %eax
 2168 0fe9 E8000000 		call	___chkstk_ms
 2168      00
 2169 0fee 29C4     		subl	%eax, %esp
 2170 0ff0 8D442410 		leal	16(%esp), %eax
 2171 0ff4 83C003   		addl	$3, %eax
 2172 0ff7 C1E802   		shrl	$2, %eax
 2173 0ffa C1E002   		sall	$2, %eax
 2174 0ffd 8945C8   		movl	%eax, -56(%ebp)
 462:src/pdf417/PDFScanningDecoder.c **** 	fill(row*column*1000,barcodeMatrix,0);
 2175              		.loc 1 462 2
 2176 1000 8B55C8   		movl	-56(%ebp), %edx
 2177              		.loc 1 462 10
 2178 1003 8B45D4   		movl	-44(%ebp), %eax
 2179 1006 0FAF45D8 		imull	-40(%ebp), %eax
 2180              		.loc 1 462 2
 2181 100a 69C0E803 		imull	$1000, %eax, %eax
 2181      0000
 2182 1010 C7442408 		movl	$0, 8(%esp)
 2182      00000000 
 2183 1018 89542404 		movl	%edx, 4(%esp)
 2184 101c 890424   		movl	%eax, (%esp)
 2185 101f E8000000 		call	_fill
 2185      00
 463:src/pdf417/PDFScanningDecoder.c **** 	int columnNum = 0;
 2186              		.loc 1 463 6
 2187 1024 C745DC00 		movl	$0, -36(%ebp)
 2187      000000
 464:src/pdf417/PDFScanningDecoder.c **** 
 465:src/pdf417/PDFScanningDecoder.c **** 	DetectionResultColumn_t resultColumn = allColumns(detectionResult,row,size);
 2188              		.loc 1 465 41
 2189 102b 8D8590D0 		leal	-12144(%ebp), %eax
 2189      FFFF
 2190 1031 8B550C   		movl	12(%ebp), %edx
 2191 1034 8954240C 		movl	%edx, 12(%esp)
 2192 1038 8B55D4   		movl	-44(%ebp), %edx
 2193 103b 89542408 		movl	%edx, 8(%esp)
 2194 103f 8B5508   		movl	8(%ebp), %edx
 2195 1042 89542404 		movl	%edx, 4(%esp)
 2196 1046 890424   		movl	%eax, (%esp)
 2197 1049 E8000000 		call	_allColumns
 2197      00
 2198              	LBB16:
 466:src/pdf417/PDFScanningDecoder.c **** 	
 467:src/pdf417/PDFScanningDecoder.c **** 	for (int i = 0;i<row;i++) 
 2199              		.loc 1 467 11
 2200 104e C745E000 		movl	$0, -32(%ebp)
 2200      000000
 2201              		.loc 1 467 2
 2202 1055 E9DE0000 		jmp	L145
 2202      00
 2203              	L152:
 468:src/pdf417/PDFScanningDecoder.c **** 	{
 469:src/pdf417/PDFScanningDecoder.c **** 		if (resultColumn.m_hasValue != 0) 
GAS LISTING C:\Users\jisu8\AppData\Local\Temp\ccIqWD58.s 			page 53


 2204              		.loc 1 469 19
 2205 105a 0FB68590 		movzbl	-12144(%ebp), %eax
 2205      D0FFFF
 2206              		.loc 1 469 6
 2207 1061 84C0     		testb	%al, %al
 2208 1063 0F84C700 		je	L146
 2208      0000
 2209              	LBB17:
 470:src/pdf417/PDFScanningDecoder.c **** 		{
 471:src/pdf417/PDFScanningDecoder.c **** 			for (int j=0;j<size;j++) 
 2210              		.loc 1 471 13
 2211 1069 C745E400 		movl	$0, -28(%ebp)
 2211      000000
 2212              		.loc 1 471 4
 2213 1070 E9AF0000 		jmp	L147
 2213      00
 2214              	L151:
 2215              	LBB18:
 472:src/pdf417/PDFScanningDecoder.c **** 			{
 473:src/pdf417/PDFScanningDecoder.c **** 				Codeword_t codeword = (resultColumn.m_value._codewords[j]);
 2216              		.loc 1 473 16
 2217 1075 8B55E4   		movl	-28(%ebp), %edx
 2218 1078 89D0     		movl	%edx, %eax
 2219 107a 01C0     		addl	%eax, %eax
 2220 107c 01D0     		addl	%edx, %eax
 2221 107e C1E003   		sall	$3, %eax
 2222 1081 8D5DE8   		leal	-24(%ebp), %ebx
 2223 1084 01D8     		addl	%ebx, %eax
 2224 1086 2D182F00 		subl	$12056, %eax
 2224      00
 2225 108b 8B5010   		movl	16(%eax), %edx
 2226 108e 899578D0 		movl	%edx, -12168(%ebp)
 2226      FFFF
 2227 1094 8B5014   		movl	20(%eax), %edx
 2228 1097 89957CD0 		movl	%edx, -12164(%ebp)
 2228      FFFF
 2229 109d 8B5018   		movl	24(%eax), %edx
 2230 10a0 899580D0 		movl	%edx, -12160(%ebp)
 2230      FFFF
 2231 10a6 8B501C   		movl	28(%eax), %edx
 2232 10a9 899584D0 		movl	%edx, -12156(%ebp)
 2232      FFFF
 2233 10af 8B5020   		movl	32(%eax), %edx
 2234 10b2 899588D0 		movl	%edx, -12152(%ebp)
 2234      FFFF
 2235 10b8 8B4024   		movl	36(%eax), %eax
 2236 10bb 89858CD0 		movl	%eax, -12148(%ebp)
 2236      FFFF
 474:src/pdf417/PDFScanningDecoder.c **** 				if (codeword.m_hasValue != 0) 
 2237              		.loc 1 474 17
 2238 10c1 0FB68578 		movzbl	-12168(%ebp), %eax
 2238      D0FFFF
 2239              		.loc 1 474 8
 2240 10c8 84C0     		testb	%al, %al
 2241 10ca 7454     		je	L150
 2242              	LBB19:
 475:src/pdf417/PDFScanningDecoder.c **** 				{
GAS LISTING C:\Users\jisu8\AppData\Local\Temp\ccIqWD58.s 			page 54


 476:src/pdf417/PDFScanningDecoder.c **** 					int rowNumber = codeword.m_value._rowNumber;
 2243              		.loc 1 476 10
 2244 10cc 8B858CD0 		movl	-12148(%ebp), %eax
 2244      FFFF
 2245 10d2 8945C4   		movl	%eax, -60(%ebp)
 477:src/pdf417/PDFScanningDecoder.c **** 					if (rowNumber >= 0) 
 2246              		.loc 1 477 9
 2247 10d5 837DC400 		cmpl	$0, -60(%ebp)
 2248 10d9 7845     		js	L150
 478:src/pdf417/PDFScanningDecoder.c **** 					{
 479:src/pdf417/PDFScanningDecoder.c **** 						if (rowNumber >= column * row) 
 2249              		.loc 1 479 31
 2250 10db 8B45D8   		movl	-40(%ebp), %eax
 2251 10de 0FAF45D4 		imull	-44(%ebp), %eax
 2252              		.loc 1 479 10
 2253 10e2 3945C4   		cmpl	%eax, -60(%ebp)
 2254 10e5 7D38     		jge	L154
 480:src/pdf417/PDFScanningDecoder.c **** 						{
 481:src/pdf417/PDFScanningDecoder.c **** 							// We have more rows than the barcode metadata allows for, ignore them.
 482:src/pdf417/PDFScanningDecoder.c **** 							continue;
 483:src/pdf417/PDFScanningDecoder.c **** 						}
 484:src/pdf417/PDFScanningDecoder.c **** 						BarcodeSetValue(&barcodeMatrix[rowNumber][columnNum],codeword.m_value._value);
 2255              		.loc 1 484 7
 2256 10e7 8B8588D0 		movl	-12152(%ebp), %eax
 2256      FFFF
 2257              		.loc 1 484 48
 2258 10ed 8B9568D0 		movl	-12184(%ebp), %edx
 2258      FFFF
 2259 10f3 C1EA02   		shrl	$2, %edx
 2260              		.loc 1 484 7
 2261 10f6 8B4DDC   		movl	-36(%ebp), %ecx
 2262 10f9 69C9E803 		imull	$1000, %ecx, %ecx
 2262      0000
 2263 10ff 0FAF55C4 		imull	-60(%ebp), %edx
 2264 1103 01CA     		addl	%ecx, %edx
 2265 1105 8D0C9500 		leal	0(,%edx,4), %ecx
 2265      000000
 2266 110c 8B55C8   		movl	-56(%ebp), %edx
 2267 110f 01CA     		addl	%ecx, %edx
 2268 1111 89442404 		movl	%eax, 4(%esp)
 2269 1115 891424   		movl	%edx, (%esp)
 2270 1118 E8000000 		call	_BarcodeSetValue
 2270      00
 2271 111d EB01     		jmp	L150
 2272              	L154:
 2273              	LBE19:
 482:src/pdf417/PDFScanningDecoder.c **** 						}
 2274              		.loc 1 482 8
 2275 111f 90       		nop
 2276              	L150:
 2277              	LBE18:
 471:src/pdf417/PDFScanningDecoder.c **** 			{
 2278              		.loc 1 471 25 discriminator 2
 2279 1120 8345E401 		addl	$1, -28(%ebp)
 2280              	L147:
 471:src/pdf417/PDFScanningDecoder.c **** 			{
 2281              		.loc 1 471 4 discriminator 1
GAS LISTING C:\Users\jisu8\AppData\Local\Temp\ccIqWD58.s 			page 55


 2282 1124 8B45E4   		movl	-28(%ebp), %eax
 2283 1127 3B450C   		cmpl	12(%ebp), %eax
 2284 112a 0F8C45FF 		jl	L151
 2284      FFFF
 2285              	L146:
 2286              	LBE17:
 485:src/pdf417/PDFScanningDecoder.c **** 					}
 486:src/pdf417/PDFScanningDecoder.c **** 				}
 487:src/pdf417/PDFScanningDecoder.c **** 			}
 488:src/pdf417/PDFScanningDecoder.c **** 		}
 489:src/pdf417/PDFScanningDecoder.c **** 		columnNum++;
 2287              		.loc 1 489 12 discriminator 2
 2288 1130 8345DC01 		addl	$1, -36(%ebp)
 467:src/pdf417/PDFScanningDecoder.c **** 	{
 2289              		.loc 1 467 24 discriminator 2
 2290 1134 8345E001 		addl	$1, -32(%ebp)
 2291              	L145:
 467:src/pdf417/PDFScanningDecoder.c **** 	{
 2292              		.loc 1 467 2 discriminator 1
 2293 1138 8B45E0   		movl	-32(%ebp), %eax
 2294 113b 3B45D4   		cmpl	-44(%ebp), %eax
 2295 113e 0F8C16FF 		jl	L152
 2295      FFFF
 2296              	LBE16:
 490:src/pdf417/PDFScanningDecoder.c **** 	}
 491:src/pdf417/PDFScanningDecoder.c **** 
 492:src/pdf417/PDFScanningDecoder.c **** 	return barcodeMatrix;
 2297              		.loc 1 492 9
 2298 1144 B8000000 		movl	$0, %eax
 2298      00
 2299 1149 8BA56CD0 		movl	-12180(%ebp), %esp
 2299      FFFF
 493:src/pdf417/PDFScanningDecoder.c **** }
 2300              		.loc 1 493 1
 2301 114f 8D65F4   		leal	-12(%ebp), %esp
 2302 1152 5B       		popl	%ebx
 2303              		.cfi_restore 3
 2304 1153 5E       		popl	%esi
 2305              		.cfi_restore 6
 2306 1154 5F       		popl	%edi
 2307              		.cfi_restore 7
 2308 1155 5D       		popl	%ebp
 2309              	LCFI62:
 2310              		.cfi_restore 5
 2311              		.cfi_def_cfa 4, 4
 2312 1156 C3       		ret
 2313              		.cfi_endproc
 2314              	LFE24:
 2316              	_GetNumberOfECCodeWords:
 2317              	LFB25:
 494:src/pdf417/PDFScanningDecoder.c **** 
 495:src/pdf417/PDFScanningDecoder.c **** static int GetNumberOfECCodeWords(int barcodeECLevel)
 496:src/pdf417/PDFScanningDecoder.c **** {
 2318              		.loc 1 496 1
 2319              		.cfi_startproc
 2320 1157 55       		pushl	%ebp
 2321              	LCFI63:
GAS LISTING C:\Users\jisu8\AppData\Local\Temp\ccIqWD58.s 			page 56


 2322              		.cfi_def_cfa_offset 8
 2323              		.cfi_offset 5, -8
 2324 1158 89E5     		movl	%esp, %ebp
 2325              	LCFI64:
 2326              		.cfi_def_cfa_register 5
 497:src/pdf417/PDFScanningDecoder.c **** 	return 2 << barcodeECLevel;
 2327              		.loc 1 497 11
 2328 115a 8B4508   		movl	8(%ebp), %eax
 2329 115d BA020000 		movl	$2, %edx
 2329      00
 2330 1162 89C1     		movl	%eax, %ecx
 2331 1164 D3E2     		sall	%cl, %edx
 2332 1166 89D0     		movl	%edx, %eax
 498:src/pdf417/PDFScanningDecoder.c **** }
 2333              		.loc 1 498 1
 2334 1168 5D       		popl	%ebp
 2335              	LCFI65:
 2336              		.cfi_restore 5
 2337              		.cfi_def_cfa 4, 4
 2338 1169 C3       		ret
 2339              		.cfi_endproc
 2340              	LFE25:
 2341              		.section .rdata,"dr"
 2342              	LC10:
 2343 0207 41646A75 		.ascii "AdjustCodewordCount\0"
 2343      7374436F 
 2343      6465776F 
 2343      7264436F 
 2343      756E7400 
 2344 021b 00       		.text
 2346              	_AdjustCodewordCount:
 2347              	LFB26:
 499:src/pdf417/PDFScanningDecoder.c **** 
 500:src/pdf417/PDFScanningDecoder.c **** 
 501:src/pdf417/PDFScanningDecoder.c **** static uint8_t AdjustCodewordCount(const DetectionResult_t * detectionResult, BarcodeValue_t * barc
 502:src/pdf417/PDFScanningDecoder.c **** {
 2348              		.loc 1 502 1
 2349              		.cfi_startproc
 2350 116a 55       		pushl	%ebp
 2351              	LCFI66:
 2352              		.cfi_def_cfa_offset 8
 2353              		.cfi_offset 5, -8
 2354 116b 89E5     		movl	%esp, %ebp
 2355              	LCFI67:
 2356              		.cfi_def_cfa_register 5
 2357 116d 83EC18   		subl	$24, %esp
 503:src/pdf417/PDFScanningDecoder.c **** 	printf("AdjustCodewordCount\n");
 2358              		.loc 1 503 2
 2359 1170 C7042407 		movl	$LC10, (%esp)
 2359      020000
 2360 1177 E8000000 		call	_puts
 2360      00
 504:src/pdf417/PDFScanningDecoder.c **** 	#if 0
 505:src/pdf417/PDFScanningDecoder.c **** 	int numberOfCodewords = BarcodeValue(barcodeMatrix[0][1],size);
 506:src/pdf417/PDFScanningDecoder.c **** 	int calculatedNumberOfCodewords = detectionResult->_barcodeMetadata._columnCount * rowCount(&detec
 507:src/pdf417/PDFScanningDecoder.c **** 	if (numberOfCodewords==0) 
 508:src/pdf417/PDFScanningDecoder.c **** 	{
GAS LISTING C:\Users\jisu8\AppData\Local\Temp\ccIqWD58.s 			page 57


 509:src/pdf417/PDFScanningDecoder.c **** 		if (calculatedNumberOfCodewords < 1 || calculatedNumberOfCodewords > MAX_CODEWORDS_IN_BARCODE) 
 510:src/pdf417/PDFScanningDecoder.c **** 		{
 511:src/pdf417/PDFScanningDecoder.c **** 			return 0;
 512:src/pdf417/PDFScanningDecoder.c **** 		}
 513:src/pdf417/PDFScanningDecoder.c **** 		(barcodeMatrix[0][1],calculatedNumberOfCodewords);
 514:src/pdf417/PDFScanningDecoder.c **** 	}
 515:src/pdf417/PDFScanningDecoder.c **** 	else if (numberOfCodewords[0] != calculatedNumberOfCodewords) 
 516:src/pdf417/PDFScanningDecoder.c **** 	{
 517:src/pdf417/PDFScanningDecoder.c **** 		// The calculated one is more reliable as it is derived from the row indicator columns
 518:src/pdf417/PDFScanningDecoder.c **** 		BarcodeSetValue(barcodeMatrix[0][1],calculatedNumberOfCodewords);
 519:src/pdf417/PDFScanningDecoder.c **** 	}
 520:src/pdf417/PDFScanningDecoder.c **** 	#endif
 521:src/pdf417/PDFScanningDecoder.c **** 	return 1;
 2361              		.loc 1 521 9
 2362 117c B8010000 		movl	$1, %eax
 2362      00
 522:src/pdf417/PDFScanningDecoder.c **** }
 2363              		.loc 1 522 1
 2364 1181 C9       		leave
 2365              	LCFI68:
 2366              		.cfi_restore 5
 2367              		.cfi_def_cfa 4, 4
 2368 1182 C3       		ret
 2369              		.cfi_endproc
 2370              	LFE26:
 2372              	_CreateDecoderResultFromAmbiguousValues:
 2373              	LFB27:
 523:src/pdf417/PDFScanningDecoder.c **** // +++++++++++++++++++++++++++++++++++ Error Correction
 524:src/pdf417/PDFScanningDecoder.c **** 
 525:src/pdf417/PDFScanningDecoder.c **** #if 0
 526:src/pdf417/PDFScanningDecoder.c **** static const ModulusGF& GetModulusGF()
 527:src/pdf417/PDFScanningDecoder.c **** {
 528:src/pdf417/PDFScanningDecoder.c **** 	static const ModulusGF field(CodewordDecoder::NUMBER_OF_CODEWORDS, 3);
 529:src/pdf417/PDFScanningDecoder.c **** 	return field;
 530:src/pdf417/PDFScanningDecoder.c **** }
 531:src/pdf417/PDFScanningDecoder.c **** 
 532:src/pdf417/PDFScanningDecoder.c **** #endif
 533:src/pdf417/PDFScanningDecoder.c **** #if 0
 534:src/pdf417/PDFScanningDecoder.c **** static bool RunEuclideanAlgorithm(ModulusPoly a, ModulusPoly b, int R, ModulusPoly& sigma, ModulusP
 535:src/pdf417/PDFScanningDecoder.c **** {
 536:src/pdf417/PDFScanningDecoder.c **** #ifdef HK_DEBUG
 537:src/pdf417/PDFScanningDecoder.c **** 	printf("RunEuclideanAlgorithm\n");
 538:src/pdf417/PDFScanningDecoder.c **** #endif
 539:src/pdf417/PDFScanningDecoder.c **** 	
 540:src/pdf417/PDFScanningDecoder.c **** 	const ModulusGF& field = GetModulusGF();
 541:src/pdf417/PDFScanningDecoder.c **** 
 542:src/pdf417/PDFScanningDecoder.c **** 	// Assume a's degree is >= b's
 543:src/pdf417/PDFScanningDecoder.c **** 	if (a.degree() < b.degree()) 
 544:src/pdf417/PDFScanningDecoder.c **** 	{
 545:src/pdf417/PDFScanningDecoder.c **** 		swap(a, b);
 546:src/pdf417/PDFScanningDecoder.c **** 	}
 547:src/pdf417/PDFScanningDecoder.c **** 
 548:src/pdf417/PDFScanningDecoder.c **** 	ModulusPoly rLast = a;
 549:src/pdf417/PDFScanningDecoder.c **** 	ModulusPoly r = b;
 550:src/pdf417/PDFScanningDecoder.c **** 	ModulusPoly tLast = field.zero();
 551:src/pdf417/PDFScanningDecoder.c **** 	ModulusPoly t = field.one();
 552:src/pdf417/PDFScanningDecoder.c **** 
GAS LISTING C:\Users\jisu8\AppData\Local\Temp\ccIqWD58.s 			page 58


 553:src/pdf417/PDFScanningDecoder.c **** 	// Run Euclidean algorithm until r's degree is less than R/2
 554:src/pdf417/PDFScanningDecoder.c **** 	while (r.degree() >= R / 2) 
 555:src/pdf417/PDFScanningDecoder.c **** 	{
 556:src/pdf417/PDFScanningDecoder.c **** 		ModulusPoly rLastLast = rLast;
 557:src/pdf417/PDFScanningDecoder.c **** 		ModulusPoly tLastLast = tLast;
 558:src/pdf417/PDFScanningDecoder.c **** 		rLast = r;
 559:src/pdf417/PDFScanningDecoder.c **** 		tLast = t;
 560:src/pdf417/PDFScanningDecoder.c **** 
 561:src/pdf417/PDFScanningDecoder.c **** 		// Divide rLastLast by rLast, with quotient in q and remainder in r
 562:src/pdf417/PDFScanningDecoder.c **** 		if (rLast.isZero()) {
 563:src/pdf417/PDFScanningDecoder.c **** 			// Oops, Euclidean algorithm already terminated?
 564:src/pdf417/PDFScanningDecoder.c **** 			return false;
 565:src/pdf417/PDFScanningDecoder.c **** 		}
 566:src/pdf417/PDFScanningDecoder.c **** 		r = rLastLast;
 567:src/pdf417/PDFScanningDecoder.c **** 		ModulusPoly q = field.zero();
 568:src/pdf417/PDFScanningDecoder.c **** 		int denominatorLeadingTerm = rLast.coefficient(rLast.degree());
 569:src/pdf417/PDFScanningDecoder.c **** 		int dltInverse = field.inverse(denominatorLeadingTerm);
 570:src/pdf417/PDFScanningDecoder.c **** 		while (r.degree() >= rLast.degree() && !r.isZero()) {
 571:src/pdf417/PDFScanningDecoder.c **** 			int degreeDiff = r.degree() - rLast.degree();
 572:src/pdf417/PDFScanningDecoder.c **** 			int scale = field.multiply(r.coefficient(r.degree()), dltInverse);
 573:src/pdf417/PDFScanningDecoder.c **** 			q = q.add(field.buildMonomial(degreeDiff, scale));
 574:src/pdf417/PDFScanningDecoder.c **** 			r = r.subtract(rLast.multiplyByMonomial(degreeDiff, scale));
 575:src/pdf417/PDFScanningDecoder.c **** 		}
 576:src/pdf417/PDFScanningDecoder.c **** 
 577:src/pdf417/PDFScanningDecoder.c **** 		t = q.multiply(tLast).subtract(tLastLast).negative();
 578:src/pdf417/PDFScanningDecoder.c **** 	}
 579:src/pdf417/PDFScanningDecoder.c **** 
 580:src/pdf417/PDFScanningDecoder.c **** 	int sigmaTildeAtZero = t.coefficient(0);
 581:src/pdf417/PDFScanningDecoder.c **** 	if (sigmaTildeAtZero == 0) {
 582:src/pdf417/PDFScanningDecoder.c **** 		return false;
 583:src/pdf417/PDFScanningDecoder.c **** 	}
 584:src/pdf417/PDFScanningDecoder.c **** 
 585:src/pdf417/PDFScanningDecoder.c **** 	int inverse = field.inverse(sigmaTildeAtZero);
 586:src/pdf417/PDFScanningDecoder.c **** 	sigma = t.multiply(inverse);
 587:src/pdf417/PDFScanningDecoder.c **** 	omega = r.multiply(inverse);
 588:src/pdf417/PDFScanningDecoder.c **** 	return true;
 589:src/pdf417/PDFScanningDecoder.c **** }
 590:src/pdf417/PDFScanningDecoder.c **** 
 591:src/pdf417/PDFScanningDecoder.c **** #endif
 592:src/pdf417/PDFScanningDecoder.c **** #if 0
 593:src/pdf417/PDFScanningDecoder.c **** static bool FindErrorLocations(const ModulusPoly& errorLocator, std::vector<int>& result)
 594:src/pdf417/PDFScanningDecoder.c **** {
 595:src/pdf417/PDFScanningDecoder.c **** #ifdef HK_DEBUG
 596:src/pdf417/PDFScanningDecoder.c **** 	printf("FindErrorLocations \n");
 597:src/pdf417/PDFScanningDecoder.c **** #endif
 598:src/pdf417/PDFScanningDecoder.c **** 	
 599:src/pdf417/PDFScanningDecoder.c **** 	const ModulusGF& field = GetModulusGF();
 600:src/pdf417/PDFScanningDecoder.c **** 	// This is a direct application of Chien's search
 601:src/pdf417/PDFScanningDecoder.c **** 	int numErrors = errorLocator.degree();
 602:src/pdf417/PDFScanningDecoder.c **** 	result.resize(numErrors);
 603:src/pdf417/PDFScanningDecoder.c **** 	int e = 0;
 604:src/pdf417/PDFScanningDecoder.c **** 	for (int i = 1; i < field.size() && e < numErrors; i++) 
 605:src/pdf417/PDFScanningDecoder.c **** 	{
 606:src/pdf417/PDFScanningDecoder.c **** 		if (errorLocator.evaluateAt(i) == 0) {
 607:src/pdf417/PDFScanningDecoder.c **** 			result[e] = field.inverse(i);
 608:src/pdf417/PDFScanningDecoder.c **** 			e++;
 609:src/pdf417/PDFScanningDecoder.c **** 		}
GAS LISTING C:\Users\jisu8\AppData\Local\Temp\ccIqWD58.s 			page 59


 610:src/pdf417/PDFScanningDecoder.c **** 	}
 611:src/pdf417/PDFScanningDecoder.c **** 	return e == numErrors;
 612:src/pdf417/PDFScanningDecoder.c **** }
 613:src/pdf417/PDFScanningDecoder.c **** 
 614:src/pdf417/PDFScanningDecoder.c **** #endif
 615:src/pdf417/PDFScanningDecoder.c **** #if 0
 616:src/pdf417/PDFScanningDecoder.c **** static std::vector<int> FindErrorMagnitudes(const ModulusPoly& errorEvaluator, const ModulusPoly& e
 617:src/pdf417/PDFScanningDecoder.c **** {
 618:src/pdf417/PDFScanningDecoder.c **** #ifdef HK_DEBUG
 619:src/pdf417/PDFScanningDecoder.c **** 	printf("FindErrorMagnitudes \n");
 620:src/pdf417/PDFScanningDecoder.c **** #endif
 621:src/pdf417/PDFScanningDecoder.c **** 	const ModulusGF& field = GetModulusGF();
 622:src/pdf417/PDFScanningDecoder.c **** 	int errorLocatorDegree = errorLocator.degree();
 623:src/pdf417/PDFScanningDecoder.c **** 	std::vector<int> formalDerivativeCoefficients(errorLocatorDegree);
 624:src/pdf417/PDFScanningDecoder.c **** 	for (int i = 1; i <= errorLocatorDegree; i++) {
 625:src/pdf417/PDFScanningDecoder.c **** 		formalDerivativeCoefficients[errorLocatorDegree - i] = field.multiply(i, errorLocator.coefficient
 626:src/pdf417/PDFScanningDecoder.c **** 	}
 627:src/pdf417/PDFScanningDecoder.c **** 
 628:src/pdf417/PDFScanningDecoder.c **** 	ModulusPoly formalDerivative(field, formalDerivativeCoefficients);
 629:src/pdf417/PDFScanningDecoder.c **** 	// This is directly applying Forney's Formula
 630:src/pdf417/PDFScanningDecoder.c **** 	std::vector<int> result(errorLocations.size());
 631:src/pdf417/PDFScanningDecoder.c **** 	for (size_t i = 0; i < result.size(); i++) {
 632:src/pdf417/PDFScanningDecoder.c **** 		int xiInverse = field.inverse(errorLocations[i]);
 633:src/pdf417/PDFScanningDecoder.c **** 		int numerator = field.subtract(0, errorEvaluator.evaluateAt(xiInverse));
 634:src/pdf417/PDFScanningDecoder.c **** 		int denominator = field.inverse(formalDerivative.evaluateAt(xiInverse));
 635:src/pdf417/PDFScanningDecoder.c **** 		result[i] = field.multiply(numerator, denominator);
 636:src/pdf417/PDFScanningDecoder.c **** 	}
 637:src/pdf417/PDFScanningDecoder.c **** 	return result;
 638:src/pdf417/PDFScanningDecoder.c **** }
 639:src/pdf417/PDFScanningDecoder.c **** 
 640:src/pdf417/PDFScanningDecoder.c **** /**
 641:src/pdf417/PDFScanningDecoder.c **** * @param received received codewords
 642:src/pdf417/PDFScanningDecoder.c **** * @param numECCodewords number of those codewords used for EC
 643:src/pdf417/PDFScanningDecoder.c **** * @param erasures location of erasures
 644:src/pdf417/PDFScanningDecoder.c **** * @return number of errors
 645:src/pdf417/PDFScanningDecoder.c **** * @throws ChecksumException if errors cannot be corrected, maybe because of too many errors
 646:src/pdf417/PDFScanningDecoder.c **** */
 647:src/pdf417/PDFScanningDecoder.c **** ZXING_EXPORT_TEST_ONLY
 648:src/pdf417/PDFScanningDecoder.c **** bool DecodeErrorCorrection(std::vector<int>& received, int numECCodewords, const std::vector<int>& 
 649:src/pdf417/PDFScanningDecoder.c **** {
 650:src/pdf417/PDFScanningDecoder.c **** #ifdef HK_DEBUG
 651:src/pdf417/PDFScanningDecoder.c **** 	printf("DecodeErrorCorrection  numECCodewords=%d, nbErrors=%d\n", numECCodewords, nbErrors);
 652:src/pdf417/PDFScanningDecoder.c **** #endif
 653:src/pdf417/PDFScanningDecoder.c **** 	
 654:src/pdf417/PDFScanningDecoder.c **** 	const ModulusGF& field = GetModulusGF();
 655:src/pdf417/PDFScanningDecoder.c **** 	ModulusPoly poly(field, received);
 656:src/pdf417/PDFScanningDecoder.c **** 	std::vector<int> S(numECCodewords);
 657:src/pdf417/PDFScanningDecoder.c **** 	bool error = false;
 658:src/pdf417/PDFScanningDecoder.c **** 	for (int i = numECCodewords; i > 0; i--) 
 659:src/pdf417/PDFScanningDecoder.c **** 	{
 660:src/pdf417/PDFScanningDecoder.c **** 		int eval = poly.evaluateAt(field.exp(i));
 661:src/pdf417/PDFScanningDecoder.c **** 		S[numECCodewords - i] = eval;
 662:src/pdf417/PDFScanningDecoder.c **** 		if (eval != 0) {
 663:src/pdf417/PDFScanningDecoder.c **** 			error = true;
 664:src/pdf417/PDFScanningDecoder.c **** 		}
 665:src/pdf417/PDFScanningDecoder.c **** 	}
 666:src/pdf417/PDFScanningDecoder.c **** 
GAS LISTING C:\Users\jisu8\AppData\Local\Temp\ccIqWD58.s 			page 60


 667:src/pdf417/PDFScanningDecoder.c **** 	if (!error) 
 668:src/pdf417/PDFScanningDecoder.c **** 	{
 669:src/pdf417/PDFScanningDecoder.c **** 		nbErrors = 0;
 670:src/pdf417/PDFScanningDecoder.c **** 		return true;
 671:src/pdf417/PDFScanningDecoder.c **** 	}
 672:src/pdf417/PDFScanningDecoder.c **** 
 673:src/pdf417/PDFScanningDecoder.c **** 	ModulusPoly knownErrors = field.one();
 674:src/pdf417/PDFScanningDecoder.c **** 	for (int erasure : erasures) {
 675:src/pdf417/PDFScanningDecoder.c **** 		int b = field.exp(Size(received) - 1 - erasure);
 676:src/pdf417/PDFScanningDecoder.c **** 		// Add (1 - bx) term:
 677:src/pdf417/PDFScanningDecoder.c **** 		ModulusPoly term(field, { field.subtract(0, b), 1 });
 678:src/pdf417/PDFScanningDecoder.c **** 		knownErrors = knownErrors.multiply(term);
 679:src/pdf417/PDFScanningDecoder.c **** 	}
 680:src/pdf417/PDFScanningDecoder.c **** 
 681:src/pdf417/PDFScanningDecoder.c **** 	ModulusPoly syndrome(field, S);
 682:src/pdf417/PDFScanningDecoder.c **** 	//syndrome = syndrome.multiply(knownErrors);
 683:src/pdf417/PDFScanningDecoder.c **** 
 684:src/pdf417/PDFScanningDecoder.c **** 	ModulusPoly sigma, omega;
 685:src/pdf417/PDFScanningDecoder.c **** 	if (!RunEuclideanAlgorithm(field.buildMonomial(numECCodewords, 1), syndrome, numECCodewords, sigma
 686:src/pdf417/PDFScanningDecoder.c **** 		return false;
 687:src/pdf417/PDFScanningDecoder.c **** 	}
 688:src/pdf417/PDFScanningDecoder.c **** 
 689:src/pdf417/PDFScanningDecoder.c **** 	//sigma = sigma.multiply(knownErrors);
 690:src/pdf417/PDFScanningDecoder.c **** 
 691:src/pdf417/PDFScanningDecoder.c **** 	std::vector<int> errorLocations;
 692:src/pdf417/PDFScanningDecoder.c **** 	if (!FindErrorLocations(sigma, errorLocations)) {
 693:src/pdf417/PDFScanningDecoder.c **** 		return false;
 694:src/pdf417/PDFScanningDecoder.c **** 	}
 695:src/pdf417/PDFScanningDecoder.c **** 
 696:src/pdf417/PDFScanningDecoder.c **** 	std::vector<int> errorMagnitudes = FindErrorMagnitudes(omega, sigma, errorLocations);
 697:src/pdf417/PDFScanningDecoder.c **** 
 698:src/pdf417/PDFScanningDecoder.c **** 	int receivedSize = Size(received);
 699:src/pdf417/PDFScanningDecoder.c **** 	for (size_t i = 0; i < errorLocations.size(); i++) {
 700:src/pdf417/PDFScanningDecoder.c **** 		int position = receivedSize - 1 - field.log(errorLocations[i]);
 701:src/pdf417/PDFScanningDecoder.c **** 		if (position < 0) {
 702:src/pdf417/PDFScanningDecoder.c **** 			return false;
 703:src/pdf417/PDFScanningDecoder.c **** 		}
 704:src/pdf417/PDFScanningDecoder.c **** 		received[position] = field.subtract(received[position], errorMagnitudes[i]);
 705:src/pdf417/PDFScanningDecoder.c **** 	}
 706:src/pdf417/PDFScanningDecoder.c **** 	nbErrors = Size(errorLocations);
 707:src/pdf417/PDFScanningDecoder.c **** 	return true;
 708:src/pdf417/PDFScanningDecoder.c **** }
 709:src/pdf417/PDFScanningDecoder.c **** 
 710:src/pdf417/PDFScanningDecoder.c **** #endif
 711:src/pdf417/PDFScanningDecoder.c **** #if 0
 712:src/pdf417/PDFScanningDecoder.c **** // --------------------------------------- Error Correction
 713:src/pdf417/PDFScanningDecoder.c **** 
 714:src/pdf417/PDFScanningDecoder.c **** /**
 715:src/pdf417/PDFScanningDecoder.c **** * <p>Given data and error-correction codewords received, possibly corrupted by errors, attempts to
 716:src/pdf417/PDFScanningDecoder.c **** * correct the errors in-place.</p>
 717:src/pdf417/PDFScanningDecoder.c **** *
 718:src/pdf417/PDFScanningDecoder.c **** * @param codewords   data and error correction codewords
 719:src/pdf417/PDFScanningDecoder.c **** * @param erasures positions of any known erasures
 720:src/pdf417/PDFScanningDecoder.c **** * @param numECCodewords number of error correction codewords that are available in codewords
 721:src/pdf417/PDFScanningDecoder.c **** * @throws ChecksumException if error correction fails
 722:src/pdf417/PDFScanningDecoder.c **** */
 723:src/pdf417/PDFScanningDecoder.c **** static bool CorrectErrors(std::vector<int>& codewords, const std::vector<int>& erasures, int numECC
GAS LISTING C:\Users\jisu8\AppData\Local\Temp\ccIqWD58.s 			page 61


 724:src/pdf417/PDFScanningDecoder.c **** {
 725:src/pdf417/PDFScanningDecoder.c **** #ifdef HK_DEBUG
 726:src/pdf417/PDFScanningDecoder.c **** 	printf("CorrectErrors  numECCodewords=%d, errorCount=%d\n", numECCodewords, errorCount);
 727:src/pdf417/PDFScanningDecoder.c **** #endif
 728:src/pdf417/PDFScanningDecoder.c **** 	
 729:src/pdf417/PDFScanningDecoder.c **** 	if (Size(erasures) > numECCodewords / 2 + MAX_ERRORS ||
 730:src/pdf417/PDFScanningDecoder.c **** 		numECCodewords < 0 ||
 731:src/pdf417/PDFScanningDecoder.c **** 		numECCodewords > MAX_EC_CODEWORDS) {
 732:src/pdf417/PDFScanningDecoder.c **** 		// Too many errors or EC Codewords is corrupted
 733:src/pdf417/PDFScanningDecoder.c **** 		return false;
 734:src/pdf417/PDFScanningDecoder.c **** 	}
 735:src/pdf417/PDFScanningDecoder.c **** 	return DecodeErrorCorrection(codewords, numECCodewords, erasures, errorCount);
 736:src/pdf417/PDFScanningDecoder.c **** }
 737:src/pdf417/PDFScanningDecoder.c **** 
 738:src/pdf417/PDFScanningDecoder.c **** #endif
 739:src/pdf417/PDFScanningDecoder.c **** #if 0
 740:src/pdf417/PDFScanningDecoder.c **** /**
 741:src/pdf417/PDFScanningDecoder.c **** * Verify that all is OK with the codeword array.
 742:src/pdf417/PDFScanningDecoder.c **** */
 743:src/pdf417/PDFScanningDecoder.c **** static bool VerifyCodewordCount(std::vector<int>& codewords, int numECCodewords)
 744:src/pdf417/PDFScanningDecoder.c **** {
 745:src/pdf417/PDFScanningDecoder.c **** 	if (codewords.size() < 4) 
 746:src/pdf417/PDFScanningDecoder.c **** 	{
 747:src/pdf417/PDFScanningDecoder.c **** 		// Codeword array size should be at least 4 allowing for
 748:src/pdf417/PDFScanningDecoder.c **** 		// Count CW, At least one Data CW, Error Correction CW, Error Correction CW
 749:src/pdf417/PDFScanningDecoder.c **** 		return false;
 750:src/pdf417/PDFScanningDecoder.c **** 	}
 751:src/pdf417/PDFScanningDecoder.c **** 	// The first codeword, the Symbol Length Descriptor, shall always encode the total number of data
 752:src/pdf417/PDFScanningDecoder.c **** 	// codewords in the symbol, including the Symbol Length Descriptor itself, data codewords and pad
 753:src/pdf417/PDFScanningDecoder.c **** 	// codewords, but excluding the number of error correction codewords.
 754:src/pdf417/PDFScanningDecoder.c **** 	int numberOfCodewords = codewords[0];
 755:src/pdf417/PDFScanningDecoder.c **** 
 756:src/pdf417/PDFScanningDecoder.c **** 	if (numberOfCodewords > Size(codewords)) 
 757:src/pdf417/PDFScanningDecoder.c **** 	{
 758:src/pdf417/PDFScanningDecoder.c **** 		return false;
 759:src/pdf417/PDFScanningDecoder.c **** 	}
 760:src/pdf417/PDFScanningDecoder.c **** 
 761:src/pdf417/PDFScanningDecoder.c **** 	if (numberOfCodewords == 0) 
 762:src/pdf417/PDFScanningDecoder.c **** 	{
 763:src/pdf417/PDFScanningDecoder.c **** 		// Reset to the length of the array - 8 (Allow for at least level 3 Error Correction (8 Error Cod
 764:src/pdf417/PDFScanningDecoder.c **** 		if (numECCodewords < Size(codewords)) 
 765:src/pdf417/PDFScanningDecoder.c **** 		{
 766:src/pdf417/PDFScanningDecoder.c **** 			codewords[0] = Size(codewords) - numECCodewords;
 767:src/pdf417/PDFScanningDecoder.c **** 		}
 768:src/pdf417/PDFScanningDecoder.c **** 		else 
 769:src/pdf417/PDFScanningDecoder.c **** 		{
 770:src/pdf417/PDFScanningDecoder.c **** 			return false;
 771:src/pdf417/PDFScanningDecoder.c **** 		}
 772:src/pdf417/PDFScanningDecoder.c **** 	}
 773:src/pdf417/PDFScanningDecoder.c **** 	return true;
 774:src/pdf417/PDFScanningDecoder.c **** }
 775:src/pdf417/PDFScanningDecoder.c **** 
 776:src/pdf417/PDFScanningDecoder.c **** #endif
 777:src/pdf417/PDFScanningDecoder.c **** #if 0
 778:src/pdf417/PDFScanningDecoder.c **** DecoderResult DecodeCodewords(std::vector<int>& codewords, int ecLevel, const std::vector<int>& era
 779:src/pdf417/PDFScanningDecoder.c **** 							  const std::string& characterSet)
 780:src/pdf417/PDFScanningDecoder.c **** {
GAS LISTING C:\Users\jisu8\AppData\Local\Temp\ccIqWD58.s 			page 62


 781:src/pdf417/PDFScanningDecoder.c **** 	if (codewords.empty()) 
 782:src/pdf417/PDFScanningDecoder.c **** 	{
 783:src/pdf417/PDFScanningDecoder.c **** 		return DecodeStatus::FormatError;
 784:src/pdf417/PDFScanningDecoder.c **** 	}
 785:src/pdf417/PDFScanningDecoder.c **** 
 786:src/pdf417/PDFScanningDecoder.c **** 	int numECCodewords = 1 << (ecLevel + 1);
 787:src/pdf417/PDFScanningDecoder.c **** 	int correctedErrorsCount = 0;
 788:src/pdf417/PDFScanningDecoder.c **** 	if (!CorrectErrors(codewords, erasures, numECCodewords, correctedErrorsCount))
 789:src/pdf417/PDFScanningDecoder.c **** 		return DecodeStatus::ChecksumError;
 790:src/pdf417/PDFScanningDecoder.c **** 
 791:src/pdf417/PDFScanningDecoder.c **** 	if (!VerifyCodewordCount(codewords, numECCodewords))
 792:src/pdf417/PDFScanningDecoder.c **** 		return DecodeStatus::FormatError;
 793:src/pdf417/PDFScanningDecoder.c **** 
 794:src/pdf417/PDFScanningDecoder.c **** 	// Decode the codewords
 795:src/pdf417/PDFScanningDecoder.c **** 	auto result = DecodedBitStreamParser::Decode(codewords, ecLevel, characterSet);
 796:src/pdf417/PDFScanningDecoder.c **** 	if (result.isValid()) 
 797:src/pdf417/PDFScanningDecoder.c **** 	{
 798:src/pdf417/PDFScanningDecoder.c **** 		result.setErrorsCorrected(correctedErrorsCount);
 799:src/pdf417/PDFScanningDecoder.c **** 		result.setErasures(Size(erasures));
 800:src/pdf417/PDFScanningDecoder.c **** 	}
 801:src/pdf417/PDFScanningDecoder.c **** 
 802:src/pdf417/PDFScanningDecoder.c **** 	return result;
 803:src/pdf417/PDFScanningDecoder.c **** }
 804:src/pdf417/PDFScanningDecoder.c **** 
 805:src/pdf417/PDFScanningDecoder.c **** 
 806:src/pdf417/PDFScanningDecoder.c **** #endif
 807:src/pdf417/PDFScanningDecoder.c **** 
 808:src/pdf417/PDFScanningDecoder.c **** /**
 809:src/pdf417/PDFScanningDecoder.c **** * This method deals with the fact, that the decoding process doesn't always yield a single most lik
 810:src/pdf417/PDFScanningDecoder.c **** * current error correction implementation doesn't deal with erasures very well, so it's better to p
 811:src/pdf417/PDFScanningDecoder.c **** * for these ambiguous codewords instead of treating it as an erasure. The problem is that we don't 
 812:src/pdf417/PDFScanningDecoder.c **** * the ambiguous values to choose. We try decode using the first value, and if that fails, we use an
 813:src/pdf417/PDFScanningDecoder.c **** * ambiguous values and try to decode again. This usually only happens on very hard to read and deco
 814:src/pdf417/PDFScanningDecoder.c **** * so decoding the normal barcodes is not affected by this.
 815:src/pdf417/PDFScanningDecoder.c **** *
 816:src/pdf417/PDFScanningDecoder.c **** * @param erasureArray contains the indexes of erasures
 817:src/pdf417/PDFScanningDecoder.c **** * @param ambiguousIndexes array with the indexes that have more than one most likely value
 818:src/pdf417/PDFScanningDecoder.c **** * @param ambiguousIndexValues two dimensional array that contains the ambiguous values. The first d
 819:src/pdf417/PDFScanningDecoder.c **** * be the same length as the ambiguousIndexes array
 820:src/pdf417/PDFScanningDecoder.c **** */
 821:src/pdf417/PDFScanningDecoder.c **** static DecoderResult_t * CreateDecoderResultFromAmbiguousValues(int ecLevel, int * codewords,
 822:src/pdf417/PDFScanningDecoder.c **** 	const int * erasureArray, const int * ambiguousIndexes,
 823:src/pdf417/PDFScanningDecoder.c **** 	const int * ambiguousIndexValues, const char * characterSet)
 824:src/pdf417/PDFScanningDecoder.c **** {	
 2374              		.loc 1 824 1
 2375              		.cfi_startproc
 825:src/pdf417/PDFScanningDecoder.c **** 	#if 0
 826:src/pdf417/PDFScanningDecoder.c **** 	int ambiguousIndexCount[ambiguousIndexes.size()] = 0;
 827:src/pdf417/PDFScanningDecoder.c **** 
 828:src/pdf417/PDFScanningDecoder.c **** 	int tries = 100;
 829:src/pdf417/PDFScanningDecoder.c **** 	while (tries-- > 0) 
 830:src/pdf417/PDFScanningDecoder.c **** 	{
 831:src/pdf417/PDFScanningDecoder.c **** 		for (size_t i = 0; i < ambiguousIndexCount.size(); i++) 
 832:src/pdf417/PDFScanningDecoder.c **** 		{
 833:src/pdf417/PDFScanningDecoder.c **** 			codewords[ambiguousIndexes[i]] = ambiguousIndexValues[i][ambiguousIndexCount[i]];
 834:src/pdf417/PDFScanningDecoder.c **** 		}
 835:src/pdf417/PDFScanningDecoder.c **** 		auto result = DecodeCodewords(codewords, ecLevel, erasureArray, characterSet);
GAS LISTING C:\Users\jisu8\AppData\Local\Temp\ccIqWD58.s 			page 63


 836:src/pdf417/PDFScanningDecoder.c **** 		if (result.errorCode() != ChecksumError) 
 837:src/pdf417/PDFScanningDecoder.c **** 		{
 838:src/pdf417/PDFScanningDecoder.c **** 			return result;
 839:src/pdf417/PDFScanningDecoder.c **** 		}
 840:src/pdf417/PDFScanningDecoder.c **** 
 841:src/pdf417/PDFScanningDecoder.c **** 		if (ambiguousIndexCount.empty()) 
 842:src/pdf417/PDFScanningDecoder.c **** 		{
 843:src/pdf417/PDFScanningDecoder.c **** 			return ChecksumError;
 844:src/pdf417/PDFScanningDecoder.c **** 		}
 845:src/pdf417/PDFScanningDecoder.c **** 		for (size_t i = 0; i < ambiguousIndexCount.size(); i++) 
 846:src/pdf417/PDFScanningDecoder.c **** 		{
 847:src/pdf417/PDFScanningDecoder.c **** 			if (ambiguousIndexCount[i] < Size(ambiguousIndexValues[i]) - 1) 
 848:src/pdf417/PDFScanningDecoder.c **** 			{
 849:src/pdf417/PDFScanningDecoder.c **** 				ambiguousIndexCount[i]++;
 850:src/pdf417/PDFScanningDecoder.c **** 				break;
 851:src/pdf417/PDFScanningDecoder.c **** 			}
 852:src/pdf417/PDFScanningDecoder.c **** 			else 
 853:src/pdf417/PDFScanningDecoder.c **** 			{
 854:src/pdf417/PDFScanningDecoder.c **** 				ambiguousIndexCount[i] = 0;
 855:src/pdf417/PDFScanningDecoder.c **** 				if (i == ambiguousIndexCount.size() - 1) 
 856:src/pdf417/PDFScanningDecoder.c **** 				{
 857:src/pdf417/PDFScanningDecoder.c **** 					return ChecksumError;
 858:src/pdf417/PDFScanningDecoder.c **** 				}
 859:src/pdf417/PDFScanningDecoder.c **** 			}
 860:src/pdf417/PDFScanningDecoder.c **** 		}
 861:src/pdf417/PDFScanningDecoder.c **** 	}
 862:src/pdf417/PDFScanningDecoder.c **** 	#endif
 863:src/pdf417/PDFScanningDecoder.c **** 	return ChecksumError;
 2376              		.loc 1 863 9
 2377 1183 B8030000 		movl	$3, %eax
 2377      00
 864:src/pdf417/PDFScanningDecoder.c **** }
 2378              		.loc 1 864 1
 2379 1188 C3       		ret
 2380              		.cfi_endproc
 2381              	LFE27:
 2383              	_CreateDecoderResult:
 2384              	LFB28:
 865:src/pdf417/PDFScanningDecoder.c **** 
 866:src/pdf417/PDFScanningDecoder.c **** 
 867:src/pdf417/PDFScanningDecoder.c **** static DecoderResult_t * CreateDecoderResult(DetectionResult_t * detectionResult, const unsigned ch
 868:src/pdf417/PDFScanningDecoder.c **** {
 2385              		.loc 1 868 1
 2386              		.cfi_startproc
 2387 1189 55       		pushl	%ebp
 2388              	LCFI69:
 2389              		.cfi_def_cfa_offset 8
 2390              		.cfi_offset 5, -8
 2391 118a 89E5     		movl	%esp, %ebp
 2392              	LCFI70:
 2393              		.cfi_def_cfa_register 5
 2394 118c 57       		pushl	%edi
 2395 118d 56       		pushl	%esi
 2396 118e 53       		pushl	%ebx
 2397 118f 83EC5C   		subl	$92, %esp
 2398              		.cfi_offset 7, -12
 2399              		.cfi_offset 6, -16
GAS LISTING C:\Users\jisu8\AppData\Local\Temp\ccIqWD58.s 			page 64


 2400              		.cfi_offset 3, -20
 2401              		.loc 1 868 1
 2402 1192 89E0     		movl	%esp, %eax
 2403 1194 8945C4   		movl	%eax, -60(%ebp)
 869:src/pdf417/PDFScanningDecoder.c **** 	BarcodeValue_t * barcodeMatrix = CreateBarcodeMatrix(detectionResult,size);
 2404              		.loc 1 869 35
 2405 1197 8B4510   		movl	16(%ebp), %eax
 2406 119a 89442404 		movl	%eax, 4(%esp)
 2407 119e 8B4508   		movl	8(%ebp), %eax
 2408 11a1 890424   		movl	%eax, (%esp)
 2409 11a4 E80BFDFF 		call	_CreateBarcodeMatrix
 2409      FF
 2410 11a9 8945E4   		movl	%eax, -28(%ebp)
 870:src/pdf417/PDFScanningDecoder.c **** 	if (!AdjustCodewordCount(detectionResult, barcodeMatrix,size)) 
 2411              		.loc 1 870 7
 2412 11ac 8B4510   		movl	16(%ebp), %eax
 2413 11af 89442408 		movl	%eax, 8(%esp)
 2414 11b3 8B45E4   		movl	-28(%ebp), %eax
 2415 11b6 89442404 		movl	%eax, 4(%esp)
 2416 11ba 8B4508   		movl	8(%ebp), %eax
 2417 11bd 890424   		movl	%eax, (%esp)
 2418 11c0 E8A5FFFF 		call	_AdjustCodewordCount
 2418      FF
 2419              		.loc 1 870 5
 2420 11c5 84C0     		testb	%al, %al
 2421 11c7 750A     		jne	L162
 871:src/pdf417/PDFScanningDecoder.c **** 	{
 872:src/pdf417/PDFScanningDecoder.c **** 		return NotFound;
 2422              		.loc 1 872 10
 2423 11c9 B8010000 		movl	$1, %eax
 2423      00
 2424 11ce E9960000 		jmp	L163
 2424      00
 2425              	L162:
 873:src/pdf417/PDFScanningDecoder.c **** 	}
 874:src/pdf417/PDFScanningDecoder.c **** 	
 875:src/pdf417/PDFScanningDecoder.c **** 	int erasures;
 876:src/pdf417/PDFScanningDecoder.c **** 	int codewords[rowCount(&detectionResult->_barcodeMetadata) * columnCount(&detectionResult->_barcod
 2426              		.loc 1 876 16
 2427 11d3 8B4508   		movl	8(%ebp), %eax
 2428 11d6 890424   		movl	%eax, (%esp)
 2429 11d9 E84FF6FF 		call	_rowCount
 2429      FF
 2430 11de 89C3     		movl	%eax, %ebx
 2431              		.loc 1 876 63
 2432 11e0 8B4508   		movl	8(%ebp), %eax
 2433 11e3 890424   		movl	%eax, (%esp)
 2434 11e6 E82DF6FF 		call	_columnCount
 2434      FF
 2435              		.loc 1 876 61
 2436 11eb 0FAFC3   		imull	%ebx, %eax
 2437              		.loc 1 876 6
 2438 11ee 8D50FF   		leal	-1(%eax), %edx
 2439 11f1 8955E0   		movl	%edx, -32(%ebp)
 2440 11f4 8D148500 		leal	0(,%eax,4), %edx
 2440      000000
 2441 11fb B8100000 		movl	$16, %eax
GAS LISTING C:\Users\jisu8\AppData\Local\Temp\ccIqWD58.s 			page 65


 2441      00
 2442 1200 83E801   		subl	$1, %eax
 2443 1203 01D0     		addl	%edx, %eax
 2444 1205 B9100000 		movl	$16, %ecx
 2444      00
 2445 120a BA000000 		movl	$0, %edx
 2445      00
 2446 120f F7F1     		divl	%ecx
 2447 1211 6BC010   		imull	$16, %eax, %eax
 2448 1214 E8000000 		call	___chkstk_ms
 2448      00
 2449 1219 29C4     		subl	%eax, %esp
 2450 121b 8D442418 		leal	24(%esp), %eax
 2451 121f 83C003   		addl	$3, %eax
 2452 1222 C1E802   		shrl	$2, %eax
 2453 1225 C1E002   		sall	$2, %eax
 2454 1228 8945DC   		movl	%eax, -36(%ebp)
 877:src/pdf417/PDFScanningDecoder.c **** 	int ambiguousIndexValues;
 878:src/pdf417/PDFScanningDecoder.c **** 	int ambiguousIndexesList;
 879:src/pdf417/PDFScanningDecoder.c **** 	#if 0
 880:src/pdf417/PDFScanningDecoder.c **** 	for (int row = 0; row < detectionResult.barcodeRowCount(); row++) 
 881:src/pdf417/PDFScanningDecoder.c **** 	{
 882:src/pdf417/PDFScanningDecoder.c **** 		for (int column = 0; column < detectionResult.barcodeColumnCount(); column++) 
 883:src/pdf417/PDFScanningDecoder.c **** 		{
 884:src/pdf417/PDFScanningDecoder.c **** 			auto values = barcodeMatrix[row][column + 1].value();
 885:src/pdf417/PDFScanningDecoder.c **** 			int codewordIndex = row * detectionResult.barcodeColumnCount() + column;
 886:src/pdf417/PDFScanningDecoder.c **** 			if (values.empty()) 
 887:src/pdf417/PDFScanningDecoder.c **** 			{
 888:src/pdf417/PDFScanningDecoder.c **** 				erasures.push_back(codewordIndex);
 889:src/pdf417/PDFScanningDecoder.c **** 			}
 890:src/pdf417/PDFScanningDecoder.c **** 			else if (values.size() == 1) 
 891:src/pdf417/PDFScanningDecoder.c **** 			{
 892:src/pdf417/PDFScanningDecoder.c **** 				codewords[codewordIndex] = values[0];
 893:src/pdf417/PDFScanningDecoder.c **** 			}
 894:src/pdf417/PDFScanningDecoder.c **** 			else 
 895:src/pdf417/PDFScanningDecoder.c **** 			{
 896:src/pdf417/PDFScanningDecoder.c **** 				ambiguousIndexesList.push_back(codewordIndex);
 897:src/pdf417/PDFScanningDecoder.c **** 				ambiguousIndexValues.push_back(values);
 898:src/pdf417/PDFScanningDecoder.c **** 			}
 899:src/pdf417/PDFScanningDecoder.c **** 		}
 900:src/pdf417/PDFScanningDecoder.c **** 	}
 901:src/pdf417/PDFScanningDecoder.c **** 	#endif
 902:src/pdf417/PDFScanningDecoder.c **** 	return CreateDecoderResultFromAmbiguousValues(errorCorrectionLevel(&detectionResult->_barcodeMetad
 2455              		.loc 1 902 9
 2456 122b 8B45D8   		movl	-40(%ebp), %eax
 2457 122e 8945C0   		movl	%eax, -64(%ebp)
 2458 1231 8B7DD4   		movl	-44(%ebp), %edi
 2459 1234 8B75D0   		movl	-48(%ebp), %esi
 2460 1237 8B5DDC   		movl	-36(%ebp), %ebx
 2461 123a 8B4508   		movl	8(%ebp), %eax
 2462 123d 890424   		movl	%eax, (%esp)
 2463 1240 E8DDF5FF 		call	_errorCorrectionLevel
 2463      FF
 2464 1245 89C2     		movl	%eax, %edx
 2465 1247 8B450C   		movl	12(%ebp), %eax
 2466 124a 89442414 		movl	%eax, 20(%esp)
 2467 124e 8B45C0   		movl	-64(%ebp), %eax
GAS LISTING C:\Users\jisu8\AppData\Local\Temp\ccIqWD58.s 			page 66


 2468 1251 89442410 		movl	%eax, 16(%esp)
 2469 1255 897C240C 		movl	%edi, 12(%esp)
 2470 1259 89742408 		movl	%esi, 8(%esp)
 2471 125d 895C2404 		movl	%ebx, 4(%esp)
 2472 1261 891424   		movl	%edx, (%esp)
 2473 1264 E81AFFFF 		call	_CreateDecoderResultFromAmbiguousValues
 2473      FF
 2474              	L163:
 2475 1269 8B65C4   		movl	-60(%ebp), %esp
 903:src/pdf417/PDFScanningDecoder.c **** 												  ambiguousIndexesList, ambiguousIndexValues, characterSet);
 904:src/pdf417/PDFScanningDecoder.c **** }
 2476              		.loc 1 904 1
 2477 126c 8D65F4   		leal	-12(%ebp), %esp
 2478 126f 5B       		popl	%ebx
 2479              		.cfi_restore 3
 2480 1270 5E       		popl	%esi
 2481              		.cfi_restore 6
 2482 1271 5F       		popl	%edi
 2483              		.cfi_restore 7
 2484 1272 5D       		popl	%ebp
 2485              	LCFI71:
 2486              		.cfi_restore 5
 2487              		.cfi_def_cfa 4, 4
 2488 1273 C3       		ret
 2489              		.cfi_endproc
 2490              	LFE28:
 2491              		.globl	_Decode
 2493              	_Decode:
 2494              	LFB29:
 905:src/pdf417/PDFScanningDecoder.c **** 
 906:src/pdf417/PDFScanningDecoder.c **** 
 907:src/pdf417/PDFScanningDecoder.c **** // TODO don't pass in minCodewordWidth and maxCodewordWidth, pass in barcode columns for start and 
 908:src/pdf417/PDFScanningDecoder.c **** // columns. That way width can be deducted from the pattern column.
 909:src/pdf417/PDFScanningDecoder.c **** // This approach also allows to detect more details about the barcode, e.g. if a bar type (white or
 910:src/pdf417/PDFScanningDecoder.c **** // than it should be. This can happen if the scanner used a bad blackpoint.
 911:src/pdf417/PDFScanningDecoder.c **** DecoderResult_t * Decode(const BitMatrix_t * image, ResultPoint_t imageTopLeft, ResultPoint_t image
 912:src/pdf417/PDFScanningDecoder.c **** 	ResultPoint_t imageTopRight, ResultPoint_t imageBottomRight,
 913:src/pdf417/PDFScanningDecoder.c **** 	int minCodewordWidth, int maxCodewordWidth, const unsigned char * characterSet)
 914:src/pdf417/PDFScanningDecoder.c **** {
 2495              		.loc 1 914 1
 2496              		.cfi_startproc
 2497 1274 55       		pushl	%ebp
 2498              	LCFI72:
 2499              		.cfi_def_cfa_offset 8
 2500              		.cfi_offset 5, -8
 2501 1275 89E5     		movl	%esp, %ebp
 2502              	LCFI73:
 2503              		.cfi_def_cfa_register 5
 2504 1277 57       		pushl	%edi
 2505 1278 56       		pushl	%esi
 2506 1279 53       		pushl	%ebx
 2507 127a B8DCCF12 		movl	$1232860, %eax
 2507      00
 2508 127f E8000000 		call	___chkstk_ms
 2508      00
 2509 1284 29C4     		subl	%eax, %esp
 2510              		.cfi_offset 7, -12
GAS LISTING C:\Users\jisu8\AppData\Local\Temp\ccIqWD58.s 			page 67


 2511              		.cfi_offset 6, -16
 2512              		.cfi_offset 3, -20
 915:src/pdf417/PDFScanningDecoder.c **** 	BoundingBox_t boundingBox;
 916:src/pdf417/PDFScanningDecoder.c **** 	if (!Create(image->_width, image->_height, imageTopLeft, imageBottomLeft, imageTopRight, imageBott
 2513              		.loc 1 916 7
 2514 1286 8B4508   		movl	8(%ebp), %eax
 2515 1289 8B5004   		movl	4(%eax), %edx
 2516 128c 8B4508   		movl	8(%ebp), %eax
 2517 128f 8B00     		movl	(%eax), %eax
 2518 1291 8D8D70FF 		leal	-144(%ebp), %ecx
 2518      FFFF
 2519 1297 894C2438 		movl	%ecx, 56(%esp)
 2520 129b 8B4D30   		movl	48(%ebp), %ecx
 2521 129e 894C242C 		movl	%ecx, 44(%esp)
 2522 12a2 8B4D34   		movl	52(%ebp), %ecx
 2523 12a5 894C2430 		movl	%ecx, 48(%esp)
 2524 12a9 8B4D38   		movl	56(%ebp), %ecx
 2525 12ac 894C2434 		movl	%ecx, 52(%esp)
 2526 12b0 8B4D24   		movl	36(%ebp), %ecx
 2527 12b3 894C2420 		movl	%ecx, 32(%esp)
 2528 12b7 8B4D28   		movl	40(%ebp), %ecx
 2529 12ba 894C2424 		movl	%ecx, 36(%esp)
 2530 12be 8B4D2C   		movl	44(%ebp), %ecx
 2531 12c1 894C2428 		movl	%ecx, 40(%esp)
 2532 12c5 8B4D18   		movl	24(%ebp), %ecx
 2533 12c8 894C2414 		movl	%ecx, 20(%esp)
 2534 12cc 8B4D1C   		movl	28(%ebp), %ecx
 2535 12cf 894C2418 		movl	%ecx, 24(%esp)
 2536 12d3 8B4D20   		movl	32(%ebp), %ecx
 2537 12d6 894C241C 		movl	%ecx, 28(%esp)
 2538 12da 8B4D0C   		movl	12(%ebp), %ecx
 2539 12dd 894C2408 		movl	%ecx, 8(%esp)
 2540 12e1 8B4D10   		movl	16(%ebp), %ecx
 2541 12e4 894C240C 		movl	%ecx, 12(%esp)
 2542 12e8 8B4D14   		movl	20(%ebp), %ecx
 2543 12eb 894C2410 		movl	%ecx, 16(%esp)
 2544 12ef 89542404 		movl	%edx, 4(%esp)
 2545 12f3 890424   		movl	%eax, (%esp)
 2546 12f6 E8000000 		call	_Create
 2546      00
 2547              		.loc 1 916 5
 2548 12fb 84C0     		testb	%al, %al
 2549 12fd 750A     		jne	L166
 917:src/pdf417/PDFScanningDecoder.c **** 	{
 918:src/pdf417/PDFScanningDecoder.c **** 		return NotFound;
 2550              		.loc 1 918 10
 2551 12ff B8010000 		movl	$1, %eax
 2551      00
 2552 1304 E9CD0300 		jmp	L194
 2552      00
 2553              	L166:
 919:src/pdf417/PDFScanningDecoder.c **** 	}
 920:src/pdf417/PDFScanningDecoder.c **** 	int length = 0;
 2554              		.loc 1 920 6
 2555 1309 C745E400 		movl	$0, -28(%ebp)
 2555      000000
 2556              	LBB20:
GAS LISTING C:\Users\jisu8\AppData\Local\Temp\ccIqWD58.s 			page 68


 921:src/pdf417/PDFScanningDecoder.c **** 
 922:src/pdf417/PDFScanningDecoder.c **** 	DetectionResultColumn_t leftRowIndicatorColumn;
 923:src/pdf417/PDFScanningDecoder.c **** 	DetectionResultColumn_t rightRowIndicatorColumn;
 924:src/pdf417/PDFScanningDecoder.c **** 	DetectionResult_t detectionResult;
 925:src/pdf417/PDFScanningDecoder.c **** 	for (int i = 0; i < 2; i++) 
 2557              		.loc 1 925 11
 2558 1310 C745E000 		movl	$0, -32(%ebp)
 2558      000000
 2559              		.loc 1 925 2
 2560 1317 E9260100 		jmp	L168
 2560      00
 2561              	L175:
 926:src/pdf417/PDFScanningDecoder.c **** 	{
 927:src/pdf417/PDFScanningDecoder.c **** 		if (imageTopLeft.m_hasValue != 0) 
 2562              		.loc 1 927 19
 2563 131c 0FB6450C 		movzbl	12(%ebp), %eax
 2564              		.loc 1 927 6
 2565 1320 84C0     		testb	%al, %al
 2566 1322 743F     		je	L169
 928:src/pdf417/PDFScanningDecoder.c **** 		{
 929:src/pdf417/PDFScanningDecoder.c **** 			length = GetRowIndicatorColumn(image, &boundingBox, &imageTopLeft, 1, minCodewordWidth, maxCodew
 2567              		.loc 1 929 13
 2568 1324 8D853CD0 		leal	-12228(%ebp), %eax
 2568      FFFF
 2569 132a 89442418 		movl	%eax, 24(%esp)
 2570 132e 8B4540   		movl	64(%ebp), %eax
 2571 1331 89442414 		movl	%eax, 20(%esp)
 2572 1335 8B453C   		movl	60(%ebp), %eax
 2573 1338 89442410 		movl	%eax, 16(%esp)
 2574 133c C744240C 		movl	$1, 12(%esp)
 2574      01000000 
 2575 1344 8D450C   		leal	12(%ebp), %eax
 2576 1347 89442408 		movl	%eax, 8(%esp)
 2577 134b 8D8570FF 		leal	-144(%ebp), %eax
 2577      FFFF
 2578 1351 89442404 		movl	%eax, 4(%esp)
 2579 1355 8B4508   		movl	8(%ebp), %eax
 2580 1358 890424   		movl	%eax, (%esp)
 2581 135b E811F3FF 		call	_GetRowIndicatorColumn
 2581      FF
 2582 1360 8945E4   		movl	%eax, -28(%ebp)
 2583              	L169:
 930:src/pdf417/PDFScanningDecoder.c **** 		}
 931:src/pdf417/PDFScanningDecoder.c **** 		if (imageTopRight.m_hasValue != 0) 
 2584              		.loc 1 931 20
 2585 1363 0FB64524 		movzbl	36(%ebp), %eax
 2586              		.loc 1 931 6
 2587 1367 84C0     		testb	%al, %al
 2588 1369 743F     		je	L170
 932:src/pdf417/PDFScanningDecoder.c **** 		{
 933:src/pdf417/PDFScanningDecoder.c **** 			length = GetRowIndicatorColumn(image, &boundingBox, &imageTopRight, 0, minCodewordWidth, maxCode
 2589              		.loc 1 933 13
 2590 136b 8D8508A1 		leal	-24312(%ebp), %eax
 2590      FFFF
 2591 1371 89442418 		movl	%eax, 24(%esp)
 2592 1375 8B4540   		movl	64(%ebp), %eax
 2593 1378 89442414 		movl	%eax, 20(%esp)
GAS LISTING C:\Users\jisu8\AppData\Local\Temp\ccIqWD58.s 			page 69


 2594 137c 8B453C   		movl	60(%ebp), %eax
 2595 137f 89442410 		movl	%eax, 16(%esp)
 2596 1383 C744240C 		movl	$0, 12(%esp)
 2596      00000000 
 2597 138b 8D4524   		leal	36(%ebp), %eax
 2598 138e 89442408 		movl	%eax, 8(%esp)
 2599 1392 8D8570FF 		leal	-144(%ebp), %eax
 2599      FFFF
 2600 1398 89442404 		movl	%eax, 4(%esp)
 2601 139c 8B4508   		movl	8(%ebp), %eax
 2602 139f 890424   		movl	%eax, (%esp)
 2603 13a2 E8CAF2FF 		call	_GetRowIndicatorColumn
 2603      FF
 2604 13a7 8945E4   		movl	%eax, -28(%ebp)
 2605              	L170:
 934:src/pdf417/PDFScanningDecoder.c **** 		}
 935:src/pdf417/PDFScanningDecoder.c **** 		if (!Merge(&leftRowIndicatorColumn, &rightRowIndicatorColumn, &detectionResult,length)) 
 2606              		.loc 1 935 8
 2607 13aa 8B45E4   		movl	-28(%ebp), %eax
 2608 13ad 8944240C 		movl	%eax, 12(%esp)
 2609 13b1 8D855C30 		leal	-1232804(%ebp), %eax
 2609      EDFF
 2610 13b7 89442408 		movl	%eax, 8(%esp)
 2611 13bb 8D8508A1 		leal	-24312(%ebp), %eax
 2611      FFFF
 2612 13c1 89442404 		movl	%eax, 4(%esp)
 2613 13c5 8D853CD0 		leal	-12228(%ebp), %eax
 2613      FFFF
 2614 13cb 890424   		movl	%eax, (%esp)
 2615 13ce E81EF8FF 		call	_Merge
 2615      FF
 2616              		.loc 1 935 6
 2617 13d3 84C0     		testb	%al, %al
 2618 13d5 750A     		jne	L171
 936:src/pdf417/PDFScanningDecoder.c **** 		{
 937:src/pdf417/PDFScanningDecoder.c **** 			return NotFound;
 2619              		.loc 1 937 11
 2620 13d7 B8010000 		movl	$1, %eax
 2620      00
 2621 13dc E9F50200 		jmp	L194
 2621      00
 2622              	L171:
 938:src/pdf417/PDFScanningDecoder.c **** 		}
 939:src/pdf417/PDFScanningDecoder.c **** 		if (i == 0 && (detectionResult._boundingBox.m_hasValue != 0) && (detectionResult._boundingBox.m_v
 2623              		.loc 1 939 6
 2624 13e1 837DE000 		cmpl	$0, -32(%ebp)
 2625 13e5 7542     		jne	L172
 2626              		.loc 1 939 46 discriminator 1
 2627 13e7 0FB685BC 		movzbl	-24388(%ebp), %eax
 2627      A0FFFF
 2628              		.loc 1 939 14 discriminator 1
 2629 13ee 84C0     		testb	%al, %al
 2630 13f0 7437     		je	L172
 2631              		.loc 1 939 104 discriminator 2
 2632 13f2 8B9500A1 		movl	-24320(%ebp), %edx
 2632      FFFF
 2633              		.loc 1 939 132 discriminator 2
GAS LISTING C:\Users\jisu8\AppData\Local\Temp\ccIqWD58.s 			page 70


 2634 13f8 8B45B4   		movl	-76(%ebp), %eax
 2635              		.loc 1 939 64 discriminator 2
 2636 13fb 39C2     		cmpl	%eax, %edx
 2637 13fd 7C0D     		jl	L173
 2638              		.loc 1 939 178 discriminator 3
 2639 13ff 8B9504A1 		movl	-24316(%ebp), %edx
 2639      FFFF
 2640              		.loc 1 939 206 discriminator 3
 2641 1405 8B45B8   		movl	-72(%ebp), %eax
 2642              		.loc 1 939 139 discriminator 3
 2643 1408 39C2     		cmpl	%eax, %edx
 2644 140a 7E1D     		jle	L172
 2645              	L173:
 940:src/pdf417/PDFScanningDecoder.c **** 		{
 941:src/pdf417/PDFScanningDecoder.c **** 			boundingBox = detectionResult._boundingBox;
 2646              		.loc 1 941 16
 2647 140c 8D8570FF 		leal	-144(%ebp), %eax
 2647      FFFF
 2648 1412 8D95BCA0 		leal	-24388(%ebp), %edx
 2648      FFFF
 2649 1418 B9130000 		movl	$19, %ecx
 2649      00
 2650 141d 89C7     		movl	%eax, %edi
 2651 141f 89D6     		movl	%edx, %esi
 2652 1421 F3A5     		rep movsl
 925:src/pdf417/PDFScanningDecoder.c **** 	{
 2653              		.loc 1 925 26
 2654 1423 8345E001 		addl	$1, -32(%ebp)
 2655 1427 EB19     		jmp	L168
 2656              	L172:
 942:src/pdf417/PDFScanningDecoder.c **** 		}
 943:src/pdf417/PDFScanningDecoder.c **** 		else 
 944:src/pdf417/PDFScanningDecoder.c **** 		{
 945:src/pdf417/PDFScanningDecoder.c **** 			detectionResult._boundingBox = boundingBox;
 2657              		.loc 1 945 33
 2658 1429 8D85BCA0 		leal	-24388(%ebp), %eax
 2658      FFFF
 2659 142f 8D9570FF 		leal	-144(%ebp), %edx
 2659      FFFF
 2660 1435 B9130000 		movl	$19, %ecx
 2660      00
 2661 143a 89C7     		movl	%eax, %edi
 2662 143c 89D6     		movl	%edx, %esi
 2663 143e F3A5     		rep movsl
 946:src/pdf417/PDFScanningDecoder.c **** 			break;
 2664              		.loc 1 946 4
 2665 1440 EB0A     		jmp	L174
 2666              	L168:
 925:src/pdf417/PDFScanningDecoder.c **** 	{
 2667              		.loc 1 925 2 discriminator 1
 2668 1442 837DE001 		cmpl	$1, -32(%ebp)
 2669 1446 0F8ED0FE 		jle	L175
 2669      FFFF
 2670              	L174:
 2671              	LBE20:
 947:src/pdf417/PDFScanningDecoder.c **** 		}
 948:src/pdf417/PDFScanningDecoder.c **** 	}
GAS LISTING C:\Users\jisu8\AppData\Local\Temp\ccIqWD58.s 			page 71


 949:src/pdf417/PDFScanningDecoder.c **** 
 950:src/pdf417/PDFScanningDecoder.c **** 	int maxBarcodeColumn = detectionResult._barcodeMetadata._columnCount + 1;
 2672              		.loc 1 950 57
 2673 144c 8B855C30 		movl	-1232804(%ebp), %eax
 2673      EDFF
 2674              		.loc 1 950 6
 2675 1452 83C001   		addl	$1, %eax
 2676 1455 8945C8   		movl	%eax, -56(%ebp)
 951:src/pdf417/PDFScanningDecoder.c **** 	detectionResult._detectionResultColumns[0] = leftRowIndicatorColumn;
 2677              		.loc 1 951 45
 2678 1458 8D856C30 		leal	-1232788(%ebp), %eax
 2678      EDFF
 2679 145e 8D953CD0 		leal	-12228(%ebp), %edx
 2679      FFFF
 2680 1464 B9342F00 		movl	$12084, %ecx
 2680      00
 2681 1469 894C2408 		movl	%ecx, 8(%esp)
 2682 146d 89542404 		movl	%edx, 4(%esp)
 2683 1471 890424   		movl	%eax, (%esp)
 2684 1474 E8000000 		call	_memcpy
 2684      00
 952:src/pdf417/PDFScanningDecoder.c **** 	detectionResult._detectionResultColumns[maxBarcodeColumn] = rightRowIndicatorColumn;
 2685              		.loc 1 952 60
 2686 1479 8B45C8   		movl	-56(%ebp), %eax
 2687 147c 69C0342F 		imull	$12084, %eax, %eax
 2687      0000
 2688 1482 8D75E8   		leal	-24(%ebp), %esi
 2689 1485 01F0     		addl	%esi, %eax
 2690 1487 2D7CCF12 		subl	$1232764, %eax
 2690      00
 2691 148c 89C2     		movl	%eax, %edx
 2692 148e 8D8508A1 		leal	-24312(%ebp), %eax
 2692      FFFF
 2693 1494 B9342F00 		movl	$12084, %ecx
 2693      00
 2694 1499 894C2408 		movl	%ecx, 8(%esp)
 2695 149d 89442404 		movl	%eax, 4(%esp)
 2696 14a1 891424   		movl	%edx, (%esp)
 2697 14a4 E8000000 		call	_memcpy
 2697      00
 953:src/pdf417/PDFScanningDecoder.c **** 
 954:src/pdf417/PDFScanningDecoder.c **** 	uint8_t leftToRight;
 955:src/pdf417/PDFScanningDecoder.c **** 
 956:src/pdf417/PDFScanningDecoder.c **** 	if(leftRowIndicatorColumn.m_hasValue != 0)
 2698              		.loc 1 956 27
 2699 14a9 0FB6853C 		movzbl	-12228(%ebp), %eax
 2699      D0FFFF
 2700              		.loc 1 956 4
 2701 14b0 84C0     		testb	%al, %al
 2702 14b2 7406     		je	L176
 957:src/pdf417/PDFScanningDecoder.c **** 	{
 958:src/pdf417/PDFScanningDecoder.c **** 		leftToRight = 1;
 2703              		.loc 1 958 15
 2704 14b4 C645DF01 		movb	$1, -33(%ebp)
 2705 14b8 EB04     		jmp	L177
 2706              	L176:
 959:src/pdf417/PDFScanningDecoder.c **** 	}
GAS LISTING C:\Users\jisu8\AppData\Local\Temp\ccIqWD58.s 			page 72


 960:src/pdf417/PDFScanningDecoder.c **** 	else
 961:src/pdf417/PDFScanningDecoder.c **** 	{
 962:src/pdf417/PDFScanningDecoder.c **** 		leftToRight = 0;
 2707              		.loc 1 962 15
 2708 14ba C645DF00 		movb	$0, -33(%ebp)
 2709              	L177:
 2710              	LBB21:
 963:src/pdf417/PDFScanningDecoder.c **** 	}
 964:src/pdf417/PDFScanningDecoder.c **** 
 965:src/pdf417/PDFScanningDecoder.c **** 	for (int barcodeColumnCount = 1; barcodeColumnCount <= maxBarcodeColumn; barcodeColumnCount++) 
 2711              		.loc 1 965 11
 2712 14be C745D801 		movl	$1, -40(%ebp)
 2712      000000
 2713              		.loc 1 965 2
 2714 14c5 E9E40100 		jmp	L178
 2714      00
 2715              	L193:
 2716              	LBB22:
 966:src/pdf417/PDFScanningDecoder.c **** 	{
 967:src/pdf417/PDFScanningDecoder.c **** 		int barcodeColumn = leftToRight ? barcodeColumnCount : maxBarcodeColumn - barcodeColumnCount;
 2717              		.loc 1 967 56
 2718 14ca 807DDF00 		cmpb	$0, -33(%ebp)
 2719 14ce 7508     		jne	L179
 2720              		.loc 1 967 56 is_stmt 0 discriminator 1
 2721 14d0 8B45C8   		movl	-56(%ebp), %eax
 2722 14d3 2B45D8   		subl	-40(%ebp), %eax
 2723 14d6 EB03     		jmp	L180
 2724              	L179:
 2725              		.loc 1 967 56 discriminator 2
 2726 14d8 8B45D8   		movl	-40(%ebp), %eax
 2727              	L180:
 2728              		.loc 1 967 7 is_stmt 1 discriminator 4
 2729 14db 8945C4   		movl	%eax, -60(%ebp)
 968:src/pdf417/PDFScanningDecoder.c **** 		if (detectionResult._detectionResultColumns[barcodeColumn].m_hasValue != 0) 
 2730              		.loc 1 968 61 discriminator 4
 2731 14de 8B45C4   		movl	-60(%ebp), %eax
 2732 14e1 69C0342F 		imull	$12084, %eax, %eax
 2732      0000
 2733 14e7 8D7DE8   		leal	-24(%ebp), %edi
 2734 14ea 01F8     		addl	%edi, %eax
 2735 14ec 2D7CCF12 		subl	$1232764, %eax
 2735      00
 2736 14f1 0FB600   		movzbl	(%eax), %eax
 2737              		.loc 1 968 6 discriminator 4
 2738 14f4 84C0     		testb	%al, %al
 2739 14f6 0F85AD01 		jne	L195
 2739      0000
 969:src/pdf417/PDFScanningDecoder.c **** 		{
 970:src/pdf417/PDFScanningDecoder.c **** 			// This will be the case for the opposite row indicator column, which doesn't need to be decoded
 971:src/pdf417/PDFScanningDecoder.c **** 			continue;
 972:src/pdf417/PDFScanningDecoder.c **** 		}
 973:src/pdf417/PDFScanningDecoder.c **** 		RowIndicator_t rowIndicator = barcodeColumn == 0 ? Left : (barcodeColumn == maxBarcodeColumn ? Ri
 2740              		.loc 1 973 59
 2741 14fc 837DC400 		cmpl	$0, -60(%ebp)
 2742 1500 7416     		je	L183
 2743              		.loc 1 973 59 is_stmt 0 discriminator 1
 2744 1502 8B45C4   		movl	-60(%ebp), %eax
GAS LISTING C:\Users\jisu8\AppData\Local\Temp\ccIqWD58.s 			page 73


 2745 1505 3B45C8   		cmpl	-56(%ebp), %eax
 2746 1508 7507     		jne	L184
 2747              		.loc 1 973 59 discriminator 3
 2748 150a B8020000 		movl	$2, %eax
 2748      00
 2749 150f EB0C     		jmp	L186
 2750              	L184:
 2751              		.loc 1 973 59 discriminator 4
 2752 1511 B8000000 		movl	$0, %eax
 2752      00
 2753 1516 EB05     		jmp	L186
 2754              	L183:
 2755              		.loc 1 973 59 discriminator 2
 2756 1518 B8010000 		movl	$1, %eax
 2756      00
 2757              	L186:
 2758              		.loc 1 973 18 is_stmt 1 discriminator 8
 2759 151d 8945C0   		movl	%eax, -64(%ebp)
 974:src/pdf417/PDFScanningDecoder.c **** 		DetectionResultColumn(&boundingBox, rowIndicator,&(detectionResult._detectionResultColumns[barcod
 2760              		.loc 1 974 3 discriminator 8
 2761 1520 8D855C30 		leal	-1232804(%ebp), %eax
 2761      EDFF
 2762 1526 8B55C4   		movl	-60(%ebp), %edx
 2763 1529 69D2342F 		imull	$12084, %edx, %edx
 2763      0000
 2764 152f 83C210   		addl	$16, %edx
 2765 1532 01D0     		addl	%edx, %eax
 2766 1534 89442408 		movl	%eax, 8(%esp)
 2767 1538 8B45C0   		movl	-64(%ebp), %eax
 2768 153b 89442404 		movl	%eax, 4(%esp)
 2769 153f 8D8570FF 		leal	-144(%ebp), %eax
 2769      FFFF
 2770 1545 890424   		movl	%eax, (%esp)
 2771 1548 E8000000 		call	_DetectionResultColumn
 2771      00
 975:src/pdf417/PDFScanningDecoder.c **** 		int startColumn = -1;
 2772              		.loc 1 975 7 discriminator 8
 2773 154d C745D4FF 		movl	$-1, -44(%ebp)
 2773      FFFFFF
 976:src/pdf417/PDFScanningDecoder.c **** 		int previousStartColumn = startColumn;
 2774              		.loc 1 976 7 discriminator 8
 2775 1554 8B45D4   		movl	-44(%ebp), %eax
 2776 1557 8945D0   		movl	%eax, -48(%ebp)
 2777              	LBB23:
 977:src/pdf417/PDFScanningDecoder.c **** 		// TODO start at a row for which we know the start position, then detect upwards and downwards fr
 978:src/pdf417/PDFScanningDecoder.c **** 		for (int imageRow = boundingBox.m_value._minY; imageRow <= boundingBox.m_value._maxY; imageRow++)
 2778              		.loc 1 978 12 discriminator 8
 2779 155a 8B45B4   		movl	-76(%ebp), %eax
 2780 155d 8945CC   		movl	%eax, -52(%ebp)
 2781              		.loc 1 978 3 discriminator 8
 2782 1560 E9360100 		jmp	L187
 2782      00
 2783              	L192:
 2784              	LBB24:
 979:src/pdf417/PDFScanningDecoder.c **** 		{
 980:src/pdf417/PDFScanningDecoder.c **** 			startColumn = GetStartColumn(&detectionResult, barcodeColumn, imageRow, leftToRight,length);
 2785              		.loc 1 980 18
GAS LISTING C:\Users\jisu8\AppData\Local\Temp\ccIqWD58.s 			page 74


 2786 1565 0FB645DF 		movzbl	-33(%ebp), %eax
 2787 1569 8B55E4   		movl	-28(%ebp), %edx
 2788 156c 89542410 		movl	%edx, 16(%esp)
 2789 1570 8944240C 		movl	%eax, 12(%esp)
 2790 1574 8B45CC   		movl	-52(%ebp), %eax
 2791 1577 89442408 		movl	%eax, 8(%esp)
 2792 157b 8B45C4   		movl	-60(%ebp), %eax
 2793 157e 89442404 		movl	%eax, 4(%esp)
 2794 1582 8D855C30 		leal	-1232804(%ebp), %eax
 2794      EDFF
 2795 1588 890424   		movl	%eax, (%esp)
 2796 158b E85BF7FF 		call	_GetStartColumn
 2796      FF
 2797 1590 8945D4   		movl	%eax, -44(%ebp)
 981:src/pdf417/PDFScanningDecoder.c **** 			if (startColumn < 0 || startColumn > boundingBox.m_value._maxX) 
 2798              		.loc 1 981 7
 2799 1593 837DD400 		cmpl	$0, -44(%ebp)
 2800 1597 7808     		js	L188
 2801              		.loc 1 981 60 discriminator 1
 2802 1599 8B45B0   		movl	-80(%ebp), %eax
 2803              		.loc 1 981 24 discriminator 1
 2804 159c 3945D4   		cmpl	%eax, -44(%ebp)
 2805 159f 7E10     		jle	L189
 2806              	L188:
 982:src/pdf417/PDFScanningDecoder.c **** 			{
 983:src/pdf417/PDFScanningDecoder.c **** 				if (previousStartColumn == -1) 
 2807              		.loc 1 983 8
 2808 15a1 837DD0FF 		cmpl	$-1, -48(%ebp)
 2809 15a5 0F84EB00 		je	L196
 2809      0000
 984:src/pdf417/PDFScanningDecoder.c **** 				{
 985:src/pdf417/PDFScanningDecoder.c **** 					continue;
 986:src/pdf417/PDFScanningDecoder.c **** 				}
 987:src/pdf417/PDFScanningDecoder.c **** 				startColumn = previousStartColumn;
 2810              		.loc 1 987 17
 2811 15ab 8B45D0   		movl	-48(%ebp), %eax
 2812 15ae 8945D4   		movl	%eax, -44(%ebp)
 2813              	L189:
 988:src/pdf417/PDFScanningDecoder.c **** 			}
 989:src/pdf417/PDFScanningDecoder.c **** 			Codeword_t * codeword = DetectCodeword(image, boundingBox.m_value._minX, boundingBox.m_value._ma
 2814              		.loc 1 989 28
 2815 15b1 0FB64DDF 		movzbl	-33(%ebp), %ecx
 2816 15b5 8B55B0   		movl	-80(%ebp), %edx
 2817 15b8 8B45AC   		movl	-84(%ebp), %eax
 2818 15bb 8B5D40   		movl	64(%ebp), %ebx
 2819 15be 895C241C 		movl	%ebx, 28(%esp)
 2820 15c2 8B5D3C   		movl	60(%ebp), %ebx
 2821 15c5 895C2418 		movl	%ebx, 24(%esp)
 2822 15c9 8B5DCC   		movl	-52(%ebp), %ebx
 2823 15cc 895C2414 		movl	%ebx, 20(%esp)
 2824 15d0 8B5DD4   		movl	-44(%ebp), %ebx
 2825 15d3 895C2410 		movl	%ebx, 16(%esp)
 2826 15d7 894C240C 		movl	%ecx, 12(%esp)
 2827 15db 89542408 		movl	%edx, 8(%esp)
 2828 15df 89442404 		movl	%eax, 4(%esp)
 2829 15e3 8B4508   		movl	8(%ebp), %eax
 2830 15e6 890424   		movl	%eax, (%esp)
GAS LISTING C:\Users\jisu8\AppData\Local\Temp\ccIqWD58.s 			page 75


 2831 15e9 E876EDFF 		call	_DetectCodeword
 2831      FF
 2832 15ee 8945BC   		movl	%eax, -68(%ebp)
 990:src/pdf417/PDFScanningDecoder.c **** 			if (codeword != NULL) 
 2833              		.loc 1 990 7
 2834 15f1 837DBC00 		cmpl	$0, -68(%ebp)
 2835 15f5 0F849C00 		je	L191
 2835      0000
 991:src/pdf417/PDFScanningDecoder.c **** 			{
 992:src/pdf417/PDFScanningDecoder.c **** 				detectionResult._detectionResultColumns[barcodeColumn].m_value._codewords[imageRow - detectionR
 2836              		.loc 1 992 173
 2837 15fb 8B45C4   		movl	-60(%ebp), %eax
 2838 15fe 69C0342F 		imull	$12084, %eax, %eax
 2838      0000
 2839 1604 8D75E8   		leal	-24(%ebp), %esi
 2840 1607 01F0     		addl	%esi, %eax
 2841 1609 2D34CF12 		subl	$1232692, %eax
 2841      00
 2842 160e 8B00     		movl	(%eax), %eax
 2843              		.loc 1 992 88
 2844 1610 8B55CC   		movl	-52(%ebp), %edx
 2845 1613 29C2     		subl	%eax, %edx
 2846              		.loc 1 992 181
 2847 1615 8B4DC4   		movl	-60(%ebp), %ecx
 2848 1618 89D0     		movl	%edx, %eax
 2849 161a 01C0     		addl	%eax, %eax
 2850 161c 01D0     		addl	%edx, %eax
 2851 161e C1E003   		sall	$3, %eax
 2852 1621 69D1342F 		imull	$12084, %ecx, %edx
 2852      0000
 2853 1627 01D0     		addl	%edx, %eax
 2854 1629 8D7DE8   		leal	-24(%ebp), %edi
 2855 162c 01F8     		addl	%edi, %eax
 2856 162e 8D90C430 		leal	-1232700(%eax), %edx
 2856      EDFF
 2857 1634 8B45BC   		movl	-68(%ebp), %eax
 2858 1637 8B08     		movl	(%eax), %ecx
 2859 1639 894A10   		movl	%ecx, 16(%edx)
 2860 163c 8B4804   		movl	4(%eax), %ecx
 2861 163f 894A14   		movl	%ecx, 20(%edx)
 2862 1642 8B4808   		movl	8(%eax), %ecx
 2863 1645 894A18   		movl	%ecx, 24(%edx)
 2864 1648 8B480C   		movl	12(%eax), %ecx
 2865 164b 894A1C   		movl	%ecx, 28(%edx)
 2866 164e 8B4810   		movl	16(%eax), %ecx
 2867 1651 894A20   		movl	%ecx, 32(%edx)
 2868 1654 8B4014   		movl	20(%eax), %eax
 2869 1657 894224   		movl	%eax, 36(%edx)
 993:src/pdf417/PDFScanningDecoder.c **** 				previousStartColumn = startColumn;
 2870              		.loc 1 993 25
 2871 165a 8B45D4   		movl	-44(%ebp), %eax
 2872 165d 8945D0   		movl	%eax, -48(%ebp)
 994:src/pdf417/PDFScanningDecoder.c **** 				minCodewordWidth = __min(minCodewordWidth, (codeword->m_value._endX - codeword->m_value._startX
 2873              		.loc 1 994 24
 2874 1660 8B45BC   		movl	-68(%ebp), %eax
 2875 1663 8B5008   		movl	8(%eax), %edx
 2876 1666 8B45BC   		movl	-68(%ebp), %eax
GAS LISTING C:\Users\jisu8\AppData\Local\Temp\ccIqWD58.s 			page 76


 2877 1669 8B4004   		movl	4(%eax), %eax
 2878 166c 29C2     		subl	%eax, %edx
 2879 166e 89D0     		movl	%edx, %eax
 2880              		.loc 1 994 22
 2881 1670 39453C   		cmpl	%eax, 60(%ebp)
 2882 1673 0F4E453C 		cmovle	60(%ebp), %eax
 2883 1677 89453C   		movl	%eax, 60(%ebp)
 995:src/pdf417/PDFScanningDecoder.c **** 				maxCodewordWidth = __max(maxCodewordWidth, (codeword->m_value._endX - codeword->m_value._startX
 2884              		.loc 1 995 24
 2885 167a 8B45BC   		movl	-68(%ebp), %eax
 2886 167d 8B5008   		movl	8(%eax), %edx
 2887 1680 8B45BC   		movl	-68(%ebp), %eax
 2888 1683 8B4004   		movl	4(%eax), %eax
 2889 1686 29C2     		subl	%eax, %edx
 2890 1688 89D0     		movl	%edx, %eax
 2891              		.loc 1 995 22
 2892 168a 394540   		cmpl	%eax, 64(%ebp)
 2893 168d 0F4D4540 		cmovge	64(%ebp), %eax
 2894 1691 894540   		movl	%eax, 64(%ebp)
 2895 1694 EB01     		jmp	L191
 2896              	L196:
 985:src/pdf417/PDFScanningDecoder.c **** 				}
 2897              		.loc 1 985 6
 2898 1696 90       		nop
 2899              	L191:
 2900              	LBE24:
 978:src/pdf417/PDFScanningDecoder.c **** 		{
 2901              		.loc 1 978 97 discriminator 2
 2902 1697 8345CC01 		addl	$1, -52(%ebp)
 2903              	L187:
 978:src/pdf417/PDFScanningDecoder.c **** 		{
 2904              		.loc 1 978 81 discriminator 1
 2905 169b 8B45B8   		movl	-72(%ebp), %eax
 978:src/pdf417/PDFScanningDecoder.c **** 		{
 2906              		.loc 1 978 3 discriminator 1
 2907 169e 3945CC   		cmpl	%eax, -52(%ebp)
 2908 16a1 0F8EBEFE 		jle	L192
 2908      FFFF
 2909 16a7 EB01     		jmp	L182
 2910              	L195:
 2911              	LBE23:
 971:src/pdf417/PDFScanningDecoder.c **** 		}
 2912              		.loc 1 971 4
 2913 16a9 90       		nop
 2914              	L182:
 2915              	LBE22:
 965:src/pdf417/PDFScanningDecoder.c **** 	{
 2916              		.loc 1 965 93 discriminator 2
 2917 16aa 8345D801 		addl	$1, -40(%ebp)
 2918              	L178:
 965:src/pdf417/PDFScanningDecoder.c **** 	{
 2919              		.loc 1 965 2 discriminator 1
 2920 16ae 8B45D8   		movl	-40(%ebp), %eax
 2921 16b1 3B45C8   		cmpl	-56(%ebp), %eax
 2922 16b4 0F8E10FE 		jle	L193
 2922      FFFF
 2923              	LBE21:
GAS LISTING C:\Users\jisu8\AppData\Local\Temp\ccIqWD58.s 			page 77


 996:src/pdf417/PDFScanningDecoder.c **** 			}
 997:src/pdf417/PDFScanningDecoder.c **** 		}
 998:src/pdf417/PDFScanningDecoder.c **** 	}
 999:src/pdf417/PDFScanningDecoder.c **** 	return CreateDecoderResult(&detectionResult, characterSet,length);
 2924              		.loc 1 999 9
 2925 16ba 8B45E4   		movl	-28(%ebp), %eax
 2926 16bd 89442408 		movl	%eax, 8(%esp)
 2927 16c1 8B4544   		movl	68(%ebp), %eax
 2928 16c4 89442404 		movl	%eax, 4(%esp)
 2929 16c8 8D855C30 		leal	-1232804(%ebp), %eax
 2929      EDFF
 2930 16ce 890424   		movl	%eax, (%esp)
 2931 16d1 E8B3FAFF 		call	_CreateDecoderResult
 2931      FF
 2932              	L194:
1000:src/pdf417/PDFScanningDecoder.c **** }
 2933              		.loc 1 1000 1 discriminator 1
 2934 16d6 81C4DCCF 		addl	$1232860, %esp
 2934      1200
 2935 16dc 5B       		popl	%ebx
 2936              		.cfi_restore 3
 2937 16dd 5E       		popl	%esi
 2938              		.cfi_restore 6
 2939 16de 5F       		popl	%edi
 2940              		.cfi_restore 7
 2941 16df 5D       		popl	%ebp
 2942              	LCFI74:
 2943              		.cfi_restore 5
 2944              		.cfi_def_cfa 4, 4
 2945 16e0 C3       		ret
 2946              		.cfi_endproc
 2947              	LFE29:
 2948              	Letext0:
 2949              		.file 2 "src/StructuredAppend.h"
 2950              		.file 3 "src/decodestatus.h"
 2951              		.file 4 "D:/3.tools/mingw/mingw32/i686-w64-mingw32/include/crtdefs.h"
 2952              		.file 5 "D:/3.tools/mingw/mingw32/i686-w64-mingw32/include/stdint.h"
 2953              		.file 6 "src/DecoderResult.h"
 2954              		.file 7 "src/BitMatrix.h"
 2955              		.file 8 "src/ResultPoint.h"
 2956              		.file 9 "src/pdf417/PDFBoundingBox.h"
 2957              		.file 10 "src/pdf417/PDFCodeword.h"
 2958              		.file 11 "src/pdf417/PDFBarcodeMetadata.h"
 2959              		.file 12 "src/pdf417/PDFDetectionResultColumn.h"
 2960              		.file 13 "src/pdf417/PDFDetectionResult.h"
 2961              		.file 14 "src/pdf417/PDFScanningDecoder.h"
 2962              		.file 15 "src/pdf417/PDFCodewordDecoder.h"
 2963              		.file 16 "src/pdf417/PDFBarcodeValue.h"
 2964              		.file 17 "D:/3.tools/mingw/mingw32/i686-w64-mingw32/include/stdlib.h"
 2965              		.file 18 "D:/3.tools/mingw/mingw32/i686-w64-mingw32/include/malloc.h"
 2966              		.file 19 "<built-in>"
 2967 16e1 909090   		.section	.debug_info,"dr"
 2968              	Ldebug_info0:
 2969 0000 901E0000 		.long	0x1e90
 2970 0004 0200     		.word	0x2
 2971 0006 00000000 		.secrel32	Ldebug_abbrev0
 2972 000a 04       		.byte	0x4
GAS LISTING C:\Users\jisu8\AppData\Local\Temp\ccIqWD58.s 			page 78


 2973 000b 01       		.uleb128 0x1
 2974 000c 474E5520 		.ascii "GNU C17 8.1.0 -mtune=generic -march=i686 -g -gdwarf-2 -O0\0"
 2974      43313720 
 2974      382E312E 
 2974      30202D6D 
 2974      74756E65 
 2975 0046 0C       		.byte	0xc
 2976 0047 7372632F 		.ascii "src/pdf417/PDFScanningDecoder.c\0"
 2976      70646634 
 2976      31372F50 
 2976      44465363 
 2976      616E6E69 
 2977 0067 443A5C31 		.ascii "D:\\1.Project_workspace\\PDF_BARCODE\0"
 2977      2E50726F 
 2977      6A656374 
 2977      5F776F72 
 2977      6B737061 
 2978 008a 00000000 		.long	Ltext0
 2979 008e E1160000 		.long	Letext0
 2980 0092 00000000 		.secrel32	Ldebug_line0
 2981 0096 02       		.uleb128 0x2
 2982 0097 07       		.byte	0x7
 2983 0098 04       		.byte	0x4
 2984 0099 D8000000 		.long	0xd8
 2985 009d 03       		.byte	0x3
 2986 009e 04       		.byte	0x4
 2987 009f 01       		.byte	0x1
 2988 00a0 D8000000 		.long	0xd8
 2989 00a4 03       		.uleb128 0x3
 2990 00a5 4E6F4572 		.ascii "NoError\0"
 2990      726F7200 
 2991 00ad 00       		.byte	0
 2992 00ae 03       		.uleb128 0x3
 2993 00af 4E6F7446 		.ascii "NotFound\0"
 2993      6F756E64 
 2993      00
 2994 00b8 01       		.byte	0x1
 2995 00b9 03       		.uleb128 0x3
 2996 00ba 466F726D 		.ascii "FormatError\0"
 2996      61744572 
 2996      726F7200 
 2997 00c6 02       		.byte	0x2
 2998 00c7 03       		.uleb128 0x3
 2999 00c8 43686563 		.ascii "ChecksumError\0"
 2999      6B73756D 
 2999      4572726F 
 2999      7200
 3000 00d6 03       		.byte	0x3
 3001 00d7 00       		.byte	0
 3002 00d8 04       		.uleb128 0x4
 3003 00d9 04       		.byte	0x4
 3004 00da 07       		.byte	0x7
 3005 00db 756E7369 		.ascii "unsigned int\0"
 3005      676E6564 
 3005      20696E74 
 3005      00
 3006 00e8 05       		.uleb128 0x5
GAS LISTING C:\Users\jisu8\AppData\Local\Temp\ccIqWD58.s 			page 79


 3007 00e9 4465636F 		.ascii "DecodeStatus_t\0"
 3007      64655374 
 3007      61747573 
 3007      5F7400
 3008 00f8 03       		.byte	0x3
 3009 00f9 09       		.byte	0x9
 3010 00fa 02       		.byte	0x2
 3011 00fb 96000000 		.long	0x96
 3012 00ff 06       		.uleb128 0x6
 3013 0100 0C       		.byte	0xc
 3014 0101 02       		.byte	0x2
 3015 0102 04       		.byte	0x4
 3016 0103 09       		.byte	0x9
 3017 0104 39010000 		.long	0x139
 3018 0108 07       		.uleb128 0x7
 3019 0109 696E6465 		.ascii "index\0"
 3019      7800
 3020 010f 02       		.byte	0x2
 3021 0110 06       		.byte	0x6
 3022 0111 06       		.byte	0x6
 3023 0112 39010000 		.long	0x139
 3024 0116 02       		.byte	0x2
 3025 0117 23       		.byte	0x23
 3026 0118 00       		.uleb128 0
 3027 0119 07       		.uleb128 0x7
 3028 011a 636F756E 		.ascii "count\0"
 3028      7400
 3029 0120 02       		.byte	0x2
 3030 0121 07       		.byte	0x7
 3031 0122 06       		.byte	0x6
 3032 0123 39010000 		.long	0x139
 3033 0127 02       		.byte	0x2
 3034 0128 23       		.byte	0x23
 3035 0129 04       		.uleb128 0x4
 3036 012a 07       		.uleb128 0x7
 3037 012b 696400   		.ascii "id\0"
 3038 012e 02       		.byte	0x2
 3039 012f 08       		.byte	0x8
 3040 0130 09       		.byte	0x9
 3041 0131 45010000 		.long	0x145
 3042 0135 02       		.byte	0x2
 3043 0136 23       		.byte	0x23
 3044 0137 08       		.uleb128 0x8
 3045 0138 00       		.byte	0
 3046 0139 04       		.uleb128 0x4
 3047 013a 04       		.byte	0x4
 3048 013b 05       		.byte	0x5
 3049 013c 696E7400 		.ascii "int\0"
 3050 0140 08       		.uleb128 0x8
 3051 0141 39010000 		.long	0x139
 3052 0145 09       		.uleb128 0x9
 3053 0146 04       		.byte	0x4
 3054 0147 4B010000 		.long	0x14b
 3055 014b 04       		.uleb128 0x4
 3056 014c 01       		.byte	0x1
 3057 014d 06       		.byte	0x6
 3058 014e 63686172 		.ascii "char\0"
GAS LISTING C:\Users\jisu8\AppData\Local\Temp\ccIqWD58.s 			page 80


 3058      00
 3059 0153 08       		.uleb128 0x8
 3060 0154 4B010000 		.long	0x14b
 3061 0158 05       		.uleb128 0x5
 3062 0159 53747275 		.ascii "StructuredAppendInfo_t\0"
 3062      63747572 
 3062      65644170 
 3062      70656E64 
 3062      496E666F 
 3063 0170 02       		.byte	0x2
 3064 0171 09       		.byte	0x9
 3065 0172 02       		.byte	0x2
 3066 0173 FF000000 		.long	0xff
 3067 0177 05       		.uleb128 0x5
 3068 0178 77636861 		.ascii "wchar_t\0"
 3068      725F7400 
 3069 0180 04       		.byte	0x4
 3070 0181 62       		.byte	0x62
 3071 0182 18       		.byte	0x18
 3072 0183 87010000 		.long	0x187
 3073 0187 04       		.uleb128 0x4
 3074 0188 02       		.byte	0x2
 3075 0189 07       		.byte	0x7
 3076 018a 73686F72 		.ascii "short unsigned int\0"
 3076      7420756E 
 3076      7369676E 
 3076      65642069 
 3076      6E7400
 3077 019d 04       		.uleb128 0x4
 3078 019e 04       		.byte	0x4
 3079 019f 05       		.byte	0x5
 3080 01a0 6C6F6E67 		.ascii "long int\0"
 3080      20696E74 
 3080      00
 3081 01a9 04       		.uleb128 0x4
 3082 01aa 08       		.byte	0x8
 3083 01ab 05       		.byte	0x5
 3084 01ac 6C6F6E67 		.ascii "long long int\0"
 3084      206C6F6E 
 3084      6720696E 
 3084      7400
 3085 01ba 09       		.uleb128 0x9
 3086 01bb 04       		.byte	0x4
 3087 01bc 77010000 		.long	0x177
 3088 01c0 09       		.uleb128 0x9
 3089 01c1 04       		.byte	0x4
 3090 01c2 39010000 		.long	0x139
 3091 01c6 04       		.uleb128 0x4
 3092 01c7 04       		.byte	0x4
 3093 01c8 07       		.byte	0x7
 3094 01c9 6C6F6E67 		.ascii "long unsigned int\0"
 3094      20756E73 
 3094      69676E65 
 3094      6420696E 
 3094      7400
 3095 01db 09       		.uleb128 0x9
 3096 01dc 04       		.byte	0x4
GAS LISTING C:\Users\jisu8\AppData\Local\Temp\ccIqWD58.s 			page 81


 3097 01dd F2010000 		.long	0x1f2
 3098 01e1 04       		.uleb128 0x4
 3099 01e2 01       		.byte	0x1
 3100 01e3 08       		.byte	0x8
 3101 01e4 756E7369 		.ascii "unsigned char\0"
 3101      676E6564 
 3101      20636861 
 3101      7200
 3102 01f2 08       		.uleb128 0x8
 3103 01f3 E1010000 		.long	0x1e1
 3104 01f7 04       		.uleb128 0x4
 3105 01f8 0C       		.byte	0xc
 3106 01f9 04       		.byte	0x4
 3107 01fa 6C6F6E67 		.ascii "long double\0"
 3107      20646F75 
 3107      626C6500 
 3108 0206 04       		.uleb128 0x4
 3109 0207 10       		.byte	0x10
 3110 0208 04       		.byte	0x4
 3111 0209 5F466C6F 		.ascii "_Float128\0"
 3111      61743132 
 3111      3800
 3112 0213 04       		.uleb128 0x4
 3113 0214 01       		.byte	0x1
 3114 0215 06       		.byte	0x6
 3115 0216 7369676E 		.ascii "signed char\0"
 3115      65642063 
 3115      68617200 
 3116 0222 05       		.uleb128 0x5
 3117 0223 75696E74 		.ascii "uint8_t\0"
 3117      385F7400 
 3118 022b 05       		.byte	0x5
 3119 022c 24       		.byte	0x24
 3120 022d 19       		.byte	0x19
 3121 022e E1010000 		.long	0x1e1
 3122 0232 04       		.uleb128 0x4
 3123 0233 02       		.byte	0x2
 3124 0234 05       		.byte	0x5
 3125 0235 73686F72 		.ascii "short int\0"
 3125      7420696E 
 3125      7400
 3126 023f 04       		.uleb128 0x4
 3127 0240 08       		.byte	0x8
 3128 0241 07       		.byte	0x7
 3129 0242 6C6F6E67 		.ascii "long long unsigned int\0"
 3129      206C6F6E 
 3129      6720756E 
 3129      7369676E 
 3129      65642069 
 3130 0259 06       		.uleb128 0x6
 3131 025a 30       		.byte	0x30
 3132 025b 06       		.byte	0x6
 3133 025c 06       		.byte	0x6
 3134 025d 09       		.byte	0x9
 3135 025e 3A030000 		.long	0x33a
 3136 0262 07       		.uleb128 0x7
 3137 0263 73746174 		.ascii "status\0"
GAS LISTING C:\Users\jisu8\AppData\Local\Temp\ccIqWD58.s 			page 82


 3137      757300
 3138 026a 06       		.byte	0x6
 3139 026b 08       		.byte	0x8
 3140 026c 11       		.byte	0x11
 3141 026d E8000000 		.long	0xe8
 3142 0271 02       		.byte	0x2
 3143 0272 23       		.byte	0x23
 3144 0273 00       		.uleb128 0
 3145 0274 07       		.uleb128 0x7
 3146 0275 5F726177 		.ascii "_rawBytes\0"
 3146      42797465 
 3146      7300
 3147 027f 06       		.byte	0x6
 3148 0280 09       		.byte	0x9
 3149 0281 0C       		.byte	0xc
 3150 0282 3A030000 		.long	0x33a
 3151 0286 02       		.byte	0x2
 3152 0287 23       		.byte	0x23
 3153 0288 04       		.uleb128 0x4
 3154 0289 07       		.uleb128 0x7
 3155 028a 5F6E756D 		.ascii "_numBits\0"
 3155      42697473 
 3155      00
 3156 0293 06       		.byte	0x6
 3157 0294 0A       		.byte	0xa
 3158 0295 06       		.byte	0x6
 3159 0296 39010000 		.long	0x139
 3160 029a 02       		.byte	0x2
 3161 029b 23       		.byte	0x23
 3162 029c 08       		.uleb128 0x8
 3163 029d 07       		.uleb128 0x7
 3164 029e 5F746578 		.ascii "_text\0"
 3164      7400
 3165 02a4 06       		.byte	0x6
 3166 02a5 0B       		.byte	0xb
 3167 02a6 12       		.byte	0x12
 3168 02a7 40030000 		.long	0x340
 3169 02ab 02       		.byte	0x2
 3170 02ac 23       		.byte	0x23
 3171 02ad 0C       		.uleb128 0xc
 3172 02ae 07       		.uleb128 0x7
 3173 02af 5F65634C 		.ascii "_ecLevel\0"
 3173      6576656C 
 3173      00
 3174 02b8 06       		.byte	0x6
 3175 02b9 0C       		.byte	0xc
 3176 02ba 12       		.byte	0x12
 3177 02bb 40030000 		.long	0x340
 3178 02bf 02       		.byte	0x2
 3179 02c0 23       		.byte	0x23
 3180 02c1 10       		.uleb128 0x10
 3181 02c2 07       		.uleb128 0x7
 3182 02c3 5F657272 		.ascii "_errorsCorrected\0"
 3182      6F727343 
 3182      6F727265 
 3182      63746564 
 3182      00
GAS LISTING C:\Users\jisu8\AppData\Local\Temp\ccIqWD58.s 			page 83


 3183 02d4 06       		.byte	0x6
 3184 02d5 0D       		.byte	0xd
 3185 02d6 06       		.byte	0x6
 3186 02d7 39010000 		.long	0x139
 3187 02db 02       		.byte	0x2
 3188 02dc 23       		.byte	0x23
 3189 02dd 14       		.uleb128 0x14
 3190 02de 07       		.uleb128 0x7
 3191 02df 5F657261 		.ascii "_erasures\0"
 3191      73757265 
 3191      7300
 3192 02e9 06       		.byte	0x6
 3193 02ea 0E       		.byte	0xe
 3194 02eb 06       		.byte	0x6
 3195 02ec 39010000 		.long	0x139
 3196 02f0 02       		.byte	0x2
 3197 02f1 23       		.byte	0x23
 3198 02f2 18       		.uleb128 0x18
 3199 02f3 07       		.uleb128 0x7
 3200 02f4 5F737472 		.ascii "_structuredAppend\0"
 3200      75637475 
 3200      72656441 
 3200      7070656E 
 3200      6400
 3201 0306 06       		.byte	0x6
 3202 0307 0F       		.byte	0xf
 3203 0308 19       		.byte	0x19
 3204 0309 58010000 		.long	0x158
 3205 030d 02       		.byte	0x2
 3206 030e 23       		.byte	0x23
 3207 030f 1C       		.uleb128 0x1c
 3208 0310 07       		.uleb128 0x7
 3209 0311 5F726561 		.ascii "_readerInit\0"
 3209      64657249 
 3209      6E697400 
 3210 031d 06       		.byte	0x6
 3211 031e 10       		.byte	0x10
 3212 031f 0A       		.byte	0xa
 3213 0320 22020000 		.long	0x222
 3214 0324 02       		.byte	0x2
 3215 0325 23       		.byte	0x23
 3216 0326 28       		.uleb128 0x28
 3217 0327 07       		.uleb128 0x7
 3218 0328 5F657874 		.ascii "_extra\0"
 3218      726100
 3219 032f 06       		.byte	0x6
 3220 0330 11       		.byte	0x11
 3221 0331 0C       		.byte	0xc
 3222 0332 3A030000 		.long	0x33a
 3223 0336 02       		.byte	0x2
 3224 0337 23       		.byte	0x23
 3225 0338 2C       		.uleb128 0x2c
 3226 0339 00       		.byte	0
 3227 033a 09       		.uleb128 0x9
 3228 033b 04       		.byte	0x4
 3229 033c 22020000 		.long	0x222
 3230 0340 09       		.uleb128 0x9
GAS LISTING C:\Users\jisu8\AppData\Local\Temp\ccIqWD58.s 			page 84


 3231 0341 04       		.byte	0x4
 3232 0342 E1010000 		.long	0x1e1
 3233 0346 05       		.uleb128 0x5
 3234 0347 4465636F 		.ascii "DecoderResult_t\0"
 3234      64657252 
 3234      6573756C 
 3234      745F7400 
 3235 0357 06       		.byte	0x6
 3236 0358 12       		.byte	0x12
 3237 0359 02       		.byte	0x2
 3238 035a 59020000 		.long	0x259
 3239 035e 06       		.uleb128 0x6
 3240 035f 10       		.byte	0x10
 3241 0360 07       		.byte	0x7
 3242 0361 06       		.byte	0x6
 3243 0362 09       		.byte	0x9
 3244 0363 B1030000 		.long	0x3b1
 3245 0367 07       		.uleb128 0x7
 3246 0368 5F776964 		.ascii "_width\0"
 3246      746800
 3247 036f 07       		.byte	0x7
 3248 0370 08       		.byte	0x8
 3249 0371 06       		.byte	0x6
 3250 0372 39010000 		.long	0x139
 3251 0376 02       		.byte	0x2
 3252 0377 23       		.byte	0x23
 3253 0378 00       		.uleb128 0
 3254 0379 07       		.uleb128 0x7
 3255 037a 5F686569 		.ascii "_height\0"
 3255      67687400 
 3256 0382 07       		.byte	0x7
 3257 0383 09       		.byte	0x9
 3258 0384 06       		.byte	0x6
 3259 0385 39010000 		.long	0x139
 3260 0389 02       		.byte	0x2
 3261 038a 23       		.byte	0x23
 3262 038b 04       		.uleb128 0x4
 3263 038c 07       		.uleb128 0x7
 3264 038d 5F726F77 		.ascii "_rowSize\0"
 3264      53697A65 
 3264      00
 3265 0396 07       		.byte	0x7
 3266 0397 0A       		.byte	0xa
 3267 0398 06       		.byte	0x6
 3268 0399 39010000 		.long	0x139
 3269 039d 02       		.byte	0x2
 3270 039e 23       		.byte	0x23
 3271 039f 08       		.uleb128 0x8
 3272 03a0 07       		.uleb128 0x7
 3273 03a1 62697473 		.ascii "bits\0"
 3273      00
 3274 03a6 07       		.byte	0x7
 3275 03a7 0B       		.byte	0xb
 3276 03a8 0C       		.byte	0xc
 3277 03a9 3A030000 		.long	0x33a
 3278 03ad 02       		.byte	0x2
 3279 03ae 23       		.byte	0x23
GAS LISTING C:\Users\jisu8\AppData\Local\Temp\ccIqWD58.s 			page 85


 3280 03af 0C       		.uleb128 0xc
 3281 03b0 00       		.byte	0
 3282 03b1 05       		.uleb128 0x5
 3283 03b2 4269744D 		.ascii "BitMatrix_t\0"
 3283      61747269 
 3283      785F7400 
 3284 03be 07       		.byte	0x7
 3285 03bf 0E       		.byte	0xe
 3286 03c0 02       		.byte	0x2
 3287 03c1 5E030000 		.long	0x35e
 3288 03c5 08       		.uleb128 0x8
 3289 03c6 B1030000 		.long	0x3b1
 3290 03ca 06       		.uleb128 0x6
 3291 03cb 08       		.byte	0x8
 3292 03cc 08       		.byte	0x8
 3293 03cd 14       		.byte	0x14
 3294 03ce 09       		.byte	0x9
 3295 03cf EE030000 		.long	0x3ee
 3296 03d3 07       		.uleb128 0x7
 3297 03d4 7800     		.ascii "x\0"
 3298 03d6 08       		.byte	0x8
 3299 03d7 16       		.byte	0x16
 3300 03d8 08       		.byte	0x8
 3301 03d9 EE030000 		.long	0x3ee
 3302 03dd 02       		.byte	0x2
 3303 03de 23       		.byte	0x23
 3304 03df 00       		.uleb128 0
 3305 03e0 07       		.uleb128 0x7
 3306 03e1 7900     		.ascii "y\0"
 3307 03e3 08       		.byte	0x8
 3308 03e4 17       		.byte	0x17
 3309 03e5 08       		.byte	0x8
 3310 03e6 EE030000 		.long	0x3ee
 3311 03ea 02       		.byte	0x2
 3312 03eb 23       		.byte	0x23
 3313 03ec 04       		.uleb128 0x4
 3314 03ed 00       		.byte	0
 3315 03ee 04       		.uleb128 0x4
 3316 03ef 04       		.byte	0x4
 3317 03f0 04       		.byte	0x4
 3318 03f1 666C6F61 		.ascii "float\0"
 3318      7400
 3319 03f7 05       		.uleb128 0x5
 3320 03f8 506F696E 		.ascii "PointT_t\0"
 3320      74545F74 
 3320      00
 3321 0401 08       		.byte	0x8
 3322 0402 18       		.byte	0x18
 3323 0403 02       		.byte	0x2
 3324 0404 CA030000 		.long	0x3ca
 3325 0408 06       		.uleb128 0x6
 3326 0409 0C       		.byte	0xc
 3327 040a 08       		.byte	0x8
 3328 040b 1A       		.byte	0x1a
 3329 040c 09       		.byte	0x9
 3330 040d 30040000 		.long	0x430
 3331 0411 0A       		.uleb128 0xa
GAS LISTING C:\Users\jisu8\AppData\Local\Temp\ccIqWD58.s 			page 86


 3332 0412 45010000 		.secrel32	LASF0
 3333 0416 08       		.byte	0x8
 3334 0417 1C       		.byte	0x1c
 3335 0418 0A       		.byte	0xa
 3336 0419 22020000 		.long	0x222
 3337 041d 02       		.byte	0x2
 3338 041e 23       		.byte	0x23
 3339 041f 00       		.uleb128 0
 3340 0420 0A       		.uleb128 0xa
 3341 0421 3C000000 		.secrel32	LASF1
 3342 0425 08       		.byte	0x8
 3343 0426 1D       		.byte	0x1d
 3344 0427 0B       		.byte	0xb
 3345 0428 F7030000 		.long	0x3f7
 3346 042c 02       		.byte	0x2
 3347 042d 23       		.byte	0x23
 3348 042e 04       		.uleb128 0x4
 3349 042f 00       		.byte	0
 3350 0430 05       		.uleb128 0x5
 3351 0431 52657375 		.ascii "ResultPoint_t\0"
 3351      6C74506F 
 3351      696E745F 
 3351      7400
 3352 043f 08       		.byte	0x8
 3353 0440 1E       		.byte	0x1e
 3354 0441 02       		.byte	0x2
 3355 0442 08040000 		.long	0x408
 3356 0446 08       		.uleb128 0x8
 3357 0447 30040000 		.long	0x430
 3358 044b 06       		.uleb128 0x6
 3359 044c 48       		.byte	0x48
 3360 044d 09       		.byte	0x9
 3361 044e 06       		.byte	0x6
 3362 044f 09       		.byte	0x9
 3363 0450 1C050000 		.long	0x51c
 3364 0454 07       		.uleb128 0x7
 3365 0455 5F696D67 		.ascii "_imgWidth\0"
 3365      57696474 
 3365      6800
 3366 045f 09       		.byte	0x9
 3367 0460 08       		.byte	0x8
 3368 0461 06       		.byte	0x6
 3369 0462 39010000 		.long	0x139
 3370 0466 02       		.byte	0x2
 3371 0467 23       		.byte	0x23
 3372 0468 00       		.uleb128 0
 3373 0469 07       		.uleb128 0x7
 3374 046a 5F696D67 		.ascii "_imgHeight\0"
 3374      48656967 
 3374      687400
 3375 0475 09       		.byte	0x9
 3376 0476 09       		.byte	0x9
 3377 0477 06       		.byte	0x6
 3378 0478 39010000 		.long	0x139
 3379 047c 02       		.byte	0x2
 3380 047d 23       		.byte	0x23
 3381 047e 04       		.uleb128 0x4
GAS LISTING C:\Users\jisu8\AppData\Local\Temp\ccIqWD58.s 			page 87


 3382 047f 07       		.uleb128 0x7
 3383 0480 5F746F70 		.ascii "_topLeft\0"
 3383      4C656674 
 3383      00
 3384 0489 09       		.byte	0x9
 3385 048a 0A       		.byte	0xa
 3386 048b 10       		.byte	0x10
 3387 048c 30040000 		.long	0x430
 3388 0490 02       		.byte	0x2
 3389 0491 23       		.byte	0x23
 3390 0492 08       		.uleb128 0x8
 3391 0493 07       		.uleb128 0x7
 3392 0494 5F626F74 		.ascii "_bottomLeft\0"
 3392      746F6D4C 
 3392      65667400 
 3393 04a0 09       		.byte	0x9
 3394 04a1 0B       		.byte	0xb
 3395 04a2 10       		.byte	0x10
 3396 04a3 30040000 		.long	0x430
 3397 04a7 02       		.byte	0x2
 3398 04a8 23       		.byte	0x23
 3399 04a9 14       		.uleb128 0x14
 3400 04aa 07       		.uleb128 0x7
 3401 04ab 5F746F70 		.ascii "_topRight\0"
 3401      52696768 
 3401      7400
 3402 04b5 09       		.byte	0x9
 3403 04b6 0C       		.byte	0xc
 3404 04b7 10       		.byte	0x10
 3405 04b8 30040000 		.long	0x430
 3406 04bc 02       		.byte	0x2
 3407 04bd 23       		.byte	0x23
 3408 04be 20       		.uleb128 0x20
 3409 04bf 07       		.uleb128 0x7
 3410 04c0 5F626F74 		.ascii "_bottomRight\0"
 3410      746F6D52 
 3410      69676874 
 3410      00
 3411 04cd 09       		.byte	0x9
 3412 04ce 0D       		.byte	0xd
 3413 04cf 10       		.byte	0x10
 3414 04d0 30040000 		.long	0x430
 3415 04d4 02       		.byte	0x2
 3416 04d5 23       		.byte	0x23
 3417 04d6 2C       		.uleb128 0x2c
 3418 04d7 07       		.uleb128 0x7
 3419 04d8 5F6D696E 		.ascii "_minX\0"
 3419      5800
 3420 04de 09       		.byte	0x9
 3421 04df 0E       		.byte	0xe
 3422 04e0 06       		.byte	0x6
 3423 04e1 39010000 		.long	0x139
 3424 04e5 02       		.byte	0x2
 3425 04e6 23       		.byte	0x23
 3426 04e7 38       		.uleb128 0x38
 3427 04e8 07       		.uleb128 0x7
 3428 04e9 5F6D6178 		.ascii "_maxX\0"
GAS LISTING C:\Users\jisu8\AppData\Local\Temp\ccIqWD58.s 			page 88


 3428      5800
 3429 04ef 09       		.byte	0x9
 3430 04f0 0F       		.byte	0xf
 3431 04f1 06       		.byte	0x6
 3432 04f2 39010000 		.long	0x139
 3433 04f6 02       		.byte	0x2
 3434 04f7 23       		.byte	0x23
 3435 04f8 3C       		.uleb128 0x3c
 3436 04f9 07       		.uleb128 0x7
 3437 04fa 5F6D696E 		.ascii "_minY\0"
 3437      5900
 3438 0500 09       		.byte	0x9
 3439 0501 10       		.byte	0x10
 3440 0502 06       		.byte	0x6
 3441 0503 39010000 		.long	0x139
 3442 0507 02       		.byte	0x2
 3443 0508 23       		.byte	0x23
 3444 0509 40       		.uleb128 0x40
 3445 050a 07       		.uleb128 0x7
 3446 050b 5F6D6178 		.ascii "_maxY\0"
 3446      5900
 3447 0511 09       		.byte	0x9
 3448 0512 11       		.byte	0x11
 3449 0513 06       		.byte	0x6
 3450 0514 39010000 		.long	0x139
 3451 0518 02       		.byte	0x2
 3452 0519 23       		.byte	0x23
 3453 051a 44       		.uleb128 0x44
 3454 051b 00       		.byte	0
 3455 051c 05       		.uleb128 0x5
 3456 051d 426F756E 		.ascii "BoundingBox_val_t\0"
 3456      64696E67 
 3456      426F785F 
 3456      76616C5F 
 3456      7400
 3457 052f 09       		.byte	0x9
 3458 0530 12       		.byte	0x12
 3459 0531 02       		.byte	0x2
 3460 0532 4B040000 		.long	0x44b
 3461 0536 06       		.uleb128 0x6
 3462 0537 4C       		.byte	0x4c
 3463 0538 09       		.byte	0x9
 3464 0539 14       		.byte	0x14
 3465 053a 09       		.byte	0x9
 3466 053b 5E050000 		.long	0x55e
 3467 053f 0A       		.uleb128 0xa
 3468 0540 45010000 		.secrel32	LASF0
 3469 0544 09       		.byte	0x9
 3470 0545 16       		.byte	0x16
 3471 0546 0A       		.byte	0xa
 3472 0547 22020000 		.long	0x222
 3473 054b 02       		.byte	0x2
 3474 054c 23       		.byte	0x23
 3475 054d 00       		.uleb128 0
 3476 054e 0A       		.uleb128 0xa
 3477 054f 3C000000 		.secrel32	LASF1
 3478 0553 09       		.byte	0x9
GAS LISTING C:\Users\jisu8\AppData\Local\Temp\ccIqWD58.s 			page 89


 3479 0554 17       		.byte	0x17
 3480 0555 14       		.byte	0x14
 3481 0556 1C050000 		.long	0x51c
 3482 055a 02       		.byte	0x2
 3483 055b 23       		.byte	0x23
 3484 055c 04       		.uleb128 0x4
 3485 055d 00       		.byte	0
 3486 055e 05       		.uleb128 0x5
 3487 055f 426F756E 		.ascii "BoundingBox_t\0"
 3487      64696E67 
 3487      426F785F 
 3487      7400
 3488 056d 09       		.byte	0x9
 3489 056e 18       		.byte	0x18
 3490 056f 02       		.byte	0x2
 3491 0570 36050000 		.long	0x536
 3492 0574 08       		.uleb128 0x8
 3493 0575 5E050000 		.long	0x55e
 3494 0579 06       		.uleb128 0x6
 3495 057a 14       		.byte	0x14
 3496 057b 0A       		.byte	0xa
 3497 057c 04       		.byte	0x4
 3498 057d 09       		.byte	0x9
 3499 057e E2050000 		.long	0x5e2
 3500 0582 07       		.uleb128 0x7
 3501 0583 5F737461 		.ascii "_startX\0"
 3501      72745800 
 3502 058b 0A       		.byte	0xa
 3503 058c 06       		.byte	0x6
 3504 058d 06       		.byte	0x6
 3505 058e 39010000 		.long	0x139
 3506 0592 02       		.byte	0x2
 3507 0593 23       		.byte	0x23
 3508 0594 00       		.uleb128 0
 3509 0595 07       		.uleb128 0x7
 3510 0596 5F656E64 		.ascii "_endX\0"
 3510      5800
 3511 059c 0A       		.byte	0xa
 3512 059d 07       		.byte	0x7
 3513 059e 06       		.byte	0x6
 3514 059f 39010000 		.long	0x139
 3515 05a3 02       		.byte	0x2
 3516 05a4 23       		.byte	0x23
 3517 05a5 04       		.uleb128 0x4
 3518 05a6 07       		.uleb128 0x7
 3519 05a7 5F627563 		.ascii "_bucket\0"
 3519      6B657400 
 3520 05af 0A       		.byte	0xa
 3521 05b0 08       		.byte	0x8
 3522 05b1 06       		.byte	0x6
 3523 05b2 39010000 		.long	0x139
 3524 05b6 02       		.byte	0x2
 3525 05b7 23       		.byte	0x23
 3526 05b8 08       		.uleb128 0x8
 3527 05b9 07       		.uleb128 0x7
 3528 05ba 5F76616C 		.ascii "_value\0"
 3528      756500
GAS LISTING C:\Users\jisu8\AppData\Local\Temp\ccIqWD58.s 			page 90


 3529 05c1 0A       		.byte	0xa
 3530 05c2 09       		.byte	0x9
 3531 05c3 06       		.byte	0x6
 3532 05c4 39010000 		.long	0x139
 3533 05c8 02       		.byte	0x2
 3534 05c9 23       		.byte	0x23
 3535 05ca 0C       		.uleb128 0xc
 3536 05cb 07       		.uleb128 0x7
 3537 05cc 5F726F77 		.ascii "_rowNumber\0"
 3537      4E756D62 
 3537      657200
 3538 05d7 0A       		.byte	0xa
 3539 05d8 0A       		.byte	0xa
 3540 05d9 06       		.byte	0x6
 3541 05da 39010000 		.long	0x139
 3542 05de 02       		.byte	0x2
 3543 05df 23       		.byte	0x23
 3544 05e0 10       		.uleb128 0x10
 3545 05e1 00       		.byte	0
 3546 05e2 05       		.uleb128 0x5
 3547 05e3 436F6465 		.ascii "Codeword_val_t\0"
 3547      776F7264 
 3547      5F76616C 
 3547      5F7400
 3548 05f2 0A       		.byte	0xa
 3549 05f3 0B       		.byte	0xb
 3550 05f4 02       		.byte	0x2
 3551 05f5 79050000 		.long	0x579
 3552 05f9 06       		.uleb128 0x6
 3553 05fa 18       		.byte	0x18
 3554 05fb 0A       		.byte	0xa
 3555 05fc 0C       		.byte	0xc
 3556 05fd 09       		.byte	0x9
 3557 05fe 21060000 		.long	0x621
 3558 0602 0A       		.uleb128 0xa
 3559 0603 45010000 		.secrel32	LASF0
 3560 0607 0A       		.byte	0xa
 3561 0608 0E       		.byte	0xe
 3562 0609 0A       		.byte	0xa
 3563 060a 22020000 		.long	0x222
 3564 060e 02       		.byte	0x2
 3565 060f 23       		.byte	0x23
 3566 0610 00       		.uleb128 0
 3567 0611 0A       		.uleb128 0xa
 3568 0612 3C000000 		.secrel32	LASF1
 3569 0616 0A       		.byte	0xa
 3570 0617 0F       		.byte	0xf
 3571 0618 11       		.byte	0x11
 3572 0619 E2050000 		.long	0x5e2
 3573 061d 02       		.byte	0x2
 3574 061e 23       		.byte	0x23
 3575 061f 04       		.uleb128 0x4
 3576 0620 00       		.byte	0
 3577 0621 05       		.uleb128 0x5
 3578 0622 436F6465 		.ascii "Codeword_t\0"
 3578      776F7264 
 3578      5F7400
GAS LISTING C:\Users\jisu8\AppData\Local\Temp\ccIqWD58.s 			page 91


 3579 062d 0A       		.byte	0xa
 3580 062e 10       		.byte	0x10
 3581 062f 02       		.byte	0x2
 3582 0630 F9050000 		.long	0x5f9
 3583 0634 06       		.uleb128 0x6
 3584 0635 10       		.byte	0x10
 3585 0636 0B       		.byte	0xb
 3586 0637 07       		.byte	0x7
 3587 0638 09       		.byte	0x9
 3588 0639 B3060000 		.long	0x6b3
 3589 063d 07       		.uleb128 0x7
 3590 063e 5F636F6C 		.ascii "_columnCount\0"
 3590      756D6E43 
 3590      6F756E74 
 3590      00
 3591 064b 0B       		.byte	0xb
 3592 064c 09       		.byte	0x9
 3593 064d 06       		.byte	0x6
 3594 064e 39010000 		.long	0x139
 3595 0652 02       		.byte	0x2
 3596 0653 23       		.byte	0x23
 3597 0654 00       		.uleb128 0
 3598 0655 07       		.uleb128 0x7
 3599 0656 5F657272 		.ascii "_errorCorrectionLevel\0"
 3599      6F72436F 
 3599      72726563 
 3599      74696F6E 
 3599      4C657665 
 3600 066c 0B       		.byte	0xb
 3601 066d 0A       		.byte	0xa
 3602 066e 06       		.byte	0x6
 3603 066f 39010000 		.long	0x139
 3604 0673 02       		.byte	0x2
 3605 0674 23       		.byte	0x23
 3606 0675 04       		.uleb128 0x4
 3607 0676 07       		.uleb128 0x7
 3608 0677 5F726F77 		.ascii "_rowCountUpperPart\0"
 3608      436F756E 
 3608      74557070 
 3608      65725061 
 3608      727400
 3609 068a 0B       		.byte	0xb
 3610 068b 0B       		.byte	0xb
 3611 068c 06       		.byte	0x6
 3612 068d 39010000 		.long	0x139
 3613 0691 02       		.byte	0x2
 3614 0692 23       		.byte	0x23
 3615 0693 08       		.uleb128 0x8
 3616 0694 07       		.uleb128 0x7
 3617 0695 5F726F77 		.ascii "_rowCountLowerPart\0"
 3617      436F756E 
 3617      744C6F77 
 3617      65725061 
 3617      727400
 3618 06a8 0B       		.byte	0xb
 3619 06a9 0C       		.byte	0xc
 3620 06aa 06       		.byte	0x6
GAS LISTING C:\Users\jisu8\AppData\Local\Temp\ccIqWD58.s 			page 92


 3621 06ab 39010000 		.long	0x139
 3622 06af 02       		.byte	0x2
 3623 06b0 23       		.byte	0x23
 3624 06b1 0C       		.uleb128 0xc
 3625 06b2 00       		.byte	0
 3626 06b3 05       		.uleb128 0x5
 3627 06b4 42617263 		.ascii "BarcodeMetadata_t\0"
 3627      6F64654D 
 3627      65746164 
 3627      6174615F 
 3627      7400
 3628 06c6 0B       		.byte	0xb
 3629 06c7 0D       		.byte	0xd
 3630 06c8 02       		.byte	0x2
 3631 06c9 34060000 		.long	0x634
 3632 06cd 02       		.uleb128 0x2
 3633 06ce 07       		.byte	0x7
 3634 06cf 04       		.byte	0x4
 3635 06d0 D8000000 		.long	0xd8
 3636 06d4 0C       		.byte	0xc
 3637 06d5 09       		.byte	0x9
 3638 06d6 01       		.byte	0x1
 3639 06d7 F2060000 		.long	0x6f2
 3640 06db 03       		.uleb128 0x3
 3641 06dc 4E6F6E65 		.ascii "None\0"
 3641      00
 3642 06e1 00       		.byte	0
 3643 06e2 03       		.uleb128 0x3
 3644 06e3 4C656674 		.ascii "Left\0"
 3644      00
 3645 06e8 01       		.byte	0x1
 3646 06e9 03       		.uleb128 0x3
 3647 06ea 52696768 		.ascii "Right\0"
 3647      7400
 3648 06f0 02       		.byte	0x2
 3649 06f1 00       		.byte	0
 3650 06f2 05       		.uleb128 0x5
 3651 06f3 526F7749 		.ascii "RowIndicator_t\0"
 3651      6E646963 
 3651      61746F72 
 3651      5F7400
 3652 0702 0C       		.byte	0xc
 3653 0703 0D       		.byte	0xd
 3654 0704 02       		.byte	0x2
 3655 0705 CD060000 		.long	0x6cd
 3656 0709 0B       		.uleb128 0xb
 3657 070a 302F     		.word	0x2f30
 3658 070c 0C       		.byte	0xc
 3659 070d 0F       		.byte	0xf
 3660 070e 09       		.byte	0x9
 3661 070f 53070000 		.long	0x753
 3662 0713 0A       		.uleb128 0xa
 3663 0714 63000000 		.secrel32	LASF2
 3664 0718 0C       		.byte	0xc
 3665 0719 11       		.byte	0x11
 3666 071a 10       		.byte	0x10
 3667 071b 5E050000 		.long	0x55e
GAS LISTING C:\Users\jisu8\AppData\Local\Temp\ccIqWD58.s 			page 93


 3668 071f 02       		.byte	0x2
 3669 0720 23       		.byte	0x23
 3670 0721 00       		.uleb128 0
 3671 0722 07       		.uleb128 0x7
 3672 0723 5F636F64 		.ascii "_codewords\0"
 3672      65776F72 
 3672      647300
 3673 072e 0C       		.byte	0xc
 3674 072f 12       		.byte	0x12
 3675 0730 0D       		.byte	0xd
 3676 0731 53070000 		.long	0x753
 3677 0735 02       		.byte	0x2
 3678 0736 23       		.byte	0x23
 3679 0737 4C       		.uleb128 0x4c
 3680 0738 07       		.uleb128 0x7
 3681 0739 5F726F77 		.ascii "_rowIndicator\0"
 3681      496E6469 
 3681      6361746F 
 3681      7200
 3682 0747 0C       		.byte	0xc
 3683 0748 13       		.byte	0x13
 3684 0749 11       		.byte	0x11
 3685 074a F2060000 		.long	0x6f2
 3686 074e 03       		.byte	0x3
 3687 074f 23       		.byte	0x23
 3688 0750 AC5E     		.uleb128 0x2f2c
 3689 0752 00       		.byte	0
 3690 0753 0C       		.uleb128 0xc
 3691 0754 21060000 		.long	0x621
 3692 0758 64070000 		.long	0x764
 3693 075c 0D       		.uleb128 0xd
 3694 075d D8000000 		.long	0xd8
 3695 0761 F301     		.word	0x1f3
 3696 0763 00       		.byte	0
 3697 0764 05       		.uleb128 0x5
 3698 0765 44657465 		.ascii "DetectionResultColumn_val_t\0"
 3698      6374696F 
 3698      6E526573 
 3698      756C7443 
 3698      6F6C756D 
 3699 0781 0C       		.byte	0xc
 3700 0782 14       		.byte	0x14
 3701 0783 02       		.byte	0x2
 3702 0784 09070000 		.long	0x709
 3703 0788 0B       		.uleb128 0xb
 3704 0789 342F     		.word	0x2f34
 3705 078b 0C       		.byte	0xc
 3706 078c 15       		.byte	0x15
 3707 078d 09       		.byte	0x9
 3708 078e B1070000 		.long	0x7b1
 3709 0792 0A       		.uleb128 0xa
 3710 0793 45010000 		.secrel32	LASF0
 3711 0797 0C       		.byte	0xc
 3712 0798 17       		.byte	0x17
 3713 0799 0A       		.byte	0xa
 3714 079a 22020000 		.long	0x222
 3715 079e 02       		.byte	0x2
GAS LISTING C:\Users\jisu8\AppData\Local\Temp\ccIqWD58.s 			page 94


 3716 079f 23       		.byte	0x23
 3717 07a0 00       		.uleb128 0
 3718 07a1 0A       		.uleb128 0xa
 3719 07a2 3C000000 		.secrel32	LASF1
 3720 07a6 0C       		.byte	0xc
 3721 07a7 18       		.byte	0x18
 3722 07a8 1E       		.byte	0x1e
 3723 07a9 64070000 		.long	0x764
 3724 07ad 02       		.byte	0x2
 3725 07ae 23       		.byte	0x23
 3726 07af 04       		.uleb128 0x4
 3727 07b0 00       		.byte	0
 3728 07b1 05       		.uleb128 0x5
 3729 07b2 44657465 		.ascii "DetectionResultColumn_t\0"
 3729      6374696F 
 3729      6E526573 
 3729      756C7443 
 3729      6F6C756D 
 3730 07ca 0C       		.byte	0xc
 3731 07cb 19       		.byte	0x19
 3732 07cc 02       		.byte	0x2
 3733 07cd 88070000 		.long	0x788
 3734 07d1 0E       		.uleb128 0xe
 3735 07d2 42415243 		.ascii "BARCODE_ROW_UNKNOWN\0"
 3735      4F44455F 
 3735      524F575F 
 3735      554E4B4E 
 3735      4F574E00 
 3736 07e6 0E       		.byte	0xe
 3737 07e7 09       		.byte	0x9
 3738 07e8 12       		.byte	0x12
 3739 07e9 40010000 		.long	0x140
 3740 07ed 01       		.byte	0x1
 3741 07ee 01       		.byte	0x1
 3742 07ef 0F       		.uleb128 0xf
 3743 07f0 F3000000 		.secrel32	LASF3
 3744 07f4 0E       		.byte	0xe
 3745 07f5 0F       		.byte	0xf
 3746 07f6 20       		.byte	0x20
 3747 07f7 B1070000 		.long	0x7b1
 3748 07fb 01       		.byte	0x1
 3749 07fc 01       		.byte	0x1
 3750 07fd 10       		.uleb128 0x10
 3751 07fe AC701200 		.long	0x1270ac
 3752 0802 0D       		.byte	0xd
 3753 0803 08       		.byte	0x8
 3754 0804 09       		.byte	0x9
 3755 0805 5A080000 		.long	0x85a
 3756 0809 07       		.uleb128 0x7
 3757 080a 5F626172 		.ascii "_barcodeMetadata\0"
 3757      636F6465 
 3757      4D657461 
 3757      64617461 
 3757      00
 3758 081b 0D       		.byte	0xd
 3759 081c 0A       		.byte	0xa
 3760 081d 14       		.byte	0x14
GAS LISTING C:\Users\jisu8\AppData\Local\Temp\ccIqWD58.s 			page 95


 3761 081e B3060000 		.long	0x6b3
 3762 0822 02       		.byte	0x2
 3763 0823 23       		.byte	0x23
 3764 0824 00       		.uleb128 0
 3765 0825 07       		.uleb128 0x7
 3766 0826 5F646574 		.ascii "_detectionResultColumns\0"
 3766      65637469 
 3766      6F6E5265 
 3766      73756C74 
 3766      436F6C75 
 3767 083e 0D       		.byte	0xd
 3768 083f 0B       		.byte	0xb
 3769 0840 1A       		.byte	0x1a
 3770 0841 5A080000 		.long	0x85a
 3771 0845 02       		.byte	0x2
 3772 0846 23       		.byte	0x23
 3773 0847 10       		.uleb128 0x10
 3774 0848 0A       		.uleb128 0xa
 3775 0849 63000000 		.secrel32	LASF2
 3776 084d 0D       		.byte	0xd
 3777 084e 0C       		.byte	0xc
 3778 084f 10       		.byte	0x10
 3779 0850 5E050000 		.long	0x55e
 3780 0854 04       		.byte	0x4
 3781 0855 23       		.byte	0x23
 3782 0856 E0E049   		.uleb128 0x127060
 3783 0859 00       		.byte	0
 3784 085a 0C       		.uleb128 0xc
 3785 085b B1070000 		.long	0x7b1
 3786 085f 6A080000 		.long	0x86a
 3787 0863 11       		.uleb128 0x11
 3788 0864 D8000000 		.long	0xd8
 3789 0868 63       		.byte	0x63
 3790 0869 00       		.byte	0
 3791 086a 05       		.uleb128 0x5
 3792 086b 44657465 		.ascii "DetectionResult_t\0"
 3792      6374696F 
 3792      6E526573 
 3792      756C745F 
 3792      7400
 3793 087d 0D       		.byte	0xd
 3794 087e 0D       		.byte	0xd
 3795 087f 02       		.byte	0x2
 3796 0880 FD070000 		.long	0x7fd
 3797 0884 08       		.uleb128 0x8
 3798 0885 6A080000 		.long	0x86a
 3799 0889 0E       		.uleb128 0xe
 3800 088a 4D4F4455 		.ascii "MODULES_IN_CODEWORD\0"
 3800      4C45535F 
 3800      494E5F43 
 3800      4F444557 
 3800      4F524400 
 3801 089e 0F       		.byte	0xf
 3802 089f 1D       		.byte	0x1d
 3803 08a0 12       		.byte	0x12
 3804 08a1 40010000 		.long	0x140
 3805 08a5 01       		.byte	0x1
GAS LISTING C:\Users\jisu8\AppData\Local\Temp\ccIqWD58.s 			page 96


 3806 08a6 01       		.byte	0x1
 3807 08a7 0E       		.uleb128 0xe
 3808 08a8 42415253 		.ascii "BARS_IN_MODULE\0"
 3808      5F494E5F 
 3808      4D4F4455 
 3808      4C4500
 3809 08b7 0F       		.byte	0xf
 3810 08b8 1E       		.byte	0x1e
 3811 08b9 12       		.byte	0x12
 3812 08ba 40010000 		.long	0x140
 3813 08be 01       		.byte	0x1
 3814 08bf 01       		.byte	0x1
 3815 08c0 0E       		.uleb128 0xe
 3816 08c1 4D41585F 		.ascii "MAX_CODEWORDS_IN_BARCODE\0"
 3816      434F4445 
 3816      574F5244 
 3816      535F494E 
 3816      5F424152 
 3817 08da 0F       		.byte	0xf
 3818 08db 1F       		.byte	0x1f
 3819 08dc 12       		.byte	0x12
 3820 08dd 40010000 		.long	0x140
 3821 08e1 01       		.byte	0x1
 3822 08e2 01       		.byte	0x1
 3823 08e3 0B       		.uleb128 0xb
 3824 08e4 A00F     		.word	0xfa0
 3825 08e6 10       		.byte	0x10
 3826 08e7 04       		.byte	0x4
 3827 08e8 09       		.byte	0x9
 3828 08e9 01090000 		.long	0x901
 3829 08ed 07       		.uleb128 0x7
 3830 08ee 5F76616C 		.ascii "_values\0"
 3830      75657300 
 3831 08f6 10       		.byte	0x10
 3832 08f7 06       		.byte	0x6
 3833 08f8 06       		.byte	0x6
 3834 08f9 01090000 		.long	0x901
 3835 08fd 02       		.byte	0x2
 3836 08fe 23       		.byte	0x23
 3837 08ff 00       		.uleb128 0
 3838 0900 00       		.byte	0
 3839 0901 0C       		.uleb128 0xc
 3840 0902 39010000 		.long	0x139
 3841 0906 12090000 		.long	0x912
 3842 090a 0D       		.uleb128 0xd
 3843 090b D8000000 		.long	0xd8
 3844 090f E703     		.word	0x3e7
 3845 0911 00       		.byte	0
 3846 0912 05       		.uleb128 0x5
 3847 0913 42617263 		.ascii "BarcodeValue_t\0"
 3847      6F646556 
 3847      616C7565 
 3847      5F7400
 3848 0922 10       		.byte	0x10
 3849 0923 07       		.byte	0x7
 3850 0924 02       		.byte	0x2
 3851 0925 E3080000 		.long	0x8e3
GAS LISTING C:\Users\jisu8\AppData\Local\Temp\ccIqWD58.s 			page 97


 3852 0929 04       		.uleb128 0x4
 3853 092a 08       		.byte	0x8
 3854 092b 04       		.byte	0x4
 3855 092c 646F7562 		.ascii "double\0"
 3855      6C6500
 3856 0933 0E       		.uleb128 0xe
 3857 0934 5F696D70 		.ascii "_imp____mb_cur_max\0"
 3857      5F5F5F5F 
 3857      6D625F63 
 3857      75725F6D 
 3857      617800
 3858 0947 11       		.byte	0x11
 3859 0948 73       		.byte	0x73
 3860 0949 10       		.byte	0x10
 3861 094a C0010000 		.long	0x1c0
 3862 094e 01       		.byte	0x1
 3863 094f 01       		.byte	0x1
 3864 0950 0C       		.uleb128 0xc
 3865 0951 45010000 		.long	0x145
 3866 0955 60090000 		.long	0x960
 3867 0959 11       		.uleb128 0x11
 3868 095a D8000000 		.long	0xd8
 3869 095e 00       		.byte	0
 3870 095f 00       		.byte	0
 3871 0960 0E       		.uleb128 0xe
 3872 0961 5F737973 		.ascii "_sys_errlist\0"
 3872      5F657272 
 3872      6C697374 
 3872      00
 3873 096e 11       		.byte	0x11
 3874 096f AC       		.byte	0xac
 3875 0970 26       		.byte	0x26
 3876 0971 50090000 		.long	0x950
 3877 0975 01       		.byte	0x1
 3878 0976 01       		.byte	0x1
 3879 0977 0E       		.uleb128 0xe
 3880 0978 5F737973 		.ascii "_sys_nerr\0"
 3880      5F6E6572 
 3880      7200
 3881 0982 11       		.byte	0x11
 3882 0983 AD       		.byte	0xad
 3883 0984 24       		.byte	0x24
 3884 0985 39010000 		.long	0x139
 3885 0989 01       		.byte	0x1
 3886 098a 01       		.byte	0x1
 3887 098b 12       		.uleb128 0x12
 3888 098c 5F696D70 		.ascii "_imp____argc\0"
 3888      5F5F5F5F 
 3888      61726763 
 3888      00
 3889 0999 11       		.byte	0x11
 3890 099a 1901     		.word	0x119
 3891 099c 10       		.byte	0x10
 3892 099d C0010000 		.long	0x1c0
 3893 09a1 01       		.byte	0x1
 3894 09a2 01       		.byte	0x1
 3895 09a3 12       		.uleb128 0x12
GAS LISTING C:\Users\jisu8\AppData\Local\Temp\ccIqWD58.s 			page 98


 3896 09a4 5F696D70 		.ascii "_imp____argv\0"
 3896      5F5F5F5F 
 3896      61726776 
 3896      00
 3897 09b1 11       		.byte	0x11
 3898 09b2 1D01     		.word	0x11d
 3899 09b4 13       		.byte	0x13
 3900 09b5 BB090000 		.long	0x9bb
 3901 09b9 01       		.byte	0x1
 3902 09ba 01       		.byte	0x1
 3903 09bb 09       		.uleb128 0x9
 3904 09bc 04       		.byte	0x4
 3905 09bd C1090000 		.long	0x9c1
 3906 09c1 09       		.uleb128 0x9
 3907 09c2 04       		.byte	0x4
 3908 09c3 45010000 		.long	0x145
 3909 09c7 12       		.uleb128 0x12
 3910 09c8 5F696D70 		.ascii "_imp____wargv\0"
 3910      5F5F5F5F 
 3910      77617267 
 3910      7600
 3911 09d6 11       		.byte	0x11
 3912 09d7 2101     		.word	0x121
 3913 09d9 16       		.byte	0x16
 3914 09da E0090000 		.long	0x9e0
 3915 09de 01       		.byte	0x1
 3916 09df 01       		.byte	0x1
 3917 09e0 09       		.uleb128 0x9
 3918 09e1 04       		.byte	0x4
 3919 09e2 E6090000 		.long	0x9e6
 3920 09e6 09       		.uleb128 0x9
 3921 09e7 04       		.byte	0x4
 3922 09e8 BA010000 		.long	0x1ba
 3923 09ec 12       		.uleb128 0x12
 3924 09ed 5F696D70 		.ascii "_imp___environ\0"
 3924      5F5F5F65 
 3924      6E766972 
 3924      6F6E00
 3925 09fc 11       		.byte	0x11
 3926 09fd 2701     		.word	0x127
 3927 09ff 13       		.byte	0x13
 3928 0a00 BB090000 		.long	0x9bb
 3929 0a04 01       		.byte	0x1
 3930 0a05 01       		.byte	0x1
 3931 0a06 12       		.uleb128 0x12
 3932 0a07 5F696D70 		.ascii "_imp___wenviron\0"
 3932      5F5F5F77 
 3932      656E7669 
 3932      726F6E00 
 3933 0a17 11       		.byte	0x11
 3934 0a18 2C01     		.word	0x12c
 3935 0a1a 16       		.byte	0x16
 3936 0a1b E0090000 		.long	0x9e0
 3937 0a1f 01       		.byte	0x1
 3938 0a20 01       		.byte	0x1
 3939 0a21 12       		.uleb128 0x12
 3940 0a22 5F696D70 		.ascii "_imp___pgmptr\0"
GAS LISTING C:\Users\jisu8\AppData\Local\Temp\ccIqWD58.s 			page 99


 3940      5F5F5F70 
 3940      676D7074 
 3940      7200
 3941 0a30 11       		.byte	0x11
 3942 0a31 3201     		.word	0x132
 3943 0a33 12       		.byte	0x12
 3944 0a34 C1090000 		.long	0x9c1
 3945 0a38 01       		.byte	0x1
 3946 0a39 01       		.byte	0x1
 3947 0a3a 12       		.uleb128 0x12
 3948 0a3b 5F696D70 		.ascii "_imp___wpgmptr\0"
 3948      5F5F5F77 
 3948      70676D70 
 3948      747200
 3949 0a4a 11       		.byte	0x11
 3950 0a4b 3701     		.word	0x137
 3951 0a4d 15       		.byte	0x15
 3952 0a4e E6090000 		.long	0x9e6
 3953 0a52 01       		.byte	0x1
 3954 0a53 01       		.byte	0x1
 3955 0a54 12       		.uleb128 0x12
 3956 0a55 5F696D70 		.ascii "_imp___osplatform\0"
 3956      5F5F5F6F 
 3956      73706C61 
 3956      74666F72 
 3956      6D00
 3957 0a67 11       		.byte	0x11
 3958 0a68 3C01     		.word	0x13c
 3959 0a6a 19       		.byte	0x19
 3960 0a6b 710A0000 		.long	0xa71
 3961 0a6f 01       		.byte	0x1
 3962 0a70 01       		.byte	0x1
 3963 0a71 09       		.uleb128 0x9
 3964 0a72 04       		.byte	0x4
 3965 0a73 D8000000 		.long	0xd8
 3966 0a77 12       		.uleb128 0x12
 3967 0a78 5F696D70 		.ascii "_imp___osver\0"
 3967      5F5F5F6F 
 3967      73766572 
 3967      00
 3968 0a85 11       		.byte	0x11
 3969 0a86 4101     		.word	0x141
 3970 0a88 19       		.byte	0x19
 3971 0a89 710A0000 		.long	0xa71
 3972 0a8d 01       		.byte	0x1
 3973 0a8e 01       		.byte	0x1
 3974 0a8f 12       		.uleb128 0x12
 3975 0a90 5F696D70 		.ascii "_imp___winver\0"
 3975      5F5F5F77 
 3975      696E7665 
 3975      7200
 3976 0a9e 11       		.byte	0x11
 3977 0a9f 4601     		.word	0x146
 3978 0aa1 19       		.byte	0x19
 3979 0aa2 710A0000 		.long	0xa71
 3980 0aa6 01       		.byte	0x1
 3981 0aa7 01       		.byte	0x1
GAS LISTING C:\Users\jisu8\AppData\Local\Temp\ccIqWD58.s 			page 100


 3982 0aa8 12       		.uleb128 0x12
 3983 0aa9 5F696D70 		.ascii "_imp___winmajor\0"
 3983      5F5F5F77 
 3983      696E6D61 
 3983      6A6F7200 
 3984 0ab9 11       		.byte	0x11
 3985 0aba 4B01     		.word	0x14b
 3986 0abc 19       		.byte	0x19
 3987 0abd 710A0000 		.long	0xa71
 3988 0ac1 01       		.byte	0x1
 3989 0ac2 01       		.byte	0x1
 3990 0ac3 12       		.uleb128 0x12
 3991 0ac4 5F696D70 		.ascii "_imp___winminor\0"
 3991      5F5F5F77 
 3991      696E6D69 
 3991      6E6F7200 
 3992 0ad4 11       		.byte	0x11
 3993 0ad5 5001     		.word	0x150
 3994 0ad7 19       		.byte	0x19
 3995 0ad8 710A0000 		.long	0xa71
 3996 0adc 01       		.byte	0x1
 3997 0add 01       		.byte	0x1
 3998 0ade 0E       		.uleb128 0xe
 3999 0adf 5F616D62 		.ascii "_amblksiz\0"
 3999      6C6B7369 
 3999      7A00
 4000 0ae9 12       		.byte	0x12
 4001 0aea 35       		.byte	0x35
 4002 0aeb 17       		.byte	0x17
 4003 0aec D8000000 		.long	0xd8
 4004 0af0 01       		.byte	0x1
 4005 0af1 01       		.byte	0x1
 4006 0af2 13       		.uleb128 0x13
 4007 0af3 434F4445 		.ascii "CODEWORD_SKEW_SIZE\0"
 4007      574F5244 
 4007      5F534B45 
 4007      575F5349 
 4007      5A4500
 4008 0b06 01       		.byte	0x1
 4009 0b07 0C       		.byte	0xc
 4010 0b08 12       		.byte	0x12
 4011 0b09 40010000 		.long	0x140
 4012 0b0d 05       		.byte	0x5
 4013 0b0e 03       		.byte	0x3
 4014 0b0f 00000000 		.long	_CODEWORD_SKEW_SIZE
 4015 0b13 13       		.uleb128 0x13
 4016 0b14 4D41585F 		.ascii "MAX_ERRORS\0"
 4016      4552524F 
 4016      525300
 4017 0b1f 01       		.byte	0x1
 4018 0b20 0D       		.byte	0xd
 4019 0b21 12       		.byte	0x12
 4020 0b22 40010000 		.long	0x140
 4021 0b26 05       		.byte	0x5
 4022 0b27 03       		.byte	0x3
 4023 0b28 04000000 		.long	_MAX_ERRORS
 4024 0b2c 13       		.uleb128 0x13
GAS LISTING C:\Users\jisu8\AppData\Local\Temp\ccIqWD58.s 			page 101


 4025 0b2d 4D41585F 		.ascii "MAX_EC_CODEWORDS\0"
 4025      45435F43 
 4025      4F444557 
 4025      4F524453 
 4025      00
 4026 0b3e 01       		.byte	0x1
 4027 0b3f 0E       		.byte	0xe
 4028 0b40 12       		.byte	0x12
 4029 0b41 40010000 		.long	0x140
 4030 0b45 05       		.byte	0x5
 4031 0b46 03       		.byte	0x3
 4032 0b47 08000000 		.long	_MAX_EC_CODEWORDS
 4033 0b4b 14       		.uleb128 0x14
 4034 0b4c D1070000 		.long	0x7d1
 4035 0b50 01       		.byte	0x1
 4036 0b51 0F       		.byte	0xf
 4037 0b52 0B       		.byte	0xb
 4038 0b53 05       		.byte	0x5
 4039 0b54 03       		.byte	0x3
 4040 0b55 0C000000 		.long	_BARCODE_ROW_UNKNOWN
 4041 0b59 0C       		.uleb128 0xc
 4042 0b5a 39010000 		.long	0x139
 4043 0b5e 690B0000 		.long	0xb69
 4044 0b62 11       		.uleb128 0x11
 4045 0b63 D8000000 		.long	0xd8
 4046 0b67 07       		.byte	0x7
 4047 0b68 00       		.byte	0
 4048 0b69 15       		.uleb128 0x15
 4049 0b6a 72657375 		.ascii "result_bits\0"
 4049      6C745F62 
 4049      69747300 
 4050 0b76 01       		.byte	0x1
 4051 0b77 11       		.byte	0x11
 4052 0b78 05       		.byte	0x5
 4053 0b79 590B0000 		.long	0xb59
 4054 0b7d 01       		.byte	0x1
 4055 0b7e 05       		.byte	0x5
 4056 0b7f 03       		.byte	0x3
 4057 0b80 00000000 		.long	_result_bits
 4058 0b84 15       		.uleb128 0x15
 4059 0b85 436F6465 		.ascii "CodeWord\0"
 4059      576F7264 
 4059      00
 4060 0b8e 01       		.byte	0x1
 4061 0b8f 13       		.byte	0x13
 4062 0b90 0C       		.byte	0xc
 4063 0b91 21060000 		.long	0x621
 4064 0b95 01       		.byte	0x1
 4065 0b96 05       		.byte	0x5
 4066 0b97 03       		.byte	0x3
 4067 0b98 00000000 		.long	_CodeWord
 4068 0b9c 14       		.uleb128 0x14
 4069 0b9d EF070000 		.long	0x7ef
 4070 0ba1 01       		.byte	0x1
 4071 0ba2 14       		.byte	0x14
 4072 0ba3 19       		.byte	0x19
 4073 0ba4 05       		.byte	0x5
GAS LISTING C:\Users\jisu8\AppData\Local\Temp\ccIqWD58.s 			page 102


 4074 0ba5 03       		.byte	0x3
 4075 0ba6 00000000 		.long	_rowIndicatorColumn
 4076 0baa 16       		.uleb128 0x16
 4077 0bab 01       		.byte	0x1
 4078 0bac 4465636F 		.ascii "Decode\0"
 4078      646500
 4079 0bb3 01       		.byte	0x1
 4080 0bb4 8F03     		.word	0x38f
 4081 0bb6 13       		.byte	0x13
 4082 0bb7 01       		.byte	0x1
 4083 0bb8 DE0D0000 		.long	0xdde
 4084 0bbc 74120000 		.long	LFB29
 4085 0bc0 E1160000 		.long	LFE29
 4086 0bc4 00000000 		.secrel32	LLST24
 4087 0bc8 01       		.byte	0x1
 4088 0bc9 DE0D0000 		.long	0xdde
 4089 0bcd 17       		.uleb128 0x17
 4090 0bce 7E000000 		.secrel32	LASF4
 4091 0bd2 01       		.byte	0x1
 4092 0bd3 8F03     		.word	0x38f
 4093 0bd5 2E       		.byte	0x2e
 4094 0bd6 E40D0000 		.long	0xde4
 4095 0bda 02       		.byte	0x2
 4096 0bdb 91       		.byte	0x91
 4097 0bdc 00       		.sleb128 0
 4098 0bdd 18       		.uleb128 0x18
 4099 0bde 696D6167 		.ascii "imageTopLeft\0"
 4099      65546F70 
 4099      4C656674 
 4099      00
 4100 0beb 01       		.byte	0x1
 4101 0bec 8F03     		.word	0x38f
 4102 0bee 43       		.byte	0x43
 4103 0bef 30040000 		.long	0x430
 4104 0bf3 02       		.byte	0x2
 4105 0bf4 91       		.byte	0x91
 4106 0bf5 04       		.sleb128 4
 4107 0bf6 18       		.uleb128 0x18
 4108 0bf7 696D6167 		.ascii "imageBottomLeft\0"
 4108      65426F74 
 4108      746F6D4C 
 4108      65667400 
 4109 0c07 01       		.byte	0x1
 4110 0c08 8F03     		.word	0x38f
 4111 0c0a 5F       		.byte	0x5f
 4112 0c0b 30040000 		.long	0x430
 4113 0c0f 02       		.byte	0x2
 4114 0c10 91       		.byte	0x91
 4115 0c11 10       		.sleb128 16
 4116 0c12 18       		.uleb128 0x18
 4117 0c13 696D6167 		.ascii "imageTopRight\0"
 4117      65546F70 
 4117      52696768 
 4117      7400
 4118 0c21 01       		.byte	0x1
 4119 0c22 9003     		.word	0x390
 4120 0c24 10       		.byte	0x10
GAS LISTING C:\Users\jisu8\AppData\Local\Temp\ccIqWD58.s 			page 103


 4121 0c25 30040000 		.long	0x430
 4122 0c29 02       		.byte	0x2
 4123 0c2a 91       		.byte	0x91
 4124 0c2b 1C       		.sleb128 28
 4125 0c2c 18       		.uleb128 0x18
 4126 0c2d 696D6167 		.ascii "imageBottomRight\0"
 4126      65426F74 
 4126      746F6D52 
 4126      69676874 
 4126      00
 4127 0c3e 01       		.byte	0x1
 4128 0c3f 9003     		.word	0x390
 4129 0c41 2D       		.byte	0x2d
 4130 0c42 30040000 		.long	0x430
 4131 0c46 02       		.byte	0x2
 4132 0c47 91       		.byte	0x91
 4133 0c48 28       		.sleb128 40
 4134 0c49 17       		.uleb128 0x17
 4135 0c4a C3000000 		.secrel32	LASF5
 4136 0c4e 01       		.byte	0x1
 4137 0c4f 9103     		.word	0x391
 4138 0c51 06       		.byte	0x6
 4139 0c52 39010000 		.long	0x139
 4140 0c56 02       		.byte	0x2
 4141 0c57 91       		.byte	0x91
 4142 0c58 34       		.sleb128 52
 4143 0c59 17       		.uleb128 0x17
 4144 0c5a 21000000 		.secrel32	LASF6
 4145 0c5e 01       		.byte	0x1
 4146 0c5f 9103     		.word	0x391
 4147 0c61 1C       		.byte	0x1c
 4148 0c62 39010000 		.long	0x139
 4149 0c66 02       		.byte	0x2
 4150 0c67 91       		.byte	0x91
 4151 0c68 38       		.sleb128 56
 4152 0c69 17       		.uleb128 0x17
 4153 0c6a 29010000 		.secrel32	LASF7
 4154 0c6e 01       		.byte	0x1
 4155 0c6f 9103     		.word	0x391
 4156 0c71 44       		.byte	0x44
 4157 0c72 DB010000 		.long	0x1db
 4158 0c76 02       		.byte	0x2
 4159 0c77 91       		.byte	0x91
 4160 0c78 3C       		.sleb128 60
 4161 0c79 19       		.uleb128 0x19
 4162 0c7a B7000000 		.secrel32	LASF8
 4163 0c7e 01       		.byte	0x1
 4164 0c7f 9303     		.word	0x393
 4165 0c81 10       		.byte	0x10
 4166 0c82 5E050000 		.long	0x55e
 4167 0c86 03       		.byte	0x3
 4168 0c87 91       		.byte	0x91
 4169 0c88 E87E     		.sleb128 -152
 4170 0c8a 19       		.uleb128 0x19
 4171 0c8b 50010000 		.secrel32	LASF9
 4172 0c8f 01       		.byte	0x1
 4173 0c90 9803     		.word	0x398
GAS LISTING C:\Users\jisu8\AppData\Local\Temp\ccIqWD58.s 			page 104


 4174 0c92 06       		.byte	0x6
 4175 0c93 39010000 		.long	0x139
 4176 0c97 02       		.byte	0x2
 4177 0c98 91       		.byte	0x91
 4178 0c99 5C       		.sleb128 -36
 4179 0c9a 19       		.uleb128 0x19
 4180 0c9b 96000000 		.secrel32	LASF10
 4181 0c9f 01       		.byte	0x1
 4182 0ca0 9A03     		.word	0x39a
 4183 0ca2 1A       		.byte	0x1a
 4184 0ca3 B1070000 		.long	0x7b1
 4185 0ca7 04       		.byte	0x4
 4186 0ca8 91       		.byte	0x91
 4187 0ca9 B4A07F   		.sleb128 -12236
 4188 0cac 19       		.uleb128 0x19
 4189 0cad 00000000 		.secrel32	LASF11
 4190 0cb1 01       		.byte	0x1
 4191 0cb2 9B03     		.word	0x39b
 4192 0cb4 1A       		.byte	0x1a
 4193 0cb5 B1070000 		.long	0x7b1
 4194 0cb9 04       		.byte	0x4
 4195 0cba 91       		.byte	0x91
 4196 0cbb 80C27E   		.sleb128 -24320
 4197 0cbe 19       		.uleb128 0x19
 4198 0cbf 06010000 		.secrel32	LASF12
 4199 0cc3 01       		.byte	0x1
 4200 0cc4 9C03     		.word	0x39c
 4201 0cc6 14       		.byte	0x14
 4202 0cc7 6A080000 		.long	0x86a
 4203 0ccb 05       		.byte	0x5
 4204 0ccc 91       		.byte	0x91
 4205 0ccd D4E0B47F 		.sleb128 -1232812
 4206 0cd1 1A       		.uleb128 0x1a
 4207 0cd2 6D617842 		.ascii "maxBarcodeColumn\0"
 4207      6172636F 
 4207      6465436F 
 4207      6C756D6E 
 4207      00
 4208 0ce3 01       		.byte	0x1
 4209 0ce4 B603     		.word	0x3b6
 4210 0ce6 06       		.byte	0x6
 4211 0ce7 39010000 		.long	0x139
 4212 0ceb 02       		.byte	0x2
 4213 0cec 91       		.byte	0x91
 4214 0ced 40       		.sleb128 -64
 4215 0cee 19       		.uleb128 0x19
 4216 0cef 1D010000 		.secrel32	LASF13
 4217 0cf3 01       		.byte	0x1
 4218 0cf4 BA03     		.word	0x3ba
 4219 0cf6 0A       		.byte	0xa
 4220 0cf7 22020000 		.long	0x222
 4221 0cfb 02       		.byte	0x2
 4222 0cfc 91       		.byte	0x91
 4223 0cfd 57       		.sleb128 -41
 4224 0cfe 1B       		.uleb128 0x1b
 4225 0cff 10130000 		.long	LBB20
 4226 0d03 4C140000 		.long	LBE20
GAS LISTING C:\Users\jisu8\AppData\Local\Temp\ccIqWD58.s 			page 105


 4227 0d07 1A0D0000 		.long	0xd1a
 4228 0d0b 1A       		.uleb128 0x1a
 4229 0d0c 6900     		.ascii "i\0"
 4230 0d0e 01       		.byte	0x1
 4231 0d0f 9D03     		.word	0x39d
 4232 0d11 0B       		.byte	0xb
 4233 0d12 39010000 		.long	0x139
 4234 0d16 02       		.byte	0x2
 4235 0d17 91       		.byte	0x91
 4236 0d18 58       		.sleb128 -40
 4237 0d19 00       		.byte	0
 4238 0d1a 1C       		.uleb128 0x1c
 4239 0d1b BE140000 		.long	LBB21
 4240 0d1f BA160000 		.long	LBE21
 4241 0d23 1A       		.uleb128 0x1a
 4242 0d24 62617263 		.ascii "barcodeColumnCount\0"
 4242      6F646543 
 4242      6F6C756D 
 4242      6E436F75 
 4242      6E7400
 4243 0d37 01       		.byte	0x1
 4244 0d38 C503     		.word	0x3c5
 4245 0d3a 0B       		.byte	0xb
 4246 0d3b 39010000 		.long	0x139
 4247 0d3f 02       		.byte	0x2
 4248 0d40 91       		.byte	0x91
 4249 0d41 50       		.sleb128 -48
 4250 0d42 1C       		.uleb128 0x1c
 4251 0d43 CA140000 		.long	LBB22
 4252 0d47 AA160000 		.long	LBE22
 4253 0d4b 19       		.uleb128 0x19
 4254 0d4c 70000000 		.secrel32	LASF14
 4255 0d50 01       		.byte	0x1
 4256 0d51 C703     		.word	0x3c7
 4257 0d53 07       		.byte	0x7
 4258 0d54 39010000 		.long	0x139
 4259 0d58 03       		.byte	0x3
 4260 0d59 91       		.byte	0x91
 4261 0d5a BC7F     		.sleb128 -68
 4262 0d5c 1A       		.uleb128 0x1a
 4263 0d5d 726F7749 		.ascii "rowIndicator\0"
 4263      6E646963 
 4263      61746F72 
 4263      00
 4264 0d6a 01       		.byte	0x1
 4265 0d6b CD03     		.word	0x3cd
 4266 0d6d 12       		.byte	0x12
 4267 0d6e F2060000 		.long	0x6f2
 4268 0d72 03       		.byte	0x3
 4269 0d73 91       		.byte	0x91
 4270 0d74 B87F     		.sleb128 -72
 4271 0d76 19       		.uleb128 0x19
 4272 0d77 44000000 		.secrel32	LASF15
 4273 0d7b 01       		.byte	0x1
 4274 0d7c CF03     		.word	0x3cf
 4275 0d7e 07       		.byte	0x7
 4276 0d7f 39010000 		.long	0x139
GAS LISTING C:\Users\jisu8\AppData\Local\Temp\ccIqWD58.s 			page 106


 4277 0d83 02       		.byte	0x2
 4278 0d84 91       		.byte	0x91
 4279 0d85 4C       		.sleb128 -52
 4280 0d86 1A       		.uleb128 0x1a
 4281 0d87 70726576 		.ascii "previousStartColumn\0"
 4281      696F7573 
 4281      53746172 
 4281      74436F6C 
 4281      756D6E00 
 4282 0d9b 01       		.byte	0x1
 4283 0d9c D003     		.word	0x3d0
 4284 0d9e 07       		.byte	0x7
 4285 0d9f 39010000 		.long	0x139
 4286 0da3 02       		.byte	0x2
 4287 0da4 91       		.byte	0x91
 4288 0da5 48       		.sleb128 -56
 4289 0da6 1C       		.uleb128 0x1c
 4290 0da7 5A150000 		.long	LBB23
 4291 0dab A9160000 		.long	LBE23
 4292 0daf 19       		.uleb128 0x19
 4293 0db0 8D000000 		.secrel32	LASF16
 4294 0db4 01       		.byte	0x1
 4295 0db5 D203     		.word	0x3d2
 4296 0db7 0C       		.byte	0xc
 4297 0db8 39010000 		.long	0x139
 4298 0dbc 02       		.byte	0x2
 4299 0dbd 91       		.byte	0x91
 4300 0dbe 44       		.sleb128 -60
 4301 0dbf 1C       		.uleb128 0x1c
 4302 0dc0 65150000 		.long	LBB24
 4303 0dc4 97160000 		.long	LBE24
 4304 0dc8 19       		.uleb128 0x19
 4305 0dc9 84000000 		.secrel32	LASF17
 4306 0dcd 01       		.byte	0x1
 4307 0dce DD03     		.word	0x3dd
 4308 0dd0 11       		.byte	0x11
 4309 0dd1 EA0D0000 		.long	0xdea
 4310 0dd5 03       		.byte	0x3
 4311 0dd6 91       		.byte	0x91
 4312 0dd7 B47F     		.sleb128 -76
 4313 0dd9 00       		.byte	0
 4314 0dda 00       		.byte	0
 4315 0ddb 00       		.byte	0
 4316 0ddc 00       		.byte	0
 4317 0ddd 00       		.byte	0
 4318 0dde 09       		.uleb128 0x9
 4319 0ddf 04       		.byte	0x4
 4320 0de0 46030000 		.long	0x346
 4321 0de4 09       		.uleb128 0x9
 4322 0de5 04       		.byte	0x4
 4323 0de6 C5030000 		.long	0x3c5
 4324 0dea 09       		.uleb128 0x9
 4325 0deb 04       		.byte	0x4
 4326 0dec 21060000 		.long	0x621
 4327 0df0 1D       		.uleb128 0x1d
 4328 0df1 43726561 		.ascii "CreateDecoderResult\0"
 4328      74654465 
GAS LISTING C:\Users\jisu8\AppData\Local\Temp\ccIqWD58.s 			page 107


 4328      636F6465 
 4328      72526573 
 4328      756C7400 
 4329 0e05 01       		.byte	0x1
 4330 0e06 6303     		.word	0x363
 4331 0e08 1A       		.byte	0x1a
 4332 0e09 01       		.byte	0x1
 4333 0e0a DE0D0000 		.long	0xdde
 4334 0e0e 89110000 		.long	LFB28
 4335 0e12 74120000 		.long	LFE28
 4336 0e16 38000000 		.secrel32	LLST23
 4337 0e1a 01       		.byte	0x1
 4338 0e1b B80E0000 		.long	0xeb8
 4339 0e1f 17       		.uleb128 0x17
 4340 0e20 06010000 		.secrel32	LASF12
 4341 0e24 01       		.byte	0x1
 4342 0e25 6303     		.word	0x363
 4343 0e27 42       		.byte	0x42
 4344 0e28 B80E0000 		.long	0xeb8
 4345 0e2c 02       		.byte	0x2
 4346 0e2d 91       		.byte	0x91
 4347 0e2e 00       		.sleb128 0
 4348 0e2f 17       		.uleb128 0x17
 4349 0e30 29010000 		.secrel32	LASF7
 4350 0e34 01       		.byte	0x1
 4351 0e35 6303     		.word	0x363
 4352 0e37 69       		.byte	0x69
 4353 0e38 DB010000 		.long	0x1db
 4354 0e3c 02       		.byte	0x2
 4355 0e3d 91       		.byte	0x91
 4356 0e3e 04       		.sleb128 4
 4357 0e3f 18       		.uleb128 0x18
 4358 0e40 73697A65 		.ascii "size\0"
 4358      00
 4359 0e45 01       		.byte	0x1
 4360 0e46 6303     		.word	0x363
 4361 0e48 7A       		.byte	0x7a
 4362 0e49 39010000 		.long	0x139
 4363 0e4d 02       		.byte	0x2
 4364 0e4e 91       		.byte	0x91
 4365 0e4f 08       		.sleb128 8
 4366 0e50 19       		.uleb128 0x19
 4367 0e51 E5000000 		.secrel32	LASF18
 4368 0e55 01       		.byte	0x1
 4369 0e56 6503     		.word	0x365
 4370 0e58 13       		.byte	0x13
 4371 0e59 BE0E0000 		.long	0xebe
 4372 0e5d 02       		.byte	0x2
 4373 0e5e 91       		.byte	0x91
 4374 0e5f 5C       		.sleb128 -36
 4375 0e60 1A       		.uleb128 0x1a
 4376 0e61 65726173 		.ascii "erasures\0"
 4376      75726573 
 4376      00
 4377 0e6a 01       		.byte	0x1
 4378 0e6b 6B03     		.word	0x36b
 4379 0e6d 06       		.byte	0x6
GAS LISTING C:\Users\jisu8\AppData\Local\Temp\ccIqWD58.s 			page 108


 4380 0e6e 39010000 		.long	0x139
 4381 0e72 02       		.byte	0x2
 4382 0e73 91       		.byte	0x91
 4383 0e74 48       		.sleb128 -56
 4384 0e75 19       		.uleb128 0x19
 4385 0e76 DB000000 		.secrel32	LASF19
 4386 0e7a 01       		.byte	0x1
 4387 0e7b 6C03     		.word	0x36c
 4388 0e7d 06       		.byte	0x6
 4389 0e7e C40E0000 		.long	0xec4
 4390 0e82 03       		.byte	0x3
 4391 0e83 91       		.byte	0x91
 4392 0e84 54       		.sleb128 -44
 4393 0e85 06       		.byte	0x6
 4394 0e86 19       		.uleb128 0x19
 4395 0e87 61010000 		.secrel32	LASF20
 4396 0e8b 01       		.byte	0x1
 4397 0e8c 6D03     		.word	0x36d
 4398 0e8e 06       		.byte	0x6
 4399 0e8f 39010000 		.long	0x139
 4400 0e93 02       		.byte	0x2
 4401 0e94 91       		.byte	0x91
 4402 0e95 50       		.sleb128 -48
 4403 0e96 1A       		.uleb128 0x1a
 4404 0e97 616D6269 		.ascii "ambiguousIndexesList\0"
 4404      67756F75 
 4404      73496E64 
 4404      65786573 
 4404      4C697374 
 4405 0eac 01       		.byte	0x1
 4406 0ead 6E03     		.word	0x36e
 4407 0eaf 06       		.byte	0x6
 4408 0eb0 39010000 		.long	0x139
 4409 0eb4 02       		.byte	0x2
 4410 0eb5 91       		.byte	0x91
 4411 0eb6 4C       		.sleb128 -52
 4412 0eb7 00       		.byte	0
 4413 0eb8 09       		.uleb128 0x9
 4414 0eb9 04       		.byte	0x4
 4415 0eba 6A080000 		.long	0x86a
 4416 0ebe 09       		.uleb128 0x9
 4417 0ebf 04       		.byte	0x4
 4418 0ec0 12090000 		.long	0x912
 4419 0ec4 0C       		.uleb128 0xc
 4420 0ec5 39010000 		.long	0x139
 4421 0ec9 D70E0000 		.long	0xed7
 4422 0ecd 1E       		.uleb128 0x1e
 4423 0ece D8000000 		.long	0xd8
 4424 0ed2 03       		.byte	0x3
 4425 0ed3 91       		.byte	0x91
 4426 0ed4 58       		.sleb128 -40
 4427 0ed5 06       		.byte	0x6
 4428 0ed6 00       		.byte	0
 4429 0ed7 1F       		.uleb128 0x1f
 4430 0ed8 43726561 		.ascii "CreateDecoderResultFromAmbiguousValues\0"
 4430      74654465 
 4430      636F6465 
GAS LISTING C:\Users\jisu8\AppData\Local\Temp\ccIqWD58.s 			page 109


 4430      72526573 
 4430      756C7446 
 4431 0eff 01       		.byte	0x1
 4432 0f00 3503     		.word	0x335
 4433 0f02 1A       		.byte	0x1a
 4434 0f03 01       		.byte	0x1
 4435 0f04 DE0D0000 		.long	0xdde
 4436 0f08 83110000 		.long	LFB27
 4437 0f0c 89110000 		.long	LFE27
 4438 0f10 02       		.byte	0x2
 4439 0f11 74       		.byte	0x74
 4440 0f12 04       		.sleb128 4
 4441 0f13 01       		.byte	0x1
 4442 0f14 930F0000 		.long	0xf93
 4443 0f18 18       		.uleb128 0x18
 4444 0f19 65634C65 		.ascii "ecLevel\0"
 4444      76656C00 
 4445 0f21 01       		.byte	0x1
 4446 0f22 3503     		.word	0x335
 4447 0f24 45       		.byte	0x45
 4448 0f25 39010000 		.long	0x139
 4449 0f29 02       		.byte	0x2
 4450 0f2a 91       		.byte	0x91
 4451 0f2b 00       		.sleb128 0
 4452 0f2c 17       		.uleb128 0x17
 4453 0f2d DB000000 		.secrel32	LASF19
 4454 0f31 01       		.byte	0x1
 4455 0f32 3503     		.word	0x335
 4456 0f34 54       		.byte	0x54
 4457 0f35 C0010000 		.long	0x1c0
 4458 0f39 02       		.byte	0x2
 4459 0f3a 91       		.byte	0x91
 4460 0f3b 04       		.sleb128 4
 4461 0f3c 18       		.uleb128 0x18
 4462 0f3d 65726173 		.ascii "erasureArray\0"
 4462      75726541 
 4462      72726179 
 4462      00
 4463 0f4a 01       		.byte	0x1
 4464 0f4b 3603     		.word	0x336
 4465 0f4d 0E       		.byte	0xe
 4466 0f4e 930F0000 		.long	0xf93
 4467 0f52 02       		.byte	0x2
 4468 0f53 91       		.byte	0x91
 4469 0f54 08       		.sleb128 8
 4470 0f55 18       		.uleb128 0x18
 4471 0f56 616D6269 		.ascii "ambiguousIndexes\0"
 4471      67756F75 
 4471      73496E64 
 4471      65786573 
 4471      00
 4472 0f67 01       		.byte	0x1
 4473 0f68 3603     		.word	0x336
 4474 0f6a 28       		.byte	0x28
 4475 0f6b 930F0000 		.long	0xf93
 4476 0f6f 02       		.byte	0x2
 4477 0f70 91       		.byte	0x91
GAS LISTING C:\Users\jisu8\AppData\Local\Temp\ccIqWD58.s 			page 110


 4478 0f71 0C       		.sleb128 12
 4479 0f72 17       		.uleb128 0x17
 4480 0f73 61010000 		.secrel32	LASF20
 4481 0f77 01       		.byte	0x1
 4482 0f78 3703     		.word	0x337
 4483 0f7a 0E       		.byte	0xe
 4484 0f7b 930F0000 		.long	0xf93
 4485 0f7f 02       		.byte	0x2
 4486 0f80 91       		.byte	0x91
 4487 0f81 10       		.sleb128 16
 4488 0f82 17       		.uleb128 0x17
 4489 0f83 29010000 		.secrel32	LASF7
 4490 0f87 01       		.byte	0x1
 4491 0f88 3703     		.word	0x337
 4492 0f8a 31       		.byte	0x31
 4493 0f8b 990F0000 		.long	0xf99
 4494 0f8f 02       		.byte	0x2
 4495 0f90 91       		.byte	0x91
 4496 0f91 14       		.sleb128 20
 4497 0f92 00       		.byte	0
 4498 0f93 09       		.uleb128 0x9
 4499 0f94 04       		.byte	0x4
 4500 0f95 40010000 		.long	0x140
 4501 0f99 09       		.uleb128 0x9
 4502 0f9a 04       		.byte	0x4
 4503 0f9b 53010000 		.long	0x153
 4504 0f9f 1D       		.uleb128 0x1d
 4505 0fa0 41646A75 		.ascii "AdjustCodewordCount\0"
 4505      7374436F 
 4505      6465776F 
 4505      7264436F 
 4505      756E7400 
 4506 0fb4 01       		.byte	0x1
 4507 0fb5 F501     		.word	0x1f5
 4508 0fb7 10       		.byte	0x10
 4509 0fb8 01       		.byte	0x1
 4510 0fb9 22020000 		.long	0x222
 4511 0fbd 6A110000 		.long	LFB26
 4512 0fc1 83110000 		.long	LFE26
 4513 0fc5 70000000 		.secrel32	LLST22
 4514 0fc9 01       		.byte	0x1
 4515 0fca 15100000 		.long	0x1015
 4516 0fce 17       		.uleb128 0x17
 4517 0fcf 06010000 		.secrel32	LASF12
 4518 0fd3 01       		.byte	0x1
 4519 0fd4 F501     		.word	0x1f5
 4520 0fd6 3E       		.byte	0x3e
 4521 0fd7 15100000 		.long	0x1015
 4522 0fdb 02       		.byte	0x2
 4523 0fdc 91       		.byte	0x91
 4524 0fdd 00       		.sleb128 0
 4525 0fde 17       		.uleb128 0x17
 4526 0fdf E5000000 		.secrel32	LASF18
 4527 0fe3 01       		.byte	0x1
 4528 0fe4 F501     		.word	0x1f5
 4529 0fe6 60       		.byte	0x60
 4530 0fe7 BE0E0000 		.long	0xebe
GAS LISTING C:\Users\jisu8\AppData\Local\Temp\ccIqWD58.s 			page 111


 4531 0feb 02       		.byte	0x2
 4532 0fec 91       		.byte	0x91
 4533 0fed 04       		.sleb128 4
 4534 0fee 18       		.uleb128 0x18
 4535 0fef 73697A65 		.ascii "size\0"
 4535      00
 4536 0ff4 01       		.byte	0x1
 4537 0ff5 F501     		.word	0x1f5
 4538 0ff7 72       		.byte	0x72
 4539 0ff8 39010000 		.long	0x139
 4540 0ffc 02       		.byte	0x2
 4541 0ffd 91       		.byte	0x91
 4542 0ffe 08       		.sleb128 8
 4543 0fff 20       		.uleb128 0x20
 4544 1000 01       		.byte	0x1
 4545 1001 16010000 		.secrel32	LASF21
 4546 1005 13       		.byte	0x13
 4547 1006 00       		.byte	0
 4548 1007 01       		.byte	0x1
 4549 1008 39010000 		.long	0x139
 4550 100c 01       		.byte	0x1
 4551 100d 21       		.uleb128 0x21
 4552 100e 990F0000 		.long	0xf99
 4553 1012 22       		.uleb128 0x22
 4554 1013 00       		.byte	0
 4555 1014 00       		.byte	0
 4556 1015 09       		.uleb128 0x9
 4557 1016 04       		.byte	0x4
 4558 1017 84080000 		.long	0x884
 4559 101b 23       		.uleb128 0x23
 4560 101c 4765744E 		.ascii "GetNumberOfECCodeWords\0"
 4560      756D6265 
 4560      724F6645 
 4560      43436F64 
 4560      65576F72 
 4561 1033 01       		.byte	0x1
 4562 1034 EF01     		.word	0x1ef
 4563 1036 0C       		.byte	0xc
 4564 1037 01       		.byte	0x1
 4565 1038 39010000 		.long	0x139
 4566 103c 57110000 		.long	LFB25
 4567 1040 6A110000 		.long	LFE25
 4568 1044 A8000000 		.secrel32	LLST21
 4569 1048 01       		.byte	0x1
 4570 1049 69100000 		.long	0x1069
 4571 104d 18       		.uleb128 0x18
 4572 104e 62617263 		.ascii "barcodeECLevel\0"
 4572      6F646545 
 4572      434C6576 
 4572      656C00
 4573 105d 01       		.byte	0x1
 4574 105e EF01     		.word	0x1ef
 4575 1060 27       		.byte	0x27
 4576 1061 39010000 		.long	0x139
 4577 1065 02       		.byte	0x2
 4578 1066 91       		.byte	0x91
 4579 1067 00       		.sleb128 0
GAS LISTING C:\Users\jisu8\AppData\Local\Temp\ccIqWD58.s 			page 112


 4580 1068 00       		.byte	0
 4581 1069 1D       		.uleb128 0x1d
 4582 106a 43726561 		.ascii "CreateBarcodeMatrix\0"
 4582      74654261 
 4582      72636F64 
 4582      654D6174 
 4582      72697800 
 4583 107e 01       		.byte	0x1
 4584 107f C701     		.word	0x1c7
 4585 1081 19       		.byte	0x19
 4586 1082 01       		.byte	0x1
 4587 1083 BE0E0000 		.long	0xebe
 4588 1087 B40E0000 		.long	LFB24
 4589 108b 57110000 		.long	LFE24
 4590 108f E0000000 		.secrel32	LLST20
 4591 1093 01       		.byte	0x1
 4592 1094 A5110000 		.long	0x11a5
 4593 1098 17       		.uleb128 0x17
 4594 1099 06010000 		.secrel32	LASF12
 4595 109d 01       		.byte	0x1
 4596 109e C701     		.word	0x1c7
 4597 10a0 41       		.byte	0x41
 4598 10a1 B80E0000 		.long	0xeb8
 4599 10a5 02       		.byte	0x2
 4600 10a6 91       		.byte	0x91
 4601 10a7 00       		.sleb128 0
 4602 10a8 18       		.uleb128 0x18
 4603 10a9 73697A65 		.ascii "size\0"
 4603      00
 4604 10ae 01       		.byte	0x1
 4605 10af C701     		.word	0x1c7
 4606 10b1 55       		.byte	0x55
 4607 10b2 39010000 		.long	0x139
 4608 10b6 02       		.byte	0x2
 4609 10b7 91       		.byte	0x91
 4610 10b8 04       		.sleb128 4
 4611 10b9 24       		.uleb128 0x24
 4612 10ba 01       		.byte	0x1
 4613 10bb 16010000 		.secrel32	LASF21
 4614 10bf 13       		.byte	0x13
 4615 10c0 00       		.byte	0
 4616 10c1 01       		.byte	0x1
 4617 10c2 39010000 		.long	0x139
 4618 10c6 01       		.byte	0x1
 4619 10c7 D2100000 		.long	0x10d2
 4620 10cb 21       		.uleb128 0x21
 4621 10cc 990F0000 		.long	0xf99
 4622 10d0 22       		.uleb128 0x22
 4623 10d1 00       		.byte	0
 4624 10d2 1A       		.uleb128 0x1a
 4625 10d3 636F6C75 		.ascii "column\0"
 4625      6D6E00
 4626 10da 01       		.byte	0x1
 4627 10db CB01     		.word	0x1cb
 4628 10dd 06       		.byte	0x6
 4629 10de 39010000 		.long	0x139
 4630 10e2 02       		.byte	0x2
GAS LISTING C:\Users\jisu8\AppData\Local\Temp\ccIqWD58.s 			page 113


 4631 10e3 91       		.byte	0x91
 4632 10e4 50       		.sleb128 -48
 4633 10e5 1A       		.uleb128 0x1a
 4634 10e6 726F7700 		.ascii "row\0"
 4635 10ea 01       		.byte	0x1
 4636 10eb CC01     		.word	0x1cc
 4637 10ed 06       		.byte	0x6
 4638 10ee 39010000 		.long	0x139
 4639 10f2 02       		.byte	0x2
 4640 10f3 91       		.byte	0x91
 4641 10f4 4C       		.sleb128 -52
 4642 10f5 19       		.uleb128 0x19
 4643 10f6 E5000000 		.secrel32	LASF18
 4644 10fa 01       		.byte	0x1
 4645 10fb CD01     		.word	0x1cd
 4646 10fd 11       		.byte	0x11
 4647 10fe A5110000 		.long	0x11a5
 4648 1102 03       		.byte	0x3
 4649 1103 91       		.byte	0x91
 4650 1104 40       		.sleb128 -64
 4651 1105 06       		.byte	0x6
 4652 1106 1A       		.uleb128 0x1a
 4653 1107 636F6C75 		.ascii "columnNum\0"
 4653      6D6E4E75 
 4653      6D00
 4654 1111 01       		.byte	0x1
 4655 1112 CF01     		.word	0x1cf
 4656 1114 06       		.byte	0x6
 4657 1115 39010000 		.long	0x139
 4658 1119 02       		.byte	0x2
 4659 111a 91       		.byte	0x91
 4660 111b 54       		.sleb128 -44
 4661 111c 1A       		.uleb128 0x1a
 4662 111d 72657375 		.ascii "resultColumn\0"
 4662      6C74436F 
 4662      6C756D6E 
 4662      00
 4663 112a 01       		.byte	0x1
 4664 112b D101     		.word	0x1d1
 4665 112d 1A       		.byte	0x1a
 4666 112e B1070000 		.long	0x7b1
 4667 1132 04       		.byte	0x4
 4668 1133 91       		.byte	0x91
 4669 1134 88A17F   		.sleb128 -12152
 4670 1137 1C       		.uleb128 0x1c
 4671 1138 4E100000 		.long	LBB16
 4672 113c 44110000 		.long	LBE16
 4673 1140 1A       		.uleb128 0x1a
 4674 1141 6900     		.ascii "i\0"
 4675 1143 01       		.byte	0x1
 4676 1144 D301     		.word	0x1d3
 4677 1146 0B       		.byte	0xb
 4678 1147 39010000 		.long	0x139
 4679 114b 02       		.byte	0x2
 4680 114c 91       		.byte	0x91
 4681 114d 58       		.sleb128 -40
 4682 114e 1C       		.uleb128 0x1c
GAS LISTING C:\Users\jisu8\AppData\Local\Temp\ccIqWD58.s 			page 114


 4683 114f 69100000 		.long	LBB17
 4684 1153 30110000 		.long	LBE17
 4685 1157 1A       		.uleb128 0x1a
 4686 1158 6A00     		.ascii "j\0"
 4687 115a 01       		.byte	0x1
 4688 115b D701     		.word	0x1d7
 4689 115d 0D       		.byte	0xd
 4690 115e 39010000 		.long	0x139
 4691 1162 02       		.byte	0x2
 4692 1163 91       		.byte	0x91
 4693 1164 5C       		.sleb128 -36
 4694 1165 1C       		.uleb128 0x1c
 4695 1166 75100000 		.long	LBB18
 4696 116a 20110000 		.long	LBE18
 4697 116e 19       		.uleb128 0x19
 4698 116f 84000000 		.secrel32	LASF17
 4699 1173 01       		.byte	0x1
 4700 1174 D901     		.word	0x1d9
 4701 1176 10       		.byte	0x10
 4702 1177 21060000 		.long	0x621
 4703 117b 04       		.byte	0x4
 4704 117c 91       		.byte	0x91
 4705 117d F0A07F   		.sleb128 -12176
 4706 1180 1C       		.uleb128 0x1c
 4707 1181 CC100000 		.long	LBB19
 4708 1185 1F110000 		.long	LBE19
 4709 1189 1A       		.uleb128 0x1a
 4710 118a 726F774E 		.ascii "rowNumber\0"
 4710      756D6265 
 4710      7200
 4711 1194 01       		.byte	0x1
 4712 1195 DC01     		.word	0x1dc
 4713 1197 0A       		.byte	0xa
 4714 1198 39010000 		.long	0x139
 4715 119c 03       		.byte	0x3
 4716 119d 91       		.byte	0x91
 4717 119e BC7F     		.sleb128 -68
 4718 11a0 00       		.byte	0
 4719 11a1 00       		.byte	0
 4720 11a2 00       		.byte	0
 4721 11a3 00       		.byte	0
 4722 11a4 00       		.byte	0
 4723 11a5 0C       		.uleb128 0xc
 4724 11a6 12090000 		.long	0x912
 4725 11aa C1110000 		.long	0x11c1
 4726 11ae 1E       		.uleb128 0x1e
 4727 11af D8000000 		.long	0xd8
 4728 11b3 03       		.byte	0x3
 4729 11b4 91       		.byte	0x91
 4730 11b5 44       		.sleb128 -60
 4731 11b6 06       		.byte	0x6
 4732 11b7 1E       		.uleb128 0x1e
 4733 11b8 D8000000 		.long	0xd8
 4734 11bc 03       		.byte	0x3
 4735 11bd 91       		.byte	0x91
 4736 11be 48       		.sleb128 -56
 4737 11bf 06       		.byte	0x6
GAS LISTING C:\Users\jisu8\AppData\Local\Temp\ccIqWD58.s 			page 115


 4738 11c0 00       		.byte	0
 4739 11c1 1D       		.uleb128 0x1d
 4740 11c2 47657453 		.ascii "GetStartColumn\0"
 4740      74617274 
 4740      436F6C75 
 4740      6D6E00
 4741 11d1 01       		.byte	0x1
 4742 11d2 9101     		.word	0x191
 4743 11d4 0C       		.byte	0xc
 4744 11d5 01       		.byte	0x1
 4745 11d6 39010000 		.long	0x139
 4746 11da EB0C0000 		.long	LFB23
 4747 11de B40E0000 		.long	LFE23
 4748 11e2 18010000 		.secrel32	LLST19
 4749 11e6 01       		.byte	0x1
 4750 11e7 94120000 		.long	0x1294
 4751 11eb 17       		.uleb128 0x17
 4752 11ec 06010000 		.secrel32	LASF12
 4753 11f0 01       		.byte	0x1
 4754 11f1 9101     		.word	0x191
 4755 11f3 35       		.byte	0x35
 4756 11f4 15100000 		.long	0x1015
 4757 11f8 02       		.byte	0x2
 4758 11f9 91       		.byte	0x91
 4759 11fa 00       		.sleb128 0
 4760 11fb 17       		.uleb128 0x17
 4761 11fc 70000000 		.secrel32	LASF14
 4762 1200 01       		.byte	0x1
 4763 1201 9101     		.word	0x191
 4764 1203 4A       		.byte	0x4a
 4765 1204 39010000 		.long	0x139
 4766 1208 02       		.byte	0x2
 4767 1209 91       		.byte	0x91
 4768 120a 04       		.sleb128 4
 4769 120b 17       		.uleb128 0x17
 4770 120c 8D000000 		.secrel32	LASF16
 4771 1210 01       		.byte	0x1
 4772 1211 9101     		.word	0x191
 4773 1213 5D       		.byte	0x5d
 4774 1214 39010000 		.long	0x139
 4775 1218 02       		.byte	0x2
 4776 1219 91       		.byte	0x91
 4777 121a 08       		.sleb128 8
 4778 121b 17       		.uleb128 0x17
 4779 121c 1D010000 		.secrel32	LASF13
 4780 1220 01       		.byte	0x1
 4781 1221 9101     		.word	0x191
 4782 1223 6F       		.byte	0x6f
 4783 1224 22020000 		.long	0x222
 4784 1228 02       		.byte	0x2
 4785 1229 91       		.byte	0x91
 4786 122a 4C       		.sleb128 -52
 4787 122b 18       		.uleb128 0x18
 4788 122c 73697A65 		.ascii "size\0"
 4788      00
 4789 1231 01       		.byte	0x1
 4790 1232 9101     		.word	0x191
GAS LISTING C:\Users\jisu8\AppData\Local\Temp\ccIqWD58.s 			page 116


 4791 1234 7F       		.byte	0x7f
 4792 1235 39010000 		.long	0x139
 4793 1239 02       		.byte	0x2
 4794 123a 91       		.byte	0x91
 4795 123b 10       		.sleb128 16
 4796 123c 24       		.uleb128 0x24
 4797 123d 01       		.byte	0x1
 4798 123e 16010000 		.secrel32	LASF21
 4799 1242 13       		.byte	0x13
 4800 1243 00       		.byte	0
 4801 1244 01       		.byte	0x1
 4802 1245 39010000 		.long	0x139
 4803 1249 01       		.byte	0x1
 4804 124a 55120000 		.long	0x1255
 4805 124e 21       		.uleb128 0x21
 4806 124f 990F0000 		.long	0xf99
 4807 1253 22       		.uleb128 0x22
 4808 1254 00       		.byte	0
 4809 1255 1A       		.uleb128 0x1a
 4810 1256 6F666673 		.ascii "offset\0"
 4810      657400
 4811 125d 01       		.byte	0x1
 4812 125e 9501     		.word	0x195
 4813 1260 06       		.byte	0x6
 4814 1261 39010000 		.long	0x139
 4815 1265 02       		.byte	0x2
 4816 1266 91       		.byte	0x91
 4817 1267 6C       		.sleb128 -20
 4818 1268 19       		.uleb128 0x19
 4819 1269 84000000 		.secrel32	LASF17
 4820 126d 01       		.byte	0x1
 4821 126e 9601     		.word	0x196
 4822 1270 0D       		.byte	0xd
 4823 1271 21060000 		.long	0x621
 4824 1275 02       		.byte	0x2
 4825 1276 91       		.byte	0x91
 4826 1277 50       		.sleb128 -48
 4827 1278 1A       		.uleb128 0x1a
 4828 1279 736B6970 		.ascii "skippedColumns\0"
 4828      70656443 
 4828      6F6C756D 
 4828      6E7300
 4829 1288 01       		.byte	0x1
 4830 1289 B101     		.word	0x1b1
 4831 128b 06       		.byte	0x6
 4832 128c 39010000 		.long	0x139
 4833 1290 02       		.byte	0x2
 4834 1291 91       		.byte	0x91
 4835 1292 68       		.sleb128 -24
 4836 1293 00       		.byte	0
 4837 1294 23       		.uleb128 0x23
 4838 1295 49735661 		.ascii "IsValidBarcodeColumn\0"
 4838      6C696442 
 4838      6172636F 
 4838      6465436F 
 4838      6C756D6E 
 4839 12aa 01       		.byte	0x1
GAS LISTING C:\Users\jisu8\AppData\Local\Temp\ccIqWD58.s 			page 117


 4840 12ab 8B01     		.word	0x18b
 4841 12ad 10       		.byte	0x10
 4842 12ae 01       		.byte	0x1
 4843 12af 22020000 		.long	0x222
 4844 12b3 C70C0000 		.long	LFB22
 4845 12b7 EB0C0000 		.long	LFE22
 4846 12bb 50010000 		.secrel32	LLST18
 4847 12bf 01       		.byte	0x1
 4848 12c0 E5120000 		.long	0x12e5
 4849 12c4 17       		.uleb128 0x17
 4850 12c5 06010000 		.secrel32	LASF12
 4851 12c9 01       		.byte	0x1
 4852 12ca 8B01     		.word	0x18b
 4853 12cc 3F       		.byte	0x3f
 4854 12cd 15100000 		.long	0x1015
 4855 12d1 02       		.byte	0x2
 4856 12d2 91       		.byte	0x91
 4857 12d3 00       		.sleb128 0
 4858 12d4 17       		.uleb128 0x17
 4859 12d5 70000000 		.secrel32	LASF14
 4860 12d9 01       		.byte	0x1
 4861 12da 8B01     		.word	0x18b
 4862 12dc 54       		.byte	0x54
 4863 12dd 39010000 		.long	0x139
 4864 12e1 02       		.byte	0x2
 4865 12e2 91       		.byte	0x91
 4866 12e3 04       		.sleb128 4
 4867 12e4 00       		.byte	0
 4868 12e5 1D       		.uleb128 0x1d
 4869 12e6 4D657267 		.ascii "Merge\0"
 4869      6500
 4870 12ec 01       		.byte	0x1
 4871 12ed 7601     		.word	0x176
 4872 12ef 10       		.byte	0x10
 4873 12f0 01       		.byte	0x1
 4874 12f1 22020000 		.long	0x222
 4875 12f5 F10B0000 		.long	LFB21
 4876 12f9 C70C0000 		.long	LFE21
 4877 12fd 88010000 		.secrel32	LLST17
 4878 1301 01       		.byte	0x1
 4879 1302 B9130000 		.long	0x13b9
 4880 1306 17       		.uleb128 0x17
 4881 1307 96000000 		.secrel32	LASF10
 4882 130b 01       		.byte	0x1
 4883 130c 7601     		.word	0x176
 4884 130e 30       		.byte	0x30
 4885 130f B9130000 		.long	0x13b9
 4886 1313 02       		.byte	0x2
 4887 1314 91       		.byte	0x91
 4888 1315 00       		.sleb128 0
 4889 1316 17       		.uleb128 0x17
 4890 1317 00000000 		.secrel32	LASF11
 4891 131b 01       		.byte	0x1
 4892 131c 7601     		.word	0x176
 4893 131e 62       		.byte	0x62
 4894 131f B9130000 		.long	0x13b9
 4895 1323 02       		.byte	0x2
GAS LISTING C:\Users\jisu8\AppData\Local\Temp\ccIqWD58.s 			page 118


 4896 1324 91       		.byte	0x91
 4897 1325 04       		.sleb128 4
 4898 1326 17       		.uleb128 0x17
 4899 1327 D4000000 		.secrel32	LASF22
 4900 132b 01       		.byte	0x1
 4901 132c 7601     		.word	0x176
 4902 132e 8F       		.byte	0x8f
 4903 132f B80E0000 		.long	0xeb8
 4904 1333 02       		.byte	0x2
 4905 1334 91       		.byte	0x91
 4906 1335 08       		.sleb128 8
 4907 1336 17       		.uleb128 0x17
 4908 1337 50010000 		.secrel32	LASF9
 4909 133b 01       		.byte	0x1
 4910 133c 7601     		.word	0x176
 4911 133e 9A       		.byte	0x9a
 4912 133f 39010000 		.long	0x139
 4913 1343 02       		.byte	0x2
 4914 1344 91       		.byte	0x91
 4915 1345 0C       		.sleb128 12
 4916 1346 1C       		.uleb128 0x1c
 4917 1347 0A0C0000 		.long	LBB14
 4918 134b C00C0000 		.long	LBE14
 4919 134f 1A       		.uleb128 0x1a
 4920 1350 62617263 		.ascii "barcodeMetadata\0"
 4920      6F64654D 
 4920      65746164 
 4920      61746100 
 4921 1360 01       		.byte	0x1
 4922 1361 7A01     		.word	0x17a
 4923 1363 15       		.byte	0x15
 4924 1364 B3060000 		.long	0x6b3
 4925 1368 02       		.byte	0x2
 4926 1369 91       		.byte	0x91
 4927 136a 60       		.sleb128 -32
 4928 136b 1C       		.uleb128 0x1c
 4929 136c 3D0C0000 		.long	LBB15
 4930 1370 C00C0000 		.long	LBE15
 4931 1374 1A       		.uleb128 0x1a
 4932 1375 6C656674 		.ascii "leftBox\0"
 4932      426F7800 
 4933 137d 01       		.byte	0x1
 4934 137e 7E01     		.word	0x17e
 4935 1380 12       		.byte	0x12
 4936 1381 5E050000 		.long	0x55e
 4937 1385 03       		.byte	0x3
 4938 1386 91       		.byte	0x91
 4939 1387 FC7D     		.sleb128 -260
 4940 1389 1A       		.uleb128 0x1a
 4941 138a 72696768 		.ascii "rightBox\0"
 4941      74426F78 
 4941      00
 4942 1393 01       		.byte	0x1
 4943 1394 7E01     		.word	0x17e
 4944 1396 1B       		.byte	0x1b
 4945 1397 5E050000 		.long	0x55e
 4946 139b 03       		.byte	0x3
GAS LISTING C:\Users\jisu8\AppData\Local\Temp\ccIqWD58.s 			page 119


 4947 139c 91       		.byte	0x91
 4948 139d C87E     		.sleb128 -184
 4949 139f 1A       		.uleb128 0x1a
 4950 13a0 6D657267 		.ascii "mergedBox\0"
 4950      6564426F 
 4950      7800
 4951 13aa 01       		.byte	0x1
 4952 13ab 7E01     		.word	0x17e
 4953 13ad 25       		.byte	0x25
 4954 13ae 5E050000 		.long	0x55e
 4955 13b2 03       		.byte	0x3
 4956 13b3 91       		.byte	0x91
 4957 13b4 947F     		.sleb128 -108
 4958 13b6 00       		.byte	0
 4959 13b7 00       		.byte	0
 4960 13b8 00       		.byte	0
 4961 13b9 09       		.uleb128 0x9
 4962 13ba 04       		.byte	0x4
 4963 13bb B1070000 		.long	0x7b1
 4964 13bf 1D       		.uleb128 0x1d
 4965 13c0 41646A75 		.ascii "AdjustBoundingBox\0"
 4965      7374426F 
 4965      756E6469 
 4965      6E67426F 
 4965      7800
 4966 13d2 01       		.byte	0x1
 4967 13d3 3A01     		.word	0x13a
 4968 13d5 10       		.byte	0x10
 4969 13d6 01       		.byte	0x1
 4970 13d7 22020000 		.long	0x222
 4971 13db ED090000 		.long	LFB20
 4972 13df F10B0000 		.long	LFE20
 4973 13e3 C0010000 		.secrel32	LLST16
 4974 13e7 01       		.byte	0x1
 4975 13e8 83150000 		.long	0x1583
 4976 13ec 17       		.uleb128 0x17
 4977 13ed F3000000 		.secrel32	LASF3
 4978 13f1 01       		.byte	0x1
 4979 13f2 3A01     		.word	0x13a
 4980 13f4 3C       		.byte	0x3c
 4981 13f5 B9130000 		.long	0x13b9
 4982 13f9 02       		.byte	0x2
 4983 13fa 91       		.byte	0x91
 4984 13fb 00       		.sleb128 0
 4985 13fc 17       		.uleb128 0x17
 4986 13fd D4000000 		.secrel32	LASF22
 4987 1401 01       		.byte	0x1
 4988 1402 3A01     		.word	0x13a
 4989 1404 60       		.byte	0x60
 4990 1405 83150000 		.long	0x1583
 4991 1409 02       		.byte	0x2
 4992 140a 91       		.byte	0x91
 4993 140b 04       		.sleb128 4
 4994 140c 17       		.uleb128 0x17
 4995 140d 50010000 		.secrel32	LASF9
 4996 1411 01       		.byte	0x1
 4997 1412 3A01     		.word	0x13a
GAS LISTING C:\Users\jisu8\AppData\Local\Temp\ccIqWD58.s 			page 120


 4998 1414 6B       		.byte	0x6b
 4999 1415 39010000 		.long	0x139
 5000 1419 02       		.byte	0x2
 5001 141a 91       		.byte	0x91
 5002 141b 08       		.sleb128 8
 5003 141c 24       		.uleb128 0x24
 5004 141d 01       		.byte	0x1
 5005 141e 16010000 		.secrel32	LASF21
 5006 1422 13       		.byte	0x13
 5007 1423 00       		.byte	0
 5008 1424 01       		.byte	0x1
 5009 1425 39010000 		.long	0x139
 5010 1429 01       		.byte	0x1
 5011 142a 35140000 		.long	0x1435
 5012 142e 21       		.uleb128 0x21
 5013 142f 990F0000 		.long	0xf99
 5014 1433 22       		.uleb128 0x22
 5015 1434 00       		.byte	0
 5016 1435 1A       		.uleb128 0x1a
 5017 1436 726F7748 		.ascii "rowHeights\0"
 5017      65696768 
 5017      747300
 5018 1441 01       		.byte	0x1
 5019 1442 4401     		.word	0x144
 5020 1444 06       		.byte	0x6
 5021 1445 89150000 		.long	0x1589
 5022 1449 03       		.byte	0x3
 5023 144a 91       		.byte	0x91
 5024 144b C07C     		.sleb128 -448
 5025 144d 1A       		.uleb128 0x1a
 5026 144e 73697A65 		.ascii "size\0"
 5026      00
 5027 1453 01       		.byte	0x1
 5028 1454 4501     		.word	0x145
 5029 1456 06       		.byte	0x6
 5030 1457 39010000 		.long	0x139
 5031 145b 03       		.byte	0x3
 5032 145c 91       		.byte	0x91
 5033 145d BC7C     		.sleb128 -452
 5034 145f 1A       		.uleb128 0x1a
 5035 1460 6D617852 		.ascii "maxRowHeight\0"
 5035      6F774865 
 5035      69676874 
 5035      00
 5036 146d 01       		.byte	0x1
 5037 146e 4C01     		.word	0x14c
 5038 1470 06       		.byte	0x6
 5039 1471 39010000 		.long	0x139
 5040 1475 02       		.byte	0x2
 5041 1476 91       		.byte	0x91
 5042 1477 54       		.sleb128 -44
 5043 1478 1A       		.uleb128 0x1a
 5044 1479 6D697373 		.ascii "missingStartRows\0"
 5044      696E6753 
 5044      74617274 
 5044      526F7773 
 5044      00
GAS LISTING C:\Users\jisu8\AppData\Local\Temp\ccIqWD58.s 			page 121


 5045 148a 01       		.byte	0x1
 5046 148b 4D01     		.word	0x14d
 5047 148d 06       		.byte	0x6
 5048 148e 39010000 		.long	0x139
 5049 1492 02       		.byte	0x2
 5050 1493 91       		.byte	0x91
 5051 1494 6C       		.sleb128 -20
 5052 1495 19       		.uleb128 0x19
 5053 1496 DB000000 		.secrel32	LASF19
 5054 149a 01       		.byte	0x1
 5055 149b 5701     		.word	0x157
 5056 149d 0F       		.byte	0xf
 5057 149e EA0D0000 		.long	0xdea
 5058 14a2 02       		.byte	0x2
 5059 14a3 91       		.byte	0x91
 5060 14a4 50       		.sleb128 -48
 5061 14a5 1A       		.uleb128 0x1a
 5062 14a6 6D697373 		.ascii "missingEndRows\0"
 5062      696E6745 
 5062      6E64526F 
 5062      777300
 5063 14b5 01       		.byte	0x1
 5064 14b6 5D01     		.word	0x15d
 5065 14b8 06       		.byte	0x6
 5066 14b9 39010000 		.long	0x139
 5067 14bd 02       		.byte	0x2
 5068 14be 91       		.byte	0x91
 5069 14bf 60       		.sleb128 -32
 5070 14c0 1A       		.uleb128 0x1a
 5071 14c1 626F7800 		.ascii "box\0"
 5072 14c5 01       		.byte	0x1
 5073 14c6 6A01     		.word	0x16a
 5074 14c8 10       		.byte	0x10
 5075 14c9 5E050000 		.long	0x55e
 5076 14cd 03       		.byte	0x3
 5077 14ce 91       		.byte	0x91
 5078 14cf F07B     		.sleb128 -528
 5079 14d1 19       		.uleb128 0x19
 5080 14d2 B7000000 		.secrel32	LASF8
 5081 14d6 01       		.byte	0x1
 5082 14d7 6B01     		.word	0x16b
 5083 14d9 10       		.byte	0x10
 5084 14da 5E050000 		.long	0x55e
 5085 14de 03       		.byte	0x3
 5086 14df 91       		.byte	0x91
 5087 14e0 A47B     		.sleb128 -604
 5088 14e2 1B       		.uleb128 0x1b
 5089 14e3 850A0000 		.long	LBB9
 5090 14e7 C20A0000 		.long	LBE9
 5091 14eb FE140000 		.long	0x14fe
 5092 14ef 1A       		.uleb128 0x1a
 5093 14f0 6900     		.ascii "i\0"
 5094 14f2 01       		.byte	0x1
 5095 14f3 4E01     		.word	0x14e
 5096 14f5 0B       		.byte	0xb
 5097 14f6 39010000 		.long	0x139
 5098 14fa 02       		.byte	0x2
GAS LISTING C:\Users\jisu8\AppData\Local\Temp\ccIqWD58.s 			page 122


 5099 14fb 91       		.byte	0x91
 5100 14fc 68       		.sleb128 -24
 5101 14fd 00       		.byte	0
 5102 14fe 1B       		.uleb128 0x1b
 5103 14ff CB0A0000 		.long	LBB10
 5104 1503 FC0A0000 		.long	LBE10
 5105 1507 1C150000 		.long	0x151c
 5106 150b 1A       		.uleb128 0x1a
 5107 150c 726F7700 		.ascii "row\0"
 5108 1510 01       		.byte	0x1
 5109 1511 5801     		.word	0x158
 5110 1513 0B       		.byte	0xb
 5111 1514 39010000 		.long	0x139
 5112 1518 02       		.byte	0x2
 5113 1519 91       		.byte	0x91
 5114 151a 64       		.sleb128 -28
 5115 151b 00       		.byte	0
 5116 151c 1B       		.uleb128 0x1b
 5117 151d 030B0000 		.long	LBB11
 5118 1521 400B0000 		.long	LBE11
 5119 1525 3A150000 		.long	0x153a
 5120 1529 1A       		.uleb128 0x1a
 5121 152a 726F7700 		.ascii "row\0"
 5122 152e 01       		.byte	0x1
 5123 152f 5E01     		.word	0x15e
 5124 1531 0B       		.byte	0xb
 5125 1532 39010000 		.long	0x139
 5126 1536 02       		.byte	0x2
 5127 1537 91       		.byte	0x91
 5128 1538 5C       		.sleb128 -36
 5129 1539 00       		.byte	0
 5130 153a 1B       		.uleb128 0x1b
 5131 153b 400B0000 		.long	LBB12
 5132 153f 730B0000 		.long	LBE12
 5133 1543 58150000 		.long	0x1558
 5134 1547 1A       		.uleb128 0x1a
 5135 1548 726F7700 		.ascii "row\0"
 5136 154c 01       		.byte	0x1
 5137 154d 6601     		.word	0x166
 5138 154f 0B       		.byte	0xb
 5139 1550 39010000 		.long	0x139
 5140 1554 02       		.byte	0x2
 5141 1555 91       		.byte	0x91
 5142 1556 58       		.sleb128 -40
 5143 1557 00       		.byte	0
 5144 1558 1C       		.uleb128 0x1c
 5145 1559 8A0B0000 		.long	LBB13
 5146 155d E20B0000 		.long	LBE13
 5147 1561 25       		.uleb128 0x25
 5148 1562 01       		.byte	0x1
 5149 1563 69734C65 		.ascii "isLeftRowIndicator\0"
 5149      6674526F 
 5149      77496E64 
 5149      69636174 
 5149      6F7200
 5150 1576 01       		.byte	0x1
 5151 1577 6C01     		.word	0x16c
GAS LISTING C:\Users\jisu8\AppData\Local\Temp\ccIqWD58.s 			page 123


 5152 1579 45       		.byte	0x45
 5153 157a 39010000 		.long	0x139
 5154 157e 01       		.byte	0x1
 5155 157f 22       		.uleb128 0x22
 5156 1580 00       		.byte	0
 5157 1581 00       		.byte	0
 5158 1582 00       		.byte	0
 5159 1583 09       		.uleb128 0x9
 5160 1584 04       		.byte	0x4
 5161 1585 5E050000 		.long	0x55e
 5162 1589 0C       		.uleb128 0xc
 5163 158a 39010000 		.long	0x139
 5164 158e 99150000 		.long	0x1599
 5165 1592 11       		.uleb128 0x11
 5166 1593 D8000000 		.long	0xd8
 5167 1597 63       		.byte	0x63
 5168 1598 00       		.byte	0
 5169 1599 23       		.uleb128 0x23
 5170 159a 4765744D 		.ascii "GetMax\0"
 5170      617800
 5171 15a1 01       		.byte	0x1
 5172 15a2 2C01     		.word	0x12c
 5173 15a4 0C       		.byte	0xc
 5174 15a5 01       		.byte	0x1
 5175 15a6 39010000 		.long	0x139
 5176 15aa 9C090000 		.long	LFB19
 5177 15ae ED090000 		.long	LFE19
 5178 15b2 F8010000 		.secrel32	LLST15
 5179 15b6 01       		.byte	0x1
 5180 15b7 0B160000 		.long	0x160b
 5181 15bb 18       		.uleb128 0x18
 5182 15bc 62756666 		.ascii "buffer\0"
 5182      657200
 5183 15c3 01       		.byte	0x1
 5184 15c4 2C01     		.word	0x12c
 5185 15c6 19       		.byte	0x19
 5186 15c7 C0010000 		.long	0x1c0
 5187 15cb 02       		.byte	0x2
 5188 15cc 91       		.byte	0x91
 5189 15cd 00       		.sleb128 0
 5190 15ce 17       		.uleb128 0x17
 5191 15cf 50010000 		.secrel32	LASF9
 5192 15d3 01       		.byte	0x1
 5193 15d4 2C01     		.word	0x12c
 5194 15d6 25       		.byte	0x25
 5195 15d7 39010000 		.long	0x139
 5196 15db 02       		.byte	0x2
 5197 15dc 91       		.byte	0x91
 5198 15dd 04       		.sleb128 4
 5199 15de 1A       		.uleb128 0x1a
 5200 15df 7265745F 		.ascii "ret_max\0"
 5200      6D617800 
 5201 15e7 01       		.byte	0x1
 5202 15e8 2E01     		.word	0x12e
 5203 15ea 06       		.byte	0x6
 5204 15eb 39010000 		.long	0x139
 5205 15ef 02       		.byte	0x2
GAS LISTING C:\Users\jisu8\AppData\Local\Temp\ccIqWD58.s 			page 124


 5206 15f0 91       		.byte	0x91
 5207 15f1 74       		.sleb128 -12
 5208 15f2 1C       		.uleb128 0x1c
 5209 15f3 A9090000 		.long	LBB8
 5210 15f7 E8090000 		.long	LBE8
 5211 15fb 1A       		.uleb128 0x1a
 5212 15fc 6900     		.ascii "i\0"
 5213 15fe 01       		.byte	0x1
 5214 15ff 3001     		.word	0x130
 5215 1601 0A       		.byte	0xa
 5216 1602 39010000 		.long	0x139
 5217 1606 02       		.byte	0x2
 5218 1607 91       		.byte	0x91
 5219 1608 70       		.sleb128 -16
 5220 1609 00       		.byte	0
 5221 160a 00       		.byte	0
 5222 160b 1D       		.uleb128 0x1d
 5223 160c 47657442 		.ascii "GetBarcodeMetadata\0"
 5223      6172636F 
 5223      64654D65 
 5223      74616461 
 5223      746100
 5224 161f 01       		.byte	0x1
 5225 1620 0001     		.word	0x100
 5226 1622 10       		.byte	0x10
 5227 1623 01       		.byte	0x1
 5228 1624 22020000 		.long	0x222
 5229 1628 40080000 		.long	LFB18
 5230 162c 9C090000 		.long	LFE18
 5231 1630 30020000 		.secrel32	LLST14
 5232 1634 01       		.byte	0x1
 5233 1635 D4160000 		.long	0x16d4
 5234 1639 17       		.uleb128 0x17
 5235 163a 96000000 		.secrel32	LASF10
 5236 163e 01       		.byte	0x1
 5237 163f 0001     		.word	0x100
 5238 1641 3D       		.byte	0x3d
 5239 1642 B9130000 		.long	0x13b9
 5240 1646 02       		.byte	0x2
 5241 1647 91       		.byte	0x91
 5242 1648 00       		.sleb128 0
 5243 1649 17       		.uleb128 0x17
 5244 164a 00000000 		.secrel32	LASF11
 5245 164e 01       		.byte	0x1
 5246 164f 0001     		.word	0x100
 5247 1651 6F       		.byte	0x6f
 5248 1652 B9130000 		.long	0x13b9
 5249 1656 02       		.byte	0x2
 5250 1657 91       		.byte	0x91
 5251 1658 04       		.sleb128 4
 5252 1659 17       		.uleb128 0x17
 5253 165a D4000000 		.secrel32	LASF22
 5254 165e 01       		.byte	0x1
 5255 165f 0001     		.word	0x100
 5256 1661 9C       		.byte	0x9c
 5257 1662 D4160000 		.long	0x16d4
 5258 1666 02       		.byte	0x2
GAS LISTING C:\Users\jisu8\AppData\Local\Temp\ccIqWD58.s 			page 125


 5259 1667 91       		.byte	0x91
 5260 1668 08       		.sleb128 8
 5261 1669 17       		.uleb128 0x17
 5262 166a 50010000 		.secrel32	LASF9
 5263 166e 01       		.byte	0x1
 5264 166f 0001     		.word	0x100
 5265 1671 A8       		.byte	0xa8
 5266 1672 39010000 		.long	0x139
 5267 1676 02       		.byte	0x2
 5268 1677 91       		.byte	0x91
 5269 1678 0C       		.sleb128 12
 5270 1679 24       		.uleb128 0x24
 5271 167a 01       		.byte	0x1
 5272 167b 16010000 		.secrel32	LASF21
 5273 167f 13       		.byte	0x13
 5274 1680 00       		.byte	0
 5275 1681 01       		.byte	0x1
 5276 1682 39010000 		.long	0x139
 5277 1686 01       		.byte	0x1
 5278 1687 92160000 		.long	0x1692
 5279 168b 21       		.uleb128 0x21
 5280 168c 990F0000 		.long	0xf99
 5281 1690 22       		.uleb128 0x22
 5282 1691 00       		.byte	0
 5283 1692 1A       		.uleb128 0x1a
 5284 1693 6C656674 		.ascii "leftBarcodeMetadata\0"
 5284      42617263 
 5284      6F64654D 
 5284      65746164 
 5284      61746100 
 5285 16a7 01       		.byte	0x1
 5286 16a8 0401     		.word	0x104
 5287 16aa 14       		.byte	0x14
 5288 16ab B3060000 		.long	0x6b3
 5289 16af 02       		.byte	0x2
 5290 16b0 91       		.byte	0x91
 5291 16b1 60       		.sleb128 -32
 5292 16b2 1A       		.uleb128 0x1a
 5293 16b3 72696768 		.ascii "rightBarcodeMetadata\0"
 5293      74426172 
 5293      636F6465 
 5293      4D657461 
 5293      64617461 
 5294 16c8 01       		.byte	0x1
 5295 16c9 0B01     		.word	0x10b
 5296 16cb 14       		.byte	0x14
 5297 16cc B3060000 		.long	0x6b3
 5298 16d0 02       		.byte	0x2
 5299 16d1 91       		.byte	0x91
 5300 16d2 50       		.sleb128 -48
 5301 16d3 00       		.byte	0
 5302 16d4 09       		.uleb128 0x9
 5303 16d5 04       		.byte	0x4
 5304 16d6 B3060000 		.long	0x6b3
 5305 16da 26       		.uleb128 0x26
 5306 16db 01       		.byte	0x1
 5307 16dc 726F7743 		.ascii "rowCount\0"
GAS LISTING C:\Users\jisu8\AppData\Local\Temp\ccIqWD58.s 			page 126


 5307      6F756E74 
 5307      00
 5308 16e5 01       		.byte	0x1
 5309 16e6 FC       		.byte	0xfc
 5310 16e7 05       		.byte	0x5
 5311 16e8 01       		.byte	0x1
 5312 16e9 39010000 		.long	0x139
 5313 16ed 2D080000 		.long	LFB17
 5314 16f1 40080000 		.long	LFE17
 5315 16f5 68020000 		.secrel32	LLST13
 5316 16f9 01       		.byte	0x1
 5317 16fa 0E170000 		.long	0x170e
 5318 16fe 27       		.uleb128 0x27
 5319 16ff 18000000 		.secrel32	LASF23
 5320 1703 01       		.byte	0x1
 5321 1704 FC       		.byte	0xfc
 5322 1705 22       		.byte	0x22
 5323 1706 D4160000 		.long	0x16d4
 5324 170a 02       		.byte	0x2
 5325 170b 91       		.byte	0x91
 5326 170c 00       		.sleb128 0
 5327 170d 00       		.byte	0
 5328 170e 26       		.uleb128 0x26
 5329 170f 01       		.byte	0x1
 5330 1710 6572726F 		.ascii "errorCorrectionLevel\0"
 5330      72436F72 
 5330      72656374 
 5330      696F6E4C 
 5330      6576656C 
 5331 1725 01       		.byte	0x1
 5332 1726 F8       		.byte	0xf8
 5333 1727 05       		.byte	0x5
 5334 1728 01       		.byte	0x1
 5335 1729 39010000 		.long	0x139
 5336 172d 22080000 		.long	LFB16
 5337 1731 2D080000 		.long	LFE16
 5338 1735 A0020000 		.secrel32	LLST12
 5339 1739 01       		.byte	0x1
 5340 173a 4E170000 		.long	0x174e
 5341 173e 27       		.uleb128 0x27
 5342 173f 18000000 		.secrel32	LASF23
 5343 1743 01       		.byte	0x1
 5344 1744 F8       		.byte	0xf8
 5345 1745 2E       		.byte	0x2e
 5346 1746 D4160000 		.long	0x16d4
 5347 174a 02       		.byte	0x2
 5348 174b 91       		.byte	0x91
 5349 174c 00       		.sleb128 0
 5350 174d 00       		.byte	0
 5351 174e 26       		.uleb128 0x26
 5352 174f 01       		.byte	0x1
 5353 1750 636F6C75 		.ascii "columnCount\0"
 5353      6D6E436F 
 5353      756E7400 
 5354 175c 01       		.byte	0x1
 5355 175d F4       		.byte	0xf4
 5356 175e 05       		.byte	0x5
GAS LISTING C:\Users\jisu8\AppData\Local\Temp\ccIqWD58.s 			page 127


 5357 175f 01       		.byte	0x1
 5358 1760 39010000 		.long	0x139
 5359 1764 18080000 		.long	LFB15
 5360 1768 22080000 		.long	LFE15
 5361 176c D8020000 		.secrel32	LLST11
 5362 1770 01       		.byte	0x1
 5363 1771 85170000 		.long	0x1785
 5364 1775 27       		.uleb128 0x27
 5365 1776 18000000 		.secrel32	LASF23
 5366 177a 01       		.byte	0x1
 5367 177b F4       		.byte	0xf4
 5368 177c 25       		.byte	0x25
 5369 177d D4160000 		.long	0x16d4
 5370 1781 02       		.byte	0x2
 5371 1782 91       		.byte	0x91
 5372 1783 00       		.sleb128 0
 5373 1784 00       		.byte	0
 5374 1785 28       		.uleb128 0x28
 5375 1786 4D657461 		.ascii "Metadata_Init\0"
 5375      64617461 
 5375      5F496E69 
 5375      7400
 5376 1794 01       		.byte	0x1
 5377 1795 ED       		.byte	0xed
 5378 1796 0D       		.byte	0xd
 5379 1797 01       		.byte	0x1
 5380 1798 EB070000 		.long	LFB14
 5381 179c 18080000 		.long	LFE14
 5382 17a0 10030000 		.secrel32	LLST10
 5383 17a4 01       		.byte	0x1
 5384 17a5 B9170000 		.long	0x17b9
 5385 17a9 27       		.uleb128 0x27
 5386 17aa 18000000 		.secrel32	LASF23
 5387 17ae 01       		.byte	0x1
 5388 17af ED       		.byte	0xed
 5389 17b0 2F       		.byte	0x2f
 5390 17b1 D4160000 		.long	0x16d4
 5391 17b5 02       		.byte	0x2
 5392 17b6 91       		.byte	0x91
 5393 17b7 00       		.sleb128 0
 5394 17b8 00       		.byte	0
 5395 17b9 29       		.uleb128 0x29
 5396 17ba 47657452 		.ascii "GetRowIndicatorColumn\0"
 5396      6F77496E 
 5396      64696361 
 5396      746F7243 
 5396      6F6C756D 
 5397 17d0 01       		.byte	0x1
 5398 17d1 C9       		.byte	0xc9
 5399 17d2 0C       		.byte	0xc
 5400 17d3 01       		.byte	0x1
 5401 17d4 39010000 		.long	0x139
 5402 17d8 71060000 		.long	LFB13
 5403 17dc EB070000 		.long	LFE13
 5404 17e0 48030000 		.secrel32	LLST9
 5405 17e4 01       		.byte	0x1
 5406 17e5 F3180000 		.long	0x18f3
GAS LISTING C:\Users\jisu8\AppData\Local\Temp\ccIqWD58.s 			page 128


 5407 17e9 27       		.uleb128 0x27
 5408 17ea 7E000000 		.secrel32	LASF4
 5409 17ee 01       		.byte	0x1
 5410 17ef C9       		.byte	0xc9
 5411 17f0 36       		.byte	0x36
 5412 17f1 E40D0000 		.long	0xde4
 5413 17f5 02       		.byte	0x2
 5414 17f6 91       		.byte	0x91
 5415 17f7 00       		.sleb128 0
 5416 17f8 27       		.uleb128 0x27
 5417 17f9 B7000000 		.secrel32	LASF8
 5418 17fd 01       		.byte	0x1
 5419 17fe C9       		.byte	0xc9
 5420 17ff 53       		.byte	0x53
 5421 1800 F3180000 		.long	0x18f3
 5422 1804 02       		.byte	0x2
 5423 1805 91       		.byte	0x91
 5424 1806 04       		.sleb128 4
 5425 1807 2A       		.uleb128 0x2a
 5426 1808 73746172 		.ascii "startPoint\0"
 5426      74506F69 
 5426      6E7400
 5427 1813 01       		.byte	0x1
 5428 1814 C9       		.byte	0xc9
 5429 1815 76       		.byte	0x76
 5430 1816 F9180000 		.long	0x18f9
 5431 181a 02       		.byte	0x2
 5432 181b 91       		.byte	0x91
 5433 181c 08       		.sleb128 8
 5434 181d 27       		.uleb128 0x27
 5435 181e 1D010000 		.secrel32	LASF13
 5436 1822 01       		.byte	0x1
 5437 1823 C9       		.byte	0xc9
 5438 1824 8A       		.byte	0x8a
 5439 1825 22020000 		.long	0x222
 5440 1829 02       		.byte	0x2
 5441 182a 91       		.byte	0x91
 5442 182b 4C       		.sleb128 -52
 5443 182c 27       		.uleb128 0x27
 5444 182d C3000000 		.secrel32	LASF5
 5445 1831 01       		.byte	0x1
 5446 1832 C9       		.byte	0xc9
 5447 1833 9B       		.byte	0x9b
 5448 1834 39010000 		.long	0x139
 5449 1838 02       		.byte	0x2
 5450 1839 91       		.byte	0x91
 5451 183a 10       		.sleb128 16
 5452 183b 27       		.uleb128 0x27
 5453 183c 21000000 		.secrel32	LASF6
 5454 1840 01       		.byte	0x1
 5455 1841 C9       		.byte	0xc9
 5456 1842 B1       		.byte	0xb1
 5457 1843 39010000 		.long	0x139
 5458 1847 02       		.byte	0x2
 5459 1848 91       		.byte	0x91
 5460 1849 14       		.sleb128 20
 5461 184a 27       		.uleb128 0x27
GAS LISTING C:\Users\jisu8\AppData\Local\Temp\ccIqWD58.s 			page 129


 5462 184b 50000000 		.secrel32	LASF24
 5463 184f 01       		.byte	0x1
 5464 1850 C9       		.byte	0xc9
 5465 1851 DD       		.byte	0xdd
 5466 1852 B9130000 		.long	0x13b9
 5467 1856 02       		.byte	0x2
 5468 1857 91       		.byte	0x91
 5469 1858 18       		.sleb128 24
 5470 1859 2B       		.uleb128 0x2b
 5471 185a 50010000 		.secrel32	LASF9
 5472 185e 01       		.byte	0x1
 5473 185f CB       		.byte	0xcb
 5474 1860 06       		.byte	0x6
 5475 1861 39010000 		.long	0x139
 5476 1865 02       		.byte	0x2
 5477 1866 91       		.byte	0x91
 5478 1867 6C       		.sleb128 -20
 5479 1868 24       		.uleb128 0x24
 5480 1869 01       		.byte	0x1
 5481 186a 16010000 		.secrel32	LASF21
 5482 186e 13       		.byte	0x13
 5483 186f 00       		.byte	0
 5484 1870 01       		.byte	0x1
 5485 1871 39010000 		.long	0x139
 5486 1875 01       		.byte	0x1
 5487 1876 81180000 		.long	0x1881
 5488 187a 21       		.uleb128 0x21
 5489 187b 990F0000 		.long	0xf99
 5490 187f 22       		.uleb128 0x22
 5491 1880 00       		.byte	0
 5492 1881 1C       		.uleb128 0x1c
 5493 1882 B8060000 		.long	LBB4
 5494 1886 E3070000 		.long	LBE4
 5495 188a 13       		.uleb128 0x13
 5496 188b 6900     		.ascii "i\0"
 5497 188d 01       		.byte	0x1
 5498 188e D0       		.byte	0xd0
 5499 188f 0B       		.byte	0xb
 5500 1890 39010000 		.long	0x139
 5501 1894 02       		.byte	0x2
 5502 1895 91       		.byte	0x91
 5503 1896 68       		.sleb128 -24
 5504 1897 1C       		.uleb128 0x1c
 5505 1898 C4060000 		.long	LBB5
 5506 189c D5070000 		.long	LBE5
 5507 18a0 2B       		.uleb128 0x2b
 5508 18a1 32000000 		.secrel32	LASF25
 5509 18a5 01       		.byte	0x1
 5510 18a6 D2       		.byte	0xd2
 5511 18a7 07       		.byte	0x7
 5512 18a8 39010000 		.long	0x139
 5513 18ac 02       		.byte	0x2
 5514 18ad 91       		.byte	0x91
 5515 18ae 5C       		.sleb128 -36
 5516 18af 2B       		.uleb128 0x2b
 5517 18b0 44000000 		.secrel32	LASF15
 5518 18b4 01       		.byte	0x1
GAS LISTING C:\Users\jisu8\AppData\Local\Temp\ccIqWD58.s 			page 130


 5519 18b5 D3       		.byte	0xd3
 5520 18b6 07       		.byte	0x7
 5521 18b7 39010000 		.long	0x139
 5522 18bb 02       		.byte	0x2
 5523 18bc 91       		.byte	0x91
 5524 18bd 64       		.sleb128 -28
 5525 18be 1C       		.uleb128 0x1c
 5526 18bf F6060000 		.long	LBB6
 5527 18c3 D5070000 		.long	LBE6
 5528 18c7 2B       		.uleb128 0x2b
 5529 18c8 8D000000 		.secrel32	LASF16
 5530 18cc 01       		.byte	0x1
 5531 18cd D4       		.byte	0xd4
 5532 18ce 0C       		.byte	0xc
 5533 18cf 39010000 		.long	0x139
 5534 18d3 02       		.byte	0x2
 5535 18d4 91       		.byte	0x91
 5536 18d5 60       		.sleb128 -32
 5537 18d6 1C       		.uleb128 0x1c
 5538 18d7 0A070000 		.long	LBB7
 5539 18db B5070000 		.long	LBE7
 5540 18df 2B       		.uleb128 0x2b
 5541 18e0 84000000 		.secrel32	LASF17
 5542 18e4 01       		.byte	0x1
 5543 18e5 D6       		.byte	0xd6
 5544 18e6 11       		.byte	0x11
 5545 18e7 EA0D0000 		.long	0xdea
 5546 18eb 02       		.byte	0x2
 5547 18ec 91       		.byte	0x91
 5548 18ed 58       		.sleb128 -40
 5549 18ee 00       		.byte	0
 5550 18ef 00       		.byte	0
 5551 18f0 00       		.byte	0
 5552 18f1 00       		.byte	0
 5553 18f2 00       		.byte	0
 5554 18f3 09       		.uleb128 0x9
 5555 18f4 04       		.byte	0x4
 5556 18f5 74050000 		.long	0x574
 5557 18f9 09       		.uleb128 0x9
 5558 18fa 04       		.byte	0x4
 5559 18fb 46040000 		.long	0x446
 5560 18ff 28       		.uleb128 0x28
 5561 1900 73657443 		.ascii "setCodeword\0"
 5561      6F646577 
 5561      6F726400 
 5562 190c 01       		.byte	0x1
 5563 190d B2       		.byte	0xb2
 5564 190e 0D       		.byte	0xd
 5565 190f 01       		.byte	0x1
 5566 1910 FD040000 		.long	LFB12
 5567 1914 71060000 		.long	LFE12
 5568 1918 80030000 		.secrel32	LLST8
 5569 191c 01       		.byte	0x1
 5570 191d 6F190000 		.long	0x196f
 5571 1921 27       		.uleb128 0x27
 5572 1922 8D000000 		.secrel32	LASF16
 5573 1926 01       		.byte	0x1
GAS LISTING C:\Users\jisu8\AppData\Local\Temp\ccIqWD58.s 			page 131


 5574 1927 B2       		.byte	0xb2
 5575 1928 1D       		.byte	0x1d
 5576 1929 39010000 		.long	0x139
 5577 192d 02       		.byte	0x2
 5578 192e 91       		.byte	0x91
 5579 192f 00       		.sleb128 0
 5580 1930 27       		.uleb128 0x27
 5581 1931 84000000 		.secrel32	LASF17
 5582 1935 01       		.byte	0x1
 5583 1936 B2       		.byte	0xb2
 5584 1937 34       		.byte	0x34
 5585 1938 EA0D0000 		.long	0xdea
 5586 193c 02       		.byte	0x2
 5587 193d 91       		.byte	0x91
 5588 193e 04       		.sleb128 4
 5589 193f 27       		.uleb128 0x27
 5590 1940 50000000 		.secrel32	LASF24
 5591 1944 01       		.byte	0x1
 5592 1945 B2       		.byte	0xb2
 5593 1946 58       		.byte	0x58
 5594 1947 B9130000 		.long	0x13b9
 5595 194b 02       		.byte	0x2
 5596 194c 91       		.byte	0x91
 5597 194d 08       		.sleb128 8
 5598 194e 2A       		.uleb128 0x2a
 5599 194f 656D7074 		.ascii "empty\0"
 5599      7900
 5600 1955 01       		.byte	0x1
 5601 1956 B2       		.byte	0xb2
 5602 1957 73       		.byte	0x73
 5603 1958 22020000 		.long	0x222
 5604 195c 02       		.byte	0x2
 5605 195d 91       		.byte	0x91
 5606 195e 60       		.sleb128 -32
 5607 195f 13       		.uleb128 0x13
 5608 1960 69647800 		.ascii "idx\0"
 5609 1964 01       		.byte	0x1
 5610 1965 B4       		.byte	0xb4
 5611 1966 06       		.byte	0x6
 5612 1967 39010000 		.long	0x139
 5613 196b 02       		.byte	0x2
 5614 196c 91       		.byte	0x91
 5615 196d 70       		.sleb128 -16
 5616 196e 00       		.byte	0
 5617 196f 29       		.uleb128 0x29
 5618 1970 44657465 		.ascii "DetectCodeword\0"
 5618      6374436F 
 5618      6465776F 
 5618      726400
 5619 197f 01       		.byte	0x1
 5620 1980 81       		.byte	0x81
 5621 1981 15       		.byte	0x15
 5622 1982 01       		.byte	0x1
 5623 1983 EA0D0000 		.long	0xdea
 5624 1987 64030000 		.long	LFB11
 5625 198b FD040000 		.long	LFE11
 5626 198f B8030000 		.secrel32	LLST7
GAS LISTING C:\Users\jisu8\AppData\Local\Temp\ccIqWD58.s 			page 132


 5627 1993 01       		.byte	0x1
 5628 1994 AC1A0000 		.long	0x1aac
 5629 1998 27       		.uleb128 0x27
 5630 1999 7E000000 		.secrel32	LASF4
 5631 199d 01       		.byte	0x1
 5632 199e 81       		.byte	0x81
 5633 199f 38       		.byte	0x38
 5634 19a0 E40D0000 		.long	0xde4
 5635 19a4 02       		.byte	0x2
 5636 19a5 91       		.byte	0x91
 5637 19a6 00       		.sleb128 0
 5638 19a7 27       		.uleb128 0x27
 5639 19a8 57010000 		.secrel32	LASF26
 5640 19ac 01       		.byte	0x1
 5641 19ad 81       		.byte	0x81
 5642 19ae 43       		.byte	0x43
 5643 19af 39010000 		.long	0x139
 5644 19b3 02       		.byte	0x2
 5645 19b4 91       		.byte	0x91
 5646 19b5 04       		.sleb128 4
 5647 19b6 27       		.uleb128 0x27
 5648 19b7 AD000000 		.secrel32	LASF27
 5649 19bb 01       		.byte	0x1
 5650 19bc 81       		.byte	0x81
 5651 19bd 52       		.byte	0x52
 5652 19be 39010000 		.long	0x139
 5653 19c2 02       		.byte	0x2
 5654 19c3 91       		.byte	0x91
 5655 19c4 08       		.sleb128 8
 5656 19c5 27       		.uleb128 0x27
 5657 19c6 1D010000 		.secrel32	LASF13
 5658 19ca 01       		.byte	0x1
 5659 19cb 81       		.byte	0x81
 5660 19cc 65       		.byte	0x65
 5661 19cd 22020000 		.long	0x222
 5662 19d1 03       		.byte	0x3
 5663 19d2 91       		.byte	0x91
 5664 19d3 AC7F     		.sleb128 -84
 5665 19d5 27       		.uleb128 0x27
 5666 19d6 44000000 		.secrel32	LASF15
 5667 19da 01       		.byte	0x1
 5668 19db 81       		.byte	0x81
 5669 19dc 76       		.byte	0x76
 5670 19dd 39010000 		.long	0x139
 5671 19e1 02       		.byte	0x2
 5672 19e2 91       		.byte	0x91
 5673 19e3 10       		.sleb128 16
 5674 19e4 27       		.uleb128 0x27
 5675 19e5 8D000000 		.secrel32	LASF16
 5676 19e9 01       		.byte	0x1
 5677 19ea 81       		.byte	0x81
 5678 19eb 87       		.byte	0x87
 5679 19ec 39010000 		.long	0x139
 5680 19f0 02       		.byte	0x2
 5681 19f1 91       		.byte	0x91
 5682 19f2 14       		.sleb128 20
 5683 19f3 27       		.uleb128 0x27
GAS LISTING C:\Users\jisu8\AppData\Local\Temp\ccIqWD58.s 			page 133


 5684 19f4 C3000000 		.secrel32	LASF5
 5685 19f8 01       		.byte	0x1
 5686 19f9 81       		.byte	0x81
 5687 19fa 95       		.byte	0x95
 5688 19fb 39010000 		.long	0x139
 5689 19ff 02       		.byte	0x2
 5690 1a00 91       		.byte	0x91
 5691 1a01 18       		.sleb128 24
 5692 1a02 27       		.uleb128 0x27
 5693 1a03 21000000 		.secrel32	LASF6
 5694 1a07 01       		.byte	0x1
 5695 1a08 81       		.byte	0x81
 5696 1a09 AB       		.byte	0xab
 5697 1a0a 39010000 		.long	0x139
 5698 1a0e 02       		.byte	0x2
 5699 1a0f 91       		.byte	0x91
 5700 1a10 1C       		.sleb128 28
 5701 1a11 24       		.uleb128 0x24
 5702 1a12 01       		.byte	0x1
 5703 1a13 16010000 		.secrel32	LASF21
 5704 1a17 13       		.byte	0x13
 5705 1a18 00       		.byte	0
 5706 1a19 01       		.byte	0x1
 5707 1a1a 39010000 		.long	0x139
 5708 1a1e 01       		.byte	0x1
 5709 1a1f 2A1A0000 		.long	0x1a2a
 5710 1a23 21       		.uleb128 0x21
 5711 1a24 990F0000 		.long	0xf99
 5712 1a28 22       		.uleb128 0x22
 5713 1a29 00       		.byte	0
 5714 1a2a 2B       		.uleb128 0x2b
 5715 1a2b 36010000 		.secrel32	LASF28
 5716 1a2f 01       		.byte	0x1
 5717 1a30 8B       		.byte	0x8b
 5718 1a31 06       		.byte	0x6
 5719 1a32 590B0000 		.long	0xb59
 5720 1a36 03       		.byte	0x3
 5721 1a37 91       		.byte	0x91
 5722 1a38 BC7F     		.sleb128 -68
 5723 1a3a 2B       		.uleb128 0x2b
 5724 1a3b 50010000 		.secrel32	LASF9
 5725 1a3f 01       		.byte	0x1
 5726 1a40 8C       		.byte	0x8c
 5727 1a41 06       		.byte	0x6
 5728 1a42 39010000 		.long	0x139
 5729 1a46 02       		.byte	0x2
 5730 1a47 91       		.byte	0x91
 5731 1a48 68       		.sleb128 -24
 5732 1a49 13       		.uleb128 0x13
 5733 1a4a 656E6443 		.ascii "endColumn\0"
 5733      6F6C756D 
 5733      6E00
 5734 1a54 01       		.byte	0x1
 5735 1a55 91       		.byte	0x91
 5736 1a56 06       		.byte	0x6
 5737 1a57 39010000 		.long	0x139
 5738 1a5b 02       		.byte	0x2
GAS LISTING C:\Users\jisu8\AppData\Local\Temp\ccIqWD58.s 			page 134


 5739 1a5c 91       		.byte	0x91
 5740 1a5d 6C       		.sleb128 -20
 5741 1a5e 13       		.uleb128 0x13
 5742 1a5f 636F6465 		.ascii "codewordBitCount\0"
 5742      776F7264 
 5742      42697443 
 5742      6F756E74 
 5742      00
 5743 1a70 01       		.byte	0x1
 5744 1a71 92       		.byte	0x92
 5745 1a72 06       		.byte	0x6
 5746 1a73 39010000 		.long	0x139
 5747 1a77 02       		.byte	0x2
 5748 1a78 91       		.byte	0x91
 5749 1a79 64       		.sleb128 -28
 5750 1a7a 13       		.uleb128 0x13
 5751 1a7b 6465636F 		.ascii "decodedValue\0"
 5751      64656456 
 5751      616C7565 
 5751      00
 5752 1a88 01       		.byte	0x1
 5753 1a89 A6       		.byte	0xa6
 5754 1a8a 06       		.byte	0x6
 5755 1a8b 39010000 		.long	0x139
 5756 1a8f 02       		.byte	0x2
 5757 1a90 91       		.byte	0x91
 5758 1a91 60       		.sleb128 -32
 5759 1a92 1C       		.uleb128 0x1c
 5760 1a93 B6040000 		.long	LBB3
 5761 1a97 F6040000 		.long	LBE3
 5762 1a9b 2B       		.uleb128 0x2b
 5763 1a9c 84000000 		.secrel32	LASF17
 5764 1aa0 01       		.byte	0x1
 5765 1aa1 A9       		.byte	0xa9
 5766 1aa2 07       		.byte	0x7
 5767 1aa3 39010000 		.long	0x139
 5768 1aa7 02       		.byte	0x2
 5769 1aa8 91       		.byte	0x91
 5770 1aa9 5C       		.sleb128 -36
 5771 1aaa 00       		.byte	0
 5772 1aab 00       		.byte	0
 5773 1aac 2C       		.uleb128 0x2c
 5774 1aad 436F6465 		.ascii "Codeword\0"
 5774      776F7264 
 5774      00
 5775 1ab6 01       		.byte	0x1
 5776 1ab7 75       		.byte	0x75
 5777 1ab8 15       		.byte	0x15
 5778 1ab9 01       		.byte	0x1
 5779 1aba EA0D0000 		.long	0xdea
 5780 1abe 29030000 		.long	LFB10
 5781 1ac2 64030000 		.long	LFE10
 5782 1ac6 F0030000 		.secrel32	LLST6
 5783 1aca 01       		.byte	0x1
 5784 1acb 151B0000 		.long	0x1b15
 5785 1acf 2A       		.uleb128 0x2a
 5786 1ad0 73746172 		.ascii "startX\0"
GAS LISTING C:\Users\jisu8\AppData\Local\Temp\ccIqWD58.s 			page 135


 5786      745800
 5787 1ad7 01       		.byte	0x1
 5788 1ad8 75       		.byte	0x75
 5789 1ad9 22       		.byte	0x22
 5790 1ada 39010000 		.long	0x139
 5791 1ade 02       		.byte	0x2
 5792 1adf 91       		.byte	0x91
 5793 1ae0 00       		.sleb128 0
 5794 1ae1 2A       		.uleb128 0x2a
 5795 1ae2 656E6458 		.ascii "endX\0"
 5795      00
 5796 1ae7 01       		.byte	0x1
 5797 1ae8 75       		.byte	0x75
 5798 1ae9 2E       		.byte	0x2e
 5799 1aea 39010000 		.long	0x139
 5800 1aee 02       		.byte	0x2
 5801 1aef 91       		.byte	0x91
 5802 1af0 04       		.sleb128 4
 5803 1af1 2A       		.uleb128 0x2a
 5804 1af2 6275636B 		.ascii "bucket\0"
 5804      657400
 5805 1af9 01       		.byte	0x1
 5806 1afa 75       		.byte	0x75
 5807 1afb 38       		.byte	0x38
 5808 1afc 39010000 		.long	0x139
 5809 1b00 02       		.byte	0x2
 5810 1b01 91       		.byte	0x91
 5811 1b02 08       		.sleb128 8
 5812 1b03 2A       		.uleb128 0x2a
 5813 1b04 76616C75 		.ascii "value\0"
 5813      6500
 5814 1b0a 01       		.byte	0x1
 5815 1b0b 75       		.byte	0x75
 5816 1b0c 44       		.byte	0x44
 5817 1b0d 39010000 		.long	0x139
 5818 1b11 02       		.byte	0x2
 5819 1b12 91       		.byte	0x91
 5820 1b13 0C       		.sleb128 12
 5821 1b14 00       		.byte	0
 5822 1b15 29       		.uleb128 0x29
 5823 1b16 47657443 		.ascii "GetCodewordBucketNumber\0"
 5823      6F646577 
 5823      6F726442 
 5823      75636B65 
 5823      744E756D 
 5824 1b2e 01       		.byte	0x1
 5825 1b2f 70       		.byte	0x70
 5826 1b30 0C       		.byte	0xc
 5827 1b31 01       		.byte	0x1
 5828 1b32 39010000 		.long	0x139
 5829 1b36 0E030000 		.long	LFB9
 5830 1b3a 29030000 		.long	LFE9
 5831 1b3e 28040000 		.secrel32	LLST5
 5832 1b42 01       		.byte	0x1
 5833 1b43 571B0000 		.long	0x1b57
 5834 1b47 27       		.uleb128 0x27
 5835 1b48 84000000 		.secrel32	LASF17
GAS LISTING C:\Users\jisu8\AppData\Local\Temp\ccIqWD58.s 			page 136


 5836 1b4c 01       		.byte	0x1
 5837 1b4d 70       		.byte	0x70
 5838 1b4e 28       		.byte	0x28
 5839 1b4f 39010000 		.long	0x139
 5840 1b53 02       		.byte	0x2
 5841 1b54 91       		.byte	0x91
 5842 1b55 00       		.sleb128 0
 5843 1b56 00       		.byte	0
 5844 1b57 2C       		.uleb128 0x2c
 5845 1b58 47657443 		.ascii "GetCodewordBucketNumberRet\0"
 5845      6F646577 
 5845      6F726442 
 5845      75636B65 
 5845      744E756D 
 5846 1b73 01       		.byte	0x1
 5847 1b74 6A       		.byte	0x6a
 5848 1b75 0C       		.byte	0xc
 5849 1b76 01       		.byte	0x1
 5850 1b77 39010000 		.long	0x139
 5851 1b7b C2020000 		.long	LFB8
 5852 1b7f 0E030000 		.long	LFE8
 5853 1b83 60040000 		.secrel32	LLST4
 5854 1b87 01       		.byte	0x1
 5855 1b88 9C1B0000 		.long	0x1b9c
 5856 1b8c 27       		.uleb128 0x27
 5857 1b8d 36010000 		.secrel32	LASF28
 5858 1b91 01       		.byte	0x1
 5859 1b92 6A       		.byte	0x6a
 5860 1b93 33       		.byte	0x33
 5861 1b94 930F0000 		.long	0xf93
 5862 1b98 02       		.byte	0x2
 5863 1b99 91       		.byte	0x91
 5864 1b9a 00       		.sleb128 0
 5865 1b9b 00       		.byte	0
 5866 1b9c 29       		.uleb128 0x29
 5867 1b9d 47657442 		.ascii "GetBitCountForCodeword\0"
 5867      6974436F 
 5867      756E7446 
 5867      6F72436F 
 5867      6465776F 
 5868 1bb4 01       		.byte	0x1
 5869 1bb5 51       		.byte	0x51
 5870 1bb6 0E       		.byte	0xe
 5871 1bb7 01       		.byte	0x1
 5872 1bb8 C0010000 		.long	0x1c0
 5873 1bbc 3C020000 		.long	LFB7
 5874 1bc0 C2020000 		.long	LFE7
 5875 1bc4 98040000 		.secrel32	LLST3
 5876 1bc8 01       		.byte	0x1
 5877 1bc9 1C1C0000 		.long	0x1c1c
 5878 1bcd 27       		.uleb128 0x27
 5879 1bce 84000000 		.secrel32	LASF17
 5880 1bd2 01       		.byte	0x1
 5881 1bd3 51       		.byte	0x51
 5882 1bd4 29       		.byte	0x29
 5883 1bd5 39010000 		.long	0x139
 5884 1bd9 02       		.byte	0x2
GAS LISTING C:\Users\jisu8\AppData\Local\Temp\ccIqWD58.s 			page 137


 5885 1bda 91       		.byte	0x91
 5886 1bdb 00       		.sleb128 0
 5887 1bdc 24       		.uleb128 0x24
 5888 1bdd 01       		.byte	0x1
 5889 1bde 16010000 		.secrel32	LASF21
 5890 1be2 13       		.byte	0x13
 5891 1be3 00       		.byte	0
 5892 1be4 01       		.byte	0x1
 5893 1be5 39010000 		.long	0x139
 5894 1be9 01       		.byte	0x1
 5895 1bea F51B0000 		.long	0x1bf5
 5896 1bee 21       		.uleb128 0x21
 5897 1bef 990F0000 		.long	0xf99
 5898 1bf3 22       		.uleb128 0x22
 5899 1bf4 00       		.byte	0
 5900 1bf5 13       		.uleb128 0x13
 5901 1bf6 70726576 		.ascii "previousValue\0"
 5901      696F7573 
 5901      56616C75 
 5901      6500
 5902 1c04 01       		.byte	0x1
 5903 1c05 57       		.byte	0x57
 5904 1c06 06       		.byte	0x6
 5905 1c07 39010000 		.long	0x139
 5906 1c0b 02       		.byte	0x2
 5907 1c0c 91       		.byte	0x91
 5908 1c0d 6C       		.sleb128 -20
 5909 1c0e 13       		.uleb128 0x13
 5910 1c0f 6900     		.ascii "i\0"
 5911 1c11 01       		.byte	0x1
 5912 1c12 58       		.byte	0x58
 5913 1c13 06       		.byte	0x6
 5914 1c14 39010000 		.long	0x139
 5915 1c18 02       		.byte	0x2
 5916 1c19 91       		.byte	0x91
 5917 1c1a 68       		.sleb128 -24
 5918 1c1b 00       		.byte	0
 5919 1c1c 2C       		.uleb128 0x2c
 5920 1c1d 43686563 		.ascii "CheckCodewordSkew\0"
 5920      6B436F64 
 5920      65776F72 
 5920      64536B65 
 5920      7700
 5921 1c2f 01       		.byte	0x1
 5922 1c30 4B       		.byte	0x4b
 5923 1c31 10       		.byte	0x10
 5924 1c32 01       		.byte	0x1
 5925 1c33 22020000 		.long	0x222
 5926 1c37 0D020000 		.long	LFB6
 5927 1c3b 3C020000 		.long	LFE6
 5928 1c3f D0040000 		.secrel32	LLST2
 5929 1c43 01       		.byte	0x1
 5930 1c44 7F1C0000 		.long	0x1c7f
 5931 1c48 2A       		.uleb128 0x2a
 5932 1c49 636F6465 		.ascii "codewordSize\0"
 5932      776F7264 
 5932      53697A65 
GAS LISTING C:\Users\jisu8\AppData\Local\Temp\ccIqWD58.s 			page 138


 5932      00
 5933 1c56 01       		.byte	0x1
 5934 1c57 4B       		.byte	0x4b
 5935 1c58 26       		.byte	0x26
 5936 1c59 39010000 		.long	0x139
 5937 1c5d 02       		.byte	0x2
 5938 1c5e 91       		.byte	0x91
 5939 1c5f 00       		.sleb128 0
 5940 1c60 27       		.uleb128 0x27
 5941 1c61 C3000000 		.secrel32	LASF5
 5942 1c65 01       		.byte	0x1
 5943 1c66 4B       		.byte	0x4b
 5944 1c67 38       		.byte	0x38
 5945 1c68 39010000 		.long	0x139
 5946 1c6c 02       		.byte	0x2
 5947 1c6d 91       		.byte	0x91
 5948 1c6e 04       		.sleb128 4
 5949 1c6f 27       		.uleb128 0x27
 5950 1c70 21000000 		.secrel32	LASF6
 5951 1c74 01       		.byte	0x1
 5952 1c75 4B       		.byte	0x4b
 5953 1c76 4E       		.byte	0x4e
 5954 1c77 39010000 		.long	0x139
 5955 1c7b 02       		.byte	0x2
 5956 1c7c 91       		.byte	0x91
 5957 1c7d 08       		.sleb128 8
 5958 1c7e 00       		.byte	0
 5959 1c7f 29       		.uleb128 0x29
 5960 1c80 4765744D 		.ascii "GetModuleBitCount\0"
 5960      6F64756C 
 5960      65426974 
 5960      436F756E 
 5960      7400
 5961 1c92 01       		.byte	0x1
 5962 1c93 30       		.byte	0x30
 5963 1c94 10       		.byte	0x10
 5964 1c95 01       		.byte	0x1
 5965 1c96 22020000 		.long	0x222
 5966 1c9a D3000000 		.long	LFB5
 5967 1c9e 0D020000 		.long	LFE5
 5968 1ca2 08050000 		.secrel32	LLST1
 5969 1ca6 01       		.byte	0x1
 5970 1ca7 991D0000 		.long	0x1d99
 5971 1cab 27       		.uleb128 0x27
 5972 1cac 7E000000 		.secrel32	LASF4
 5973 1cb0 01       		.byte	0x1
 5974 1cb1 30       		.byte	0x30
 5975 1cb2 36       		.byte	0x36
 5976 1cb3 E40D0000 		.long	0xde4
 5977 1cb7 02       		.byte	0x2
 5978 1cb8 91       		.byte	0x91
 5979 1cb9 00       		.sleb128 0
 5980 1cba 27       		.uleb128 0x27
 5981 1cbb 57010000 		.secrel32	LASF26
 5982 1cbf 01       		.byte	0x1
 5983 1cc0 30       		.byte	0x30
 5984 1cc1 41       		.byte	0x41
GAS LISTING C:\Users\jisu8\AppData\Local\Temp\ccIqWD58.s 			page 139


 5985 1cc2 39010000 		.long	0x139
 5986 1cc6 02       		.byte	0x2
 5987 1cc7 91       		.byte	0x91
 5988 1cc8 04       		.sleb128 4
 5989 1cc9 27       		.uleb128 0x27
 5990 1cca AD000000 		.secrel32	LASF27
 5991 1cce 01       		.byte	0x1
 5992 1ccf 30       		.byte	0x30
 5993 1cd0 50       		.byte	0x50
 5994 1cd1 39010000 		.long	0x139
 5995 1cd5 02       		.byte	0x2
 5996 1cd6 91       		.byte	0x91
 5997 1cd7 08       		.sleb128 8
 5998 1cd8 27       		.uleb128 0x27
 5999 1cd9 1D010000 		.secrel32	LASF13
 6000 1cdd 01       		.byte	0x1
 6001 1cde 30       		.byte	0x30
 6002 1cdf 63       		.byte	0x63
 6003 1ce0 22020000 		.long	0x222
 6004 1ce4 02       		.byte	0x2
 6005 1ce5 91       		.byte	0x91
 6006 1ce6 5C       		.sleb128 -36
 6007 1ce7 27       		.uleb128 0x27
 6008 1ce8 44000000 		.secrel32	LASF15
 6009 1cec 01       		.byte	0x1
 6010 1ced 30       		.byte	0x30
 6011 1cee 74       		.byte	0x74
 6012 1cef 39010000 		.long	0x139
 6013 1cf3 02       		.byte	0x2
 6014 1cf4 91       		.byte	0x91
 6015 1cf5 10       		.sleb128 16
 6016 1cf6 27       		.uleb128 0x27
 6017 1cf7 8D000000 		.secrel32	LASF16
 6018 1cfb 01       		.byte	0x1
 6019 1cfc 30       		.byte	0x30
 6020 1cfd 85       		.byte	0x85
 6021 1cfe 39010000 		.long	0x139
 6022 1d02 02       		.byte	0x2
 6023 1d03 91       		.byte	0x91
 6024 1d04 14       		.sleb128 20
 6025 1d05 27       		.uleb128 0x27
 6026 1d06 36010000 		.secrel32	LASF28
 6027 1d0a 01       		.byte	0x1
 6028 1d0b 30       		.byte	0x30
 6029 1d0c 95       		.byte	0x95
 6030 1d0d C0010000 		.long	0x1c0
 6031 1d11 02       		.byte	0x2
 6032 1d12 91       		.byte	0x91
 6033 1d13 18       		.sleb128 24
 6034 1d14 27       		.uleb128 0x27
 6035 1d15 50010000 		.secrel32	LASF9
 6036 1d19 01       		.byte	0x1
 6037 1d1a 30       		.byte	0x30
 6038 1d1b AD       		.byte	0xad
 6039 1d1c 22020000 		.long	0x222
 6040 1d20 02       		.byte	0x2
 6041 1d21 91       		.byte	0x91
GAS LISTING C:\Users\jisu8\AppData\Local\Temp\ccIqWD58.s 			page 140


 6042 1d22 58       		.sleb128 -40
 6043 1d23 24       		.uleb128 0x24
 6044 1d24 01       		.byte	0x1
 6045 1d25 16010000 		.secrel32	LASF21
 6046 1d29 13       		.byte	0x13
 6047 1d2a 00       		.byte	0
 6048 1d2b 01       		.byte	0x1
 6049 1d2c 39010000 		.long	0x139
 6050 1d30 01       		.byte	0x1
 6051 1d31 3C1D0000 		.long	0x1d3c
 6052 1d35 21       		.uleb128 0x21
 6053 1d36 990F0000 		.long	0xf99
 6054 1d3a 22       		.uleb128 0x22
 6055 1d3b 00       		.byte	0
 6056 1d3c 13       		.uleb128 0x13
 6057 1d3d 696D6167 		.ascii "imageColumn\0"
 6057      65436F6C 
 6057      756D6E00 
 6058 1d49 01       		.byte	0x1
 6059 1d4a 36       		.byte	0x36
 6060 1d4b 06       		.byte	0x6
 6061 1d4c 39010000 		.long	0x139
 6062 1d50 02       		.byte	0x2
 6063 1d51 91       		.byte	0x91
 6064 1d52 6C       		.sleb128 -20
 6065 1d53 13       		.uleb128 0x13
 6066 1d54 6D6F6475 		.ascii "moduleNumber\0"
 6066      6C654E75 
 6066      6D626572 
 6066      00
 6067 1d61 01       		.byte	0x1
 6068 1d62 37       		.byte	0x37
 6069 1d63 0F       		.byte	0xf
 6070 1d64 D8000000 		.long	0xd8
 6071 1d68 02       		.byte	0x2
 6072 1d69 91       		.byte	0x91
 6073 1d6a 68       		.sleb128 -24
 6074 1d6b 2B       		.uleb128 0x2b
 6075 1d6c 32000000 		.secrel32	LASF25
 6076 1d70 01       		.byte	0x1
 6077 1d71 38       		.byte	0x38
 6078 1d72 06       		.byte	0x6
 6079 1d73 39010000 		.long	0x139
 6080 1d77 02       		.byte	0x2
 6081 1d78 91       		.byte	0x91
 6082 1d79 60       		.sleb128 -32
 6083 1d7a 13       		.uleb128 0x13
 6084 1d7b 70726576 		.ascii "previousPixelValue\0"
 6084      696F7573 
 6084      50697865 
 6084      6C56616C 
 6084      756500
 6085 1d8e 01       		.byte	0x1
 6086 1d8f 39       		.byte	0x39
 6087 1d90 0A       		.byte	0xa
 6088 1d91 22020000 		.long	0x222
 6089 1d95 02       		.byte	0x2
GAS LISTING C:\Users\jisu8\AppData\Local\Temp\ccIqWD58.s 			page 141


 6090 1d96 91       		.byte	0x91
 6091 1d97 67       		.sleb128 -25
 6092 1d98 00       		.byte	0
 6093 1d99 2D       		.uleb128 0x2d
 6094 1d9a 41646A75 		.ascii "AdjustCodewordStartColumn\0"
 6094      7374436F 
 6094      6465776F 
 6094      72645374 
 6094      61727443 
 6095 1db4 01       		.byte	0x1
 6096 1db5 16       		.byte	0x16
 6097 1db6 0C       		.byte	0xc
 6098 1db7 01       		.byte	0x1
 6099 1db8 39010000 		.long	0x139
 6100 1dbc 00000000 		.long	LFB4
 6101 1dc0 D3000000 		.long	LFE4
 6102 1dc4 40050000 		.secrel32	LLST0
 6103 1dc8 01       		.byte	0x1
 6104 1dc9 27       		.uleb128 0x27
 6105 1dca 7E000000 		.secrel32	LASF4
 6106 1dce 01       		.byte	0x1
 6107 1dcf 16       		.byte	0x16
 6108 1dd0 3A       		.byte	0x3a
 6109 1dd1 E40D0000 		.long	0xde4
 6110 1dd5 02       		.byte	0x2
 6111 1dd6 91       		.byte	0x91
 6112 1dd7 00       		.sleb128 0
 6113 1dd8 27       		.uleb128 0x27
 6114 1dd9 57010000 		.secrel32	LASF26
 6115 1ddd 01       		.byte	0x1
 6116 1dde 16       		.byte	0x16
 6117 1ddf 45       		.byte	0x45
 6118 1de0 39010000 		.long	0x139
 6119 1de4 02       		.byte	0x2
 6120 1de5 91       		.byte	0x91
 6121 1de6 04       		.sleb128 4
 6122 1de7 27       		.uleb128 0x27
 6123 1de8 AD000000 		.secrel32	LASF27
 6124 1dec 01       		.byte	0x1
 6125 1ded 16       		.byte	0x16
 6126 1dee 54       		.byte	0x54
 6127 1def 39010000 		.long	0x139
 6128 1df3 02       		.byte	0x2
 6129 1df4 91       		.byte	0x91
 6130 1df5 08       		.sleb128 8
 6131 1df6 27       		.uleb128 0x27
 6132 1df7 1D010000 		.secrel32	LASF13
 6133 1dfb 01       		.byte	0x1
 6134 1dfc 16       		.byte	0x16
 6135 1dfd 67       		.byte	0x67
 6136 1dfe 22020000 		.long	0x222
 6137 1e02 02       		.byte	0x2
 6138 1e03 91       		.byte	0x91
 6139 1e04 5C       		.sleb128 -36
 6140 1e05 2A       		.uleb128 0x2a
 6141 1e06 636F6465 		.ascii "codewordStartColumn\0"
 6141      776F7264 
GAS LISTING C:\Users\jisu8\AppData\Local\Temp\ccIqWD58.s 			page 142


 6141      53746172 
 6141      74436F6C 
 6141      756D6E00 
 6142 1e1a 01       		.byte	0x1
 6143 1e1b 16       		.byte	0x16
 6144 1e1c 78       		.byte	0x78
 6145 1e1d 39010000 		.long	0x139
 6146 1e21 02       		.byte	0x2
 6147 1e22 91       		.byte	0x91
 6148 1e23 10       		.sleb128 16
 6149 1e24 27       		.uleb128 0x27
 6150 1e25 8D000000 		.secrel32	LASF16
 6151 1e29 01       		.byte	0x1
 6152 1e2a 16       		.byte	0x16
 6153 1e2b 91       		.byte	0x91
 6154 1e2c 39010000 		.long	0x139
 6155 1e30 02       		.byte	0x2
 6156 1e31 91       		.byte	0x91
 6157 1e32 14       		.sleb128 20
 6158 1e33 24       		.uleb128 0x24
 6159 1e34 01       		.byte	0x1
 6160 1e35 16010000 		.secrel32	LASF21
 6161 1e39 13       		.byte	0x13
 6162 1e3a 00       		.byte	0
 6163 1e3b 01       		.byte	0x1
 6164 1e3c 39010000 		.long	0x139
 6165 1e40 01       		.byte	0x1
 6166 1e41 4C1E0000 		.long	0x1e4c
 6167 1e45 21       		.uleb128 0x21
 6168 1e46 990F0000 		.long	0xf99
 6169 1e4a 22       		.uleb128 0x22
 6170 1e4b 00       		.byte	0
 6171 1e4c 13       		.uleb128 0x13
 6172 1e4d 636F7272 		.ascii "correctedStartColumn\0"
 6172      65637465 
 6172      64537461 
 6172      7274436F 
 6172      6C756D6E 
 6173 1e62 01       		.byte	0x1
 6174 1e63 1C       		.byte	0x1c
 6175 1e64 06       		.byte	0x6
 6176 1e65 39010000 		.long	0x139
 6177 1e69 02       		.byte	0x2
 6178 1e6a 91       		.byte	0x91
 6179 1e6b 6C       		.sleb128 -20
 6180 1e6c 2B       		.uleb128 0x2b
 6181 1e6d 32000000 		.secrel32	LASF25
 6182 1e71 01       		.byte	0x1
 6183 1e72 1D       		.byte	0x1d
 6184 1e73 06       		.byte	0x6
 6185 1e74 39010000 		.long	0x139
 6186 1e78 02       		.byte	0x2
 6187 1e79 91       		.byte	0x91
 6188 1e7a 68       		.sleb128 -24
 6189 1e7b 1C       		.uleb128 0x1c
 6190 1e7c 57000000 		.long	LBB2
 6191 1e80 CE000000 		.long	LBE2
GAS LISTING C:\Users\jisu8\AppData\Local\Temp\ccIqWD58.s 			page 143


 6192 1e84 13       		.uleb128 0x13
 6193 1e85 6900     		.ascii "i\0"
 6194 1e87 01       		.byte	0x1
 6195 1e88 1F       		.byte	0x1f
 6196 1e89 0B       		.byte	0xb
 6197 1e8a 39010000 		.long	0x139
 6198 1e8e 02       		.byte	0x2
 6199 1e8f 91       		.byte	0x91
 6200 1e90 64       		.sleb128 -28
 6201 1e91 00       		.byte	0
 6202 1e92 00       		.byte	0
 6203 1e93 00       		.byte	0
 6204              		.section	.debug_abbrev,"dr"
 6205              	Ldebug_abbrev0:
 6206 0000 01       		.uleb128 0x1
 6207 0001 11       		.uleb128 0x11
 6208 0002 01       		.byte	0x1
 6209 0003 25       		.uleb128 0x25
 6210 0004 08       		.uleb128 0x8
 6211 0005 13       		.uleb128 0x13
 6212 0006 0B       		.uleb128 0xb
 6213 0007 03       		.uleb128 0x3
 6214 0008 08       		.uleb128 0x8
 6215 0009 1B       		.uleb128 0x1b
 6216 000a 08       		.uleb128 0x8
 6217 000b 11       		.uleb128 0x11
 6218 000c 01       		.uleb128 0x1
 6219 000d 12       		.uleb128 0x12
 6220 000e 01       		.uleb128 0x1
 6221 000f 10       		.uleb128 0x10
 6222 0010 06       		.uleb128 0x6
 6223 0011 00       		.byte	0
 6224 0012 00       		.byte	0
 6225 0013 02       		.uleb128 0x2
 6226 0014 04       		.uleb128 0x4
 6227 0015 01       		.byte	0x1
 6228 0016 3E       		.uleb128 0x3e
 6229 0017 0B       		.uleb128 0xb
 6230 0018 0B       		.uleb128 0xb
 6231 0019 0B       		.uleb128 0xb
 6232 001a 49       		.uleb128 0x49
 6233 001b 13       		.uleb128 0x13
 6234 001c 3A       		.uleb128 0x3a
 6235 001d 0B       		.uleb128 0xb
 6236 001e 3B       		.uleb128 0x3b
 6237 001f 0B       		.uleb128 0xb
 6238 0020 39       		.uleb128 0x39
 6239 0021 0B       		.uleb128 0xb
 6240 0022 01       		.uleb128 0x1
 6241 0023 13       		.uleb128 0x13
 6242 0024 00       		.byte	0
 6243 0025 00       		.byte	0
 6244 0026 03       		.uleb128 0x3
 6245 0027 28       		.uleb128 0x28
 6246 0028 00       		.byte	0
 6247 0029 03       		.uleb128 0x3
 6248 002a 08       		.uleb128 0x8
GAS LISTING C:\Users\jisu8\AppData\Local\Temp\ccIqWD58.s 			page 144


 6249 002b 1C       		.uleb128 0x1c
 6250 002c 0B       		.uleb128 0xb
 6251 002d 00       		.byte	0
 6252 002e 00       		.byte	0
 6253 002f 04       		.uleb128 0x4
 6254 0030 24       		.uleb128 0x24
 6255 0031 00       		.byte	0
 6256 0032 0B       		.uleb128 0xb
 6257 0033 0B       		.uleb128 0xb
 6258 0034 3E       		.uleb128 0x3e
 6259 0035 0B       		.uleb128 0xb
 6260 0036 03       		.uleb128 0x3
 6261 0037 08       		.uleb128 0x8
 6262 0038 00       		.byte	0
 6263 0039 00       		.byte	0
 6264 003a 05       		.uleb128 0x5
 6265 003b 16       		.uleb128 0x16
 6266 003c 00       		.byte	0
 6267 003d 03       		.uleb128 0x3
 6268 003e 08       		.uleb128 0x8
 6269 003f 3A       		.uleb128 0x3a
 6270 0040 0B       		.uleb128 0xb
 6271 0041 3B       		.uleb128 0x3b
 6272 0042 0B       		.uleb128 0xb
 6273 0043 39       		.uleb128 0x39
 6274 0044 0B       		.uleb128 0xb
 6275 0045 49       		.uleb128 0x49
 6276 0046 13       		.uleb128 0x13
 6277 0047 00       		.byte	0
 6278 0048 00       		.byte	0
 6279 0049 06       		.uleb128 0x6
 6280 004a 13       		.uleb128 0x13
 6281 004b 01       		.byte	0x1
 6282 004c 0B       		.uleb128 0xb
 6283 004d 0B       		.uleb128 0xb
 6284 004e 3A       		.uleb128 0x3a
 6285 004f 0B       		.uleb128 0xb
 6286 0050 3B       		.uleb128 0x3b
 6287 0051 0B       		.uleb128 0xb
 6288 0052 39       		.uleb128 0x39
 6289 0053 0B       		.uleb128 0xb
 6290 0054 01       		.uleb128 0x1
 6291 0055 13       		.uleb128 0x13
 6292 0056 00       		.byte	0
 6293 0057 00       		.byte	0
 6294 0058 07       		.uleb128 0x7
 6295 0059 0D       		.uleb128 0xd
 6296 005a 00       		.byte	0
 6297 005b 03       		.uleb128 0x3
 6298 005c 08       		.uleb128 0x8
 6299 005d 3A       		.uleb128 0x3a
 6300 005e 0B       		.uleb128 0xb
 6301 005f 3B       		.uleb128 0x3b
 6302 0060 0B       		.uleb128 0xb
 6303 0061 39       		.uleb128 0x39
 6304 0062 0B       		.uleb128 0xb
 6305 0063 49       		.uleb128 0x49
GAS LISTING C:\Users\jisu8\AppData\Local\Temp\ccIqWD58.s 			page 145


 6306 0064 13       		.uleb128 0x13
 6307 0065 38       		.uleb128 0x38
 6308 0066 0A       		.uleb128 0xa
 6309 0067 00       		.byte	0
 6310 0068 00       		.byte	0
 6311 0069 08       		.uleb128 0x8
 6312 006a 26       		.uleb128 0x26
 6313 006b 00       		.byte	0
 6314 006c 49       		.uleb128 0x49
 6315 006d 13       		.uleb128 0x13
 6316 006e 00       		.byte	0
 6317 006f 00       		.byte	0
 6318 0070 09       		.uleb128 0x9
 6319 0071 0F       		.uleb128 0xf
 6320 0072 00       		.byte	0
 6321 0073 0B       		.uleb128 0xb
 6322 0074 0B       		.uleb128 0xb
 6323 0075 49       		.uleb128 0x49
 6324 0076 13       		.uleb128 0x13
 6325 0077 00       		.byte	0
 6326 0078 00       		.byte	0
 6327 0079 0A       		.uleb128 0xa
 6328 007a 0D       		.uleb128 0xd
 6329 007b 00       		.byte	0
 6330 007c 03       		.uleb128 0x3
 6331 007d 0E       		.uleb128 0xe
 6332 007e 3A       		.uleb128 0x3a
 6333 007f 0B       		.uleb128 0xb
 6334 0080 3B       		.uleb128 0x3b
 6335 0081 0B       		.uleb128 0xb
 6336 0082 39       		.uleb128 0x39
 6337 0083 0B       		.uleb128 0xb
 6338 0084 49       		.uleb128 0x49
 6339 0085 13       		.uleb128 0x13
 6340 0086 38       		.uleb128 0x38
 6341 0087 0A       		.uleb128 0xa
 6342 0088 00       		.byte	0
 6343 0089 00       		.byte	0
 6344 008a 0B       		.uleb128 0xb
 6345 008b 13       		.uleb128 0x13
 6346 008c 01       		.byte	0x1
 6347 008d 0B       		.uleb128 0xb
 6348 008e 05       		.uleb128 0x5
 6349 008f 3A       		.uleb128 0x3a
 6350 0090 0B       		.uleb128 0xb
 6351 0091 3B       		.uleb128 0x3b
 6352 0092 0B       		.uleb128 0xb
 6353 0093 39       		.uleb128 0x39
 6354 0094 0B       		.uleb128 0xb
 6355 0095 01       		.uleb128 0x1
 6356 0096 13       		.uleb128 0x13
 6357 0097 00       		.byte	0
 6358 0098 00       		.byte	0
 6359 0099 0C       		.uleb128 0xc
 6360 009a 01       		.uleb128 0x1
 6361 009b 01       		.byte	0x1
 6362 009c 49       		.uleb128 0x49
GAS LISTING C:\Users\jisu8\AppData\Local\Temp\ccIqWD58.s 			page 146


 6363 009d 13       		.uleb128 0x13
 6364 009e 01       		.uleb128 0x1
 6365 009f 13       		.uleb128 0x13
 6366 00a0 00       		.byte	0
 6367 00a1 00       		.byte	0
 6368 00a2 0D       		.uleb128 0xd
 6369 00a3 21       		.uleb128 0x21
 6370 00a4 00       		.byte	0
 6371 00a5 49       		.uleb128 0x49
 6372 00a6 13       		.uleb128 0x13
 6373 00a7 2F       		.uleb128 0x2f
 6374 00a8 05       		.uleb128 0x5
 6375 00a9 00       		.byte	0
 6376 00aa 00       		.byte	0
 6377 00ab 0E       		.uleb128 0xe
 6378 00ac 34       		.uleb128 0x34
 6379 00ad 00       		.byte	0
 6380 00ae 03       		.uleb128 0x3
 6381 00af 08       		.uleb128 0x8
 6382 00b0 3A       		.uleb128 0x3a
 6383 00b1 0B       		.uleb128 0xb
 6384 00b2 3B       		.uleb128 0x3b
 6385 00b3 0B       		.uleb128 0xb
 6386 00b4 39       		.uleb128 0x39
 6387 00b5 0B       		.uleb128 0xb
 6388 00b6 49       		.uleb128 0x49
 6389 00b7 13       		.uleb128 0x13
 6390 00b8 3F       		.uleb128 0x3f
 6391 00b9 0C       		.uleb128 0xc
 6392 00ba 3C       		.uleb128 0x3c
 6393 00bb 0C       		.uleb128 0xc
 6394 00bc 00       		.byte	0
 6395 00bd 00       		.byte	0
 6396 00be 0F       		.uleb128 0xf
 6397 00bf 34       		.uleb128 0x34
 6398 00c0 00       		.byte	0
 6399 00c1 03       		.uleb128 0x3
 6400 00c2 0E       		.uleb128 0xe
 6401 00c3 3A       		.uleb128 0x3a
 6402 00c4 0B       		.uleb128 0xb
 6403 00c5 3B       		.uleb128 0x3b
 6404 00c6 0B       		.uleb128 0xb
 6405 00c7 39       		.uleb128 0x39
 6406 00c8 0B       		.uleb128 0xb
 6407 00c9 49       		.uleb128 0x49
 6408 00ca 13       		.uleb128 0x13
 6409 00cb 3F       		.uleb128 0x3f
 6410 00cc 0C       		.uleb128 0xc
 6411 00cd 3C       		.uleb128 0x3c
 6412 00ce 0C       		.uleb128 0xc
 6413 00cf 00       		.byte	0
 6414 00d0 00       		.byte	0
 6415 00d1 10       		.uleb128 0x10
 6416 00d2 13       		.uleb128 0x13
 6417 00d3 01       		.byte	0x1
 6418 00d4 0B       		.uleb128 0xb
 6419 00d5 06       		.uleb128 0x6
GAS LISTING C:\Users\jisu8\AppData\Local\Temp\ccIqWD58.s 			page 147


 6420 00d6 3A       		.uleb128 0x3a
 6421 00d7 0B       		.uleb128 0xb
 6422 00d8 3B       		.uleb128 0x3b
 6423 00d9 0B       		.uleb128 0xb
 6424 00da 39       		.uleb128 0x39
 6425 00db 0B       		.uleb128 0xb
 6426 00dc 01       		.uleb128 0x1
 6427 00dd 13       		.uleb128 0x13
 6428 00de 00       		.byte	0
 6429 00df 00       		.byte	0
 6430 00e0 11       		.uleb128 0x11
 6431 00e1 21       		.uleb128 0x21
 6432 00e2 00       		.byte	0
 6433 00e3 49       		.uleb128 0x49
 6434 00e4 13       		.uleb128 0x13
 6435 00e5 2F       		.uleb128 0x2f
 6436 00e6 0B       		.uleb128 0xb
 6437 00e7 00       		.byte	0
 6438 00e8 00       		.byte	0
 6439 00e9 12       		.uleb128 0x12
 6440 00ea 34       		.uleb128 0x34
 6441 00eb 00       		.byte	0
 6442 00ec 03       		.uleb128 0x3
 6443 00ed 08       		.uleb128 0x8
 6444 00ee 3A       		.uleb128 0x3a
 6445 00ef 0B       		.uleb128 0xb
 6446 00f0 3B       		.uleb128 0x3b
 6447 00f1 05       		.uleb128 0x5
 6448 00f2 39       		.uleb128 0x39
 6449 00f3 0B       		.uleb128 0xb
 6450 00f4 49       		.uleb128 0x49
 6451 00f5 13       		.uleb128 0x13
 6452 00f6 3F       		.uleb128 0x3f
 6453 00f7 0C       		.uleb128 0xc
 6454 00f8 3C       		.uleb128 0x3c
 6455 00f9 0C       		.uleb128 0xc
 6456 00fa 00       		.byte	0
 6457 00fb 00       		.byte	0
 6458 00fc 13       		.uleb128 0x13
 6459 00fd 34       		.uleb128 0x34
 6460 00fe 00       		.byte	0
 6461 00ff 03       		.uleb128 0x3
 6462 0100 08       		.uleb128 0x8
 6463 0101 3A       		.uleb128 0x3a
 6464 0102 0B       		.uleb128 0xb
 6465 0103 3B       		.uleb128 0x3b
 6466 0104 0B       		.uleb128 0xb
 6467 0105 39       		.uleb128 0x39
 6468 0106 0B       		.uleb128 0xb
 6469 0107 49       		.uleb128 0x49
 6470 0108 13       		.uleb128 0x13
 6471 0109 02       		.uleb128 0x2
 6472 010a 0A       		.uleb128 0xa
 6473 010b 00       		.byte	0
 6474 010c 00       		.byte	0
 6475 010d 14       		.uleb128 0x14
 6476 010e 34       		.uleb128 0x34
GAS LISTING C:\Users\jisu8\AppData\Local\Temp\ccIqWD58.s 			page 148


 6477 010f 00       		.byte	0
 6478 0110 47       		.uleb128 0x47
 6479 0111 13       		.uleb128 0x13
 6480 0112 3A       		.uleb128 0x3a
 6481 0113 0B       		.uleb128 0xb
 6482 0114 3B       		.uleb128 0x3b
 6483 0115 0B       		.uleb128 0xb
 6484 0116 39       		.uleb128 0x39
 6485 0117 0B       		.uleb128 0xb
 6486 0118 02       		.uleb128 0x2
 6487 0119 0A       		.uleb128 0xa
 6488 011a 00       		.byte	0
 6489 011b 00       		.byte	0
 6490 011c 15       		.uleb128 0x15
 6491 011d 34       		.uleb128 0x34
 6492 011e 00       		.byte	0
 6493 011f 03       		.uleb128 0x3
 6494 0120 08       		.uleb128 0x8
 6495 0121 3A       		.uleb128 0x3a
 6496 0122 0B       		.uleb128 0xb
 6497 0123 3B       		.uleb128 0x3b
 6498 0124 0B       		.uleb128 0xb
 6499 0125 39       		.uleb128 0x39
 6500 0126 0B       		.uleb128 0xb
 6501 0127 49       		.uleb128 0x49
 6502 0128 13       		.uleb128 0x13
 6503 0129 3F       		.uleb128 0x3f
 6504 012a 0C       		.uleb128 0xc
 6505 012b 02       		.uleb128 0x2
 6506 012c 0A       		.uleb128 0xa
 6507 012d 00       		.byte	0
 6508 012e 00       		.byte	0
 6509 012f 16       		.uleb128 0x16
 6510 0130 2E       		.uleb128 0x2e
 6511 0131 01       		.byte	0x1
 6512 0132 3F       		.uleb128 0x3f
 6513 0133 0C       		.uleb128 0xc
 6514 0134 03       		.uleb128 0x3
 6515 0135 08       		.uleb128 0x8
 6516 0136 3A       		.uleb128 0x3a
 6517 0137 0B       		.uleb128 0xb
 6518 0138 3B       		.uleb128 0x3b
 6519 0139 05       		.uleb128 0x5
 6520 013a 39       		.uleb128 0x39
 6521 013b 0B       		.uleb128 0xb
 6522 013c 27       		.uleb128 0x27
 6523 013d 0C       		.uleb128 0xc
 6524 013e 49       		.uleb128 0x49
 6525 013f 13       		.uleb128 0x13
 6526 0140 11       		.uleb128 0x11
 6527 0141 01       		.uleb128 0x1
 6528 0142 12       		.uleb128 0x12
 6529 0143 01       		.uleb128 0x1
 6530 0144 40       		.uleb128 0x40
 6531 0145 06       		.uleb128 0x6
 6532 0146 9642     		.uleb128 0x2116
 6533 0148 0C       		.uleb128 0xc
GAS LISTING C:\Users\jisu8\AppData\Local\Temp\ccIqWD58.s 			page 149


 6534 0149 01       		.uleb128 0x1
 6535 014a 13       		.uleb128 0x13
 6536 014b 00       		.byte	0
 6537 014c 00       		.byte	0
 6538 014d 17       		.uleb128 0x17
 6539 014e 05       		.uleb128 0x5
 6540 014f 00       		.byte	0
 6541 0150 03       		.uleb128 0x3
 6542 0151 0E       		.uleb128 0xe
 6543 0152 3A       		.uleb128 0x3a
 6544 0153 0B       		.uleb128 0xb
 6545 0154 3B       		.uleb128 0x3b
 6546 0155 05       		.uleb128 0x5
 6547 0156 39       		.uleb128 0x39
 6548 0157 0B       		.uleb128 0xb
 6549 0158 49       		.uleb128 0x49
 6550 0159 13       		.uleb128 0x13
 6551 015a 02       		.uleb128 0x2
 6552 015b 0A       		.uleb128 0xa
 6553 015c 00       		.byte	0
 6554 015d 00       		.byte	0
 6555 015e 18       		.uleb128 0x18
 6556 015f 05       		.uleb128 0x5
 6557 0160 00       		.byte	0
 6558 0161 03       		.uleb128 0x3
 6559 0162 08       		.uleb128 0x8
 6560 0163 3A       		.uleb128 0x3a
 6561 0164 0B       		.uleb128 0xb
 6562 0165 3B       		.uleb128 0x3b
 6563 0166 05       		.uleb128 0x5
 6564 0167 39       		.uleb128 0x39
 6565 0168 0B       		.uleb128 0xb
 6566 0169 49       		.uleb128 0x49
 6567 016a 13       		.uleb128 0x13
 6568 016b 02       		.uleb128 0x2
 6569 016c 0A       		.uleb128 0xa
 6570 016d 00       		.byte	0
 6571 016e 00       		.byte	0
 6572 016f 19       		.uleb128 0x19
 6573 0170 34       		.uleb128 0x34
 6574 0171 00       		.byte	0
 6575 0172 03       		.uleb128 0x3
 6576 0173 0E       		.uleb128 0xe
 6577 0174 3A       		.uleb128 0x3a
 6578 0175 0B       		.uleb128 0xb
 6579 0176 3B       		.uleb128 0x3b
 6580 0177 05       		.uleb128 0x5
 6581 0178 39       		.uleb128 0x39
 6582 0179 0B       		.uleb128 0xb
 6583 017a 49       		.uleb128 0x49
 6584 017b 13       		.uleb128 0x13
 6585 017c 02       		.uleb128 0x2
 6586 017d 0A       		.uleb128 0xa
 6587 017e 00       		.byte	0
 6588 017f 00       		.byte	0
 6589 0180 1A       		.uleb128 0x1a
 6590 0181 34       		.uleb128 0x34
GAS LISTING C:\Users\jisu8\AppData\Local\Temp\ccIqWD58.s 			page 150


 6591 0182 00       		.byte	0
 6592 0183 03       		.uleb128 0x3
 6593 0184 08       		.uleb128 0x8
 6594 0185 3A       		.uleb128 0x3a
 6595 0186 0B       		.uleb128 0xb
 6596 0187 3B       		.uleb128 0x3b
 6597 0188 05       		.uleb128 0x5
 6598 0189 39       		.uleb128 0x39
 6599 018a 0B       		.uleb128 0xb
 6600 018b 49       		.uleb128 0x49
 6601 018c 13       		.uleb128 0x13
 6602 018d 02       		.uleb128 0x2
 6603 018e 0A       		.uleb128 0xa
 6604 018f 00       		.byte	0
 6605 0190 00       		.byte	0
 6606 0191 1B       		.uleb128 0x1b
 6607 0192 0B       		.uleb128 0xb
 6608 0193 01       		.byte	0x1
 6609 0194 11       		.uleb128 0x11
 6610 0195 01       		.uleb128 0x1
 6611 0196 12       		.uleb128 0x12
 6612 0197 01       		.uleb128 0x1
 6613 0198 01       		.uleb128 0x1
 6614 0199 13       		.uleb128 0x13
 6615 019a 00       		.byte	0
 6616 019b 00       		.byte	0
 6617 019c 1C       		.uleb128 0x1c
 6618 019d 0B       		.uleb128 0xb
 6619 019e 01       		.byte	0x1
 6620 019f 11       		.uleb128 0x11
 6621 01a0 01       		.uleb128 0x1
 6622 01a1 12       		.uleb128 0x12
 6623 01a2 01       		.uleb128 0x1
 6624 01a3 00       		.byte	0
 6625 01a4 00       		.byte	0
 6626 01a5 1D       		.uleb128 0x1d
 6627 01a6 2E       		.uleb128 0x2e
 6628 01a7 01       		.byte	0x1
 6629 01a8 03       		.uleb128 0x3
 6630 01a9 08       		.uleb128 0x8
 6631 01aa 3A       		.uleb128 0x3a
 6632 01ab 0B       		.uleb128 0xb
 6633 01ac 3B       		.uleb128 0x3b
 6634 01ad 05       		.uleb128 0x5
 6635 01ae 39       		.uleb128 0x39
 6636 01af 0B       		.uleb128 0xb
 6637 01b0 27       		.uleb128 0x27
 6638 01b1 0C       		.uleb128 0xc
 6639 01b2 49       		.uleb128 0x49
 6640 01b3 13       		.uleb128 0x13
 6641 01b4 11       		.uleb128 0x11
 6642 01b5 01       		.uleb128 0x1
 6643 01b6 12       		.uleb128 0x12
 6644 01b7 01       		.uleb128 0x1
 6645 01b8 40       		.uleb128 0x40
 6646 01b9 06       		.uleb128 0x6
 6647 01ba 9642     		.uleb128 0x2116
GAS LISTING C:\Users\jisu8\AppData\Local\Temp\ccIqWD58.s 			page 151


 6648 01bc 0C       		.uleb128 0xc
 6649 01bd 01       		.uleb128 0x1
 6650 01be 13       		.uleb128 0x13
 6651 01bf 00       		.byte	0
 6652 01c0 00       		.byte	0
 6653 01c1 1E       		.uleb128 0x1e
 6654 01c2 21       		.uleb128 0x21
 6655 01c3 00       		.byte	0
 6656 01c4 49       		.uleb128 0x49
 6657 01c5 13       		.uleb128 0x13
 6658 01c6 2F       		.uleb128 0x2f
 6659 01c7 0A       		.uleb128 0xa
 6660 01c8 00       		.byte	0
 6661 01c9 00       		.byte	0
 6662 01ca 1F       		.uleb128 0x1f
 6663 01cb 2E       		.uleb128 0x2e
 6664 01cc 01       		.byte	0x1
 6665 01cd 03       		.uleb128 0x3
 6666 01ce 08       		.uleb128 0x8
 6667 01cf 3A       		.uleb128 0x3a
 6668 01d0 0B       		.uleb128 0xb
 6669 01d1 3B       		.uleb128 0x3b
 6670 01d2 05       		.uleb128 0x5
 6671 01d3 39       		.uleb128 0x39
 6672 01d4 0B       		.uleb128 0xb
 6673 01d5 27       		.uleb128 0x27
 6674 01d6 0C       		.uleb128 0xc
 6675 01d7 49       		.uleb128 0x49
 6676 01d8 13       		.uleb128 0x13
 6677 01d9 11       		.uleb128 0x11
 6678 01da 01       		.uleb128 0x1
 6679 01db 12       		.uleb128 0x12
 6680 01dc 01       		.uleb128 0x1
 6681 01dd 40       		.uleb128 0x40
 6682 01de 0A       		.uleb128 0xa
 6683 01df 9742     		.uleb128 0x2117
 6684 01e1 0C       		.uleb128 0xc
 6685 01e2 01       		.uleb128 0x1
 6686 01e3 13       		.uleb128 0x13
 6687 01e4 00       		.byte	0
 6688 01e5 00       		.byte	0
 6689 01e6 20       		.uleb128 0x20
 6690 01e7 2E       		.uleb128 0x2e
 6691 01e8 01       		.byte	0x1
 6692 01e9 3F       		.uleb128 0x3f
 6693 01ea 0C       		.uleb128 0xc
 6694 01eb 03       		.uleb128 0x3
 6695 01ec 0E       		.uleb128 0xe
 6696 01ed 3A       		.uleb128 0x3a
 6697 01ee 0B       		.uleb128 0xb
 6698 01ef 3B       		.uleb128 0x3b
 6699 01f0 0B       		.uleb128 0xb
 6700 01f1 27       		.uleb128 0x27
 6701 01f2 0C       		.uleb128 0xc
 6702 01f3 49       		.uleb128 0x49
 6703 01f4 13       		.uleb128 0x13
 6704 01f5 3C       		.uleb128 0x3c
GAS LISTING C:\Users\jisu8\AppData\Local\Temp\ccIqWD58.s 			page 152


 6705 01f6 0C       		.uleb128 0xc
 6706 01f7 00       		.byte	0
 6707 01f8 00       		.byte	0
 6708 01f9 21       		.uleb128 0x21
 6709 01fa 05       		.uleb128 0x5
 6710 01fb 00       		.byte	0
 6711 01fc 49       		.uleb128 0x49
 6712 01fd 13       		.uleb128 0x13
 6713 01fe 00       		.byte	0
 6714 01ff 00       		.byte	0
 6715 0200 22       		.uleb128 0x22
 6716 0201 18       		.uleb128 0x18
 6717 0202 00       		.byte	0
 6718 0203 00       		.byte	0
 6719 0204 00       		.byte	0
 6720 0205 23       		.uleb128 0x23
 6721 0206 2E       		.uleb128 0x2e
 6722 0207 01       		.byte	0x1
 6723 0208 03       		.uleb128 0x3
 6724 0209 08       		.uleb128 0x8
 6725 020a 3A       		.uleb128 0x3a
 6726 020b 0B       		.uleb128 0xb
 6727 020c 3B       		.uleb128 0x3b
 6728 020d 05       		.uleb128 0x5
 6729 020e 39       		.uleb128 0x39
 6730 020f 0B       		.uleb128 0xb
 6731 0210 27       		.uleb128 0x27
 6732 0211 0C       		.uleb128 0xc
 6733 0212 49       		.uleb128 0x49
 6734 0213 13       		.uleb128 0x13
 6735 0214 11       		.uleb128 0x11
 6736 0215 01       		.uleb128 0x1
 6737 0216 12       		.uleb128 0x12
 6738 0217 01       		.uleb128 0x1
 6739 0218 40       		.uleb128 0x40
 6740 0219 06       		.uleb128 0x6
 6741 021a 9742     		.uleb128 0x2117
 6742 021c 0C       		.uleb128 0xc
 6743 021d 01       		.uleb128 0x1
 6744 021e 13       		.uleb128 0x13
 6745 021f 00       		.byte	0
 6746 0220 00       		.byte	0
 6747 0221 24       		.uleb128 0x24
 6748 0222 2E       		.uleb128 0x2e
 6749 0223 01       		.byte	0x1
 6750 0224 3F       		.uleb128 0x3f
 6751 0225 0C       		.uleb128 0xc
 6752 0226 03       		.uleb128 0x3
 6753 0227 0E       		.uleb128 0xe
 6754 0228 3A       		.uleb128 0x3a
 6755 0229 0B       		.uleb128 0xb
 6756 022a 3B       		.uleb128 0x3b
 6757 022b 0B       		.uleb128 0xb
 6758 022c 27       		.uleb128 0x27
 6759 022d 0C       		.uleb128 0xc
 6760 022e 49       		.uleb128 0x49
 6761 022f 13       		.uleb128 0x13
GAS LISTING C:\Users\jisu8\AppData\Local\Temp\ccIqWD58.s 			page 153


 6762 0230 3C       		.uleb128 0x3c
 6763 0231 0C       		.uleb128 0xc
 6764 0232 01       		.uleb128 0x1
 6765 0233 13       		.uleb128 0x13
 6766 0234 00       		.byte	0
 6767 0235 00       		.byte	0
 6768 0236 25       		.uleb128 0x25
 6769 0237 2E       		.uleb128 0x2e
 6770 0238 01       		.byte	0x1
 6771 0239 3F       		.uleb128 0x3f
 6772 023a 0C       		.uleb128 0xc
 6773 023b 03       		.uleb128 0x3
 6774 023c 08       		.uleb128 0x8
 6775 023d 3A       		.uleb128 0x3a
 6776 023e 0B       		.uleb128 0xb
 6777 023f 3B       		.uleb128 0x3b
 6778 0240 05       		.uleb128 0x5
 6779 0241 39       		.uleb128 0x39
 6780 0242 0B       		.uleb128 0xb
 6781 0243 49       		.uleb128 0x49
 6782 0244 13       		.uleb128 0x13
 6783 0245 3C       		.uleb128 0x3c
 6784 0246 0C       		.uleb128 0xc
 6785 0247 00       		.byte	0
 6786 0248 00       		.byte	0
 6787 0249 26       		.uleb128 0x26
 6788 024a 2E       		.uleb128 0x2e
 6789 024b 01       		.byte	0x1
 6790 024c 3F       		.uleb128 0x3f
 6791 024d 0C       		.uleb128 0xc
 6792 024e 03       		.uleb128 0x3
 6793 024f 08       		.uleb128 0x8
 6794 0250 3A       		.uleb128 0x3a
 6795 0251 0B       		.uleb128 0xb
 6796 0252 3B       		.uleb128 0x3b
 6797 0253 0B       		.uleb128 0xb
 6798 0254 39       		.uleb128 0x39
 6799 0255 0B       		.uleb128 0xb
 6800 0256 27       		.uleb128 0x27
 6801 0257 0C       		.uleb128 0xc
 6802 0258 49       		.uleb128 0x49
 6803 0259 13       		.uleb128 0x13
 6804 025a 11       		.uleb128 0x11
 6805 025b 01       		.uleb128 0x1
 6806 025c 12       		.uleb128 0x12
 6807 025d 01       		.uleb128 0x1
 6808 025e 40       		.uleb128 0x40
 6809 025f 06       		.uleb128 0x6
 6810 0260 9742     		.uleb128 0x2117
 6811 0262 0C       		.uleb128 0xc
 6812 0263 01       		.uleb128 0x1
 6813 0264 13       		.uleb128 0x13
 6814 0265 00       		.byte	0
 6815 0266 00       		.byte	0
 6816 0267 27       		.uleb128 0x27
 6817 0268 05       		.uleb128 0x5
 6818 0269 00       		.byte	0
GAS LISTING C:\Users\jisu8\AppData\Local\Temp\ccIqWD58.s 			page 154


 6819 026a 03       		.uleb128 0x3
 6820 026b 0E       		.uleb128 0xe
 6821 026c 3A       		.uleb128 0x3a
 6822 026d 0B       		.uleb128 0xb
 6823 026e 3B       		.uleb128 0x3b
 6824 026f 0B       		.uleb128 0xb
 6825 0270 39       		.uleb128 0x39
 6826 0271 0B       		.uleb128 0xb
 6827 0272 49       		.uleb128 0x49
 6828 0273 13       		.uleb128 0x13
 6829 0274 02       		.uleb128 0x2
 6830 0275 0A       		.uleb128 0xa
 6831 0276 00       		.byte	0
 6832 0277 00       		.byte	0
 6833 0278 28       		.uleb128 0x28
 6834 0279 2E       		.uleb128 0x2e
 6835 027a 01       		.byte	0x1
 6836 027b 03       		.uleb128 0x3
 6837 027c 08       		.uleb128 0x8
 6838 027d 3A       		.uleb128 0x3a
 6839 027e 0B       		.uleb128 0xb
 6840 027f 3B       		.uleb128 0x3b
 6841 0280 0B       		.uleb128 0xb
 6842 0281 39       		.uleb128 0x39
 6843 0282 0B       		.uleb128 0xb
 6844 0283 27       		.uleb128 0x27
 6845 0284 0C       		.uleb128 0xc
 6846 0285 11       		.uleb128 0x11
 6847 0286 01       		.uleb128 0x1
 6848 0287 12       		.uleb128 0x12
 6849 0288 01       		.uleb128 0x1
 6850 0289 40       		.uleb128 0x40
 6851 028a 06       		.uleb128 0x6
 6852 028b 9742     		.uleb128 0x2117
 6853 028d 0C       		.uleb128 0xc
 6854 028e 01       		.uleb128 0x1
 6855 028f 13       		.uleb128 0x13
 6856 0290 00       		.byte	0
 6857 0291 00       		.byte	0
 6858 0292 29       		.uleb128 0x29
 6859 0293 2E       		.uleb128 0x2e
 6860 0294 01       		.byte	0x1
 6861 0295 03       		.uleb128 0x3
 6862 0296 08       		.uleb128 0x8
 6863 0297 3A       		.uleb128 0x3a
 6864 0298 0B       		.uleb128 0xb
 6865 0299 3B       		.uleb128 0x3b
 6866 029a 0B       		.uleb128 0xb
 6867 029b 39       		.uleb128 0x39
 6868 029c 0B       		.uleb128 0xb
 6869 029d 27       		.uleb128 0x27
 6870 029e 0C       		.uleb128 0xc
 6871 029f 49       		.uleb128 0x49
 6872 02a0 13       		.uleb128 0x13
 6873 02a1 11       		.uleb128 0x11
 6874 02a2 01       		.uleb128 0x1
 6875 02a3 12       		.uleb128 0x12
GAS LISTING C:\Users\jisu8\AppData\Local\Temp\ccIqWD58.s 			page 155


 6876 02a4 01       		.uleb128 0x1
 6877 02a5 40       		.uleb128 0x40
 6878 02a6 06       		.uleb128 0x6
 6879 02a7 9642     		.uleb128 0x2116
 6880 02a9 0C       		.uleb128 0xc
 6881 02aa 01       		.uleb128 0x1
 6882 02ab 13       		.uleb128 0x13
 6883 02ac 00       		.byte	0
 6884 02ad 00       		.byte	0
 6885 02ae 2A       		.uleb128 0x2a
 6886 02af 05       		.uleb128 0x5
 6887 02b0 00       		.byte	0
 6888 02b1 03       		.uleb128 0x3
 6889 02b2 08       		.uleb128 0x8
 6890 02b3 3A       		.uleb128 0x3a
 6891 02b4 0B       		.uleb128 0xb
 6892 02b5 3B       		.uleb128 0x3b
 6893 02b6 0B       		.uleb128 0xb
 6894 02b7 39       		.uleb128 0x39
 6895 02b8 0B       		.uleb128 0xb
 6896 02b9 49       		.uleb128 0x49
 6897 02ba 13       		.uleb128 0x13
 6898 02bb 02       		.uleb128 0x2
 6899 02bc 0A       		.uleb128 0xa
 6900 02bd 00       		.byte	0
 6901 02be 00       		.byte	0
 6902 02bf 2B       		.uleb128 0x2b
 6903 02c0 34       		.uleb128 0x34
 6904 02c1 00       		.byte	0
 6905 02c2 03       		.uleb128 0x3
 6906 02c3 0E       		.uleb128 0xe
 6907 02c4 3A       		.uleb128 0x3a
 6908 02c5 0B       		.uleb128 0xb
 6909 02c6 3B       		.uleb128 0x3b
 6910 02c7 0B       		.uleb128 0xb
 6911 02c8 39       		.uleb128 0x39
 6912 02c9 0B       		.uleb128 0xb
 6913 02ca 49       		.uleb128 0x49
 6914 02cb 13       		.uleb128 0x13
 6915 02cc 02       		.uleb128 0x2
 6916 02cd 0A       		.uleb128 0xa
 6917 02ce 00       		.byte	0
 6918 02cf 00       		.byte	0
 6919 02d0 2C       		.uleb128 0x2c
 6920 02d1 2E       		.uleb128 0x2e
 6921 02d2 01       		.byte	0x1
 6922 02d3 03       		.uleb128 0x3
 6923 02d4 08       		.uleb128 0x8
 6924 02d5 3A       		.uleb128 0x3a
 6925 02d6 0B       		.uleb128 0xb
 6926 02d7 3B       		.uleb128 0x3b
 6927 02d8 0B       		.uleb128 0xb
 6928 02d9 39       		.uleb128 0x39
 6929 02da 0B       		.uleb128 0xb
 6930 02db 27       		.uleb128 0x27
 6931 02dc 0C       		.uleb128 0xc
 6932 02dd 49       		.uleb128 0x49
GAS LISTING C:\Users\jisu8\AppData\Local\Temp\ccIqWD58.s 			page 156


 6933 02de 13       		.uleb128 0x13
 6934 02df 11       		.uleb128 0x11
 6935 02e0 01       		.uleb128 0x1
 6936 02e1 12       		.uleb128 0x12
 6937 02e2 01       		.uleb128 0x1
 6938 02e3 40       		.uleb128 0x40
 6939 02e4 06       		.uleb128 0x6
 6940 02e5 9742     		.uleb128 0x2117
 6941 02e7 0C       		.uleb128 0xc
 6942 02e8 01       		.uleb128 0x1
 6943 02e9 13       		.uleb128 0x13
 6944 02ea 00       		.byte	0
 6945 02eb 00       		.byte	0
 6946 02ec 2D       		.uleb128 0x2d
 6947 02ed 2E       		.uleb128 0x2e
 6948 02ee 01       		.byte	0x1
 6949 02ef 03       		.uleb128 0x3
 6950 02f0 08       		.uleb128 0x8
 6951 02f1 3A       		.uleb128 0x3a
 6952 02f2 0B       		.uleb128 0xb
 6953 02f3 3B       		.uleb128 0x3b
 6954 02f4 0B       		.uleb128 0xb
 6955 02f5 39       		.uleb128 0x39
 6956 02f6 0B       		.uleb128 0xb
 6957 02f7 27       		.uleb128 0x27
 6958 02f8 0C       		.uleb128 0xc
 6959 02f9 49       		.uleb128 0x49
 6960 02fa 13       		.uleb128 0x13
 6961 02fb 11       		.uleb128 0x11
 6962 02fc 01       		.uleb128 0x1
 6963 02fd 12       		.uleb128 0x12
 6964 02fe 01       		.uleb128 0x1
 6965 02ff 40       		.uleb128 0x40
 6966 0300 06       		.uleb128 0x6
 6967 0301 9642     		.uleb128 0x2116
 6968 0303 0C       		.uleb128 0xc
 6969 0304 00       		.byte	0
 6970 0305 00       		.byte	0
 6971 0306 00       		.byte	0
 6972              		.section	.debug_loc,"dr"
 6973              	Ldebug_loc0:
 6974              	LLST24:
 6975 0000 74120000 		.long	LFB29-Ltext0
 6976 0004 75120000 		.long	LCFI72-Ltext0
 6977 0008 0200     		.word	0x2
 6978 000a 74       		.byte	0x74
 6979 000b 04       		.sleb128 4
 6980 000c 75120000 		.long	LCFI72-Ltext0
 6981 0010 77120000 		.long	LCFI73-Ltext0
 6982 0014 0200     		.word	0x2
 6983 0016 74       		.byte	0x74
 6984 0017 08       		.sleb128 8
 6985 0018 77120000 		.long	LCFI73-Ltext0
 6986 001c E0160000 		.long	LCFI74-Ltext0
 6987 0020 0200     		.word	0x2
 6988 0022 75       		.byte	0x75
 6989 0023 08       		.sleb128 8
GAS LISTING C:\Users\jisu8\AppData\Local\Temp\ccIqWD58.s 			page 157


 6990 0024 E0160000 		.long	LCFI74-Ltext0
 6991 0028 E1160000 		.long	LFE29-Ltext0
 6992 002c 0200     		.word	0x2
 6993 002e 74       		.byte	0x74
 6994 002f 04       		.sleb128 4
 6995 0030 00000000 		.long	0
 6996 0034 00000000 		.long	0
 6997              	LLST23:
 6998 0038 89110000 		.long	LFB28-Ltext0
 6999 003c 8A110000 		.long	LCFI69-Ltext0
 7000 0040 0200     		.word	0x2
 7001 0042 74       		.byte	0x74
 7002 0043 04       		.sleb128 4
 7003 0044 8A110000 		.long	LCFI69-Ltext0
 7004 0048 8C110000 		.long	LCFI70-Ltext0
 7005 004c 0200     		.word	0x2
 7006 004e 74       		.byte	0x74
 7007 004f 08       		.sleb128 8
 7008 0050 8C110000 		.long	LCFI70-Ltext0
 7009 0054 73120000 		.long	LCFI71-Ltext0
 7010 0058 0200     		.word	0x2
 7011 005a 75       		.byte	0x75
 7012 005b 08       		.sleb128 8
 7013 005c 73120000 		.long	LCFI71-Ltext0
 7014 0060 74120000 		.long	LFE28-Ltext0
 7015 0064 0200     		.word	0x2
 7016 0066 74       		.byte	0x74
 7017 0067 04       		.sleb128 4
 7018 0068 00000000 		.long	0
 7019 006c 00000000 		.long	0
 7020              	LLST22:
 7021 0070 6A110000 		.long	LFB26-Ltext0
 7022 0074 6B110000 		.long	LCFI66-Ltext0
 7023 0078 0200     		.word	0x2
 7024 007a 74       		.byte	0x74
 7025 007b 04       		.sleb128 4
 7026 007c 6B110000 		.long	LCFI66-Ltext0
 7027 0080 6D110000 		.long	LCFI67-Ltext0
 7028 0084 0200     		.word	0x2
 7029 0086 74       		.byte	0x74
 7030 0087 08       		.sleb128 8
 7031 0088 6D110000 		.long	LCFI67-Ltext0
 7032 008c 82110000 		.long	LCFI68-Ltext0
 7033 0090 0200     		.word	0x2
 7034 0092 75       		.byte	0x75
 7035 0093 08       		.sleb128 8
 7036 0094 82110000 		.long	LCFI68-Ltext0
 7037 0098 83110000 		.long	LFE26-Ltext0
 7038 009c 0200     		.word	0x2
 7039 009e 74       		.byte	0x74
 7040 009f 04       		.sleb128 4
 7041 00a0 00000000 		.long	0
 7042 00a4 00000000 		.long	0
 7043              	LLST21:
 7044 00a8 57110000 		.long	LFB25-Ltext0
 7045 00ac 58110000 		.long	LCFI63-Ltext0
 7046 00b0 0200     		.word	0x2
GAS LISTING C:\Users\jisu8\AppData\Local\Temp\ccIqWD58.s 			page 158


 7047 00b2 74       		.byte	0x74
 7048 00b3 04       		.sleb128 4
 7049 00b4 58110000 		.long	LCFI63-Ltext0
 7050 00b8 5A110000 		.long	LCFI64-Ltext0
 7051 00bc 0200     		.word	0x2
 7052 00be 74       		.byte	0x74
 7053 00bf 08       		.sleb128 8
 7054 00c0 5A110000 		.long	LCFI64-Ltext0
 7055 00c4 69110000 		.long	LCFI65-Ltext0
 7056 00c8 0200     		.word	0x2
 7057 00ca 75       		.byte	0x75
 7058 00cb 08       		.sleb128 8
 7059 00cc 69110000 		.long	LCFI65-Ltext0
 7060 00d0 6A110000 		.long	LFE25-Ltext0
 7061 00d4 0200     		.word	0x2
 7062 00d6 74       		.byte	0x74
 7063 00d7 04       		.sleb128 4
 7064 00d8 00000000 		.long	0
 7065 00dc 00000000 		.long	0
 7066              	LLST20:
 7067 00e0 B40E0000 		.long	LFB24-Ltext0
 7068 00e4 B50E0000 		.long	LCFI60-Ltext0
 7069 00e8 0200     		.word	0x2
 7070 00ea 74       		.byte	0x74
 7071 00eb 04       		.sleb128 4
 7072 00ec B50E0000 		.long	LCFI60-Ltext0
 7073 00f0 B70E0000 		.long	LCFI61-Ltext0
 7074 00f4 0200     		.word	0x2
 7075 00f6 74       		.byte	0x74
 7076 00f7 08       		.sleb128 8
 7077 00f8 B70E0000 		.long	LCFI61-Ltext0
 7078 00fc 56110000 		.long	LCFI62-Ltext0
 7079 0100 0200     		.word	0x2
 7080 0102 75       		.byte	0x75
 7081 0103 08       		.sleb128 8
 7082 0104 56110000 		.long	LCFI62-Ltext0
 7083 0108 57110000 		.long	LFE24-Ltext0
 7084 010c 0200     		.word	0x2
 7085 010e 74       		.byte	0x74
 7086 010f 04       		.sleb128 4
 7087 0110 00000000 		.long	0
 7088 0114 00000000 		.long	0
 7089              	LLST19:
 7090 0118 EB0C0000 		.long	LFB23-Ltext0
 7091 011c EC0C0000 		.long	LCFI57-Ltext0
 7092 0120 0200     		.word	0x2
 7093 0122 74       		.byte	0x74
 7094 0123 04       		.sleb128 4
 7095 0124 EC0C0000 		.long	LCFI57-Ltext0
 7096 0128 EE0C0000 		.long	LCFI58-Ltext0
 7097 012c 0200     		.word	0x2
 7098 012e 74       		.byte	0x74
 7099 012f 08       		.sleb128 8
 7100 0130 EE0C0000 		.long	LCFI58-Ltext0
 7101 0134 B30E0000 		.long	LCFI59-Ltext0
 7102 0138 0200     		.word	0x2
 7103 013a 75       		.byte	0x75
GAS LISTING C:\Users\jisu8\AppData\Local\Temp\ccIqWD58.s 			page 159


 7104 013b 08       		.sleb128 8
 7105 013c B30E0000 		.long	LCFI59-Ltext0
 7106 0140 B40E0000 		.long	LFE23-Ltext0
 7107 0144 0200     		.word	0x2
 7108 0146 74       		.byte	0x74
 7109 0147 04       		.sleb128 4
 7110 0148 00000000 		.long	0
 7111 014c 00000000 		.long	0
 7112              	LLST18:
 7113 0150 C70C0000 		.long	LFB22-Ltext0
 7114 0154 C80C0000 		.long	LCFI54-Ltext0
 7115 0158 0200     		.word	0x2
 7116 015a 74       		.byte	0x74
 7117 015b 04       		.sleb128 4
 7118 015c C80C0000 		.long	LCFI54-Ltext0
 7119 0160 CA0C0000 		.long	LCFI55-Ltext0
 7120 0164 0200     		.word	0x2
 7121 0166 74       		.byte	0x74
 7122 0167 08       		.sleb128 8
 7123 0168 CA0C0000 		.long	LCFI55-Ltext0
 7124 016c EA0C0000 		.long	LCFI56-Ltext0
 7125 0170 0200     		.word	0x2
 7126 0172 75       		.byte	0x75
 7127 0173 08       		.sleb128 8
 7128 0174 EA0C0000 		.long	LCFI56-Ltext0
 7129 0178 EB0C0000 		.long	LFE22-Ltext0
 7130 017c 0200     		.word	0x2
 7131 017e 74       		.byte	0x74
 7132 017f 04       		.sleb128 4
 7133 0180 00000000 		.long	0
 7134 0184 00000000 		.long	0
 7135              	LLST17:
 7136 0188 F10B0000 		.long	LFB21-Ltext0
 7137 018c F20B0000 		.long	LCFI51-Ltext0
 7138 0190 0200     		.word	0x2
 7139 0192 74       		.byte	0x74
 7140 0193 04       		.sleb128 4
 7141 0194 F20B0000 		.long	LCFI51-Ltext0
 7142 0198 F40B0000 		.long	LCFI52-Ltext0
 7143 019c 0200     		.word	0x2
 7144 019e 74       		.byte	0x74
 7145 019f 08       		.sleb128 8
 7146 01a0 F40B0000 		.long	LCFI52-Ltext0
 7147 01a4 C60C0000 		.long	LCFI53-Ltext0
 7148 01a8 0200     		.word	0x2
 7149 01aa 75       		.byte	0x75
 7150 01ab 08       		.sleb128 8
 7151 01ac C60C0000 		.long	LCFI53-Ltext0
 7152 01b0 C70C0000 		.long	LFE21-Ltext0
 7153 01b4 0200     		.word	0x2
 7154 01b6 74       		.byte	0x74
 7155 01b7 04       		.sleb128 4
 7156 01b8 00000000 		.long	0
 7157 01bc 00000000 		.long	0
 7158              	LLST16:
 7159 01c0 ED090000 		.long	LFB20-Ltext0
 7160 01c4 EE090000 		.long	LCFI48-Ltext0
GAS LISTING C:\Users\jisu8\AppData\Local\Temp\ccIqWD58.s 			page 160


 7161 01c8 0200     		.word	0x2
 7162 01ca 74       		.byte	0x74
 7163 01cb 04       		.sleb128 4
 7164 01cc EE090000 		.long	LCFI48-Ltext0
 7165 01d0 F0090000 		.long	LCFI49-Ltext0
 7166 01d4 0200     		.word	0x2
 7167 01d6 74       		.byte	0x74
 7168 01d7 08       		.sleb128 8
 7169 01d8 F0090000 		.long	LCFI49-Ltext0
 7170 01dc F00B0000 		.long	LCFI50-Ltext0
 7171 01e0 0200     		.word	0x2
 7172 01e2 75       		.byte	0x75
 7173 01e3 08       		.sleb128 8
 7174 01e4 F00B0000 		.long	LCFI50-Ltext0
 7175 01e8 F10B0000 		.long	LFE20-Ltext0
 7176 01ec 0200     		.word	0x2
 7177 01ee 74       		.byte	0x74
 7178 01ef 04       		.sleb128 4
 7179 01f0 00000000 		.long	0
 7180 01f4 00000000 		.long	0
 7181              	LLST15:
 7182 01f8 9C090000 		.long	LFB19-Ltext0
 7183 01fc 9D090000 		.long	LCFI45-Ltext0
 7184 0200 0200     		.word	0x2
 7185 0202 74       		.byte	0x74
 7186 0203 04       		.sleb128 4
 7187 0204 9D090000 		.long	LCFI45-Ltext0
 7188 0208 9F090000 		.long	LCFI46-Ltext0
 7189 020c 0200     		.word	0x2
 7190 020e 74       		.byte	0x74
 7191 020f 08       		.sleb128 8
 7192 0210 9F090000 		.long	LCFI46-Ltext0
 7193 0214 EC090000 		.long	LCFI47-Ltext0
 7194 0218 0200     		.word	0x2
 7195 021a 75       		.byte	0x75
 7196 021b 08       		.sleb128 8
 7197 021c EC090000 		.long	LCFI47-Ltext0
 7198 0220 ED090000 		.long	LFE19-Ltext0
 7199 0224 0200     		.word	0x2
 7200 0226 74       		.byte	0x74
 7201 0227 04       		.sleb128 4
 7202 0228 00000000 		.long	0
 7203 022c 00000000 		.long	0
 7204              	LLST14:
 7205 0230 40080000 		.long	LFB18-Ltext0
 7206 0234 41080000 		.long	LCFI42-Ltext0
 7207 0238 0200     		.word	0x2
 7208 023a 74       		.byte	0x74
 7209 023b 04       		.sleb128 4
 7210 023c 41080000 		.long	LCFI42-Ltext0
 7211 0240 43080000 		.long	LCFI43-Ltext0
 7212 0244 0200     		.word	0x2
 7213 0246 74       		.byte	0x74
 7214 0247 08       		.sleb128 8
 7215 0248 43080000 		.long	LCFI43-Ltext0
 7216 024c 9B090000 		.long	LCFI44-Ltext0
 7217 0250 0200     		.word	0x2
GAS LISTING C:\Users\jisu8\AppData\Local\Temp\ccIqWD58.s 			page 161


 7218 0252 75       		.byte	0x75
 7219 0253 08       		.sleb128 8
 7220 0254 9B090000 		.long	LCFI44-Ltext0
 7221 0258 9C090000 		.long	LFE18-Ltext0
 7222 025c 0200     		.word	0x2
 7223 025e 74       		.byte	0x74
 7224 025f 04       		.sleb128 4
 7225 0260 00000000 		.long	0
 7226 0264 00000000 		.long	0
 7227              	LLST13:
 7228 0268 2D080000 		.long	LFB17-Ltext0
 7229 026c 2E080000 		.long	LCFI39-Ltext0
 7230 0270 0200     		.word	0x2
 7231 0272 74       		.byte	0x74
 7232 0273 04       		.sleb128 4
 7233 0274 2E080000 		.long	LCFI39-Ltext0
 7234 0278 30080000 		.long	LCFI40-Ltext0
 7235 027c 0200     		.word	0x2
 7236 027e 74       		.byte	0x74
 7237 027f 08       		.sleb128 8
 7238 0280 30080000 		.long	LCFI40-Ltext0
 7239 0284 3F080000 		.long	LCFI41-Ltext0
 7240 0288 0200     		.word	0x2
 7241 028a 75       		.byte	0x75
 7242 028b 08       		.sleb128 8
 7243 028c 3F080000 		.long	LCFI41-Ltext0
 7244 0290 40080000 		.long	LFE17-Ltext0
 7245 0294 0200     		.word	0x2
 7246 0296 74       		.byte	0x74
 7247 0297 04       		.sleb128 4
 7248 0298 00000000 		.long	0
 7249 029c 00000000 		.long	0
 7250              	LLST12:
 7251 02a0 22080000 		.long	LFB16-Ltext0
 7252 02a4 23080000 		.long	LCFI36-Ltext0
 7253 02a8 0200     		.word	0x2
 7254 02aa 74       		.byte	0x74
 7255 02ab 04       		.sleb128 4
 7256 02ac 23080000 		.long	LCFI36-Ltext0
 7257 02b0 25080000 		.long	LCFI37-Ltext0
 7258 02b4 0200     		.word	0x2
 7259 02b6 74       		.byte	0x74
 7260 02b7 08       		.sleb128 8
 7261 02b8 25080000 		.long	LCFI37-Ltext0
 7262 02bc 2C080000 		.long	LCFI38-Ltext0
 7263 02c0 0200     		.word	0x2
 7264 02c2 75       		.byte	0x75
 7265 02c3 08       		.sleb128 8
 7266 02c4 2C080000 		.long	LCFI38-Ltext0
 7267 02c8 2D080000 		.long	LFE16-Ltext0
 7268 02cc 0200     		.word	0x2
 7269 02ce 74       		.byte	0x74
 7270 02cf 04       		.sleb128 4
 7271 02d0 00000000 		.long	0
 7272 02d4 00000000 		.long	0
 7273              	LLST11:
 7274 02d8 18080000 		.long	LFB15-Ltext0
GAS LISTING C:\Users\jisu8\AppData\Local\Temp\ccIqWD58.s 			page 162


 7275 02dc 19080000 		.long	LCFI33-Ltext0
 7276 02e0 0200     		.word	0x2
 7277 02e2 74       		.byte	0x74
 7278 02e3 04       		.sleb128 4
 7279 02e4 19080000 		.long	LCFI33-Ltext0
 7280 02e8 1B080000 		.long	LCFI34-Ltext0
 7281 02ec 0200     		.word	0x2
 7282 02ee 74       		.byte	0x74
 7283 02ef 08       		.sleb128 8
 7284 02f0 1B080000 		.long	LCFI34-Ltext0
 7285 02f4 21080000 		.long	LCFI35-Ltext0
 7286 02f8 0200     		.word	0x2
 7287 02fa 75       		.byte	0x75
 7288 02fb 08       		.sleb128 8
 7289 02fc 21080000 		.long	LCFI35-Ltext0
 7290 0300 22080000 		.long	LFE15-Ltext0
 7291 0304 0200     		.word	0x2
 7292 0306 74       		.byte	0x74
 7293 0307 04       		.sleb128 4
 7294 0308 00000000 		.long	0
 7295 030c 00000000 		.long	0
 7296              	LLST10:
 7297 0310 EB070000 		.long	LFB14-Ltext0
 7298 0314 EC070000 		.long	LCFI30-Ltext0
 7299 0318 0200     		.word	0x2
 7300 031a 74       		.byte	0x74
 7301 031b 04       		.sleb128 4
 7302 031c EC070000 		.long	LCFI30-Ltext0
 7303 0320 EE070000 		.long	LCFI31-Ltext0
 7304 0324 0200     		.word	0x2
 7305 0326 74       		.byte	0x74
 7306 0327 08       		.sleb128 8
 7307 0328 EE070000 		.long	LCFI31-Ltext0
 7308 032c 17080000 		.long	LCFI32-Ltext0
 7309 0330 0200     		.word	0x2
 7310 0332 75       		.byte	0x75
 7311 0333 08       		.sleb128 8
 7312 0334 17080000 		.long	LCFI32-Ltext0
 7313 0338 18080000 		.long	LFE14-Ltext0
 7314 033c 0200     		.word	0x2
 7315 033e 74       		.byte	0x74
 7316 033f 04       		.sleb128 4
 7317 0340 00000000 		.long	0
 7318 0344 00000000 		.long	0
 7319              	LLST9:
 7320 0348 71060000 		.long	LFB13-Ltext0
 7321 034c 72060000 		.long	LCFI27-Ltext0
 7322 0350 0200     		.word	0x2
 7323 0352 74       		.byte	0x74
 7324 0353 04       		.sleb128 4
 7325 0354 72060000 		.long	LCFI27-Ltext0
 7326 0358 74060000 		.long	LCFI28-Ltext0
 7327 035c 0200     		.word	0x2
 7328 035e 74       		.byte	0x74
 7329 035f 08       		.sleb128 8
 7330 0360 74060000 		.long	LCFI28-Ltext0
 7331 0364 EA070000 		.long	LCFI29-Ltext0
GAS LISTING C:\Users\jisu8\AppData\Local\Temp\ccIqWD58.s 			page 163


 7332 0368 0200     		.word	0x2
 7333 036a 75       		.byte	0x75
 7334 036b 08       		.sleb128 8
 7335 036c EA070000 		.long	LCFI29-Ltext0
 7336 0370 EB070000 		.long	LFE13-Ltext0
 7337 0374 0200     		.word	0x2
 7338 0376 74       		.byte	0x74
 7339 0377 04       		.sleb128 4
 7340 0378 00000000 		.long	0
 7341 037c 00000000 		.long	0
 7342              	LLST8:
 7343 0380 FD040000 		.long	LFB12-Ltext0
 7344 0384 FE040000 		.long	LCFI24-Ltext0
 7345 0388 0200     		.word	0x2
 7346 038a 74       		.byte	0x74
 7347 038b 04       		.sleb128 4
 7348 038c FE040000 		.long	LCFI24-Ltext0
 7349 0390 00050000 		.long	LCFI25-Ltext0
 7350 0394 0200     		.word	0x2
 7351 0396 74       		.byte	0x74
 7352 0397 08       		.sleb128 8
 7353 0398 00050000 		.long	LCFI25-Ltext0
 7354 039c 70060000 		.long	LCFI26-Ltext0
 7355 03a0 0200     		.word	0x2
 7356 03a2 75       		.byte	0x75
 7357 03a3 08       		.sleb128 8
 7358 03a4 70060000 		.long	LCFI26-Ltext0
 7359 03a8 71060000 		.long	LFE12-Ltext0
 7360 03ac 0200     		.word	0x2
 7361 03ae 74       		.byte	0x74
 7362 03af 04       		.sleb128 4
 7363 03b0 00000000 		.long	0
 7364 03b4 00000000 		.long	0
 7365              	LLST7:
 7366 03b8 64030000 		.long	LFB11-Ltext0
 7367 03bc 65030000 		.long	LCFI21-Ltext0
 7368 03c0 0200     		.word	0x2
 7369 03c2 74       		.byte	0x74
 7370 03c3 04       		.sleb128 4
 7371 03c4 65030000 		.long	LCFI21-Ltext0
 7372 03c8 67030000 		.long	LCFI22-Ltext0
 7373 03cc 0200     		.word	0x2
 7374 03ce 74       		.byte	0x74
 7375 03cf 08       		.sleb128 8
 7376 03d0 67030000 		.long	LCFI22-Ltext0
 7377 03d4 FC040000 		.long	LCFI23-Ltext0
 7378 03d8 0200     		.word	0x2
 7379 03da 75       		.byte	0x75
 7380 03db 08       		.sleb128 8
 7381 03dc FC040000 		.long	LCFI23-Ltext0
 7382 03e0 FD040000 		.long	LFE11-Ltext0
 7383 03e4 0200     		.word	0x2
 7384 03e6 74       		.byte	0x74
 7385 03e7 04       		.sleb128 4
 7386 03e8 00000000 		.long	0
 7387 03ec 00000000 		.long	0
 7388              	LLST6:
GAS LISTING C:\Users\jisu8\AppData\Local\Temp\ccIqWD58.s 			page 164


 7389 03f0 29030000 		.long	LFB10-Ltext0
 7390 03f4 2A030000 		.long	LCFI18-Ltext0
 7391 03f8 0200     		.word	0x2
 7392 03fa 74       		.byte	0x74
 7393 03fb 04       		.sleb128 4
 7394 03fc 2A030000 		.long	LCFI18-Ltext0
 7395 0400 2C030000 		.long	LCFI19-Ltext0
 7396 0404 0200     		.word	0x2
 7397 0406 74       		.byte	0x74
 7398 0407 08       		.sleb128 8
 7399 0408 2C030000 		.long	LCFI19-Ltext0
 7400 040c 63030000 		.long	LCFI20-Ltext0
 7401 0410 0200     		.word	0x2
 7402 0412 75       		.byte	0x75
 7403 0413 08       		.sleb128 8
 7404 0414 63030000 		.long	LCFI20-Ltext0
 7405 0418 64030000 		.long	LFE10-Ltext0
 7406 041c 0200     		.word	0x2
 7407 041e 74       		.byte	0x74
 7408 041f 04       		.sleb128 4
 7409 0420 00000000 		.long	0
 7410 0424 00000000 		.long	0
 7411              	LLST5:
 7412 0428 0E030000 		.long	LFB9-Ltext0
 7413 042c 0F030000 		.long	LCFI15-Ltext0
 7414 0430 0200     		.word	0x2
 7415 0432 74       		.byte	0x74
 7416 0433 04       		.sleb128 4
 7417 0434 0F030000 		.long	LCFI15-Ltext0
 7418 0438 11030000 		.long	LCFI16-Ltext0
 7419 043c 0200     		.word	0x2
 7420 043e 74       		.byte	0x74
 7421 043f 08       		.sleb128 8
 7422 0440 11030000 		.long	LCFI16-Ltext0
 7423 0444 28030000 		.long	LCFI17-Ltext0
 7424 0448 0200     		.word	0x2
 7425 044a 75       		.byte	0x75
 7426 044b 08       		.sleb128 8
 7427 044c 28030000 		.long	LCFI17-Ltext0
 7428 0450 29030000 		.long	LFE9-Ltext0
 7429 0454 0200     		.word	0x2
 7430 0456 74       		.byte	0x74
 7431 0457 04       		.sleb128 4
 7432 0458 00000000 		.long	0
 7433 045c 00000000 		.long	0
 7434              	LLST4:
 7435 0460 C2020000 		.long	LFB8-Ltext0
 7436 0464 C3020000 		.long	LCFI12-Ltext0
 7437 0468 0200     		.word	0x2
 7438 046a 74       		.byte	0x74
 7439 046b 04       		.sleb128 4
 7440 046c C3020000 		.long	LCFI12-Ltext0
 7441 0470 C5020000 		.long	LCFI13-Ltext0
 7442 0474 0200     		.word	0x2
 7443 0476 74       		.byte	0x74
 7444 0477 08       		.sleb128 8
 7445 0478 C5020000 		.long	LCFI13-Ltext0
GAS LISTING C:\Users\jisu8\AppData\Local\Temp\ccIqWD58.s 			page 165


 7446 047c 0D030000 		.long	LCFI14-Ltext0
 7447 0480 0200     		.word	0x2
 7448 0482 75       		.byte	0x75
 7449 0483 08       		.sleb128 8
 7450 0484 0D030000 		.long	LCFI14-Ltext0
 7451 0488 0E030000 		.long	LFE8-Ltext0
 7452 048c 0200     		.word	0x2
 7453 048e 74       		.byte	0x74
 7454 048f 04       		.sleb128 4
 7455 0490 00000000 		.long	0
 7456 0494 00000000 		.long	0
 7457              	LLST3:
 7458 0498 3C020000 		.long	LFB7-Ltext0
 7459 049c 3D020000 		.long	LCFI9-Ltext0
 7460 04a0 0200     		.word	0x2
 7461 04a2 74       		.byte	0x74
 7462 04a3 04       		.sleb128 4
 7463 04a4 3D020000 		.long	LCFI9-Ltext0
 7464 04a8 3F020000 		.long	LCFI10-Ltext0
 7465 04ac 0200     		.word	0x2
 7466 04ae 74       		.byte	0x74
 7467 04af 08       		.sleb128 8
 7468 04b0 3F020000 		.long	LCFI10-Ltext0
 7469 04b4 C1020000 		.long	LCFI11-Ltext0
 7470 04b8 0200     		.word	0x2
 7471 04ba 75       		.byte	0x75
 7472 04bb 08       		.sleb128 8
 7473 04bc C1020000 		.long	LCFI11-Ltext0
 7474 04c0 C2020000 		.long	LFE7-Ltext0
 7475 04c4 0200     		.word	0x2
 7476 04c6 74       		.byte	0x74
 7477 04c7 04       		.sleb128 4
 7478 04c8 00000000 		.long	0
 7479 04cc 00000000 		.long	0
 7480              	LLST2:
 7481 04d0 0D020000 		.long	LFB6-Ltext0
 7482 04d4 0E020000 		.long	LCFI6-Ltext0
 7483 04d8 0200     		.word	0x2
 7484 04da 74       		.byte	0x74
 7485 04db 04       		.sleb128 4
 7486 04dc 0E020000 		.long	LCFI6-Ltext0
 7487 04e0 10020000 		.long	LCFI7-Ltext0
 7488 04e4 0200     		.word	0x2
 7489 04e6 74       		.byte	0x74
 7490 04e7 08       		.sleb128 8
 7491 04e8 10020000 		.long	LCFI7-Ltext0
 7492 04ec 3B020000 		.long	LCFI8-Ltext0
 7493 04f0 0200     		.word	0x2
 7494 04f2 75       		.byte	0x75
 7495 04f3 08       		.sleb128 8
 7496 04f4 3B020000 		.long	LCFI8-Ltext0
 7497 04f8 3C020000 		.long	LFE6-Ltext0
 7498 04fc 0200     		.word	0x2
 7499 04fe 74       		.byte	0x74
 7500 04ff 04       		.sleb128 4
 7501 0500 00000000 		.long	0
 7502 0504 00000000 		.long	0
GAS LISTING C:\Users\jisu8\AppData\Local\Temp\ccIqWD58.s 			page 166


 7503              	LLST1:
 7504 0508 D3000000 		.long	LFB5-Ltext0
 7505 050c D4000000 		.long	LCFI3-Ltext0
 7506 0510 0200     		.word	0x2
 7507 0512 74       		.byte	0x74
 7508 0513 04       		.sleb128 4
 7509 0514 D4000000 		.long	LCFI3-Ltext0
 7510 0518 D6000000 		.long	LCFI4-Ltext0
 7511 051c 0200     		.word	0x2
 7512 051e 74       		.byte	0x74
 7513 051f 08       		.sleb128 8
 7514 0520 D6000000 		.long	LCFI4-Ltext0
 7515 0524 0C020000 		.long	LCFI5-Ltext0
 7516 0528 0200     		.word	0x2
 7517 052a 75       		.byte	0x75
 7518 052b 08       		.sleb128 8
 7519 052c 0C020000 		.long	LCFI5-Ltext0
 7520 0530 0D020000 		.long	LFE5-Ltext0
 7521 0534 0200     		.word	0x2
 7522 0536 74       		.byte	0x74
 7523 0537 04       		.sleb128 4
 7524 0538 00000000 		.long	0
 7525 053c 00000000 		.long	0
 7526              	LLST0:
 7527 0540 00000000 		.long	LFB4-Ltext0
 7528 0544 01000000 		.long	LCFI0-Ltext0
 7529 0548 0200     		.word	0x2
 7530 054a 74       		.byte	0x74
 7531 054b 04       		.sleb128 4
 7532 054c 01000000 		.long	LCFI0-Ltext0
 7533 0550 03000000 		.long	LCFI1-Ltext0
 7534 0554 0200     		.word	0x2
 7535 0556 74       		.byte	0x74
 7536 0557 08       		.sleb128 8
 7537 0558 03000000 		.long	LCFI1-Ltext0
 7538 055c D2000000 		.long	LCFI2-Ltext0
 7539 0560 0200     		.word	0x2
 7540 0562 75       		.byte	0x75
 7541 0563 08       		.sleb128 8
 7542 0564 D2000000 		.long	LCFI2-Ltext0
 7543 0568 D3000000 		.long	LFE4-Ltext0
 7544 056c 0200     		.word	0x2
 7545 056e 74       		.byte	0x74
 7546 056f 04       		.sleb128 4
 7547 0570 00000000 		.long	0
 7548 0574 00000000 		.long	0
 7549              		.section	.debug_aranges,"dr"
 7550 0000 1C000000 		.long	0x1c
 7551 0004 0200     		.word	0x2
 7552 0006 00000000 		.secrel32	Ldebug_info0
 7553 000a 04       		.byte	0x4
 7554 000b 00       		.byte	0
 7555 000c 0000     		.word	0
 7556 000e 0000     		.word	0
 7557 0010 00000000 		.long	Ltext0
 7558 0014 E1160000 		.long	Letext0-Ltext0
 7559 0018 00000000 		.long	0
GAS LISTING C:\Users\jisu8\AppData\Local\Temp\ccIqWD58.s 			page 167


 7560 001c 00000000 		.long	0
 7561              		.section	.debug_line,"dr"
 7562              	Ldebug_line0:
 7563 0000 EB0A0000 		.section	.debug_str,"dr"
 7563      0200BE01 
 7563      00000101 
 7563      FB0E0D00 
 7563      01010101 
 7564              	LASF11:
 7565 0000 72696768 		.ascii "rightRowIndicatorColumn\0"
 7565      74526F77 
 7565      496E6469 
 7565      6361746F 
 7565      72436F6C 
 7566              	LASF23:
 7567 0018 4D657461 		.ascii "Metadata\0"
 7567      64617461 
 7567      00
 7568              	LASF6:
 7569 0021 6D617843 		.ascii "maxCodewordWidth\0"
 7569      6F646577 
 7569      6F726457 
 7569      69647468 
 7569      00
 7570              	LASF25:
 7571 0032 696E6372 		.ascii "increment\0"
 7571      656D656E 
 7571      7400
 7572              	LASF1:
 7573 003c 6D5F7661 		.ascii "m_value\0"
 7573      6C756500 
 7574              	LASF15:
 7575 0044 73746172 		.ascii "startColumn\0"
 7575      74436F6C 
 7575      756D6E00 
 7576              	LASF24:
 7577 0050 526F7749 		.ascii "RowIndicatorColumn\0"
 7577      6E646963 
 7577      61746F72 
 7577      436F6C75 
 7577      6D6E00
 7578              	LASF2:
 7579 0063 5F626F75 		.ascii "_boundingBox\0"
 7579      6E64696E 
 7579      67426F78 
 7579      00
 7580              	LASF14:
 7581 0070 62617263 		.ascii "barcodeColumn\0"
 7581      6F646543 
 7581      6F6C756D 
 7581      6E00
 7582              	LASF4:
 7583 007e 696D6167 		.ascii "image\0"
 7583      6500
 7584              	LASF17:
 7585 0084 636F6465 		.ascii "codeword\0"
 7585      776F7264 
GAS LISTING C:\Users\jisu8\AppData\Local\Temp\ccIqWD58.s 			page 168


 7585      00
 7586              	LASF16:
 7587 008d 696D6167 		.ascii "imageRow\0"
 7587      65526F77 
 7587      00
 7588              	LASF10:
 7589 0096 6C656674 		.ascii "leftRowIndicatorColumn\0"
 7589      526F7749 
 7589      6E646963 
 7589      61746F72 
 7589      436F6C75 
 7590              	LASF27:
 7591 00ad 6D617843 		.ascii "maxColumn\0"
 7591      6F6C756D 
 7591      6E00
 7592              	LASF8:
 7593 00b7 626F756E 		.ascii "boundingBox\0"
 7593      64696E67 
 7593      426F7800 
 7594              	LASF5:
 7595 00c3 6D696E43 		.ascii "minCodewordWidth\0"
 7595      6F646577 
 7595      6F726457 
 7595      69647468 
 7595      00
 7596              	LASF22:
 7597 00d4 72657375 		.ascii "result\0"
 7597      6C7400
 7598              	LASF19:
 7599 00db 636F6465 		.ascii "codewords\0"
 7599      776F7264 
 7599      7300
 7600              	LASF18:
 7601 00e5 62617263 		.ascii "barcodeMatrix\0"
 7601      6F64654D 
 7601      61747269 
 7601      7800
 7602              	LASF3:
 7603 00f3 726F7749 		.ascii "rowIndicatorColumn\0"
 7603      6E646963 
 7603      61746F72 
 7603      436F6C75 
 7603      6D6E00
 7604              	LASF12:
 7605 0106 64657465 		.ascii "detectionResult\0"
 7605      6374696F 
 7605      6E526573 
 7605      756C7400 
 7606              	LASF21:
 7607 0116 7072696E 		.ascii "printf\0"
 7607      746600
 7608              	LASF13:
 7609 011d 6C656674 		.ascii "leftToRight\0"
 7609      546F5269 
 7609      67687400 
 7610              	LASF7:
 7611 0129 63686172 		.ascii "characterSet\0"
GAS LISTING C:\Users\jisu8\AppData\Local\Temp\ccIqWD58.s 			page 169


 7611      61637465 
 7611      72536574 
 7611      00
 7612              	LASF28:
 7613 0136 6D6F6475 		.ascii "moduleBitCount\0"
 7613      6C654269 
 7613      74436F75 
 7613      6E7400
 7614              	LASF0:
 7615 0145 6D5F6861 		.ascii "m_hasValue\0"
 7615      7356616C 
 7615      756500
 7616              	LASF9:
 7617 0150 6C656E67 		.ascii "length\0"
 7617      746800
 7618              	LASF26:
 7619 0157 6D696E43 		.ascii "minColumn\0"
 7619      6F6C756D 
 7619      6E00
 7620              	LASF20:
 7621 0161 616D6269 		.ascii "ambiguousIndexValues\0"
 7621      67756F75 
 7621      73496E64 
 7621      65785661 
 7621      6C756573 
 7622              		.ident	"GCC: (i686-posix-dwarf-rev0, Built by MinGW-W64 project) 8.1.0"
GAS LISTING C:\Users\jisu8\AppData\Local\Temp\ccIqWD58.s 			page 170


DEFINED SYMBOLS
                            *ABS*:00000000 PDFScanningDecoder.c
C:\Users\jisu8\AppData\Local\Temp\ccIqWD58.s:6      .rdata:00000000 _CODEWORD_SKEW_SIZE
C:\Users\jisu8\AppData\Local\Temp\ccIqWD58.s:9      .rdata:00000004 _MAX_ERRORS
C:\Users\jisu8\AppData\Local\Temp\ccIqWD58.s:12     .rdata:00000008 _MAX_EC_CODEWORDS
C:\Users\jisu8\AppData\Local\Temp\ccIqWD58.s:16     .rdata:0000000c _BARCODE_ROW_UNKNOWN
                            *COM*:00000020 _result_bits
                            *COM*:00000018 _CodeWord
                            *COM*:00002f34 _rowIndicatorColumn
C:\Users\jisu8\AppData\Local\Temp\ccIqWD58.s:26     .text:00000000 _AdjustCodewordStartColumn
C:\Users\jisu8\AppData\Local\Temp\ccIqWD58.s:159    .text:000000d3 _GetModuleBitCount
C:\Users\jisu8\AppData\Local\Temp\ccIqWD58.s:322    .text:0000020d _CheckCodewordSkew
C:\Users\jisu8\AppData\Local\Temp\ccIqWD58.s:368    .text:0000023c _GetBitCountForCodeword
C:\Users\jisu8\AppData\Local\Temp\ccIqWD58.s:437    .text:000002c2 _GetCodewordBucketNumberRet
C:\Users\jisu8\AppData\Local\Temp\ccIqWD58.s:495    .text:0000030e _GetCodewordBucketNumber
C:\Users\jisu8\AppData\Local\Temp\ccIqWD58.s:523    .text:00000329 _Codeword
C:\Users\jisu8\AppData\Local\Temp\ccIqWD58.s:567    .text:00000364 _DetectCodeword
C:\Users\jisu8\AppData\Local\Temp\ccIqWD58.s:732    .text:000004fd _setCodeword
C:\Users\jisu8\AppData\Local\Temp\ccIqWD58.s:918    .text:00000671 _GetRowIndicatorColumn
C:\Users\jisu8\AppData\Local\Temp\ccIqWD58.s:1093   .text:000007eb _Metadata_Init
C:\Users\jisu8\AppData\Local\Temp\ccIqWD58.s:1127   .text:00000818 _columnCount
C:\Users\jisu8\AppData\Local\Temp\ccIqWD58.s:1151   .text:00000822 _errorCorrectionLevel
C:\Users\jisu8\AppData\Local\Temp\ccIqWD58.s:1175   .text:0000082d _rowCount
C:\Users\jisu8\AppData\Local\Temp\ccIqWD58.s:1207   .text:00000840 _GetBarcodeMetadata
C:\Users\jisu8\AppData\Local\Temp\ccIqWD58.s:1383   .text:0000099c _GetMax
C:\Users\jisu8\AppData\Local\Temp\ccIqWD58.s:1444   .text:000009ed _AdjustBoundingBox
C:\Users\jisu8\AppData\Local\Temp\ccIqWD58.s:1701   .text:00000bf1 _Merge
C:\Users\jisu8\AppData\Local\Temp\ccIqWD58.s:1798   .text:00000cc7 _IsValidBarcodeColumn
C:\Users\jisu8\AppData\Local\Temp\ccIqWD58.s:1841   .text:00000ceb _GetStartColumn
C:\Users\jisu8\AppData\Local\Temp\ccIqWD58.s:2054   .text:00000eb4 _CreateBarcodeMatrix
C:\Users\jisu8\AppData\Local\Temp\ccIqWD58.s:2316   .text:00001157 _GetNumberOfECCodeWords
C:\Users\jisu8\AppData\Local\Temp\ccIqWD58.s:2346   .text:0000116a _AdjustCodewordCount
C:\Users\jisu8\AppData\Local\Temp\ccIqWD58.s:2372   .text:00001183 _CreateDecoderResultFromAmbiguousValues
C:\Users\jisu8\AppData\Local\Temp\ccIqWD58.s:2383   .text:00001189 _CreateDecoderResult
C:\Users\jisu8\AppData\Local\Temp\ccIqWD58.s:2493   .text:00001274 _Decode

UNDEFINED SYMBOLS
_BARS_IN_MODULE
___chkstk_ms
_printf
_fill
_Reduce
_reverse
_GetDecodedValue
_GetCodeword
_puts
_DetectionResultColumn
_getBarcodeMetadata
_getRowHeights
_isLeftRowIndicator
_AddMissingRows
_copy
_Bounding_Merge
_Detection_Result_init
_codewordNearby
_allColumns
_BarcodeSetValue
GAS LISTING C:\Users\jisu8\AppData\Local\Temp\ccIqWD58.s 			page 171


_Create
_memcpy
