GAS LISTING C:\Users\jisu8\AppData\Local\Temp\ccX0Ht2c.s 			page 1


   1              		.file	"PDFScanningDecoder.c"
   2              		.text
   3              	Ltext0:
   4              		.section .rdata,"dr"
   5              		.align 4
   6              	_CODEWORD_SKEW_SIZE:
   7 0000 02000000 		.long	2
   8              		.align 4
   9              	_MAX_ERRORS:
  10 0004 03000000 		.long	3
  11              		.align 4
  12              	_MAX_EC_CODEWORDS:
  13 0008 00020000 		.long	512
  14              		.align 4
  15              	_BARCODE_ROW_UNKNOWN:
  16 000c FFFFFFFF 		.long	-1
  17              		.comm	_result_bits, 32, 5
  18              		.comm	_CodeWord, 24, 2
  19              		.comm	_rowIndicatorColumn, 12084, 5
  20              		.align 4
  21              	LC0:
  22 0010 4765744D 		.ascii "GetModuleBitCount minColumn=%d, maxColumn=%d, leftToRight=%d, codewordStartColumn=%d, imag
  22      6F64756C 
  22      65426974 
  22      436F756E 
  22      74206D69 
  23              		.text
  25              	_AdjustCodewordStartColumn:
  26              	LFB4:
  27              		.file 1 "src/pdf417/PDFScanningDecoder.c"
   1:src/pdf417/PDFScanningDecoder.c **** 
   2:src/pdf417/PDFScanningDecoder.c **** #include "PDFScanningDecoder.h"
   3:src/pdf417/PDFScanningDecoder.c **** #include "PDFBoundingBox.h"
   4:src/pdf417/PDFScanningDecoder.c **** #include "PDFDetectionResultColumn.h"
   5:src/pdf417/PDFScanningDecoder.c **** #include "PDFDetectionResult.h"
   6:src/pdf417/PDFScanningDecoder.c **** #include "PDFCodewordDecoder.h"
   7:src/pdf417/PDFScanningDecoder.c **** #include "DecodeStatus.h"
   8:src/pdf417/PDFScanningDecoder.c **** #include "library.h"
   9:src/pdf417/PDFScanningDecoder.c **** #include <stdlib.h>
  10:src/pdf417/PDFScanningDecoder.c **** 
  11:src/pdf417/PDFScanningDecoder.c **** static const int CODEWORD_SKEW_SIZE = 2;
  12:src/pdf417/PDFScanningDecoder.c **** static const int MAX_ERRORS = 3;
  13:src/pdf417/PDFScanningDecoder.c **** static const int MAX_EC_CODEWORDS = 512;
  14:src/pdf417/PDFScanningDecoder.c **** static const int BARCODE_ROW_UNKNOWN = -1;
  15:src/pdf417/PDFScanningDecoder.c **** 
  16:src/pdf417/PDFScanningDecoder.c **** int result_bits[8];
  17:src/pdf417/PDFScanningDecoder.c **** 
  18:src/pdf417/PDFScanningDecoder.c **** Codeword_t CodeWord;
  19:src/pdf417/PDFScanningDecoder.c **** DetectionResultColumn_t rowIndicatorColumn;
  20:src/pdf417/PDFScanningDecoder.c **** 
  21:src/pdf417/PDFScanningDecoder.c **** static int AdjustCodewordStartColumn(const BitMatrix_t * image, int minColumn, int maxColumn, uint8
  22:src/pdf417/PDFScanningDecoder.c **** {
  28              		.loc 1 22 1
  29              		.cfi_startproc
  30 0000 55       		pushl	%ebp
  31              	LCFI0:
  32              		.cfi_def_cfa_offset 8
GAS LISTING C:\Users\jisu8\AppData\Local\Temp\ccX0Ht2c.s 			page 2


  33              		.cfi_offset 5, -8
  34 0001 89E5     		movl	%esp, %ebp
  35              	LCFI1:
  36              		.cfi_def_cfa_register 5
  37 0003 83EC48   		subl	$72, %esp
  38 0006 8B4514   		movl	20(%ebp), %eax
  39 0009 8845E4   		movb	%al, -28(%ebp)
  23:src/pdf417/PDFScanningDecoder.c **** 
  24:src/pdf417/PDFScanningDecoder.c **** 	printf("GetModuleBitCount minColumn=%d, maxColumn=%d, leftToRight=%d, codewordStartColumn=%d, imag
  40              		.loc 1 24 2
  41 000c 0FB645E4 		movzbl	-28(%ebp), %eax
  42 0010 8B551C   		movl	28(%ebp), %edx
  43 0013 89542414 		movl	%edx, 20(%esp)
  44 0017 8B5518   		movl	24(%ebp), %edx
  45 001a 89542410 		movl	%edx, 16(%esp)
  46 001e 8944240C 		movl	%eax, 12(%esp)
  47 0022 8B4510   		movl	16(%ebp), %eax
  48 0025 89442408 		movl	%eax, 8(%esp)
  49 0029 8B450C   		movl	12(%ebp), %eax
  50 002c 89442404 		movl	%eax, 4(%esp)
  51 0030 C7042410 		movl	$LC0, (%esp)
  51      000000
  52 0037 E8000000 		call	_printf
  52      00
  25:src/pdf417/PDFScanningDecoder.c **** 		minColumn, maxColumn, leftToRight, codewordStartColumn, imageRow);
  26:src/pdf417/PDFScanningDecoder.c **** 	
  27:src/pdf417/PDFScanningDecoder.c **** 	int correctedStartColumn = codewordStartColumn;
  53              		.loc 1 27 6
  54 003c 8B4518   		movl	24(%ebp), %eax
  55 003f 8945F4   		movl	%eax, -12(%ebp)
  28:src/pdf417/PDFScanningDecoder.c **** 	int increment = leftToRight ? -1 : 1;
  56              		.loc 1 28 35
  57 0042 807DE400 		cmpb	$0, -28(%ebp)
  58 0046 7407     		je	L2
  59              		.loc 1 28 35 is_stmt 0 discriminator 1
  60 0048 B8FFFFFF 		movl	$-1, %eax
  60      FF
  61 004d EB05     		jmp	L3
  62              	L2:
  63              		.loc 1 28 35 discriminator 2
  64 004f B8010000 		movl	$1, %eax
  64      00
  65              	L3:
  66              		.loc 1 28 6 is_stmt 1 discriminator 4
  67 0054 8945F0   		movl	%eax, -16(%ebp)
  68              	LBB2:
  29:src/pdf417/PDFScanningDecoder.c **** 	// there should be no black pixels before the start column. If there are, then we need to start ea
  30:src/pdf417/PDFScanningDecoder.c **** 	for (int i = 0; i < 2; i++) 
  69              		.loc 1 30 11 discriminator 4
  70 0057 C745EC00 		movl	$0, -20(%ebp)
  70      000000
  71              		.loc 1 30 2 discriminator 4
  72 005e EB68     		jmp	L4
  73              	L11:
  31:src/pdf417/PDFScanningDecoder.c **** 	{
  32:src/pdf417/PDFScanningDecoder.c **** 		while ((leftToRight ? correctedStartColumn >= minColumn : correctedStartColumn < maxColumn) &&
  33:src/pdf417/PDFScanningDecoder.c **** 			leftToRight == image->bits[imageRow * image->_width + correctedStartColumn]) 
GAS LISTING C:\Users\jisu8\AppData\Local\Temp\ccX0Ht2c.s 			page 3


  34:src/pdf417/PDFScanningDecoder.c **** 			{
  35:src/pdf417/PDFScanningDecoder.c **** 			if (abs(codewordStartColumn - correctedStartColumn) > CODEWORD_SKEW_SIZE) 
  74              		.loc 1 35 32
  75 0060 8B4518   		movl	24(%ebp), %eax
  76 0063 2B45F4   		subl	-12(%ebp), %eax
  77              		.loc 1 35 8
  78 0066 99       		cltd
  79 0067 31D0     		xorl	%edx, %eax
  80 0069 29D0     		subl	%edx, %eax
  81              		.loc 1 35 56
  82 006b BA020000 		movl	$2, %edx
  82      00
  83              		.loc 1 35 7
  84 0070 39D0     		cmpl	%edx, %eax
  85 0072 7E05     		jle	L6
  36:src/pdf417/PDFScanningDecoder.c **** 			{
  37:src/pdf417/PDFScanningDecoder.c **** 				return codewordStartColumn;
  86              		.loc 1 37 12
  87 0074 8B4518   		movl	24(%ebp), %eax
  88 0077 EB58     		jmp	L7
  89              	L6:
  38:src/pdf417/PDFScanningDecoder.c **** 			}
  39:src/pdf417/PDFScanningDecoder.c **** 			correctedStartColumn += increment;
  90              		.loc 1 39 25
  91 0079 8B45F0   		movl	-16(%ebp), %eax
  92 007c 0145F4   		addl	%eax, -12(%ebp)
  93              	L5:
  32:src/pdf417/PDFScanningDecoder.c **** 			leftToRight == image->bits[imageRow * image->_width + correctedStartColumn]) 
  94              		.loc 1 32 9
  95 007f 807DE400 		cmpb	$0, -28(%ebp)
  96 0083 740A     		je	L8
  32:src/pdf417/PDFScanningDecoder.c **** 			leftToRight == image->bits[imageRow * image->_width + correctedStartColumn]) 
  97              		.loc 1 32 9 is_stmt 0 discriminator 1
  98 0085 8B45F4   		movl	-12(%ebp), %eax
  99 0088 3B450C   		cmpl	12(%ebp), %eax
 100 008b 7D0A     		jge	L9
 101 008d EB28     		jmp	L10
 102              	L8:
  32:src/pdf417/PDFScanningDecoder.c **** 			leftToRight == image->bits[imageRow * image->_width + correctedStartColumn]) 
 103              		.loc 1 32 95 is_stmt 1 discriminator 2
 104 008f 8B45F4   		movl	-12(%ebp), %eax
 105 0092 3B4510   		cmpl	16(%ebp), %eax
 106 0095 7D20     		jge	L10
 107              	L9:
  33:src/pdf417/PDFScanningDecoder.c **** 			{
 108              		.loc 1 33 24 discriminator 3
 109 0097 8B4508   		movl	8(%ebp), %eax
 110 009a 8B500C   		movl	12(%eax), %edx
  33:src/pdf417/PDFScanningDecoder.c **** 			{
 111              		.loc 1 33 47 discriminator 3
 112 009d 8B4508   		movl	8(%ebp), %eax
 113 00a0 8B00     		movl	(%eax), %eax
  33:src/pdf417/PDFScanningDecoder.c **** 			{
 114              		.loc 1 33 40 discriminator 3
 115 00a2 0FAF451C 		imull	28(%ebp), %eax
 116 00a6 89C1     		movl	%eax, %ecx
  33:src/pdf417/PDFScanningDecoder.c **** 			{
GAS LISTING C:\Users\jisu8\AppData\Local\Temp\ccX0Ht2c.s 			page 4


 117              		.loc 1 33 56 discriminator 3
 118 00a8 8B45F4   		movl	-12(%ebp), %eax
 119 00ab 01C8     		addl	%ecx, %eax
  33:src/pdf417/PDFScanningDecoder.c **** 			{
 120              		.loc 1 33 30 discriminator 3
 121 00ad 01D0     		addl	%edx, %eax
 122 00af 0FB600   		movzbl	(%eax), %eax
  32:src/pdf417/PDFScanningDecoder.c **** 			leftToRight == image->bits[imageRow * image->_width + correctedStartColumn]) 
 123              		.loc 1 32 95 discriminator 3
 124 00b2 3845E4   		cmpb	%al, -28(%ebp)
 125 00b5 74A9     		je	L11
 126              	L10:
  40:src/pdf417/PDFScanningDecoder.c **** 		}
  41:src/pdf417/PDFScanningDecoder.c **** 		increment = -increment;
 127              		.loc 1 41 13 discriminator 2
 128 00b7 F75DF0   		negl	-16(%ebp)
  42:src/pdf417/PDFScanningDecoder.c **** 		leftToRight = !leftToRight;
 129              		.loc 1 42 17 discriminator 2
 130 00ba 807DE400 		cmpb	$0, -28(%ebp)
 131 00be 0F94C0   		sete	%al
 132              		.loc 1 42 15 discriminator 2
 133 00c1 8845E4   		movb	%al, -28(%ebp)
  30:src/pdf417/PDFScanningDecoder.c **** 	{
 134              		.loc 1 30 26 discriminator 2
 135 00c4 8345EC01 		addl	$1, -20(%ebp)
 136              	L4:
  30:src/pdf417/PDFScanningDecoder.c **** 	{
 137              		.loc 1 30 2 discriminator 1
 138 00c8 837DEC01 		cmpl	$1, -20(%ebp)
 139 00cc 7EB1     		jle	L5
 140              	LBE2:
  43:src/pdf417/PDFScanningDecoder.c **** 	}
  44:src/pdf417/PDFScanningDecoder.c **** 	return correctedStartColumn;
 141              		.loc 1 44 9
 142 00ce 8B45F4   		movl	-12(%ebp), %eax
 143              	L7:
  45:src/pdf417/PDFScanningDecoder.c **** }
 144              		.loc 1 45 1
 145 00d1 C9       		leave
 146              	LCFI2:
 147              		.cfi_restore 5
 148              		.cfi_def_cfa 4, 4
 149 00d2 C3       		ret
 150              		.cfi_endproc
 151              	LFE4:
 152              		.section .rdata,"dr"
 153 0073 00       		.align 4
 154              	LC1:
 155 0074 4765744D 		.ascii "GetModuleBitCount minColumn=%d, maxColumn=%d, leftToRight=%d, startColumn=%d, imageRow=%d\
 155      6F64756C 
 155      65426974 
 155      436F756E 
 155      74206D69 
 156              		.text
 158              	_GetModuleBitCount:
 159              	LFB5:
  46:src/pdf417/PDFScanningDecoder.c **** 
GAS LISTING C:\Users\jisu8\AppData\Local\Temp\ccX0Ht2c.s 			page 5


  47:src/pdf417/PDFScanningDecoder.c **** static uint8_t GetModuleBitCount(const BitMatrix_t * image, int minColumn, int maxColumn, uint8_t l
  48:src/pdf417/PDFScanningDecoder.c **** {
 160              		.loc 1 48 1
 161              		.cfi_startproc
 162 00d3 55       		pushl	%ebp
 163              	LCFI3:
 164              		.cfi_def_cfa_offset 8
 165              		.cfi_offset 5, -8
 166 00d4 89E5     		movl	%esp, %ebp
 167              	LCFI4:
 168              		.cfi_def_cfa_register 5
 169 00d6 83EC48   		subl	$72, %esp
 170 00d9 8B5514   		movl	20(%ebp), %edx
 171 00dc 8B4524   		movl	36(%ebp), %eax
 172 00df 8855E4   		movb	%dl, -28(%ebp)
 173 00e2 8845E0   		movb	%al, -32(%ebp)
  49:src/pdf417/PDFScanningDecoder.c **** 
  50:src/pdf417/PDFScanningDecoder.c **** 	printf("GetModuleBitCount minColumn=%d, maxColumn=%d, leftToRight=%d, startColumn=%d, imageRow=%d\
 174              		.loc 1 50 2
 175 00e5 0FB645E4 		movzbl	-28(%ebp), %eax
 176 00e9 8B551C   		movl	28(%ebp), %edx
 177 00ec 89542414 		movl	%edx, 20(%esp)
 178 00f0 8B5518   		movl	24(%ebp), %edx
 179 00f3 89542410 		movl	%edx, 16(%esp)
 180 00f7 8944240C 		movl	%eax, 12(%esp)
 181 00fb 8B4510   		movl	16(%ebp), %eax
 182 00fe 89442408 		movl	%eax, 8(%esp)
 183 0102 8B450C   		movl	12(%ebp), %eax
 184 0105 89442404 		movl	%eax, 4(%esp)
 185 0109 C7042474 		movl	$LC1, (%esp)
 185      000000
 186 0110 E8000000 		call	_printf
 186      00
  51:src/pdf417/PDFScanningDecoder.c **** 		minColumn, maxColumn, leftToRight, startColumn, imageRow );
  52:src/pdf417/PDFScanningDecoder.c **** 	
  53:src/pdf417/PDFScanningDecoder.c **** 	int imageColumn = startColumn;
 187              		.loc 1 53 6
 188 0115 8B4518   		movl	24(%ebp), %eax
 189 0118 8945F4   		movl	%eax, -12(%ebp)
  54:src/pdf417/PDFScanningDecoder.c **** 	unsigned int moduleNumber = 0;
 190              		.loc 1 54 15
 191 011b C745F000 		movl	$0, -16(%ebp)
 191      000000
  55:src/pdf417/PDFScanningDecoder.c **** 	int increment = leftToRight ? 1 : -1;
 192              		.loc 1 55 34
 193 0122 807DE400 		cmpb	$0, -28(%ebp)
 194 0126 7407     		je	L14
 195              		.loc 1 55 34 is_stmt 0 discriminator 1
 196 0128 B8010000 		movl	$1, %eax
 196      00
 197 012d EB05     		jmp	L15
 198              	L14:
 199              		.loc 1 55 34 discriminator 2
 200 012f B8FFFFFF 		movl	$-1, %eax
 200      FF
 201              	L15:
 202              		.loc 1 55 6 is_stmt 1 discriminator 4
GAS LISTING C:\Users\jisu8\AppData\Local\Temp\ccX0Ht2c.s 			page 6


 203 0134 8945E8   		movl	%eax, -24(%ebp)
  56:src/pdf417/PDFScanningDecoder.c **** 	uint8_t previousPixelValue = leftToRight;
 204              		.loc 1 56 10 discriminator 4
 205 0137 0FB645E4 		movzbl	-28(%ebp), %eax
 206 013b 8845EF   		movb	%al, -17(%ebp)
  57:src/pdf417/PDFScanningDecoder.c **** 	fill(length,moduleBitCount,0);
 207              		.loc 1 57 2 discriminator 4
 208 013e 0FB645E0 		movzbl	-32(%ebp), %eax
 209 0142 C7442408 		movl	$0, 8(%esp)
 209      00000000 
 210 014a 8B5520   		movl	32(%ebp), %edx
 211 014d 89542404 		movl	%edx, 4(%esp)
 212 0151 890424   		movl	%eax, (%esp)
 213 0154 E8000000 		call	_fill
 213      00
  58:src/pdf417/PDFScanningDecoder.c **** 	
  59:src/pdf417/PDFScanningDecoder.c **** 	while ((leftToRight ? (imageColumn < maxColumn) : (imageColumn >= minColumn)) && moduleNumber < le
 214              		.loc 1 59 8 discriminator 4
 215 0159 EB5B     		jmp	L16
 216              	L21:
  60:src/pdf417/PDFScanningDecoder.c **** 	{
  61:src/pdf417/PDFScanningDecoder.c **** 		if (image->bits[imageRow * image->_width + imageColumn] == previousPixelValue) 
 217              		.loc 1 61 12
 218 015b 8B4508   		movl	8(%ebp), %eax
 219 015e 8B500C   		movl	12(%eax), %edx
 220              		.loc 1 61 35
 221 0161 8B4508   		movl	8(%ebp), %eax
 222 0164 8B00     		movl	(%eax), %eax
 223              		.loc 1 61 28
 224 0166 0FAF451C 		imull	28(%ebp), %eax
 225 016a 89C1     		movl	%eax, %ecx
 226              		.loc 1 61 44
 227 016c 8B45F4   		movl	-12(%ebp), %eax
 228 016f 01C8     		addl	%ecx, %eax
 229              		.loc 1 61 18
 230 0171 01D0     		addl	%edx, %eax
 231 0173 0FB600   		movzbl	(%eax), %eax
 232              		.loc 1 61 6
 233 0176 3845EF   		cmpb	%al, -17(%ebp)
 234 0179 752D     		jne	L17
  62:src/pdf417/PDFScanningDecoder.c **** 		{
  63:src/pdf417/PDFScanningDecoder.c **** 			moduleBitCount[moduleNumber] += 1;
 235              		.loc 1 63 33
 236 017b 8B45F0   		movl	-16(%ebp), %eax
 237 017e 8D148500 		leal	0(,%eax,4), %edx
 237      000000
 238 0185 8B4520   		movl	32(%ebp), %eax
 239 0188 01D0     		addl	%edx, %eax
 240 018a 8B10     		movl	(%eax), %edx
 241 018c 8B45F0   		movl	-16(%ebp), %eax
 242 018f 8D0C8500 		leal	0(,%eax,4), %ecx
 242      000000
 243 0196 8B4520   		movl	32(%ebp), %eax
 244 0199 01C8     		addl	%ecx, %eax
 245 019b 83C201   		addl	$1, %edx
 246 019e 8910     		movl	%edx, (%eax)
  64:src/pdf417/PDFScanningDecoder.c **** 			imageColumn += increment;
GAS LISTING C:\Users\jisu8\AppData\Local\Temp\ccX0Ht2c.s 			page 7


 247              		.loc 1 64 16
 248 01a0 8B45E8   		movl	-24(%ebp), %eax
 249 01a3 0145F4   		addl	%eax, -12(%ebp)
 250 01a6 EB0E     		jmp	L16
 251              	L17:
  65:src/pdf417/PDFScanningDecoder.c **** 		}
  66:src/pdf417/PDFScanningDecoder.c **** 		else {
  67:src/pdf417/PDFScanningDecoder.c **** 			moduleNumber += 1;
 252              		.loc 1 67 17
 253 01a8 8345F001 		addl	$1, -16(%ebp)
  68:src/pdf417/PDFScanningDecoder.c **** 			previousPixelValue = !previousPixelValue;
 254              		.loc 1 68 25
 255 01ac 807DEF00 		cmpb	$0, -17(%ebp)
 256 01b0 0F94C0   		sete	%al
 257              		.loc 1 68 23
 258 01b3 8845EF   		movb	%al, -17(%ebp)
 259              	L16:
  59:src/pdf417/PDFScanningDecoder.c **** 	{
 260              		.loc 1 59 8
 261 01b6 807DE400 		cmpb	$0, -28(%ebp)
 262 01ba 740A     		je	L18
  59:src/pdf417/PDFScanningDecoder.c **** 	{
 263              		.loc 1 59 8 is_stmt 0 discriminator 1
 264 01bc 8B45F4   		movl	-12(%ebp), %eax
 265 01bf 3B4510   		cmpl	16(%ebp), %eax
 266 01c2 7C0A     		jl	L19
 267 01c4 EB11     		jmp	L20
 268              	L18:
  59:src/pdf417/PDFScanningDecoder.c **** 	{
 269              		.loc 1 59 80 is_stmt 1 discriminator 2
 270 01c6 8B45F4   		movl	-12(%ebp), %eax
 271 01c9 3B450C   		cmpl	12(%ebp), %eax
 272 01cc 7C09     		jl	L20
 273              	L19:
  59:src/pdf417/PDFScanningDecoder.c **** 	{
 274              		.loc 1 59 96 discriminator 3
 275 01ce 0FB645E0 		movzbl	-32(%ebp), %eax
  59:src/pdf417/PDFScanningDecoder.c **** 	{
 276              		.loc 1 59 80 discriminator 3
 277 01d2 3945F0   		cmpl	%eax, -16(%ebp)
 278 01d5 7284     		jb	L21
 279              	L20:
  69:src/pdf417/PDFScanningDecoder.c **** 		}
  70:src/pdf417/PDFScanningDecoder.c **** 	}
  71:src/pdf417/PDFScanningDecoder.c **** 	return moduleNumber == length || (imageColumn == (leftToRight ? maxColumn : minColumn) && moduleNu
 280              		.loc 1 71 22
 281 01d7 0FB645E0 		movzbl	-32(%ebp), %eax
 282              		.loc 1 71 32
 283 01db 3945F0   		cmpl	%eax, -16(%ebp)
 284 01de 741F     		je	L22
 285              		.loc 1 71 76 discriminator 2
 286 01e0 807DE400 		cmpb	$0, -28(%ebp)
 287 01e4 7405     		je	L23
 288              		.loc 1 71 76 is_stmt 0 discriminator 3
 289 01e6 8B4510   		movl	16(%ebp), %eax
 290 01e9 EB03     		jmp	L24
 291              	L23:
GAS LISTING C:\Users\jisu8\AppData\Local\Temp\ccX0Ht2c.s 			page 8


 292              		.loc 1 71 76 discriminator 4
 293 01eb 8B450C   		movl	12(%ebp), %eax
 294              	L24:
 295              		.loc 1 71 32 is_stmt 1 discriminator 6
 296 01ee 3B45F4   		cmpl	-12(%ebp), %eax
 297 01f1 7513     		jne	L25
 298              		.loc 1 71 115 discriminator 7
 299 01f3 0FB645E0 		movzbl	-32(%ebp), %eax
 300 01f7 83E801   		subl	$1, %eax
 301              		.loc 1 71 89 discriminator 7
 302 01fa 3945F0   		cmpl	%eax, -16(%ebp)
 303 01fd 7507     		jne	L25
 304              	L22:
 305              		.loc 1 71 32 discriminator 9
 306 01ff B8010000 		movl	$1, %eax
 306      00
 307 0204 EB05     		jmp	L26
 308              	L25:
 309              		.loc 1 71 32 is_stmt 0 discriminator 10
 310 0206 B8000000 		movl	$0, %eax
 310      00
 311              	L26:
  72:src/pdf417/PDFScanningDecoder.c **** }
 312              		.loc 1 72 1 is_stmt 1 discriminator 12
 313 020b C9       		leave
 314              	LCFI5:
 315              		.cfi_restore 5
 316              		.cfi_def_cfa 4, 4
 317 020c C3       		ret
 318              		.cfi_endproc
 319              	LFE5:
 321              	_CheckCodewordSkew:
 322              	LFB6:
  73:src/pdf417/PDFScanningDecoder.c **** 
  74:src/pdf417/PDFScanningDecoder.c **** static uint8_t CheckCodewordSkew(int codewordSize, int minCodewordWidth, int maxCodewordWidth)
  75:src/pdf417/PDFScanningDecoder.c **** {
 323              		.loc 1 75 1
 324              		.cfi_startproc
 325 020d 55       		pushl	%ebp
 326              	LCFI6:
 327              		.cfi_def_cfa_offset 8
 328              		.cfi_offset 5, -8
 329 020e 89E5     		movl	%esp, %ebp
 330              	LCFI7:
 331              		.cfi_def_cfa_register 5
  76:src/pdf417/PDFScanningDecoder.c **** 	return minCodewordWidth - CODEWORD_SKEW_SIZE <= codewordSize &&
 332              		.loc 1 76 26
 333 0210 BA020000 		movl	$2, %edx
 333      00
 334 0215 8B450C   		movl	12(%ebp), %eax
 335 0218 29D0     		subl	%edx, %eax
 336              		.loc 1 76 63
 337 021a 394508   		cmpl	%eax, 8(%ebp)
 338 021d 7C16     		jl	L29
  77:src/pdf417/PDFScanningDecoder.c **** 		codewordSize <= maxCodewordWidth + CODEWORD_SKEW_SIZE;
 339              		.loc 1 77 36 discriminator 1
 340 021f BA020000 		movl	$2, %edx
GAS LISTING C:\Users\jisu8\AppData\Local\Temp\ccX0Ht2c.s 			page 9


 340      00
 341 0224 8B4510   		movl	16(%ebp), %eax
 342 0227 01D0     		addl	%edx, %eax
  76:src/pdf417/PDFScanningDecoder.c **** 	return minCodewordWidth - CODEWORD_SKEW_SIZE <= codewordSize &&
 343              		.loc 1 76 63 discriminator 1
 344 0229 394508   		cmpl	%eax, 8(%ebp)
 345 022c 7F07     		jg	L29
  76:src/pdf417/PDFScanningDecoder.c **** 	return minCodewordWidth - CODEWORD_SKEW_SIZE <= codewordSize &&
 346              		.loc 1 76 63 is_stmt 0 discriminator 3
 347 022e B8010000 		movl	$1, %eax
 347      00
 348 0233 EB05     		jmp	L30
 349              	L29:
  76:src/pdf417/PDFScanningDecoder.c **** 	return minCodewordWidth - CODEWORD_SKEW_SIZE <= codewordSize &&
 350              		.loc 1 76 63 discriminator 4
 351 0235 B8000000 		movl	$0, %eax
 351      00
 352              	L30:
  78:src/pdf417/PDFScanningDecoder.c **** }
 353              		.loc 1 78 1 is_stmt 1 discriminator 6
 354 023a 5D       		popl	%ebp
 355              	LCFI8:
 356              		.cfi_restore 5
 357              		.cfi_def_cfa 4, 4
 358 023b C3       		ret
 359              		.cfi_endproc
 360              	LFE6:
 361              		.section .rdata,"dr"
 362 00cf 00       		.align 4
 363              	LC2:
 364 00d0 47657442 		.ascii "GetBitCountForCodeword codeword=%d\12\0"
 364      6974436F 
 364      756E7446 
 364      6F72436F 
 364      6465776F 
 365              		.text
 367              	_GetBitCountForCodeword:
 368              	LFB7:
  79:src/pdf417/PDFScanningDecoder.c **** 
  80:src/pdf417/PDFScanningDecoder.c **** static int * GetBitCountForCodeword(int codeword)
  81:src/pdf417/PDFScanningDecoder.c **** {
 369              		.loc 1 81 1
 370              		.cfi_startproc
 371 023c 55       		pushl	%ebp
 372              	LCFI9:
 373              		.cfi_def_cfa_offset 8
 374              		.cfi_offset 5, -8
 375 023d 89E5     		movl	%esp, %ebp
 376              	LCFI10:
 377              		.cfi_def_cfa_register 5
 378 023f 83EC28   		subl	$40, %esp
  82:src/pdf417/PDFScanningDecoder.c **** 
  83:src/pdf417/PDFScanningDecoder.c **** 	printf("GetBitCountForCodeword codeword=%d\n", codeword);
 379              		.loc 1 83 2
 380 0242 8B4508   		movl	8(%ebp), %eax
 381 0245 89442404 		movl	%eax, 4(%esp)
 382 0249 C70424D0 		movl	$LC2, (%esp)
GAS LISTING C:\Users\jisu8\AppData\Local\Temp\ccX0Ht2c.s 			page 10


 382      000000
 383 0250 E8000000 		call	_printf
 383      00
  84:src/pdf417/PDFScanningDecoder.c **** 
  85:src/pdf417/PDFScanningDecoder.c ****     fill(BARS_IN_MODULE,result_bits,0);
 384              		.loc 1 85 5
 385 0255 A1000000 		movl	_BARS_IN_MODULE, %eax
 385      00
 386 025a C7442408 		movl	$0, 8(%esp)
 386      00000000 
 387 0262 C7442404 		movl	$_result_bits, 4(%esp)
 387      00000000 
 388 026a 890424   		movl	%eax, (%esp)
 389 026d E8000000 		call	_fill
 389      00
  86:src/pdf417/PDFScanningDecoder.c **** 	int previousValue = 0;
 390              		.loc 1 86 6
 391 0272 C745F400 		movl	$0, -12(%ebp)
 391      000000
  87:src/pdf417/PDFScanningDecoder.c **** 	int i = sizeof(result_bits)/sizeof(result_bits[0]) - 1;
 392              		.loc 1 87 6
 393 0279 C745F007 		movl	$7, -16(%ebp)
 393      000000
 394              	L35:
  88:src/pdf417/PDFScanningDecoder.c **** 	while (1) 
  89:src/pdf417/PDFScanningDecoder.c **** 	{
  90:src/pdf417/PDFScanningDecoder.c **** 		if ((codeword & 0x1) != previousValue) 
 395              		.loc 1 90 17
 396 0280 8B4508   		movl	8(%ebp), %eax
 397 0283 83E001   		andl	$1, %eax
 398              		.loc 1 90 6
 399 0286 3945F4   		cmpl	%eax, -12(%ebp)
 400 0289 7413     		je	L33
  91:src/pdf417/PDFScanningDecoder.c **** 		{
  92:src/pdf417/PDFScanningDecoder.c **** 			previousValue = codeword & 0x1;
 401              		.loc 1 92 18
 402 028b 8B4508   		movl	8(%ebp), %eax
 403 028e 83E001   		andl	$1, %eax
 404 0291 8945F4   		movl	%eax, -12(%ebp)
  93:src/pdf417/PDFScanningDecoder.c **** 			i--;
 405              		.loc 1 93 5
 406 0294 836DF001 		subl	$1, -16(%ebp)
  94:src/pdf417/PDFScanningDecoder.c **** 			if (i < 0) 
 407              		.loc 1 94 7
 408 0298 837DF000 		cmpl	$0, -16(%ebp)
 409 029c 781C     		js	L38
 410              	L33:
  95:src/pdf417/PDFScanningDecoder.c **** 			{
  96:src/pdf417/PDFScanningDecoder.c **** 				break;
  97:src/pdf417/PDFScanningDecoder.c **** 			}
  98:src/pdf417/PDFScanningDecoder.c **** 		}
  99:src/pdf417/PDFScanningDecoder.c **** 		result_bits[i]++;
 411              		.loc 1 99 14
 412 029e 8B45F0   		movl	-16(%ebp), %eax
 413 02a1 8B048500 		movl	_result_bits(,%eax,4), %eax
 413      000000
 414              		.loc 1 99 17
GAS LISTING C:\Users\jisu8\AppData\Local\Temp\ccX0Ht2c.s 			page 11


 415 02a8 8D5001   		leal	1(%eax), %edx
 416 02ab 8B45F0   		movl	-16(%ebp), %eax
 417 02ae 89148500 		movl	%edx, _result_bits(,%eax,4)
 417      000000
 100:src/pdf417/PDFScanningDecoder.c **** 		codeword >>= 1;
 418              		.loc 1 100 12
 419 02b5 D17D08   		sarl	8(%ebp)
  90:src/pdf417/PDFScanningDecoder.c **** 		{
 420              		.loc 1 90 6
 421 02b8 EBC6     		jmp	L35
 422              	L38:
  96:src/pdf417/PDFScanningDecoder.c **** 			}
 423              		.loc 1 96 5
 424 02ba 90       		nop
 101:src/pdf417/PDFScanningDecoder.c **** 	}
 102:src/pdf417/PDFScanningDecoder.c **** 	return result_bits;
 425              		.loc 1 102 9
 426 02bb B8000000 		movl	$_result_bits, %eax
 426      00
 103:src/pdf417/PDFScanningDecoder.c **** }
 427              		.loc 1 103 1
 428 02c0 C9       		leave
 429              	LCFI11:
 430              		.cfi_restore 5
 431              		.cfi_def_cfa 4, 4
 432 02c1 C3       		ret
 433              		.cfi_endproc
 434              	LFE7:
 436              	_GetCodewordBucketNumberRet:
 437              	LFB8:
 104:src/pdf417/PDFScanningDecoder.c **** 
 105:src/pdf417/PDFScanningDecoder.c **** static int GetCodewordBucketNumberRet(const int * moduleBitCount)
 106:src/pdf417/PDFScanningDecoder.c **** {
 438              		.loc 1 106 1
 439              		.cfi_startproc
 440 02c2 55       		pushl	%ebp
 441              	LCFI12:
 442              		.cfi_def_cfa_offset 8
 443              		.cfi_offset 5, -8
 444 02c3 89E5     		movl	%esp, %ebp
 445              	LCFI13:
 446              		.cfi_def_cfa_register 5
 107:src/pdf417/PDFScanningDecoder.c **** 	return (moduleBitCount[0] - moduleBitCount[2] + moduleBitCount[4] - moduleBitCount[6] + 9) % 9;
 447              		.loc 1 107 24
 448 02c5 8B4508   		movl	8(%ebp), %eax
 449 02c8 8B10     		movl	(%eax), %edx
 450              		.loc 1 107 44
 451 02ca 8B4508   		movl	8(%ebp), %eax
 452 02cd 83C008   		addl	$8, %eax
 453 02d0 8B00     		movl	(%eax), %eax
 454              		.loc 1 107 28
 455 02d2 29C2     		subl	%eax, %edx
 456              		.loc 1 107 64
 457 02d4 8B4508   		movl	8(%ebp), %eax
 458 02d7 83C010   		addl	$16, %eax
 459 02da 8B00     		movl	(%eax), %eax
 460              		.loc 1 107 48
GAS LISTING C:\Users\jisu8\AppData\Local\Temp\ccX0Ht2c.s 			page 12


 461 02dc 01C2     		addl	%eax, %edx
 462              		.loc 1 107 84
 463 02de 8B4508   		movl	8(%ebp), %eax
 464 02e1 83C018   		addl	$24, %eax
 465 02e4 8B00     		movl	(%eax), %eax
 466              		.loc 1 107 68
 467 02e6 29C2     		subl	%eax, %edx
 468 02e8 89D0     		movl	%edx, %eax
 469              		.loc 1 107 88
 470 02ea 8D4809   		leal	9(%eax), %ecx
 471              		.loc 1 107 93
 472 02ed BA398EE3 		movl	$954437177, %edx
 472      38
 473 02f2 89C8     		movl	%ecx, %eax
 474 02f4 F7EA     		imull	%edx
 475 02f6 D1FA     		sarl	%edx
 476 02f8 89C8     		movl	%ecx, %eax
 477 02fa C1F81F   		sarl	$31, %eax
 478 02fd 29C2     		subl	%eax, %edx
 479 02ff 89D0     		movl	%edx, %eax
 480 0301 C1E003   		sall	$3, %eax
 481 0304 01D0     		addl	%edx, %eax
 482 0306 29C1     		subl	%eax, %ecx
 483 0308 89CA     		movl	%ecx, %edx
 484 030a 89D0     		movl	%edx, %eax
 108:src/pdf417/PDFScanningDecoder.c **** }
 485              		.loc 1 108 1
 486 030c 5D       		popl	%ebp
 487              	LCFI14:
 488              		.cfi_restore 5
 489              		.cfi_def_cfa 4, 4
 490 030d C3       		ret
 491              		.cfi_endproc
 492              	LFE8:
 494              	_GetCodewordBucketNumber:
 495              	LFB9:
 109:src/pdf417/PDFScanningDecoder.c **** 
 110:src/pdf417/PDFScanningDecoder.c **** 
 111:src/pdf417/PDFScanningDecoder.c **** static int GetCodewordBucketNumber(int codeword)
 112:src/pdf417/PDFScanningDecoder.c **** {
 496              		.loc 1 112 1
 497              		.cfi_startproc
 498 030e 55       		pushl	%ebp
 499              	LCFI15:
 500              		.cfi_def_cfa_offset 8
 501              		.cfi_offset 5, -8
 502 030f 89E5     		movl	%esp, %ebp
 503              	LCFI16:
 504              		.cfi_def_cfa_register 5
 505 0311 83EC18   		subl	$24, %esp
 113:src/pdf417/PDFScanningDecoder.c **** 	return GetCodewordBucketNumberRet(GetBitCountForCodeword(codeword));
 506              		.loc 1 113 36
 507 0314 8B4508   		movl	8(%ebp), %eax
 508 0317 890424   		movl	%eax, (%esp)
 509 031a E81DFFFF 		call	_GetBitCountForCodeword
 509      FF
 510              		.loc 1 113 9
GAS LISTING C:\Users\jisu8\AppData\Local\Temp\ccX0Ht2c.s 			page 13


 511 031f 890424   		movl	%eax, (%esp)
 512 0322 E89BFFFF 		call	_GetCodewordBucketNumberRet
 512      FF
 114:src/pdf417/PDFScanningDecoder.c **** }
 513              		.loc 1 114 1
 514 0327 C9       		leave
 515              	LCFI17:
 516              		.cfi_restore 5
 517              		.cfi_def_cfa 4, 4
 518 0328 C3       		ret
 519              		.cfi_endproc
 520              	LFE9:
 522              	_Codeword:
 523              	LFB10:
 115:src/pdf417/PDFScanningDecoder.c **** 
 116:src/pdf417/PDFScanningDecoder.c **** static Codeword_t * Codeword(int startX, int endX, int bucket, int value)
 117:src/pdf417/PDFScanningDecoder.c **** {
 524              		.loc 1 117 1
 525              		.cfi_startproc
 526 0329 55       		pushl	%ebp
 527              	LCFI18:
 528              		.cfi_def_cfa_offset 8
 529              		.cfi_offset 5, -8
 530 032a 89E5     		movl	%esp, %ebp
 531              	LCFI19:
 532              		.cfi_def_cfa_register 5
 118:src/pdf417/PDFScanningDecoder.c **** 	CodeWord.m_hasValue = 1;
 533              		.loc 1 118 22
 534 032c C6050000 		movb	$1, _CodeWord
 534      000001
 119:src/pdf417/PDFScanningDecoder.c **** 	CodeWord.m_value._startX = startX;
 535              		.loc 1 119 27
 536 0333 8B4508   		movl	8(%ebp), %eax
 537 0336 A3040000 		movl	%eax, _CodeWord+4
 537      00
 120:src/pdf417/PDFScanningDecoder.c **** 	CodeWord.m_value._endX = endX;
 538              		.loc 1 120 25
 539 033b 8B450C   		movl	12(%ebp), %eax
 540 033e A3080000 		movl	%eax, _CodeWord+8
 540      00
 121:src/pdf417/PDFScanningDecoder.c **** 	CodeWord.m_value._bucket = bucket;
 541              		.loc 1 121 27
 542 0343 8B4510   		movl	16(%ebp), %eax
 543 0346 A30C0000 		movl	%eax, _CodeWord+12
 543      00
 122:src/pdf417/PDFScanningDecoder.c **** 	CodeWord.m_value._value = value;
 544              		.loc 1 122 26
 545 034b 8B4514   		movl	20(%ebp), %eax
 546 034e A3100000 		movl	%eax, _CodeWord+16
 546      00
 123:src/pdf417/PDFScanningDecoder.c **** 	CodeWord.m_value._rowNumber = BARCODE_ROW_UNKNOWN;	
 547              		.loc 1 123 30
 548 0353 B8FFFFFF 		movl	$-1, %eax
 548      FF
 549 0358 A3140000 		movl	%eax, _CodeWord+20
 549      00
 124:src/pdf417/PDFScanningDecoder.c **** 
GAS LISTING C:\Users\jisu8\AppData\Local\Temp\ccX0Ht2c.s 			page 14


 125:src/pdf417/PDFScanningDecoder.c **** 	return &CodeWord;
 550              		.loc 1 125 9
 551 035d B8000000 		movl	$_CodeWord, %eax
 551      00
 126:src/pdf417/PDFScanningDecoder.c **** }
 552              		.loc 1 126 1
 553 0362 5D       		popl	%ebp
 554              	LCFI20:
 555              		.cfi_restore 5
 556              		.cfi_def_cfa 4, 4
 557 0363 C3       		ret
 558              		.cfi_endproc
 559              	LFE10:
 560              		.section .rdata,"dr"
 561              		.align 4
 562              	LC3:
 563 00f4 44657465 		.ascii "DetectCodeword minColumn=%d, maxColumn=%d, leftToRight=%d, startColumn=%d, imageRow=%d, mi
 563      6374436F 
 563      6465776F 
 563      7264206D 
 563      696E436F 
 564              		.text
 566              	_DetectCodeword:
 567              	LFB11:
 127:src/pdf417/PDFScanningDecoder.c **** 
 128:src/pdf417/PDFScanningDecoder.c **** static Codeword_t * DetectCodeword(const BitMatrix_t * image, int minColumn, int maxColumn, uint8_t
 129:src/pdf417/PDFScanningDecoder.c **** {
 568              		.loc 1 129 1
 569              		.cfi_startproc
 570 0364 55       		pushl	%ebp
 571              	LCFI21:
 572              		.cfi_def_cfa_offset 8
 573              		.cfi_offset 5, -8
 574 0365 89E5     		movl	%esp, %ebp
 575              	LCFI22:
 576              		.cfi_def_cfa_register 5
 577 0367 83EC78   		subl	$120, %esp
 578 036a 8B4514   		movl	20(%ebp), %eax
 579 036d 8845B4   		movb	%al, -76(%ebp)
 130:src/pdf417/PDFScanningDecoder.c **** 	printf("DetectCodeword minColumn=%d, maxColumn=%d, leftToRight=%d, startColumn=%d, imageRow=%d, mi
 580              		.loc 1 130 2
 581 0370 0FB645B4 		movzbl	-76(%ebp), %eax
 582 0374 8B5524   		movl	36(%ebp), %edx
 583 0377 8954241C 		movl	%edx, 28(%esp)
 584 037b 8B5520   		movl	32(%ebp), %edx
 585 037e 89542418 		movl	%edx, 24(%esp)
 586 0382 8B551C   		movl	28(%ebp), %edx
 587 0385 89542414 		movl	%edx, 20(%esp)
 588 0389 8B5518   		movl	24(%ebp), %edx
 589 038c 89542410 		movl	%edx, 16(%esp)
 590 0390 8944240C 		movl	%eax, 12(%esp)
 591 0394 8B4510   		movl	16(%ebp), %eax
 592 0397 89442408 		movl	%eax, 8(%esp)
 593 039b 8B450C   		movl	12(%ebp), %eax
 594 039e 89442404 		movl	%eax, 4(%esp)
 595 03a2 C70424F4 		movl	$LC3, (%esp)
 595      000000
GAS LISTING C:\Users\jisu8\AppData\Local\Temp\ccX0Ht2c.s 			page 15


 596 03a9 E8000000 		call	_printf
 596      00
 131:src/pdf417/PDFScanningDecoder.c **** 		minColumn, maxColumn, leftToRight, startColumn, imageRow, minCodewordWidth, maxCodewordWidth);
 132:src/pdf417/PDFScanningDecoder.c **** 
 133:src/pdf417/PDFScanningDecoder.c **** 	startColumn = AdjustCodewordStartColumn(image, minColumn, maxColumn, leftToRight, startColumn, ima
 597              		.loc 1 133 16
 598 03ae 0FB645B4 		movzbl	-76(%ebp), %eax
 599 03b2 8B551C   		movl	28(%ebp), %edx
 600 03b5 89542414 		movl	%edx, 20(%esp)
 601 03b9 8B5518   		movl	24(%ebp), %edx
 602 03bc 89542410 		movl	%edx, 16(%esp)
 603 03c0 8944240C 		movl	%eax, 12(%esp)
 604 03c4 8B4510   		movl	16(%ebp), %eax
 605 03c7 89442408 		movl	%eax, 8(%esp)
 606 03cb 8B450C   		movl	12(%ebp), %eax
 607 03ce 89442404 		movl	%eax, 4(%esp)
 608 03d2 8B4508   		movl	8(%ebp), %eax
 609 03d5 890424   		movl	%eax, (%esp)
 610 03d8 E823FCFF 		call	_AdjustCodewordStartColumn
 610      FF
 611 03dd 894518   		movl	%eax, 24(%ebp)
 134:src/pdf417/PDFScanningDecoder.c **** 	// we usually know fairly exact now how long a codeword is. We should provide minimum and maximum 
 135:src/pdf417/PDFScanningDecoder.c **** 	// and try to adjust the read pixels, e.g. remove single pixel errors or try to cut off exceeding 
 136:src/pdf417/PDFScanningDecoder.c **** 	// min and maxCodewordWidth should not be used as they are calculated for the whole barcode an can
 137:src/pdf417/PDFScanningDecoder.c **** 	// for the current position
 138:src/pdf417/PDFScanningDecoder.c **** 	int moduleBitCount[8];
 139:src/pdf417/PDFScanningDecoder.c **** 	int length = sizeof(moduleBitCount) / sizeof(moduleBitCount[0]);
 612              		.loc 1 139 6
 613 03e0 C745F008 		movl	$8, -16(%ebp)
 613      000000
 140:src/pdf417/PDFScanningDecoder.c **** 	if (!GetModuleBitCount(image, minColumn, maxColumn, leftToRight, startColumn, imageRow, moduleBitC
 614              		.loc 1 140 7
 615 03e7 8B45F0   		movl	-16(%ebp), %eax
 616 03ea 0FB6D0   		movzbl	%al, %edx
 617 03ed 0FB645B4 		movzbl	-76(%ebp), %eax
 618 03f1 8954241C 		movl	%edx, 28(%esp)
 619 03f5 8D55C4   		leal	-60(%ebp), %edx
 620 03f8 89542418 		movl	%edx, 24(%esp)
 621 03fc 8B551C   		movl	28(%ebp), %edx
 622 03ff 89542414 		movl	%edx, 20(%esp)
 623 0403 8B5518   		movl	24(%ebp), %edx
 624 0406 89542410 		movl	%edx, 16(%esp)
 625 040a 8944240C 		movl	%eax, 12(%esp)
 626 040e 8B4510   		movl	16(%ebp), %eax
 627 0411 89442408 		movl	%eax, 8(%esp)
 628 0415 8B450C   		movl	12(%ebp), %eax
 629 0418 89442404 		movl	%eax, 4(%esp)
 630 041c 8B4508   		movl	8(%ebp), %eax
 631 041f 890424   		movl	%eax, (%esp)
 632 0422 E8ACFCFF 		call	_GetModuleBitCount
 632      FF
 633              		.loc 1 140 5
 634 0427 84C0     		testb	%al, %al
 635 0429 750A     		jne	L46
 141:src/pdf417/PDFScanningDecoder.c **** 	{
 142:src/pdf417/PDFScanningDecoder.c **** 		return NULL;
 636              		.loc 1 142 10
GAS LISTING C:\Users\jisu8\AppData\Local\Temp\ccX0Ht2c.s 			page 16


 637 042b B8000000 		movl	$0, %eax
 637      00
 638 0430 E9C60000 		jmp	L52
 638      00
 639              	L46:
 143:src/pdf417/PDFScanningDecoder.c **** 	}
 144:src/pdf417/PDFScanningDecoder.c **** 	int endColumn;
 145:src/pdf417/PDFScanningDecoder.c **** 	int codewordBitCount = Reduce(length,moduleBitCount);
 640              		.loc 1 145 25
 641 0435 8D45C4   		leal	-60(%ebp), %eax
 642 0438 89442404 		movl	%eax, 4(%esp)
 643 043c 8B45F0   		movl	-16(%ebp), %eax
 644 043f 890424   		movl	%eax, (%esp)
 645 0442 E8000000 		call	_Reduce
 645      00
 646 0447 8945EC   		movl	%eax, -20(%ebp)
 146:src/pdf417/PDFScanningDecoder.c **** 	if (leftToRight) 
 647              		.loc 1 146 5
 648 044a 807DB400 		cmpb	$0, -76(%ebp)
 649 044e 740D     		je	L48
 147:src/pdf417/PDFScanningDecoder.c **** 	{
 148:src/pdf417/PDFScanningDecoder.c **** 		endColumn = startColumn + codewordBitCount;
 650              		.loc 1 148 13
 651 0450 8B5518   		movl	24(%ebp), %edx
 652 0453 8B45EC   		movl	-20(%ebp), %eax
 653 0456 01D0     		addl	%edx, %eax
 654 0458 8945F4   		movl	%eax, -12(%ebp)
 655 045b EB21     		jmp	L49
 656              	L48:
 149:src/pdf417/PDFScanningDecoder.c **** 	}
 150:src/pdf417/PDFScanningDecoder.c **** 	else 
 151:src/pdf417/PDFScanningDecoder.c **** 	{
 152:src/pdf417/PDFScanningDecoder.c **** 		reverse(length,moduleBitCount);
 657              		.loc 1 152 3
 658 045d 8D45C4   		leal	-60(%ebp), %eax
 659 0460 89442404 		movl	%eax, 4(%esp)
 660 0464 8B45F0   		movl	-16(%ebp), %eax
 661 0467 890424   		movl	%eax, (%esp)
 662 046a E8000000 		call	_reverse
 662      00
 153:src/pdf417/PDFScanningDecoder.c **** 		endColumn = startColumn;
 663              		.loc 1 153 13
 664 046f 8B4518   		movl	24(%ebp), %eax
 665 0472 8945F4   		movl	%eax, -12(%ebp)
 154:src/pdf417/PDFScanningDecoder.c **** 		startColumn = endColumn - codewordBitCount;
 666              		.loc 1 154 15
 667 0475 8B45F4   		movl	-12(%ebp), %eax
 668 0478 2B45EC   		subl	-20(%ebp), %eax
 669 047b 894518   		movl	%eax, 24(%ebp)
 670              	L49:
 155:src/pdf417/PDFScanningDecoder.c **** 	}
 156:src/pdf417/PDFScanningDecoder.c **** 
 157:src/pdf417/PDFScanningDecoder.c **** 	// We could also use the width of surrounding codewords for more accurate results, but this seems
 158:src/pdf417/PDFScanningDecoder.c **** 	// sufficient for now
 159:src/pdf417/PDFScanningDecoder.c **** 	if (!CheckCodewordSkew(codewordBitCount, minCodewordWidth, maxCodewordWidth)) {
 671              		.loc 1 159 7
 672 047e 8B4524   		movl	36(%ebp), %eax
GAS LISTING C:\Users\jisu8\AppData\Local\Temp\ccX0Ht2c.s 			page 17


 673 0481 89442408 		movl	%eax, 8(%esp)
 674 0485 8B4520   		movl	32(%ebp), %eax
 675 0488 89442404 		movl	%eax, 4(%esp)
 676 048c 8B45EC   		movl	-20(%ebp), %eax
 677 048f 890424   		movl	%eax, (%esp)
 678 0492 E876FDFF 		call	_CheckCodewordSkew
 678      FF
 679              		.loc 1 159 5
 680 0497 84C0     		testb	%al, %al
 681 0499 7507     		jne	L50
 160:src/pdf417/PDFScanningDecoder.c **** 		// We could try to use the startX and endX position of the codeword in the same column in the pre
 161:src/pdf417/PDFScanningDecoder.c **** 		// create the bit count from it and normalize it to 8. This would help with single pixel errors.
 162:src/pdf417/PDFScanningDecoder.c **** 		return NULL;
 682              		.loc 1 162 10
 683 049b B8000000 		movl	$0, %eax
 683      00
 684 04a0 EB59     		jmp	L52
 685              	L50:
 163:src/pdf417/PDFScanningDecoder.c **** 	}
 164:src/pdf417/PDFScanningDecoder.c **** 
 165:src/pdf417/PDFScanningDecoder.c **** 	int decodedValue = GetDecodedValue(moduleBitCount);
 686              		.loc 1 165 21
 687 04a2 8D45C4   		leal	-60(%ebp), %eax
 688 04a5 890424   		movl	%eax, (%esp)
 689 04a8 E8000000 		call	_GetDecodedValue
 689      00
 690 04ad 8945E8   		movl	%eax, -24(%ebp)
 166:src/pdf417/PDFScanningDecoder.c **** 	if (decodedValue != -1) 
 691              		.loc 1 166 5
 692 04b0 837DE8FF 		cmpl	$-1, -24(%ebp)
 693 04b4 7440     		je	L51
 694              	LBB3:
 167:src/pdf417/PDFScanningDecoder.c **** 	{
 168:src/pdf417/PDFScanningDecoder.c **** 		int codeword = GetCodeword(decodedValue);
 695              		.loc 1 168 18
 696 04b6 8B45E8   		movl	-24(%ebp), %eax
 697 04b9 890424   		movl	%eax, (%esp)
 698 04bc E8000000 		call	_GetCodeword
 698      00
 699 04c1 8945E4   		movl	%eax, -28(%ebp)
 169:src/pdf417/PDFScanningDecoder.c **** 		if (codeword != -1) 
 700              		.loc 1 169 6
 701 04c4 837DE4FF 		cmpl	$-1, -28(%ebp)
 702 04c8 742C     		je	L51
 170:src/pdf417/PDFScanningDecoder.c **** 		{
 171:src/pdf417/PDFScanningDecoder.c **** 			return Codeword(startColumn, endColumn, GetCodewordBucketNumber(decodedValue), codeword);
 703              		.loc 1 171 11
 704 04ca 8B45E8   		movl	-24(%ebp), %eax
 705 04cd 890424   		movl	%eax, (%esp)
 706 04d0 E839FEFF 		call	_GetCodewordBucketNumber
 706      FF
 707 04d5 89C2     		movl	%eax, %edx
 708 04d7 8B45E4   		movl	-28(%ebp), %eax
 709 04da 8944240C 		movl	%eax, 12(%esp)
 710 04de 89542408 		movl	%edx, 8(%esp)
 711 04e2 8B45F4   		movl	-12(%ebp), %eax
 712 04e5 89442404 		movl	%eax, 4(%esp)
GAS LISTING C:\Users\jisu8\AppData\Local\Temp\ccX0Ht2c.s 			page 18


 713 04e9 8B4518   		movl	24(%ebp), %eax
 714 04ec 890424   		movl	%eax, (%esp)
 715 04ef E835FEFF 		call	_Codeword
 715      FF
 716 04f4 EB05     		jmp	L52
 717              	L51:
 718              	LBE3:
 172:src/pdf417/PDFScanningDecoder.c **** 		}
 173:src/pdf417/PDFScanningDecoder.c **** 	}
 174:src/pdf417/PDFScanningDecoder.c **** 
 175:src/pdf417/PDFScanningDecoder.c **** 	return NULL;
 719              		.loc 1 175 9
 720 04f6 B8000000 		movl	$0, %eax
 720      00
 721              	L52:
 176:src/pdf417/PDFScanningDecoder.c **** }
 722              		.loc 1 176 1 discriminator 1
 723 04fb C9       		leave
 724              	LCFI23:
 725              		.cfi_restore 5
 726              		.cfi_def_cfa 4, 4
 727 04fc C3       		ret
 728              		.cfi_endproc
 729              	LFE11:
 731              	_setCodeword:
 732              	LFB12:
 177:src/pdf417/PDFScanningDecoder.c **** static void setCodeword(int imageRow, Codeword_t * codeword, DetectionResultColumn_t * RowIndicator
 178:src/pdf417/PDFScanningDecoder.c **** {
 733              		.loc 1 178 1
 734              		.cfi_startproc
 735 04fd 55       		pushl	%ebp
 736              	LCFI24:
 737              		.cfi_def_cfa_offset 8
 738              		.cfi_offset 5, -8
 739 04fe 89E5     		movl	%esp, %ebp
 740              	LCFI25:
 741              		.cfi_def_cfa_register 5
 742 0500 53       		pushl	%ebx
 743 0501 83EC14   		subl	$20, %esp
 744              		.cfi_offset 3, -12
 745 0504 8B4514   		movl	20(%ebp), %eax
 746 0507 8845E8   		movb	%al, -24(%ebp)
 179:src/pdf417/PDFScanningDecoder.c **** 	int idx = imageRow - RowIndicatorColumn->m_value._boundingBox.m_value._minY;
 747              		.loc 1 179 71
 748 050a 8B4510   		movl	16(%ebp), %eax
 749 050d 8B4048   		movl	72(%eax), %eax
 750              		.loc 1 179 6
 751 0510 8B5508   		movl	8(%ebp), %edx
 752 0513 29C2     		subl	%eax, %edx
 753 0515 89D0     		movl	%edx, %eax
 754 0517 8945F8   		movl	%eax, -8(%ebp)
 180:src/pdf417/PDFScanningDecoder.c **** 	if(empty == 0)
 755              		.loc 1 180 4
 756 051a 807DE800 		cmpb	$0, -24(%ebp)
 757 051e 0F85AD00 		jne	L54
 757      0000
 181:src/pdf417/PDFScanningDecoder.c **** 	{
GAS LISTING C:\Users\jisu8\AppData\Local\Temp\ccX0Ht2c.s 			page 19


 182:src/pdf417/PDFScanningDecoder.c **** 		RowIndicatorColumn->m_value._codewords[idx].m_hasValue = codeword->m_hasValue;
 758              		.loc 1 182 68
 759 0524 8B450C   		movl	12(%ebp), %eax
 760 0527 0FB608   		movzbl	(%eax), %ecx
 761              		.loc 1 182 58
 762 052a 8B5D10   		movl	16(%ebp), %ebx
 763 052d 8B55F8   		movl	-8(%ebp), %edx
 764 0530 89D0     		movl	%edx, %eax
 765 0532 01C0     		addl	%eax, %eax
 766 0534 01D0     		addl	%edx, %eax
 767 0536 C1E003   		sall	$3, %eax
 768 0539 01D8     		addl	%ebx, %eax
 769 053b 83C050   		addl	$80, %eax
 770 053e 8808     		movb	%cl, (%eax)
 183:src/pdf417/PDFScanningDecoder.c **** 		RowIndicatorColumn->m_value._codewords[idx].m_value._bucket = codeword->m_value._bucket;
 771              		.loc 1 183 82
 772 0540 8B450C   		movl	12(%ebp), %eax
 773 0543 8B480C   		movl	12(%eax), %ecx
 774              		.loc 1 183 63
 775 0546 8B5D10   		movl	16(%ebp), %ebx
 776 0549 8B55F8   		movl	-8(%ebp), %edx
 777 054c 89D0     		movl	%edx, %eax
 778 054e 01C0     		addl	%eax, %eax
 779 0550 01D0     		addl	%edx, %eax
 780 0552 C1E003   		sall	$3, %eax
 781 0555 01D8     		addl	%ebx, %eax
 782 0557 83C05C   		addl	$92, %eax
 783 055a 8908     		movl	%ecx, (%eax)
 184:src/pdf417/PDFScanningDecoder.c **** 		RowIndicatorColumn->m_value._codewords[idx].m_value._endX = codeword->m_value._endX;
 784              		.loc 1 184 80
 785 055c 8B450C   		movl	12(%ebp), %eax
 786 055f 8B4808   		movl	8(%eax), %ecx
 787              		.loc 1 184 61
 788 0562 8B5D10   		movl	16(%ebp), %ebx
 789 0565 8B55F8   		movl	-8(%ebp), %edx
 790 0568 89D0     		movl	%edx, %eax
 791 056a 01C0     		addl	%eax, %eax
 792 056c 01D0     		addl	%edx, %eax
 793 056e C1E003   		sall	$3, %eax
 794 0571 01D8     		addl	%ebx, %eax
 795 0573 83C058   		addl	$88, %eax
 796 0576 8908     		movl	%ecx, (%eax)
 185:src/pdf417/PDFScanningDecoder.c **** 		RowIndicatorColumn->m_value._codewords[idx].m_value._rowNumber = codeword->m_value._rowNumber;
 797              		.loc 1 185 85
 798 0578 8B450C   		movl	12(%ebp), %eax
 799 057b 8B4814   		movl	20(%eax), %ecx
 800              		.loc 1 185 66
 801 057e 8B5D10   		movl	16(%ebp), %ebx
 802 0581 8B55F8   		movl	-8(%ebp), %edx
 803 0584 89D0     		movl	%edx, %eax
 804 0586 01C0     		addl	%eax, %eax
 805 0588 01D0     		addl	%edx, %eax
 806 058a C1E003   		sall	$3, %eax
 807 058d 01D8     		addl	%ebx, %eax
 808 058f 83C064   		addl	$100, %eax
 809 0592 8908     		movl	%ecx, (%eax)
 186:src/pdf417/PDFScanningDecoder.c **** 		RowIndicatorColumn->m_value._codewords[idx].m_value._startX = codeword->m_value._startX;
GAS LISTING C:\Users\jisu8\AppData\Local\Temp\ccX0Ht2c.s 			page 20


 810              		.loc 1 186 82
 811 0594 8B450C   		movl	12(%ebp), %eax
 812 0597 8B4804   		movl	4(%eax), %ecx
 813              		.loc 1 186 63
 814 059a 8B5D10   		movl	16(%ebp), %ebx
 815 059d 8B55F8   		movl	-8(%ebp), %edx
 816 05a0 89D0     		movl	%edx, %eax
 817 05a2 01C0     		addl	%eax, %eax
 818 05a4 01D0     		addl	%edx, %eax
 819 05a6 C1E003   		sall	$3, %eax
 820 05a9 01D8     		addl	%ebx, %eax
 821 05ab 83C054   		addl	$84, %eax
 822 05ae 8908     		movl	%ecx, (%eax)
 187:src/pdf417/PDFScanningDecoder.c **** 		RowIndicatorColumn->m_value._codewords[idx].m_value._value = codeword->m_value._value;
 823              		.loc 1 187 81
 824 05b0 8B450C   		movl	12(%ebp), %eax
 825 05b3 8B4810   		movl	16(%eax), %ecx
 826              		.loc 1 187 62
 827 05b6 8B5D10   		movl	16(%ebp), %ebx
 828 05b9 8B55F8   		movl	-8(%ebp), %edx
 829 05bc 89D0     		movl	%edx, %eax
 830 05be 01C0     		addl	%eax, %eax
 831 05c0 01D0     		addl	%edx, %eax
 832 05c2 C1E003   		sall	$3, %eax
 833 05c5 01D8     		addl	%ebx, %eax
 834 05c7 83C060   		addl	$96, %eax
 835 05ca 8908     		movl	%ecx, (%eax)
 188:src/pdf417/PDFScanningDecoder.c **** 	}
 189:src/pdf417/PDFScanningDecoder.c **** 	else
 190:src/pdf417/PDFScanningDecoder.c **** 	{
 191:src/pdf417/PDFScanningDecoder.c **** 		RowIndicatorColumn->m_value._codewords[idx].m_hasValue = 0;
 192:src/pdf417/PDFScanningDecoder.c **** 		RowIndicatorColumn->m_value._codewords[idx].m_value._bucket = 0;
 193:src/pdf417/PDFScanningDecoder.c **** 		RowIndicatorColumn->m_value._codewords[idx].m_value._endX = 0;
 194:src/pdf417/PDFScanningDecoder.c **** 		RowIndicatorColumn->m_value._codewords[idx].m_value._rowNumber = 0;
 195:src/pdf417/PDFScanningDecoder.c **** 		RowIndicatorColumn->m_value._codewords[idx].m_value._startX = 0;
 196:src/pdf417/PDFScanningDecoder.c **** 		RowIndicatorColumn->m_value._codewords[idx].m_value._value = 0;
 197:src/pdf417/PDFScanningDecoder.c **** 	}
 198:src/pdf417/PDFScanningDecoder.c **** }
 836              		.loc 1 198 1
 837 05cc E9990000 		jmp	L56
 837      00
 838              	L54:
 191:src/pdf417/PDFScanningDecoder.c **** 		RowIndicatorColumn->m_value._codewords[idx].m_value._bucket = 0;
 839              		.loc 1 191 58
 840 05d1 8B4D10   		movl	16(%ebp), %ecx
 841 05d4 8B55F8   		movl	-8(%ebp), %edx
 842 05d7 89D0     		movl	%edx, %eax
 843 05d9 01C0     		addl	%eax, %eax
 844 05db 01D0     		addl	%edx, %eax
 845 05dd C1E003   		sall	$3, %eax
 846 05e0 01C8     		addl	%ecx, %eax
 847 05e2 83C050   		addl	$80, %eax
 848 05e5 C60000   		movb	$0, (%eax)
 192:src/pdf417/PDFScanningDecoder.c **** 		RowIndicatorColumn->m_value._codewords[idx].m_value._endX = 0;
 849              		.loc 1 192 63
 850 05e8 8B4D10   		movl	16(%ebp), %ecx
 851 05eb 8B55F8   		movl	-8(%ebp), %edx
GAS LISTING C:\Users\jisu8\AppData\Local\Temp\ccX0Ht2c.s 			page 21


 852 05ee 89D0     		movl	%edx, %eax
 853 05f0 01C0     		addl	%eax, %eax
 854 05f2 01D0     		addl	%edx, %eax
 855 05f4 C1E003   		sall	$3, %eax
 856 05f7 01C8     		addl	%ecx, %eax
 857 05f9 83C05C   		addl	$92, %eax
 858 05fc C7000000 		movl	$0, (%eax)
 858      0000
 193:src/pdf417/PDFScanningDecoder.c **** 		RowIndicatorColumn->m_value._codewords[idx].m_value._rowNumber = 0;
 859              		.loc 1 193 61
 860 0602 8B4D10   		movl	16(%ebp), %ecx
 861 0605 8B55F8   		movl	-8(%ebp), %edx
 862 0608 89D0     		movl	%edx, %eax
 863 060a 01C0     		addl	%eax, %eax
 864 060c 01D0     		addl	%edx, %eax
 865 060e C1E003   		sall	$3, %eax
 866 0611 01C8     		addl	%ecx, %eax
 867 0613 83C058   		addl	$88, %eax
 868 0616 C7000000 		movl	$0, (%eax)
 868      0000
 194:src/pdf417/PDFScanningDecoder.c **** 		RowIndicatorColumn->m_value._codewords[idx].m_value._startX = 0;
 869              		.loc 1 194 66
 870 061c 8B4D10   		movl	16(%ebp), %ecx
 871 061f 8B55F8   		movl	-8(%ebp), %edx
 872 0622 89D0     		movl	%edx, %eax
 873 0624 01C0     		addl	%eax, %eax
 874 0626 01D0     		addl	%edx, %eax
 875 0628 C1E003   		sall	$3, %eax
 876 062b 01C8     		addl	%ecx, %eax
 877 062d 83C064   		addl	$100, %eax
 878 0630 C7000000 		movl	$0, (%eax)
 878      0000
 195:src/pdf417/PDFScanningDecoder.c **** 		RowIndicatorColumn->m_value._codewords[idx].m_value._value = 0;
 879              		.loc 1 195 63
 880 0636 8B4D10   		movl	16(%ebp), %ecx
 881 0639 8B55F8   		movl	-8(%ebp), %edx
 882 063c 89D0     		movl	%edx, %eax
 883 063e 01C0     		addl	%eax, %eax
 884 0640 01D0     		addl	%edx, %eax
 885 0642 C1E003   		sall	$3, %eax
 886 0645 01C8     		addl	%ecx, %eax
 887 0647 83C054   		addl	$84, %eax
 888 064a C7000000 		movl	$0, (%eax)
 888      0000
 196:src/pdf417/PDFScanningDecoder.c **** 	}
 889              		.loc 1 196 62
 890 0650 8B4D10   		movl	16(%ebp), %ecx
 891 0653 8B55F8   		movl	-8(%ebp), %edx
 892 0656 89D0     		movl	%edx, %eax
 893 0658 01C0     		addl	%eax, %eax
 894 065a 01D0     		addl	%edx, %eax
 895 065c C1E003   		sall	$3, %eax
 896 065f 01C8     		addl	%ecx, %eax
 897 0661 83C060   		addl	$96, %eax
 898 0664 C7000000 		movl	$0, (%eax)
 898      0000
 899              	L56:
GAS LISTING C:\Users\jisu8\AppData\Local\Temp\ccX0Ht2c.s 			page 22


 900              		.loc 1 198 1
 901 066a 90       		nop
 902 066b 83C414   		addl	$20, %esp
 903 066e 5B       		popl	%ebx
 904              		.cfi_restore 3
 905 066f 5D       		popl	%ebp
 906              	LCFI26:
 907              		.cfi_restore 5
 908              		.cfi_def_cfa 4, 4
 909 0670 C3       		ret
 910              		.cfi_endproc
 911              	LFE12:
 912              		.section .rdata,"dr"
 913              	LC4:
 914 0176 47657452 		.ascii "GetRowIndicatorColumn \0"
 914      6F77496E 
 914      64696361 
 914      746F7243 
 914      6F6C756D 
 915              		.text
 917              	_GetRowIndicatorColumn:
 918              	LFB13:
 199:src/pdf417/PDFScanningDecoder.c **** 
 200:src/pdf417/PDFScanningDecoder.c **** static int GetRowIndicatorColumn(const BitMatrix_t * image, const BoundingBox_t * boundingBox, cons
 201:src/pdf417/PDFScanningDecoder.c **** {
 919              		.loc 1 201 1
 920              		.cfi_startproc
 921 0671 55       		pushl	%ebp
 922              	LCFI27:
 923              		.cfi_def_cfa_offset 8
 924              		.cfi_offset 5, -8
 925 0672 89E5     		movl	%esp, %ebp
 926              	LCFI28:
 927              		.cfi_def_cfa_register 5
 928 0674 83EC58   		subl	$88, %esp
 929 0677 8B4514   		movl	20(%ebp), %eax
 930 067a 8845D4   		movb	%al, -44(%ebp)
 202:src/pdf417/PDFScanningDecoder.c **** 	int length = 0;
 931              		.loc 1 202 6
 932 067d C745F400 		movl	$0, -12(%ebp)
 932      000000
 203:src/pdf417/PDFScanningDecoder.c **** 	printf("GetRowIndicatorColumn \n");
 933              		.loc 1 203 2
 934 0684 C7042476 		movl	$LC4, (%esp)
 934      010000
 935 068b E8000000 		call	_puts
 935      00
 204:src/pdf417/PDFScanningDecoder.c **** 
 205:src/pdf417/PDFScanningDecoder.c **** 	DetectionResultColumn(boundingBox,leftToRight ? Left : Right,RowIndicatorColumn);
 936              		.loc 1 205 2
 937 0690 807DD400 		cmpb	$0, -44(%ebp)
 938 0694 7407     		je	L58
 939              		.loc 1 205 2 is_stmt 0 discriminator 1
 940 0696 BA010000 		movl	$1, %edx
 940      00
 941 069b EB05     		jmp	L59
 942              	L58:
GAS LISTING C:\Users\jisu8\AppData\Local\Temp\ccX0Ht2c.s 			page 23


 943              		.loc 1 205 2 discriminator 2
 944 069d BA020000 		movl	$2, %edx
 944      00
 945              	L59:
 946              		.loc 1 205 2 discriminator 4
 947 06a2 8B4520   		movl	32(%ebp), %eax
 948 06a5 89442408 		movl	%eax, 8(%esp)
 949 06a9 89542404 		movl	%edx, 4(%esp)
 950 06ad 8B450C   		movl	12(%ebp), %eax
 951 06b0 890424   		movl	%eax, (%esp)
 952 06b3 E8000000 		call	_DetectionResultColumn
 952      00
 953              	LBB4:
 206:src/pdf417/PDFScanningDecoder.c **** 
 207:src/pdf417/PDFScanningDecoder.c **** 	for (int i = 0; i < 2; i++) 
 954              		.loc 1 207 11 is_stmt 1 discriminator 4
 955 06b8 C745F000 		movl	$0, -16(%ebp)
 955      000000
 956              		.loc 1 207 2 discriminator 4
 957 06bf E9150100 		jmp	L60
 957      00
 958              	L70:
 959              	LBB5:
 208:src/pdf417/PDFScanningDecoder.c **** 	{
 209:src/pdf417/PDFScanningDecoder.c **** 		int increment = i == 0 ? 1 : -1;
 960              		.loc 1 209 30
 961 06c4 837DF000 		cmpl	$0, -16(%ebp)
 962 06c8 7507     		jne	L61
 963              		.loc 1 209 30 is_stmt 0 discriminator 1
 964 06ca B8010000 		movl	$1, %eax
 964      00
 965 06cf EB05     		jmp	L62
 966              	L61:
 967              		.loc 1 209 30 discriminator 2
 968 06d1 B8FFFFFF 		movl	$-1, %eax
 968      FF
 969              	L62:
 970              		.loc 1 209 7 is_stmt 1 discriminator 4
 971 06d6 8945E4   		movl	%eax, -28(%ebp)
 210:src/pdf417/PDFScanningDecoder.c **** 		int startColumn = (int)startPoint->m_value.x;
 972              		.loc 1 210 45 discriminator 4
 973 06d9 8B4510   		movl	16(%ebp), %eax
 974 06dc D94004   		flds	4(%eax)
 975              		.loc 1 210 7 discriminator 4
 976 06df D97DD6   		fnstcw	-42(%ebp)
 977 06e2 0FB745D6 		movzwl	-42(%ebp), %eax
 978 06e6 80CC0C   		orb	$12, %ah
 979 06e9 668945D2 		movw	%ax, -46(%ebp)
 980 06ed D96DD2   		fldcw	-46(%ebp)
 981 06f0 DB5DEC   		fistpl	-20(%ebp)
 982 06f3 D96DD6   		fldcw	-42(%ebp)
 983              	LBB6:
 211:src/pdf417/PDFScanningDecoder.c **** 		for (int imageRow = (int)startPoint->m_value.y; imageRow <= boundingBox->m_value._maxY && imageRo
 984              		.loc 1 211 47 discriminator 4
 985 06f6 8B4510   		movl	16(%ebp), %eax
 986 06f9 D94008   		flds	8(%eax)
 987              		.loc 1 211 12 discriminator 4
GAS LISTING C:\Users\jisu8\AppData\Local\Temp\ccX0Ht2c.s 			page 24


 988 06fc D96DD2   		fldcw	-46(%ebp)
 989 06ff DB5DE8   		fistpl	-24(%ebp)
 990 0702 D96DD6   		fldcw	-42(%ebp)
 991              		.loc 1 211 3 discriminator 4
 992 0705 E9B10000 		jmp	L63
 992      00
 993              	L69:
 994              	LBB7:
 212:src/pdf417/PDFScanningDecoder.c **** 		{
 213:src/pdf417/PDFScanningDecoder.c **** 			Codeword_t * codeword = DetectCodeword(image, 0, image->_width, leftToRight, startColumn, imageR
 995              		.loc 1 213 28
 996 070a 0FB655D4 		movzbl	-44(%ebp), %edx
 997 070e 8B4508   		movl	8(%ebp), %eax
 998 0711 8B00     		movl	(%eax), %eax
 999 0713 8B4D1C   		movl	28(%ebp), %ecx
 1000 0716 894C241C 		movl	%ecx, 28(%esp)
 1001 071a 8B4D18   		movl	24(%ebp), %ecx
 1002 071d 894C2418 		movl	%ecx, 24(%esp)
 1003 0721 8B4DE8   		movl	-24(%ebp), %ecx
 1004 0724 894C2414 		movl	%ecx, 20(%esp)
 1005 0728 8B4DEC   		movl	-20(%ebp), %ecx
 1006 072b 894C2410 		movl	%ecx, 16(%esp)
 1007 072f 8954240C 		movl	%edx, 12(%esp)
 1008 0733 89442408 		movl	%eax, 8(%esp)
 1009 0737 C7442404 		movl	$0, 4(%esp)
 1009      00000000 
 1010 073f 8B4508   		movl	8(%ebp), %eax
 1011 0742 890424   		movl	%eax, (%esp)
 1012 0745 E81AFCFF 		call	_DetectCodeword
 1012      FF
 1013 074a 8945E0   		movl	%eax, -32(%ebp)
 214:src/pdf417/PDFScanningDecoder.c **** 
 215:src/pdf417/PDFScanningDecoder.c **** 			if (codeword != NULL) 
 1014              		.loc 1 215 7
 1015 074d 837DE000 		cmpl	$0, -32(%ebp)
 1016 0751 743D     		je	L64
 216:src/pdf417/PDFScanningDecoder.c **** 			{
 217:src/pdf417/PDFScanningDecoder.c **** 				setCodeword(imageRow, codeword, RowIndicatorColumn,0);
 1017              		.loc 1 217 5
 1018 0753 C744240C 		movl	$0, 12(%esp)
 1018      00000000 
 1019 075b 8B4520   		movl	32(%ebp), %eax
 1020 075e 89442408 		movl	%eax, 8(%esp)
 1021 0762 8B45E0   		movl	-32(%ebp), %eax
 1022 0765 89442404 		movl	%eax, 4(%esp)
 1023 0769 8B45E8   		movl	-24(%ebp), %eax
 1024 076c 890424   		movl	%eax, (%esp)
 1025 076f E889FDFF 		call	_setCodeword
 1025      FF
 218:src/pdf417/PDFScanningDecoder.c **** 				if (leftToRight) 
 1026              		.loc 1 218 8
 1027 0774 807DD400 		cmpb	$0, -44(%ebp)
 1028 0778 740B     		je	L65
 219:src/pdf417/PDFScanningDecoder.c **** 				{
 220:src/pdf417/PDFScanningDecoder.c **** 					startColumn = codeword->m_value._startX;
 1029              		.loc 1 220 18
 1030 077a 8B45E0   		movl	-32(%ebp), %eax
GAS LISTING C:\Users\jisu8\AppData\Local\Temp\ccX0Ht2c.s 			page 25


 1031 077d 8B4004   		movl	4(%eax), %eax
 1032 0780 8945EC   		movl	%eax, -20(%ebp)
 1033 0783 EB2C     		jmp	L67
 1034              	L65:
 221:src/pdf417/PDFScanningDecoder.c **** 				}
 222:src/pdf417/PDFScanningDecoder.c **** 				else 
 223:src/pdf417/PDFScanningDecoder.c **** 				{
 224:src/pdf417/PDFScanningDecoder.c **** 					startColumn = codeword->m_value._endX;
 1035              		.loc 1 224 18
 1036 0785 8B45E0   		movl	-32(%ebp), %eax
 1037 0788 8B4008   		movl	8(%eax), %eax
 1038 078b 8945EC   		movl	%eax, -20(%ebp)
 1039 078e EB21     		jmp	L67
 1040              	L64:
 225:src/pdf417/PDFScanningDecoder.c **** 				}
 226:src/pdf417/PDFScanningDecoder.c **** 			}
 227:src/pdf417/PDFScanningDecoder.c **** 			else
 228:src/pdf417/PDFScanningDecoder.c **** 			{
 229:src/pdf417/PDFScanningDecoder.c **** 				setCodeword(imageRow, codeword, RowIndicatorColumn,1);
 1041              		.loc 1 229 5
 1042 0790 C744240C 		movl	$1, 12(%esp)
 1042      01000000 
 1043 0798 8B4520   		movl	32(%ebp), %eax
 1044 079b 89442408 		movl	%eax, 8(%esp)
 1045 079f 8B45E0   		movl	-32(%ebp), %eax
 1046 07a2 89442404 		movl	%eax, 4(%esp)
 1047 07a6 8B45E8   		movl	-24(%ebp), %eax
 1048 07a9 890424   		movl	%eax, (%esp)
 1049 07ac E84CFDFF 		call	_setCodeword
 1049      FF
 1050              	L67:
 230:src/pdf417/PDFScanningDecoder.c **** 			}
 231:src/pdf417/PDFScanningDecoder.c **** 			length++;
 1051              		.loc 1 231 10 discriminator 2
 1052 07b1 8345F401 		addl	$1, -12(%ebp)
 1053              	LBE7:
 211:src/pdf417/PDFScanningDecoder.c **** 		{
 1054              		.loc 1 211 142 discriminator 2
 1055 07b5 8B45E4   		movl	-28(%ebp), %eax
 1056 07b8 0145E8   		addl	%eax, -24(%ebp)
 1057              	L63:
 211:src/pdf417/PDFScanningDecoder.c **** 		{
 1058              		.loc 1 211 83 discriminator 1
 1059 07bb 8B450C   		movl	12(%ebp), %eax
 1060 07be 8B4048   		movl	72(%eax), %eax
 211:src/pdf417/PDFScanningDecoder.c **** 		{
 1061              		.loc 1 211 3 discriminator 1
 1062 07c1 3945E8   		cmpl	%eax, -24(%ebp)
 1063 07c4 7F0F     		jg	L68
 211:src/pdf417/PDFScanningDecoder.c **** 		{
 1064              		.loc 1 211 125 discriminator 3
 1065 07c6 8B450C   		movl	12(%ebp), %eax
 1066 07c9 8B4044   		movl	68(%eax), %eax
 211:src/pdf417/PDFScanningDecoder.c **** 		{
 1067              		.loc 1 211 90 discriminator 3
 1068 07cc 3945E8   		cmpl	%eax, -24(%ebp)
 1069 07cf 0F8D35FF 		jge	L69
GAS LISTING C:\Users\jisu8\AppData\Local\Temp\ccX0Ht2c.s 			page 26


 1069      FFFF
 1070              	L68:
 1071              	LBE6:
 1072              	LBE5:
 207:src/pdf417/PDFScanningDecoder.c **** 	{
 1073              		.loc 1 207 26 discriminator 2
 1074 07d5 8345F001 		addl	$1, -16(%ebp)
 1075              	L60:
 207:src/pdf417/PDFScanningDecoder.c **** 	{
 1076              		.loc 1 207 2 discriminator 1
 1077 07d9 837DF001 		cmpl	$1, -16(%ebp)
 1078 07dd 0F8EE1FE 		jle	L70
 1078      FFFF
 1079              	LBE4:
 232:src/pdf417/PDFScanningDecoder.c **** 		}
 233:src/pdf417/PDFScanningDecoder.c **** 	}
 234:src/pdf417/PDFScanningDecoder.c **** 	return length-1;
 1080              		.loc 1 234 15
 1081 07e3 8B45F4   		movl	-12(%ebp), %eax
 1082 07e6 83E801   		subl	$1, %eax
 235:src/pdf417/PDFScanningDecoder.c **** }
 1083              		.loc 1 235 1
 1084 07e9 C9       		leave
 1085              	LCFI29:
 1086              		.cfi_restore 5
 1087              		.cfi_def_cfa 4, 4
 1088 07ea C3       		ret
 1089              		.cfi_endproc
 1090              	LFE13:
 1092              	_Metadata_Init:
 1093              	LFB14:
 236:src/pdf417/PDFScanningDecoder.c **** static void Metadata_Init(BarcodeMetadata_t * Metadata)
 237:src/pdf417/PDFScanningDecoder.c **** {
 1094              		.loc 1 237 1
 1095              		.cfi_startproc
 1096 07eb 55       		pushl	%ebp
 1097              	LCFI30:
 1098              		.cfi_def_cfa_offset 8
 1099              		.cfi_offset 5, -8
 1100 07ec 89E5     		movl	%esp, %ebp
 1101              	LCFI31:
 1102              		.cfi_def_cfa_register 5
 238:src/pdf417/PDFScanningDecoder.c **** 	Metadata->_columnCount = 0;
 1103              		.loc 1 238 25
 1104 07ee 8B4508   		movl	8(%ebp), %eax
 1105 07f1 C7000000 		movl	$0, (%eax)
 1105      0000
 239:src/pdf417/PDFScanningDecoder.c **** 	Metadata->_errorCorrectionLevel = 0;
 1106              		.loc 1 239 34
 1107 07f7 8B4508   		movl	8(%ebp), %eax
 1108 07fa C7400400 		movl	$0, 4(%eax)
 1108      000000
 240:src/pdf417/PDFScanningDecoder.c **** 	Metadata->_rowCountUpperPart = 0;
 1109              		.loc 1 240 31
 1110 0801 8B4508   		movl	8(%ebp), %eax
 1111 0804 C7400800 		movl	$0, 8(%eax)
 1111      000000
GAS LISTING C:\Users\jisu8\AppData\Local\Temp\ccX0Ht2c.s 			page 27


 241:src/pdf417/PDFScanningDecoder.c **** 	Metadata->_rowCountLowerPart = 0;
 1112              		.loc 1 241 31
 1113 080b 8B4508   		movl	8(%ebp), %eax
 1114 080e C7400C00 		movl	$0, 12(%eax)
 1114      000000
 242:src/pdf417/PDFScanningDecoder.c **** }
 1115              		.loc 1 242 1
 1116 0815 90       		nop
 1117 0816 5D       		popl	%ebp
 1118              	LCFI32:
 1119              		.cfi_restore 5
 1120              		.cfi_def_cfa 4, 4
 1121 0817 C3       		ret
 1122              		.cfi_endproc
 1123              	LFE14:
 1124              		.globl	_columnCount
 1126              	_columnCount:
 1127              	LFB15:
 243:src/pdf417/PDFScanningDecoder.c **** int columnCount(BarcodeMetadata_t * Metadata)
 244:src/pdf417/PDFScanningDecoder.c **** {
 1128              		.loc 1 244 1
 1129              		.cfi_startproc
 1130 0818 55       		pushl	%ebp
 1131              	LCFI33:
 1132              		.cfi_def_cfa_offset 8
 1133              		.cfi_offset 5, -8
 1134 0819 89E5     		movl	%esp, %ebp
 1135              	LCFI34:
 1136              		.cfi_def_cfa_register 5
 245:src/pdf417/PDFScanningDecoder.c **** 	return (Metadata->_columnCount);
 1137              		.loc 1 245 18
 1138 081b 8B4508   		movl	8(%ebp), %eax
 1139 081e 8B00     		movl	(%eax), %eax
 246:src/pdf417/PDFScanningDecoder.c **** }
 1140              		.loc 1 246 1
 1141 0820 5D       		popl	%ebp
 1142              	LCFI35:
 1143              		.cfi_restore 5
 1144              		.cfi_def_cfa 4, 4
 1145 0821 C3       		ret
 1146              		.cfi_endproc
 1147              	LFE15:
 1149              	_errorCorrectionLevel:
 1150              	LFB16:
 247:src/pdf417/PDFScanningDecoder.c **** static int errorCorrectionLevel(BarcodeMetadata_t * Metadata)
 248:src/pdf417/PDFScanningDecoder.c **** {
 1151              		.loc 1 248 1
 1152              		.cfi_startproc
 1153 0822 55       		pushl	%ebp
 1154              	LCFI36:
 1155              		.cfi_def_cfa_offset 8
 1156              		.cfi_offset 5, -8
 1157 0823 89E5     		movl	%esp, %ebp
 1158              	LCFI37:
 1159              		.cfi_def_cfa_register 5
 249:src/pdf417/PDFScanningDecoder.c **** 	return (Metadata->_errorCorrectionLevel);
 1160              		.loc 1 249 18
GAS LISTING C:\Users\jisu8\AppData\Local\Temp\ccX0Ht2c.s 			page 28


 1161 0825 8B4508   		movl	8(%ebp), %eax
 1162 0828 8B4004   		movl	4(%eax), %eax
 250:src/pdf417/PDFScanningDecoder.c **** }
 1163              		.loc 1 250 1
 1164 082b 5D       		popl	%ebp
 1165              	LCFI38:
 1166              		.cfi_restore 5
 1167              		.cfi_def_cfa 4, 4
 1168 082c C3       		ret
 1169              		.cfi_endproc
 1170              	LFE16:
 1171              		.globl	_rowCount
 1173              	_rowCount:
 1174              	LFB17:
 251:src/pdf417/PDFScanningDecoder.c **** int rowCount(BarcodeMetadata_t * Metadata)
 252:src/pdf417/PDFScanningDecoder.c **** {
 1175              		.loc 1 252 1
 1176              		.cfi_startproc
 1177 082d 55       		pushl	%ebp
 1178              	LCFI39:
 1179              		.cfi_def_cfa_offset 8
 1180              		.cfi_offset 5, -8
 1181 082e 89E5     		movl	%esp, %ebp
 1182              	LCFI40:
 1183              		.cfi_def_cfa_register 5
 253:src/pdf417/PDFScanningDecoder.c **** 	return (Metadata->_rowCountUpperPart + Metadata->_rowCountLowerPart);
 1184              		.loc 1 253 18
 1185 0830 8B4508   		movl	8(%ebp), %eax
 1186 0833 8B5008   		movl	8(%eax), %edx
 1187              		.loc 1 253 49
 1188 0836 8B4508   		movl	8(%ebp), %eax
 1189 0839 8B400C   		movl	12(%eax), %eax
 1190              		.loc 1 253 39
 1191 083c 01D0     		addl	%edx, %eax
 254:src/pdf417/PDFScanningDecoder.c **** }
 1192              		.loc 1 254 1
 1193 083e 5D       		popl	%ebp
 1194              	LCFI41:
 1195              		.cfi_restore 5
 1196              		.cfi_def_cfa 4, 4
 1197 083f C3       		ret
 1198              		.cfi_endproc
 1199              	LFE17:
 1200              		.section .rdata,"dr"
 1201              	LC6:
 1202 018d 47657442 		.ascii "GetBarcodeMetadata \0"
 1202      6172636F 
 1202      64654D65 
 1202      74616461 
 1202      74612000 
 1203              		.text
 1205              	_GetBarcodeMetadata:
 1206              	LFB18:
 255:src/pdf417/PDFScanningDecoder.c **** static uint8_t GetBarcodeMetadata(DetectionResultColumn_t * leftRowIndicatorColumn, DetectionResult
 256:src/pdf417/PDFScanningDecoder.c **** {
 1207              		.loc 1 256 1
 1208              		.cfi_startproc
GAS LISTING C:\Users\jisu8\AppData\Local\Temp\ccX0Ht2c.s 			page 29


 1209 0840 55       		pushl	%ebp
 1210              	LCFI42:
 1211              		.cfi_def_cfa_offset 8
 1212              		.cfi_offset 5, -8
 1213 0841 89E5     		movl	%esp, %ebp
 1214              	LCFI43:
 1215              		.cfi_def_cfa_register 5
 1216 0843 53       		pushl	%ebx
 1217 0844 83EC34   		subl	$52, %esp
 1218              		.cfi_offset 3, -12
 257:src/pdf417/PDFScanningDecoder.c **** 	printf("GetBarcodeMetadata \n");
 1219              		.loc 1 257 2
 1220 0847 C704248D 		movl	$LC6, (%esp)
 1220      010000
 1221 084e E8000000 		call	_puts
 1221      00
 258:src/pdf417/PDFScanningDecoder.c **** 
 259:src/pdf417/PDFScanningDecoder.c **** 	BarcodeMetadata_t leftBarcodeMetadata;
 260:src/pdf417/PDFScanningDecoder.c **** 	Metadata_Init(&leftBarcodeMetadata);
 1222              		.loc 1 260 2
 1223 0853 8D45E8   		leal	-24(%ebp), %eax
 1224 0856 890424   		movl	%eax, (%esp)
 1225 0859 E88DFFFF 		call	_Metadata_Init
 1225      FF
 261:src/pdf417/PDFScanningDecoder.c **** 	if ((leftRowIndicatorColumn == NULL) || (!getBarcodeMetadata(leftRowIndicatorColumn,&leftBarcodeMe
 1226              		.loc 1 261 5
 1227 085e 837D0800 		cmpl	$0, 8(%ebp)
 1228 0862 741D     		je	L80
 1229              		.loc 1 261 44 discriminator 1
 1230 0864 8B4514   		movl	20(%ebp), %eax
 1231 0867 89442408 		movl	%eax, 8(%esp)
 1232 086b 8D45E8   		leal	-24(%ebp), %eax
 1233 086e 89442404 		movl	%eax, 4(%esp)
 1234 0872 8B4508   		movl	8(%ebp), %eax
 1235 0875 890424   		movl	%eax, (%esp)
 1236 0878 E8000000 		call	_getBarcodeMetadata
 1236      00
 1237              		.loc 1 261 39 discriminator 1
 1238 087d 84C0     		testb	%al, %al
 1239 087f 7537     		jne	L81
 1240              	L80:
 262:src/pdf417/PDFScanningDecoder.c **** 	{
 263:src/pdf417/PDFScanningDecoder.c **** 		return (rightRowIndicatorColumn != NULL) && (getBarcodeMetadata(rightRowIndicatorColumn,result,le
 1241              		.loc 1 263 44
 1242 0881 837D0C00 		cmpl	$0, 12(%ebp)
 1243 0885 7427     		je	L82
 1244              		.loc 1 263 48 discriminator 1
 1245 0887 8B4514   		movl	20(%ebp), %eax
 1246 088a 89442408 		movl	%eax, 8(%esp)
 1247 088e 8B4510   		movl	16(%ebp), %eax
 1248 0891 89442404 		movl	%eax, 4(%esp)
 1249 0895 8B450C   		movl	12(%ebp), %eax
 1250 0898 890424   		movl	%eax, (%esp)
 1251 089b E8000000 		call	_getBarcodeMetadata
 1251      00
 1252              		.loc 1 263 44 discriminator 1
 1253 08a0 84C0     		testb	%al, %al
GAS LISTING C:\Users\jisu8\AppData\Local\Temp\ccX0Ht2c.s 			page 30


 1254 08a2 740A     		je	L82
 1255              		.loc 1 263 44 is_stmt 0 discriminator 3
 1256 08a4 B8010000 		movl	$1, %eax
 1256      00
 1257 08a9 E9E80000 		jmp	L88
 1257      00
 1258              	L82:
 1259              		.loc 1 263 44 discriminator 4
 1260 08ae B8000000 		movl	$0, %eax
 1260      00
 1261 08b3 E9DE0000 		jmp	L88
 1261      00
 1262              	L81:
 264:src/pdf417/PDFScanningDecoder.c **** 	}
 265:src/pdf417/PDFScanningDecoder.c **** 
 266:src/pdf417/PDFScanningDecoder.c **** 	BarcodeMetadata_t rightBarcodeMetadata;
 267:src/pdf417/PDFScanningDecoder.c **** 	Metadata_Init(&rightBarcodeMetadata);
 1263              		.loc 1 267 2 is_stmt 1
 1264 08b8 8D45D8   		leal	-40(%ebp), %eax
 1265 08bb 890424   		movl	%eax, (%esp)
 1266 08be E828FFFF 		call	_Metadata_Init
 1266      FF
 268:src/pdf417/PDFScanningDecoder.c **** 	if ((rightRowIndicatorColumn == NULL) || (!getBarcodeMetadata(rightRowIndicatorColumn,&rightBarcod
 1267              		.loc 1 268 5
 1268 08c3 837D0C00 		cmpl	$0, 12(%ebp)
 1269 08c7 741D     		je	L85
 1270              		.loc 1 268 45 discriminator 1
 1271 08c9 8B4514   		movl	20(%ebp), %eax
 1272 08cc 89442408 		movl	%eax, 8(%esp)
 1273 08d0 8D45D8   		leal	-40(%ebp), %eax
 1274 08d3 89442404 		movl	%eax, 4(%esp)
 1275 08d7 8B450C   		movl	12(%ebp), %eax
 1276 08da 890424   		movl	%eax, (%esp)
 1277 08dd E8000000 		call	_getBarcodeMetadata
 1277      00
 1278              		.loc 1 268 40 discriminator 1
 1279 08e2 84C0     		testb	%al, %al
 1280 08e4 752D     		jne	L86
 1281              	L85:
 269:src/pdf417/PDFScanningDecoder.c **** 	{
 270:src/pdf417/PDFScanningDecoder.c **** 		result->_columnCount = leftBarcodeMetadata._columnCount;
 1282              		.loc 1 270 45
 1283 08e6 8B55E8   		movl	-24(%ebp), %edx
 1284              		.loc 1 270 24
 1285 08e9 8B4510   		movl	16(%ebp), %eax
 1286 08ec 8910     		movl	%edx, (%eax)
 271:src/pdf417/PDFScanningDecoder.c **** 		result->_errorCorrectionLevel = leftBarcodeMetadata._errorCorrectionLevel;
 1287              		.loc 1 271 54
 1288 08ee 8B55EC   		movl	-20(%ebp), %edx
 1289              		.loc 1 271 33
 1290 08f1 8B4510   		movl	16(%ebp), %eax
 1291 08f4 895004   		movl	%edx, 4(%eax)
 272:src/pdf417/PDFScanningDecoder.c **** 		result->_rowCountUpperPart = leftBarcodeMetadata._rowCountUpperPart;
 1292              		.loc 1 272 51
 1293 08f7 8B55F0   		movl	-16(%ebp), %edx
 1294              		.loc 1 272 30
 1295 08fa 8B4510   		movl	16(%ebp), %eax
GAS LISTING C:\Users\jisu8\AppData\Local\Temp\ccX0Ht2c.s 			page 31


 1296 08fd 895008   		movl	%edx, 8(%eax)
 273:src/pdf417/PDFScanningDecoder.c **** 		result->_rowCountLowerPart = leftBarcodeMetadata._rowCountLowerPart;
 1297              		.loc 1 273 51
 1298 0900 8B55F4   		movl	-12(%ebp), %edx
 1299              		.loc 1 273 30
 1300 0903 8B4510   		movl	16(%ebp), %eax
 1301 0906 89500C   		movl	%edx, 12(%eax)
 274:src/pdf417/PDFScanningDecoder.c **** 		return 1;
 1302              		.loc 1 274 10
 1303 0909 B8010000 		movl	$1, %eax
 1303      00
 1304 090e E9830000 		jmp	L88
 1304      00
 1305              	L86:
 275:src/pdf417/PDFScanningDecoder.c **** 	}
 276:src/pdf417/PDFScanningDecoder.c **** 
 277:src/pdf417/PDFScanningDecoder.c **** 	if (columnCount(&leftBarcodeMetadata) != columnCount(&rightBarcodeMetadata) &&
 1306              		.loc 1 277 6
 1307 0913 8D45E8   		leal	-24(%ebp), %eax
 1308 0916 890424   		movl	%eax, (%esp)
 1309 0919 E8FAFEFF 		call	_columnCount
 1309      FF
 1310 091e 89C3     		movl	%eax, %ebx
 1311              		.loc 1 277 43
 1312 0920 8D45D8   		leal	-40(%ebp), %eax
 1313 0923 890424   		movl	%eax, (%esp)
 1314 0926 E8EDFEFF 		call	_columnCount
 1314      FF
 1315              		.loc 1 277 5
 1316 092b 39C3     		cmpl	%eax, %ebx
 1317 092d 743F     		je	L87
 278:src/pdf417/PDFScanningDecoder.c **** 		errorCorrectionLevel(&leftBarcodeMetadata) != errorCorrectionLevel(&rightBarcodeMetadata) &&
 1318              		.loc 1 278 3 discriminator 1
 1319 092f 8D45E8   		leal	-24(%ebp), %eax
 1320 0932 890424   		movl	%eax, (%esp)
 1321 0935 E8E8FEFF 		call	_errorCorrectionLevel
 1321      FF
 1322 093a 89C3     		movl	%eax, %ebx
 1323              		.loc 1 278 49 discriminator 1
 1324 093c 8D45D8   		leal	-40(%ebp), %eax
 1325 093f 890424   		movl	%eax, (%esp)
 1326 0942 E8DBFEFF 		call	_errorCorrectionLevel
 1326      FF
 277:src/pdf417/PDFScanningDecoder.c **** 		errorCorrectionLevel(&leftBarcodeMetadata) != errorCorrectionLevel(&rightBarcodeMetadata) &&
 1327              		.loc 1 277 78 discriminator 1
 1328 0947 39C3     		cmpl	%eax, %ebx
 1329 0949 7423     		je	L87
 279:src/pdf417/PDFScanningDecoder.c **** 		rowCount(&leftBarcodeMetadata) != rowCount(&rightBarcodeMetadata)) 
 1330              		.loc 1 279 3
 1331 094b 8D45E8   		leal	-24(%ebp), %eax
 1332 094e 890424   		movl	%eax, (%esp)
 1333 0951 E8D7FEFF 		call	_rowCount
 1333      FF
 1334 0956 89C3     		movl	%eax, %ebx
 1335              		.loc 1 279 37
 1336 0958 8D45D8   		leal	-40(%ebp), %eax
 1337 095b 890424   		movl	%eax, (%esp)
GAS LISTING C:\Users\jisu8\AppData\Local\Temp\ccX0Ht2c.s 			page 32


 1338 095e E8CAFEFF 		call	_rowCount
 1338      FF
 278:src/pdf417/PDFScanningDecoder.c **** 		errorCorrectionLevel(&leftBarcodeMetadata) != errorCorrectionLevel(&rightBarcodeMetadata) &&
 1339              		.loc 1 278 93
 1340 0963 39C3     		cmpl	%eax, %ebx
 1341 0965 7407     		je	L87
 280:src/pdf417/PDFScanningDecoder.c **** 	{
 281:src/pdf417/PDFScanningDecoder.c **** 		return 0;
 1342              		.loc 1 281 10
 1343 0967 B8000000 		movl	$0, %eax
 1343      00
 1344 096c EB28     		jmp	L88
 1345              	L87:
 282:src/pdf417/PDFScanningDecoder.c **** 	}
 283:src/pdf417/PDFScanningDecoder.c **** 	result->_columnCount = leftBarcodeMetadata._columnCount;
 1346              		.loc 1 283 44
 1347 096e 8B55E8   		movl	-24(%ebp), %edx
 1348              		.loc 1 283 23
 1349 0971 8B4510   		movl	16(%ebp), %eax
 1350 0974 8910     		movl	%edx, (%eax)
 284:src/pdf417/PDFScanningDecoder.c **** 	result->_errorCorrectionLevel = leftBarcodeMetadata._errorCorrectionLevel;
 1351              		.loc 1 284 53
 1352 0976 8B55EC   		movl	-20(%ebp), %edx
 1353              		.loc 1 284 32
 1354 0979 8B4510   		movl	16(%ebp), %eax
 1355 097c 895004   		movl	%edx, 4(%eax)
 285:src/pdf417/PDFScanningDecoder.c **** 	result->_rowCountUpperPart = leftBarcodeMetadata._rowCountUpperPart;
 1356              		.loc 1 285 50
 1357 097f 8B55F0   		movl	-16(%ebp), %edx
 1358              		.loc 1 285 29
 1359 0982 8B4510   		movl	16(%ebp), %eax
 1360 0985 895008   		movl	%edx, 8(%eax)
 286:src/pdf417/PDFScanningDecoder.c **** 	result->_rowCountLowerPart = leftBarcodeMetadata._rowCountLowerPart;
 1361              		.loc 1 286 50
 1362 0988 8B55F4   		movl	-12(%ebp), %edx
 1363              		.loc 1 286 29
 1364 098b 8B4510   		movl	16(%ebp), %eax
 1365 098e 89500C   		movl	%edx, 12(%eax)
 287:src/pdf417/PDFScanningDecoder.c **** 	return 1;
 1366              		.loc 1 287 9
 1367 0991 B8010000 		movl	$1, %eax
 1367      00
 1368              	L88:
 288:src/pdf417/PDFScanningDecoder.c **** }
 1369              		.loc 1 288 1 discriminator 1
 1370 0996 83C434   		addl	$52, %esp
 1371 0999 5B       		popl	%ebx
 1372              		.cfi_restore 3
 1373 099a 5D       		popl	%ebp
 1374              	LCFI44:
 1375              		.cfi_restore 5
 1376              		.cfi_def_cfa 4, 4
 1377 099b C3       		ret
 1378              		.cfi_endproc
 1379              	LFE18:
 1381              	_GetMax:
 1382              	LFB19:
GAS LISTING C:\Users\jisu8\AppData\Local\Temp\ccX0Ht2c.s 			page 33


 289:src/pdf417/PDFScanningDecoder.c **** 
 290:src/pdf417/PDFScanningDecoder.c **** #if 0
 291:src/pdf417/PDFScanningDecoder.c **** template <typename Iter>
 292:src/pdf417/PDFScanningDecoder.c **** static auto GetMax(Iter start, Iter end) -> typename std::remove_reference<decltype(*start)>::type
 293:src/pdf417/PDFScanningDecoder.c **** {
 294:src/pdf417/PDFScanningDecoder.c **** 	auto it = std::max_element(start, end);
 295:src/pdf417/PDFScanningDecoder.c **** 	return it != end ? *it : -1;
 296:src/pdf417/PDFScanningDecoder.c **** }
 297:src/pdf417/PDFScanningDecoder.c **** 
 298:src/pdf417/PDFScanningDecoder.c **** #endif
 299:src/pdf417/PDFScanningDecoder.c **** static int GetMax(int * buffer, int length)
 300:src/pdf417/PDFScanningDecoder.c **** {
 1383              		.loc 1 300 1
 1384              		.cfi_startproc
 1385 099c 55       		pushl	%ebp
 1386              	LCFI45:
 1387              		.cfi_def_cfa_offset 8
 1388              		.cfi_offset 5, -8
 1389 099d 89E5     		movl	%esp, %ebp
 1390              	LCFI46:
 1391              		.cfi_def_cfa_register 5
 1392 099f 83EC10   		subl	$16, %esp
 301:src/pdf417/PDFScanningDecoder.c **** 	int ret_max = 0;
 1393              		.loc 1 301 6
 1394 09a2 C745FC00 		movl	$0, -4(%ebp)
 1394      000000
 1395              	LBB8:
 302:src/pdf417/PDFScanningDecoder.c **** 
 303:src/pdf417/PDFScanningDecoder.c **** 	for(int i=0;i<length;i++)
 1396              		.loc 1 303 10
 1397 09a9 C745F800 		movl	$0, -8(%ebp)
 1397      000000
 1398              		.loc 1 303 2
 1399 09b0 EB2E     		jmp	L90
 1400              	L92:
 304:src/pdf417/PDFScanningDecoder.c **** 	{
 305:src/pdf417/PDFScanningDecoder.c **** 		if(buffer[i]>ret_max)
 1401              		.loc 1 305 12
 1402 09b2 8B45F8   		movl	-8(%ebp), %eax
 1403 09b5 8D148500 		leal	0(,%eax,4), %edx
 1403      000000
 1404 09bc 8B4508   		movl	8(%ebp), %eax
 1405 09bf 01D0     		addl	%edx, %eax
 1406 09c1 8B00     		movl	(%eax), %eax
 1407              		.loc 1 305 5
 1408 09c3 3945FC   		cmpl	%eax, -4(%ebp)
 1409 09c6 7D14     		jge	L91
 306:src/pdf417/PDFScanningDecoder.c **** 		{
 307:src/pdf417/PDFScanningDecoder.c **** 			ret_max = buffer[i];
 1410              		.loc 1 307 20
 1411 09c8 8B45F8   		movl	-8(%ebp), %eax
 1412 09cb 8D148500 		leal	0(,%eax,4), %edx
 1412      000000
 1413 09d2 8B4508   		movl	8(%ebp), %eax
 1414 09d5 01D0     		addl	%edx, %eax
 1415              		.loc 1 307 12
 1416 09d7 8B00     		movl	(%eax), %eax
GAS LISTING C:\Users\jisu8\AppData\Local\Temp\ccX0Ht2c.s 			page 34


 1417 09d9 8945FC   		movl	%eax, -4(%ebp)
 1418              	L91:
 303:src/pdf417/PDFScanningDecoder.c **** 	{
 1419              		.loc 1 303 24 discriminator 2
 1420 09dc 8345F801 		addl	$1, -8(%ebp)
 1421              	L90:
 303:src/pdf417/PDFScanningDecoder.c **** 	{
 1422              		.loc 1 303 2 discriminator 1
 1423 09e0 8B45F8   		movl	-8(%ebp), %eax
 1424 09e3 3B450C   		cmpl	12(%ebp), %eax
 1425 09e6 7CCA     		jl	L92
 1426              	LBE8:
 308:src/pdf417/PDFScanningDecoder.c **** 		}
 309:src/pdf417/PDFScanningDecoder.c **** 	}
 310:src/pdf417/PDFScanningDecoder.c **** 
 311:src/pdf417/PDFScanningDecoder.c **** 	return ret_max;
 1427              		.loc 1 311 9
 1428 09e8 8B45FC   		movl	-4(%ebp), %eax
 312:src/pdf417/PDFScanningDecoder.c **** }
 1429              		.loc 1 312 1
 1430 09eb C9       		leave
 1431              	LCFI47:
 1432              		.cfi_restore 5
 1433              		.cfi_def_cfa 4, 4
 1434 09ec C3       		ret
 1435              		.cfi_endproc
 1436              	LFE19:
 1437              		.section .rdata,"dr"
 1438              	LC7:
 1439 01a1 41646A75 		.ascii "AdjustBoundingBox \0"
 1439      7374426F 
 1439      756E6469 
 1439      6E67426F 
 1439      782000
 1440              		.text
 1442              	_AdjustBoundingBox:
 1443              	LFB20:
 313:src/pdf417/PDFScanningDecoder.c **** static uint8_t AdjustBoundingBox(DetectionResultColumn_t * rowIndicatorColumn, BoundingBox_t * resu
 314:src/pdf417/PDFScanningDecoder.c **** {
 1444              		.loc 1 314 1
 1445              		.cfi_startproc
 1446 09ed 55       		pushl	%ebp
 1447              	LCFI48:
 1448              		.cfi_def_cfa_offset 8
 1449              		.cfi_offset 5, -8
 1450 09ee 89E5     		movl	%esp, %ebp
 1451              	LCFI49:
 1452              		.cfi_def_cfa_register 5
 1453 09f0 57       		pushl	%edi
 1454 09f1 56       		pushl	%esi
 1455 09f2 81EC7002 		subl	$624, %esp
 1455      0000
 1456              		.cfi_offset 7, -12
 1457              		.cfi_offset 6, -16
 315:src/pdf417/PDFScanningDecoder.c **** 	printf("AdjustBoundingBox \n");
 1458              		.loc 1 315 2
 1459 09f8 C70424A1 		movl	$LC7, (%esp)
GAS LISTING C:\Users\jisu8\AppData\Local\Temp\ccX0Ht2c.s 			page 35


 1459      010000
 1460 09ff E8000000 		call	_puts
 1460      00
 316:src/pdf417/PDFScanningDecoder.c **** 	
 317:src/pdf417/PDFScanningDecoder.c **** 	if (rowIndicatorColumn->m_hasValue == 0)
 1461              		.loc 1 317 24
 1462 0a04 8B4508   		movl	8(%ebp), %eax
 1463 0a07 0FB600   		movzbl	(%eax), %eax
 1464              		.loc 1 317 5
 1465 0a0a 84C0     		testb	%al, %al
 1466 0a0c 7510     		jne	L95
 318:src/pdf417/PDFScanningDecoder.c **** 	{
 319:src/pdf417/PDFScanningDecoder.c **** 		result->m_hasValue = 0;
 1467              		.loc 1 319 22
 1468 0a0e 8B450C   		movl	12(%ebp), %eax
 1469 0a11 C60000   		movb	$0, (%eax)
 320:src/pdf417/PDFScanningDecoder.c **** 		return 1;
 1470              		.loc 1 320 10
 1471 0a14 B8010000 		movl	$1, %eax
 1471      00
 1472 0a19 E9C90100 		jmp	L113
 1472      00
 1473              	L95:
 321:src/pdf417/PDFScanningDecoder.c **** 	}
 322:src/pdf417/PDFScanningDecoder.c **** 
 323:src/pdf417/PDFScanningDecoder.c **** 	int rowHeights[100];
 324:src/pdf417/PDFScanningDecoder.c **** 	int size = 0;
 1474              		.loc 1 324 6
 1475 0a1e C78544FE 		movl	$0, -444(%ebp)
 1475      FFFF0000 
 1475      0000
 325:src/pdf417/PDFScanningDecoder.c **** 	if (!getRowHeights(rowIndicatorColumn,&rowHeights,length,&size)) 
 1476              		.loc 1 325 7
 1477 0a28 8D8544FE 		leal	-444(%ebp), %eax
 1477      FFFF
 1478 0a2e 8944240C 		movl	%eax, 12(%esp)
 1479 0a32 8B4510   		movl	16(%ebp), %eax
 1480 0a35 89442408 		movl	%eax, 8(%esp)
 1481 0a39 8D8548FE 		leal	-440(%ebp), %eax
 1481      FFFF
 1482 0a3f 89442404 		movl	%eax, 4(%esp)
 1483 0a43 8B4508   		movl	8(%ebp), %eax
 1484 0a46 890424   		movl	%eax, (%esp)
 1485 0a49 E8000000 		call	_getRowHeights
 1485      00
 1486              		.loc 1 325 5
 1487 0a4e 84C0     		testb	%al, %al
 1488 0a50 7511     		jne	L97
 326:src/pdf417/PDFScanningDecoder.c **** 	{
 327:src/pdf417/PDFScanningDecoder.c **** 		result = NULL;
 1489              		.loc 1 327 10
 1490 0a52 C7450C00 		movl	$0, 12(%ebp)
 1490      000000
 328:src/pdf417/PDFScanningDecoder.c **** 		return 1;
 1491              		.loc 1 328 10
 1492 0a59 B8010000 		movl	$1, %eax
 1492      00
GAS LISTING C:\Users\jisu8\AppData\Local\Temp\ccX0Ht2c.s 			page 36


 1493 0a5e E9840100 		jmp	L113
 1493      00
 1494              	L97:
 329:src/pdf417/PDFScanningDecoder.c **** 	}
 330:src/pdf417/PDFScanningDecoder.c **** 
 331:src/pdf417/PDFScanningDecoder.c **** 	int maxRowHeight = GetMax(rowHeights,size);
 1495              		.loc 1 331 21
 1496 0a63 8B8544FE 		movl	-444(%ebp), %eax
 1496      FFFF
 1497 0a69 89442404 		movl	%eax, 4(%esp)
 1498 0a6d 8D8548FE 		leal	-440(%ebp), %eax
 1498      FFFF
 1499 0a73 890424   		movl	%eax, (%esp)
 1500 0a76 E821FFFF 		call	_GetMax
 1500      FF
 1501 0a7b 8945DC   		movl	%eax, -36(%ebp)
 332:src/pdf417/PDFScanningDecoder.c **** 	int missingStartRows = 0;
 1502              		.loc 1 332 6
 1503 0a7e C745F400 		movl	$0, -12(%ebp)
 1503      000000
 1504              	LBB9:
 333:src/pdf417/PDFScanningDecoder.c **** 	for (int i=0;i<size;i++) 
 1505              		.loc 1 333 11
 1506 0a85 C745F000 		movl	$0, -16(%ebp)
 1506      000000
 1507              		.loc 1 333 2
 1508 0a8c EB26     		jmp	L98
 1509              	L101:
 334:src/pdf417/PDFScanningDecoder.c **** 	{
 335:src/pdf417/PDFScanningDecoder.c **** 		missingStartRows += maxRowHeight - rowHeights[i];
 1510              		.loc 1 335 48
 1511 0a8e 8B45F0   		movl	-16(%ebp), %eax
 1512 0a91 8B848548 		movl	-440(%ebp,%eax,4), %eax
 1512      FEFFFF
 1513              		.loc 1 335 36
 1514 0a98 8B55DC   		movl	-36(%ebp), %edx
 1515 0a9b 29C2     		subl	%eax, %edx
 1516 0a9d 89D0     		movl	%edx, %eax
 1517              		.loc 1 335 20
 1518 0a9f 0145F4   		addl	%eax, -12(%ebp)
 336:src/pdf417/PDFScanningDecoder.c **** 		if (rowHeights[i] > 0) 
 1519              		.loc 1 336 17
 1520 0aa2 8B45F0   		movl	-16(%ebp), %eax
 1521 0aa5 8B848548 		movl	-440(%ebp,%eax,4), %eax
 1521      FEFFFF
 1522              		.loc 1 336 6
 1523 0aac 85C0     		testl	%eax, %eax
 1524 0aae 7F11     		jg	L114
 333:src/pdf417/PDFScanningDecoder.c **** 	for (int i=0;i<size;i++) 
 1525              		.loc 1 333 23 discriminator 2
 1526 0ab0 8345F001 		addl	$1, -16(%ebp)
 1527              	L98:
 333:src/pdf417/PDFScanningDecoder.c **** 	for (int i=0;i<size;i++) 
 1528              		.loc 1 333 16 discriminator 1
 1529 0ab4 8B8544FE 		movl	-444(%ebp), %eax
 1529      FFFF
 333:src/pdf417/PDFScanningDecoder.c **** 	for (int i=0;i<size;i++) 
GAS LISTING C:\Users\jisu8\AppData\Local\Temp\ccX0Ht2c.s 			page 37


 1530              		.loc 1 333 2 discriminator 1
 1531 0aba 3945F0   		cmpl	%eax, -16(%ebp)
 1532 0abd 7CCF     		jl	L101
 1533 0abf EB01     		jmp	L100
 1534              	L114:
 337:src/pdf417/PDFScanningDecoder.c **** 		{
 338:src/pdf417/PDFScanningDecoder.c **** 			break;
 1535              		.loc 1 338 4
 1536 0ac1 90       		nop
 1537              	L100:
 1538              	LBE9:
 339:src/pdf417/PDFScanningDecoder.c **** 		}
 340:src/pdf417/PDFScanningDecoder.c **** 	}
 341:src/pdf417/PDFScanningDecoder.c **** 
 342:src/pdf417/PDFScanningDecoder.c **** 	Codeword_t * codewords = rowIndicatorColumn->m_value._codewords;
 1539              		.loc 1 342 15
 1540 0ac2 8B4508   		movl	8(%ebp), %eax
 1541 0ac5 83C050   		addl	$80, %eax
 1542 0ac8 8945D8   		movl	%eax, -40(%ebp)
 1543              	LBB10:
 343:src/pdf417/PDFScanningDecoder.c **** 	for (int row = 0; (missingStartRows > 0) && ((codewords+row)->m_hasValue == 0); row++) 
 1544              		.loc 1 343 11
 1545 0acb C745EC00 		movl	$0, -20(%ebp)
 1545      000000
 1546              		.loc 1 343 2
 1547 0ad2 EB08     		jmp	L102
 1548              	L104:
 344:src/pdf417/PDFScanningDecoder.c **** 	{
 345:src/pdf417/PDFScanningDecoder.c **** 		missingStartRows--;
 1549              		.loc 1 345 19 discriminator 4
 1550 0ad4 836DF401 		subl	$1, -12(%ebp)
 343:src/pdf417/PDFScanningDecoder.c **** 	for (int row = 0; (missingStartRows > 0) && ((codewords+row)->m_hasValue == 0); row++) 
 1551              		.loc 1 343 85 discriminator 4
 1552 0ad8 8345EC01 		addl	$1, -20(%ebp)
 1553              	L102:
 343:src/pdf417/PDFScanningDecoder.c **** 	for (int row = 0; (missingStartRows > 0) && ((codewords+row)->m_hasValue == 0); row++) 
 1554              		.loc 1 343 2 discriminator 1
 1555 0adc 837DF400 		cmpl	$0, -12(%ebp)
 1556 0ae0 7E1A     		jle	L103
 343:src/pdf417/PDFScanningDecoder.c **** 	for (int row = 0; (missingStartRows > 0) && ((codewords+row)->m_hasValue == 0); row++) 
 1557              		.loc 1 343 57 discriminator 3
 1558 0ae2 8B55EC   		movl	-20(%ebp), %edx
 1559 0ae5 89D0     		movl	%edx, %eax
 1560 0ae7 01C0     		addl	%eax, %eax
 1561 0ae9 01D0     		addl	%edx, %eax
 1562 0aeb C1E003   		sall	$3, %eax
 1563 0aee 89C2     		movl	%eax, %edx
 1564 0af0 8B45D8   		movl	-40(%ebp), %eax
 1565 0af3 01D0     		addl	%edx, %eax
 343:src/pdf417/PDFScanningDecoder.c **** 	for (int row = 0; (missingStartRows > 0) && ((codewords+row)->m_hasValue == 0); row++) 
 1566              		.loc 1 343 62 discriminator 3
 1567 0af5 0FB600   		movzbl	(%eax), %eax
 343:src/pdf417/PDFScanningDecoder.c **** 	for (int row = 0; (missingStartRows > 0) && ((codewords+row)->m_hasValue == 0); row++) 
 1568              		.loc 1 343 43 discriminator 3
 1569 0af8 84C0     		testb	%al, %al
 1570 0afa 74D8     		je	L104
 1571              	L103:
GAS LISTING C:\Users\jisu8\AppData\Local\Temp\ccX0Ht2c.s 			page 38


 1572              	LBE10:
 346:src/pdf417/PDFScanningDecoder.c **** 	}
 347:src/pdf417/PDFScanningDecoder.c **** 
 348:src/pdf417/PDFScanningDecoder.c **** 	int missingEndRows = 0;
 1573              		.loc 1 348 6
 1574 0afc C745E800 		movl	$0, -24(%ebp)
 1574      000000
 1575              	LBB11:
 349:src/pdf417/PDFScanningDecoder.c **** 	for (int row = size - 1; row >= 0; row--) 
 1576              		.loc 1 349 22
 1577 0b03 8B8544FE 		movl	-444(%ebp), %eax
 1577      FFFF
 1578              		.loc 1 349 11
 1579 0b09 83E801   		subl	$1, %eax
 1580 0b0c 8945E4   		movl	%eax, -28(%ebp)
 1581              		.loc 1 349 2
 1582 0b0f EB26     		jmp	L105
 1583              	L108:
 350:src/pdf417/PDFScanningDecoder.c **** 	{
 351:src/pdf417/PDFScanningDecoder.c **** 		missingEndRows += maxRowHeight - rowHeights[row];
 1584              		.loc 1 351 46
 1585 0b11 8B45E4   		movl	-28(%ebp), %eax
 1586 0b14 8B848548 		movl	-440(%ebp,%eax,4), %eax
 1586      FEFFFF
 1587              		.loc 1 351 34
 1588 0b1b 8B55DC   		movl	-36(%ebp), %edx
 1589 0b1e 29C2     		subl	%eax, %edx
 1590 0b20 89D0     		movl	%edx, %eax
 1591              		.loc 1 351 18
 1592 0b22 0145E8   		addl	%eax, -24(%ebp)
 352:src/pdf417/PDFScanningDecoder.c **** 		if (rowHeights[row] > 0) 
 1593              		.loc 1 352 17
 1594 0b25 8B45E4   		movl	-28(%ebp), %eax
 1595 0b28 8B848548 		movl	-440(%ebp,%eax,4), %eax
 1595      FEFFFF
 1596              		.loc 1 352 6
 1597 0b2f 85C0     		testl	%eax, %eax
 1598 0b31 7F0C     		jg	L115
 349:src/pdf417/PDFScanningDecoder.c **** 	for (int row = size - 1; row >= 0; row--) 
 1599              		.loc 1 349 40 discriminator 2
 1600 0b33 836DE401 		subl	$1, -28(%ebp)
 1601              	L105:
 349:src/pdf417/PDFScanningDecoder.c **** 	for (int row = size - 1; row >= 0; row--) 
 1602              		.loc 1 349 2 discriminator 1
 1603 0b37 837DE400 		cmpl	$0, -28(%ebp)
 1604 0b3b 79D4     		jns	L108
 1605 0b3d EB01     		jmp	L107
 1606              	L115:
 353:src/pdf417/PDFScanningDecoder.c **** 		{
 354:src/pdf417/PDFScanningDecoder.c **** 			break;
 1607              		.loc 1 354 4
 1608 0b3f 90       		nop
 1609              	L107:
 1610              	LBE11:
 1611              	LBB12:
 355:src/pdf417/PDFScanningDecoder.c **** 		}
 356:src/pdf417/PDFScanningDecoder.c **** 	}
GAS LISTING C:\Users\jisu8\AppData\Local\Temp\ccX0Ht2c.s 			page 39


 357:src/pdf417/PDFScanningDecoder.c **** 	for (int row = length - 1; missingEndRows > 0 && ((codewords+row)->m_hasValue == 0); row--) 
 1612              		.loc 1 357 11
 1613 0b40 8B4510   		movl	16(%ebp), %eax
 1614 0b43 83E801   		subl	$1, %eax
 1615 0b46 8945E0   		movl	%eax, -32(%ebp)
 1616              		.loc 1 357 2
 1617 0b49 EB08     		jmp	L109
 1618              	L111:
 358:src/pdf417/PDFScanningDecoder.c **** 	{
 359:src/pdf417/PDFScanningDecoder.c **** 		missingEndRows--;
 1619              		.loc 1 359 17 discriminator 4
 1620 0b4b 836DE801 		subl	$1, -24(%ebp)
 357:src/pdf417/PDFScanningDecoder.c **** 	{
 1621              		.loc 1 357 90 discriminator 4
 1622 0b4f 836DE001 		subl	$1, -32(%ebp)
 1623              	L109:
 357:src/pdf417/PDFScanningDecoder.c **** 	{
 1624              		.loc 1 357 2 discriminator 1
 1625 0b53 837DE800 		cmpl	$0, -24(%ebp)
 1626 0b57 7E1A     		jle	L110
 357:src/pdf417/PDFScanningDecoder.c **** 	{
 1627              		.loc 1 357 62 discriminator 3
 1628 0b59 8B55E0   		movl	-32(%ebp), %edx
 1629 0b5c 89D0     		movl	%edx, %eax
 1630 0b5e 01C0     		addl	%eax, %eax
 1631 0b60 01D0     		addl	%edx, %eax
 1632 0b62 C1E003   		sall	$3, %eax
 1633 0b65 89C2     		movl	%eax, %edx
 1634 0b67 8B45D8   		movl	-40(%ebp), %eax
 1635 0b6a 01D0     		addl	%edx, %eax
 357:src/pdf417/PDFScanningDecoder.c **** 	{
 1636              		.loc 1 357 67 discriminator 3
 1637 0b6c 0FB600   		movzbl	(%eax), %eax
 357:src/pdf417/PDFScanningDecoder.c **** 	{
 1638              		.loc 1 357 48 discriminator 3
 1639 0b6f 84C0     		testb	%al, %al
 1640 0b71 74D8     		je	L111
 1641              	L110:
 1642              	LBE12:
 360:src/pdf417/PDFScanningDecoder.c **** 	}
 361:src/pdf417/PDFScanningDecoder.c **** 	BoundingBox_t box;
 362:src/pdf417/PDFScanningDecoder.c **** 	BoundingBox_t boundingBox = rowIndicatorColumn->m_value._boundingBox;
 1643              		.loc 1 362 16
 1644 0b73 8B5508   		movl	8(%ebp), %edx
 1645 0b76 8D85ACFD 		leal	-596(%ebp), %eax
 1645      FFFF
 1646 0b7c 83C204   		addl	$4, %edx
 1647 0b7f B9130000 		movl	$19, %ecx
 1647      00
 1648 0b84 89C7     		movl	%eax, %edi
 1649 0b86 89D6     		movl	%edx, %esi
 1650 0b88 F3A5     		rep movsl
 1651              	LBB13:
 363:src/pdf417/PDFScanningDecoder.c **** 	if (AddMissingRows(&boundingBox, missingStartRows, missingEndRows, isLeftRowIndicator(rowIndicator
 1652              		.loc 1 363 69
 1653 0b8a 8B4508   		movl	8(%ebp), %eax
 1654 0b8d 890424   		movl	%eax, (%esp)
GAS LISTING C:\Users\jisu8\AppData\Local\Temp\ccX0Ht2c.s 			page 40


 1655 0b90 E8000000 		call	_isLeftRowIndicator
 1655      00
 1656              		.loc 1 363 6
 1657 0b95 0FB6C0   		movzbl	%al, %eax
 1658 0b98 8D95F8FD 		leal	-520(%ebp), %edx
 1658      FFFF
 1659 0b9e 89542410 		movl	%edx, 16(%esp)
 1660 0ba2 8944240C 		movl	%eax, 12(%esp)
 1661 0ba6 8B45E8   		movl	-24(%ebp), %eax
 1662 0ba9 89442408 		movl	%eax, 8(%esp)
 1663 0bad 8B45F4   		movl	-12(%ebp), %eax
 1664 0bb0 89442404 		movl	%eax, 4(%esp)
 1665 0bb4 8D85ACFD 		leal	-596(%ebp), %eax
 1665      FFFF
 1666 0bba 890424   		movl	%eax, (%esp)
 1667 0bbd E8000000 		call	_AddMissingRows
 1667      00
 1668              		.loc 1 363 5
 1669 0bc2 84C0     		testb	%al, %al
 1670 0bc4 741C     		je	L112
 364:src/pdf417/PDFScanningDecoder.c **** 	{
 365:src/pdf417/PDFScanningDecoder.c **** 		copy(&box,result);
 1671              		.loc 1 365 3
 1672 0bc6 8B450C   		movl	12(%ebp), %eax
 1673 0bc9 89442404 		movl	%eax, 4(%esp)
 1674 0bcd 8D85F8FD 		leal	-520(%ebp), %eax
 1674      FFFF
 1675 0bd3 890424   		movl	%eax, (%esp)
 1676 0bd6 E8000000 		call	_copy
 1676      00
 366:src/pdf417/PDFScanningDecoder.c **** 		return 1;
 1677              		.loc 1 366 10
 1678 0bdb B8010000 		movl	$1, %eax
 1678      00
 1679 0be0 EB05     		jmp	L113
 1680              	L112:
 1681              	LBE13:
 367:src/pdf417/PDFScanningDecoder.c **** 	}
 368:src/pdf417/PDFScanningDecoder.c **** 
 369:src/pdf417/PDFScanningDecoder.c **** 	return 0;
 1682              		.loc 1 369 9
 1683 0be2 B8000000 		movl	$0, %eax
 1683      00
 1684              	L113:
 370:src/pdf417/PDFScanningDecoder.c **** }
 1685              		.loc 1 370 1 discriminator 1
 1686 0be7 81C47002 		addl	$624, %esp
 1686      0000
 1687 0bed 5E       		popl	%esi
 1688              		.cfi_restore 6
 1689 0bee 5F       		popl	%edi
 1690              		.cfi_restore 7
 1691 0bef 5D       		popl	%ebp
 1692              	LCFI50:
 1693              		.cfi_restore 5
 1694              		.cfi_def_cfa 4, 4
 1695 0bf0 C3       		ret
GAS LISTING C:\Users\jisu8\AppData\Local\Temp\ccX0Ht2c.s 			page 41


 1696              		.cfi_endproc
 1697              	LFE20:
 1699              	_Merge:
 1700              	LFB21:
 371:src/pdf417/PDFScanningDecoder.c **** 
 372:src/pdf417/PDFScanningDecoder.c **** 
 373:src/pdf417/PDFScanningDecoder.c **** static uint8_t Merge(DetectionResultColumn_t * leftRowIndicatorColumn, DetectionResultColumn_t * ri
 374:src/pdf417/PDFScanningDecoder.c **** {
 1701              		.loc 1 374 1
 1702              		.cfi_startproc
 1703 0bf1 55       		pushl	%ebp
 1704              	LCFI51:
 1705              		.cfi_def_cfa_offset 8
 1706              		.cfi_offset 5, -8
 1707 0bf2 89E5     		movl	%esp, %ebp
 1708              	LCFI52:
 1709              		.cfi_def_cfa_register 5
 1710 0bf4 81EC1801 		subl	$280, %esp
 1710      0000
 375:src/pdf417/PDFScanningDecoder.c **** 	if (leftRowIndicatorColumn != NULL || rightRowIndicatorColumn != NULL) 
 1711              		.loc 1 375 5
 1712 0bfa 837D0800 		cmpl	$0, 8(%ebp)
 1713 0bfe 750A     		jne	L117
 1714              		.loc 1 375 37 discriminator 1
 1715 0c00 837D0C00 		cmpl	$0, 12(%ebp)
 1716 0c04 0F84B600 		je	L118
 1716      0000
 1717              	L117:
 1718              	LBB14:
 376:src/pdf417/PDFScanningDecoder.c **** 	{
 377:src/pdf417/PDFScanningDecoder.c **** 		BarcodeMetadata_t barcodeMetadata;
 378:src/pdf417/PDFScanningDecoder.c **** 		Metadata_Init(&barcodeMetadata);
 1719              		.loc 1 378 3
 1720 0c0a 8D45E8   		leal	-24(%ebp), %eax
 1721 0c0d 890424   		movl	%eax, (%esp)
 1722 0c10 E8D6FBFF 		call	_Metadata_Init
 1722      FF
 379:src/pdf417/PDFScanningDecoder.c **** 		if (GetBarcodeMetadata(leftRowIndicatorColumn, rightRowIndicatorColumn, &barcodeMetadata,length))
 1723              		.loc 1 379 7
 1724 0c15 8B4514   		movl	20(%ebp), %eax
 1725 0c18 8944240C 		movl	%eax, 12(%esp)
 1726 0c1c 8D45E8   		leal	-24(%ebp), %eax
 1727 0c1f 89442408 		movl	%eax, 8(%esp)
 1728 0c23 8B450C   		movl	12(%ebp), %eax
 1729 0c26 89442404 		movl	%eax, 4(%esp)
 1730 0c2a 8B4508   		movl	8(%ebp), %eax
 1731 0c2d 890424   		movl	%eax, (%esp)
 1732 0c30 E80BFCFF 		call	_GetBarcodeMetadata
 1732      FF
 1733              		.loc 1 379 6
 1734 0c35 84C0     		testb	%al, %al
 1735 0c37 0F848300 		je	L118
 1735      0000
 1736              	LBB15:
 380:src/pdf417/PDFScanningDecoder.c **** 		{
 381:src/pdf417/PDFScanningDecoder.c **** 			BoundingBox_t leftBox, rightBox, mergedBox;
 382:src/pdf417/PDFScanningDecoder.c **** 			if (AdjustBoundingBox(leftRowIndicatorColumn, &leftBox,length) && AdjustBoundingBox(rightRowIndi
GAS LISTING C:\Users\jisu8\AppData\Local\Temp\ccX0Ht2c.s 			page 42


 1737              		.loc 1 382 8
 1738 0c3d 8B4514   		movl	20(%ebp), %eax
 1739 0c40 89442408 		movl	%eax, 8(%esp)
 1740 0c44 8D8504FF 		leal	-252(%ebp), %eax
 1740      FFFF
 1741 0c4a 89442404 		movl	%eax, 4(%esp)
 1742 0c4e 8B4508   		movl	8(%ebp), %eax
 1743 0c51 890424   		movl	%eax, (%esp)
 1744 0c54 E894FDFF 		call	_AdjustBoundingBox
 1744      FF
 1745              		.loc 1 382 7
 1746 0c59 84C0     		testb	%al, %al
 1747 0c5b 7463     		je	L118
 1748              		.loc 1 382 70 discriminator 1
 1749 0c5d 8B4514   		movl	20(%ebp), %eax
 1750 0c60 89442408 		movl	%eax, 8(%esp)
 1751 0c64 8D8550FF 		leal	-176(%ebp), %eax
 1751      FFFF
 1752 0c6a 89442404 		movl	%eax, 4(%esp)
 1753 0c6e 8B450C   		movl	12(%ebp), %eax
 1754 0c71 890424   		movl	%eax, (%esp)
 1755 0c74 E874FDFF 		call	_AdjustBoundingBox
 1755      FF
 1756              		.loc 1 382 67 discriminator 1
 1757 0c79 84C0     		testb	%al, %al
 1758 0c7b 7443     		je	L118
 1759              		.loc 1 382 134 discriminator 2
 1760 0c7d 8D459C   		leal	-100(%ebp), %eax
 1761 0c80 89442408 		movl	%eax, 8(%esp)
 1762 0c84 8D8550FF 		leal	-176(%ebp), %eax
 1762      FFFF
 1763 0c8a 89442404 		movl	%eax, 4(%esp)
 1764 0c8e 8D8504FF 		leal	-252(%ebp), %eax
 1764      FFFF
 1765 0c94 890424   		movl	%eax, (%esp)
 1766 0c97 E8000000 		call	_Bounding_Merge
 1766      00
 1767              		.loc 1 382 131 discriminator 2
 1768 0c9c 84C0     		testb	%al, %al
 1769 0c9e 7420     		je	L118
 383:src/pdf417/PDFScanningDecoder.c **** 			{
 384:src/pdf417/PDFScanningDecoder.c **** 				Detection_Result_init(&barcodeMetadata, &mergedBox,result);
 1770              		.loc 1 384 5
 1771 0ca0 8B4510   		movl	16(%ebp), %eax
 1772 0ca3 89442408 		movl	%eax, 8(%esp)
 1773 0ca7 8D459C   		leal	-100(%ebp), %eax
 1774 0caa 89442404 		movl	%eax, 4(%esp)
 1775 0cae 8D45E8   		leal	-24(%ebp), %eax
 1776 0cb1 890424   		movl	%eax, (%esp)
 1777 0cb4 E8000000 		call	_Detection_Result_init
 1777      00
 385:src/pdf417/PDFScanningDecoder.c **** 				return 1;
 1778              		.loc 1 385 12
 1779 0cb9 B8010000 		movl	$1, %eax
 1779      00
 1780 0cbe EB05     		jmp	L121
 1781              	L118:
GAS LISTING C:\Users\jisu8\AppData\Local\Temp\ccX0Ht2c.s 			page 43


 1782              	LBE15:
 1783              	LBE14:
 386:src/pdf417/PDFScanningDecoder.c **** 			}
 387:src/pdf417/PDFScanningDecoder.c **** 		}
 388:src/pdf417/PDFScanningDecoder.c **** 	}
 389:src/pdf417/PDFScanningDecoder.c **** 	return 0;
 1784              		.loc 1 389 9
 1785 0cc0 B8000000 		movl	$0, %eax
 1785      00
 1786              	L121:
 390:src/pdf417/PDFScanningDecoder.c **** }
 1787              		.loc 1 390 1 discriminator 2
 1788 0cc5 C9       		leave
 1789              	LCFI53:
 1790              		.cfi_restore 5
 1791              		.cfi_def_cfa 4, 4
 1792 0cc6 C3       		ret
 1793              		.cfi_endproc
 1794              	LFE21:
 1796              	_IsValidBarcodeColumn:
 1797              	LFB22:
 391:src/pdf417/PDFScanningDecoder.c **** 
 392:src/pdf417/PDFScanningDecoder.c **** 
 393:src/pdf417/PDFScanningDecoder.c **** 
 394:src/pdf417/PDFScanningDecoder.c **** static uint8_t IsValidBarcodeColumn(const DetectionResult_t * detectionResult, int barcodeColumn)
 395:src/pdf417/PDFScanningDecoder.c **** {
 1798              		.loc 1 395 1
 1799              		.cfi_startproc
 1800 0cc7 55       		pushl	%ebp
 1801              	LCFI54:
 1802              		.cfi_def_cfa_offset 8
 1803              		.cfi_offset 5, -8
 1804 0cc8 89E5     		movl	%esp, %ebp
 1805              	LCFI55:
 1806              		.cfi_def_cfa_register 5
 396:src/pdf417/PDFScanningDecoder.c **** 	return barcodeColumn >= 0 && barcodeColumn <= detectionResult->_barcodeMetadata._columnCount + 1;
 1807              		.loc 1 396 28
 1808 0cca 837D0C00 		cmpl	$0, 12(%ebp)
 1809 0cce 7814     		js	L123
 1810              		.loc 1 396 81 discriminator 1
 1811 0cd0 8B4508   		movl	8(%ebp), %eax
 1812 0cd3 8B00     		movl	(%eax), %eax
 1813              		.loc 1 396 95 discriminator 1
 1814 0cd5 83C001   		addl	$1, %eax
 1815              		.loc 1 396 28 discriminator 1
 1816 0cd8 39450C   		cmpl	%eax, 12(%ebp)
 1817 0cdb 7F07     		jg	L123
 1818              		.loc 1 396 28 is_stmt 0 discriminator 3
 1819 0cdd B8010000 		movl	$1, %eax
 1819      00
 1820 0ce2 EB05     		jmp	L124
 1821              	L123:
 1822              		.loc 1 396 28 discriminator 4
 1823 0ce4 B8000000 		movl	$0, %eax
 1823      00
 1824              	L124:
 397:src/pdf417/PDFScanningDecoder.c **** }
GAS LISTING C:\Users\jisu8\AppData\Local\Temp\ccX0Ht2c.s 			page 44


 1825              		.loc 1 397 1 is_stmt 1 discriminator 6
 1826 0ce9 5D       		popl	%ebp
 1827              	LCFI56:
 1828              		.cfi_restore 5
 1829              		.cfi_def_cfa 4, 4
 1830 0cea C3       		ret
 1831              		.cfi_endproc
 1832              	LFE22:
 1833              		.section .rdata,"dr"
 1834              		.align 4
 1835              	LC8:
 1836 01b4 47657453 		.ascii "GetStartColumn barcodeColumn=%d, imageRow=%d, leftToRight=%d \12\0"
 1836      74617274 
 1836      436F6C75 
 1836      6D6E2062 
 1836      6172636F 
 1837 01f3 00       		.text
 1839              	_GetStartColumn:
 1840              	LFB23:
 398:src/pdf417/PDFScanningDecoder.c **** 
 399:src/pdf417/PDFScanningDecoder.c **** 
 400:src/pdf417/PDFScanningDecoder.c **** static int GetStartColumn(const DetectionResult_t * detectionResult, int barcodeColumn, int imageRo
 401:src/pdf417/PDFScanningDecoder.c **** {
 1841              		.loc 1 401 1
 1842              		.cfi_startproc
 1843 0ceb 55       		pushl	%ebp
 1844              	LCFI57:
 1845              		.cfi_def_cfa_offset 8
 1846              		.cfi_offset 5, -8
 1847 0cec 89E5     		movl	%esp, %ebp
 1848              	LCFI58:
 1849              		.cfi_def_cfa_register 5
 1850 0cee 56       		pushl	%esi
 1851 0cef 53       		pushl	%ebx
 1852 0cf0 83EC30   		subl	$48, %esp
 1853              		.cfi_offset 6, -12
 1854              		.cfi_offset 3, -16
 1855 0cf3 8B4514   		movl	20(%ebp), %eax
 1856 0cf6 8845E4   		movb	%al, -28(%ebp)
 402:src/pdf417/PDFScanningDecoder.c **** 	printf("GetStartColumn barcodeColumn=%d, imageRow=%d, leftToRight=%d \n", barcodeColumn, imageRow,
 1857              		.loc 1 402 2
 1858 0cf9 0FB645E4 		movzbl	-28(%ebp), %eax
 1859 0cfd 8944240C 		movl	%eax, 12(%esp)
 1860 0d01 8B4510   		movl	16(%ebp), %eax
 1861 0d04 89442408 		movl	%eax, 8(%esp)
 1862 0d08 8B450C   		movl	12(%ebp), %eax
 1863 0d0b 89442404 		movl	%eax, 4(%esp)
 1864 0d0f C70424B4 		movl	$LC8, (%esp)
 1864      010000
 1865 0d16 E8000000 		call	_printf
 1865      00
 403:src/pdf417/PDFScanningDecoder.c **** 
 404:src/pdf417/PDFScanningDecoder.c **** 	int offset = leftToRight ? 1 : -1;
 1866              		.loc 1 404 31
 1867 0d1b 807DE400 		cmpb	$0, -28(%ebp)
 1868 0d1f 7407     		je	L127
 1869              		.loc 1 404 31 is_stmt 0 discriminator 1
GAS LISTING C:\Users\jisu8\AppData\Local\Temp\ccX0Ht2c.s 			page 45


 1870 0d21 B8010000 		movl	$1, %eax
 1870      00
 1871 0d26 EB05     		jmp	L128
 1872              	L127:
 1873              		.loc 1 404 31 discriminator 2
 1874 0d28 B8FFFFFF 		movl	$-1, %eax
 1874      FF
 1875              	L128:
 1876              		.loc 1 404 6 is_stmt 1 discriminator 4
 1877 0d2d 8945F4   		movl	%eax, -12(%ebp)
 405:src/pdf417/PDFScanningDecoder.c **** 	Codeword_t * codeword;
 406:src/pdf417/PDFScanningDecoder.c **** 	if (IsValidBarcodeColumn(detectionResult, barcodeColumn - offset)) 
 1878              		.loc 1 406 6 discriminator 4
 1879 0d30 8B450C   		movl	12(%ebp), %eax
 1880 0d33 2B45F4   		subl	-12(%ebp), %eax
 1881 0d36 89442404 		movl	%eax, 4(%esp)
 1882 0d3a 8B4508   		movl	8(%ebp), %eax
 1883 0d3d 890424   		movl	%eax, (%esp)
 1884 0d40 E882FFFF 		call	_IsValidBarcodeColumn
 1884      FF
 1885              		.loc 1 406 5 discriminator 4
 1886 0d45 84C0     		testb	%al, %al
 1887 0d47 744A     		je	L129
 407:src/pdf417/PDFScanningDecoder.c **** 	{
 408:src/pdf417/PDFScanningDecoder.c **** 		*codeword = detectionResult->_detectionResultColumns[barcodeColumn - offset].m_value._codewords[i
 1888              		.loc 1 408 70
 1889 0d49 8B450C   		movl	12(%ebp), %eax
 1890 0d4c 2B45F4   		subl	-12(%ebp), %eax
 1891 0d4f 89C6     		movl	%eax, %esi
 1892              		.loc 1 408 13
 1893 0d51 8B55F0   		movl	-16(%ebp), %edx
 1894 0d54 8B5D08   		movl	8(%ebp), %ebx
 1895 0d57 8B4D10   		movl	16(%ebp), %ecx
 1896 0d5a 89C8     		movl	%ecx, %eax
 1897 0d5c 01C0     		addl	%eax, %eax
 1898 0d5e 01C8     		addl	%ecx, %eax
 1899 0d60 C1E003   		sall	$3, %eax
 1900 0d63 69CE342F 		imull	$12084, %esi, %ecx
 1900      0000
 1901 0d69 01C8     		addl	%ecx, %eax
 1902 0d6b 01D8     		addl	%ebx, %eax
 1903 0d6d 83C050   		addl	$80, %eax
 1904 0d70 8B4810   		movl	16(%eax), %ecx
 1905 0d73 890A     		movl	%ecx, (%edx)
 1906 0d75 8B4814   		movl	20(%eax), %ecx
 1907 0d78 894A04   		movl	%ecx, 4(%edx)
 1908 0d7b 8B4818   		movl	24(%eax), %ecx
 1909 0d7e 894A08   		movl	%ecx, 8(%edx)
 1910 0d81 8B481C   		movl	28(%eax), %ecx
 1911 0d84 894A0C   		movl	%ecx, 12(%edx)
 1912 0d87 8B4820   		movl	32(%eax), %ecx
 1913 0d8a 894A10   		movl	%ecx, 16(%edx)
 1914 0d8d 8B4024   		movl	36(%eax), %eax
 1915 0d90 894214   		movl	%eax, 20(%edx)
 1916              	L129:
 409:src/pdf417/PDFScanningDecoder.c **** 	}
 410:src/pdf417/PDFScanningDecoder.c **** 
GAS LISTING C:\Users\jisu8\AppData\Local\Temp\ccX0Ht2c.s 			page 46


 411:src/pdf417/PDFScanningDecoder.c **** 	if (codeword->m_hasValue != 0) 
 1917              		.loc 1 411 14
 1918 0d93 8B45F0   		movl	-16(%ebp), %eax
 1919 0d96 0FB600   		movzbl	(%eax), %eax
 1920              		.loc 1 411 5
 1921 0d99 84C0     		testb	%al, %al
 1922 0d9b 7416     		je	L130
 412:src/pdf417/PDFScanningDecoder.c **** 	{
 413:src/pdf417/PDFScanningDecoder.c **** 		return leftToRight ? codeword->m_value._endX : codeword->m_value._startX;
 1923              		.loc 1 413 48
 1924 0d9d 807DE400 		cmpb	$0, -28(%ebp)
 1925 0da1 7408     		je	L131
 1926              		.loc 1 413 48 is_stmt 0 discriminator 1
 1927 0da3 8B45F0   		movl	-16(%ebp), %eax
 1928 0da6 8B4008   		movl	8(%eax), %eax
 1929 0da9 EB7E     		jmp	L133
 1930              	L131:
 1931              		.loc 1 413 48 discriminator 2
 1932 0dab 8B45F0   		movl	-16(%ebp), %eax
 1933 0dae 8B4004   		movl	4(%eax), %eax
 1934 0db1 EB76     		jmp	L133
 1935              	L130:
 414:src/pdf417/PDFScanningDecoder.c **** 	}
 415:src/pdf417/PDFScanningDecoder.c **** 
 416:src/pdf417/PDFScanningDecoder.c **** 	//codeword = detectionResult->_detectionResultColumns[barcodeColumn].m_value.codewordNearby(imageR
 417:src/pdf417/PDFScanningDecoder.c **** 	if (codeword->m_hasValue != 0) 
 1936              		.loc 1 417 14 is_stmt 1
 1937 0db3 8B45F0   		movl	-16(%ebp), %eax
 1938 0db6 0FB600   		movzbl	(%eax), %eax
 1939              		.loc 1 417 5
 1940 0db9 84C0     		testb	%al, %al
 1941 0dbb 7416     		je	L134
 418:src/pdf417/PDFScanningDecoder.c **** 	{
 419:src/pdf417/PDFScanningDecoder.c **** 		return leftToRight ? codeword->m_value._startX : codeword->m_value._endX;
 1942              		.loc 1 419 50
 1943 0dbd 807DE400 		cmpb	$0, -28(%ebp)
 1944 0dc1 7408     		je	L135
 1945              		.loc 1 419 50 is_stmt 0 discriminator 1
 1946 0dc3 8B45F0   		movl	-16(%ebp), %eax
 1947 0dc6 8B4004   		movl	4(%eax), %eax
 1948 0dc9 EB5E     		jmp	L133
 1949              	L135:
 1950              		.loc 1 419 50 discriminator 2
 1951 0dcb 8B45F0   		movl	-16(%ebp), %eax
 1952 0dce 8B4008   		movl	8(%eax), %eax
 1953 0dd1 EB56     		jmp	L133
 1954              	L134:
 420:src/pdf417/PDFScanningDecoder.c **** 	}
 421:src/pdf417/PDFScanningDecoder.c **** 
 422:src/pdf417/PDFScanningDecoder.c **** 	if (IsValidBarcodeColumn(detectionResult, barcodeColumn - offset)) 
 1955              		.loc 1 422 6 is_stmt 1
 1956 0dd3 8B450C   		movl	12(%ebp), %eax
 1957 0dd6 2B45F4   		subl	-12(%ebp), %eax
 1958 0dd9 89442404 		movl	%eax, 4(%esp)
 1959 0ddd 8B4508   		movl	8(%ebp), %eax
 1960 0de0 890424   		movl	%eax, (%esp)
 1961 0de3 E8DFFEFF 		call	_IsValidBarcodeColumn
GAS LISTING C:\Users\jisu8\AppData\Local\Temp\ccX0Ht2c.s 			page 47


 1961      FF
 423:src/pdf417/PDFScanningDecoder.c **** 	{
 424:src/pdf417/PDFScanningDecoder.c **** 		//codeword = detectionResult->_detectionResultColumns[barcodeColumn - offset].m_value.codewordNea
 425:src/pdf417/PDFScanningDecoder.c **** 	}
 426:src/pdf417/PDFScanningDecoder.c **** 
 427:src/pdf417/PDFScanningDecoder.c **** 	if (codeword->m_hasValue != 0)
 1962              		.loc 1 427 14
 1963 0de8 8B45F0   		movl	-16(%ebp), %eax
 1964 0deb 0FB600   		movzbl	(%eax), %eax
 1965              		.loc 1 427 5
 1966 0dee 84C0     		testb	%al, %al
 1967 0df0 7416     		je	L137
 428:src/pdf417/PDFScanningDecoder.c **** 	{
 429:src/pdf417/PDFScanningDecoder.c **** 		return leftToRight ? codeword->m_value._endX : codeword->m_value._startX;
 1968              		.loc 1 429 48
 1969 0df2 807DE400 		cmpb	$0, -28(%ebp)
 1970 0df6 7408     		je	L138
 1971              		.loc 1 429 48 is_stmt 0 discriminator 1
 1972 0df8 8B45F0   		movl	-16(%ebp), %eax
 1973 0dfb 8B4008   		movl	8(%eax), %eax
 1974 0dfe EB29     		jmp	L133
 1975              	L138:
 1976              		.loc 1 429 48 discriminator 2
 1977 0e00 8B45F0   		movl	-16(%ebp), %eax
 1978 0e03 8B4004   		movl	4(%eax), %eax
 1979 0e06 EB21     		jmp	L133
 1980              	L137:
 430:src/pdf417/PDFScanningDecoder.c **** 	}
 431:src/pdf417/PDFScanningDecoder.c **** 
 432:src/pdf417/PDFScanningDecoder.c **** 	int skippedColumns = 0;
 1981              		.loc 1 432 6 is_stmt 1
 1982 0e08 C745EC00 		movl	$0, -20(%ebp)
 1982      000000
 433:src/pdf417/PDFScanningDecoder.c **** 	#if 0
 434:src/pdf417/PDFScanningDecoder.c **** 	while (IsValidBarcodeColumn(detectionResult, barcodeColumn - offset)) 
 435:src/pdf417/PDFScanningDecoder.c **** 	{
 436:src/pdf417/PDFScanningDecoder.c **** 		barcodeColumn -= offset;
 437:src/pdf417/PDFScanningDecoder.c **** 		for (auto& previousRowCodeword : detectionResult.column(barcodeColumn).value().allCodewords()) 
 438:src/pdf417/PDFScanningDecoder.c **** 		{
 439:src/pdf417/PDFScanningDecoder.c **** 			if (previousRowCodeword != nullptr) 
 440:src/pdf417/PDFScanningDecoder.c **** 			{
 441:src/pdf417/PDFScanningDecoder.c **** 				return (leftToRight ? previousRowCodeword.value().endX() : previousRowCodeword.value().startX()
 442:src/pdf417/PDFScanningDecoder.c **** 					offset *
 443:src/pdf417/PDFScanningDecoder.c **** 					skippedColumns *
 444:src/pdf417/PDFScanningDecoder.c **** 					(previousRowCodeword.value().endX() - previousRowCodeword.value().startX());
 445:src/pdf417/PDFScanningDecoder.c **** 			}
 446:src/pdf417/PDFScanningDecoder.c **** 		}
 447:src/pdf417/PDFScanningDecoder.c **** 		skippedColumns++;
 448:src/pdf417/PDFScanningDecoder.c **** 	}
 449:src/pdf417/PDFScanningDecoder.c **** 	#endif
 450:src/pdf417/PDFScanningDecoder.c **** 	return leftToRight ? detectionResult->_boundingBox.m_value._minX : detectionResult->_boundingBox.m
 1983              		.loc 1 450 67
 1984 0e0f 807DE400 		cmpb	$0, -28(%ebp)
 1985 0e13 740B     		je	L140
 1986              		.loc 1 450 67 is_stmt 0 discriminator 1
 1987 0e15 8B4508   		movl	8(%ebp), %eax
 1988 0e18 8B809C70 		movl	1208476(%eax), %eax
GAS LISTING C:\Users\jisu8\AppData\Local\Temp\ccX0Ht2c.s 			page 48


 1988      1200
 1989 0e1e EB09     		jmp	L133
 1990              	L140:
 1991              		.loc 1 450 67 discriminator 2
 1992 0e20 8B4508   		movl	8(%ebp), %eax
 1993 0e23 8B80A070 		movl	1208480(%eax), %eax
 1993      1200
 1994              	L133:
 451:src/pdf417/PDFScanningDecoder.c **** }
 1995              		.loc 1 451 1 is_stmt 1
 1996 0e29 83C430   		addl	$48, %esp
 1997 0e2c 5B       		popl	%ebx
 1998              		.cfi_restore 3
 1999 0e2d 5E       		popl	%esi
 2000              		.cfi_restore 6
 2001 0e2e 5D       		popl	%ebp
 2002              	LCFI59:
 2003              		.cfi_restore 5
 2004              		.cfi_def_cfa 4, 4
 2005 0e2f C3       		ret
 2006              		.cfi_endproc
 2007              	LFE23:
 2008              		.globl	_Decode
 2010              	_Decode:
 2011              	LFB24:
 452:src/pdf417/PDFScanningDecoder.c **** 
 453:src/pdf417/PDFScanningDecoder.c **** #if 0
 454:src/pdf417/PDFScanningDecoder.c **** static std::vector<std::vector<BarcodeValue>> CreateBarcodeMatrix(DetectionResult& detectionResult)
 455:src/pdf417/PDFScanningDecoder.c **** {
 456:src/pdf417/PDFScanningDecoder.c **** #ifdef HK_DEBUG
 457:src/pdf417/PDFScanningDecoder.c **** 	printf("CreateBarcodeMatrix\n");
 458:src/pdf417/PDFScanningDecoder.c **** #endif
 459:src/pdf417/PDFScanningDecoder.c **** 	
 460:src/pdf417/PDFScanningDecoder.c **** 	std::vector<std::vector<BarcodeValue>> barcodeMatrix(detectionResult.barcodeRowCount());
 461:src/pdf417/PDFScanningDecoder.c **** 	for (auto& row : barcodeMatrix) {
 462:src/pdf417/PDFScanningDecoder.c **** 		row.resize(detectionResult.barcodeColumnCount() + 2);
 463:src/pdf417/PDFScanningDecoder.c **** 	}
 464:src/pdf417/PDFScanningDecoder.c **** 
 465:src/pdf417/PDFScanningDecoder.c **** 	int column = 0;
 466:src/pdf417/PDFScanningDecoder.c **** 	for (auto& resultColumn : detectionResult.allColumns()) {
 467:src/pdf417/PDFScanningDecoder.c **** 		if (resultColumn != nullptr) {
 468:src/pdf417/PDFScanningDecoder.c **** 			for (auto& codeword : resultColumn.value().allCodewords()) {
 469:src/pdf417/PDFScanningDecoder.c **** 				if (codeword != nullptr) {
 470:src/pdf417/PDFScanningDecoder.c **** 					int rowNumber = codeword.value().rowNumber();
 471:src/pdf417/PDFScanningDecoder.c **** 					if (rowNumber >= 0) {
 472:src/pdf417/PDFScanningDecoder.c **** 						if (rowNumber >= Size(barcodeMatrix)) {
 473:src/pdf417/PDFScanningDecoder.c **** 							// We have more rows than the barcode metadata allows for, ignore them.
 474:src/pdf417/PDFScanningDecoder.c **** 							continue;
 475:src/pdf417/PDFScanningDecoder.c **** 						}
 476:src/pdf417/PDFScanningDecoder.c **** 						barcodeMatrix[rowNumber][column].setValue(codeword.value().value());
 477:src/pdf417/PDFScanningDecoder.c **** 					}
 478:src/pdf417/PDFScanningDecoder.c **** 				}
 479:src/pdf417/PDFScanningDecoder.c **** 			}
 480:src/pdf417/PDFScanningDecoder.c **** 		}
 481:src/pdf417/PDFScanningDecoder.c **** 		column++;
 482:src/pdf417/PDFScanningDecoder.c **** 	}
 483:src/pdf417/PDFScanningDecoder.c **** 	return barcodeMatrix;
GAS LISTING C:\Users\jisu8\AppData\Local\Temp\ccX0Ht2c.s 			page 49


 484:src/pdf417/PDFScanningDecoder.c **** }
 485:src/pdf417/PDFScanningDecoder.c **** 
 486:src/pdf417/PDFScanningDecoder.c **** #endif
 487:src/pdf417/PDFScanningDecoder.c **** #if 0
 488:src/pdf417/PDFScanningDecoder.c **** static int GetNumberOfECCodeWords(int barcodeECLevel)
 489:src/pdf417/PDFScanningDecoder.c **** {
 490:src/pdf417/PDFScanningDecoder.c **** 	return 2 << barcodeECLevel;
 491:src/pdf417/PDFScanningDecoder.c **** }
 492:src/pdf417/PDFScanningDecoder.c **** 
 493:src/pdf417/PDFScanningDecoder.c **** #endif
 494:src/pdf417/PDFScanningDecoder.c **** #if 0
 495:src/pdf417/PDFScanningDecoder.c **** static bool AdjustCodewordCount(const DetectionResult& detectionResult, std::vector<std::vector<Bar
 496:src/pdf417/PDFScanningDecoder.c **** {
 497:src/pdf417/PDFScanningDecoder.c **** #ifdef HK_DEBUG
 498:src/pdf417/PDFScanningDecoder.c **** 	printf("AdjustCodewordCount\n");
 499:src/pdf417/PDFScanningDecoder.c **** #endif
 500:src/pdf417/PDFScanningDecoder.c **** 	
 501:src/pdf417/PDFScanningDecoder.c **** 	auto numberOfCodewords = barcodeMatrix[0][1].value();
 502:src/pdf417/PDFScanningDecoder.c **** 	int calculatedNumberOfCodewords = detectionResult.barcodeColumnCount() * detectionResult.barcodeRo
 503:src/pdf417/PDFScanningDecoder.c **** 	if (numberOfCodewords.empty()) {
 504:src/pdf417/PDFScanningDecoder.c **** 		if (calculatedNumberOfCodewords < 1 || calculatedNumberOfCodewords > CodewordDecoder::MAX_CODEWOR
 505:src/pdf417/PDFScanningDecoder.c **** 			return false;
 506:src/pdf417/PDFScanningDecoder.c **** 		}
 507:src/pdf417/PDFScanningDecoder.c **** 		barcodeMatrix[0][1].setValue(calculatedNumberOfCodewords);
 508:src/pdf417/PDFScanningDecoder.c **** 	}
 509:src/pdf417/PDFScanningDecoder.c **** 	else if (numberOfCodewords[0] != calculatedNumberOfCodewords) {
 510:src/pdf417/PDFScanningDecoder.c **** 		// The calculated one is more reliable as it is derived from the row indicator columns
 511:src/pdf417/PDFScanningDecoder.c **** 		barcodeMatrix[0][1].setValue(calculatedNumberOfCodewords);
 512:src/pdf417/PDFScanningDecoder.c **** 	}
 513:src/pdf417/PDFScanningDecoder.c **** 	return true;
 514:src/pdf417/PDFScanningDecoder.c **** }
 515:src/pdf417/PDFScanningDecoder.c **** // +++++++++++++++++++++++++++++++++++ Error Correction
 516:src/pdf417/PDFScanningDecoder.c **** 
 517:src/pdf417/PDFScanningDecoder.c **** #endif
 518:src/pdf417/PDFScanningDecoder.c **** #if 0
 519:src/pdf417/PDFScanningDecoder.c **** static const ModulusGF& GetModulusGF()
 520:src/pdf417/PDFScanningDecoder.c **** {
 521:src/pdf417/PDFScanningDecoder.c **** 	static const ModulusGF field(CodewordDecoder::NUMBER_OF_CODEWORDS, 3);
 522:src/pdf417/PDFScanningDecoder.c **** 	return field;
 523:src/pdf417/PDFScanningDecoder.c **** }
 524:src/pdf417/PDFScanningDecoder.c **** 
 525:src/pdf417/PDFScanningDecoder.c **** #endif
 526:src/pdf417/PDFScanningDecoder.c **** #if 0
 527:src/pdf417/PDFScanningDecoder.c **** static bool RunEuclideanAlgorithm(ModulusPoly a, ModulusPoly b, int R, ModulusPoly& sigma, ModulusP
 528:src/pdf417/PDFScanningDecoder.c **** {
 529:src/pdf417/PDFScanningDecoder.c **** #ifdef HK_DEBUG
 530:src/pdf417/PDFScanningDecoder.c **** 	printf("RunEuclideanAlgorithm\n");
 531:src/pdf417/PDFScanningDecoder.c **** #endif
 532:src/pdf417/PDFScanningDecoder.c **** 	
 533:src/pdf417/PDFScanningDecoder.c **** 	const ModulusGF& field = GetModulusGF();
 534:src/pdf417/PDFScanningDecoder.c **** 
 535:src/pdf417/PDFScanningDecoder.c **** 	// Assume a's degree is >= b's
 536:src/pdf417/PDFScanningDecoder.c **** 	if (a.degree() < b.degree()) 
 537:src/pdf417/PDFScanningDecoder.c **** 	{
 538:src/pdf417/PDFScanningDecoder.c **** 		swap(a, b);
 539:src/pdf417/PDFScanningDecoder.c **** 	}
 540:src/pdf417/PDFScanningDecoder.c **** 
GAS LISTING C:\Users\jisu8\AppData\Local\Temp\ccX0Ht2c.s 			page 50


 541:src/pdf417/PDFScanningDecoder.c **** 	ModulusPoly rLast = a;
 542:src/pdf417/PDFScanningDecoder.c **** 	ModulusPoly r = b;
 543:src/pdf417/PDFScanningDecoder.c **** 	ModulusPoly tLast = field.zero();
 544:src/pdf417/PDFScanningDecoder.c **** 	ModulusPoly t = field.one();
 545:src/pdf417/PDFScanningDecoder.c **** 
 546:src/pdf417/PDFScanningDecoder.c **** 	// Run Euclidean algorithm until r's degree is less than R/2
 547:src/pdf417/PDFScanningDecoder.c **** 	while (r.degree() >= R / 2) 
 548:src/pdf417/PDFScanningDecoder.c **** 	{
 549:src/pdf417/PDFScanningDecoder.c **** 		ModulusPoly rLastLast = rLast;
 550:src/pdf417/PDFScanningDecoder.c **** 		ModulusPoly tLastLast = tLast;
 551:src/pdf417/PDFScanningDecoder.c **** 		rLast = r;
 552:src/pdf417/PDFScanningDecoder.c **** 		tLast = t;
 553:src/pdf417/PDFScanningDecoder.c **** 
 554:src/pdf417/PDFScanningDecoder.c **** 		// Divide rLastLast by rLast, with quotient in q and remainder in r
 555:src/pdf417/PDFScanningDecoder.c **** 		if (rLast.isZero()) {
 556:src/pdf417/PDFScanningDecoder.c **** 			// Oops, Euclidean algorithm already terminated?
 557:src/pdf417/PDFScanningDecoder.c **** 			return false;
 558:src/pdf417/PDFScanningDecoder.c **** 		}
 559:src/pdf417/PDFScanningDecoder.c **** 		r = rLastLast;
 560:src/pdf417/PDFScanningDecoder.c **** 		ModulusPoly q = field.zero();
 561:src/pdf417/PDFScanningDecoder.c **** 		int denominatorLeadingTerm = rLast.coefficient(rLast.degree());
 562:src/pdf417/PDFScanningDecoder.c **** 		int dltInverse = field.inverse(denominatorLeadingTerm);
 563:src/pdf417/PDFScanningDecoder.c **** 		while (r.degree() >= rLast.degree() && !r.isZero()) {
 564:src/pdf417/PDFScanningDecoder.c **** 			int degreeDiff = r.degree() - rLast.degree();
 565:src/pdf417/PDFScanningDecoder.c **** 			int scale = field.multiply(r.coefficient(r.degree()), dltInverse);
 566:src/pdf417/PDFScanningDecoder.c **** 			q = q.add(field.buildMonomial(degreeDiff, scale));
 567:src/pdf417/PDFScanningDecoder.c **** 			r = r.subtract(rLast.multiplyByMonomial(degreeDiff, scale));
 568:src/pdf417/PDFScanningDecoder.c **** 		}
 569:src/pdf417/PDFScanningDecoder.c **** 
 570:src/pdf417/PDFScanningDecoder.c **** 		t = q.multiply(tLast).subtract(tLastLast).negative();
 571:src/pdf417/PDFScanningDecoder.c **** 	}
 572:src/pdf417/PDFScanningDecoder.c **** 
 573:src/pdf417/PDFScanningDecoder.c **** 	int sigmaTildeAtZero = t.coefficient(0);
 574:src/pdf417/PDFScanningDecoder.c **** 	if (sigmaTildeAtZero == 0) {
 575:src/pdf417/PDFScanningDecoder.c **** 		return false;
 576:src/pdf417/PDFScanningDecoder.c **** 	}
 577:src/pdf417/PDFScanningDecoder.c **** 
 578:src/pdf417/PDFScanningDecoder.c **** 	int inverse = field.inverse(sigmaTildeAtZero);
 579:src/pdf417/PDFScanningDecoder.c **** 	sigma = t.multiply(inverse);
 580:src/pdf417/PDFScanningDecoder.c **** 	omega = r.multiply(inverse);
 581:src/pdf417/PDFScanningDecoder.c **** 	return true;
 582:src/pdf417/PDFScanningDecoder.c **** }
 583:src/pdf417/PDFScanningDecoder.c **** 
 584:src/pdf417/PDFScanningDecoder.c **** #endif
 585:src/pdf417/PDFScanningDecoder.c **** #if 0
 586:src/pdf417/PDFScanningDecoder.c **** static bool FindErrorLocations(const ModulusPoly& errorLocator, std::vector<int>& result)
 587:src/pdf417/PDFScanningDecoder.c **** {
 588:src/pdf417/PDFScanningDecoder.c **** #ifdef HK_DEBUG
 589:src/pdf417/PDFScanningDecoder.c **** 	printf("FindErrorLocations \n");
 590:src/pdf417/PDFScanningDecoder.c **** #endif
 591:src/pdf417/PDFScanningDecoder.c **** 	
 592:src/pdf417/PDFScanningDecoder.c **** 	const ModulusGF& field = GetModulusGF();
 593:src/pdf417/PDFScanningDecoder.c **** 	// This is a direct application of Chien's search
 594:src/pdf417/PDFScanningDecoder.c **** 	int numErrors = errorLocator.degree();
 595:src/pdf417/PDFScanningDecoder.c **** 	result.resize(numErrors);
 596:src/pdf417/PDFScanningDecoder.c **** 	int e = 0;
 597:src/pdf417/PDFScanningDecoder.c **** 	for (int i = 1; i < field.size() && e < numErrors; i++) 
GAS LISTING C:\Users\jisu8\AppData\Local\Temp\ccX0Ht2c.s 			page 51


 598:src/pdf417/PDFScanningDecoder.c **** 	{
 599:src/pdf417/PDFScanningDecoder.c **** 		if (errorLocator.evaluateAt(i) == 0) {
 600:src/pdf417/PDFScanningDecoder.c **** 			result[e] = field.inverse(i);
 601:src/pdf417/PDFScanningDecoder.c **** 			e++;
 602:src/pdf417/PDFScanningDecoder.c **** 		}
 603:src/pdf417/PDFScanningDecoder.c **** 	}
 604:src/pdf417/PDFScanningDecoder.c **** 	return e == numErrors;
 605:src/pdf417/PDFScanningDecoder.c **** }
 606:src/pdf417/PDFScanningDecoder.c **** 
 607:src/pdf417/PDFScanningDecoder.c **** #endif
 608:src/pdf417/PDFScanningDecoder.c **** #if 0
 609:src/pdf417/PDFScanningDecoder.c **** static std::vector<int> FindErrorMagnitudes(const ModulusPoly& errorEvaluator, const ModulusPoly& e
 610:src/pdf417/PDFScanningDecoder.c **** {
 611:src/pdf417/PDFScanningDecoder.c **** #ifdef HK_DEBUG
 612:src/pdf417/PDFScanningDecoder.c **** 	printf("FindErrorMagnitudes \n");
 613:src/pdf417/PDFScanningDecoder.c **** #endif
 614:src/pdf417/PDFScanningDecoder.c **** 	const ModulusGF& field = GetModulusGF();
 615:src/pdf417/PDFScanningDecoder.c **** 	int errorLocatorDegree = errorLocator.degree();
 616:src/pdf417/PDFScanningDecoder.c **** 	std::vector<int> formalDerivativeCoefficients(errorLocatorDegree);
 617:src/pdf417/PDFScanningDecoder.c **** 	for (int i = 1; i <= errorLocatorDegree; i++) {
 618:src/pdf417/PDFScanningDecoder.c **** 		formalDerivativeCoefficients[errorLocatorDegree - i] = field.multiply(i, errorLocator.coefficient
 619:src/pdf417/PDFScanningDecoder.c **** 	}
 620:src/pdf417/PDFScanningDecoder.c **** 
 621:src/pdf417/PDFScanningDecoder.c **** 	ModulusPoly formalDerivative(field, formalDerivativeCoefficients);
 622:src/pdf417/PDFScanningDecoder.c **** 	// This is directly applying Forney's Formula
 623:src/pdf417/PDFScanningDecoder.c **** 	std::vector<int> result(errorLocations.size());
 624:src/pdf417/PDFScanningDecoder.c **** 	for (size_t i = 0; i < result.size(); i++) {
 625:src/pdf417/PDFScanningDecoder.c **** 		int xiInverse = field.inverse(errorLocations[i]);
 626:src/pdf417/PDFScanningDecoder.c **** 		int numerator = field.subtract(0, errorEvaluator.evaluateAt(xiInverse));
 627:src/pdf417/PDFScanningDecoder.c **** 		int denominator = field.inverse(formalDerivative.evaluateAt(xiInverse));
 628:src/pdf417/PDFScanningDecoder.c **** 		result[i] = field.multiply(numerator, denominator);
 629:src/pdf417/PDFScanningDecoder.c **** 	}
 630:src/pdf417/PDFScanningDecoder.c **** 	return result;
 631:src/pdf417/PDFScanningDecoder.c **** }
 632:src/pdf417/PDFScanningDecoder.c **** 
 633:src/pdf417/PDFScanningDecoder.c **** /**
 634:src/pdf417/PDFScanningDecoder.c **** * @param received received codewords
 635:src/pdf417/PDFScanningDecoder.c **** * @param numECCodewords number of those codewords used for EC
 636:src/pdf417/PDFScanningDecoder.c **** * @param erasures location of erasures
 637:src/pdf417/PDFScanningDecoder.c **** * @return number of errors
 638:src/pdf417/PDFScanningDecoder.c **** * @throws ChecksumException if errors cannot be corrected, maybe because of too many errors
 639:src/pdf417/PDFScanningDecoder.c **** */
 640:src/pdf417/PDFScanningDecoder.c **** ZXING_EXPORT_TEST_ONLY
 641:src/pdf417/PDFScanningDecoder.c **** bool DecodeErrorCorrection(std::vector<int>& received, int numECCodewords, const std::vector<int>& 
 642:src/pdf417/PDFScanningDecoder.c **** {
 643:src/pdf417/PDFScanningDecoder.c **** #ifdef HK_DEBUG
 644:src/pdf417/PDFScanningDecoder.c **** 	printf("DecodeErrorCorrection  numECCodewords=%d, nbErrors=%d\n", numECCodewords, nbErrors);
 645:src/pdf417/PDFScanningDecoder.c **** #endif
 646:src/pdf417/PDFScanningDecoder.c **** 	
 647:src/pdf417/PDFScanningDecoder.c **** 	const ModulusGF& field = GetModulusGF();
 648:src/pdf417/PDFScanningDecoder.c **** 	ModulusPoly poly(field, received);
 649:src/pdf417/PDFScanningDecoder.c **** 	std::vector<int> S(numECCodewords);
 650:src/pdf417/PDFScanningDecoder.c **** 	bool error = false;
 651:src/pdf417/PDFScanningDecoder.c **** 	for (int i = numECCodewords; i > 0; i--) 
 652:src/pdf417/PDFScanningDecoder.c **** 	{
 653:src/pdf417/PDFScanningDecoder.c **** 		int eval = poly.evaluateAt(field.exp(i));
 654:src/pdf417/PDFScanningDecoder.c **** 		S[numECCodewords - i] = eval;
GAS LISTING C:\Users\jisu8\AppData\Local\Temp\ccX0Ht2c.s 			page 52


 655:src/pdf417/PDFScanningDecoder.c **** 		if (eval != 0) {
 656:src/pdf417/PDFScanningDecoder.c **** 			error = true;
 657:src/pdf417/PDFScanningDecoder.c **** 		}
 658:src/pdf417/PDFScanningDecoder.c **** 	}
 659:src/pdf417/PDFScanningDecoder.c **** 
 660:src/pdf417/PDFScanningDecoder.c **** 	if (!error) 
 661:src/pdf417/PDFScanningDecoder.c **** 	{
 662:src/pdf417/PDFScanningDecoder.c **** 		nbErrors = 0;
 663:src/pdf417/PDFScanningDecoder.c **** 		return true;
 664:src/pdf417/PDFScanningDecoder.c **** 	}
 665:src/pdf417/PDFScanningDecoder.c **** 
 666:src/pdf417/PDFScanningDecoder.c **** 	ModulusPoly knownErrors = field.one();
 667:src/pdf417/PDFScanningDecoder.c **** 	for (int erasure : erasures) {
 668:src/pdf417/PDFScanningDecoder.c **** 		int b = field.exp(Size(received) - 1 - erasure);
 669:src/pdf417/PDFScanningDecoder.c **** 		// Add (1 - bx) term:
 670:src/pdf417/PDFScanningDecoder.c **** 		ModulusPoly term(field, { field.subtract(0, b), 1 });
 671:src/pdf417/PDFScanningDecoder.c **** 		knownErrors = knownErrors.multiply(term);
 672:src/pdf417/PDFScanningDecoder.c **** 	}
 673:src/pdf417/PDFScanningDecoder.c **** 
 674:src/pdf417/PDFScanningDecoder.c **** 	ModulusPoly syndrome(field, S);
 675:src/pdf417/PDFScanningDecoder.c **** 	//syndrome = syndrome.multiply(knownErrors);
 676:src/pdf417/PDFScanningDecoder.c **** 
 677:src/pdf417/PDFScanningDecoder.c **** 	ModulusPoly sigma, omega;
 678:src/pdf417/PDFScanningDecoder.c **** 	if (!RunEuclideanAlgorithm(field.buildMonomial(numECCodewords, 1), syndrome, numECCodewords, sigma
 679:src/pdf417/PDFScanningDecoder.c **** 		return false;
 680:src/pdf417/PDFScanningDecoder.c **** 	}
 681:src/pdf417/PDFScanningDecoder.c **** 
 682:src/pdf417/PDFScanningDecoder.c **** 	//sigma = sigma.multiply(knownErrors);
 683:src/pdf417/PDFScanningDecoder.c **** 
 684:src/pdf417/PDFScanningDecoder.c **** 	std::vector<int> errorLocations;
 685:src/pdf417/PDFScanningDecoder.c **** 	if (!FindErrorLocations(sigma, errorLocations)) {
 686:src/pdf417/PDFScanningDecoder.c **** 		return false;
 687:src/pdf417/PDFScanningDecoder.c **** 	}
 688:src/pdf417/PDFScanningDecoder.c **** 
 689:src/pdf417/PDFScanningDecoder.c **** 	std::vector<int> errorMagnitudes = FindErrorMagnitudes(omega, sigma, errorLocations);
 690:src/pdf417/PDFScanningDecoder.c **** 
 691:src/pdf417/PDFScanningDecoder.c **** 	int receivedSize = Size(received);
 692:src/pdf417/PDFScanningDecoder.c **** 	for (size_t i = 0; i < errorLocations.size(); i++) {
 693:src/pdf417/PDFScanningDecoder.c **** 		int position = receivedSize - 1 - field.log(errorLocations[i]);
 694:src/pdf417/PDFScanningDecoder.c **** 		if (position < 0) {
 695:src/pdf417/PDFScanningDecoder.c **** 			return false;
 696:src/pdf417/PDFScanningDecoder.c **** 		}
 697:src/pdf417/PDFScanningDecoder.c **** 		received[position] = field.subtract(received[position], errorMagnitudes[i]);
 698:src/pdf417/PDFScanningDecoder.c **** 	}
 699:src/pdf417/PDFScanningDecoder.c **** 	nbErrors = Size(errorLocations);
 700:src/pdf417/PDFScanningDecoder.c **** 	return true;
 701:src/pdf417/PDFScanningDecoder.c **** }
 702:src/pdf417/PDFScanningDecoder.c **** 
 703:src/pdf417/PDFScanningDecoder.c **** #endif
 704:src/pdf417/PDFScanningDecoder.c **** #if 0
 705:src/pdf417/PDFScanningDecoder.c **** // --------------------------------------- Error Correction
 706:src/pdf417/PDFScanningDecoder.c **** 
 707:src/pdf417/PDFScanningDecoder.c **** /**
 708:src/pdf417/PDFScanningDecoder.c **** * <p>Given data and error-correction codewords received, possibly corrupted by errors, attempts to
 709:src/pdf417/PDFScanningDecoder.c **** * correct the errors in-place.</p>
 710:src/pdf417/PDFScanningDecoder.c **** *
 711:src/pdf417/PDFScanningDecoder.c **** * @param codewords   data and error correction codewords
GAS LISTING C:\Users\jisu8\AppData\Local\Temp\ccX0Ht2c.s 			page 53


 712:src/pdf417/PDFScanningDecoder.c **** * @param erasures positions of any known erasures
 713:src/pdf417/PDFScanningDecoder.c **** * @param numECCodewords number of error correction codewords that are available in codewords
 714:src/pdf417/PDFScanningDecoder.c **** * @throws ChecksumException if error correction fails
 715:src/pdf417/PDFScanningDecoder.c **** */
 716:src/pdf417/PDFScanningDecoder.c **** static bool CorrectErrors(std::vector<int>& codewords, const std::vector<int>& erasures, int numECC
 717:src/pdf417/PDFScanningDecoder.c **** {
 718:src/pdf417/PDFScanningDecoder.c **** #ifdef HK_DEBUG
 719:src/pdf417/PDFScanningDecoder.c **** 	printf("CorrectErrors  numECCodewords=%d, errorCount=%d\n", numECCodewords, errorCount);
 720:src/pdf417/PDFScanningDecoder.c **** #endif
 721:src/pdf417/PDFScanningDecoder.c **** 	
 722:src/pdf417/PDFScanningDecoder.c **** 	if (Size(erasures) > numECCodewords / 2 + MAX_ERRORS ||
 723:src/pdf417/PDFScanningDecoder.c **** 		numECCodewords < 0 ||
 724:src/pdf417/PDFScanningDecoder.c **** 		numECCodewords > MAX_EC_CODEWORDS) {
 725:src/pdf417/PDFScanningDecoder.c **** 		// Too many errors or EC Codewords is corrupted
 726:src/pdf417/PDFScanningDecoder.c **** 		return false;
 727:src/pdf417/PDFScanningDecoder.c **** 	}
 728:src/pdf417/PDFScanningDecoder.c **** 	return DecodeErrorCorrection(codewords, numECCodewords, erasures, errorCount);
 729:src/pdf417/PDFScanningDecoder.c **** }
 730:src/pdf417/PDFScanningDecoder.c **** 
 731:src/pdf417/PDFScanningDecoder.c **** #endif
 732:src/pdf417/PDFScanningDecoder.c **** #if 0
 733:src/pdf417/PDFScanningDecoder.c **** /**
 734:src/pdf417/PDFScanningDecoder.c **** * Verify that all is OK with the codeword array.
 735:src/pdf417/PDFScanningDecoder.c **** */
 736:src/pdf417/PDFScanningDecoder.c **** static bool VerifyCodewordCount(std::vector<int>& codewords, int numECCodewords)
 737:src/pdf417/PDFScanningDecoder.c **** {
 738:src/pdf417/PDFScanningDecoder.c **** 	if (codewords.size() < 4) 
 739:src/pdf417/PDFScanningDecoder.c **** 	{
 740:src/pdf417/PDFScanningDecoder.c **** 		// Codeword array size should be at least 4 allowing for
 741:src/pdf417/PDFScanningDecoder.c **** 		// Count CW, At least one Data CW, Error Correction CW, Error Correction CW
 742:src/pdf417/PDFScanningDecoder.c **** 		return false;
 743:src/pdf417/PDFScanningDecoder.c **** 	}
 744:src/pdf417/PDFScanningDecoder.c **** 	// The first codeword, the Symbol Length Descriptor, shall always encode the total number of data
 745:src/pdf417/PDFScanningDecoder.c **** 	// codewords in the symbol, including the Symbol Length Descriptor itself, data codewords and pad
 746:src/pdf417/PDFScanningDecoder.c **** 	// codewords, but excluding the number of error correction codewords.
 747:src/pdf417/PDFScanningDecoder.c **** 	int numberOfCodewords = codewords[0];
 748:src/pdf417/PDFScanningDecoder.c **** 
 749:src/pdf417/PDFScanningDecoder.c **** 	if (numberOfCodewords > Size(codewords)) 
 750:src/pdf417/PDFScanningDecoder.c **** 	{
 751:src/pdf417/PDFScanningDecoder.c **** 		return false;
 752:src/pdf417/PDFScanningDecoder.c **** 	}
 753:src/pdf417/PDFScanningDecoder.c **** 
 754:src/pdf417/PDFScanningDecoder.c **** 	if (numberOfCodewords == 0) 
 755:src/pdf417/PDFScanningDecoder.c **** 	{
 756:src/pdf417/PDFScanningDecoder.c **** 		// Reset to the length of the array - 8 (Allow for at least level 3 Error Correction (8 Error Cod
 757:src/pdf417/PDFScanningDecoder.c **** 		if (numECCodewords < Size(codewords)) 
 758:src/pdf417/PDFScanningDecoder.c **** 		{
 759:src/pdf417/PDFScanningDecoder.c **** 			codewords[0] = Size(codewords) - numECCodewords;
 760:src/pdf417/PDFScanningDecoder.c **** 		}
 761:src/pdf417/PDFScanningDecoder.c **** 		else 
 762:src/pdf417/PDFScanningDecoder.c **** 		{
 763:src/pdf417/PDFScanningDecoder.c **** 			return false;
 764:src/pdf417/PDFScanningDecoder.c **** 		}
 765:src/pdf417/PDFScanningDecoder.c **** 	}
 766:src/pdf417/PDFScanningDecoder.c **** 	return true;
 767:src/pdf417/PDFScanningDecoder.c **** }
 768:src/pdf417/PDFScanningDecoder.c **** 
GAS LISTING C:\Users\jisu8\AppData\Local\Temp\ccX0Ht2c.s 			page 54


 769:src/pdf417/PDFScanningDecoder.c **** #endif
 770:src/pdf417/PDFScanningDecoder.c **** #if 0
 771:src/pdf417/PDFScanningDecoder.c **** DecoderResult DecodeCodewords(std::vector<int>& codewords, int ecLevel, const std::vector<int>& era
 772:src/pdf417/PDFScanningDecoder.c **** 							  const std::string& characterSet)
 773:src/pdf417/PDFScanningDecoder.c **** {
 774:src/pdf417/PDFScanningDecoder.c **** 	if (codewords.empty()) 
 775:src/pdf417/PDFScanningDecoder.c **** 	{
 776:src/pdf417/PDFScanningDecoder.c **** 		return DecodeStatus::FormatError;
 777:src/pdf417/PDFScanningDecoder.c **** 	}
 778:src/pdf417/PDFScanningDecoder.c **** 
 779:src/pdf417/PDFScanningDecoder.c **** 	int numECCodewords = 1 << (ecLevel + 1);
 780:src/pdf417/PDFScanningDecoder.c **** 	int correctedErrorsCount = 0;
 781:src/pdf417/PDFScanningDecoder.c **** 	if (!CorrectErrors(codewords, erasures, numECCodewords, correctedErrorsCount))
 782:src/pdf417/PDFScanningDecoder.c **** 		return DecodeStatus::ChecksumError;
 783:src/pdf417/PDFScanningDecoder.c **** 
 784:src/pdf417/PDFScanningDecoder.c **** 	if (!VerifyCodewordCount(codewords, numECCodewords))
 785:src/pdf417/PDFScanningDecoder.c **** 		return DecodeStatus::FormatError;
 786:src/pdf417/PDFScanningDecoder.c **** 
 787:src/pdf417/PDFScanningDecoder.c **** 	// Decode the codewords
 788:src/pdf417/PDFScanningDecoder.c **** 	auto result = DecodedBitStreamParser::Decode(codewords, ecLevel, characterSet);
 789:src/pdf417/PDFScanningDecoder.c **** 	if (result.isValid()) 
 790:src/pdf417/PDFScanningDecoder.c **** 	{
 791:src/pdf417/PDFScanningDecoder.c **** 		result.setErrorsCorrected(correctedErrorsCount);
 792:src/pdf417/PDFScanningDecoder.c **** 		result.setErasures(Size(erasures));
 793:src/pdf417/PDFScanningDecoder.c **** 	}
 794:src/pdf417/PDFScanningDecoder.c **** 
 795:src/pdf417/PDFScanningDecoder.c **** 	return result;
 796:src/pdf417/PDFScanningDecoder.c **** }
 797:src/pdf417/PDFScanningDecoder.c **** 
 798:src/pdf417/PDFScanningDecoder.c **** 
 799:src/pdf417/PDFScanningDecoder.c **** #endif
 800:src/pdf417/PDFScanningDecoder.c **** #if 0
 801:src/pdf417/PDFScanningDecoder.c **** /**
 802:src/pdf417/PDFScanningDecoder.c **** * This method deals with the fact, that the decoding process doesn't always yield a single most lik
 803:src/pdf417/PDFScanningDecoder.c **** * current error correction implementation doesn't deal with erasures very well, so it's better to p
 804:src/pdf417/PDFScanningDecoder.c **** * for these ambiguous codewords instead of treating it as an erasure. The problem is that we don't 
 805:src/pdf417/PDFScanningDecoder.c **** * the ambiguous values to choose. We try decode using the first value, and if that fails, we use an
 806:src/pdf417/PDFScanningDecoder.c **** * ambiguous values and try to decode again. This usually only happens on very hard to read and deco
 807:src/pdf417/PDFScanningDecoder.c **** * so decoding the normal barcodes is not affected by this.
 808:src/pdf417/PDFScanningDecoder.c **** *
 809:src/pdf417/PDFScanningDecoder.c **** * @param erasureArray contains the indexes of erasures
 810:src/pdf417/PDFScanningDecoder.c **** * @param ambiguousIndexes array with the indexes that have more than one most likely value
 811:src/pdf417/PDFScanningDecoder.c **** * @param ambiguousIndexValues two dimensional array that contains the ambiguous values. The first d
 812:src/pdf417/PDFScanningDecoder.c **** * be the same length as the ambiguousIndexes array
 813:src/pdf417/PDFScanningDecoder.c **** */
 814:src/pdf417/PDFScanningDecoder.c **** static DecoderResult CreateDecoderResultFromAmbiguousValues(int ecLevel, std::vector<int>& codeword
 815:src/pdf417/PDFScanningDecoder.c **** 	const std::vector<int>& erasureArray, const std::vector<int>& ambiguousIndexes,
 816:src/pdf417/PDFScanningDecoder.c **** 	const std::vector<std::vector<int>>& ambiguousIndexValues, const std::string& characterSet)
 817:src/pdf417/PDFScanningDecoder.c **** {
 818:src/pdf417/PDFScanningDecoder.c **** 	std::vector<int> ambiguousIndexCount(ambiguousIndexes.size(), 0);
 819:src/pdf417/PDFScanningDecoder.c **** 
 820:src/pdf417/PDFScanningDecoder.c **** 	int tries = 100;
 821:src/pdf417/PDFScanningDecoder.c **** 	while (tries-- > 0) {
 822:src/pdf417/PDFScanningDecoder.c **** 		for (size_t i = 0; i < ambiguousIndexCount.size(); i++) {
 823:src/pdf417/PDFScanningDecoder.c **** 			codewords[ambiguousIndexes[i]] = ambiguousIndexValues[i][ambiguousIndexCount[i]];
 824:src/pdf417/PDFScanningDecoder.c **** 		}
 825:src/pdf417/PDFScanningDecoder.c **** 		auto result = DecodeCodewords(codewords, ecLevel, erasureArray, characterSet);
GAS LISTING C:\Users\jisu8\AppData\Local\Temp\ccX0Ht2c.s 			page 55


 826:src/pdf417/PDFScanningDecoder.c **** 		if (result.errorCode() != DecodeStatus::ChecksumError) {
 827:src/pdf417/PDFScanningDecoder.c **** 			return result;
 828:src/pdf417/PDFScanningDecoder.c **** 		}
 829:src/pdf417/PDFScanningDecoder.c **** 
 830:src/pdf417/PDFScanningDecoder.c **** 		if (ambiguousIndexCount.empty()) {
 831:src/pdf417/PDFScanningDecoder.c **** 			return DecodeStatus::ChecksumError;
 832:src/pdf417/PDFScanningDecoder.c **** 		}
 833:src/pdf417/PDFScanningDecoder.c **** 		for (size_t i = 0; i < ambiguousIndexCount.size(); i++) {
 834:src/pdf417/PDFScanningDecoder.c **** 			if (ambiguousIndexCount[i] < Size(ambiguousIndexValues[i]) - 1) {
 835:src/pdf417/PDFScanningDecoder.c **** 				ambiguousIndexCount[i]++;
 836:src/pdf417/PDFScanningDecoder.c **** 				break;
 837:src/pdf417/PDFScanningDecoder.c **** 			}
 838:src/pdf417/PDFScanningDecoder.c **** 			else {
 839:src/pdf417/PDFScanningDecoder.c **** 				ambiguousIndexCount[i] = 0;
 840:src/pdf417/PDFScanningDecoder.c **** 				if (i == ambiguousIndexCount.size() - 1) {
 841:src/pdf417/PDFScanningDecoder.c **** 					return DecodeStatus::ChecksumError;
 842:src/pdf417/PDFScanningDecoder.c **** 				}
 843:src/pdf417/PDFScanningDecoder.c **** 			}
 844:src/pdf417/PDFScanningDecoder.c **** 		}
 845:src/pdf417/PDFScanningDecoder.c **** 	}
 846:src/pdf417/PDFScanningDecoder.c **** 	return DecodeStatus::ChecksumError;
 847:src/pdf417/PDFScanningDecoder.c **** }
 848:src/pdf417/PDFScanningDecoder.c **** 
 849:src/pdf417/PDFScanningDecoder.c **** 
 850:src/pdf417/PDFScanningDecoder.c **** #endif
 851:src/pdf417/PDFScanningDecoder.c **** #if 0
 852:src/pdf417/PDFScanningDecoder.c **** static DecoderResult CreateDecoderResult(DetectionResult& detectionResult, const std::string& chara
 853:src/pdf417/PDFScanningDecoder.c **** {
 854:src/pdf417/PDFScanningDecoder.c **** 	auto barcodeMatrix = CreateBarcodeMatrix(detectionResult);
 855:src/pdf417/PDFScanningDecoder.c **** 	if (!AdjustCodewordCount(detectionResult, barcodeMatrix)) {
 856:src/pdf417/PDFScanningDecoder.c **** 		return DecodeStatus::NotFound;
 857:src/pdf417/PDFScanningDecoder.c **** 	}
 858:src/pdf417/PDFScanningDecoder.c **** 	std::vector<int> erasures;
 859:src/pdf417/PDFScanningDecoder.c **** 	std::vector<int> codewords(detectionResult.barcodeRowCount() * detectionResult.barcodeColumnCount(
 860:src/pdf417/PDFScanningDecoder.c **** 	std::vector<std::vector<int>> ambiguousIndexValues;
 861:src/pdf417/PDFScanningDecoder.c **** 	std::vector<int> ambiguousIndexesList;
 862:src/pdf417/PDFScanningDecoder.c **** 	for (int row = 0; row < detectionResult.barcodeRowCount(); row++) {
 863:src/pdf417/PDFScanningDecoder.c **** 		for (int column = 0; column < detectionResult.barcodeColumnCount(); column++) {
 864:src/pdf417/PDFScanningDecoder.c **** 			auto values = barcodeMatrix[row][column + 1].value();
 865:src/pdf417/PDFScanningDecoder.c **** 			int codewordIndex = row * detectionResult.barcodeColumnCount() + column;
 866:src/pdf417/PDFScanningDecoder.c **** 			if (values.empty()) {
 867:src/pdf417/PDFScanningDecoder.c **** 				erasures.push_back(codewordIndex);
 868:src/pdf417/PDFScanningDecoder.c **** 			}
 869:src/pdf417/PDFScanningDecoder.c **** 			else if (values.size() == 1) {
 870:src/pdf417/PDFScanningDecoder.c **** 				codewords[codewordIndex] = values[0];
 871:src/pdf417/PDFScanningDecoder.c **** 			}
 872:src/pdf417/PDFScanningDecoder.c **** 			else {
 873:src/pdf417/PDFScanningDecoder.c **** 				ambiguousIndexesList.push_back(codewordIndex);
 874:src/pdf417/PDFScanningDecoder.c **** 				ambiguousIndexValues.push_back(values);
 875:src/pdf417/PDFScanningDecoder.c **** 			}
 876:src/pdf417/PDFScanningDecoder.c **** 		}
 877:src/pdf417/PDFScanningDecoder.c **** 	}
 878:src/pdf417/PDFScanningDecoder.c **** 	return CreateDecoderResultFromAmbiguousValues(detectionResult.barcodeECLevel(), codewords, erasure
 879:src/pdf417/PDFScanningDecoder.c **** 												  ambiguousIndexesList, ambiguousIndexValues, characterSet);
 880:src/pdf417/PDFScanningDecoder.c **** }
 881:src/pdf417/PDFScanningDecoder.c **** #endif
 882:src/pdf417/PDFScanningDecoder.c **** 
GAS LISTING C:\Users\jisu8\AppData\Local\Temp\ccX0Ht2c.s 			page 56


 883:src/pdf417/PDFScanningDecoder.c **** // TODO don't pass in minCodewordWidth and maxCodewordWidth, pass in barcode columns for start and 
 884:src/pdf417/PDFScanningDecoder.c **** // columns. That way width can be deducted from the pattern column.
 885:src/pdf417/PDFScanningDecoder.c **** // This approach also allows to detect more details about the barcode, e.g. if a bar type (white or
 886:src/pdf417/PDFScanningDecoder.c **** // than it should be. This can happen if the scanner used a bad blackpoint.
 887:src/pdf417/PDFScanningDecoder.c **** DecoderResult_t * Decode(const BitMatrix_t * image, ResultPoint_t imageTopLeft, ResultPoint_t image
 888:src/pdf417/PDFScanningDecoder.c **** 	ResultPoint_t imageTopRight, ResultPoint_t imageBottomRight,
 889:src/pdf417/PDFScanningDecoder.c **** 	int minCodewordWidth, int maxCodewordWidth, const unsigned char * characterSet)
 890:src/pdf417/PDFScanningDecoder.c **** {
 2012              		.loc 1 890 1
 2013              		.cfi_startproc
 2014 0e30 55       		pushl	%ebp
 2015              	LCFI60:
 2016              		.cfi_def_cfa_offset 8
 2017              		.cfi_offset 5, -8
 2018 0e31 89E5     		movl	%esp, %ebp
 2019              	LCFI61:
 2020              		.cfi_def_cfa_register 5
 2021 0e33 57       		pushl	%edi
 2022 0e34 56       		pushl	%esi
 2023 0e35 53       		pushl	%ebx
 2024 0e36 B8DCCF12 		movl	$1232860, %eax
 2024      00
 2025 0e3b E8000000 		call	___chkstk_ms
 2025      00
 2026 0e40 29C4     		subl	%eax, %esp
 2027              		.cfi_offset 7, -12
 2028              		.cfi_offset 6, -16
 2029              		.cfi_offset 3, -20
 891:src/pdf417/PDFScanningDecoder.c **** 	BoundingBox_t boundingBox;
 892:src/pdf417/PDFScanningDecoder.c **** 	if (!Create(image->_width, image->_height, imageTopLeft, imageBottomLeft, imageTopRight, imageBott
 2030              		.loc 1 892 7
 2031 0e42 8B4508   		movl	8(%ebp), %eax
 2032 0e45 8B5004   		movl	4(%eax), %edx
 2033 0e48 8B4508   		movl	8(%ebp), %eax
 2034 0e4b 8B00     		movl	(%eax), %eax
 2035 0e4d 8D8D70FF 		leal	-144(%ebp), %ecx
 2035      FFFF
 2036 0e53 894C2438 		movl	%ecx, 56(%esp)
 2037 0e57 8B4D30   		movl	48(%ebp), %ecx
 2038 0e5a 894C242C 		movl	%ecx, 44(%esp)
 2039 0e5e 8B4D34   		movl	52(%ebp), %ecx
 2040 0e61 894C2430 		movl	%ecx, 48(%esp)
 2041 0e65 8B4D38   		movl	56(%ebp), %ecx
 2042 0e68 894C2434 		movl	%ecx, 52(%esp)
 2043 0e6c 8B4D24   		movl	36(%ebp), %ecx
 2044 0e6f 894C2420 		movl	%ecx, 32(%esp)
 2045 0e73 8B4D28   		movl	40(%ebp), %ecx
 2046 0e76 894C2424 		movl	%ecx, 36(%esp)
 2047 0e7a 8B4D2C   		movl	44(%ebp), %ecx
 2048 0e7d 894C2428 		movl	%ecx, 40(%esp)
 2049 0e81 8B4D18   		movl	24(%ebp), %ecx
 2050 0e84 894C2414 		movl	%ecx, 20(%esp)
 2051 0e88 8B4D1C   		movl	28(%ebp), %ecx
 2052 0e8b 894C2418 		movl	%ecx, 24(%esp)
 2053 0e8f 8B4D20   		movl	32(%ebp), %ecx
 2054 0e92 894C241C 		movl	%ecx, 28(%esp)
 2055 0e96 8B4D0C   		movl	12(%ebp), %ecx
GAS LISTING C:\Users\jisu8\AppData\Local\Temp\ccX0Ht2c.s 			page 57


 2056 0e99 894C2408 		movl	%ecx, 8(%esp)
 2057 0e9d 8B4D10   		movl	16(%ebp), %ecx
 2058 0ea0 894C240C 		movl	%ecx, 12(%esp)
 2059 0ea4 8B4D14   		movl	20(%ebp), %ecx
 2060 0ea7 894C2410 		movl	%ecx, 16(%esp)
 2061 0eab 89542404 		movl	%edx, 4(%esp)
 2062 0eaf 890424   		movl	%eax, (%esp)
 2063 0eb2 E8000000 		call	_Create
 2063      00
 2064              		.loc 1 892 5
 2065 0eb7 84C0     		testb	%al, %al
 2066 0eb9 750A     		jne	L143
 893:src/pdf417/PDFScanningDecoder.c **** 	{
 894:src/pdf417/PDFScanningDecoder.c **** 		return NotFound;
 2067              		.loc 1 894 10
 2068 0ebb B8010000 		movl	$1, %eax
 2068      00
 2069 0ec0 E9AE0300 		jmp	L142
 2069      00
 2070              	L143:
 895:src/pdf417/PDFScanningDecoder.c **** 	}
 896:src/pdf417/PDFScanningDecoder.c **** 	int length = 0;
 2071              		.loc 1 896 6
 2072 0ec5 C745E400 		movl	$0, -28(%ebp)
 2072      000000
 2073              	LBB16:
 897:src/pdf417/PDFScanningDecoder.c **** 
 898:src/pdf417/PDFScanningDecoder.c **** 	DetectionResultColumn_t leftRowIndicatorColumn;
 899:src/pdf417/PDFScanningDecoder.c **** 	DetectionResultColumn_t rightRowIndicatorColumn;
 900:src/pdf417/PDFScanningDecoder.c **** 	DetectionResult_t detectionResult;
 901:src/pdf417/PDFScanningDecoder.c **** 	for (int i = 0; i < 2; i++) 
 2074              		.loc 1 901 11
 2075 0ecc C745E000 		movl	$0, -32(%ebp)
 2075      000000
 2076              		.loc 1 901 2
 2077 0ed3 E9260100 		jmp	L145
 2077      00
 2078              	L152:
 902:src/pdf417/PDFScanningDecoder.c **** 	{
 903:src/pdf417/PDFScanningDecoder.c **** 		if (imageTopLeft.m_hasValue != 0) 
 2079              		.loc 1 903 19
 2080 0ed8 0FB6450C 		movzbl	12(%ebp), %eax
 2081              		.loc 1 903 6
 2082 0edc 84C0     		testb	%al, %al
 2083 0ede 743F     		je	L146
 904:src/pdf417/PDFScanningDecoder.c **** 		{
 905:src/pdf417/PDFScanningDecoder.c **** 			length = GetRowIndicatorColumn(image, &boundingBox, &imageTopLeft, 1, minCodewordWidth, maxCodew
 2084              		.loc 1 905 13
 2085 0ee0 8D853CD0 		leal	-12228(%ebp), %eax
 2085      FFFF
 2086 0ee6 89442418 		movl	%eax, 24(%esp)
 2087 0eea 8B4540   		movl	64(%ebp), %eax
 2088 0eed 89442414 		movl	%eax, 20(%esp)
 2089 0ef1 8B453C   		movl	60(%ebp), %eax
 2090 0ef4 89442410 		movl	%eax, 16(%esp)
 2091 0ef8 C744240C 		movl	$1, 12(%esp)
 2091      01000000 
GAS LISTING C:\Users\jisu8\AppData\Local\Temp\ccX0Ht2c.s 			page 58


 2092 0f00 8D450C   		leal	12(%ebp), %eax
 2093 0f03 89442408 		movl	%eax, 8(%esp)
 2094 0f07 8D8570FF 		leal	-144(%ebp), %eax
 2094      FFFF
 2095 0f0d 89442404 		movl	%eax, 4(%esp)
 2096 0f11 8B4508   		movl	8(%ebp), %eax
 2097 0f14 890424   		movl	%eax, (%esp)
 2098 0f17 E855F7FF 		call	_GetRowIndicatorColumn
 2098      FF
 2099 0f1c 8945E4   		movl	%eax, -28(%ebp)
 2100              	L146:
 906:src/pdf417/PDFScanningDecoder.c **** 		}
 907:src/pdf417/PDFScanningDecoder.c **** 		if (imageTopRight.m_hasValue != 0) 
 2101              		.loc 1 907 20
 2102 0f1f 0FB64524 		movzbl	36(%ebp), %eax
 2103              		.loc 1 907 6
 2104 0f23 84C0     		testb	%al, %al
 2105 0f25 743F     		je	L147
 908:src/pdf417/PDFScanningDecoder.c **** 		{
 909:src/pdf417/PDFScanningDecoder.c **** 			length = GetRowIndicatorColumn(image, &boundingBox, &imageTopRight, 0, minCodewordWidth, maxCode
 2106              		.loc 1 909 13
 2107 0f27 8D8508A1 		leal	-24312(%ebp), %eax
 2107      FFFF
 2108 0f2d 89442418 		movl	%eax, 24(%esp)
 2109 0f31 8B4540   		movl	64(%ebp), %eax
 2110 0f34 89442414 		movl	%eax, 20(%esp)
 2111 0f38 8B453C   		movl	60(%ebp), %eax
 2112 0f3b 89442410 		movl	%eax, 16(%esp)
 2113 0f3f C744240C 		movl	$0, 12(%esp)
 2113      00000000 
 2114 0f47 8D4524   		leal	36(%ebp), %eax
 2115 0f4a 89442408 		movl	%eax, 8(%esp)
 2116 0f4e 8D8570FF 		leal	-144(%ebp), %eax
 2116      FFFF
 2117 0f54 89442404 		movl	%eax, 4(%esp)
 2118 0f58 8B4508   		movl	8(%ebp), %eax
 2119 0f5b 890424   		movl	%eax, (%esp)
 2120 0f5e E80EF7FF 		call	_GetRowIndicatorColumn
 2120      FF
 2121 0f63 8945E4   		movl	%eax, -28(%ebp)
 2122              	L147:
 910:src/pdf417/PDFScanningDecoder.c **** 		}
 911:src/pdf417/PDFScanningDecoder.c **** 		if (!Merge(&leftRowIndicatorColumn, &rightRowIndicatorColumn, &detectionResult,length)) 
 2123              		.loc 1 911 8
 2124 0f66 8B45E4   		movl	-28(%ebp), %eax
 2125 0f69 8944240C 		movl	%eax, 12(%esp)
 2126 0f6d 8D855C30 		leal	-1232804(%ebp), %eax
 2126      EDFF
 2127 0f73 89442408 		movl	%eax, 8(%esp)
 2128 0f77 8D8508A1 		leal	-24312(%ebp), %eax
 2128      FFFF
 2129 0f7d 89442404 		movl	%eax, 4(%esp)
 2130 0f81 8D853CD0 		leal	-12228(%ebp), %eax
 2130      FFFF
 2131 0f87 890424   		movl	%eax, (%esp)
 2132 0f8a E862FCFF 		call	_Merge
 2132      FF
GAS LISTING C:\Users\jisu8\AppData\Local\Temp\ccX0Ht2c.s 			page 59


 2133              		.loc 1 911 6
 2134 0f8f 84C0     		testb	%al, %al
 2135 0f91 750A     		jne	L148
 912:src/pdf417/PDFScanningDecoder.c **** 		{
 913:src/pdf417/PDFScanningDecoder.c **** 			return NotFound;
 2136              		.loc 1 913 11
 2137 0f93 B8010000 		movl	$1, %eax
 2137      00
 2138 0f98 E9D60200 		jmp	L142
 2138      00
 2139              	L148:
 914:src/pdf417/PDFScanningDecoder.c **** 		}
 915:src/pdf417/PDFScanningDecoder.c **** 		if (i == 0 && (detectionResult._boundingBox.m_hasValue != 0) && (detectionResult._boundingBox.m_v
 2140              		.loc 1 915 6
 2141 0f9d 837DE000 		cmpl	$0, -32(%ebp)
 2142 0fa1 7542     		jne	L149
 2143              		.loc 1 915 46 discriminator 1
 2144 0fa3 0FB685BC 		movzbl	-24388(%ebp), %eax
 2144      A0FFFF
 2145              		.loc 1 915 14 discriminator 1
 2146 0faa 84C0     		testb	%al, %al
 2147 0fac 7437     		je	L149
 2148              		.loc 1 915 104 discriminator 2
 2149 0fae 8B9500A1 		movl	-24320(%ebp), %edx
 2149      FFFF
 2150              		.loc 1 915 132 discriminator 2
 2151 0fb4 8B45B4   		movl	-76(%ebp), %eax
 2152              		.loc 1 915 64 discriminator 2
 2153 0fb7 39C2     		cmpl	%eax, %edx
 2154 0fb9 7C0D     		jl	L150
 2155              		.loc 1 915 178 discriminator 3
 2156 0fbb 8B9504A1 		movl	-24316(%ebp), %edx
 2156      FFFF
 2157              		.loc 1 915 206 discriminator 3
 2158 0fc1 8B45B8   		movl	-72(%ebp), %eax
 2159              		.loc 1 915 139 discriminator 3
 2160 0fc4 39C2     		cmpl	%eax, %edx
 2161 0fc6 7E1D     		jle	L149
 2162              	L150:
 916:src/pdf417/PDFScanningDecoder.c **** 		{
 917:src/pdf417/PDFScanningDecoder.c **** 			boundingBox = detectionResult._boundingBox;
 2163              		.loc 1 917 16
 2164 0fc8 8D8570FF 		leal	-144(%ebp), %eax
 2164      FFFF
 2165 0fce 8D95BCA0 		leal	-24388(%ebp), %edx
 2165      FFFF
 2166 0fd4 B9130000 		movl	$19, %ecx
 2166      00
 2167 0fd9 89C7     		movl	%eax, %edi
 2168 0fdb 89D6     		movl	%edx, %esi
 2169 0fdd F3A5     		rep movsl
 901:src/pdf417/PDFScanningDecoder.c **** 	{
 2170              		.loc 1 901 26
 2171 0fdf 8345E001 		addl	$1, -32(%ebp)
 2172 0fe3 EB19     		jmp	L145
 2173              	L149:
 918:src/pdf417/PDFScanningDecoder.c **** 		}
GAS LISTING C:\Users\jisu8\AppData\Local\Temp\ccX0Ht2c.s 			page 60


 919:src/pdf417/PDFScanningDecoder.c **** 		else 
 920:src/pdf417/PDFScanningDecoder.c **** 		{
 921:src/pdf417/PDFScanningDecoder.c **** 			detectionResult._boundingBox = boundingBox;
 2174              		.loc 1 921 33
 2175 0fe5 8D85BCA0 		leal	-24388(%ebp), %eax
 2175      FFFF
 2176 0feb 8D9570FF 		leal	-144(%ebp), %edx
 2176      FFFF
 2177 0ff1 B9130000 		movl	$19, %ecx
 2177      00
 2178 0ff6 89C7     		movl	%eax, %edi
 2179 0ff8 89D6     		movl	%edx, %esi
 2180 0ffa F3A5     		rep movsl
 922:src/pdf417/PDFScanningDecoder.c **** 			break;
 2181              		.loc 1 922 4
 2182 0ffc EB0A     		jmp	L151
 2183              	L145:
 901:src/pdf417/PDFScanningDecoder.c **** 	{
 2184              		.loc 1 901 2 discriminator 1
 2185 0ffe 837DE001 		cmpl	$1, -32(%ebp)
 2186 1002 0F8ED0FE 		jle	L152
 2186      FFFF
 2187              	L151:
 2188              	LBE16:
 923:src/pdf417/PDFScanningDecoder.c **** 		}
 924:src/pdf417/PDFScanningDecoder.c **** 	}
 925:src/pdf417/PDFScanningDecoder.c **** 
 926:src/pdf417/PDFScanningDecoder.c **** 	int maxBarcodeColumn = detectionResult._barcodeMetadata._columnCount + 1;
 2189              		.loc 1 926 57
 2190 1008 8B855C30 		movl	-1232804(%ebp), %eax
 2190      EDFF
 2191              		.loc 1 926 6
 2192 100e 83C001   		addl	$1, %eax
 2193 1011 8945C8   		movl	%eax, -56(%ebp)
 927:src/pdf417/PDFScanningDecoder.c **** 	detectionResult._detectionResultColumns[0] = leftRowIndicatorColumn;
 2194              		.loc 1 927 45
 2195 1014 8D856C30 		leal	-1232788(%ebp), %eax
 2195      EDFF
 2196 101a 8D953CD0 		leal	-12228(%ebp), %edx
 2196      FFFF
 2197 1020 B9342F00 		movl	$12084, %ecx
 2197      00
 2198 1025 894C2408 		movl	%ecx, 8(%esp)
 2199 1029 89542404 		movl	%edx, 4(%esp)
 2200 102d 890424   		movl	%eax, (%esp)
 2201 1030 E8000000 		call	_memcpy
 2201      00
 928:src/pdf417/PDFScanningDecoder.c **** 	detectionResult._detectionResultColumns[maxBarcodeColumn] = rightRowIndicatorColumn;
 2202              		.loc 1 928 60
 2203 1035 8B45C8   		movl	-56(%ebp), %eax
 2204 1038 69C0342F 		imull	$12084, %eax, %eax
 2204      0000
 2205 103e 8D75E8   		leal	-24(%ebp), %esi
 2206 1041 01F0     		addl	%esi, %eax
 2207 1043 2D7CCF12 		subl	$1232764, %eax
 2207      00
 2208 1048 89C2     		movl	%eax, %edx
GAS LISTING C:\Users\jisu8\AppData\Local\Temp\ccX0Ht2c.s 			page 61


 2209 104a 8D8508A1 		leal	-24312(%ebp), %eax
 2209      FFFF
 2210 1050 B9342F00 		movl	$12084, %ecx
 2210      00
 2211 1055 894C2408 		movl	%ecx, 8(%esp)
 2212 1059 89442404 		movl	%eax, 4(%esp)
 2213 105d 891424   		movl	%edx, (%esp)
 2214 1060 E8000000 		call	_memcpy
 2214      00
 929:src/pdf417/PDFScanningDecoder.c **** 
 930:src/pdf417/PDFScanningDecoder.c **** 	uint8_t leftToRight;
 931:src/pdf417/PDFScanningDecoder.c **** 
 932:src/pdf417/PDFScanningDecoder.c **** 	if(leftRowIndicatorColumn.m_hasValue != 0)
 2215              		.loc 1 932 27
 2216 1065 0FB6853C 		movzbl	-12228(%ebp), %eax
 2216      D0FFFF
 2217              		.loc 1 932 4
 2218 106c 84C0     		testb	%al, %al
 2219 106e 7406     		je	L153
 933:src/pdf417/PDFScanningDecoder.c **** 	{
 934:src/pdf417/PDFScanningDecoder.c **** 		leftToRight = 1;
 2220              		.loc 1 934 15
 2221 1070 C645DF01 		movb	$1, -33(%ebp)
 2222 1074 EB04     		jmp	L154
 2223              	L153:
 935:src/pdf417/PDFScanningDecoder.c **** 	}
 936:src/pdf417/PDFScanningDecoder.c **** 	else
 937:src/pdf417/PDFScanningDecoder.c **** 	{
 938:src/pdf417/PDFScanningDecoder.c **** 		leftToRight = 0;
 2224              		.loc 1 938 15
 2225 1076 C645DF00 		movb	$0, -33(%ebp)
 2226              	L154:
 2227              	LBB17:
 939:src/pdf417/PDFScanningDecoder.c **** 	}
 940:src/pdf417/PDFScanningDecoder.c **** 
 941:src/pdf417/PDFScanningDecoder.c **** 	for (int barcodeColumnCount = 1; barcodeColumnCount <= maxBarcodeColumn; barcodeColumnCount++) 
 2228              		.loc 1 941 11
 2229 107a C745D801 		movl	$1, -40(%ebp)
 2229      000000
 2230              		.loc 1 941 2
 2231 1081 E9E10100 		jmp	L155
 2231      00
 2232              	L170:
 2233              	LBB18:
 942:src/pdf417/PDFScanningDecoder.c **** 	{
 943:src/pdf417/PDFScanningDecoder.c **** 		int barcodeColumn = leftToRight ? barcodeColumnCount : maxBarcodeColumn - barcodeColumnCount;
 2234              		.loc 1 943 56
 2235 1086 807DDF00 		cmpb	$0, -33(%ebp)
 2236 108a 7508     		jne	L156
 2237              		.loc 1 943 56 is_stmt 0 discriminator 1
 2238 108c 8B45C8   		movl	-56(%ebp), %eax
 2239 108f 2B45D8   		subl	-40(%ebp), %eax
 2240 1092 EB03     		jmp	L157
 2241              	L156:
 2242              		.loc 1 943 56 discriminator 2
 2243 1094 8B45D8   		movl	-40(%ebp), %eax
 2244              	L157:
GAS LISTING C:\Users\jisu8\AppData\Local\Temp\ccX0Ht2c.s 			page 62


 2245              		.loc 1 943 7 is_stmt 1 discriminator 4
 2246 1097 8945C4   		movl	%eax, -60(%ebp)
 944:src/pdf417/PDFScanningDecoder.c **** 		if (detectionResult._detectionResultColumns[barcodeColumn].m_hasValue != 0) 
 2247              		.loc 1 944 61 discriminator 4
 2248 109a 8B45C4   		movl	-60(%ebp), %eax
 2249 109d 69C0342F 		imull	$12084, %eax, %eax
 2249      0000
 2250 10a3 8D7DE8   		leal	-24(%ebp), %edi
 2251 10a6 01F8     		addl	%edi, %eax
 2252 10a8 2D7CCF12 		subl	$1232764, %eax
 2252      00
 2253 10ad 0FB600   		movzbl	(%eax), %eax
 2254              		.loc 1 944 6 discriminator 4
 2255 10b0 84C0     		testb	%al, %al
 2256 10b2 0F85AA01 		jne	L172
 2256      0000
 945:src/pdf417/PDFScanningDecoder.c **** 		{
 946:src/pdf417/PDFScanningDecoder.c **** 			// This will be the case for the opposite row indicator column, which doesn't need to be decoded
 947:src/pdf417/PDFScanningDecoder.c **** 			continue;
 948:src/pdf417/PDFScanningDecoder.c **** 		}
 949:src/pdf417/PDFScanningDecoder.c **** 		RowIndicator_t rowIndicator = barcodeColumn == 0 ? Left : (barcodeColumn == maxBarcodeColumn ? Ri
 2257              		.loc 1 949 59
 2258 10b8 837DC400 		cmpl	$0, -60(%ebp)
 2259 10bc 7416     		je	L160
 2260              		.loc 1 949 59 is_stmt 0 discriminator 1
 2261 10be 8B45C4   		movl	-60(%ebp), %eax
 2262 10c1 3B45C8   		cmpl	-56(%ebp), %eax
 2263 10c4 7507     		jne	L161
 2264              		.loc 1 949 59 discriminator 3
 2265 10c6 B8020000 		movl	$2, %eax
 2265      00
 2266 10cb EB0C     		jmp	L163
 2267              	L161:
 2268              		.loc 1 949 59 discriminator 4
 2269 10cd B8000000 		movl	$0, %eax
 2269      00
 2270 10d2 EB05     		jmp	L163
 2271              	L160:
 2272              		.loc 1 949 59 discriminator 2
 2273 10d4 B8010000 		movl	$1, %eax
 2273      00
 2274              	L163:
 2275              		.loc 1 949 18 is_stmt 1 discriminator 8
 2276 10d9 8945C0   		movl	%eax, -64(%ebp)
 950:src/pdf417/PDFScanningDecoder.c **** 		DetectionResultColumn(&boundingBox, rowIndicator,&(detectionResult._detectionResultColumns[barcod
 2277              		.loc 1 950 3 discriminator 8
 2278 10dc 8D855C30 		leal	-1232804(%ebp), %eax
 2278      EDFF
 2279 10e2 8B55C4   		movl	-60(%ebp), %edx
 2280 10e5 69D2342F 		imull	$12084, %edx, %edx
 2280      0000
 2281 10eb 83C210   		addl	$16, %edx
 2282 10ee 01D0     		addl	%edx, %eax
 2283 10f0 89442408 		movl	%eax, 8(%esp)
 2284 10f4 8B45C0   		movl	-64(%ebp), %eax
 2285 10f7 89442404 		movl	%eax, 4(%esp)
 2286 10fb 8D8570FF 		leal	-144(%ebp), %eax
GAS LISTING C:\Users\jisu8\AppData\Local\Temp\ccX0Ht2c.s 			page 63


 2286      FFFF
 2287 1101 890424   		movl	%eax, (%esp)
 2288 1104 E8000000 		call	_DetectionResultColumn
 2288      00
 951:src/pdf417/PDFScanningDecoder.c **** 		int startColumn = -1;
 2289              		.loc 1 951 7 discriminator 8
 2290 1109 C745D4FF 		movl	$-1, -44(%ebp)
 2290      FFFFFF
 952:src/pdf417/PDFScanningDecoder.c **** 		int previousStartColumn = startColumn;
 2291              		.loc 1 952 7 discriminator 8
 2292 1110 8B45D4   		movl	-44(%ebp), %eax
 2293 1113 8945D0   		movl	%eax, -48(%ebp)
 2294              	LBB19:
 953:src/pdf417/PDFScanningDecoder.c **** 		// TODO start at a row for which we know the start position, then detect upwards and downwards fr
 954:src/pdf417/PDFScanningDecoder.c **** 		for (int imageRow = boundingBox.m_value._minY; imageRow <= boundingBox.m_value._maxY; imageRow++)
 2295              		.loc 1 954 12 discriminator 8
 2296 1116 8B45B4   		movl	-76(%ebp), %eax
 2297 1119 8945CC   		movl	%eax, -52(%ebp)
 2298              		.loc 1 954 3 discriminator 8
 2299 111c E9330100 		jmp	L164
 2299      00
 2300              	L169:
 2301              	LBB20:
 955:src/pdf417/PDFScanningDecoder.c **** 		{
 956:src/pdf417/PDFScanningDecoder.c **** 			startColumn = GetStartColumn(&detectionResult, barcodeColumn, imageRow, leftToRight);
 2302              		.loc 1 956 18
 2303 1121 0FB645DF 		movzbl	-33(%ebp), %eax
 2304 1125 8944240C 		movl	%eax, 12(%esp)
 2305 1129 8B45CC   		movl	-52(%ebp), %eax
 2306 112c 89442408 		movl	%eax, 8(%esp)
 2307 1130 8B45C4   		movl	-60(%ebp), %eax
 2308 1133 89442404 		movl	%eax, 4(%esp)
 2309 1137 8D855C30 		leal	-1232804(%ebp), %eax
 2309      EDFF
 2310 113d 890424   		movl	%eax, (%esp)
 2311 1140 E8A6FBFF 		call	_GetStartColumn
 2311      FF
 2312 1145 8945D4   		movl	%eax, -44(%ebp)
 957:src/pdf417/PDFScanningDecoder.c **** 			if (startColumn < 0 || startColumn > boundingBox.m_value._maxX) 
 2313              		.loc 1 957 7
 2314 1148 837DD400 		cmpl	$0, -44(%ebp)
 2315 114c 7808     		js	L165
 2316              		.loc 1 957 60 discriminator 1
 2317 114e 8B45B0   		movl	-80(%ebp), %eax
 2318              		.loc 1 957 24 discriminator 1
 2319 1151 3945D4   		cmpl	%eax, -44(%ebp)
 2320 1154 7E10     		jle	L166
 2321              	L165:
 958:src/pdf417/PDFScanningDecoder.c **** 			{
 959:src/pdf417/PDFScanningDecoder.c **** 				if (previousStartColumn == -1) 
 2322              		.loc 1 959 8
 2323 1156 837DD0FF 		cmpl	$-1, -48(%ebp)
 2324 115a 0F84EF00 		je	L173
 2324      0000
 960:src/pdf417/PDFScanningDecoder.c **** 				{
 961:src/pdf417/PDFScanningDecoder.c **** 					continue;
 962:src/pdf417/PDFScanningDecoder.c **** 				}
GAS LISTING C:\Users\jisu8\AppData\Local\Temp\ccX0Ht2c.s 			page 64


 963:src/pdf417/PDFScanningDecoder.c **** 				startColumn = previousStartColumn;
 2325              		.loc 1 963 17
 2326 1160 8B45D0   		movl	-48(%ebp), %eax
 2327 1163 8945D4   		movl	%eax, -44(%ebp)
 2328              	L166:
 964:src/pdf417/PDFScanningDecoder.c **** 			}
 965:src/pdf417/PDFScanningDecoder.c **** 			Codeword_t * codeword = DetectCodeword(image, boundingBox.m_value._minX, boundingBox.m_value._ma
 2329              		.loc 1 965 28
 2330 1166 0FB64DDF 		movzbl	-33(%ebp), %ecx
 2331 116a 8B55B0   		movl	-80(%ebp), %edx
 2332 116d 8B45AC   		movl	-84(%ebp), %eax
 2333 1170 8B5D40   		movl	64(%ebp), %ebx
 2334 1173 895C241C 		movl	%ebx, 28(%esp)
 2335 1177 8B5D3C   		movl	60(%ebp), %ebx
 2336 117a 895C2418 		movl	%ebx, 24(%esp)
 2337 117e 8B5DCC   		movl	-52(%ebp), %ebx
 2338 1181 895C2414 		movl	%ebx, 20(%esp)
 2339 1185 8B5DD4   		movl	-44(%ebp), %ebx
 2340 1188 895C2410 		movl	%ebx, 16(%esp)
 2341 118c 894C240C 		movl	%ecx, 12(%esp)
 2342 1190 89542408 		movl	%edx, 8(%esp)
 2343 1194 89442404 		movl	%eax, 4(%esp)
 2344 1198 8B4508   		movl	8(%ebp), %eax
 2345 119b 890424   		movl	%eax, (%esp)
 2346 119e E8C1F1FF 		call	_DetectCodeword
 2346      FF
 2347 11a3 8945BC   		movl	%eax, -68(%ebp)
 966:src/pdf417/PDFScanningDecoder.c **** 			if (codeword->m_hasValue != 0) 
 2348              		.loc 1 966 16
 2349 11a6 8B45BC   		movl	-68(%ebp), %eax
 2350 11a9 0FB600   		movzbl	(%eax), %eax
 2351              		.loc 1 966 7
 2352 11ac 84C0     		testb	%al, %al
 2353 11ae 0F849C00 		je	L168
 2353      0000
 967:src/pdf417/PDFScanningDecoder.c **** 			{
 968:src/pdf417/PDFScanningDecoder.c **** 				detectionResult._detectionResultColumns[barcodeColumn].m_value._codewords[imageRow - detectionR
 2354              		.loc 1 968 173
 2355 11b4 8B45C4   		movl	-60(%ebp), %eax
 2356 11b7 69C0342F 		imull	$12084, %eax, %eax
 2356      0000
 2357 11bd 8D75E8   		leal	-24(%ebp), %esi
 2358 11c0 01F0     		addl	%esi, %eax
 2359 11c2 2D34CF12 		subl	$1232692, %eax
 2359      00
 2360 11c7 8B00     		movl	(%eax), %eax
 2361              		.loc 1 968 88
 2362 11c9 8B55CC   		movl	-52(%ebp), %edx
 2363 11cc 29C2     		subl	%eax, %edx
 2364              		.loc 1 968 181
 2365 11ce 8B4DC4   		movl	-60(%ebp), %ecx
 2366 11d1 89D0     		movl	%edx, %eax
 2367 11d3 01C0     		addl	%eax, %eax
 2368 11d5 01D0     		addl	%edx, %eax
 2369 11d7 C1E003   		sall	$3, %eax
 2370 11da 69D1342F 		imull	$12084, %ecx, %edx
 2370      0000
GAS LISTING C:\Users\jisu8\AppData\Local\Temp\ccX0Ht2c.s 			page 65


 2371 11e0 01D0     		addl	%edx, %eax
 2372 11e2 8D7DE8   		leal	-24(%ebp), %edi
 2373 11e5 01F8     		addl	%edi, %eax
 2374 11e7 8D90C430 		leal	-1232700(%eax), %edx
 2374      EDFF
 2375 11ed 8B45BC   		movl	-68(%ebp), %eax
 2376 11f0 8B08     		movl	(%eax), %ecx
 2377 11f2 894A10   		movl	%ecx, 16(%edx)
 2378 11f5 8B4804   		movl	4(%eax), %ecx
 2379 11f8 894A14   		movl	%ecx, 20(%edx)
 2380 11fb 8B4808   		movl	8(%eax), %ecx
 2381 11fe 894A18   		movl	%ecx, 24(%edx)
 2382 1201 8B480C   		movl	12(%eax), %ecx
 2383 1204 894A1C   		movl	%ecx, 28(%edx)
 2384 1207 8B4810   		movl	16(%eax), %ecx
 2385 120a 894A20   		movl	%ecx, 32(%edx)
 2386 120d 8B4014   		movl	20(%eax), %eax
 2387 1210 894224   		movl	%eax, 36(%edx)
 969:src/pdf417/PDFScanningDecoder.c **** 				previousStartColumn = startColumn;
 2388              		.loc 1 969 25
 2389 1213 8B45D4   		movl	-44(%ebp), %eax
 2390 1216 8945D0   		movl	%eax, -48(%ebp)
 970:src/pdf417/PDFScanningDecoder.c **** 				minCodewordWidth = __min(minCodewordWidth, (codeword->m_value._endX - codeword->m_value._startX
 2391              		.loc 1 970 24
 2392 1219 8B45BC   		movl	-68(%ebp), %eax
 2393 121c 8B5008   		movl	8(%eax), %edx
 2394 121f 8B45BC   		movl	-68(%ebp), %eax
 2395 1222 8B4004   		movl	4(%eax), %eax
 2396 1225 29C2     		subl	%eax, %edx
 2397 1227 89D0     		movl	%edx, %eax
 2398              		.loc 1 970 22
 2399 1229 39453C   		cmpl	%eax, 60(%ebp)
 2400 122c 0F4E453C 		cmovle	60(%ebp), %eax
 2401 1230 89453C   		movl	%eax, 60(%ebp)
 971:src/pdf417/PDFScanningDecoder.c **** 				maxCodewordWidth = __max(maxCodewordWidth, (codeword->m_value._endX - codeword->m_value._startX
 2402              		.loc 1 971 24
 2403 1233 8B45BC   		movl	-68(%ebp), %eax
 2404 1236 8B5008   		movl	8(%eax), %edx
 2405 1239 8B45BC   		movl	-68(%ebp), %eax
 2406 123c 8B4004   		movl	4(%eax), %eax
 2407 123f 29C2     		subl	%eax, %edx
 2408 1241 89D0     		movl	%edx, %eax
 2409              		.loc 1 971 22
 2410 1243 394540   		cmpl	%eax, 64(%ebp)
 2411 1246 0F4D4540 		cmovge	64(%ebp), %eax
 2412 124a 894540   		movl	%eax, 64(%ebp)
 2413 124d EB01     		jmp	L168
 2414              	L173:
 961:src/pdf417/PDFScanningDecoder.c **** 				}
 2415              		.loc 1 961 6
 2416 124f 90       		nop
 2417              	L168:
 2418              	LBE20:
 954:src/pdf417/PDFScanningDecoder.c **** 		{
 2419              		.loc 1 954 97 discriminator 2
 2420 1250 8345CC01 		addl	$1, -52(%ebp)
 2421              	L164:
GAS LISTING C:\Users\jisu8\AppData\Local\Temp\ccX0Ht2c.s 			page 66


 954:src/pdf417/PDFScanningDecoder.c **** 		{
 2422              		.loc 1 954 81 discriminator 1
 2423 1254 8B45B8   		movl	-72(%ebp), %eax
 954:src/pdf417/PDFScanningDecoder.c **** 		{
 2424              		.loc 1 954 3 discriminator 1
 2425 1257 3945CC   		cmpl	%eax, -52(%ebp)
 2426 125a 0F8EC1FE 		jle	L169
 2426      FFFF
 2427 1260 EB01     		jmp	L159
 2428              	L172:
 2429              	LBE19:
 947:src/pdf417/PDFScanningDecoder.c **** 		}
 2430              		.loc 1 947 4
 2431 1262 90       		nop
 2432              	L159:
 2433              	LBE18:
 941:src/pdf417/PDFScanningDecoder.c **** 	{
 2434              		.loc 1 941 93 discriminator 2
 2435 1263 8345D801 		addl	$1, -40(%ebp)
 2436              	L155:
 941:src/pdf417/PDFScanningDecoder.c **** 	{
 2437              		.loc 1 941 2 discriminator 1
 2438 1267 8B45D8   		movl	-40(%ebp), %eax
 2439 126a 3B45C8   		cmpl	-56(%ebp), %eax
 2440 126d 0F8E13FE 		jle	L170
 2440      FFFF
 2441              	L142:
 2442              	LBE17:
 972:src/pdf417/PDFScanningDecoder.c **** 			}
 973:src/pdf417/PDFScanningDecoder.c **** 		}
 974:src/pdf417/PDFScanningDecoder.c **** 	}
 975:src/pdf417/PDFScanningDecoder.c **** 	//return CreateDecoderResult(detectionResult, characterSet);
 976:src/pdf417/PDFScanningDecoder.c **** 
 977:src/pdf417/PDFScanningDecoder.c **** }
 2443              		.loc 1 977 1
 2444 1273 81C4DCCF 		addl	$1232860, %esp
 2444      1200
 2445 1279 5B       		popl	%ebx
 2446              		.cfi_restore 3
 2447 127a 5E       		popl	%esi
 2448              		.cfi_restore 6
 2449 127b 5F       		popl	%edi
 2450              		.cfi_restore 7
 2451 127c 5D       		popl	%ebp
 2452              	LCFI62:
 2453              		.cfi_restore 5
 2454              		.cfi_def_cfa 4, 4
 2455 127d C3       		ret
 2456              		.cfi_endproc
 2457              	LFE24:
 2458              	Letext0:
 2459              		.file 2 "src/StructuredAppend.h"
 2460              		.file 3 "src/decodestatus.h"
 2461              		.file 4 "D:/3.tools/mingw/mingw32/i686-w64-mingw32/include/crtdefs.h"
 2462              		.file 5 "D:/3.tools/mingw/mingw32/i686-w64-mingw32/include/stdint.h"
 2463              		.file 6 "src/DecoderResult.h"
 2464              		.file 7 "src/BitMatrix.h"
GAS LISTING C:\Users\jisu8\AppData\Local\Temp\ccX0Ht2c.s 			page 67


 2465              		.file 8 "src/ResultPoint.h"
 2466              		.file 9 "src/pdf417/PDFBoundingBox.h"
 2467              		.file 10 "src/pdf417/PDFCodeword.h"
 2468              		.file 11 "src/pdf417/PDFBarcodeMetadata.h"
 2469              		.file 12 "src/pdf417/PDFDetectionResultColumn.h"
 2470              		.file 13 "src/pdf417/PDFDetectionResult.h"
 2471              		.file 14 "src/pdf417/PDFCodewordDecoder.h"
 2472              		.file 15 "D:/3.tools/mingw/mingw32/i686-w64-mingw32/include/stdlib.h"
 2473              		.file 16 "D:/3.tools/mingw/mingw32/i686-w64-mingw32/include/malloc.h"
 2474              		.file 17 "<built-in>"
 2475              		.file 18 "src/pdf417/PDFScanningDecoder.h"