GAS LISTING C:\Users\jisu8\AppData\Local\Temp\ccKup3Lg.s 			page 1


   1              		.file	"PDFScanningDecoder.c"
   2              		.text
   3              	Ltext0:
   4              		.section .rdata,"dr"
   5              		.align 4
   6              	_CODEWORD_SKEW_SIZE:
   7 0000 02000000 		.long	2
   8              		.align 4
   9              	_MAX_ERRORS:
  10 0004 03000000 		.long	3
  11              		.align 4
  12              	_MAX_EC_CODEWORDS:
  13 0008 00020000 		.long	512
  14              		.comm	_result_bits, 32, 5
  15              		.comm	_CodeWord, 20, 2
  16              		.align 4
  17              	LC0:
  18 000c 4765744D 		.ascii "GetModuleBitCount minColumn=%d, maxColumn=%d, leftToRight=%d, codewordStartColumn=%d, imag
  18      6F64756C 
  18      65426974 
  18      436F756E 
  18      74206D69 
  19              		.text
  21              	_AdjustCodewordStartColumn:
  22              	LFB4:
  23              		.file 1 "src/pdf417/PDFScanningDecoder.c"
   1:src/pdf417/PDFScanningDecoder.c **** 
   2:src/pdf417/PDFScanningDecoder.c **** #include "PDFScanningDecoder.h"
   3:src/pdf417/PDFScanningDecoder.c **** #include "PDFBoundingBox.h"
   4:src/pdf417/PDFScanningDecoder.c **** #include "PDFDetectionResultColumn.h"
   5:src/pdf417/PDFScanningDecoder.c **** #include "PDFDetectionResult.h"
   6:src/pdf417/PDFScanningDecoder.c **** #include "PDFCodewordDecoder.h"
   7:src/pdf417/PDFScanningDecoder.c **** #include "DecodeStatus.h"
   8:src/pdf417/PDFScanningDecoder.c **** #include "library.h"
   9:src/pdf417/PDFScanningDecoder.c **** #include <stdlib.h>
  10:src/pdf417/PDFScanningDecoder.c **** 
  11:src/pdf417/PDFScanningDecoder.c **** static const int CODEWORD_SKEW_SIZE = 2;
  12:src/pdf417/PDFScanningDecoder.c **** static const int MAX_ERRORS = 3;
  13:src/pdf417/PDFScanningDecoder.c **** static const int MAX_EC_CODEWORDS = 512;
  14:src/pdf417/PDFScanningDecoder.c **** 
  15:src/pdf417/PDFScanningDecoder.c **** result_bits[8];
  16:src/pdf417/PDFScanningDecoder.c **** 
  17:src/pdf417/PDFScanningDecoder.c **** Codeword_t CodeWord;
  18:src/pdf417/PDFScanningDecoder.c **** 
  19:src/pdf417/PDFScanningDecoder.c **** static int AdjustCodewordStartColumn(const BitMatrix_t * image, int minColumn, int maxColumn, uint8
  20:src/pdf417/PDFScanningDecoder.c **** {
  24              		.loc 1 20 1
  25              		.cfi_startproc
  26 0000 55       		pushl	%ebp
  27              	LCFI0:
  28              		.cfi_def_cfa_offset 8
  29              		.cfi_offset 5, -8
  30 0001 89E5     		movl	%esp, %ebp
  31              	LCFI1:
  32              		.cfi_def_cfa_register 5
  33 0003 83EC48   		subl	$72, %esp
  34 0006 8B4514   		movl	20(%ebp), %eax
GAS LISTING C:\Users\jisu8\AppData\Local\Temp\ccKup3Lg.s 			page 2


  35 0009 8845E4   		movb	%al, -28(%ebp)
  21:src/pdf417/PDFScanningDecoder.c **** 
  22:src/pdf417/PDFScanningDecoder.c **** 	printf("GetModuleBitCount minColumn=%d, maxColumn=%d, leftToRight=%d, codewordStartColumn=%d, imag
  36              		.loc 1 22 2
  37 000c 0FB645E4 		movzbl	-28(%ebp), %eax
  38 0010 8B551C   		movl	28(%ebp), %edx
  39 0013 89542414 		movl	%edx, 20(%esp)
  40 0017 8B5518   		movl	24(%ebp), %edx
  41 001a 89542410 		movl	%edx, 16(%esp)
  42 001e 8944240C 		movl	%eax, 12(%esp)
  43 0022 8B4510   		movl	16(%ebp), %eax
  44 0025 89442408 		movl	%eax, 8(%esp)
  45 0029 8B450C   		movl	12(%ebp), %eax
  46 002c 89442404 		movl	%eax, 4(%esp)
  47 0030 C704240C 		movl	$LC0, (%esp)
  47      000000
  48 0037 E8000000 		call	_printf
  48      00
  23:src/pdf417/PDFScanningDecoder.c **** 		minColumn, maxColumn, leftToRight, codewordStartColumn, imageRow);
  24:src/pdf417/PDFScanningDecoder.c **** 	
  25:src/pdf417/PDFScanningDecoder.c **** 	int correctedStartColumn = codewordStartColumn;
  49              		.loc 1 25 6
  50 003c 8B4518   		movl	24(%ebp), %eax
  51 003f 8945F4   		movl	%eax, -12(%ebp)
  26:src/pdf417/PDFScanningDecoder.c **** 	int increment = leftToRight ? -1 : 1;
  52              		.loc 1 26 35
  53 0042 807DE400 		cmpb	$0, -28(%ebp)
  54 0046 7407     		je	L2
  55              		.loc 1 26 35 is_stmt 0 discriminator 1
  56 0048 B8FFFFFF 		movl	$-1, %eax
  56      FF
  57 004d EB05     		jmp	L3
  58              	L2:
  59              		.loc 1 26 35 discriminator 2
  60 004f B8010000 		movl	$1, %eax
  60      00
  61              	L3:
  62              		.loc 1 26 6 is_stmt 1 discriminator 4
  63 0054 8945F0   		movl	%eax, -16(%ebp)
  64              	LBB2:
  27:src/pdf417/PDFScanningDecoder.c **** 	// there should be no black pixels before the start column. If there are, then we need to start ea
  28:src/pdf417/PDFScanningDecoder.c **** 	for (int i = 0; i < 2; i++) 
  65              		.loc 1 28 11 discriminator 4
  66 0057 C745EC00 		movl	$0, -20(%ebp)
  66      000000
  67              		.loc 1 28 2 discriminator 4
  68 005e EB68     		jmp	L4
  69              	L11:
  29:src/pdf417/PDFScanningDecoder.c **** 	{
  30:src/pdf417/PDFScanningDecoder.c **** 		while ((leftToRight ? correctedStartColumn >= minColumn : correctedStartColumn < maxColumn) &&
  31:src/pdf417/PDFScanningDecoder.c **** 			leftToRight == image->bits[imageRow * image->_width + correctedStartColumn]) 
  32:src/pdf417/PDFScanningDecoder.c **** 			{
  33:src/pdf417/PDFScanningDecoder.c **** 			if (abs(codewordStartColumn - correctedStartColumn) > CODEWORD_SKEW_SIZE) 
  70              		.loc 1 33 32
  71 0060 8B4518   		movl	24(%ebp), %eax
  72 0063 2B45F4   		subl	-12(%ebp), %eax
  73              		.loc 1 33 8
GAS LISTING C:\Users\jisu8\AppData\Local\Temp\ccKup3Lg.s 			page 3


  74 0066 99       		cltd
  75 0067 31D0     		xorl	%edx, %eax
  76 0069 29D0     		subl	%edx, %eax
  77              		.loc 1 33 56
  78 006b BA020000 		movl	$2, %edx
  78      00
  79              		.loc 1 33 7
  80 0070 39D0     		cmpl	%edx, %eax
  81 0072 7E05     		jle	L6
  34:src/pdf417/PDFScanningDecoder.c **** 			{
  35:src/pdf417/PDFScanningDecoder.c **** 				return codewordStartColumn;
  82              		.loc 1 35 12
  83 0074 8B4518   		movl	24(%ebp), %eax
  84 0077 EB58     		jmp	L7
  85              	L6:
  36:src/pdf417/PDFScanningDecoder.c **** 			}
  37:src/pdf417/PDFScanningDecoder.c **** 			correctedStartColumn += increment;
  86              		.loc 1 37 25
  87 0079 8B45F0   		movl	-16(%ebp), %eax
  88 007c 0145F4   		addl	%eax, -12(%ebp)
  89              	L5:
  30:src/pdf417/PDFScanningDecoder.c **** 			leftToRight == image->bits[imageRow * image->_width + correctedStartColumn]) 
  90              		.loc 1 30 9
  91 007f 807DE400 		cmpb	$0, -28(%ebp)
  92 0083 740A     		je	L8
  30:src/pdf417/PDFScanningDecoder.c **** 			leftToRight == image->bits[imageRow * image->_width + correctedStartColumn]) 
  93              		.loc 1 30 9 is_stmt 0 discriminator 1
  94 0085 8B45F4   		movl	-12(%ebp), %eax
  95 0088 3B450C   		cmpl	12(%ebp), %eax
  96 008b 7D0A     		jge	L9
  97 008d EB28     		jmp	L10
  98              	L8:
  30:src/pdf417/PDFScanningDecoder.c **** 			leftToRight == image->bits[imageRow * image->_width + correctedStartColumn]) 
  99              		.loc 1 30 95 is_stmt 1 discriminator 2
 100 008f 8B45F4   		movl	-12(%ebp), %eax
 101 0092 3B4510   		cmpl	16(%ebp), %eax
 102 0095 7D20     		jge	L10
 103              	L9:
  31:src/pdf417/PDFScanningDecoder.c **** 			{
 104              		.loc 1 31 24 discriminator 3
 105 0097 8B4508   		movl	8(%ebp), %eax
 106 009a 8B500C   		movl	12(%eax), %edx
  31:src/pdf417/PDFScanningDecoder.c **** 			{
 107              		.loc 1 31 47 discriminator 3
 108 009d 8B4508   		movl	8(%ebp), %eax
 109 00a0 8B00     		movl	(%eax), %eax
  31:src/pdf417/PDFScanningDecoder.c **** 			{
 110              		.loc 1 31 40 discriminator 3
 111 00a2 0FAF451C 		imull	28(%ebp), %eax
 112 00a6 89C1     		movl	%eax, %ecx
  31:src/pdf417/PDFScanningDecoder.c **** 			{
 113              		.loc 1 31 56 discriminator 3
 114 00a8 8B45F4   		movl	-12(%ebp), %eax
 115 00ab 01C8     		addl	%ecx, %eax
  31:src/pdf417/PDFScanningDecoder.c **** 			{
 116              		.loc 1 31 30 discriminator 3
 117 00ad 01D0     		addl	%edx, %eax
GAS LISTING C:\Users\jisu8\AppData\Local\Temp\ccKup3Lg.s 			page 4


 118 00af 0FB600   		movzbl	(%eax), %eax
  30:src/pdf417/PDFScanningDecoder.c **** 			leftToRight == image->bits[imageRow * image->_width + correctedStartColumn]) 
 119              		.loc 1 30 95 discriminator 3
 120 00b2 3845E4   		cmpb	%al, -28(%ebp)
 121 00b5 74A9     		je	L11
 122              	L10:
  38:src/pdf417/PDFScanningDecoder.c **** 		}
  39:src/pdf417/PDFScanningDecoder.c **** 		increment = -increment;
 123              		.loc 1 39 13 discriminator 2
 124 00b7 F75DF0   		negl	-16(%ebp)
  40:src/pdf417/PDFScanningDecoder.c **** 		leftToRight = !leftToRight;
 125              		.loc 1 40 17 discriminator 2
 126 00ba 807DE400 		cmpb	$0, -28(%ebp)
 127 00be 0F94C0   		sete	%al
 128              		.loc 1 40 15 discriminator 2
 129 00c1 8845E4   		movb	%al, -28(%ebp)
  28:src/pdf417/PDFScanningDecoder.c **** 	{
 130              		.loc 1 28 26 discriminator 2
 131 00c4 8345EC01 		addl	$1, -20(%ebp)
 132              	L4:
  28:src/pdf417/PDFScanningDecoder.c **** 	{
 133              		.loc 1 28 2 discriminator 1
 134 00c8 837DEC01 		cmpl	$1, -20(%ebp)
 135 00cc 7EB1     		jle	L5
 136              	LBE2:
  41:src/pdf417/PDFScanningDecoder.c **** 	}
  42:src/pdf417/PDFScanningDecoder.c **** 	return correctedStartColumn;
 137              		.loc 1 42 9
 138 00ce 8B45F4   		movl	-12(%ebp), %eax
 139              	L7:
  43:src/pdf417/PDFScanningDecoder.c **** }
 140              		.loc 1 43 1
 141 00d1 C9       		leave
 142              	LCFI2:
 143              		.cfi_restore 5
 144              		.cfi_def_cfa 4, 4
 145 00d2 C3       		ret
 146              		.cfi_endproc
 147              	LFE4:
 148              		.section .rdata,"dr"
 149 006f 00       		.align 4
 150              	LC1:
 151 0070 4765744D 		.ascii "GetModuleBitCount minColumn=%d, maxColumn=%d, leftToRight=%d, startColumn=%d, imageRow=%d\
 151      6F64756C 
 151      65426974 
 151      436F756E 
 151      74206D69 
 152              		.text
 154              	_GetModuleBitCount:
 155              	LFB5:
  44:src/pdf417/PDFScanningDecoder.c **** 
  45:src/pdf417/PDFScanningDecoder.c **** static uint8_t GetModuleBitCount(const BitMatrix_t * image, int minColumn, int maxColumn, uint8_t l
  46:src/pdf417/PDFScanningDecoder.c **** {
 156              		.loc 1 46 1
 157              		.cfi_startproc
 158 00d3 55       		pushl	%ebp
 159              	LCFI3:
GAS LISTING C:\Users\jisu8\AppData\Local\Temp\ccKup3Lg.s 			page 5


 160              		.cfi_def_cfa_offset 8
 161              		.cfi_offset 5, -8
 162 00d4 89E5     		movl	%esp, %ebp
 163              	LCFI4:
 164              		.cfi_def_cfa_register 5
 165 00d6 83EC48   		subl	$72, %esp
 166 00d9 8B5514   		movl	20(%ebp), %edx
 167 00dc 8B4524   		movl	36(%ebp), %eax
 168 00df 8855E4   		movb	%dl, -28(%ebp)
 169 00e2 8845E0   		movb	%al, -32(%ebp)
  47:src/pdf417/PDFScanningDecoder.c **** 
  48:src/pdf417/PDFScanningDecoder.c **** 	printf("GetModuleBitCount minColumn=%d, maxColumn=%d, leftToRight=%d, startColumn=%d, imageRow=%d\
 170              		.loc 1 48 2
 171 00e5 0FB645E4 		movzbl	-28(%ebp), %eax
 172 00e9 8B551C   		movl	28(%ebp), %edx
 173 00ec 89542414 		movl	%edx, 20(%esp)
 174 00f0 8B5518   		movl	24(%ebp), %edx
 175 00f3 89542410 		movl	%edx, 16(%esp)
 176 00f7 8944240C 		movl	%eax, 12(%esp)
 177 00fb 8B4510   		movl	16(%ebp), %eax
 178 00fe 89442408 		movl	%eax, 8(%esp)
 179 0102 8B450C   		movl	12(%ebp), %eax
 180 0105 89442404 		movl	%eax, 4(%esp)
 181 0109 C7042470 		movl	$LC1, (%esp)
 181      000000
 182 0110 E8000000 		call	_printf
 182      00
  49:src/pdf417/PDFScanningDecoder.c **** 		minColumn, maxColumn, leftToRight, startColumn, imageRow );
  50:src/pdf417/PDFScanningDecoder.c **** 	
  51:src/pdf417/PDFScanningDecoder.c **** 	int imageColumn = startColumn;
 183              		.loc 1 51 6
 184 0115 8B4518   		movl	24(%ebp), %eax
 185 0118 8945F4   		movl	%eax, -12(%ebp)
  52:src/pdf417/PDFScanningDecoder.c **** 	unsigned int moduleNumber = 0;
 186              		.loc 1 52 15
 187 011b C745F000 		movl	$0, -16(%ebp)
 187      000000
  53:src/pdf417/PDFScanningDecoder.c **** 	int increment = leftToRight ? 1 : -1;
 188              		.loc 1 53 34
 189 0122 807DE400 		cmpb	$0, -28(%ebp)
 190 0126 7407     		je	L14
 191              		.loc 1 53 34 is_stmt 0 discriminator 1
 192 0128 B8010000 		movl	$1, %eax
 192      00
 193 012d EB05     		jmp	L15
 194              	L14:
 195              		.loc 1 53 34 discriminator 2
 196 012f B8FFFFFF 		movl	$-1, %eax
 196      FF
 197              	L15:
 198              		.loc 1 53 6 is_stmt 1 discriminator 4
 199 0134 8945E8   		movl	%eax, -24(%ebp)
  54:src/pdf417/PDFScanningDecoder.c **** 	uint8_t previousPixelValue = leftToRight;
 200              		.loc 1 54 10 discriminator 4
 201 0137 0FB645E4 		movzbl	-28(%ebp), %eax
 202 013b 8845EF   		movb	%al, -17(%ebp)
  55:src/pdf417/PDFScanningDecoder.c **** 	fill(length,moduleBitCount,0);
GAS LISTING C:\Users\jisu8\AppData\Local\Temp\ccKup3Lg.s 			page 6


 203              		.loc 1 55 2 discriminator 4
 204 013e 0FB645E0 		movzbl	-32(%ebp), %eax
 205 0142 C7442408 		movl	$0, 8(%esp)
 205      00000000 
 206 014a 8B5520   		movl	32(%ebp), %edx
 207 014d 89542404 		movl	%edx, 4(%esp)
 208 0151 890424   		movl	%eax, (%esp)
 209 0154 E8000000 		call	_fill
 209      00
  56:src/pdf417/PDFScanningDecoder.c **** 	
  57:src/pdf417/PDFScanningDecoder.c **** 	while ((leftToRight ? (imageColumn < maxColumn) : (imageColumn >= minColumn)) && moduleNumber < le
 210              		.loc 1 57 8 discriminator 4
 211 0159 EB5B     		jmp	L16
 212              	L21:
  58:src/pdf417/PDFScanningDecoder.c **** 	{
  59:src/pdf417/PDFScanningDecoder.c **** 		if (image->bits[imageRow * image->_width + imageColumn] == previousPixelValue) 
 213              		.loc 1 59 12
 214 015b 8B4508   		movl	8(%ebp), %eax
 215 015e 8B500C   		movl	12(%eax), %edx
 216              		.loc 1 59 35
 217 0161 8B4508   		movl	8(%ebp), %eax
 218 0164 8B00     		movl	(%eax), %eax
 219              		.loc 1 59 28
 220 0166 0FAF451C 		imull	28(%ebp), %eax
 221 016a 89C1     		movl	%eax, %ecx
 222              		.loc 1 59 44
 223 016c 8B45F4   		movl	-12(%ebp), %eax
 224 016f 01C8     		addl	%ecx, %eax
 225              		.loc 1 59 18
 226 0171 01D0     		addl	%edx, %eax
 227 0173 0FB600   		movzbl	(%eax), %eax
 228              		.loc 1 59 6
 229 0176 3845EF   		cmpb	%al, -17(%ebp)
 230 0179 752D     		jne	L17
  60:src/pdf417/PDFScanningDecoder.c **** 		{
  61:src/pdf417/PDFScanningDecoder.c **** 			moduleBitCount[moduleNumber] += 1;
 231              		.loc 1 61 33
 232 017b 8B45F0   		movl	-16(%ebp), %eax
 233 017e 8D148500 		leal	0(,%eax,4), %edx
 233      000000
 234 0185 8B4520   		movl	32(%ebp), %eax
 235 0188 01D0     		addl	%edx, %eax
 236 018a 8B10     		movl	(%eax), %edx
 237 018c 8B45F0   		movl	-16(%ebp), %eax
 238 018f 8D0C8500 		leal	0(,%eax,4), %ecx
 238      000000
 239 0196 8B4520   		movl	32(%ebp), %eax
 240 0199 01C8     		addl	%ecx, %eax
 241 019b 83C201   		addl	$1, %edx
 242 019e 8910     		movl	%edx, (%eax)
  62:src/pdf417/PDFScanningDecoder.c **** 			imageColumn += increment;
 243              		.loc 1 62 16
 244 01a0 8B45E8   		movl	-24(%ebp), %eax
 245 01a3 0145F4   		addl	%eax, -12(%ebp)
 246 01a6 EB0E     		jmp	L16
 247              	L17:
  63:src/pdf417/PDFScanningDecoder.c **** 		}
GAS LISTING C:\Users\jisu8\AppData\Local\Temp\ccKup3Lg.s 			page 7


  64:src/pdf417/PDFScanningDecoder.c **** 		else {
  65:src/pdf417/PDFScanningDecoder.c **** 			moduleNumber += 1;
 248              		.loc 1 65 17
 249 01a8 8345F001 		addl	$1, -16(%ebp)
  66:src/pdf417/PDFScanningDecoder.c **** 			previousPixelValue = !previousPixelValue;
 250              		.loc 1 66 25
 251 01ac 807DEF00 		cmpb	$0, -17(%ebp)
 252 01b0 0F94C0   		sete	%al
 253              		.loc 1 66 23
 254 01b3 8845EF   		movb	%al, -17(%ebp)
 255              	L16:
  57:src/pdf417/PDFScanningDecoder.c **** 	{
 256              		.loc 1 57 8
 257 01b6 807DE400 		cmpb	$0, -28(%ebp)
 258 01ba 740A     		je	L18
  57:src/pdf417/PDFScanningDecoder.c **** 	{
 259              		.loc 1 57 8 is_stmt 0 discriminator 1
 260 01bc 8B45F4   		movl	-12(%ebp), %eax
 261 01bf 3B4510   		cmpl	16(%ebp), %eax
 262 01c2 7C0A     		jl	L19
 263 01c4 EB11     		jmp	L20
 264              	L18:
  57:src/pdf417/PDFScanningDecoder.c **** 	{
 265              		.loc 1 57 80 is_stmt 1 discriminator 2
 266 01c6 8B45F4   		movl	-12(%ebp), %eax
 267 01c9 3B450C   		cmpl	12(%ebp), %eax
 268 01cc 7C09     		jl	L20
 269              	L19:
  57:src/pdf417/PDFScanningDecoder.c **** 	{
 270              		.loc 1 57 96 discriminator 3
 271 01ce 0FB645E0 		movzbl	-32(%ebp), %eax
  57:src/pdf417/PDFScanningDecoder.c **** 	{
 272              		.loc 1 57 80 discriminator 3
 273 01d2 3945F0   		cmpl	%eax, -16(%ebp)
 274 01d5 7284     		jb	L21
 275              	L20:
  67:src/pdf417/PDFScanningDecoder.c **** 		}
  68:src/pdf417/PDFScanningDecoder.c **** 	}
  69:src/pdf417/PDFScanningDecoder.c **** 	return moduleNumber == length || (imageColumn == (leftToRight ? maxColumn : minColumn) && moduleNu
 276              		.loc 1 69 22
 277 01d7 0FB645E0 		movzbl	-32(%ebp), %eax
 278              		.loc 1 69 32
 279 01db 3945F0   		cmpl	%eax, -16(%ebp)
 280 01de 741F     		je	L22
 281              		.loc 1 69 76 discriminator 2
 282 01e0 807DE400 		cmpb	$0, -28(%ebp)
 283 01e4 7405     		je	L23
 284              		.loc 1 69 76 is_stmt 0 discriminator 3
 285 01e6 8B4510   		movl	16(%ebp), %eax
 286 01e9 EB03     		jmp	L24
 287              	L23:
 288              		.loc 1 69 76 discriminator 4
 289 01eb 8B450C   		movl	12(%ebp), %eax
 290              	L24:
 291              		.loc 1 69 32 is_stmt 1 discriminator 6
 292 01ee 3B45F4   		cmpl	-12(%ebp), %eax
 293 01f1 7513     		jne	L25
GAS LISTING C:\Users\jisu8\AppData\Local\Temp\ccKup3Lg.s 			page 8


 294              		.loc 1 69 115 discriminator 7
 295 01f3 0FB645E0 		movzbl	-32(%ebp), %eax
 296 01f7 83E801   		subl	$1, %eax
 297              		.loc 1 69 89 discriminator 7
 298 01fa 3945F0   		cmpl	%eax, -16(%ebp)
 299 01fd 7507     		jne	L25
 300              	L22:
 301              		.loc 1 69 32 discriminator 9
 302 01ff B8010000 		movl	$1, %eax
 302      00
 303 0204 EB05     		jmp	L26
 304              	L25:
 305              		.loc 1 69 32 is_stmt 0 discriminator 10
 306 0206 B8000000 		movl	$0, %eax
 306      00
 307              	L26:
  70:src/pdf417/PDFScanningDecoder.c **** }
 308              		.loc 1 70 1 is_stmt 1 discriminator 12
 309 020b C9       		leave
 310              	LCFI5:
 311              		.cfi_restore 5
 312              		.cfi_def_cfa 4, 4
 313 020c C3       		ret
 314              		.cfi_endproc
 315              	LFE5:
 317              	_CheckCodewordSkew:
 318              	LFB6:
  71:src/pdf417/PDFScanningDecoder.c **** 
  72:src/pdf417/PDFScanningDecoder.c **** static uint8_t CheckCodewordSkew(int codewordSize, int minCodewordWidth, int maxCodewordWidth)
  73:src/pdf417/PDFScanningDecoder.c **** {
 319              		.loc 1 73 1
 320              		.cfi_startproc
 321 020d 55       		pushl	%ebp
 322              	LCFI6:
 323              		.cfi_def_cfa_offset 8
 324              		.cfi_offset 5, -8
 325 020e 89E5     		movl	%esp, %ebp
 326              	LCFI7:
 327              		.cfi_def_cfa_register 5
  74:src/pdf417/PDFScanningDecoder.c **** 	return minCodewordWidth - CODEWORD_SKEW_SIZE <= codewordSize &&
 328              		.loc 1 74 26
 329 0210 BA020000 		movl	$2, %edx
 329      00
 330 0215 8B450C   		movl	12(%ebp), %eax
 331 0218 29D0     		subl	%edx, %eax
 332              		.loc 1 74 63
 333 021a 394508   		cmpl	%eax, 8(%ebp)
 334 021d 7C16     		jl	L29
  75:src/pdf417/PDFScanningDecoder.c **** 		codewordSize <= maxCodewordWidth + CODEWORD_SKEW_SIZE;
 335              		.loc 1 75 36 discriminator 1
 336 021f BA020000 		movl	$2, %edx
 336      00
 337 0224 8B4510   		movl	16(%ebp), %eax
 338 0227 01D0     		addl	%edx, %eax
  74:src/pdf417/PDFScanningDecoder.c **** 	return minCodewordWidth - CODEWORD_SKEW_SIZE <= codewordSize &&
 339              		.loc 1 74 63 discriminator 1
 340 0229 394508   		cmpl	%eax, 8(%ebp)
GAS LISTING C:\Users\jisu8\AppData\Local\Temp\ccKup3Lg.s 			page 9


 341 022c 7F07     		jg	L29
  74:src/pdf417/PDFScanningDecoder.c **** 	return minCodewordWidth - CODEWORD_SKEW_SIZE <= codewordSize &&
 342              		.loc 1 74 63 is_stmt 0 discriminator 3
 343 022e B8010000 		movl	$1, %eax
 343      00
 344 0233 EB05     		jmp	L30
 345              	L29:
  74:src/pdf417/PDFScanningDecoder.c **** 	return minCodewordWidth - CODEWORD_SKEW_SIZE <= codewordSize &&
 346              		.loc 1 74 63 discriminator 4
 347 0235 B8000000 		movl	$0, %eax
 347      00
 348              	L30:
  76:src/pdf417/PDFScanningDecoder.c **** }
 349              		.loc 1 76 1 is_stmt 1 discriminator 6
 350 023a 5D       		popl	%ebp
 351              	LCFI8:
 352              		.cfi_restore 5
 353              		.cfi_def_cfa 4, 4
 354 023b C3       		ret
 355              		.cfi_endproc
 356              	LFE6:
 357              		.section .rdata,"dr"
 358 00cb 00       		.align 4
 359              	LC2:
 360 00cc 47657442 		.ascii "GetBitCountForCodeword codeword=%d\12\0"
 360      6974436F 
 360      756E7446 
 360      6F72436F 
 360      6465776F 
 361              		.text
 363              	_GetBitCountForCodeword:
 364              	LFB7:
  77:src/pdf417/PDFScanningDecoder.c **** 
  78:src/pdf417/PDFScanningDecoder.c **** static int * GetBitCountForCodeword(int codeword)
  79:src/pdf417/PDFScanningDecoder.c **** {
 365              		.loc 1 79 1
 366              		.cfi_startproc
 367 023c 55       		pushl	%ebp
 368              	LCFI9:
 369              		.cfi_def_cfa_offset 8
 370              		.cfi_offset 5, -8
 371 023d 89E5     		movl	%esp, %ebp
 372              	LCFI10:
 373              		.cfi_def_cfa_register 5
 374 023f 83EC28   		subl	$40, %esp
  80:src/pdf417/PDFScanningDecoder.c **** 
  81:src/pdf417/PDFScanningDecoder.c **** 	printf("GetBitCountForCodeword codeword=%d\n", codeword);
 375              		.loc 1 81 2
 376 0242 8B4508   		movl	8(%ebp), %eax
 377 0245 89442404 		movl	%eax, 4(%esp)
 378 0249 C70424CC 		movl	$LC2, (%esp)
 378      000000
 379 0250 E8000000 		call	_printf
 379      00
  82:src/pdf417/PDFScanningDecoder.c **** 
  83:src/pdf417/PDFScanningDecoder.c ****     fill(BARS_IN_MODULE,result_bits,0);
 380              		.loc 1 83 5
GAS LISTING C:\Users\jisu8\AppData\Local\Temp\ccKup3Lg.s 			page 10


 381 0255 A1000000 		movl	_BARS_IN_MODULE, %eax
 381      00
 382 025a C7442408 		movl	$0, 8(%esp)
 382      00000000 
 383 0262 C7442404 		movl	$_result_bits, 4(%esp)
 383      00000000 
 384 026a 890424   		movl	%eax, (%esp)
 385 026d E8000000 		call	_fill
 385      00
  84:src/pdf417/PDFScanningDecoder.c **** 	int previousValue = 0;
 386              		.loc 1 84 6
 387 0272 C745F400 		movl	$0, -12(%ebp)
 387      000000
  85:src/pdf417/PDFScanningDecoder.c **** 	int i = sizeof(result_bits)/sizeof(result_bits[0]) - 1;
 388              		.loc 1 85 6
 389 0279 C745F007 		movl	$7, -16(%ebp)
 389      000000
 390              	L35:
  86:src/pdf417/PDFScanningDecoder.c **** 	while (1) 
  87:src/pdf417/PDFScanningDecoder.c **** 	{
  88:src/pdf417/PDFScanningDecoder.c **** 		if ((codeword & 0x1) != previousValue) 
 391              		.loc 1 88 17
 392 0280 8B4508   		movl	8(%ebp), %eax
 393 0283 83E001   		andl	$1, %eax
 394              		.loc 1 88 6
 395 0286 3945F4   		cmpl	%eax, -12(%ebp)
 396 0289 7413     		je	L33
  89:src/pdf417/PDFScanningDecoder.c **** 		{
  90:src/pdf417/PDFScanningDecoder.c **** 			previousValue = codeword & 0x1;
 397              		.loc 1 90 18
 398 028b 8B4508   		movl	8(%ebp), %eax
 399 028e 83E001   		andl	$1, %eax
 400 0291 8945F4   		movl	%eax, -12(%ebp)
  91:src/pdf417/PDFScanningDecoder.c **** 			i--;
 401              		.loc 1 91 5
 402 0294 836DF001 		subl	$1, -16(%ebp)
  92:src/pdf417/PDFScanningDecoder.c **** 			if (i < 0) 
 403              		.loc 1 92 7
 404 0298 837DF000 		cmpl	$0, -16(%ebp)
 405 029c 781C     		js	L38
 406              	L33:
  93:src/pdf417/PDFScanningDecoder.c **** 			{
  94:src/pdf417/PDFScanningDecoder.c **** 				break;
  95:src/pdf417/PDFScanningDecoder.c **** 			}
  96:src/pdf417/PDFScanningDecoder.c **** 		}
  97:src/pdf417/PDFScanningDecoder.c **** 		result_bits[i]++;
 407              		.loc 1 97 14
 408 029e 8B45F0   		movl	-16(%ebp), %eax
 409 02a1 8B048500 		movl	_result_bits(,%eax,4), %eax
 409      000000
 410              		.loc 1 97 17
 411 02a8 8D5001   		leal	1(%eax), %edx
 412 02ab 8B45F0   		movl	-16(%ebp), %eax
 413 02ae 89148500 		movl	%edx, _result_bits(,%eax,4)
 413      000000
  98:src/pdf417/PDFScanningDecoder.c **** 		codeword >>= 1;
 414              		.loc 1 98 12
GAS LISTING C:\Users\jisu8\AppData\Local\Temp\ccKup3Lg.s 			page 11


 415 02b5 D17D08   		sarl	8(%ebp)
  88:src/pdf417/PDFScanningDecoder.c **** 		{
 416              		.loc 1 88 6
 417 02b8 EBC6     		jmp	L35
 418              	L38:
  94:src/pdf417/PDFScanningDecoder.c **** 			}
 419              		.loc 1 94 5
 420 02ba 90       		nop
  99:src/pdf417/PDFScanningDecoder.c **** 	}
 100:src/pdf417/PDFScanningDecoder.c **** 	return result_bits;
 421              		.loc 1 100 9
 422 02bb B8000000 		movl	$_result_bits, %eax
 422      00
 101:src/pdf417/PDFScanningDecoder.c **** }
 423              		.loc 1 101 1
 424 02c0 C9       		leave
 425              	LCFI11:
 426              		.cfi_restore 5
 427              		.cfi_def_cfa 4, 4
 428 02c1 C3       		ret
 429              		.cfi_endproc
 430              	LFE7:
 432              	_GetCodewordBucketNumberRet:
 433              	LFB8:
 102:src/pdf417/PDFScanningDecoder.c **** 
 103:src/pdf417/PDFScanningDecoder.c **** static int GetCodewordBucketNumberRet(const int * moduleBitCount)
 104:src/pdf417/PDFScanningDecoder.c **** {
 434              		.loc 1 104 1
 435              		.cfi_startproc
 436 02c2 55       		pushl	%ebp
 437              	LCFI12:
 438              		.cfi_def_cfa_offset 8
 439              		.cfi_offset 5, -8
 440 02c3 89E5     		movl	%esp, %ebp
 441              	LCFI13:
 442              		.cfi_def_cfa_register 5
 105:src/pdf417/PDFScanningDecoder.c **** 	return (moduleBitCount[0] - moduleBitCount[2] + moduleBitCount[4] - moduleBitCount[6] + 9) % 9;
 443              		.loc 1 105 24
 444 02c5 8B4508   		movl	8(%ebp), %eax
 445 02c8 8B10     		movl	(%eax), %edx
 446              		.loc 1 105 44
 447 02ca 8B4508   		movl	8(%ebp), %eax
 448 02cd 83C008   		addl	$8, %eax
 449 02d0 8B00     		movl	(%eax), %eax
 450              		.loc 1 105 28
 451 02d2 29C2     		subl	%eax, %edx
 452              		.loc 1 105 64
 453 02d4 8B4508   		movl	8(%ebp), %eax
 454 02d7 83C010   		addl	$16, %eax
 455 02da 8B00     		movl	(%eax), %eax
 456              		.loc 1 105 48
 457 02dc 01C2     		addl	%eax, %edx
 458              		.loc 1 105 84
 459 02de 8B4508   		movl	8(%ebp), %eax
 460 02e1 83C018   		addl	$24, %eax
 461 02e4 8B00     		movl	(%eax), %eax
 462              		.loc 1 105 68
GAS LISTING C:\Users\jisu8\AppData\Local\Temp\ccKup3Lg.s 			page 12


 463 02e6 29C2     		subl	%eax, %edx
 464 02e8 89D0     		movl	%edx, %eax
 465              		.loc 1 105 88
 466 02ea 8D4809   		leal	9(%eax), %ecx
 467              		.loc 1 105 93
 468 02ed BA398EE3 		movl	$954437177, %edx
 468      38
 469 02f2 89C8     		movl	%ecx, %eax
 470 02f4 F7EA     		imull	%edx
 471 02f6 D1FA     		sarl	%edx
 472 02f8 89C8     		movl	%ecx, %eax
 473 02fa C1F81F   		sarl	$31, %eax
 474 02fd 29C2     		subl	%eax, %edx
 475 02ff 89D0     		movl	%edx, %eax
 476 0301 C1E003   		sall	$3, %eax
 477 0304 01D0     		addl	%edx, %eax
 478 0306 29C1     		subl	%eax, %ecx
 479 0308 89CA     		movl	%ecx, %edx
 480 030a 89D0     		movl	%edx, %eax
 106:src/pdf417/PDFScanningDecoder.c **** }
 481              		.loc 1 106 1
 482 030c 5D       		popl	%ebp
 483              	LCFI14:
 484              		.cfi_restore 5
 485              		.cfi_def_cfa 4, 4
 486 030d C3       		ret
 487              		.cfi_endproc
 488              	LFE8:
 490              	_GetCodewordBucketNumber:
 491              	LFB9:
 107:src/pdf417/PDFScanningDecoder.c **** 
 108:src/pdf417/PDFScanningDecoder.c **** 
 109:src/pdf417/PDFScanningDecoder.c **** static int GetCodewordBucketNumber(int codeword)
 110:src/pdf417/PDFScanningDecoder.c **** {
 492              		.loc 1 110 1
 493              		.cfi_startproc
 494 030e 55       		pushl	%ebp
 495              	LCFI15:
 496              		.cfi_def_cfa_offset 8
 497              		.cfi_offset 5, -8
 498 030f 89E5     		movl	%esp, %ebp
 499              	LCFI16:
 500              		.cfi_def_cfa_register 5
 501 0311 83EC18   		subl	$24, %esp
 111:src/pdf417/PDFScanningDecoder.c **** 	return GetCodewordBucketNumberRet(GetBitCountForCodeword(codeword));
 502              		.loc 1 111 36
 503 0314 8B4508   		movl	8(%ebp), %eax
 504 0317 890424   		movl	%eax, (%esp)
 505 031a E81DFFFF 		call	_GetBitCountForCodeword
 505      FF
 506              		.loc 1 111 9
 507 031f 890424   		movl	%eax, (%esp)
 508 0322 E89BFFFF 		call	_GetCodewordBucketNumberRet
 508      FF
 112:src/pdf417/PDFScanningDecoder.c **** }
 509              		.loc 1 112 1
 510 0327 C9       		leave
GAS LISTING C:\Users\jisu8\AppData\Local\Temp\ccKup3Lg.s 			page 13


 511              	LCFI17:
 512              		.cfi_restore 5
 513              		.cfi_def_cfa 4, 4
 514 0328 C3       		ret
 515              		.cfi_endproc
 516              	LFE9:
 518              	_Codeword:
 519              	LFB10:
 113:src/pdf417/PDFScanningDecoder.c **** 
 114:src/pdf417/PDFScanningDecoder.c **** static Codeword_t * Codeword(int startX, int endX, int bucket, int value)
 115:src/pdf417/PDFScanningDecoder.c **** {
 520              		.loc 1 115 1
 521              		.cfi_startproc
 522 0329 55       		pushl	%ebp
 523              	LCFI18:
 524              		.cfi_def_cfa_offset 8
 525              		.cfi_offset 5, -8
 526 032a 89E5     		movl	%esp, %ebp
 527              	LCFI19:
 528              		.cfi_def_cfa_register 5
 116:src/pdf417/PDFScanningDecoder.c **** 	CodeWord._startX = startX;
 529              		.loc 1 116 19
 530 032c 8B4508   		movl	8(%ebp), %eax
 531 032f A3000000 		movl	%eax, _CodeWord
 531      00
 117:src/pdf417/PDFScanningDecoder.c **** 	CodeWord._endX = endX;
 532              		.loc 1 117 17
 533 0334 8B450C   		movl	12(%ebp), %eax
 534 0337 A3040000 		movl	%eax, _CodeWord+4
 534      00
 118:src/pdf417/PDFScanningDecoder.c **** 	CodeWord._bucket = bucket;
 535              		.loc 1 118 19
 536 033c 8B4510   		movl	16(%ebp), %eax
 537 033f A3080000 		movl	%eax, _CodeWord+8
 537      00
 119:src/pdf417/PDFScanningDecoder.c **** 	CodeWord._value = value;	
 538              		.loc 1 119 18
 539 0344 8B4514   		movl	20(%ebp), %eax
 540 0347 A30C0000 		movl	%eax, _CodeWord+12
 540      00
 120:src/pdf417/PDFScanningDecoder.c **** 
 121:src/pdf417/PDFScanningDecoder.c **** 	return &CodeWord;
 541              		.loc 1 121 9
 542 034c B8000000 		movl	$_CodeWord, %eax
 542      00
 122:src/pdf417/PDFScanningDecoder.c **** }
 543              		.loc 1 122 1
 544 0351 5D       		popl	%ebp
 545              	LCFI20:
 546              		.cfi_restore 5
 547              		.cfi_def_cfa 4, 4
 548 0352 C3       		ret
 549              		.cfi_endproc
 550              	LFE10:
 551              		.section .rdata,"dr"
 552              		.align 4
 553              	LC3:
GAS LISTING C:\Users\jisu8\AppData\Local\Temp\ccKup3Lg.s 			page 14


 554 00f0 44657465 		.ascii "DetectCodeword minColumn=%d, maxColumn=%d, leftToRight=%d, startColumn=%d, imageRow=%d, mi
 554      6374436F 
 554      6465776F 
 554      7264206D 
 554      696E436F 
 555              		.text
 557              	_DetectCodeword:
 558              	LFB11:
 123:src/pdf417/PDFScanningDecoder.c **** 
 124:src/pdf417/PDFScanningDecoder.c **** static Codeword_t * DetectCodeword(const BitMatrix_t * image, int minColumn, int maxColumn, uint8_t
 125:src/pdf417/PDFScanningDecoder.c **** {
 559              		.loc 1 125 1
 560              		.cfi_startproc
 561 0353 55       		pushl	%ebp
 562              	LCFI21:
 563              		.cfi_def_cfa_offset 8
 564              		.cfi_offset 5, -8
 565 0354 89E5     		movl	%esp, %ebp
 566              	LCFI22:
 567              		.cfi_def_cfa_register 5
 568 0356 83EC78   		subl	$120, %esp
 569 0359 8B4514   		movl	20(%ebp), %eax
 570 035c 8845B4   		movb	%al, -76(%ebp)
 126:src/pdf417/PDFScanningDecoder.c **** 	printf("DetectCodeword minColumn=%d, maxColumn=%d, leftToRight=%d, startColumn=%d, imageRow=%d, mi
 571              		.loc 1 126 2
 572 035f 0FB645B4 		movzbl	-76(%ebp), %eax
 573 0363 8B5524   		movl	36(%ebp), %edx
 574 0366 8954241C 		movl	%edx, 28(%esp)
 575 036a 8B5520   		movl	32(%ebp), %edx
 576 036d 89542418 		movl	%edx, 24(%esp)
 577 0371 8B551C   		movl	28(%ebp), %edx
 578 0374 89542414 		movl	%edx, 20(%esp)
 579 0378 8B5518   		movl	24(%ebp), %edx
 580 037b 89542410 		movl	%edx, 16(%esp)
 581 037f 8944240C 		movl	%eax, 12(%esp)
 582 0383 8B4510   		movl	16(%ebp), %eax
 583 0386 89442408 		movl	%eax, 8(%esp)
 584 038a 8B450C   		movl	12(%ebp), %eax
 585 038d 89442404 		movl	%eax, 4(%esp)
 586 0391 C70424F0 		movl	$LC3, (%esp)
 586      000000
 587 0398 E8000000 		call	_printf
 587      00
 127:src/pdf417/PDFScanningDecoder.c **** 		minColumn, maxColumn, leftToRight, startColumn, imageRow, minCodewordWidth, maxCodewordWidth);
 128:src/pdf417/PDFScanningDecoder.c **** 
 129:src/pdf417/PDFScanningDecoder.c **** 	startColumn = AdjustCodewordStartColumn(image, minColumn, maxColumn, leftToRight, startColumn, ima
 588              		.loc 1 129 16
 589 039d 0FB645B4 		movzbl	-76(%ebp), %eax
 590 03a1 8B551C   		movl	28(%ebp), %edx
 591 03a4 89542414 		movl	%edx, 20(%esp)
 592 03a8 8B5518   		movl	24(%ebp), %edx
 593 03ab 89542410 		movl	%edx, 16(%esp)
 594 03af 8944240C 		movl	%eax, 12(%esp)
 595 03b3 8B4510   		movl	16(%ebp), %eax
 596 03b6 89442408 		movl	%eax, 8(%esp)
 597 03ba 8B450C   		movl	12(%ebp), %eax
 598 03bd 89442404 		movl	%eax, 4(%esp)
GAS LISTING C:\Users\jisu8\AppData\Local\Temp\ccKup3Lg.s 			page 15


 599 03c1 8B4508   		movl	8(%ebp), %eax
 600 03c4 890424   		movl	%eax, (%esp)
 601 03c7 E834FCFF 		call	_AdjustCodewordStartColumn
 601      FF
 602 03cc 894518   		movl	%eax, 24(%ebp)
 130:src/pdf417/PDFScanningDecoder.c **** 	// we usually know fairly exact now how long a codeword is. We should provide minimum and maximum 
 131:src/pdf417/PDFScanningDecoder.c **** 	// and try to adjust the read pixels, e.g. remove single pixel errors or try to cut off exceeding 
 132:src/pdf417/PDFScanningDecoder.c **** 	// min and maxCodewordWidth should not be used as they are calculated for the whole barcode an can
 133:src/pdf417/PDFScanningDecoder.c **** 	// for the current position
 134:src/pdf417/PDFScanningDecoder.c **** 	int moduleBitCount[8];
 135:src/pdf417/PDFScanningDecoder.c **** 	int length = sizeof(moduleBitCount) / sizeof(moduleBitCount[0]);
 603              		.loc 1 135 6
 604 03cf C745F008 		movl	$8, -16(%ebp)
 604      000000
 136:src/pdf417/PDFScanningDecoder.c **** 	if (!GetModuleBitCount(image, minColumn, maxColumn, leftToRight, startColumn, imageRow, moduleBitC
 605              		.loc 1 136 7
 606 03d6 8B45F0   		movl	-16(%ebp), %eax
 607 03d9 0FB6D0   		movzbl	%al, %edx
 608 03dc 0FB645B4 		movzbl	-76(%ebp), %eax
 609 03e0 8954241C 		movl	%edx, 28(%esp)
 610 03e4 8D55C4   		leal	-60(%ebp), %edx
 611 03e7 89542418 		movl	%edx, 24(%esp)
 612 03eb 8B551C   		movl	28(%ebp), %edx
 613 03ee 89542414 		movl	%edx, 20(%esp)
 614 03f2 8B5518   		movl	24(%ebp), %edx
 615 03f5 89542410 		movl	%edx, 16(%esp)
 616 03f9 8944240C 		movl	%eax, 12(%esp)
 617 03fd 8B4510   		movl	16(%ebp), %eax
 618 0400 89442408 		movl	%eax, 8(%esp)
 619 0404 8B450C   		movl	12(%ebp), %eax
 620 0407 89442404 		movl	%eax, 4(%esp)
 621 040b 8B4508   		movl	8(%ebp), %eax
 622 040e 890424   		movl	%eax, (%esp)
 623 0411 E8BDFCFF 		call	_GetModuleBitCount
 623      FF
 624              		.loc 1 136 5
 625 0416 84C0     		testb	%al, %al
 626 0418 750A     		jne	L46
 137:src/pdf417/PDFScanningDecoder.c **** 	{
 138:src/pdf417/PDFScanningDecoder.c **** 		return NULL;
 627              		.loc 1 138 10
 628 041a B8000000 		movl	$0, %eax
 628      00
 629 041f E9C60000 		jmp	L52
 629      00
 630              	L46:
 139:src/pdf417/PDFScanningDecoder.c **** 	}
 140:src/pdf417/PDFScanningDecoder.c **** 	int endColumn;
 141:src/pdf417/PDFScanningDecoder.c **** 	int codewordBitCount = Reduce(length,moduleBitCount);
 631              		.loc 1 141 25
 632 0424 8D45C4   		leal	-60(%ebp), %eax
 633 0427 89442404 		movl	%eax, 4(%esp)
 634 042b 8B45F0   		movl	-16(%ebp), %eax
 635 042e 890424   		movl	%eax, (%esp)
 636 0431 E8000000 		call	_Reduce
 636      00
 637 0436 8945EC   		movl	%eax, -20(%ebp)
GAS LISTING C:\Users\jisu8\AppData\Local\Temp\ccKup3Lg.s 			page 16


 142:src/pdf417/PDFScanningDecoder.c **** 	if (leftToRight) 
 638              		.loc 1 142 5
 639 0439 807DB400 		cmpb	$0, -76(%ebp)
 640 043d 740D     		je	L48
 143:src/pdf417/PDFScanningDecoder.c **** 	{
 144:src/pdf417/PDFScanningDecoder.c **** 		endColumn = startColumn + codewordBitCount;
 641              		.loc 1 144 13
 642 043f 8B5518   		movl	24(%ebp), %edx
 643 0442 8B45EC   		movl	-20(%ebp), %eax
 644 0445 01D0     		addl	%edx, %eax
 645 0447 8945F4   		movl	%eax, -12(%ebp)
 646 044a EB21     		jmp	L49
 647              	L48:
 145:src/pdf417/PDFScanningDecoder.c **** 	}
 146:src/pdf417/PDFScanningDecoder.c **** 	else 
 147:src/pdf417/PDFScanningDecoder.c **** 	{
 148:src/pdf417/PDFScanningDecoder.c **** 		reverse(length,moduleBitCount);
 648              		.loc 1 148 3
 649 044c 8D45C4   		leal	-60(%ebp), %eax
 650 044f 89442404 		movl	%eax, 4(%esp)
 651 0453 8B45F0   		movl	-16(%ebp), %eax
 652 0456 890424   		movl	%eax, (%esp)
 653 0459 E8000000 		call	_reverse
 653      00
 149:src/pdf417/PDFScanningDecoder.c **** 		endColumn = startColumn;
 654              		.loc 1 149 13
 655 045e 8B4518   		movl	24(%ebp), %eax
 656 0461 8945F4   		movl	%eax, -12(%ebp)
 150:src/pdf417/PDFScanningDecoder.c **** 		startColumn = endColumn - codewordBitCount;
 657              		.loc 1 150 15
 658 0464 8B45F4   		movl	-12(%ebp), %eax
 659 0467 2B45EC   		subl	-20(%ebp), %eax
 660 046a 894518   		movl	%eax, 24(%ebp)
 661              	L49:
 151:src/pdf417/PDFScanningDecoder.c **** 	}
 152:src/pdf417/PDFScanningDecoder.c **** 
 153:src/pdf417/PDFScanningDecoder.c **** 	// We could also use the width of surrounding codewords for more accurate results, but this seems
 154:src/pdf417/PDFScanningDecoder.c **** 	// sufficient for now
 155:src/pdf417/PDFScanningDecoder.c **** 	if (!CheckCodewordSkew(codewordBitCount, minCodewordWidth, maxCodewordWidth)) {
 662              		.loc 1 155 7
 663 046d 8B4524   		movl	36(%ebp), %eax
 664 0470 89442408 		movl	%eax, 8(%esp)
 665 0474 8B4520   		movl	32(%ebp), %eax
 666 0477 89442404 		movl	%eax, 4(%esp)
 667 047b 8B45EC   		movl	-20(%ebp), %eax
 668 047e 890424   		movl	%eax, (%esp)
 669 0481 E887FDFF 		call	_CheckCodewordSkew
 669      FF
 670              		.loc 1 155 5
 671 0486 84C0     		testb	%al, %al
 672 0488 7507     		jne	L50
 156:src/pdf417/PDFScanningDecoder.c **** 		// We could try to use the startX and endX position of the codeword in the same column in the pre
 157:src/pdf417/PDFScanningDecoder.c **** 		// create the bit count from it and normalize it to 8. This would help with single pixel errors.
 158:src/pdf417/PDFScanningDecoder.c **** 		return NULL;
 673              		.loc 1 158 10
 674 048a B8000000 		movl	$0, %eax
 674      00
GAS LISTING C:\Users\jisu8\AppData\Local\Temp\ccKup3Lg.s 			page 17


 675 048f EB59     		jmp	L52
 676              	L50:
 159:src/pdf417/PDFScanningDecoder.c **** 	}
 160:src/pdf417/PDFScanningDecoder.c **** 
 161:src/pdf417/PDFScanningDecoder.c **** 	int decodedValue = GetDecodedValue(moduleBitCount);
 677              		.loc 1 161 21
 678 0491 8D45C4   		leal	-60(%ebp), %eax
 679 0494 890424   		movl	%eax, (%esp)
 680 0497 E8000000 		call	_GetDecodedValue
 680      00
 681 049c 8945E8   		movl	%eax, -24(%ebp)
 162:src/pdf417/PDFScanningDecoder.c **** 	if (decodedValue != -1) 
 682              		.loc 1 162 5
 683 049f 837DE8FF 		cmpl	$-1, -24(%ebp)
 684 04a3 7440     		je	L51
 685              	LBB3:
 163:src/pdf417/PDFScanningDecoder.c **** 	{
 164:src/pdf417/PDFScanningDecoder.c **** 		int codeword = GetCodeword(decodedValue);
 686              		.loc 1 164 18
 687 04a5 8B45E8   		movl	-24(%ebp), %eax
 688 04a8 890424   		movl	%eax, (%esp)
 689 04ab E8000000 		call	_GetCodeword
 689      00
 690 04b0 8945E4   		movl	%eax, -28(%ebp)
 165:src/pdf417/PDFScanningDecoder.c **** 		if (codeword != -1) 
 691              		.loc 1 165 6
 692 04b3 837DE4FF 		cmpl	$-1, -28(%ebp)
 693 04b7 742C     		je	L51
 166:src/pdf417/PDFScanningDecoder.c **** 		{
 167:src/pdf417/PDFScanningDecoder.c **** 			return Codeword(startColumn, endColumn, GetCodewordBucketNumber(decodedValue), codeword);
 694              		.loc 1 167 11
 695 04b9 8B45E8   		movl	-24(%ebp), %eax
 696 04bc 890424   		movl	%eax, (%esp)
 697 04bf E84AFEFF 		call	_GetCodewordBucketNumber
 697      FF
 698 04c4 89C2     		movl	%eax, %edx
 699 04c6 8B45E4   		movl	-28(%ebp), %eax
 700 04c9 8944240C 		movl	%eax, 12(%esp)
 701 04cd 89542408 		movl	%edx, 8(%esp)
 702 04d1 8B45F4   		movl	-12(%ebp), %eax
 703 04d4 89442404 		movl	%eax, 4(%esp)
 704 04d8 8B4518   		movl	24(%ebp), %eax
 705 04db 890424   		movl	%eax, (%esp)
 706 04de E846FEFF 		call	_Codeword
 706      FF
 707 04e3 EB05     		jmp	L52
 708              	L51:
 709              	LBE3:
 168:src/pdf417/PDFScanningDecoder.c **** 		}
 169:src/pdf417/PDFScanningDecoder.c **** 	}
 170:src/pdf417/PDFScanningDecoder.c **** 
 171:src/pdf417/PDFScanningDecoder.c **** 	return NULL;
 710              		.loc 1 171 9
 711 04e5 B8000000 		movl	$0, %eax
 711      00
 712              	L52:
 172:src/pdf417/PDFScanningDecoder.c **** }
GAS LISTING C:\Users\jisu8\AppData\Local\Temp\ccKup3Lg.s 			page 18


 713              		.loc 1 172 1 discriminator 1
 714 04ea C9       		leave
 715              	LCFI23:
 716              		.cfi_restore 5
 717              		.cfi_def_cfa 4, 4
 718 04eb C3       		ret
 719              		.cfi_endproc
 720              	LFE11:
 721              		.section .rdata,"dr"
 722              	LC4:
 723 0172 47657452 		.ascii "GetRowIndicatorColumn \0"
 723      6F77496E 
 723      64696361 
 723      746F7243 
 723      6F6C756D 
 724 0189 000000   		.text
 726              	_GetRowIndicatorColumn:
 727              	LFB12:
 173:src/pdf417/PDFScanningDecoder.c **** 
 174:src/pdf417/PDFScanningDecoder.c **** static DetectionResultColumn_t * GetRowIndicatorColumn(const BitMatrix_t * image, const BoundingBox
 175:src/pdf417/PDFScanningDecoder.c **** {
 728              		.loc 1 175 1
 729              		.cfi_startproc
 730 04ec 55       		pushl	%ebp
 731              	LCFI24:
 732              		.cfi_def_cfa_offset 8
 733              		.cfi_offset 5, -8
 734 04ed 89E5     		movl	%esp, %ebp
 735              	LCFI25:
 736              		.cfi_def_cfa_register 5
 737 04ef 83EC58   		subl	$88, %esp
 738 04f2 8B4514   		movl	20(%ebp), %eax
 739 04f5 8845D4   		movb	%al, -44(%ebp)
 176:src/pdf417/PDFScanningDecoder.c **** 	printf("GetRowIndicatorColumn \n");
 740              		.loc 1 176 2
 741 04f8 C7042472 		movl	$LC4, (%esp)
 741      010000
 742 04ff E8000000 		call	_puts
 742      00
 177:src/pdf417/PDFScanningDecoder.c **** 	
 178:src/pdf417/PDFScanningDecoder.c **** 	DetectionResultColumn_t * rowIndicatorColumn;
 179:src/pdf417/PDFScanningDecoder.c **** 	DetectionResultColumn(boundingBox, leftToRight ? Left : Right);
 743              		.loc 1 179 2
 744 0504 807DD400 		cmpb	$0, -44(%ebp)
 745 0508 7407     		je	L54
 746              		.loc 1 179 2 is_stmt 0 discriminator 1
 747 050a B8010000 		movl	$1, %eax
 747      00
 748 050f EB05     		jmp	L55
 749              	L54:
 750              		.loc 1 179 2 discriminator 2
 751 0511 B8020000 		movl	$2, %eax
 751      00
 752              	L55:
 753              		.loc 1 179 2 discriminator 4
 754 0516 89442404 		movl	%eax, 4(%esp)
 755 051a 8B450C   		movl	12(%ebp), %eax
GAS LISTING C:\Users\jisu8\AppData\Local\Temp\ccKup3Lg.s 			page 19


 756 051d 890424   		movl	%eax, (%esp)
 757 0520 E8000000 		call	_DetectionResultColumn
 757      00
 758              	LBB4:
 180:src/pdf417/PDFScanningDecoder.c **** 	for (int i = 0; i < 2; i++) 
 759              		.loc 1 180 11 is_stmt 1 discriminator 4
 760 0525 C745F400 		movl	$0, -12(%ebp)
 760      000000
 761              		.loc 1 180 2 discriminator 4
 762 052c E9C50000 		jmp	L56
 762      00
 763              	L64:
 764              	LBB5:
 181:src/pdf417/PDFScanningDecoder.c **** 	{
 182:src/pdf417/PDFScanningDecoder.c **** 		int increment = i == 0 ? 1 : -1;
 765              		.loc 1 182 30
 766 0531 837DF400 		cmpl	$0, -12(%ebp)
 767 0535 7507     		jne	L57
 768              		.loc 1 182 30 is_stmt 0 discriminator 1
 769 0537 B8010000 		movl	$1, %eax
 769      00
 770 053c EB05     		jmp	L58
 771              	L57:
 772              		.loc 1 182 30 discriminator 2
 773 053e B8FFFFFF 		movl	$-1, %eax
 773      FF
 774              	L58:
 775              		.loc 1 182 7 is_stmt 1 discriminator 4
 776 0543 8945E8   		movl	%eax, -24(%ebp)
 183:src/pdf417/PDFScanningDecoder.c **** 		int startColumn = (int)startPoint->m_value.x;
 777              		.loc 1 183 45 discriminator 4
 778 0546 8B4510   		movl	16(%ebp), %eax
 779 0549 D94004   		flds	4(%eax)
 780              		.loc 1 183 7 discriminator 4
 781 054c D97DD6   		fnstcw	-42(%ebp)
 782 054f 0FB745D6 		movzwl	-42(%ebp), %eax
 783 0553 80CC0C   		orb	$12, %ah
 784 0556 668945D2 		movw	%ax, -46(%ebp)
 785 055a D96DD2   		fldcw	-46(%ebp)
 786 055d DB5DF0   		fistpl	-16(%ebp)
 787 0560 D96DD6   		fldcw	-42(%ebp)
 788              	LBB6:
 184:src/pdf417/PDFScanningDecoder.c **** 		for (int imageRow = (int)startPoint->m_value.y; imageRow <= boundingBox->_maxY && imageRow >= bou
 789              		.loc 1 184 47 discriminator 4
 790 0563 8B4510   		movl	16(%ebp), %eax
 791 0566 D94008   		flds	8(%eax)
 792              		.loc 1 184 12 discriminator 4
 793 0569 D96DD2   		fldcw	-46(%ebp)
 794 056c DB5DEC   		fistpl	-20(%ebp)
 795 056f D96DD6   		fldcw	-42(%ebp)
 796              		.loc 1 184 3 discriminator 4
 797 0572 EB68     		jmp	L59
 798              	L63:
 799              	LBB7:
 185:src/pdf417/PDFScanningDecoder.c **** 		{
 186:src/pdf417/PDFScanningDecoder.c **** 			Codeword_t * codeword = DetectCodeword(image, 0, image->_width, leftToRight, startColumn, imageR
 800              		.loc 1 186 28
GAS LISTING C:\Users\jisu8\AppData\Local\Temp\ccKup3Lg.s 			page 20


 801 0574 0FB655D4 		movzbl	-44(%ebp), %edx
 802 0578 8B4508   		movl	8(%ebp), %eax
 803 057b 8B00     		movl	(%eax), %eax
 804 057d 8B4D1C   		movl	28(%ebp), %ecx
 805 0580 894C241C 		movl	%ecx, 28(%esp)
 806 0584 8B4D18   		movl	24(%ebp), %ecx
 807 0587 894C2418 		movl	%ecx, 24(%esp)
 808 058b 8B4DEC   		movl	-20(%ebp), %ecx
 809 058e 894C2414 		movl	%ecx, 20(%esp)
 810 0592 8B4DF0   		movl	-16(%ebp), %ecx
 811 0595 894C2410 		movl	%ecx, 16(%esp)
 812 0599 8954240C 		movl	%edx, 12(%esp)
 813 059d 89442408 		movl	%eax, 8(%esp)
 814 05a1 C7442404 		movl	$0, 4(%esp)
 814      00000000 
 815 05a9 8B4508   		movl	8(%ebp), %eax
 816 05ac 890424   		movl	%eax, (%esp)
 817 05af E89FFDFF 		call	_DetectCodeword
 817      FF
 818 05b4 8945E4   		movl	%eax, -28(%ebp)
 187:src/pdf417/PDFScanningDecoder.c **** 			if (codeword != NULL) 
 819              		.loc 1 187 7
 820 05b7 837DE400 		cmpl	$0, -28(%ebp)
 821 05bb 7419     		je	L60
 188:src/pdf417/PDFScanningDecoder.c **** 			{
 189:src/pdf417/PDFScanningDecoder.c **** 				//rowIndicatorColumn.setCodeword(imageRow, codeword);
 190:src/pdf417/PDFScanningDecoder.c **** 				if (leftToRight) 
 822              		.loc 1 190 8
 823 05bd 807DD400 		cmpb	$0, -44(%ebp)
 824 05c1 740A     		je	L61
 191:src/pdf417/PDFScanningDecoder.c **** 				{
 192:src/pdf417/PDFScanningDecoder.c **** 					startColumn = codeword->_startX;
 825              		.loc 1 192 18
 826 05c3 8B45E4   		movl	-28(%ebp), %eax
 827 05c6 8B00     		movl	(%eax), %eax
 828 05c8 8945F0   		movl	%eax, -16(%ebp)
 829 05cb EB09     		jmp	L60
 830              	L61:
 193:src/pdf417/PDFScanningDecoder.c **** 				}
 194:src/pdf417/PDFScanningDecoder.c **** 				else 
 195:src/pdf417/PDFScanningDecoder.c **** 				{
 196:src/pdf417/PDFScanningDecoder.c **** 					startColumn = codeword->_endX;
 831              		.loc 1 196 18
 832 05cd 8B45E4   		movl	-28(%ebp), %eax
 833 05d0 8B4004   		movl	4(%eax), %eax
 834 05d3 8945F0   		movl	%eax, -16(%ebp)
 835              	L60:
 836              	LBE7:
 184:src/pdf417/PDFScanningDecoder.c **** 		{
 837              		.loc 1 184 126 discriminator 2
 838 05d6 8B45E8   		movl	-24(%ebp), %eax
 839 05d9 0145EC   		addl	%eax, -20(%ebp)
 840              	L59:
 184:src/pdf417/PDFScanningDecoder.c **** 		{
 841              		.loc 1 184 74 discriminator 1
 842 05dc 8B450C   		movl	12(%ebp), %eax
 843 05df 8B4044   		movl	68(%eax), %eax
GAS LISTING C:\Users\jisu8\AppData\Local\Temp\ccKup3Lg.s 			page 21


 184:src/pdf417/PDFScanningDecoder.c **** 		{
 844              		.loc 1 184 3 discriminator 1
 845 05e2 3945EC   		cmpl	%eax, -20(%ebp)
 846 05e5 7F0B     		jg	L62
 184:src/pdf417/PDFScanningDecoder.c **** 		{
 847              		.loc 1 184 108 discriminator 3
 848 05e7 8B450C   		movl	12(%ebp), %eax
 849 05ea 8B4040   		movl	64(%eax), %eax
 184:src/pdf417/PDFScanningDecoder.c **** 		{
 850              		.loc 1 184 82 discriminator 3
 851 05ed 3945EC   		cmpl	%eax, -20(%ebp)
 852 05f0 7D82     		jge	L63
 853              	L62:
 854              	LBE6:
 855              	LBE5:
 180:src/pdf417/PDFScanningDecoder.c **** 	{
 856              		.loc 1 180 26 discriminator 2
 857 05f2 8345F401 		addl	$1, -12(%ebp)
 858              	L56:
 180:src/pdf417/PDFScanningDecoder.c **** 	{
 859              		.loc 1 180 2 discriminator 1
 860 05f6 837DF401 		cmpl	$1, -12(%ebp)
 861 05fa 0F8E31FF 		jle	L64
 861      FFFF
 862              	LBE4:
 197:src/pdf417/PDFScanningDecoder.c **** 				}
 198:src/pdf417/PDFScanningDecoder.c **** 			}
 199:src/pdf417/PDFScanningDecoder.c **** 		}
 200:src/pdf417/PDFScanningDecoder.c **** 	}
 201:src/pdf417/PDFScanningDecoder.c **** 	return rowIndicatorColumn;
 863              		.loc 1 201 9
 864 0600 8B45E0   		movl	-32(%ebp), %eax
 202:src/pdf417/PDFScanningDecoder.c **** }
 865              		.loc 1 202 1
 866 0603 C9       		leave
 867              	LCFI26:
 868              		.cfi_restore 5
 869              		.cfi_def_cfa 4, 4
 870 0604 C3       		ret
 871              		.cfi_endproc
 872              	LFE12:
 873              		.globl	_Decode
 875              	_Decode:
 876              	LFB13:
 203:src/pdf417/PDFScanningDecoder.c **** 
 204:src/pdf417/PDFScanningDecoder.c **** #if 0
 205:src/pdf417/PDFScanningDecoder.c **** static bool GetBarcodeMetadata(Nullable<DetectionResultColumn>& leftRowIndicatorColumn, Nullable<De
 206:src/pdf417/PDFScanningDecoder.c **** {
 207:src/pdf417/PDFScanningDecoder.c **** #ifdef HK_DEBUG
 208:src/pdf417/PDFScanningDecoder.c **** 	printf("GetBarcodeMetadata \n");
 209:src/pdf417/PDFScanningDecoder.c **** #endif
 210:src/pdf417/PDFScanningDecoder.c **** 	
 211:src/pdf417/PDFScanningDecoder.c **** 	BarcodeMetadata leftBarcodeMetadata;
 212:src/pdf417/PDFScanningDecoder.c **** 	if (leftRowIndicatorColumn == nullptr || !leftRowIndicatorColumn.value().getBarcodeMetadata(leftBa
 213:src/pdf417/PDFScanningDecoder.c **** 		return rightRowIndicatorColumn != nullptr && rightRowIndicatorColumn.value().getBarcodeMetadata(r
 214:src/pdf417/PDFScanningDecoder.c **** 	}
 215:src/pdf417/PDFScanningDecoder.c **** 
GAS LISTING C:\Users\jisu8\AppData\Local\Temp\ccKup3Lg.s 			page 22


 216:src/pdf417/PDFScanningDecoder.c **** 	BarcodeMetadata rightBarcodeMetadata;
 217:src/pdf417/PDFScanningDecoder.c **** 	if (rightRowIndicatorColumn == nullptr || !rightRowIndicatorColumn.value().getBarcodeMetadata(righ
 218:src/pdf417/PDFScanningDecoder.c **** 		result = leftBarcodeMetadata;
 219:src/pdf417/PDFScanningDecoder.c **** 		return true;
 220:src/pdf417/PDFScanningDecoder.c **** 	}
 221:src/pdf417/PDFScanningDecoder.c **** 
 222:src/pdf417/PDFScanningDecoder.c **** 	if (leftBarcodeMetadata.columnCount() != rightBarcodeMetadata.columnCount() &&
 223:src/pdf417/PDFScanningDecoder.c **** 		leftBarcodeMetadata.errorCorrectionLevel() != rightBarcodeMetadata.errorCorrectionLevel() &&
 224:src/pdf417/PDFScanningDecoder.c **** 		leftBarcodeMetadata.rowCount() != rightBarcodeMetadata.rowCount()) {
 225:src/pdf417/PDFScanningDecoder.c **** 		return false;
 226:src/pdf417/PDFScanningDecoder.c **** 	}
 227:src/pdf417/PDFScanningDecoder.c **** 	result = leftBarcodeMetadata;
 228:src/pdf417/PDFScanningDecoder.c **** 	return true;
 229:src/pdf417/PDFScanningDecoder.c **** }
 230:src/pdf417/PDFScanningDecoder.c **** 
 231:src/pdf417/PDFScanningDecoder.c **** #endif
 232:src/pdf417/PDFScanningDecoder.c **** #if 0
 233:src/pdf417/PDFScanningDecoder.c **** template <typename Iter>
 234:src/pdf417/PDFScanningDecoder.c **** static auto GetMax(Iter start, Iter end) -> typename std::remove_reference<decltype(*start)>::type
 235:src/pdf417/PDFScanningDecoder.c **** {
 236:src/pdf417/PDFScanningDecoder.c **** 	auto it = std::max_element(start, end);
 237:src/pdf417/PDFScanningDecoder.c **** 	return it != end ? *it : -1;
 238:src/pdf417/PDFScanningDecoder.c **** }
 239:src/pdf417/PDFScanningDecoder.c **** 
 240:src/pdf417/PDFScanningDecoder.c **** #endif
 241:src/pdf417/PDFScanningDecoder.c **** #if 0
 242:src/pdf417/PDFScanningDecoder.c **** static bool AdjustBoundingBox(Nullable<DetectionResultColumn>& rowIndicatorColumn, Nullable<Boundin
 243:src/pdf417/PDFScanningDecoder.c **** {
 244:src/pdf417/PDFScanningDecoder.c **** #ifdef HK_DEBUG
 245:src/pdf417/PDFScanningDecoder.c **** 	printf("AdjustBoundingBox \n");
 246:src/pdf417/PDFScanningDecoder.c **** #endif
 247:src/pdf417/PDFScanningDecoder.c **** 	
 248:src/pdf417/PDFScanningDecoder.c **** 	if (rowIndicatorColumn == nullptr)
 249:src/pdf417/PDFScanningDecoder.c **** 	{
 250:src/pdf417/PDFScanningDecoder.c **** 		result = nullptr;
 251:src/pdf417/PDFScanningDecoder.c **** 		return true;
 252:src/pdf417/PDFScanningDecoder.c **** 	}
 253:src/pdf417/PDFScanningDecoder.c **** 
 254:src/pdf417/PDFScanningDecoder.c **** 	std::vector<int> rowHeights;
 255:src/pdf417/PDFScanningDecoder.c **** 	if (!rowIndicatorColumn.value().getRowHeights(rowHeights)) 
 256:src/pdf417/PDFScanningDecoder.c **** 	{
 257:src/pdf417/PDFScanningDecoder.c **** 		result = nullptr;
 258:src/pdf417/PDFScanningDecoder.c **** 		return true;
 259:src/pdf417/PDFScanningDecoder.c **** 	}
 260:src/pdf417/PDFScanningDecoder.c **** 
 261:src/pdf417/PDFScanningDecoder.c **** 	int maxRowHeight = GetMax(rowHeights.begin(), rowHeights.end());
 262:src/pdf417/PDFScanningDecoder.c **** 	int missingStartRows = 0;
 263:src/pdf417/PDFScanningDecoder.c **** 	for (int rowHeight : rowHeights) {
 264:src/pdf417/PDFScanningDecoder.c **** 		missingStartRows += maxRowHeight - rowHeight;
 265:src/pdf417/PDFScanningDecoder.c **** 		if (rowHeight > 0) 
 266:src/pdf417/PDFScanningDecoder.c **** 		{
 267:src/pdf417/PDFScanningDecoder.c **** 			break;
 268:src/pdf417/PDFScanningDecoder.c **** 		}
 269:src/pdf417/PDFScanningDecoder.c **** 	}
 270:src/pdf417/PDFScanningDecoder.c **** 	auto& codewords = rowIndicatorColumn.value().allCodewords();
 271:src/pdf417/PDFScanningDecoder.c **** 	for (int row = 0; missingStartRows > 0 && codewords[row] == nullptr; row++) 
 272:src/pdf417/PDFScanningDecoder.c **** 	{
GAS LISTING C:\Users\jisu8\AppData\Local\Temp\ccKup3Lg.s 			page 23


 273:src/pdf417/PDFScanningDecoder.c **** 		missingStartRows--;
 274:src/pdf417/PDFScanningDecoder.c **** 	}
 275:src/pdf417/PDFScanningDecoder.c **** 
 276:src/pdf417/PDFScanningDecoder.c **** 	int missingEndRows = 0;
 277:src/pdf417/PDFScanningDecoder.c **** 	for (int row = Size(rowHeights) - 1; row >= 0; row--) 
 278:src/pdf417/PDFScanningDecoder.c **** 	{
 279:src/pdf417/PDFScanningDecoder.c **** 		missingEndRows += maxRowHeight - rowHeights[row];
 280:src/pdf417/PDFScanningDecoder.c **** 		if (rowHeights[row] > 0) {
 281:src/pdf417/PDFScanningDecoder.c **** 			break;
 282:src/pdf417/PDFScanningDecoder.c **** 		}
 283:src/pdf417/PDFScanningDecoder.c **** 	}
 284:src/pdf417/PDFScanningDecoder.c **** 	for (int row = Size(codewords) - 1; missingEndRows > 0 && codewords[row] == nullptr; row--) {
 285:src/pdf417/PDFScanningDecoder.c **** 		missingEndRows--;
 286:src/pdf417/PDFScanningDecoder.c **** 	}
 287:src/pdf417/PDFScanningDecoder.c **** 	BoundingBox box;
 288:src/pdf417/PDFScanningDecoder.c **** 	if (BoundingBox::AddMissingRows(rowIndicatorColumn.value().boundingBox(), missingStartRows, missin
 289:src/pdf417/PDFScanningDecoder.c **** 		result = box;
 290:src/pdf417/PDFScanningDecoder.c **** 		return true;
 291:src/pdf417/PDFScanningDecoder.c **** 	}
 292:src/pdf417/PDFScanningDecoder.c **** 	return false;
 293:src/pdf417/PDFScanningDecoder.c **** }
 294:src/pdf417/PDFScanningDecoder.c **** 
 295:src/pdf417/PDFScanningDecoder.c **** #endif
 296:src/pdf417/PDFScanningDecoder.c **** #if 0
 297:src/pdf417/PDFScanningDecoder.c **** static bool Merge(Nullable<DetectionResultColumn>& leftRowIndicatorColumn, Nullable<DetectionResult
 298:src/pdf417/PDFScanningDecoder.c **** {
 299:src/pdf417/PDFScanningDecoder.c **** 	if (leftRowIndicatorColumn != nullptr || rightRowIndicatorColumn != nullptr) 
 300:src/pdf417/PDFScanningDecoder.c **** 	{
 301:src/pdf417/PDFScanningDecoder.c **** 		BarcodeMetadata barcodeMetadata;
 302:src/pdf417/PDFScanningDecoder.c **** 		if (GetBarcodeMetadata(leftRowIndicatorColumn, rightRowIndicatorColumn, barcodeMetadata)) 
 303:src/pdf417/PDFScanningDecoder.c **** 		{
 304:src/pdf417/PDFScanningDecoder.c **** 			Nullable<BoundingBox> leftBox, rightBox, mergedBox;
 305:src/pdf417/PDFScanningDecoder.c **** 			if (AdjustBoundingBox(leftRowIndicatorColumn, leftBox) && AdjustBoundingBox(rightRowIndicatorCol
 306:src/pdf417/PDFScanningDecoder.c **** 			{
 307:src/pdf417/PDFScanningDecoder.c **** 				result.init(barcodeMetadata, mergedBox);
 308:src/pdf417/PDFScanningDecoder.c **** 				return true;
 309:src/pdf417/PDFScanningDecoder.c **** 			}
 310:src/pdf417/PDFScanningDecoder.c **** 		}
 311:src/pdf417/PDFScanningDecoder.c **** 	}
 312:src/pdf417/PDFScanningDecoder.c **** 	return false;
 313:src/pdf417/PDFScanningDecoder.c **** }
 314:src/pdf417/PDFScanningDecoder.c **** 
 315:src/pdf417/PDFScanningDecoder.c **** #endif
 316:src/pdf417/PDFScanningDecoder.c **** #if 0
 317:src/pdf417/PDFScanningDecoder.c **** static bool IsValidBarcodeColumn(const DetectionResult& detectionResult, int barcodeColumn)
 318:src/pdf417/PDFScanningDecoder.c **** {
 319:src/pdf417/PDFScanningDecoder.c **** 	return barcodeColumn >= 0 && barcodeColumn <= detectionResult.barcodeColumnCount() + 1;
 320:src/pdf417/PDFScanningDecoder.c **** }
 321:src/pdf417/PDFScanningDecoder.c **** 
 322:src/pdf417/PDFScanningDecoder.c **** #endif
 323:src/pdf417/PDFScanningDecoder.c **** #if 0
 324:src/pdf417/PDFScanningDecoder.c **** static int GetStartColumn(const DetectionResult& detectionResult, int barcodeColumn, int imageRow, 
 325:src/pdf417/PDFScanningDecoder.c **** {
 326:src/pdf417/PDFScanningDecoder.c **** #ifdef HK_DEBUG
 327:src/pdf417/PDFScanningDecoder.c **** 	printf("GetStartColumn barcodeColumn=%d, imageRow=%d, leftToRight=%d \n", barcodeColumn, imageRow,
 328:src/pdf417/PDFScanningDecoder.c **** #endif
 329:src/pdf417/PDFScanningDecoder.c **** 
GAS LISTING C:\Users\jisu8\AppData\Local\Temp\ccKup3Lg.s 			page 24


 330:src/pdf417/PDFScanningDecoder.c **** 	int offset = leftToRight ? 1 : -1;
 331:src/pdf417/PDFScanningDecoder.c **** 	Nullable<Codeword> codeword;
 332:src/pdf417/PDFScanningDecoder.c **** 	if (IsValidBarcodeColumn(detectionResult, barcodeColumn - offset)) 
 333:src/pdf417/PDFScanningDecoder.c **** 	{
 334:src/pdf417/PDFScanningDecoder.c **** 		codeword = detectionResult.column(barcodeColumn - offset).value().codeword(imageRow);
 335:src/pdf417/PDFScanningDecoder.c **** 	}
 336:src/pdf417/PDFScanningDecoder.c **** 
 337:src/pdf417/PDFScanningDecoder.c **** 	if (codeword != nullptr) 
 338:src/pdf417/PDFScanningDecoder.c **** 	{
 339:src/pdf417/PDFScanningDecoder.c **** 		return leftToRight ? codeword.value().endX() : codeword.value().startX();
 340:src/pdf417/PDFScanningDecoder.c **** 	}
 341:src/pdf417/PDFScanningDecoder.c **** 
 342:src/pdf417/PDFScanningDecoder.c **** 	codeword = detectionResult.column(barcodeColumn).value().codewordNearby(imageRow);
 343:src/pdf417/PDFScanningDecoder.c **** 	if (codeword != nullptr) 
 344:src/pdf417/PDFScanningDecoder.c **** 	{
 345:src/pdf417/PDFScanningDecoder.c **** 		return leftToRight ? codeword.value().startX() : codeword.value().endX();
 346:src/pdf417/PDFScanningDecoder.c **** 	}
 347:src/pdf417/PDFScanningDecoder.c **** 
 348:src/pdf417/PDFScanningDecoder.c **** 	if (IsValidBarcodeColumn(detectionResult, barcodeColumn - offset)) {
 349:src/pdf417/PDFScanningDecoder.c **** 		codeword = detectionResult.column(barcodeColumn - offset).value().codewordNearby(imageRow);
 350:src/pdf417/PDFScanningDecoder.c **** 	}
 351:src/pdf417/PDFScanningDecoder.c **** 
 352:src/pdf417/PDFScanningDecoder.c **** 	if (codeword != nullptr)
 353:src/pdf417/PDFScanningDecoder.c **** 	{
 354:src/pdf417/PDFScanningDecoder.c **** 		return leftToRight ? codeword.value().endX() : codeword.value().startX();
 355:src/pdf417/PDFScanningDecoder.c **** 	}
 356:src/pdf417/PDFScanningDecoder.c **** 
 357:src/pdf417/PDFScanningDecoder.c **** 	int skippedColumns = 0;
 358:src/pdf417/PDFScanningDecoder.c **** 
 359:src/pdf417/PDFScanningDecoder.c **** 	while (IsValidBarcodeColumn(detectionResult, barcodeColumn - offset)) 
 360:src/pdf417/PDFScanningDecoder.c **** 	{
 361:src/pdf417/PDFScanningDecoder.c **** 		barcodeColumn -= offset;
 362:src/pdf417/PDFScanningDecoder.c **** 		for (auto& previousRowCodeword : detectionResult.column(barcodeColumn).value().allCodewords()) 
 363:src/pdf417/PDFScanningDecoder.c **** 		{
 364:src/pdf417/PDFScanningDecoder.c **** 			if (previousRowCodeword != nullptr) 
 365:src/pdf417/PDFScanningDecoder.c **** 			{
 366:src/pdf417/PDFScanningDecoder.c **** 				return (leftToRight ? previousRowCodeword.value().endX() : previousRowCodeword.value().startX()
 367:src/pdf417/PDFScanningDecoder.c **** 					offset *
 368:src/pdf417/PDFScanningDecoder.c **** 					skippedColumns *
 369:src/pdf417/PDFScanningDecoder.c **** 					(previousRowCodeword.value().endX() - previousRowCodeword.value().startX());
 370:src/pdf417/PDFScanningDecoder.c **** 			}
 371:src/pdf417/PDFScanningDecoder.c **** 		}
 372:src/pdf417/PDFScanningDecoder.c **** 		skippedColumns++;
 373:src/pdf417/PDFScanningDecoder.c **** 	}
 374:src/pdf417/PDFScanningDecoder.c **** 
 375:src/pdf417/PDFScanningDecoder.c **** 	return leftToRight ? detectionResult.getBoundingBox().value().minX() : detectionResult.getBounding
 376:src/pdf417/PDFScanningDecoder.c **** }
 377:src/pdf417/PDFScanningDecoder.c **** 
 378:src/pdf417/PDFScanningDecoder.c **** #endif
 379:src/pdf417/PDFScanningDecoder.c **** #if 0
 380:src/pdf417/PDFScanningDecoder.c **** static std::vector<std::vector<BarcodeValue>> CreateBarcodeMatrix(DetectionResult& detectionResult)
 381:src/pdf417/PDFScanningDecoder.c **** {
 382:src/pdf417/PDFScanningDecoder.c **** #ifdef HK_DEBUG
 383:src/pdf417/PDFScanningDecoder.c **** 	printf("CreateBarcodeMatrix\n");
 384:src/pdf417/PDFScanningDecoder.c **** #endif
 385:src/pdf417/PDFScanningDecoder.c **** 	
 386:src/pdf417/PDFScanningDecoder.c **** 	std::vector<std::vector<BarcodeValue>> barcodeMatrix(detectionResult.barcodeRowCount());
GAS LISTING C:\Users\jisu8\AppData\Local\Temp\ccKup3Lg.s 			page 25


 387:src/pdf417/PDFScanningDecoder.c **** 	for (auto& row : barcodeMatrix) {
 388:src/pdf417/PDFScanningDecoder.c **** 		row.resize(detectionResult.barcodeColumnCount() + 2);
 389:src/pdf417/PDFScanningDecoder.c **** 	}
 390:src/pdf417/PDFScanningDecoder.c **** 
 391:src/pdf417/PDFScanningDecoder.c **** 	int column = 0;
 392:src/pdf417/PDFScanningDecoder.c **** 	for (auto& resultColumn : detectionResult.allColumns()) {
 393:src/pdf417/PDFScanningDecoder.c **** 		if (resultColumn != nullptr) {
 394:src/pdf417/PDFScanningDecoder.c **** 			for (auto& codeword : resultColumn.value().allCodewords()) {
 395:src/pdf417/PDFScanningDecoder.c **** 				if (codeword != nullptr) {
 396:src/pdf417/PDFScanningDecoder.c **** 					int rowNumber = codeword.value().rowNumber();
 397:src/pdf417/PDFScanningDecoder.c **** 					if (rowNumber >= 0) {
 398:src/pdf417/PDFScanningDecoder.c **** 						if (rowNumber >= Size(barcodeMatrix)) {
 399:src/pdf417/PDFScanningDecoder.c **** 							// We have more rows than the barcode metadata allows for, ignore them.
 400:src/pdf417/PDFScanningDecoder.c **** 							continue;
 401:src/pdf417/PDFScanningDecoder.c **** 						}
 402:src/pdf417/PDFScanningDecoder.c **** 						barcodeMatrix[rowNumber][column].setValue(codeword.value().value());
 403:src/pdf417/PDFScanningDecoder.c **** 					}
 404:src/pdf417/PDFScanningDecoder.c **** 				}
 405:src/pdf417/PDFScanningDecoder.c **** 			}
 406:src/pdf417/PDFScanningDecoder.c **** 		}
 407:src/pdf417/PDFScanningDecoder.c **** 		column++;
 408:src/pdf417/PDFScanningDecoder.c **** 	}
 409:src/pdf417/PDFScanningDecoder.c **** 	return barcodeMatrix;
 410:src/pdf417/PDFScanningDecoder.c **** }
 411:src/pdf417/PDFScanningDecoder.c **** 
 412:src/pdf417/PDFScanningDecoder.c **** #endif
 413:src/pdf417/PDFScanningDecoder.c **** #if 0
 414:src/pdf417/PDFScanningDecoder.c **** static int GetNumberOfECCodeWords(int barcodeECLevel)
 415:src/pdf417/PDFScanningDecoder.c **** {
 416:src/pdf417/PDFScanningDecoder.c **** 	return 2 << barcodeECLevel;
 417:src/pdf417/PDFScanningDecoder.c **** }
 418:src/pdf417/PDFScanningDecoder.c **** 
 419:src/pdf417/PDFScanningDecoder.c **** #endif
 420:src/pdf417/PDFScanningDecoder.c **** #if 0
 421:src/pdf417/PDFScanningDecoder.c **** static bool AdjustCodewordCount(const DetectionResult& detectionResult, std::vector<std::vector<Bar
 422:src/pdf417/PDFScanningDecoder.c **** {
 423:src/pdf417/PDFScanningDecoder.c **** #ifdef HK_DEBUG
 424:src/pdf417/PDFScanningDecoder.c **** 	printf("AdjustCodewordCount\n");
 425:src/pdf417/PDFScanningDecoder.c **** #endif
 426:src/pdf417/PDFScanningDecoder.c **** 	
 427:src/pdf417/PDFScanningDecoder.c **** 	auto numberOfCodewords = barcodeMatrix[0][1].value();
 428:src/pdf417/PDFScanningDecoder.c **** 	int calculatedNumberOfCodewords = detectionResult.barcodeColumnCount() * detectionResult.barcodeRo
 429:src/pdf417/PDFScanningDecoder.c **** 	if (numberOfCodewords.empty()) {
 430:src/pdf417/PDFScanningDecoder.c **** 		if (calculatedNumberOfCodewords < 1 || calculatedNumberOfCodewords > CodewordDecoder::MAX_CODEWOR
 431:src/pdf417/PDFScanningDecoder.c **** 			return false;
 432:src/pdf417/PDFScanningDecoder.c **** 		}
 433:src/pdf417/PDFScanningDecoder.c **** 		barcodeMatrix[0][1].setValue(calculatedNumberOfCodewords);
 434:src/pdf417/PDFScanningDecoder.c **** 	}
 435:src/pdf417/PDFScanningDecoder.c **** 	else if (numberOfCodewords[0] != calculatedNumberOfCodewords) {
 436:src/pdf417/PDFScanningDecoder.c **** 		// The calculated one is more reliable as it is derived from the row indicator columns
 437:src/pdf417/PDFScanningDecoder.c **** 		barcodeMatrix[0][1].setValue(calculatedNumberOfCodewords);
 438:src/pdf417/PDFScanningDecoder.c **** 	}
 439:src/pdf417/PDFScanningDecoder.c **** 	return true;
 440:src/pdf417/PDFScanningDecoder.c **** }
 441:src/pdf417/PDFScanningDecoder.c **** // +++++++++++++++++++++++++++++++++++ Error Correction
 442:src/pdf417/PDFScanningDecoder.c **** 
 443:src/pdf417/PDFScanningDecoder.c **** #endif
GAS LISTING C:\Users\jisu8\AppData\Local\Temp\ccKup3Lg.s 			page 26


 444:src/pdf417/PDFScanningDecoder.c **** #if 0
 445:src/pdf417/PDFScanningDecoder.c **** static const ModulusGF& GetModulusGF()
 446:src/pdf417/PDFScanningDecoder.c **** {
 447:src/pdf417/PDFScanningDecoder.c **** 	static const ModulusGF field(CodewordDecoder::NUMBER_OF_CODEWORDS, 3);
 448:src/pdf417/PDFScanningDecoder.c **** 	return field;
 449:src/pdf417/PDFScanningDecoder.c **** }
 450:src/pdf417/PDFScanningDecoder.c **** 
 451:src/pdf417/PDFScanningDecoder.c **** #endif
 452:src/pdf417/PDFScanningDecoder.c **** #if 0
 453:src/pdf417/PDFScanningDecoder.c **** static bool RunEuclideanAlgorithm(ModulusPoly a, ModulusPoly b, int R, ModulusPoly& sigma, ModulusP
 454:src/pdf417/PDFScanningDecoder.c **** {
 455:src/pdf417/PDFScanningDecoder.c **** #ifdef HK_DEBUG
 456:src/pdf417/PDFScanningDecoder.c **** 	printf("RunEuclideanAlgorithm\n");
 457:src/pdf417/PDFScanningDecoder.c **** #endif
 458:src/pdf417/PDFScanningDecoder.c **** 	
 459:src/pdf417/PDFScanningDecoder.c **** 	const ModulusGF& field = GetModulusGF();
 460:src/pdf417/PDFScanningDecoder.c **** 
 461:src/pdf417/PDFScanningDecoder.c **** 	// Assume a's degree is >= b's
 462:src/pdf417/PDFScanningDecoder.c **** 	if (a.degree() < b.degree()) 
 463:src/pdf417/PDFScanningDecoder.c **** 	{
 464:src/pdf417/PDFScanningDecoder.c **** 		swap(a, b);
 465:src/pdf417/PDFScanningDecoder.c **** 	}
 466:src/pdf417/PDFScanningDecoder.c **** 
 467:src/pdf417/PDFScanningDecoder.c **** 	ModulusPoly rLast = a;
 468:src/pdf417/PDFScanningDecoder.c **** 	ModulusPoly r = b;
 469:src/pdf417/PDFScanningDecoder.c **** 	ModulusPoly tLast = field.zero();
 470:src/pdf417/PDFScanningDecoder.c **** 	ModulusPoly t = field.one();
 471:src/pdf417/PDFScanningDecoder.c **** 
 472:src/pdf417/PDFScanningDecoder.c **** 	// Run Euclidean algorithm until r's degree is less than R/2
 473:src/pdf417/PDFScanningDecoder.c **** 	while (r.degree() >= R / 2) 
 474:src/pdf417/PDFScanningDecoder.c **** 	{
 475:src/pdf417/PDFScanningDecoder.c **** 		ModulusPoly rLastLast = rLast;
 476:src/pdf417/PDFScanningDecoder.c **** 		ModulusPoly tLastLast = tLast;
 477:src/pdf417/PDFScanningDecoder.c **** 		rLast = r;
 478:src/pdf417/PDFScanningDecoder.c **** 		tLast = t;
 479:src/pdf417/PDFScanningDecoder.c **** 
 480:src/pdf417/PDFScanningDecoder.c **** 		// Divide rLastLast by rLast, with quotient in q and remainder in r
 481:src/pdf417/PDFScanningDecoder.c **** 		if (rLast.isZero()) {
 482:src/pdf417/PDFScanningDecoder.c **** 			// Oops, Euclidean algorithm already terminated?
 483:src/pdf417/PDFScanningDecoder.c **** 			return false;
 484:src/pdf417/PDFScanningDecoder.c **** 		}
 485:src/pdf417/PDFScanningDecoder.c **** 		r = rLastLast;
 486:src/pdf417/PDFScanningDecoder.c **** 		ModulusPoly q = field.zero();
 487:src/pdf417/PDFScanningDecoder.c **** 		int denominatorLeadingTerm = rLast.coefficient(rLast.degree());
 488:src/pdf417/PDFScanningDecoder.c **** 		int dltInverse = field.inverse(denominatorLeadingTerm);
 489:src/pdf417/PDFScanningDecoder.c **** 		while (r.degree() >= rLast.degree() && !r.isZero()) {
 490:src/pdf417/PDFScanningDecoder.c **** 			int degreeDiff = r.degree() - rLast.degree();
 491:src/pdf417/PDFScanningDecoder.c **** 			int scale = field.multiply(r.coefficient(r.degree()), dltInverse);
 492:src/pdf417/PDFScanningDecoder.c **** 			q = q.add(field.buildMonomial(degreeDiff, scale));
 493:src/pdf417/PDFScanningDecoder.c **** 			r = r.subtract(rLast.multiplyByMonomial(degreeDiff, scale));
 494:src/pdf417/PDFScanningDecoder.c **** 		}
 495:src/pdf417/PDFScanningDecoder.c **** 
 496:src/pdf417/PDFScanningDecoder.c **** 		t = q.multiply(tLast).subtract(tLastLast).negative();
 497:src/pdf417/PDFScanningDecoder.c **** 	}
 498:src/pdf417/PDFScanningDecoder.c **** 
 499:src/pdf417/PDFScanningDecoder.c **** 	int sigmaTildeAtZero = t.coefficient(0);
 500:src/pdf417/PDFScanningDecoder.c **** 	if (sigmaTildeAtZero == 0) {
GAS LISTING C:\Users\jisu8\AppData\Local\Temp\ccKup3Lg.s 			page 27


 501:src/pdf417/PDFScanningDecoder.c **** 		return false;
 502:src/pdf417/PDFScanningDecoder.c **** 	}
 503:src/pdf417/PDFScanningDecoder.c **** 
 504:src/pdf417/PDFScanningDecoder.c **** 	int inverse = field.inverse(sigmaTildeAtZero);
 505:src/pdf417/PDFScanningDecoder.c **** 	sigma = t.multiply(inverse);
 506:src/pdf417/PDFScanningDecoder.c **** 	omega = r.multiply(inverse);
 507:src/pdf417/PDFScanningDecoder.c **** 	return true;
 508:src/pdf417/PDFScanningDecoder.c **** }
 509:src/pdf417/PDFScanningDecoder.c **** 
 510:src/pdf417/PDFScanningDecoder.c **** #endif
 511:src/pdf417/PDFScanningDecoder.c **** #if 0
 512:src/pdf417/PDFScanningDecoder.c **** static bool FindErrorLocations(const ModulusPoly& errorLocator, std::vector<int>& result)
 513:src/pdf417/PDFScanningDecoder.c **** {
 514:src/pdf417/PDFScanningDecoder.c **** #ifdef HK_DEBUG
 515:src/pdf417/PDFScanningDecoder.c **** 	printf("FindErrorLocations \n");
 516:src/pdf417/PDFScanningDecoder.c **** #endif
 517:src/pdf417/PDFScanningDecoder.c **** 	
 518:src/pdf417/PDFScanningDecoder.c **** 	const ModulusGF& field = GetModulusGF();
 519:src/pdf417/PDFScanningDecoder.c **** 	// This is a direct application of Chien's search
 520:src/pdf417/PDFScanningDecoder.c **** 	int numErrors = errorLocator.degree();
 521:src/pdf417/PDFScanningDecoder.c **** 	result.resize(numErrors);
 522:src/pdf417/PDFScanningDecoder.c **** 	int e = 0;
 523:src/pdf417/PDFScanningDecoder.c **** 	for (int i = 1; i < field.size() && e < numErrors; i++) 
 524:src/pdf417/PDFScanningDecoder.c **** 	{
 525:src/pdf417/PDFScanningDecoder.c **** 		if (errorLocator.evaluateAt(i) == 0) {
 526:src/pdf417/PDFScanningDecoder.c **** 			result[e] = field.inverse(i);
 527:src/pdf417/PDFScanningDecoder.c **** 			e++;
 528:src/pdf417/PDFScanningDecoder.c **** 		}
 529:src/pdf417/PDFScanningDecoder.c **** 	}
 530:src/pdf417/PDFScanningDecoder.c **** 	return e == numErrors;
 531:src/pdf417/PDFScanningDecoder.c **** }
 532:src/pdf417/PDFScanningDecoder.c **** 
 533:src/pdf417/PDFScanningDecoder.c **** #endif
 534:src/pdf417/PDFScanningDecoder.c **** #if 0
 535:src/pdf417/PDFScanningDecoder.c **** static std::vector<int> FindErrorMagnitudes(const ModulusPoly& errorEvaluator, const ModulusPoly& e
 536:src/pdf417/PDFScanningDecoder.c **** {
 537:src/pdf417/PDFScanningDecoder.c **** #ifdef HK_DEBUG
 538:src/pdf417/PDFScanningDecoder.c **** 	printf("FindErrorMagnitudes \n");
 539:src/pdf417/PDFScanningDecoder.c **** #endif
 540:src/pdf417/PDFScanningDecoder.c **** 	const ModulusGF& field = GetModulusGF();
 541:src/pdf417/PDFScanningDecoder.c **** 	int errorLocatorDegree = errorLocator.degree();
 542:src/pdf417/PDFScanningDecoder.c **** 	std::vector<int> formalDerivativeCoefficients(errorLocatorDegree);
 543:src/pdf417/PDFScanningDecoder.c **** 	for (int i = 1; i <= errorLocatorDegree; i++) {
 544:src/pdf417/PDFScanningDecoder.c **** 		formalDerivativeCoefficients[errorLocatorDegree - i] = field.multiply(i, errorLocator.coefficient
 545:src/pdf417/PDFScanningDecoder.c **** 	}
 546:src/pdf417/PDFScanningDecoder.c **** 
 547:src/pdf417/PDFScanningDecoder.c **** 	ModulusPoly formalDerivative(field, formalDerivativeCoefficients);
 548:src/pdf417/PDFScanningDecoder.c **** 	// This is directly applying Forney's Formula
 549:src/pdf417/PDFScanningDecoder.c **** 	std::vector<int> result(errorLocations.size());
 550:src/pdf417/PDFScanningDecoder.c **** 	for (size_t i = 0; i < result.size(); i++) {
 551:src/pdf417/PDFScanningDecoder.c **** 		int xiInverse = field.inverse(errorLocations[i]);
 552:src/pdf417/PDFScanningDecoder.c **** 		int numerator = field.subtract(0, errorEvaluator.evaluateAt(xiInverse));
 553:src/pdf417/PDFScanningDecoder.c **** 		int denominator = field.inverse(formalDerivative.evaluateAt(xiInverse));
 554:src/pdf417/PDFScanningDecoder.c **** 		result[i] = field.multiply(numerator, denominator);
 555:src/pdf417/PDFScanningDecoder.c **** 	}
 556:src/pdf417/PDFScanningDecoder.c **** 	return result;
 557:src/pdf417/PDFScanningDecoder.c **** }
GAS LISTING C:\Users\jisu8\AppData\Local\Temp\ccKup3Lg.s 			page 28


 558:src/pdf417/PDFScanningDecoder.c **** 
 559:src/pdf417/PDFScanningDecoder.c **** /**
 560:src/pdf417/PDFScanningDecoder.c **** * @param received received codewords
 561:src/pdf417/PDFScanningDecoder.c **** * @param numECCodewords number of those codewords used for EC
 562:src/pdf417/PDFScanningDecoder.c **** * @param erasures location of erasures
 563:src/pdf417/PDFScanningDecoder.c **** * @return number of errors
 564:src/pdf417/PDFScanningDecoder.c **** * @throws ChecksumException if errors cannot be corrected, maybe because of too many errors
 565:src/pdf417/PDFScanningDecoder.c **** */
 566:src/pdf417/PDFScanningDecoder.c **** ZXING_EXPORT_TEST_ONLY
 567:src/pdf417/PDFScanningDecoder.c **** bool DecodeErrorCorrection(std::vector<int>& received, int numECCodewords, const std::vector<int>& 
 568:src/pdf417/PDFScanningDecoder.c **** {
 569:src/pdf417/PDFScanningDecoder.c **** #ifdef HK_DEBUG
 570:src/pdf417/PDFScanningDecoder.c **** 	printf("DecodeErrorCorrection  numECCodewords=%d, nbErrors=%d\n", numECCodewords, nbErrors);
 571:src/pdf417/PDFScanningDecoder.c **** #endif
 572:src/pdf417/PDFScanningDecoder.c **** 	
 573:src/pdf417/PDFScanningDecoder.c **** 	const ModulusGF& field = GetModulusGF();
 574:src/pdf417/PDFScanningDecoder.c **** 	ModulusPoly poly(field, received);
 575:src/pdf417/PDFScanningDecoder.c **** 	std::vector<int> S(numECCodewords);
 576:src/pdf417/PDFScanningDecoder.c **** 	bool error = false;
 577:src/pdf417/PDFScanningDecoder.c **** 	for (int i = numECCodewords; i > 0; i--) 
 578:src/pdf417/PDFScanningDecoder.c **** 	{
 579:src/pdf417/PDFScanningDecoder.c **** 		int eval = poly.evaluateAt(field.exp(i));
 580:src/pdf417/PDFScanningDecoder.c **** 		S[numECCodewords - i] = eval;
 581:src/pdf417/PDFScanningDecoder.c **** 		if (eval != 0) {
 582:src/pdf417/PDFScanningDecoder.c **** 			error = true;
 583:src/pdf417/PDFScanningDecoder.c **** 		}
 584:src/pdf417/PDFScanningDecoder.c **** 	}
 585:src/pdf417/PDFScanningDecoder.c **** 
 586:src/pdf417/PDFScanningDecoder.c **** 	if (!error) 
 587:src/pdf417/PDFScanningDecoder.c **** 	{
 588:src/pdf417/PDFScanningDecoder.c **** 		nbErrors = 0;
 589:src/pdf417/PDFScanningDecoder.c **** 		return true;
 590:src/pdf417/PDFScanningDecoder.c **** 	}
 591:src/pdf417/PDFScanningDecoder.c **** 
 592:src/pdf417/PDFScanningDecoder.c **** 	ModulusPoly knownErrors = field.one();
 593:src/pdf417/PDFScanningDecoder.c **** 	for (int erasure : erasures) {
 594:src/pdf417/PDFScanningDecoder.c **** 		int b = field.exp(Size(received) - 1 - erasure);
 595:src/pdf417/PDFScanningDecoder.c **** 		// Add (1 - bx) term:
 596:src/pdf417/PDFScanningDecoder.c **** 		ModulusPoly term(field, { field.subtract(0, b), 1 });
 597:src/pdf417/PDFScanningDecoder.c **** 		knownErrors = knownErrors.multiply(term);
 598:src/pdf417/PDFScanningDecoder.c **** 	}
 599:src/pdf417/PDFScanningDecoder.c **** 
 600:src/pdf417/PDFScanningDecoder.c **** 	ModulusPoly syndrome(field, S);
 601:src/pdf417/PDFScanningDecoder.c **** 	//syndrome = syndrome.multiply(knownErrors);
 602:src/pdf417/PDFScanningDecoder.c **** 
 603:src/pdf417/PDFScanningDecoder.c **** 	ModulusPoly sigma, omega;
 604:src/pdf417/PDFScanningDecoder.c **** 	if (!RunEuclideanAlgorithm(field.buildMonomial(numECCodewords, 1), syndrome, numECCodewords, sigma
 605:src/pdf417/PDFScanningDecoder.c **** 		return false;
 606:src/pdf417/PDFScanningDecoder.c **** 	}
 607:src/pdf417/PDFScanningDecoder.c **** 
 608:src/pdf417/PDFScanningDecoder.c **** 	//sigma = sigma.multiply(knownErrors);
 609:src/pdf417/PDFScanningDecoder.c **** 
 610:src/pdf417/PDFScanningDecoder.c **** 	std::vector<int> errorLocations;
 611:src/pdf417/PDFScanningDecoder.c **** 	if (!FindErrorLocations(sigma, errorLocations)) {
 612:src/pdf417/PDFScanningDecoder.c **** 		return false;
 613:src/pdf417/PDFScanningDecoder.c **** 	}
 614:src/pdf417/PDFScanningDecoder.c **** 
GAS LISTING C:\Users\jisu8\AppData\Local\Temp\ccKup3Lg.s 			page 29


 615:src/pdf417/PDFScanningDecoder.c **** 	std::vector<int> errorMagnitudes = FindErrorMagnitudes(omega, sigma, errorLocations);
 616:src/pdf417/PDFScanningDecoder.c **** 
 617:src/pdf417/PDFScanningDecoder.c **** 	int receivedSize = Size(received);
 618:src/pdf417/PDFScanningDecoder.c **** 	for (size_t i = 0; i < errorLocations.size(); i++) {
 619:src/pdf417/PDFScanningDecoder.c **** 		int position = receivedSize - 1 - field.log(errorLocations[i]);
 620:src/pdf417/PDFScanningDecoder.c **** 		if (position < 0) {
 621:src/pdf417/PDFScanningDecoder.c **** 			return false;
 622:src/pdf417/PDFScanningDecoder.c **** 		}
 623:src/pdf417/PDFScanningDecoder.c **** 		received[position] = field.subtract(received[position], errorMagnitudes[i]);
 624:src/pdf417/PDFScanningDecoder.c **** 	}
 625:src/pdf417/PDFScanningDecoder.c **** 	nbErrors = Size(errorLocations);
 626:src/pdf417/PDFScanningDecoder.c **** 	return true;
 627:src/pdf417/PDFScanningDecoder.c **** }
 628:src/pdf417/PDFScanningDecoder.c **** 
 629:src/pdf417/PDFScanningDecoder.c **** #endif
 630:src/pdf417/PDFScanningDecoder.c **** #if 0
 631:src/pdf417/PDFScanningDecoder.c **** // --------------------------------------- Error Correction
 632:src/pdf417/PDFScanningDecoder.c **** 
 633:src/pdf417/PDFScanningDecoder.c **** /**
 634:src/pdf417/PDFScanningDecoder.c **** * <p>Given data and error-correction codewords received, possibly corrupted by errors, attempts to
 635:src/pdf417/PDFScanningDecoder.c **** * correct the errors in-place.</p>
 636:src/pdf417/PDFScanningDecoder.c **** *
 637:src/pdf417/PDFScanningDecoder.c **** * @param codewords   data and error correction codewords
 638:src/pdf417/PDFScanningDecoder.c **** * @param erasures positions of any known erasures
 639:src/pdf417/PDFScanningDecoder.c **** * @param numECCodewords number of error correction codewords that are available in codewords
 640:src/pdf417/PDFScanningDecoder.c **** * @throws ChecksumException if error correction fails
 641:src/pdf417/PDFScanningDecoder.c **** */
 642:src/pdf417/PDFScanningDecoder.c **** static bool CorrectErrors(std::vector<int>& codewords, const std::vector<int>& erasures, int numECC
 643:src/pdf417/PDFScanningDecoder.c **** {
 644:src/pdf417/PDFScanningDecoder.c **** #ifdef HK_DEBUG
 645:src/pdf417/PDFScanningDecoder.c **** 	printf("CorrectErrors  numECCodewords=%d, errorCount=%d\n", numECCodewords, errorCount);
 646:src/pdf417/PDFScanningDecoder.c **** #endif
 647:src/pdf417/PDFScanningDecoder.c **** 	
 648:src/pdf417/PDFScanningDecoder.c **** 	if (Size(erasures) > numECCodewords / 2 + MAX_ERRORS ||
 649:src/pdf417/PDFScanningDecoder.c **** 		numECCodewords < 0 ||
 650:src/pdf417/PDFScanningDecoder.c **** 		numECCodewords > MAX_EC_CODEWORDS) {
 651:src/pdf417/PDFScanningDecoder.c **** 		// Too many errors or EC Codewords is corrupted
 652:src/pdf417/PDFScanningDecoder.c **** 		return false;
 653:src/pdf417/PDFScanningDecoder.c **** 	}
 654:src/pdf417/PDFScanningDecoder.c **** 	return DecodeErrorCorrection(codewords, numECCodewords, erasures, errorCount);
 655:src/pdf417/PDFScanningDecoder.c **** }
 656:src/pdf417/PDFScanningDecoder.c **** 
 657:src/pdf417/PDFScanningDecoder.c **** #endif
 658:src/pdf417/PDFScanningDecoder.c **** #if 0
 659:src/pdf417/PDFScanningDecoder.c **** /**
 660:src/pdf417/PDFScanningDecoder.c **** * Verify that all is OK with the codeword array.
 661:src/pdf417/PDFScanningDecoder.c **** */
 662:src/pdf417/PDFScanningDecoder.c **** static bool VerifyCodewordCount(std::vector<int>& codewords, int numECCodewords)
 663:src/pdf417/PDFScanningDecoder.c **** {
 664:src/pdf417/PDFScanningDecoder.c **** 	if (codewords.size() < 4) 
 665:src/pdf417/PDFScanningDecoder.c **** 	{
 666:src/pdf417/PDFScanningDecoder.c **** 		// Codeword array size should be at least 4 allowing for
 667:src/pdf417/PDFScanningDecoder.c **** 		// Count CW, At least one Data CW, Error Correction CW, Error Correction CW
 668:src/pdf417/PDFScanningDecoder.c **** 		return false;
 669:src/pdf417/PDFScanningDecoder.c **** 	}
 670:src/pdf417/PDFScanningDecoder.c **** 	// The first codeword, the Symbol Length Descriptor, shall always encode the total number of data
 671:src/pdf417/PDFScanningDecoder.c **** 	// codewords in the symbol, including the Symbol Length Descriptor itself, data codewords and pad
GAS LISTING C:\Users\jisu8\AppData\Local\Temp\ccKup3Lg.s 			page 30


 672:src/pdf417/PDFScanningDecoder.c **** 	// codewords, but excluding the number of error correction codewords.
 673:src/pdf417/PDFScanningDecoder.c **** 	int numberOfCodewords = codewords[0];
 674:src/pdf417/PDFScanningDecoder.c **** 
 675:src/pdf417/PDFScanningDecoder.c **** 	if (numberOfCodewords > Size(codewords)) 
 676:src/pdf417/PDFScanningDecoder.c **** 	{
 677:src/pdf417/PDFScanningDecoder.c **** 		return false;
 678:src/pdf417/PDFScanningDecoder.c **** 	}
 679:src/pdf417/PDFScanningDecoder.c **** 
 680:src/pdf417/PDFScanningDecoder.c **** 	if (numberOfCodewords == 0) 
 681:src/pdf417/PDFScanningDecoder.c **** 	{
 682:src/pdf417/PDFScanningDecoder.c **** 		// Reset to the length of the array - 8 (Allow for at least level 3 Error Correction (8 Error Cod
 683:src/pdf417/PDFScanningDecoder.c **** 		if (numECCodewords < Size(codewords)) 
 684:src/pdf417/PDFScanningDecoder.c **** 		{
 685:src/pdf417/PDFScanningDecoder.c **** 			codewords[0] = Size(codewords) - numECCodewords;
 686:src/pdf417/PDFScanningDecoder.c **** 		}
 687:src/pdf417/PDFScanningDecoder.c **** 		else 
 688:src/pdf417/PDFScanningDecoder.c **** 		{
 689:src/pdf417/PDFScanningDecoder.c **** 			return false;
 690:src/pdf417/PDFScanningDecoder.c **** 		}
 691:src/pdf417/PDFScanningDecoder.c **** 	}
 692:src/pdf417/PDFScanningDecoder.c **** 	return true;
 693:src/pdf417/PDFScanningDecoder.c **** }
 694:src/pdf417/PDFScanningDecoder.c **** 
 695:src/pdf417/PDFScanningDecoder.c **** #endif
 696:src/pdf417/PDFScanningDecoder.c **** #if 0
 697:src/pdf417/PDFScanningDecoder.c **** DecoderResult DecodeCodewords(std::vector<int>& codewords, int ecLevel, const std::vector<int>& era
 698:src/pdf417/PDFScanningDecoder.c **** 							  const std::string& characterSet)
 699:src/pdf417/PDFScanningDecoder.c **** {
 700:src/pdf417/PDFScanningDecoder.c **** 	if (codewords.empty()) 
 701:src/pdf417/PDFScanningDecoder.c **** 	{
 702:src/pdf417/PDFScanningDecoder.c **** 		return DecodeStatus::FormatError;
 703:src/pdf417/PDFScanningDecoder.c **** 	}
 704:src/pdf417/PDFScanningDecoder.c **** 
 705:src/pdf417/PDFScanningDecoder.c **** 	int numECCodewords = 1 << (ecLevel + 1);
 706:src/pdf417/PDFScanningDecoder.c **** 	int correctedErrorsCount = 0;
 707:src/pdf417/PDFScanningDecoder.c **** 	if (!CorrectErrors(codewords, erasures, numECCodewords, correctedErrorsCount))
 708:src/pdf417/PDFScanningDecoder.c **** 		return DecodeStatus::ChecksumError;
 709:src/pdf417/PDFScanningDecoder.c **** 
 710:src/pdf417/PDFScanningDecoder.c **** 	if (!VerifyCodewordCount(codewords, numECCodewords))
 711:src/pdf417/PDFScanningDecoder.c **** 		return DecodeStatus::FormatError;
 712:src/pdf417/PDFScanningDecoder.c **** 
 713:src/pdf417/PDFScanningDecoder.c **** 	// Decode the codewords
 714:src/pdf417/PDFScanningDecoder.c **** 	auto result = DecodedBitStreamParser::Decode(codewords, ecLevel, characterSet);
 715:src/pdf417/PDFScanningDecoder.c **** 	if (result.isValid()) 
 716:src/pdf417/PDFScanningDecoder.c **** 	{
 717:src/pdf417/PDFScanningDecoder.c **** 		result.setErrorsCorrected(correctedErrorsCount);
 718:src/pdf417/PDFScanningDecoder.c **** 		result.setErasures(Size(erasures));
 719:src/pdf417/PDFScanningDecoder.c **** 	}
 720:src/pdf417/PDFScanningDecoder.c **** 
 721:src/pdf417/PDFScanningDecoder.c **** 	return result;
 722:src/pdf417/PDFScanningDecoder.c **** }
 723:src/pdf417/PDFScanningDecoder.c **** 
 724:src/pdf417/PDFScanningDecoder.c **** 
 725:src/pdf417/PDFScanningDecoder.c **** #endif
 726:src/pdf417/PDFScanningDecoder.c **** #if 0
 727:src/pdf417/PDFScanningDecoder.c **** /**
 728:src/pdf417/PDFScanningDecoder.c **** * This method deals with the fact, that the decoding process doesn't always yield a single most lik
GAS LISTING C:\Users\jisu8\AppData\Local\Temp\ccKup3Lg.s 			page 31


 729:src/pdf417/PDFScanningDecoder.c **** * current error correction implementation doesn't deal with erasures very well, so it's better to p
 730:src/pdf417/PDFScanningDecoder.c **** * for these ambiguous codewords instead of treating it as an erasure. The problem is that we don't 
 731:src/pdf417/PDFScanningDecoder.c **** * the ambiguous values to choose. We try decode using the first value, and if that fails, we use an
 732:src/pdf417/PDFScanningDecoder.c **** * ambiguous values and try to decode again. This usually only happens on very hard to read and deco
 733:src/pdf417/PDFScanningDecoder.c **** * so decoding the normal barcodes is not affected by this.
 734:src/pdf417/PDFScanningDecoder.c **** *
 735:src/pdf417/PDFScanningDecoder.c **** * @param erasureArray contains the indexes of erasures
 736:src/pdf417/PDFScanningDecoder.c **** * @param ambiguousIndexes array with the indexes that have more than one most likely value
 737:src/pdf417/PDFScanningDecoder.c **** * @param ambiguousIndexValues two dimensional array that contains the ambiguous values. The first d
 738:src/pdf417/PDFScanningDecoder.c **** * be the same length as the ambiguousIndexes array
 739:src/pdf417/PDFScanningDecoder.c **** */
 740:src/pdf417/PDFScanningDecoder.c **** static DecoderResult CreateDecoderResultFromAmbiguousValues(int ecLevel, std::vector<int>& codeword
 741:src/pdf417/PDFScanningDecoder.c **** 	const std::vector<int>& erasureArray, const std::vector<int>& ambiguousIndexes,
 742:src/pdf417/PDFScanningDecoder.c **** 	const std::vector<std::vector<int>>& ambiguousIndexValues, const std::string& characterSet)
 743:src/pdf417/PDFScanningDecoder.c **** {
 744:src/pdf417/PDFScanningDecoder.c **** 	std::vector<int> ambiguousIndexCount(ambiguousIndexes.size(), 0);
 745:src/pdf417/PDFScanningDecoder.c **** 
 746:src/pdf417/PDFScanningDecoder.c **** 	int tries = 100;
 747:src/pdf417/PDFScanningDecoder.c **** 	while (tries-- > 0) {
 748:src/pdf417/PDFScanningDecoder.c **** 		for (size_t i = 0; i < ambiguousIndexCount.size(); i++) {
 749:src/pdf417/PDFScanningDecoder.c **** 			codewords[ambiguousIndexes[i]] = ambiguousIndexValues[i][ambiguousIndexCount[i]];
 750:src/pdf417/PDFScanningDecoder.c **** 		}
 751:src/pdf417/PDFScanningDecoder.c **** 		auto result = DecodeCodewords(codewords, ecLevel, erasureArray, characterSet);
 752:src/pdf417/PDFScanningDecoder.c **** 		if (result.errorCode() != DecodeStatus::ChecksumError) {
 753:src/pdf417/PDFScanningDecoder.c **** 			return result;
 754:src/pdf417/PDFScanningDecoder.c **** 		}
 755:src/pdf417/PDFScanningDecoder.c **** 
 756:src/pdf417/PDFScanningDecoder.c **** 		if (ambiguousIndexCount.empty()) {
 757:src/pdf417/PDFScanningDecoder.c **** 			return DecodeStatus::ChecksumError;
 758:src/pdf417/PDFScanningDecoder.c **** 		}
 759:src/pdf417/PDFScanningDecoder.c **** 		for (size_t i = 0; i < ambiguousIndexCount.size(); i++) {
 760:src/pdf417/PDFScanningDecoder.c **** 			if (ambiguousIndexCount[i] < Size(ambiguousIndexValues[i]) - 1) {
 761:src/pdf417/PDFScanningDecoder.c **** 				ambiguousIndexCount[i]++;
 762:src/pdf417/PDFScanningDecoder.c **** 				break;
 763:src/pdf417/PDFScanningDecoder.c **** 			}
 764:src/pdf417/PDFScanningDecoder.c **** 			else {
 765:src/pdf417/PDFScanningDecoder.c **** 				ambiguousIndexCount[i] = 0;
 766:src/pdf417/PDFScanningDecoder.c **** 				if (i == ambiguousIndexCount.size() - 1) {
 767:src/pdf417/PDFScanningDecoder.c **** 					return DecodeStatus::ChecksumError;
 768:src/pdf417/PDFScanningDecoder.c **** 				}
 769:src/pdf417/PDFScanningDecoder.c **** 			}
 770:src/pdf417/PDFScanningDecoder.c **** 		}
 771:src/pdf417/PDFScanningDecoder.c **** 	}
 772:src/pdf417/PDFScanningDecoder.c **** 	return DecodeStatus::ChecksumError;
 773:src/pdf417/PDFScanningDecoder.c **** }
 774:src/pdf417/PDFScanningDecoder.c **** 
 775:src/pdf417/PDFScanningDecoder.c **** 
 776:src/pdf417/PDFScanningDecoder.c **** #endif
 777:src/pdf417/PDFScanningDecoder.c **** #if 0
 778:src/pdf417/PDFScanningDecoder.c **** static DecoderResult CreateDecoderResult(DetectionResult& detectionResult, const std::string& chara
 779:src/pdf417/PDFScanningDecoder.c **** {
 780:src/pdf417/PDFScanningDecoder.c **** 	auto barcodeMatrix = CreateBarcodeMatrix(detectionResult);
 781:src/pdf417/PDFScanningDecoder.c **** 	if (!AdjustCodewordCount(detectionResult, barcodeMatrix)) {
 782:src/pdf417/PDFScanningDecoder.c **** 		return DecodeStatus::NotFound;
 783:src/pdf417/PDFScanningDecoder.c **** 	}
 784:src/pdf417/PDFScanningDecoder.c **** 	std::vector<int> erasures;
 785:src/pdf417/PDFScanningDecoder.c **** 	std::vector<int> codewords(detectionResult.barcodeRowCount() * detectionResult.barcodeColumnCount(
GAS LISTING C:\Users\jisu8\AppData\Local\Temp\ccKup3Lg.s 			page 32


 786:src/pdf417/PDFScanningDecoder.c **** 	std::vector<std::vector<int>> ambiguousIndexValues;
 787:src/pdf417/PDFScanningDecoder.c **** 	std::vector<int> ambiguousIndexesList;
 788:src/pdf417/PDFScanningDecoder.c **** 	for (int row = 0; row < detectionResult.barcodeRowCount(); row++) {
 789:src/pdf417/PDFScanningDecoder.c **** 		for (int column = 0; column < detectionResult.barcodeColumnCount(); column++) {
 790:src/pdf417/PDFScanningDecoder.c **** 			auto values = barcodeMatrix[row][column + 1].value();
 791:src/pdf417/PDFScanningDecoder.c **** 			int codewordIndex = row * detectionResult.barcodeColumnCount() + column;
 792:src/pdf417/PDFScanningDecoder.c **** 			if (values.empty()) {
 793:src/pdf417/PDFScanningDecoder.c **** 				erasures.push_back(codewordIndex);
 794:src/pdf417/PDFScanningDecoder.c **** 			}
 795:src/pdf417/PDFScanningDecoder.c **** 			else if (values.size() == 1) {
 796:src/pdf417/PDFScanningDecoder.c **** 				codewords[codewordIndex] = values[0];
 797:src/pdf417/PDFScanningDecoder.c **** 			}
 798:src/pdf417/PDFScanningDecoder.c **** 			else {
 799:src/pdf417/PDFScanningDecoder.c **** 				ambiguousIndexesList.push_back(codewordIndex);
 800:src/pdf417/PDFScanningDecoder.c **** 				ambiguousIndexValues.push_back(values);
 801:src/pdf417/PDFScanningDecoder.c **** 			}
 802:src/pdf417/PDFScanningDecoder.c **** 		}
 803:src/pdf417/PDFScanningDecoder.c **** 	}
 804:src/pdf417/PDFScanningDecoder.c **** 	return CreateDecoderResultFromAmbiguousValues(detectionResult.barcodeECLevel(), codewords, erasure
 805:src/pdf417/PDFScanningDecoder.c **** 												  ambiguousIndexesList, ambiguousIndexValues, characterSet);
 806:src/pdf417/PDFScanningDecoder.c **** }
 807:src/pdf417/PDFScanningDecoder.c **** #endif
 808:src/pdf417/PDFScanningDecoder.c **** 
 809:src/pdf417/PDFScanningDecoder.c **** // TODO don't pass in minCodewordWidth and maxCodewordWidth, pass in barcode columns for start and 
 810:src/pdf417/PDFScanningDecoder.c **** // columns. That way width can be deducted from the pattern column.
 811:src/pdf417/PDFScanningDecoder.c **** // This approach also allows to detect more details about the barcode, e.g. if a bar type (white or
 812:src/pdf417/PDFScanningDecoder.c **** // than it should be. This can happen if the scanner used a bad blackpoint.
 813:src/pdf417/PDFScanningDecoder.c **** DecoderResult_t * Decode(const BitMatrix_t * image, ResultPoint_t imageTopLeft, ResultPoint_t image
 814:src/pdf417/PDFScanningDecoder.c **** 	ResultPoint_t imageTopRight, ResultPoint_t imageBottomRight,
 815:src/pdf417/PDFScanningDecoder.c **** 	int minCodewordWidth, int maxCodewordWidth, const unsigned char * characterSet)
 816:src/pdf417/PDFScanningDecoder.c **** {
 877              		.loc 1 816 1
 878              		.cfi_startproc
 879 0605 55       		pushl	%ebp
 880              	LCFI27:
 881              		.cfi_def_cfa_offset 8
 882              		.cfi_offset 5, -8
 883 0606 89E5     		movl	%esp, %ebp
 884              	LCFI28:
 885              		.cfi_def_cfa_register 5
 886 0608 57       		pushl	%edi
 887 0609 56       		pushl	%esi
 888 060a 53       		pushl	%ebx
 889 060b 81ECBC00 		subl	$188, %esp
 889      0000
 890              		.cfi_offset 7, -12
 891              		.cfi_offset 6, -16
 892              		.cfi_offset 3, -20
 817:src/pdf417/PDFScanningDecoder.c **** 	BoundingBox_t boundingBox;
 818:src/pdf417/PDFScanningDecoder.c **** 	if (!Create(image->_width, image->_height, imageTopLeft, imageBottomLeft, imageTopRight, imageBott
 893              		.loc 1 818 7
 894 0611 8B4508   		movl	8(%ebp), %eax
 895 0614 8B5004   		movl	4(%eax), %edx
 896 0617 8B4508   		movl	8(%ebp), %eax
 897 061a 8B00     		movl	(%eax), %eax
 898 061c 8D4D94   		leal	-108(%ebp), %ecx
 899 061f 894C2438 		movl	%ecx, 56(%esp)
GAS LISTING C:\Users\jisu8\AppData\Local\Temp\ccKup3Lg.s 			page 33


 900 0623 8B4D30   		movl	48(%ebp), %ecx
 901 0626 894C242C 		movl	%ecx, 44(%esp)
 902 062a 8B4D34   		movl	52(%ebp), %ecx
 903 062d 894C2430 		movl	%ecx, 48(%esp)
 904 0631 8B4D38   		movl	56(%ebp), %ecx
 905 0634 894C2434 		movl	%ecx, 52(%esp)
 906 0638 8B4D24   		movl	36(%ebp), %ecx
 907 063b 894C2420 		movl	%ecx, 32(%esp)
 908 063f 8B4D28   		movl	40(%ebp), %ecx
 909 0642 894C2424 		movl	%ecx, 36(%esp)
 910 0646 8B4D2C   		movl	44(%ebp), %ecx
 911 0649 894C2428 		movl	%ecx, 40(%esp)
 912 064d 8B4D18   		movl	24(%ebp), %ecx
 913 0650 894C2414 		movl	%ecx, 20(%esp)
 914 0654 8B4D1C   		movl	28(%ebp), %ecx
 915 0657 894C2418 		movl	%ecx, 24(%esp)
 916 065b 8B4D20   		movl	32(%ebp), %ecx
 917 065e 894C241C 		movl	%ecx, 28(%esp)
 918 0662 8B4D0C   		movl	12(%ebp), %ecx
 919 0665 894C2408 		movl	%ecx, 8(%esp)
 920 0669 8B4D10   		movl	16(%ebp), %ecx
 921 066c 894C240C 		movl	%ecx, 12(%esp)
 922 0670 8B4D14   		movl	20(%ebp), %ecx
 923 0673 894C2410 		movl	%ecx, 16(%esp)
 924 0677 89542404 		movl	%edx, 4(%esp)
 925 067b 890424   		movl	%eax, (%esp)
 926 067e E8000000 		call	_Create
 926      00
 927              		.loc 1 818 5
 928 0683 84C0     		testb	%al, %al
 929 0685 750A     		jne	L67
 819:src/pdf417/PDFScanningDecoder.c **** 	{
 820:src/pdf417/PDFScanningDecoder.c **** 		return NotFound;
 930              		.loc 1 820 10
 931 0687 B8010000 		movl	$1, %eax
 931      00
 932 068c E9D40000 		jmp	L66
 932      00
 933              	L67:
 934              	LBB8:
 821:src/pdf417/PDFScanningDecoder.c **** 	}
 822:src/pdf417/PDFScanningDecoder.c **** 
 823:src/pdf417/PDFScanningDecoder.c **** 	DetectionResultColumn_t * leftRowIndicatorColumn;
 824:src/pdf417/PDFScanningDecoder.c **** 	DetectionResultColumn_t * rightRowIndicatorColumn;
 825:src/pdf417/PDFScanningDecoder.c **** 	DetectionResult_t detectionResult;
 826:src/pdf417/PDFScanningDecoder.c **** 	for (int i = 0; i < 2; i++) 
 935              		.loc 1 826 11
 936 0691 C745E400 		movl	$0, -28(%ebp)
 936      000000
 937              		.loc 1 826 2
 938 0698 E9BE0000 		jmp	L69
 938      00
 939              	L75:
 827:src/pdf417/PDFScanningDecoder.c **** 	{
 828:src/pdf417/PDFScanningDecoder.c **** 		if (imageTopLeft.m_hasValue != 0) 
 940              		.loc 1 828 19
 941 069d 0FB6450C 		movzbl	12(%ebp), %eax
GAS LISTING C:\Users\jisu8\AppData\Local\Temp\ccKup3Lg.s 			page 34


 942              		.loc 1 828 6
 943 06a1 84C0     		testb	%al, %al
 944 06a3 7432     		je	L70
 829:src/pdf417/PDFScanningDecoder.c **** 		{
 830:src/pdf417/PDFScanningDecoder.c **** 			leftRowIndicatorColumn = GetRowIndicatorColumn(image, &boundingBox, &imageTopLeft, 1, minCodewor
 945              		.loc 1 830 29
 946 06a5 8B4540   		movl	64(%ebp), %eax
 947 06a8 89442414 		movl	%eax, 20(%esp)
 948 06ac 8B453C   		movl	60(%ebp), %eax
 949 06af 89442410 		movl	%eax, 16(%esp)
 950 06b3 C744240C 		movl	$1, 12(%esp)
 950      01000000 
 951 06bb 8D450C   		leal	12(%ebp), %eax
 952 06be 89442408 		movl	%eax, 8(%esp)
 953 06c2 8D4594   		leal	-108(%ebp), %eax
 954 06c5 89442404 		movl	%eax, 4(%esp)
 955 06c9 8B4508   		movl	8(%ebp), %eax
 956 06cc 890424   		movl	%eax, (%esp)
 957 06cf E818FEFF 		call	_GetRowIndicatorColumn
 957      FF
 958 06d4 8945E0   		movl	%eax, -32(%ebp)
 959              	L70:
 831:src/pdf417/PDFScanningDecoder.c **** 		}
 832:src/pdf417/PDFScanningDecoder.c **** 		if (imageTopRight.m_hasValue != 0) 
 960              		.loc 1 832 20
 961 06d7 0FB64524 		movzbl	36(%ebp), %eax
 962              		.loc 1 832 6
 963 06db 84C0     		testb	%al, %al
 964 06dd 7432     		je	L71
 833:src/pdf417/PDFScanningDecoder.c **** 		{
 834:src/pdf417/PDFScanningDecoder.c **** 			rightRowIndicatorColumn = GetRowIndicatorColumn(image, &boundingBox, &imageTopRight, 0, minCodew
 965              		.loc 1 834 30
 966 06df 8B4540   		movl	64(%ebp), %eax
 967 06e2 89442414 		movl	%eax, 20(%esp)
 968 06e6 8B453C   		movl	60(%ebp), %eax
 969 06e9 89442410 		movl	%eax, 16(%esp)
 970 06ed C744240C 		movl	$0, 12(%esp)
 970      00000000 
 971 06f5 8D4524   		leal	36(%ebp), %eax
 972 06f8 89442408 		movl	%eax, 8(%esp)
 973 06fc 8D4594   		leal	-108(%ebp), %eax
 974 06ff 89442404 		movl	%eax, 4(%esp)
 975 0703 8B4508   		movl	8(%ebp), %eax
 976 0706 890424   		movl	%eax, (%esp)
 977 0709 E8DEFDFF 		call	_GetRowIndicatorColumn
 977      FF
 978 070e 8945DC   		movl	%eax, -36(%ebp)
 979              	L71:
 835:src/pdf417/PDFScanningDecoder.c **** 		}
 836:src/pdf417/PDFScanningDecoder.c **** 		//if (!Merge(leftRowIndicatorColumn, rightRowIndicatorColumn, detectionResult)) 
 837:src/pdf417/PDFScanningDecoder.c **** 		//{
 838:src/pdf417/PDFScanningDecoder.c **** 			//return NotFound;
 839:src/pdf417/PDFScanningDecoder.c **** 		//}
 840:src/pdf417/PDFScanningDecoder.c **** 		if (i == 0 && (detectionResult._boundingBox != NULL) && (detectionResult._boundingBox->_minY < bo
 980              		.loc 1 840 6
 981 0711 837DE400 		cmpl	$0, -28(%ebp)
 982 0715 753C     		jne	L72
GAS LISTING C:\Users\jisu8\AppData\Local\Temp\ccKup3Lg.s 			page 35


 983              		.loc 1 840 33 discriminator 1
 984 0717 8B4590   		movl	-112(%ebp), %eax
 985              		.loc 1 840 14 discriminator 1
 986 071a 85C0     		testl	%eax, %eax
 987 071c 7435     		je	L72
 988              		.loc 1 840 75 discriminator 2
 989 071e 8B4590   		movl	-112(%ebp), %eax
 990              		.loc 1 840 88 discriminator 2
 991 0721 8B5040   		movl	64(%eax), %edx
 992              		.loc 1 840 109 discriminator 2
 993 0724 8B45D4   		movl	-44(%ebp), %eax
 994              		.loc 1 840 56 discriminator 2
 995 0727 39C2     		cmpl	%eax, %edx
 996 0729 7C0D     		jl	L73
 997              		.loc 1 840 134 discriminator 3
 998 072b 8B4590   		movl	-112(%ebp), %eax
 999              		.loc 1 840 147 discriminator 3
 1000 072e 8B5044   		movl	68(%eax), %edx
 1001              		.loc 1 840 168 discriminator 3
 1002 0731 8B45D8   		movl	-40(%ebp), %eax
 1003              		.loc 1 840 116 discriminator 3
 1004 0734 39C2     		cmpl	%eax, %edx
 1005 0736 7E1B     		jle	L72
 1006              	L73:
 841:src/pdf417/PDFScanningDecoder.c **** 		{
 842:src/pdf417/PDFScanningDecoder.c **** 			boundingBox = *detectionResult._boundingBox;
 1007              		.loc 1 842 34
 1008 0738 8B5590   		movl	-112(%ebp), %edx
 1009              		.loc 1 842 16
 1010 073b 8D4594   		leal	-108(%ebp), %eax
 1011 073e 89D3     		movl	%edx, %ebx
 1012 0740 BA120000 		movl	$18, %edx
 1012      00
 1013 0745 89C7     		movl	%eax, %edi
 1014 0747 89DE     		movl	%ebx, %esi
 1015 0749 89D1     		movl	%edx, %ecx
 1016 074b F3A5     		rep movsl
 826:src/pdf417/PDFScanningDecoder.c **** 	{
 1017              		.loc 1 826 26
 1018 074d 8345E401 		addl	$1, -28(%ebp)
 1019 0751 EB08     		jmp	L69
 1020              	L72:
 843:src/pdf417/PDFScanningDecoder.c **** 		}
 844:src/pdf417/PDFScanningDecoder.c **** 		else 
 845:src/pdf417/PDFScanningDecoder.c **** 		{
 846:src/pdf417/PDFScanningDecoder.c **** 			detectionResult._boundingBox = &boundingBox;
 1021              		.loc 1 846 33
 1022 0753 8D4594   		leal	-108(%ebp), %eax
 1023 0756 894590   		movl	%eax, -112(%ebp)
 847:src/pdf417/PDFScanningDecoder.c **** 			break;
 1024              		.loc 1 847 4
 1025 0759 EB0A     		jmp	L74
 1026              	L69:
 826:src/pdf417/PDFScanningDecoder.c **** 	{
 1027              		.loc 1 826 2 discriminator 1
 1028 075b 837DE401 		cmpl	$1, -28(%ebp)
 1029 075f 0F8E38FF 		jle	L75
GAS LISTING C:\Users\jisu8\AppData\Local\Temp\ccKup3Lg.s 			page 36


 1029      FFFF
 1030              	L74:
 1031              	L66:
 1032              	LBE8:
 848:src/pdf417/PDFScanningDecoder.c **** 		}
 849:src/pdf417/PDFScanningDecoder.c **** 	}
 850:src/pdf417/PDFScanningDecoder.c **** 	#if 0
 851:src/pdf417/PDFScanningDecoder.c **** 	int maxBarcodeColumn = detectionResult.barcodeColumnCount() + 1;
 852:src/pdf417/PDFScanningDecoder.c **** 	detectionResult.setColumn(0, leftRowIndicatorColumn);
 853:src/pdf417/PDFScanningDecoder.c **** 	detectionResult.setColumn(maxBarcodeColumn, rightRowIndicatorColumn);
 854:src/pdf417/PDFScanningDecoder.c **** 
 855:src/pdf417/PDFScanningDecoder.c **** 	bool leftToRight = leftRowIndicatorColumn != nullptr;
 856:src/pdf417/PDFScanningDecoder.c **** 	for (int barcodeColumnCount = 1; barcodeColumnCount <= maxBarcodeColumn; barcodeColumnCount++) {
 857:src/pdf417/PDFScanningDecoder.c **** 		int barcodeColumn = leftToRight ? barcodeColumnCount : maxBarcodeColumn - barcodeColumnCount;
 858:src/pdf417/PDFScanningDecoder.c **** 		if (detectionResult.column(barcodeColumn) != nullptr) {
 859:src/pdf417/PDFScanningDecoder.c **** 			// This will be the case for the opposite row indicator column, which doesn't need to be decoded
 860:src/pdf417/PDFScanningDecoder.c **** 			continue;
 861:src/pdf417/PDFScanningDecoder.c **** 		}
 862:src/pdf417/PDFScanningDecoder.c **** 		DetectionResultColumn::RowIndicator rowIndicator = barcodeColumn == 0 ? DetectionResultColumn::Ro
 863:src/pdf417/PDFScanningDecoder.c **** 		detectionResult.setColumn(barcodeColumn, DetectionResultColumn(boundingBox, rowIndicator));
 864:src/pdf417/PDFScanningDecoder.c **** 		int startColumn = -1;
 865:src/pdf417/PDFScanningDecoder.c **** 		int previousStartColumn = startColumn;
 866:src/pdf417/PDFScanningDecoder.c **** 		// TODO start at a row for which we know the start position, then detect upwards and downwards fr
 867:src/pdf417/PDFScanningDecoder.c **** 		for (int imageRow = boundingBox.minY(); imageRow <= boundingBox.maxY(); imageRow++) {
 868:src/pdf417/PDFScanningDecoder.c **** 			startColumn = GetStartColumn(detectionResult, barcodeColumn, imageRow, leftToRight);
 869:src/pdf417/PDFScanningDecoder.c **** 			if (startColumn < 0 || startColumn > boundingBox.maxX()) {
 870:src/pdf417/PDFScanningDecoder.c **** 				if (previousStartColumn == -1) {
 871:src/pdf417/PDFScanningDecoder.c **** 					continue;
 872:src/pdf417/PDFScanningDecoder.c **** 				}
 873:src/pdf417/PDFScanningDecoder.c **** 				startColumn = previousStartColumn;
 874:src/pdf417/PDFScanningDecoder.c **** 			}
 875:src/pdf417/PDFScanningDecoder.c **** 			Nullable<Codeword> codeword = DetectCodeword(image, boundingBox.minX(), boundingBox.maxX(), left
 876:src/pdf417/PDFScanningDecoder.c **** 			if (codeword != nullptr) {
 877:src/pdf417/PDFScanningDecoder.c **** 				detectionResult.column(barcodeColumn).value().setCodeword(imageRow, codeword);
 878:src/pdf417/PDFScanningDecoder.c **** 				previousStartColumn = startColumn;
 879:src/pdf417/PDFScanningDecoder.c **** 				minCodewordWidth = std::min(minCodewordWidth, codeword.value().width());
 880:src/pdf417/PDFScanningDecoder.c **** 				maxCodewordWidth = std::max(maxCodewordWidth, codeword.value().width());
 881:src/pdf417/PDFScanningDecoder.c **** 			}
 882:src/pdf417/PDFScanningDecoder.c **** 		}
 883:src/pdf417/PDFScanningDecoder.c **** 	}
 884:src/pdf417/PDFScanningDecoder.c **** 	return CreateDecoderResult(detectionResult, characterSet);
 885:src/pdf417/PDFScanningDecoder.c **** 	#endif
 886:src/pdf417/PDFScanningDecoder.c **** }
 1033              		.loc 1 886 1
 1034 0765 81C4BC00 		addl	$188, %esp
 1034      0000
 1035 076b 5B       		popl	%ebx
 1036              		.cfi_restore 3
 1037 076c 5E       		popl	%esi
 1038              		.cfi_restore 6
 1039 076d 5F       		popl	%edi
 1040              		.cfi_restore 7
 1041 076e 5D       		popl	%ebp
 1042              	LCFI29:
 1043              		.cfi_restore 5
 1044              		.cfi_def_cfa 4, 4
 1045 076f C3       		ret
GAS LISTING C:\Users\jisu8\AppData\Local\Temp\ccKup3Lg.s 			page 37


 1046              		.cfi_endproc
 1047              	LFE13:
 1048              	Letext0:
 1049              		.file 2 "src/StructuredAppend.h"
 1050              		.file 3 "src/decodestatus.h"
 1051              		.file 4 "D:/3.tools/mingw/mingw32/i686-w64-mingw32/include/crtdefs.h"
 1052              		.file 5 "D:/3.tools/mingw/mingw32/i686-w64-mingw32/include/stdint.h"
 1053              		.file 6 "src/DecoderResult.h"
 1054              		.file 7 "src/BitMatrix.h"
 1055              		.file 8 "src/ResultPoint.h"
 1056              		.file 9 "src/pdf417/PDFBoundingBox.h"
 1057              		.file 10 "src/pdf417/PDFCodeword.h"
 1058              		.file 11 "src/pdf417/PDFDetectionResultColumn.h"
 1059              		.file 12 "src/pdf417/PDFBarcodeMetadata.h"
 1060              		.file 13 "src/pdf417/PDFDetectionResult.h"
 1061              		.file 14 "src/pdf417/PDFCodewordDecoder.h"
 1062              		.file 15 "D:/3.tools/mingw/mingw32/i686-w64-mingw32/include/stdlib.h"
 1063              		.file 16 "D:/3.tools/mingw/mingw32/i686-w64-mingw32/include/malloc.h"
 1064              		.file 17 "<built-in>"
 1065              		.section	.debug_info,"dr"
 1066              	Ldebug_info0:
 1067 0000 06120000 		.long	0x1206
 1068 0004 0200     		.word	0x2
 1069 0006 00000000 		.secrel32	Ldebug_abbrev0
 1070 000a 04       		.byte	0x4
 1071 000b 01       		.uleb128 0x1
 1072 000c 474E5520 		.ascii "GNU C17 8.1.0 -mtune=generic -march=i686 -g -gdwarf-2 -O0\0"
 1072      43313720 
 1072      382E312E 
 1072      30202D6D 
 1072      74756E65 
 1073 0046 0C       		.byte	0xc
 1074 0047 7372632F 		.ascii "src/pdf417/PDFScanningDecoder.c\0"
 1074      70646634 
 1074      31372F50 
 1074      44465363 
 1074      616E6E69 
 1075 0067 443A5C31 		.ascii "D:\\1.Project_workspace\\PDF_BARCODE\0"
 1075      2E50726F 
 1075      6A656374 
 1075      5F776F72 
 1075      6B737061 
 1076 008a 00000000 		.long	Ltext0
 1077 008e 70070000 		.long	Letext0
 1078 0092 00000000 		.secrel32	Ldebug_line0
 1079 0096 02       		.uleb128 0x2
 1080 0097 07       		.byte	0x7
 1081 0098 04       		.byte	0x4
 1082 0099 D8000000 		.long	0xd8
 1083 009d 03       		.byte	0x3
 1084 009e 04       		.byte	0x4
 1085 009f 01       		.byte	0x1
 1086 00a0 D8000000 		.long	0xd8
 1087 00a4 03       		.uleb128 0x3
 1088 00a5 4E6F4572 		.ascii "NoError\0"
 1088      726F7200 
 1089 00ad 00       		.byte	0
GAS LISTING C:\Users\jisu8\AppData\Local\Temp\ccKup3Lg.s 			page 38


 1090 00ae 03       		.uleb128 0x3
 1091 00af 4E6F7446 		.ascii "NotFound\0"
 1091      6F756E64 
 1091      00
 1092 00b8 01       		.byte	0x1
 1093 00b9 03       		.uleb128 0x3
 1094 00ba 466F726D 		.ascii "FormatError\0"
 1094      61744572 
 1094      726F7200 
 1095 00c6 02       		.byte	0x2
 1096 00c7 03       		.uleb128 0x3
 1097 00c8 43686563 		.ascii "ChecksumError\0"
 1097      6B73756D 
 1097      4572726F 
 1097      7200
 1098 00d6 03       		.byte	0x3
 1099 00d7 00       		.byte	0
 1100 00d8 04       		.uleb128 0x4
 1101 00d9 04       		.byte	0x4
 1102 00da 07       		.byte	0x7
 1103 00db 756E7369 		.ascii "unsigned int\0"
 1103      676E6564 
 1103      20696E74 
 1103      00
 1104 00e8 05       		.uleb128 0x5
 1105 00e9 4465636F 		.ascii "DecodeStatus_t\0"
 1105      64655374 
 1105      61747573 
 1105      5F7400
 1106 00f8 03       		.byte	0x3
 1107 00f9 09       		.byte	0x9
 1108 00fa 02       		.byte	0x2
 1109 00fb 96000000 		.long	0x96
 1110 00ff 06       		.uleb128 0x6
 1111 0100 0C       		.byte	0xc
 1112 0101 02       		.byte	0x2
 1113 0102 04       		.byte	0x4
 1114 0103 09       		.byte	0x9
 1115 0104 39010000 		.long	0x139
 1116 0108 07       		.uleb128 0x7
 1117 0109 696E6465 		.ascii "index\0"
 1117      7800
 1118 010f 02       		.byte	0x2
 1119 0110 06       		.byte	0x6
 1120 0111 06       		.byte	0x6
 1121 0112 39010000 		.long	0x139
 1122 0116 02       		.byte	0x2
 1123 0117 23       		.byte	0x23
 1124 0118 00       		.uleb128 0
 1125 0119 07       		.uleb128 0x7
 1126 011a 636F756E 		.ascii "count\0"
 1126      7400
 1127 0120 02       		.byte	0x2
 1128 0121 07       		.byte	0x7
 1129 0122 06       		.byte	0x6
 1130 0123 39010000 		.long	0x139
 1131 0127 02       		.byte	0x2
GAS LISTING C:\Users\jisu8\AppData\Local\Temp\ccKup3Lg.s 			page 39


 1132 0128 23       		.byte	0x23
 1133 0129 04       		.uleb128 0x4
 1134 012a 07       		.uleb128 0x7
 1135 012b 696400   		.ascii "id\0"
 1136 012e 02       		.byte	0x2
 1137 012f 08       		.byte	0x8
 1138 0130 09       		.byte	0x9
 1139 0131 45010000 		.long	0x145
 1140 0135 02       		.byte	0x2
 1141 0136 23       		.byte	0x23
 1142 0137 08       		.uleb128 0x8
 1143 0138 00       		.byte	0
 1144 0139 04       		.uleb128 0x4
 1145 013a 04       		.byte	0x4
 1146 013b 05       		.byte	0x5
 1147 013c 696E7400 		.ascii "int\0"
 1148 0140 08       		.uleb128 0x8
 1149 0141 39010000 		.long	0x139
 1150 0145 09       		.uleb128 0x9
 1151 0146 04       		.byte	0x4
 1152 0147 4B010000 		.long	0x14b
 1153 014b 04       		.uleb128 0x4
 1154 014c 01       		.byte	0x1
 1155 014d 06       		.byte	0x6
 1156 014e 63686172 		.ascii "char\0"
 1156      00
 1157 0153 08       		.uleb128 0x8
 1158 0154 4B010000 		.long	0x14b
 1159 0158 05       		.uleb128 0x5
 1160 0159 53747275 		.ascii "StructuredAppendInfo_t\0"
 1160      63747572 
 1160      65644170 
 1160      70656E64 
 1160      496E666F 
 1161 0170 02       		.byte	0x2
 1162 0171 09       		.byte	0x9
 1163 0172 02       		.byte	0x2
 1164 0173 FF000000 		.long	0xff
 1165 0177 05       		.uleb128 0x5
 1166 0178 77636861 		.ascii "wchar_t\0"
 1166      725F7400 
 1167 0180 04       		.byte	0x4
 1168 0181 62       		.byte	0x62
 1169 0182 18       		.byte	0x18
 1170 0183 87010000 		.long	0x187
 1171 0187 04       		.uleb128 0x4
 1172 0188 02       		.byte	0x2
 1173 0189 07       		.byte	0x7
 1174 018a 73686F72 		.ascii "short unsigned int\0"
 1174      7420756E 
 1174      7369676E 
 1174      65642069 
 1174      6E7400
 1175 019d 04       		.uleb128 0x4
 1176 019e 04       		.byte	0x4
 1177 019f 05       		.byte	0x5
 1178 01a0 6C6F6E67 		.ascii "long int\0"
GAS LISTING C:\Users\jisu8\AppData\Local\Temp\ccKup3Lg.s 			page 40


 1178      20696E74 
 1178      00
 1179 01a9 04       		.uleb128 0x4
 1180 01aa 08       		.byte	0x8
 1181 01ab 05       		.byte	0x5
 1182 01ac 6C6F6E67 		.ascii "long long int\0"
 1182      206C6F6E 
 1182      6720696E 
 1182      7400
 1183 01ba 09       		.uleb128 0x9
 1184 01bb 04       		.byte	0x4
 1185 01bc 77010000 		.long	0x177
 1186 01c0 09       		.uleb128 0x9
 1187 01c1 04       		.byte	0x4
 1188 01c2 39010000 		.long	0x139
 1189 01c6 04       		.uleb128 0x4
 1190 01c7 04       		.byte	0x4
 1191 01c8 07       		.byte	0x7
 1192 01c9 6C6F6E67 		.ascii "long unsigned int\0"
 1192      20756E73 
 1192      69676E65 
 1192      6420696E 
 1192      7400
 1193 01db 09       		.uleb128 0x9
 1194 01dc 04       		.byte	0x4
 1195 01dd F2010000 		.long	0x1f2
 1196 01e1 04       		.uleb128 0x4
 1197 01e2 01       		.byte	0x1
 1198 01e3 08       		.byte	0x8
 1199 01e4 756E7369 		.ascii "unsigned char\0"
 1199      676E6564 
 1199      20636861 
 1199      7200
 1200 01f2 08       		.uleb128 0x8
 1201 01f3 E1010000 		.long	0x1e1
 1202 01f7 04       		.uleb128 0x4
 1203 01f8 0C       		.byte	0xc
 1204 01f9 04       		.byte	0x4
 1205 01fa 6C6F6E67 		.ascii "long double\0"
 1205      20646F75 
 1205      626C6500 
 1206 0206 04       		.uleb128 0x4
 1207 0207 10       		.byte	0x10
 1208 0208 04       		.byte	0x4
 1209 0209 5F466C6F 		.ascii "_Float128\0"
 1209      61743132 
 1209      3800
 1210 0213 04       		.uleb128 0x4
 1211 0214 01       		.byte	0x1
 1212 0215 06       		.byte	0x6
 1213 0216 7369676E 		.ascii "signed char\0"
 1213      65642063 
 1213      68617200 
 1214 0222 05       		.uleb128 0x5
 1215 0223 75696E74 		.ascii "uint8_t\0"
 1215      385F7400 
 1216 022b 05       		.byte	0x5
GAS LISTING C:\Users\jisu8\AppData\Local\Temp\ccKup3Lg.s 			page 41


 1217 022c 24       		.byte	0x24
 1218 022d 19       		.byte	0x19
 1219 022e E1010000 		.long	0x1e1
 1220 0232 04       		.uleb128 0x4
 1221 0233 02       		.byte	0x2
 1222 0234 05       		.byte	0x5
 1223 0235 73686F72 		.ascii "short int\0"
 1223      7420696E 
 1223      7400
 1224 023f 04       		.uleb128 0x4
 1225 0240 08       		.byte	0x8
 1226 0241 07       		.byte	0x7
 1227 0242 6C6F6E67 		.ascii "long long unsigned int\0"
 1227      206C6F6E 
 1227      6720756E 
 1227      7369676E 
 1227      65642069 
 1228 0259 06       		.uleb128 0x6
 1229 025a 30       		.byte	0x30
 1230 025b 06       		.byte	0x6
 1231 025c 06       		.byte	0x6
 1232 025d 09       		.byte	0x9
 1233 025e 3A030000 		.long	0x33a
 1234 0262 07       		.uleb128 0x7
 1235 0263 73746174 		.ascii "status\0"
 1235      757300
 1236 026a 06       		.byte	0x6
 1237 026b 08       		.byte	0x8
 1238 026c 11       		.byte	0x11
 1239 026d E8000000 		.long	0xe8
 1240 0271 02       		.byte	0x2
 1241 0272 23       		.byte	0x23
 1242 0273 00       		.uleb128 0
 1243 0274 07       		.uleb128 0x7
 1244 0275 5F726177 		.ascii "_rawBytes\0"
 1244      42797465 
 1244      7300
 1245 027f 06       		.byte	0x6
 1246 0280 09       		.byte	0x9
 1247 0281 0C       		.byte	0xc
 1248 0282 3A030000 		.long	0x33a
 1249 0286 02       		.byte	0x2
 1250 0287 23       		.byte	0x23
 1251 0288 04       		.uleb128 0x4
 1252 0289 07       		.uleb128 0x7
 1253 028a 5F6E756D 		.ascii "_numBits\0"
 1253      42697473 
 1253      00
 1254 0293 06       		.byte	0x6
 1255 0294 0A       		.byte	0xa
 1256 0295 06       		.byte	0x6
 1257 0296 39010000 		.long	0x139
 1258 029a 02       		.byte	0x2
 1259 029b 23       		.byte	0x23
 1260 029c 08       		.uleb128 0x8
 1261 029d 07       		.uleb128 0x7
 1262 029e 5F746578 		.ascii "_text\0"
GAS LISTING C:\Users\jisu8\AppData\Local\Temp\ccKup3Lg.s 			page 42


 1262      7400
 1263 02a4 06       		.byte	0x6
 1264 02a5 0B       		.byte	0xb
 1265 02a6 12       		.byte	0x12
 1266 02a7 40030000 		.long	0x340
 1267 02ab 02       		.byte	0x2
 1268 02ac 23       		.byte	0x23
 1269 02ad 0C       		.uleb128 0xc
 1270 02ae 07       		.uleb128 0x7
 1271 02af 5F65634C 		.ascii "_ecLevel\0"
 1271      6576656C 
 1271      00
 1272 02b8 06       		.byte	0x6
 1273 02b9 0C       		.byte	0xc
 1274 02ba 12       		.byte	0x12
 1275 02bb 40030000 		.long	0x340
 1276 02bf 02       		.byte	0x2
 1277 02c0 23       		.byte	0x23
 1278 02c1 10       		.uleb128 0x10
 1279 02c2 07       		.uleb128 0x7
 1280 02c3 5F657272 		.ascii "_errorsCorrected\0"
 1280      6F727343 
 1280      6F727265 
 1280      63746564 
 1280      00
 1281 02d4 06       		.byte	0x6
 1282 02d5 0D       		.byte	0xd
 1283 02d6 06       		.byte	0x6
 1284 02d7 39010000 		.long	0x139
 1285 02db 02       		.byte	0x2
 1286 02dc 23       		.byte	0x23
 1287 02dd 14       		.uleb128 0x14
 1288 02de 07       		.uleb128 0x7
 1289 02df 5F657261 		.ascii "_erasures\0"
 1289      73757265 
 1289      7300
 1290 02e9 06       		.byte	0x6
 1291 02ea 0E       		.byte	0xe
 1292 02eb 06       		.byte	0x6
 1293 02ec 39010000 		.long	0x139
 1294 02f0 02       		.byte	0x2
 1295 02f1 23       		.byte	0x23
 1296 02f2 18       		.uleb128 0x18
 1297 02f3 07       		.uleb128 0x7
 1298 02f4 5F737472 		.ascii "_structuredAppend\0"
 1298      75637475 
 1298      72656441 
 1298      7070656E 
 1298      6400
 1299 0306 06       		.byte	0x6
 1300 0307 0F       		.byte	0xf
 1301 0308 19       		.byte	0x19
 1302 0309 58010000 		.long	0x158
 1303 030d 02       		.byte	0x2
 1304 030e 23       		.byte	0x23
 1305 030f 1C       		.uleb128 0x1c
 1306 0310 07       		.uleb128 0x7
GAS LISTING C:\Users\jisu8\AppData\Local\Temp\ccKup3Lg.s 			page 43


 1307 0311 5F726561 		.ascii "_readerInit\0"
 1307      64657249 
 1307      6E697400 
 1308 031d 06       		.byte	0x6
 1309 031e 10       		.byte	0x10
 1310 031f 0A       		.byte	0xa
 1311 0320 22020000 		.long	0x222
 1312 0324 02       		.byte	0x2
 1313 0325 23       		.byte	0x23
 1314 0326 28       		.uleb128 0x28
 1315 0327 07       		.uleb128 0x7
 1316 0328 5F657874 		.ascii "_extra\0"
 1316      726100
 1317 032f 06       		.byte	0x6
 1318 0330 11       		.byte	0x11
 1319 0331 0C       		.byte	0xc
 1320 0332 3A030000 		.long	0x33a
 1321 0336 02       		.byte	0x2
 1322 0337 23       		.byte	0x23
 1323 0338 2C       		.uleb128 0x2c
 1324 0339 00       		.byte	0
 1325 033a 09       		.uleb128 0x9
 1326 033b 04       		.byte	0x4
 1327 033c 22020000 		.long	0x222
 1328 0340 09       		.uleb128 0x9
 1329 0341 04       		.byte	0x4
 1330 0342 E1010000 		.long	0x1e1
 1331 0346 05       		.uleb128 0x5
 1332 0347 4465636F 		.ascii "DecoderResult_t\0"
 1332      64657252 
 1332      6573756C 
 1332      745F7400 
 1333 0357 06       		.byte	0x6
 1334 0358 12       		.byte	0x12
 1335 0359 02       		.byte	0x2
 1336 035a 59020000 		.long	0x259
 1337 035e 06       		.uleb128 0x6
 1338 035f 10       		.byte	0x10
 1339 0360 07       		.byte	0x7
 1340 0361 06       		.byte	0x6
 1341 0362 09       		.byte	0x9
 1342 0363 B1030000 		.long	0x3b1
 1343 0367 07       		.uleb128 0x7
 1344 0368 5F776964 		.ascii "_width\0"
 1344      746800
 1345 036f 07       		.byte	0x7
 1346 0370 08       		.byte	0x8
 1347 0371 06       		.byte	0x6
 1348 0372 39010000 		.long	0x139
 1349 0376 02       		.byte	0x2
 1350 0377 23       		.byte	0x23
 1351 0378 00       		.uleb128 0
 1352 0379 07       		.uleb128 0x7
 1353 037a 5F686569 		.ascii "_height\0"
 1353      67687400 
 1354 0382 07       		.byte	0x7
 1355 0383 09       		.byte	0x9
GAS LISTING C:\Users\jisu8\AppData\Local\Temp\ccKup3Lg.s 			page 44


 1356 0384 06       		.byte	0x6
 1357 0385 39010000 		.long	0x139
 1358 0389 02       		.byte	0x2
 1359 038a 23       		.byte	0x23
 1360 038b 04       		.uleb128 0x4
 1361 038c 07       		.uleb128 0x7
 1362 038d 5F726F77 		.ascii "_rowSize\0"
 1362      53697A65 
 1362      00
 1363 0396 07       		.byte	0x7
 1364 0397 0A       		.byte	0xa
 1365 0398 06       		.byte	0x6
 1366 0399 39010000 		.long	0x139
 1367 039d 02       		.byte	0x2
 1368 039e 23       		.byte	0x23
 1369 039f 08       		.uleb128 0x8
 1370 03a0 07       		.uleb128 0x7
 1371 03a1 62697473 		.ascii "bits\0"
 1371      00
 1372 03a6 07       		.byte	0x7
 1373 03a7 0B       		.byte	0xb
 1374 03a8 0C       		.byte	0xc
 1375 03a9 3A030000 		.long	0x33a
 1376 03ad 02       		.byte	0x2
 1377 03ae 23       		.byte	0x23
 1378 03af 0C       		.uleb128 0xc
 1379 03b0 00       		.byte	0
 1380 03b1 05       		.uleb128 0x5
 1381 03b2 4269744D 		.ascii "BitMatrix_t\0"
 1381      61747269 
 1381      785F7400 
 1382 03be 07       		.byte	0x7
 1383 03bf 0E       		.byte	0xe
 1384 03c0 02       		.byte	0x2
 1385 03c1 5E030000 		.long	0x35e
 1386 03c5 08       		.uleb128 0x8
 1387 03c6 B1030000 		.long	0x3b1
 1388 03ca 06       		.uleb128 0x6
 1389 03cb 08       		.byte	0x8
 1390 03cc 08       		.byte	0x8
 1391 03cd 14       		.byte	0x14
 1392 03ce 09       		.byte	0x9
 1393 03cf EE030000 		.long	0x3ee
 1394 03d3 07       		.uleb128 0x7
 1395 03d4 7800     		.ascii "x\0"
 1396 03d6 08       		.byte	0x8
 1397 03d7 16       		.byte	0x16
 1398 03d8 08       		.byte	0x8
 1399 03d9 EE030000 		.long	0x3ee
 1400 03dd 02       		.byte	0x2
 1401 03de 23       		.byte	0x23
 1402 03df 00       		.uleb128 0
 1403 03e0 07       		.uleb128 0x7
 1404 03e1 7900     		.ascii "y\0"
 1405 03e3 08       		.byte	0x8
 1406 03e4 17       		.byte	0x17
 1407 03e5 08       		.byte	0x8
GAS LISTING C:\Users\jisu8\AppData\Local\Temp\ccKup3Lg.s 			page 45


 1408 03e6 EE030000 		.long	0x3ee
 1409 03ea 02       		.byte	0x2
 1410 03eb 23       		.byte	0x23
 1411 03ec 04       		.uleb128 0x4
 1412 03ed 00       		.byte	0
 1413 03ee 04       		.uleb128 0x4
 1414 03ef 04       		.byte	0x4
 1415 03f0 04       		.byte	0x4
 1416 03f1 666C6F61 		.ascii "float\0"
 1416      7400
 1417 03f7 05       		.uleb128 0x5
 1418 03f8 506F696E 		.ascii "PointT_t\0"
 1418      74545F74 
 1418      00
 1419 0401 08       		.byte	0x8
 1420 0402 18       		.byte	0x18
 1421 0403 02       		.byte	0x2
 1422 0404 CA030000 		.long	0x3ca
 1423 0408 06       		.uleb128 0x6
 1424 0409 0C       		.byte	0xc
 1425 040a 08       		.byte	0x8
 1426 040b 1A       		.byte	0x1a
 1427 040c 09       		.byte	0x9
 1428 040d 3B040000 		.long	0x43b
 1429 0411 07       		.uleb128 0x7
 1430 0412 6D5F6861 		.ascii "m_hasValue\0"
 1430      7356616C 
 1430      756500
 1431 041d 08       		.byte	0x8
 1432 041e 1C       		.byte	0x1c
 1433 041f 0A       		.byte	0xa
 1434 0420 22020000 		.long	0x222
 1435 0424 02       		.byte	0x2
 1436 0425 23       		.byte	0x23
 1437 0426 00       		.uleb128 0
 1438 0427 07       		.uleb128 0x7
 1439 0428 6D5F7661 		.ascii "m_value\0"
 1439      6C756500 
 1440 0430 08       		.byte	0x8
 1441 0431 1D       		.byte	0x1d
 1442 0432 0B       		.byte	0xb
 1443 0433 F7030000 		.long	0x3f7
 1444 0437 02       		.byte	0x2
 1445 0438 23       		.byte	0x23
 1446 0439 04       		.uleb128 0x4
 1447 043a 00       		.byte	0
 1448 043b 05       		.uleb128 0x5
 1449 043c 52657375 		.ascii "ResultPoint_t\0"
 1449      6C74506F 
 1449      696E745F 
 1449      7400
 1450 044a 08       		.byte	0x8
 1451 044b 1E       		.byte	0x1e
 1452 044c 02       		.byte	0x2
 1453 044d 08040000 		.long	0x408
 1454 0451 08       		.uleb128 0x8
 1455 0452 3B040000 		.long	0x43b
GAS LISTING C:\Users\jisu8\AppData\Local\Temp\ccKup3Lg.s 			page 46


 1456 0456 06       		.uleb128 0x6
 1457 0457 48       		.byte	0x48
 1458 0458 09       		.byte	0x9
 1459 0459 06       		.byte	0x6
 1460 045a 09       		.byte	0x9
 1461 045b 27050000 		.long	0x527
 1462 045f 07       		.uleb128 0x7
 1463 0460 5F696D67 		.ascii "_imgWidth\0"
 1463      57696474 
 1463      6800
 1464 046a 09       		.byte	0x9
 1465 046b 08       		.byte	0x8
 1466 046c 06       		.byte	0x6
 1467 046d 39010000 		.long	0x139
 1468 0471 02       		.byte	0x2
 1469 0472 23       		.byte	0x23
 1470 0473 00       		.uleb128 0
 1471 0474 07       		.uleb128 0x7
 1472 0475 5F696D67 		.ascii "_imgHeight\0"
 1472      48656967 
 1472      687400
 1473 0480 09       		.byte	0x9
 1474 0481 09       		.byte	0x9
 1475 0482 06       		.byte	0x6
 1476 0483 39010000 		.long	0x139
 1477 0487 02       		.byte	0x2
 1478 0488 23       		.byte	0x23
 1479 0489 04       		.uleb128 0x4
 1480 048a 07       		.uleb128 0x7
 1481 048b 5F746F70 		.ascii "_topLeft\0"
 1481      4C656674 
 1481      00
 1482 0494 09       		.byte	0x9
 1483 0495 0A       		.byte	0xa
 1484 0496 10       		.byte	0x10
 1485 0497 3B040000 		.long	0x43b
 1486 049b 02       		.byte	0x2
 1487 049c 23       		.byte	0x23
 1488 049d 08       		.uleb128 0x8
 1489 049e 07       		.uleb128 0x7
 1490 049f 5F626F74 		.ascii "_bottomLeft\0"
 1490      746F6D4C 
 1490      65667400 
 1491 04ab 09       		.byte	0x9
 1492 04ac 0B       		.byte	0xb
 1493 04ad 10       		.byte	0x10
 1494 04ae 3B040000 		.long	0x43b
 1495 04b2 02       		.byte	0x2
 1496 04b3 23       		.byte	0x23
 1497 04b4 14       		.uleb128 0x14
 1498 04b5 07       		.uleb128 0x7
 1499 04b6 5F746F70 		.ascii "_topRight\0"
 1499      52696768 
 1499      7400
 1500 04c0 09       		.byte	0x9
 1501 04c1 0C       		.byte	0xc
 1502 04c2 10       		.byte	0x10
GAS LISTING C:\Users\jisu8\AppData\Local\Temp\ccKup3Lg.s 			page 47


 1503 04c3 3B040000 		.long	0x43b
 1504 04c7 02       		.byte	0x2
 1505 04c8 23       		.byte	0x23
 1506 04c9 20       		.uleb128 0x20
 1507 04ca 07       		.uleb128 0x7
 1508 04cb 5F626F74 		.ascii "_bottomRight\0"
 1508      746F6D52 
 1508      69676874 
 1508      00
 1509 04d8 09       		.byte	0x9
 1510 04d9 0D       		.byte	0xd
 1511 04da 10       		.byte	0x10
 1512 04db 3B040000 		.long	0x43b
 1513 04df 02       		.byte	0x2
 1514 04e0 23       		.byte	0x23
 1515 04e1 2C       		.uleb128 0x2c
 1516 04e2 07       		.uleb128 0x7
 1517 04e3 5F6D696E 		.ascii "_minX\0"
 1517      5800
 1518 04e9 09       		.byte	0x9
 1519 04ea 0E       		.byte	0xe
 1520 04eb 06       		.byte	0x6
 1521 04ec 39010000 		.long	0x139
 1522 04f0 02       		.byte	0x2
 1523 04f1 23       		.byte	0x23
 1524 04f2 38       		.uleb128 0x38
 1525 04f3 07       		.uleb128 0x7
 1526 04f4 5F6D6178 		.ascii "_maxX\0"
 1526      5800
 1527 04fa 09       		.byte	0x9
 1528 04fb 0F       		.byte	0xf
 1529 04fc 06       		.byte	0x6
 1530 04fd 39010000 		.long	0x139
 1531 0501 02       		.byte	0x2
 1532 0502 23       		.byte	0x23
 1533 0503 3C       		.uleb128 0x3c
 1534 0504 07       		.uleb128 0x7
 1535 0505 5F6D696E 		.ascii "_minY\0"
 1535      5900
 1536 050b 09       		.byte	0x9
 1537 050c 10       		.byte	0x10
 1538 050d 06       		.byte	0x6
 1539 050e 39010000 		.long	0x139
 1540 0512 02       		.byte	0x2
 1541 0513 23       		.byte	0x23
 1542 0514 40       		.uleb128 0x40
 1543 0515 07       		.uleb128 0x7
 1544 0516 5F6D6178 		.ascii "_maxY\0"
 1544      5900
 1545 051c 09       		.byte	0x9
 1546 051d 11       		.byte	0x11
 1547 051e 06       		.byte	0x6
 1548 051f 39010000 		.long	0x139
 1549 0523 02       		.byte	0x2
 1550 0524 23       		.byte	0x23
 1551 0525 44       		.uleb128 0x44
 1552 0526 00       		.byte	0
GAS LISTING C:\Users\jisu8\AppData\Local\Temp\ccKup3Lg.s 			page 48


 1553 0527 05       		.uleb128 0x5
 1554 0528 426F756E 		.ascii "BoundingBox_t\0"
 1554      64696E67 
 1554      426F785F 
 1554      7400
 1555 0536 09       		.byte	0x9
 1556 0537 12       		.byte	0x12
 1557 0538 02       		.byte	0x2
 1558 0539 56040000 		.long	0x456
 1559 053d 08       		.uleb128 0x8
 1560 053e 27050000 		.long	0x527
 1561 0542 06       		.uleb128 0x6
 1562 0543 14       		.byte	0x14
 1563 0544 0A       		.byte	0xa
 1564 0545 04       		.byte	0x4
 1565 0546 09       		.byte	0x9
 1566 0547 AB050000 		.long	0x5ab
 1567 054b 07       		.uleb128 0x7
 1568 054c 5F737461 		.ascii "_startX\0"
 1568      72745800 
 1569 0554 0A       		.byte	0xa
 1570 0555 06       		.byte	0x6
 1571 0556 06       		.byte	0x6
 1572 0557 39010000 		.long	0x139
 1573 055b 02       		.byte	0x2
 1574 055c 23       		.byte	0x23
 1575 055d 00       		.uleb128 0
 1576 055e 07       		.uleb128 0x7
 1577 055f 5F656E64 		.ascii "_endX\0"
 1577      5800
 1578 0565 0A       		.byte	0xa
 1579 0566 07       		.byte	0x7
 1580 0567 06       		.byte	0x6
 1581 0568 39010000 		.long	0x139
 1582 056c 02       		.byte	0x2
 1583 056d 23       		.byte	0x23
 1584 056e 04       		.uleb128 0x4
 1585 056f 07       		.uleb128 0x7
 1586 0570 5F627563 		.ascii "_bucket\0"
 1586      6B657400 
 1587 0578 0A       		.byte	0xa
 1588 0579 08       		.byte	0x8
 1589 057a 06       		.byte	0x6
 1590 057b 39010000 		.long	0x139
 1591 057f 02       		.byte	0x2
 1592 0580 23       		.byte	0x23
 1593 0581 08       		.uleb128 0x8
 1594 0582 07       		.uleb128 0x7
 1595 0583 5F76616C 		.ascii "_value\0"
 1595      756500
 1596 058a 0A       		.byte	0xa
 1597 058b 09       		.byte	0x9
 1598 058c 06       		.byte	0x6
 1599 058d 39010000 		.long	0x139
 1600 0591 02       		.byte	0x2
 1601 0592 23       		.byte	0x23
 1602 0593 0C       		.uleb128 0xc
GAS LISTING C:\Users\jisu8\AppData\Local\Temp\ccKup3Lg.s 			page 49


 1603 0594 07       		.uleb128 0x7
 1604 0595 5F726F77 		.ascii "_rowNumber\0"
 1604      4E756D62 
 1604      657200
 1605 05a0 0A       		.byte	0xa
 1606 05a1 0A       		.byte	0xa
 1607 05a2 06       		.byte	0x6
 1608 05a3 39010000 		.long	0x139
 1609 05a7 02       		.byte	0x2
 1610 05a8 23       		.byte	0x23
 1611 05a9 10       		.uleb128 0x10
 1612 05aa 00       		.byte	0
 1613 05ab 05       		.uleb128 0x5
 1614 05ac 436F6465 		.ascii "Codeword_t\0"
 1614      776F7264 
 1614      5F7400
 1615 05b7 0A       		.byte	0xa
 1616 05b8 0B       		.byte	0xb
 1617 05b9 02       		.byte	0x2
 1618 05ba 42050000 		.long	0x542
 1619 05be 02       		.uleb128 0x2
 1620 05bf 07       		.byte	0x7
 1621 05c0 04       		.byte	0x4
 1622 05c1 D8000000 		.long	0xd8
 1623 05c5 0B       		.byte	0xb
 1624 05c6 08       		.byte	0x8
 1625 05c7 01       		.byte	0x1
 1626 05c8 E3050000 		.long	0x5e3
 1627 05cc 03       		.uleb128 0x3
 1628 05cd 4E6F6E65 		.ascii "None\0"
 1628      00
 1629 05d2 00       		.byte	0
 1630 05d3 03       		.uleb128 0x3
 1631 05d4 4C656674 		.ascii "Left\0"
 1631      00
 1632 05d9 01       		.byte	0x1
 1633 05da 03       		.uleb128 0x3
 1634 05db 52696768 		.ascii "Right\0"
 1634      7400
 1635 05e1 02       		.byte	0x2
 1636 05e2 00       		.byte	0
 1637 05e3 05       		.uleb128 0x5
 1638 05e4 526F7749 		.ascii "RowIndicator_t\0"
 1638      6E646963 
 1638      61746F72 
 1638      5F7400
 1639 05f3 0B       		.byte	0xb
 1640 05f4 0C       		.byte	0xc
 1641 05f5 02       		.byte	0x2
 1642 05f6 BE050000 		.long	0x5be
 1643 05fa 06       		.uleb128 0x6
 1644 05fb 50       		.byte	0x50
 1645 05fc 0B       		.byte	0xb
 1646 05fd 0E       		.byte	0xe
 1647 05fe 09       		.byte	0x9
 1648 05ff 42060000 		.long	0x642
 1649 0603 0A       		.uleb128 0xa
GAS LISTING C:\Users\jisu8\AppData\Local\Temp\ccKup3Lg.s 			page 50


 1650 0604 3D000000 		.secrel32	LASF0
 1651 0608 0B       		.byte	0xb
 1652 0609 10       		.byte	0x10
 1653 060a 10       		.byte	0x10
 1654 060b 27050000 		.long	0x527
 1655 060f 02       		.byte	0x2
 1656 0610 23       		.byte	0x23
 1657 0611 00       		.uleb128 0
 1658 0612 07       		.uleb128 0x7
 1659 0613 5F636F64 		.ascii "_codewords\0"
 1659      65776F72 
 1659      647300
 1660 061e 0B       		.byte	0xb
 1661 061f 11       		.byte	0x11
 1662 0620 0F       		.byte	0xf
 1663 0621 42060000 		.long	0x642
 1664 0625 02       		.byte	0x2
 1665 0626 23       		.byte	0x23
 1666 0627 48       		.uleb128 0x48
 1667 0628 07       		.uleb128 0x7
 1668 0629 5F726F77 		.ascii "_rowIndicator\0"
 1668      496E6469 
 1668      6361746F 
 1668      7200
 1669 0637 0B       		.byte	0xb
 1670 0638 12       		.byte	0x12
 1671 0639 11       		.byte	0x11
 1672 063a E3050000 		.long	0x5e3
 1673 063e 02       		.byte	0x2
 1674 063f 23       		.byte	0x23
 1675 0640 4C       		.uleb128 0x4c
 1676 0641 00       		.byte	0
 1677 0642 09       		.uleb128 0x9
 1678 0643 04       		.byte	0x4
 1679 0644 AB050000 		.long	0x5ab
 1680 0648 05       		.uleb128 0x5
 1681 0649 44657465 		.ascii "DetectionResultColumn_t\0"
 1681      6374696F 
 1681      6E526573 
 1681      756C7443 
 1681      6F6C756D 
 1682 0661 0B       		.byte	0xb
 1683 0662 13       		.byte	0x13
 1684 0663 02       		.byte	0x2
 1685 0664 FA050000 		.long	0x5fa
 1686 0668 06       		.uleb128 0x6
 1687 0669 10       		.byte	0x10
 1688 066a 0C       		.byte	0xc
 1689 066b 07       		.byte	0x7
 1690 066c 09       		.byte	0x9
 1691 066d E7060000 		.long	0x6e7
 1692 0671 07       		.uleb128 0x7
 1693 0672 5F636F6C 		.ascii "_columnCount\0"
 1693      756D6E43 
 1693      6F756E74 
 1693      00
 1694 067f 0C       		.byte	0xc
GAS LISTING C:\Users\jisu8\AppData\Local\Temp\ccKup3Lg.s 			page 51


 1695 0680 09       		.byte	0x9
 1696 0681 06       		.byte	0x6
 1697 0682 39010000 		.long	0x139
 1698 0686 02       		.byte	0x2
 1699 0687 23       		.byte	0x23
 1700 0688 00       		.uleb128 0
 1701 0689 07       		.uleb128 0x7
 1702 068a 5F657272 		.ascii "_errorCorrectionLevel\0"
 1702      6F72436F 
 1702      72726563 
 1702      74696F6E 
 1702      4C657665 
 1703 06a0 0C       		.byte	0xc
 1704 06a1 0A       		.byte	0xa
 1705 06a2 06       		.byte	0x6
 1706 06a3 39010000 		.long	0x139
 1707 06a7 02       		.byte	0x2
 1708 06a8 23       		.byte	0x23
 1709 06a9 04       		.uleb128 0x4
 1710 06aa 07       		.uleb128 0x7
 1711 06ab 5F726F77 		.ascii "_rowCountUpperPart\0"
 1711      436F756E 
 1711      74557070 
 1711      65725061 
 1711      727400
 1712 06be 0C       		.byte	0xc
 1713 06bf 0B       		.byte	0xb
 1714 06c0 06       		.byte	0x6
 1715 06c1 39010000 		.long	0x139
 1716 06c5 02       		.byte	0x2
 1717 06c6 23       		.byte	0x23
 1718 06c7 08       		.uleb128 0x8
 1719 06c8 07       		.uleb128 0x7
 1720 06c9 5F726F77 		.ascii "_rowCountLowerPart\0"
 1720      436F756E 
 1720      744C6F77 
 1720      65725061 
 1720      727400
 1721 06dc 0C       		.byte	0xc
 1722 06dd 0C       		.byte	0xc
 1723 06de 06       		.byte	0x6
 1724 06df 39010000 		.long	0x139
 1725 06e3 02       		.byte	0x2
 1726 06e4 23       		.byte	0x23
 1727 06e5 0C       		.uleb128 0xc
 1728 06e6 00       		.byte	0
 1729 06e7 05       		.uleb128 0x5
 1730 06e8 42617263 		.ascii "BarcodeMetadata_t\0"
 1730      6F64654D 
 1730      65746164 
 1730      6174615F 
 1730      7400
 1731 06fa 0C       		.byte	0xc
 1732 06fb 0D       		.byte	0xd
 1733 06fc 02       		.byte	0x2
 1734 06fd 68060000 		.long	0x668
 1735 0701 06       		.uleb128 0x6
GAS LISTING C:\Users\jisu8\AppData\Local\Temp\ccKup3Lg.s 			page 52


 1736 0702 18       		.byte	0x18
 1737 0703 0D       		.byte	0xd
 1738 0704 08       		.byte	0x8
 1739 0705 09       		.byte	0x9
 1740 0706 59070000 		.long	0x759
 1741 070a 07       		.uleb128 0x7
 1742 070b 5F626172 		.ascii "_barcodeMetadata\0"
 1742      636F6465 
 1742      4D657461 
 1742      64617461 
 1742      00
 1743 071c 0D       		.byte	0xd
 1744 071d 0A       		.byte	0xa
 1745 071e 14       		.byte	0x14
 1746 071f E7060000 		.long	0x6e7
 1747 0723 02       		.byte	0x2
 1748 0724 23       		.byte	0x23
 1749 0725 00       		.uleb128 0
 1750 0726 07       		.uleb128 0x7
 1751 0727 5F646574 		.ascii "_detectionResultColumns\0"
 1751      65637469 
 1751      6F6E5265 
 1751      73756C74 
 1751      436F6C75 
 1752 073f 0D       		.byte	0xd
 1753 0740 0B       		.byte	0xb
 1754 0741 1C       		.byte	0x1c
 1755 0742 59070000 		.long	0x759
 1756 0746 02       		.byte	0x2
 1757 0747 23       		.byte	0x23
 1758 0748 10       		.uleb128 0x10
 1759 0749 0A       		.uleb128 0xa
 1760 074a 3D000000 		.secrel32	LASF0
 1761 074e 0D       		.byte	0xd
 1762 074f 0C       		.byte	0xc
 1763 0750 12       		.byte	0x12
 1764 0751 5F070000 		.long	0x75f
 1765 0755 02       		.byte	0x2
 1766 0756 23       		.byte	0x23
 1767 0757 14       		.uleb128 0x14
 1768 0758 00       		.byte	0
 1769 0759 09       		.uleb128 0x9
 1770 075a 04       		.byte	0x4
 1771 075b 48060000 		.long	0x648
 1772 075f 09       		.uleb128 0x9
 1773 0760 04       		.byte	0x4
 1774 0761 27050000 		.long	0x527
 1775 0765 05       		.uleb128 0x5
 1776 0766 44657465 		.ascii "DetectionResult_t\0"
 1776      6374696F 
 1776      6E526573 
 1776      756C745F 
 1776      7400
 1777 0778 0D       		.byte	0xd
 1778 0779 0D       		.byte	0xd
 1779 077a 02       		.byte	0x2
 1780 077b 01070000 		.long	0x701
GAS LISTING C:\Users\jisu8\AppData\Local\Temp\ccKup3Lg.s 			page 53


 1781 077f 0B       		.uleb128 0xb
 1782 0780 4D4F4455 		.ascii "MODULES_IN_CODEWORD\0"
 1782      4C45535F 
 1782      494E5F43 
 1782      4F444557 
 1782      4F524400 
 1783 0794 0E       		.byte	0xe
 1784 0795 1D       		.byte	0x1d
 1785 0796 12       		.byte	0x12
 1786 0797 40010000 		.long	0x140
 1787 079b 01       		.byte	0x1
 1788 079c 01       		.byte	0x1
 1789 079d 0B       		.uleb128 0xb
 1790 079e 42415253 		.ascii "BARS_IN_MODULE\0"
 1790      5F494E5F 
 1790      4D4F4455 
 1790      4C4500
 1791 07ad 0E       		.byte	0xe
 1792 07ae 1E       		.byte	0x1e
 1793 07af 12       		.byte	0x12
 1794 07b0 40010000 		.long	0x140
 1795 07b4 01       		.byte	0x1
 1796 07b5 01       		.byte	0x1
 1797 07b6 04       		.uleb128 0x4
 1798 07b7 08       		.byte	0x8
 1799 07b8 04       		.byte	0x4
 1800 07b9 646F7562 		.ascii "double\0"
 1800      6C6500
 1801 07c0 0B       		.uleb128 0xb
 1802 07c1 5F696D70 		.ascii "_imp____mb_cur_max\0"
 1802      5F5F5F5F 
 1802      6D625F63 
 1802      75725F6D 
 1802      617800
 1803 07d4 0F       		.byte	0xf
 1804 07d5 73       		.byte	0x73
 1805 07d6 10       		.byte	0x10
 1806 07d7 C0010000 		.long	0x1c0
 1807 07db 01       		.byte	0x1
 1808 07dc 01       		.byte	0x1
 1809 07dd 0C       		.uleb128 0xc
 1810 07de 45010000 		.long	0x145
 1811 07e2 ED070000 		.long	0x7ed
 1812 07e6 0D       		.uleb128 0xd
 1813 07e7 D8000000 		.long	0xd8
 1814 07eb 00       		.byte	0
 1815 07ec 00       		.byte	0
 1816 07ed 0B       		.uleb128 0xb
 1817 07ee 5F737973 		.ascii "_sys_errlist\0"
 1817      5F657272 
 1817      6C697374 
 1817      00
 1818 07fb 0F       		.byte	0xf
 1819 07fc AC       		.byte	0xac
 1820 07fd 26       		.byte	0x26
 1821 07fe DD070000 		.long	0x7dd
 1822 0802 01       		.byte	0x1
GAS LISTING C:\Users\jisu8\AppData\Local\Temp\ccKup3Lg.s 			page 54


 1823 0803 01       		.byte	0x1
 1824 0804 0B       		.uleb128 0xb
 1825 0805 5F737973 		.ascii "_sys_nerr\0"
 1825      5F6E6572 
 1825      7200
 1826 080f 0F       		.byte	0xf
 1827 0810 AD       		.byte	0xad
 1828 0811 24       		.byte	0x24
 1829 0812 39010000 		.long	0x139
 1830 0816 01       		.byte	0x1
 1831 0817 01       		.byte	0x1
 1832 0818 0E       		.uleb128 0xe
 1833 0819 5F696D70 		.ascii "_imp____argc\0"
 1833      5F5F5F5F 
 1833      61726763 
 1833      00
 1834 0826 0F       		.byte	0xf
 1835 0827 1901     		.word	0x119
 1836 0829 10       		.byte	0x10
 1837 082a C0010000 		.long	0x1c0
 1838 082e 01       		.byte	0x1
 1839 082f 01       		.byte	0x1
 1840 0830 0E       		.uleb128 0xe
 1841 0831 5F696D70 		.ascii "_imp____argv\0"
 1841      5F5F5F5F 
 1841      61726776 
 1841      00
 1842 083e 0F       		.byte	0xf
 1843 083f 1D01     		.word	0x11d
 1844 0841 13       		.byte	0x13
 1845 0842 48080000 		.long	0x848
 1846 0846 01       		.byte	0x1
 1847 0847 01       		.byte	0x1
 1848 0848 09       		.uleb128 0x9
 1849 0849 04       		.byte	0x4
 1850 084a 4E080000 		.long	0x84e
 1851 084e 09       		.uleb128 0x9
 1852 084f 04       		.byte	0x4
 1853 0850 45010000 		.long	0x145
 1854 0854 0E       		.uleb128 0xe
 1855 0855 5F696D70 		.ascii "_imp____wargv\0"
 1855      5F5F5F5F 
 1855      77617267 
 1855      7600
 1856 0863 0F       		.byte	0xf
 1857 0864 2101     		.word	0x121
 1858 0866 16       		.byte	0x16
 1859 0867 6D080000 		.long	0x86d
 1860 086b 01       		.byte	0x1
 1861 086c 01       		.byte	0x1
 1862 086d 09       		.uleb128 0x9
 1863 086e 04       		.byte	0x4
 1864 086f 73080000 		.long	0x873
 1865 0873 09       		.uleb128 0x9
 1866 0874 04       		.byte	0x4
 1867 0875 BA010000 		.long	0x1ba
 1868 0879 0E       		.uleb128 0xe
GAS LISTING C:\Users\jisu8\AppData\Local\Temp\ccKup3Lg.s 			page 55


 1869 087a 5F696D70 		.ascii "_imp___environ\0"
 1869      5F5F5F65 
 1869      6E766972 
 1869      6F6E00
 1870 0889 0F       		.byte	0xf
 1871 088a 2701     		.word	0x127
 1872 088c 13       		.byte	0x13
 1873 088d 48080000 		.long	0x848
 1874 0891 01       		.byte	0x1
 1875 0892 01       		.byte	0x1
 1876 0893 0E       		.uleb128 0xe
 1877 0894 5F696D70 		.ascii "_imp___wenviron\0"
 1877      5F5F5F77 
 1877      656E7669 
 1877      726F6E00 
 1878 08a4 0F       		.byte	0xf
 1879 08a5 2C01     		.word	0x12c
 1880 08a7 16       		.byte	0x16
 1881 08a8 6D080000 		.long	0x86d
 1882 08ac 01       		.byte	0x1
 1883 08ad 01       		.byte	0x1
 1884 08ae 0E       		.uleb128 0xe
 1885 08af 5F696D70 		.ascii "_imp___pgmptr\0"
 1885      5F5F5F70 
 1885      676D7074 
 1885      7200
 1886 08bd 0F       		.byte	0xf
 1887 08be 3201     		.word	0x132
 1888 08c0 12       		.byte	0x12
 1889 08c1 4E080000 		.long	0x84e
 1890 08c5 01       		.byte	0x1
 1891 08c6 01       		.byte	0x1
 1892 08c7 0E       		.uleb128 0xe
 1893 08c8 5F696D70 		.ascii "_imp___wpgmptr\0"
 1893      5F5F5F77 
 1893      70676D70 
 1893      747200
 1894 08d7 0F       		.byte	0xf
 1895 08d8 3701     		.word	0x137
 1896 08da 15       		.byte	0x15
 1897 08db 73080000 		.long	0x873
 1898 08df 01       		.byte	0x1
 1899 08e0 01       		.byte	0x1
 1900 08e1 0E       		.uleb128 0xe
 1901 08e2 5F696D70 		.ascii "_imp___osplatform\0"
 1901      5F5F5F6F 
 1901      73706C61 
 1901      74666F72 
 1901      6D00
 1902 08f4 0F       		.byte	0xf
 1903 08f5 3C01     		.word	0x13c
 1904 08f7 19       		.byte	0x19
 1905 08f8 FE080000 		.long	0x8fe
 1906 08fc 01       		.byte	0x1
 1907 08fd 01       		.byte	0x1
 1908 08fe 09       		.uleb128 0x9
 1909 08ff 04       		.byte	0x4
GAS LISTING C:\Users\jisu8\AppData\Local\Temp\ccKup3Lg.s 			page 56


 1910 0900 D8000000 		.long	0xd8
 1911 0904 0E       		.uleb128 0xe
 1912 0905 5F696D70 		.ascii "_imp___osver\0"
 1912      5F5F5F6F 
 1912      73766572 
 1912      00
 1913 0912 0F       		.byte	0xf
 1914 0913 4101     		.word	0x141
 1915 0915 19       		.byte	0x19
 1916 0916 FE080000 		.long	0x8fe
 1917 091a 01       		.byte	0x1
 1918 091b 01       		.byte	0x1
 1919 091c 0E       		.uleb128 0xe
 1920 091d 5F696D70 		.ascii "_imp___winver\0"
 1920      5F5F5F77 
 1920      696E7665 
 1920      7200
 1921 092b 0F       		.byte	0xf
 1922 092c 4601     		.word	0x146
 1923 092e 19       		.byte	0x19
 1924 092f FE080000 		.long	0x8fe
 1925 0933 01       		.byte	0x1
 1926 0934 01       		.byte	0x1
 1927 0935 0E       		.uleb128 0xe
 1928 0936 5F696D70 		.ascii "_imp___winmajor\0"
 1928      5F5F5F77 
 1928      696E6D61 
 1928      6A6F7200 
 1929 0946 0F       		.byte	0xf
 1930 0947 4B01     		.word	0x14b
 1931 0949 19       		.byte	0x19
 1932 094a FE080000 		.long	0x8fe
 1933 094e 01       		.byte	0x1
 1934 094f 01       		.byte	0x1
 1935 0950 0E       		.uleb128 0xe
 1936 0951 5F696D70 		.ascii "_imp___winminor\0"
 1936      5F5F5F77 
 1936      696E6D69 
 1936      6E6F7200 
 1937 0961 0F       		.byte	0xf
 1938 0962 5001     		.word	0x150
 1939 0964 19       		.byte	0x19
 1940 0965 FE080000 		.long	0x8fe
 1941 0969 01       		.byte	0x1
 1942 096a 01       		.byte	0x1
 1943 096b 0B       		.uleb128 0xb
 1944 096c 5F616D62 		.ascii "_amblksiz\0"
 1944      6C6B7369 
 1944      7A00
 1945 0976 10       		.byte	0x10
 1946 0977 35       		.byte	0x35
 1947 0978 17       		.byte	0x17
 1948 0979 D8000000 		.long	0xd8
 1949 097d 01       		.byte	0x1
 1950 097e 01       		.byte	0x1
 1951 097f 0F       		.uleb128 0xf
 1952 0980 434F4445 		.ascii "CODEWORD_SKEW_SIZE\0"
GAS LISTING C:\Users\jisu8\AppData\Local\Temp\ccKup3Lg.s 			page 57


 1952      574F5244 
 1952      5F534B45 
 1952      575F5349 
 1952      5A4500
 1953 0993 01       		.byte	0x1
 1954 0994 0B       		.byte	0xb
 1955 0995 12       		.byte	0x12
 1956 0996 40010000 		.long	0x140
 1957 099a 05       		.byte	0x5
 1958 099b 03       		.byte	0x3
 1959 099c 00000000 		.long	_CODEWORD_SKEW_SIZE
 1960 09a0 0F       		.uleb128 0xf
 1961 09a1 4D41585F 		.ascii "MAX_ERRORS\0"
 1961      4552524F 
 1961      525300
 1962 09ac 01       		.byte	0x1
 1963 09ad 0C       		.byte	0xc
 1964 09ae 12       		.byte	0x12
 1965 09af 40010000 		.long	0x140
 1966 09b3 05       		.byte	0x5
 1967 09b4 03       		.byte	0x3
 1968 09b5 04000000 		.long	_MAX_ERRORS
 1969 09b9 0F       		.uleb128 0xf
 1970 09ba 4D41585F 		.ascii "MAX_EC_CODEWORDS\0"
 1970      45435F43 
 1970      4F444557 
 1970      4F524453 
 1970      00
 1971 09cb 01       		.byte	0x1
 1972 09cc 0D       		.byte	0xd
 1973 09cd 12       		.byte	0x12
 1974 09ce 40010000 		.long	0x140
 1975 09d2 05       		.byte	0x5
 1976 09d3 03       		.byte	0x3
 1977 09d4 08000000 		.long	_MAX_EC_CODEWORDS
 1978 09d8 0C       		.uleb128 0xc
 1979 09d9 39010000 		.long	0x139
 1980 09dd E8090000 		.long	0x9e8
 1981 09e1 0D       		.uleb128 0xd
 1982 09e2 D8000000 		.long	0xd8
 1983 09e6 07       		.byte	0x7
 1984 09e7 00       		.byte	0
 1985 09e8 10       		.uleb128 0x10
 1986 09e9 72657375 		.ascii "result_bits\0"
 1986      6C745F62 
 1986      69747300 
 1987 09f5 01       		.byte	0x1
 1988 09f6 0F       		.byte	0xf
 1989 09f7 01       		.byte	0x1
 1990 09f8 D8090000 		.long	0x9d8
 1991 09fc 01       		.byte	0x1
 1992 09fd 05       		.byte	0x5
 1993 09fe 03       		.byte	0x3
 1994 09ff 00000000 		.long	_result_bits
 1995 0a03 10       		.uleb128 0x10
 1996 0a04 436F6465 		.ascii "CodeWord\0"
 1996      576F7264 
GAS LISTING C:\Users\jisu8\AppData\Local\Temp\ccKup3Lg.s 			page 58


 1996      00
 1997 0a0d 01       		.byte	0x1
 1998 0a0e 11       		.byte	0x11
 1999 0a0f 0C       		.byte	0xc
 2000 0a10 AB050000 		.long	0x5ab
 2001 0a14 01       		.byte	0x1
 2002 0a15 05       		.byte	0x5
 2003 0a16 03       		.byte	0x3
 2004 0a17 00000000 		.long	_CodeWord
 2005 0a1b 11       		.uleb128 0x11
 2006 0a1c 01       		.byte	0x1
 2007 0a1d 4465636F 		.ascii "Decode\0"
 2007      646500
 2008 0a24 01       		.byte	0x1
 2009 0a25 2D03     		.word	0x32d
 2010 0a27 13       		.byte	0x13
 2011 0a28 01       		.byte	0x1
 2012 0a29 810B0000 		.long	0xb81
 2013 0a2d 05060000 		.long	LFB13
 2014 0a31 70070000 		.long	LFE13
 2015 0a35 00000000 		.secrel32	LLST9
 2016 0a39 01       		.byte	0x1
 2017 0a3a 810B0000 		.long	0xb81
 2018 0a3e 12       		.uleb128 0x12
 2019 0a3f 2B000000 		.secrel32	LASF1
 2020 0a43 01       		.byte	0x1
 2021 0a44 2D03     		.word	0x32d
 2022 0a46 2E       		.byte	0x2e
 2023 0a47 870B0000 		.long	0xb87
 2024 0a4b 02       		.byte	0x2
 2025 0a4c 91       		.byte	0x91
 2026 0a4d 00       		.sleb128 0
 2027 0a4e 13       		.uleb128 0x13
 2028 0a4f 696D6167 		.ascii "imageTopLeft\0"
 2028      65546F70 
 2028      4C656674 
 2028      00
 2029 0a5c 01       		.byte	0x1
 2030 0a5d 2D03     		.word	0x32d
 2031 0a5f 43       		.byte	0x43
 2032 0a60 3B040000 		.long	0x43b
 2033 0a64 02       		.byte	0x2
 2034 0a65 91       		.byte	0x91
 2035 0a66 04       		.sleb128 4
 2036 0a67 13       		.uleb128 0x13
 2037 0a68 696D6167 		.ascii "imageBottomLeft\0"
 2037      65426F74 
 2037      746F6D4C 
 2037      65667400 
 2038 0a78 01       		.byte	0x1
 2039 0a79 2D03     		.word	0x32d
 2040 0a7b 5F       		.byte	0x5f
 2041 0a7c 3B040000 		.long	0x43b
 2042 0a80 02       		.byte	0x2
 2043 0a81 91       		.byte	0x91
 2044 0a82 10       		.sleb128 16
 2045 0a83 13       		.uleb128 0x13
GAS LISTING C:\Users\jisu8\AppData\Local\Temp\ccKup3Lg.s 			page 59


 2046 0a84 696D6167 		.ascii "imageTopRight\0"
 2046      65546F70 
 2046      52696768 
 2046      7400
 2047 0a92 01       		.byte	0x1
 2048 0a93 2E03     		.word	0x32e
 2049 0a95 10       		.byte	0x10
 2050 0a96 3B040000 		.long	0x43b
 2051 0a9a 02       		.byte	0x2
 2052 0a9b 91       		.byte	0x91
 2053 0a9c 1C       		.sleb128 28
 2054 0a9d 13       		.uleb128 0x13
 2055 0a9e 696D6167 		.ascii "imageBottomRight\0"
 2055      65426F74 
 2055      746F6D52 
 2055      69676874 
 2055      00
 2056 0aaf 01       		.byte	0x1
 2057 0ab0 2E03     		.word	0x32e
 2058 0ab2 2D       		.byte	0x2d
 2059 0ab3 3B040000 		.long	0x43b
 2060 0ab7 02       		.byte	0x2
 2061 0ab8 91       		.byte	0x91
 2062 0ab9 28       		.sleb128 40
 2063 0aba 12       		.uleb128 0x12
 2064 0abb 1A000000 		.secrel32	LASF2
 2065 0abf 01       		.byte	0x1
 2066 0ac0 2F03     		.word	0x32f
 2067 0ac2 06       		.byte	0x6
 2068 0ac3 39010000 		.long	0x139
 2069 0ac7 02       		.byte	0x2
 2070 0ac8 91       		.byte	0x91
 2071 0ac9 34       		.sleb128 52
 2072 0aca 12       		.uleb128 0x12
 2073 0acb 00000000 		.secrel32	LASF3
 2074 0acf 01       		.byte	0x1
 2075 0ad0 2F03     		.word	0x32f
 2076 0ad2 1C       		.byte	0x1c
 2077 0ad3 39010000 		.long	0x139
 2078 0ad7 02       		.byte	0x2
 2079 0ad8 91       		.byte	0x91
 2080 0ad9 38       		.sleb128 56
 2081 0ada 13       		.uleb128 0x13
 2082 0adb 63686172 		.ascii "characterSet\0"
 2082      61637465 
 2082      72536574 
 2082      00
 2083 0ae8 01       		.byte	0x1
 2084 0ae9 2F03     		.word	0x32f
 2085 0aeb 44       		.byte	0x44
 2086 0aec DB010000 		.long	0x1db
 2087 0af0 02       		.byte	0x2
 2088 0af1 91       		.byte	0x91
 2089 0af2 3C       		.sleb128 60
 2090 0af3 14       		.uleb128 0x14
 2091 0af4 31000000 		.secrel32	LASF4
 2092 0af8 01       		.byte	0x1
GAS LISTING C:\Users\jisu8\AppData\Local\Temp\ccKup3Lg.s 			page 60


 2093 0af9 3103     		.word	0x331
 2094 0afb 10       		.byte	0x10
 2095 0afc 27050000 		.long	0x527
 2096 0b00 03       		.byte	0x3
 2097 0b01 91       		.byte	0x91
 2098 0b02 8C7F     		.sleb128 -116
 2099 0b04 15       		.uleb128 0x15
 2100 0b05 6C656674 		.ascii "leftRowIndicatorColumn\0"
 2100      526F7749 
 2100      6E646963 
 2100      61746F72 
 2100      436F6C75 
 2101 0b1c 01       		.byte	0x1
 2102 0b1d 3703     		.word	0x337
 2103 0b1f 1C       		.byte	0x1c
 2104 0b20 59070000 		.long	0x759
 2105 0b24 02       		.byte	0x2
 2106 0b25 91       		.byte	0x91
 2107 0b26 58       		.sleb128 -40
 2108 0b27 15       		.uleb128 0x15
 2109 0b28 72696768 		.ascii "rightRowIndicatorColumn\0"
 2109      74526F77 
 2109      496E6469 
 2109      6361746F 
 2109      72436F6C 
 2110 0b40 01       		.byte	0x1
 2111 0b41 3803     		.word	0x338
 2112 0b43 1C       		.byte	0x1c
 2113 0b44 59070000 		.long	0x759
 2114 0b48 02       		.byte	0x2
 2115 0b49 91       		.byte	0x91
 2116 0b4a 54       		.sleb128 -44
 2117 0b4b 15       		.uleb128 0x15
 2118 0b4c 64657465 		.ascii "detectionResult\0"
 2118      6374696F 
 2118      6E526573 
 2118      756C7400 
 2119 0b5c 01       		.byte	0x1
 2120 0b5d 3903     		.word	0x339
 2121 0b5f 14       		.byte	0x14
 2122 0b60 65070000 		.long	0x765
 2123 0b64 03       		.byte	0x3
 2124 0b65 91       		.byte	0x91
 2125 0b66 F47E     		.sleb128 -140
 2126 0b68 16       		.uleb128 0x16
 2127 0b69 91060000 		.long	LBB8
 2128 0b6d 65070000 		.long	LBE8
 2129 0b71 15       		.uleb128 0x15
 2130 0b72 6900     		.ascii "i\0"
 2131 0b74 01       		.byte	0x1
 2132 0b75 3A03     		.word	0x33a
 2133 0b77 0B       		.byte	0xb
 2134 0b78 39010000 		.long	0x139
 2135 0b7c 02       		.byte	0x2
 2136 0b7d 91       		.byte	0x91
 2137 0b7e 5C       		.sleb128 -36
 2138 0b7f 00       		.byte	0
GAS LISTING C:\Users\jisu8\AppData\Local\Temp\ccKup3Lg.s 			page 61


 2139 0b80 00       		.byte	0
 2140 0b81 09       		.uleb128 0x9
 2141 0b82 04       		.byte	0x4
 2142 0b83 46030000 		.long	0x346
 2143 0b87 09       		.uleb128 0x9
 2144 0b88 04       		.byte	0x4
 2145 0b89 C5030000 		.long	0x3c5
 2146 0b8d 17       		.uleb128 0x17
 2147 0b8e 47657452 		.ascii "GetRowIndicatorColumn\0"
 2147      6F77496E 
 2147      64696361 
 2147      746F7243 
 2147      6F6C756D 
 2148 0ba4 01       		.byte	0x1
 2149 0ba5 AE       		.byte	0xae
 2150 0ba6 22       		.byte	0x22
 2151 0ba7 01       		.byte	0x1
 2152 0ba8 59070000 		.long	0x759
 2153 0bac EC040000 		.long	LFB12
 2154 0bb0 05060000 		.long	LFE12
 2155 0bb4 38000000 		.secrel32	LLST8
 2156 0bb8 01       		.byte	0x1
 2157 0bb9 C70C0000 		.long	0xcc7
 2158 0bbd 18       		.uleb128 0x18
 2159 0bbe 2B000000 		.secrel32	LASF1
 2160 0bc2 01       		.byte	0x1
 2161 0bc3 AE       		.byte	0xae
 2162 0bc4 4C       		.byte	0x4c
 2163 0bc5 870B0000 		.long	0xb87
 2164 0bc9 02       		.byte	0x2
 2165 0bca 91       		.byte	0x91
 2166 0bcb 00       		.sleb128 0
 2167 0bcc 18       		.uleb128 0x18
 2168 0bcd 31000000 		.secrel32	LASF4
 2169 0bd1 01       		.byte	0x1
 2170 0bd2 AE       		.byte	0xae
 2171 0bd3 69       		.byte	0x69
 2172 0bd4 C70C0000 		.long	0xcc7
 2173 0bd8 02       		.byte	0x2
 2174 0bd9 91       		.byte	0x91
 2175 0bda 04       		.sleb128 4
 2176 0bdb 19       		.uleb128 0x19
 2177 0bdc 73746172 		.ascii "startPoint\0"
 2177      74506F69 
 2177      6E7400
 2178 0be7 01       		.byte	0x1
 2179 0be8 AE       		.byte	0xae
 2180 0be9 8C       		.byte	0x8c
 2181 0bea CD0C0000 		.long	0xccd
 2182 0bee 02       		.byte	0x2
 2183 0bef 91       		.byte	0x91
 2184 0bf0 08       		.sleb128 8
 2185 0bf1 18       		.uleb128 0x18
 2186 0bf2 56000000 		.secrel32	LASF5
 2187 0bf6 01       		.byte	0x1
 2188 0bf7 AE       		.byte	0xae
 2189 0bf8 A0       		.byte	0xa0
GAS LISTING C:\Users\jisu8\AppData\Local\Temp\ccKup3Lg.s 			page 62


 2190 0bf9 22020000 		.long	0x222
 2191 0bfd 02       		.byte	0x2
 2192 0bfe 91       		.byte	0x91
 2193 0bff 4C       		.sleb128 -52
 2194 0c00 18       		.uleb128 0x18
 2195 0c01 1A000000 		.secrel32	LASF2
 2196 0c05 01       		.byte	0x1
 2197 0c06 AE       		.byte	0xae
 2198 0c07 B1       		.byte	0xb1
 2199 0c08 39010000 		.long	0x139
 2200 0c0c 02       		.byte	0x2
 2201 0c0d 91       		.byte	0x91
 2202 0c0e 10       		.sleb128 16
 2203 0c0f 18       		.uleb128 0x18
 2204 0c10 00000000 		.secrel32	LASF3
 2205 0c14 01       		.byte	0x1
 2206 0c15 AE       		.byte	0xae
 2207 0c16 C7       		.byte	0xc7
 2208 0c17 39010000 		.long	0x139
 2209 0c1b 02       		.byte	0x2
 2210 0c1c 91       		.byte	0x91
 2211 0c1d 14       		.sleb128 20
 2212 0c1e 1A       		.uleb128 0x1a
 2213 0c1f 01       		.byte	0x1
 2214 0c20 6B000000 		.secrel32	LASF12
 2215 0c24 11       		.byte	0x11
 2216 0c25 00       		.byte	0
 2217 0c26 01       		.byte	0x1
 2218 0c27 39010000 		.long	0x139
 2219 0c2b 01       		.byte	0x1
 2220 0c2c 370C0000 		.long	0xc37
 2221 0c30 1B       		.uleb128 0x1b
 2222 0c31 D30C0000 		.long	0xcd3
 2223 0c35 1C       		.uleb128 0x1c
 2224 0c36 00       		.byte	0
 2225 0c37 0F       		.uleb128 0xf
 2226 0c38 726F7749 		.ascii "rowIndicatorColumn\0"
 2226      6E646963 
 2226      61746F72 
 2226      436F6C75 
 2226      6D6E00
 2227 0c4b 01       		.byte	0x1
 2228 0c4c B2       		.byte	0xb2
 2229 0c4d 1C       		.byte	0x1c
 2230 0c4e 59070000 		.long	0x759
 2231 0c52 02       		.byte	0x2
 2232 0c53 91       		.byte	0x91
 2233 0c54 58       		.sleb128 -40
 2234 0c55 16       		.uleb128 0x16
 2235 0c56 25050000 		.long	LBB4
 2236 0c5a 00060000 		.long	LBE4
 2237 0c5e 0F       		.uleb128 0xf
 2238 0c5f 6900     		.ascii "i\0"
 2239 0c61 01       		.byte	0x1
 2240 0c62 B4       		.byte	0xb4
 2241 0c63 0B       		.byte	0xb
 2242 0c64 39010000 		.long	0x139
GAS LISTING C:\Users\jisu8\AppData\Local\Temp\ccKup3Lg.s 			page 63


 2243 0c68 02       		.byte	0x2
 2244 0c69 91       		.byte	0x91
 2245 0c6a 6C       		.sleb128 -20
 2246 0c6b 16       		.uleb128 0x16
 2247 0c6c 31050000 		.long	LBB5
 2248 0c70 F2050000 		.long	LBE5
 2249 0c74 1D       		.uleb128 0x1d
 2250 0c75 95000000 		.secrel32	LASF6
 2251 0c79 01       		.byte	0x1
 2252 0c7a B6       		.byte	0xb6
 2253 0c7b 07       		.byte	0x7
 2254 0c7c 39010000 		.long	0x139
 2255 0c80 02       		.byte	0x2
 2256 0c81 91       		.byte	0x91
 2257 0c82 60       		.sleb128 -32
 2258 0c83 1D       		.uleb128 0x1d
 2259 0c84 4A000000 		.secrel32	LASF7
 2260 0c88 01       		.byte	0x1
 2261 0c89 B7       		.byte	0xb7
 2262 0c8a 07       		.byte	0x7
 2263 0c8b 39010000 		.long	0x139
 2264 0c8f 02       		.byte	0x2
 2265 0c90 91       		.byte	0x91
 2266 0c91 68       		.sleb128 -24
 2267 0c92 16       		.uleb128 0x16
 2268 0c93 63050000 		.long	LBB6
 2269 0c97 F2050000 		.long	LBE6
 2270 0c9b 1D       		.uleb128 0x1d
 2271 0c9c 62000000 		.secrel32	LASF8
 2272 0ca0 01       		.byte	0x1
 2273 0ca1 B8       		.byte	0xb8
 2274 0ca2 0C       		.byte	0xc
 2275 0ca3 39010000 		.long	0x139
 2276 0ca7 02       		.byte	0x2
 2277 0ca8 91       		.byte	0x91
 2278 0ca9 64       		.sleb128 -28
 2279 0caa 16       		.uleb128 0x16
 2280 0cab 74050000 		.long	LBB7
 2281 0caf D6050000 		.long	LBE7
 2282 0cb3 1D       		.uleb128 0x1d
 2283 0cb4 11000000 		.secrel32	LASF9
 2284 0cb8 01       		.byte	0x1
 2285 0cb9 BA       		.byte	0xba
 2286 0cba 11       		.byte	0x11
 2287 0cbb 42060000 		.long	0x642
 2288 0cbf 02       		.byte	0x2
 2289 0cc0 91       		.byte	0x91
 2290 0cc1 5C       		.sleb128 -36
 2291 0cc2 00       		.byte	0
 2292 0cc3 00       		.byte	0
 2293 0cc4 00       		.byte	0
 2294 0cc5 00       		.byte	0
 2295 0cc6 00       		.byte	0
 2296 0cc7 09       		.uleb128 0x9
 2297 0cc8 04       		.byte	0x4
 2298 0cc9 3D050000 		.long	0x53d
 2299 0ccd 09       		.uleb128 0x9
GAS LISTING C:\Users\jisu8\AppData\Local\Temp\ccKup3Lg.s 			page 64


 2300 0cce 04       		.byte	0x4
 2301 0ccf 51040000 		.long	0x451
 2302 0cd3 09       		.uleb128 0x9
 2303 0cd4 04       		.byte	0x4
 2304 0cd5 53010000 		.long	0x153
 2305 0cd9 17       		.uleb128 0x17
 2306 0cda 44657465 		.ascii "DetectCodeword\0"
 2306      6374436F 
 2306      6465776F 
 2306      726400
 2307 0ce9 01       		.byte	0x1
 2308 0cea 7C       		.byte	0x7c
 2309 0ceb 15       		.byte	0x15
 2310 0cec 01       		.byte	0x1
 2311 0ced 42060000 		.long	0x642
 2312 0cf1 53030000 		.long	LFB11
 2313 0cf5 EC040000 		.long	LFE11
 2314 0cf9 70000000 		.secrel32	LLST7
 2315 0cfd 01       		.byte	0x1
 2316 0cfe 190E0000 		.long	0xe19
 2317 0d02 18       		.uleb128 0x18
 2318 0d03 2B000000 		.secrel32	LASF1
 2319 0d07 01       		.byte	0x1
 2320 0d08 7C       		.byte	0x7c
 2321 0d09 38       		.byte	0x38
 2322 0d0a 870B0000 		.long	0xb87
 2323 0d0e 02       		.byte	0x2
 2324 0d0f 91       		.byte	0x91
 2325 0d10 00       		.sleb128 0
 2326 0d11 18       		.uleb128 0x18
 2327 0d12 8B000000 		.secrel32	LASF10
 2328 0d16 01       		.byte	0x1
 2329 0d17 7C       		.byte	0x7c
 2330 0d18 43       		.byte	0x43
 2331 0d19 39010000 		.long	0x139
 2332 0d1d 02       		.byte	0x2
 2333 0d1e 91       		.byte	0x91
 2334 0d1f 04       		.sleb128 4
 2335 0d20 18       		.uleb128 0x18
 2336 0d21 72000000 		.secrel32	LASF11
 2337 0d25 01       		.byte	0x1
 2338 0d26 7C       		.byte	0x7c
 2339 0d27 52       		.byte	0x52
 2340 0d28 39010000 		.long	0x139
 2341 0d2c 02       		.byte	0x2
 2342 0d2d 91       		.byte	0x91
 2343 0d2e 08       		.sleb128 8
 2344 0d2f 18       		.uleb128 0x18
 2345 0d30 56000000 		.secrel32	LASF5
 2346 0d34 01       		.byte	0x1
 2347 0d35 7C       		.byte	0x7c
 2348 0d36 65       		.byte	0x65
 2349 0d37 22020000 		.long	0x222
 2350 0d3b 03       		.byte	0x3
 2351 0d3c 91       		.byte	0x91
 2352 0d3d AC7F     		.sleb128 -84
 2353 0d3f 18       		.uleb128 0x18
GAS LISTING C:\Users\jisu8\AppData\Local\Temp\ccKup3Lg.s 			page 65


 2354 0d40 4A000000 		.secrel32	LASF7
 2355 0d44 01       		.byte	0x1
 2356 0d45 7C       		.byte	0x7c
 2357 0d46 76       		.byte	0x76
 2358 0d47 39010000 		.long	0x139
 2359 0d4b 02       		.byte	0x2
 2360 0d4c 91       		.byte	0x91
 2361 0d4d 10       		.sleb128 16
 2362 0d4e 18       		.uleb128 0x18
 2363 0d4f 62000000 		.secrel32	LASF8
 2364 0d53 01       		.byte	0x1
 2365 0d54 7C       		.byte	0x7c
 2366 0d55 87       		.byte	0x87
 2367 0d56 39010000 		.long	0x139
 2368 0d5a 02       		.byte	0x2
 2369 0d5b 91       		.byte	0x91
 2370 0d5c 14       		.sleb128 20
 2371 0d5d 18       		.uleb128 0x18
 2372 0d5e 1A000000 		.secrel32	LASF2
 2373 0d62 01       		.byte	0x1
 2374 0d63 7C       		.byte	0x7c
 2375 0d64 95       		.byte	0x95
 2376 0d65 39010000 		.long	0x139
 2377 0d69 02       		.byte	0x2
 2378 0d6a 91       		.byte	0x91
 2379 0d6b 18       		.sleb128 24
 2380 0d6c 18       		.uleb128 0x18
 2381 0d6d 00000000 		.secrel32	LASF3
 2382 0d71 01       		.byte	0x1
 2383 0d72 7C       		.byte	0x7c
 2384 0d73 AB       		.byte	0xab
 2385 0d74 39010000 		.long	0x139
 2386 0d78 02       		.byte	0x2
 2387 0d79 91       		.byte	0x91
 2388 0d7a 1C       		.sleb128 28
 2389 0d7b 1A       		.uleb128 0x1a
 2390 0d7c 01       		.byte	0x1
 2391 0d7d 6B000000 		.secrel32	LASF12
 2392 0d81 11       		.byte	0x11
 2393 0d82 00       		.byte	0
 2394 0d83 01       		.byte	0x1
 2395 0d84 39010000 		.long	0x139
 2396 0d88 01       		.byte	0x1
 2397 0d89 940D0000 		.long	0xd94
 2398 0d8d 1B       		.uleb128 0x1b
 2399 0d8e D30C0000 		.long	0xcd3
 2400 0d92 1C       		.uleb128 0x1c
 2401 0d93 00       		.byte	0
 2402 0d94 1D       		.uleb128 0x1d
 2403 0d95 7C000000 		.secrel32	LASF13
 2404 0d99 01       		.byte	0x1
 2405 0d9a 86       		.byte	0x86
 2406 0d9b 06       		.byte	0x6
 2407 0d9c D8090000 		.long	0x9d8
 2408 0da0 03       		.byte	0x3
 2409 0da1 91       		.byte	0x91
 2410 0da2 BC7F     		.sleb128 -68
GAS LISTING C:\Users\jisu8\AppData\Local\Temp\ccKup3Lg.s 			page 66


 2411 0da4 0F       		.uleb128 0xf
 2412 0da5 6C656E67 		.ascii "length\0"
 2412      746800
 2413 0dac 01       		.byte	0x1
 2414 0dad 87       		.byte	0x87
 2415 0dae 06       		.byte	0x6
 2416 0daf 39010000 		.long	0x139
 2417 0db3 02       		.byte	0x2
 2418 0db4 91       		.byte	0x91
 2419 0db5 68       		.sleb128 -24
 2420 0db6 0F       		.uleb128 0xf
 2421 0db7 656E6443 		.ascii "endColumn\0"
 2421      6F6C756D 
 2421      6E00
 2422 0dc1 01       		.byte	0x1
 2423 0dc2 8C       		.byte	0x8c
 2424 0dc3 06       		.byte	0x6
 2425 0dc4 39010000 		.long	0x139
 2426 0dc8 02       		.byte	0x2
 2427 0dc9 91       		.byte	0x91
 2428 0dca 6C       		.sleb128 -20
 2429 0dcb 0F       		.uleb128 0xf
 2430 0dcc 636F6465 		.ascii "codewordBitCount\0"
 2430      776F7264 
 2430      42697443 
 2430      6F756E74 
 2430      00
 2431 0ddd 01       		.byte	0x1
 2432 0dde 8D       		.byte	0x8d
 2433 0ddf 06       		.byte	0x6
 2434 0de0 39010000 		.long	0x139
 2435 0de4 02       		.byte	0x2
 2436 0de5 91       		.byte	0x91
 2437 0de6 64       		.sleb128 -28
 2438 0de7 0F       		.uleb128 0xf
 2439 0de8 6465636F 		.ascii "decodedValue\0"
 2439      64656456 
 2439      616C7565 
 2439      00
 2440 0df5 01       		.byte	0x1
 2441 0df6 A1       		.byte	0xa1
 2442 0df7 06       		.byte	0x6
 2443 0df8 39010000 		.long	0x139
 2444 0dfc 02       		.byte	0x2
 2445 0dfd 91       		.byte	0x91
 2446 0dfe 60       		.sleb128 -32
 2447 0dff 16       		.uleb128 0x16
 2448 0e00 A5040000 		.long	LBB3
 2449 0e04 E5040000 		.long	LBE3
 2450 0e08 1D       		.uleb128 0x1d
 2451 0e09 11000000 		.secrel32	LASF9
 2452 0e0d 01       		.byte	0x1
 2453 0e0e A4       		.byte	0xa4
 2454 0e0f 07       		.byte	0x7
 2455 0e10 39010000 		.long	0x139
 2456 0e14 02       		.byte	0x2
 2457 0e15 91       		.byte	0x91
GAS LISTING C:\Users\jisu8\AppData\Local\Temp\ccKup3Lg.s 			page 67


 2458 0e16 5C       		.sleb128 -36
 2459 0e17 00       		.byte	0
 2460 0e18 00       		.byte	0
 2461 0e19 1E       		.uleb128 0x1e
 2462 0e1a 436F6465 		.ascii "Codeword\0"
 2462      776F7264 
 2462      00
 2463 0e23 01       		.byte	0x1
 2464 0e24 72       		.byte	0x72
 2465 0e25 15       		.byte	0x15
 2466 0e26 01       		.byte	0x1
 2467 0e27 42060000 		.long	0x642
 2468 0e2b 29030000 		.long	LFB10
 2469 0e2f 53030000 		.long	LFE10
 2470 0e33 A8000000 		.secrel32	LLST6
 2471 0e37 01       		.byte	0x1
 2472 0e38 820E0000 		.long	0xe82
 2473 0e3c 19       		.uleb128 0x19
 2474 0e3d 73746172 		.ascii "startX\0"
 2474      745800
 2475 0e44 01       		.byte	0x1
 2476 0e45 72       		.byte	0x72
 2477 0e46 22       		.byte	0x22
 2478 0e47 39010000 		.long	0x139
 2479 0e4b 02       		.byte	0x2
 2480 0e4c 91       		.byte	0x91
 2481 0e4d 00       		.sleb128 0
 2482 0e4e 19       		.uleb128 0x19
 2483 0e4f 656E6458 		.ascii "endX\0"
 2483      00
 2484 0e54 01       		.byte	0x1
 2485 0e55 72       		.byte	0x72
 2486 0e56 2E       		.byte	0x2e
 2487 0e57 39010000 		.long	0x139
 2488 0e5b 02       		.byte	0x2
 2489 0e5c 91       		.byte	0x91
 2490 0e5d 04       		.sleb128 4
 2491 0e5e 19       		.uleb128 0x19
 2492 0e5f 6275636B 		.ascii "bucket\0"
 2492      657400
 2493 0e66 01       		.byte	0x1
 2494 0e67 72       		.byte	0x72
 2495 0e68 38       		.byte	0x38
 2496 0e69 39010000 		.long	0x139
 2497 0e6d 02       		.byte	0x2
 2498 0e6e 91       		.byte	0x91
 2499 0e6f 08       		.sleb128 8
 2500 0e70 19       		.uleb128 0x19
 2501 0e71 76616C75 		.ascii "value\0"
 2501      6500
 2502 0e77 01       		.byte	0x1
 2503 0e78 72       		.byte	0x72
 2504 0e79 44       		.byte	0x44
 2505 0e7a 39010000 		.long	0x139
 2506 0e7e 02       		.byte	0x2
 2507 0e7f 91       		.byte	0x91
 2508 0e80 0C       		.sleb128 12
GAS LISTING C:\Users\jisu8\AppData\Local\Temp\ccKup3Lg.s 			page 68


 2509 0e81 00       		.byte	0
 2510 0e82 17       		.uleb128 0x17
 2511 0e83 47657443 		.ascii "GetCodewordBucketNumber\0"
 2511      6F646577 
 2511      6F726442 
 2511      75636B65 
 2511      744E756D 
 2512 0e9b 01       		.byte	0x1
 2513 0e9c 6D       		.byte	0x6d
 2514 0e9d 0C       		.byte	0xc
 2515 0e9e 01       		.byte	0x1
 2516 0e9f 39010000 		.long	0x139
 2517 0ea3 0E030000 		.long	LFB9
 2518 0ea7 29030000 		.long	LFE9
 2519 0eab E0000000 		.secrel32	LLST5
 2520 0eaf 01       		.byte	0x1
 2521 0eb0 C40E0000 		.long	0xec4
 2522 0eb4 18       		.uleb128 0x18
 2523 0eb5 11000000 		.secrel32	LASF9
 2524 0eb9 01       		.byte	0x1
 2525 0eba 6D       		.byte	0x6d
 2526 0ebb 28       		.byte	0x28
 2527 0ebc 39010000 		.long	0x139
 2528 0ec0 02       		.byte	0x2
 2529 0ec1 91       		.byte	0x91
 2530 0ec2 00       		.sleb128 0
 2531 0ec3 00       		.byte	0
 2532 0ec4 1E       		.uleb128 0x1e
 2533 0ec5 47657443 		.ascii "GetCodewordBucketNumberRet\0"
 2533      6F646577 
 2533      6F726442 
 2533      75636B65 
 2533      744E756D 
 2534 0ee0 01       		.byte	0x1
 2535 0ee1 67       		.byte	0x67
 2536 0ee2 0C       		.byte	0xc
 2537 0ee3 01       		.byte	0x1
 2538 0ee4 39010000 		.long	0x139
 2539 0ee8 C2020000 		.long	LFB8
 2540 0eec 0E030000 		.long	LFE8
 2541 0ef0 18010000 		.secrel32	LLST4
 2542 0ef4 01       		.byte	0x1
 2543 0ef5 090F0000 		.long	0xf09
 2544 0ef9 18       		.uleb128 0x18
 2545 0efa 7C000000 		.secrel32	LASF13
 2546 0efe 01       		.byte	0x1
 2547 0eff 67       		.byte	0x67
 2548 0f00 33       		.byte	0x33
 2549 0f01 090F0000 		.long	0xf09
 2550 0f05 02       		.byte	0x2
 2551 0f06 91       		.byte	0x91
 2552 0f07 00       		.sleb128 0
 2553 0f08 00       		.byte	0
 2554 0f09 09       		.uleb128 0x9
 2555 0f0a 04       		.byte	0x4
 2556 0f0b 40010000 		.long	0x140
 2557 0f0f 17       		.uleb128 0x17
GAS LISTING C:\Users\jisu8\AppData\Local\Temp\ccKup3Lg.s 			page 69


 2558 0f10 47657442 		.ascii "GetBitCountForCodeword\0"
 2558      6974436F 
 2558      756E7446 
 2558      6F72436F 
 2558      6465776F 
 2559 0f27 01       		.byte	0x1
 2560 0f28 4E       		.byte	0x4e
 2561 0f29 0E       		.byte	0xe
 2562 0f2a 01       		.byte	0x1
 2563 0f2b C0010000 		.long	0x1c0
 2564 0f2f 3C020000 		.long	LFB7
 2565 0f33 C2020000 		.long	LFE7
 2566 0f37 50010000 		.secrel32	LLST3
 2567 0f3b 01       		.byte	0x1
 2568 0f3c 8F0F0000 		.long	0xf8f
 2569 0f40 18       		.uleb128 0x18
 2570 0f41 11000000 		.secrel32	LASF9
 2571 0f45 01       		.byte	0x1
 2572 0f46 4E       		.byte	0x4e
 2573 0f47 29       		.byte	0x29
 2574 0f48 39010000 		.long	0x139
 2575 0f4c 02       		.byte	0x2
 2576 0f4d 91       		.byte	0x91
 2577 0f4e 00       		.sleb128 0
 2578 0f4f 1A       		.uleb128 0x1a
 2579 0f50 01       		.byte	0x1
 2580 0f51 6B000000 		.secrel32	LASF12
 2581 0f55 11       		.byte	0x11
 2582 0f56 00       		.byte	0
 2583 0f57 01       		.byte	0x1
 2584 0f58 39010000 		.long	0x139
 2585 0f5c 01       		.byte	0x1
 2586 0f5d 680F0000 		.long	0xf68
 2587 0f61 1B       		.uleb128 0x1b
 2588 0f62 D30C0000 		.long	0xcd3
 2589 0f66 1C       		.uleb128 0x1c
 2590 0f67 00       		.byte	0
 2591 0f68 0F       		.uleb128 0xf
 2592 0f69 70726576 		.ascii "previousValue\0"
 2592      696F7573 
 2592      56616C75 
 2592      6500
 2593 0f77 01       		.byte	0x1
 2594 0f78 54       		.byte	0x54
 2595 0f79 06       		.byte	0x6
 2596 0f7a 39010000 		.long	0x139
 2597 0f7e 02       		.byte	0x2
 2598 0f7f 91       		.byte	0x91
 2599 0f80 6C       		.sleb128 -20
 2600 0f81 0F       		.uleb128 0xf
 2601 0f82 6900     		.ascii "i\0"
 2602 0f84 01       		.byte	0x1
 2603 0f85 55       		.byte	0x55
 2604 0f86 06       		.byte	0x6
 2605 0f87 39010000 		.long	0x139
 2606 0f8b 02       		.byte	0x2
 2607 0f8c 91       		.byte	0x91
GAS LISTING C:\Users\jisu8\AppData\Local\Temp\ccKup3Lg.s 			page 70


 2608 0f8d 68       		.sleb128 -24
 2609 0f8e 00       		.byte	0
 2610 0f8f 1E       		.uleb128 0x1e
 2611 0f90 43686563 		.ascii "CheckCodewordSkew\0"
 2611      6B436F64 
 2611      65776F72 
 2611      64536B65 
 2611      7700
 2612 0fa2 01       		.byte	0x1
 2613 0fa3 48       		.byte	0x48
 2614 0fa4 10       		.byte	0x10
 2615 0fa5 01       		.byte	0x1
 2616 0fa6 22020000 		.long	0x222
 2617 0faa 0D020000 		.long	LFB6
 2618 0fae 3C020000 		.long	LFE6
 2619 0fb2 88010000 		.secrel32	LLST2
 2620 0fb6 01       		.byte	0x1
 2621 0fb7 F20F0000 		.long	0xff2
 2622 0fbb 19       		.uleb128 0x19
 2623 0fbc 636F6465 		.ascii "codewordSize\0"
 2623      776F7264 
 2623      53697A65 
 2623      00
 2624 0fc9 01       		.byte	0x1
 2625 0fca 48       		.byte	0x48
 2626 0fcb 26       		.byte	0x26
 2627 0fcc 39010000 		.long	0x139
 2628 0fd0 02       		.byte	0x2
 2629 0fd1 91       		.byte	0x91
 2630 0fd2 00       		.sleb128 0
 2631 0fd3 18       		.uleb128 0x18
 2632 0fd4 1A000000 		.secrel32	LASF2
 2633 0fd8 01       		.byte	0x1
 2634 0fd9 48       		.byte	0x48
 2635 0fda 38       		.byte	0x38
 2636 0fdb 39010000 		.long	0x139
 2637 0fdf 02       		.byte	0x2
 2638 0fe0 91       		.byte	0x91
 2639 0fe1 04       		.sleb128 4
 2640 0fe2 18       		.uleb128 0x18
 2641 0fe3 00000000 		.secrel32	LASF3
 2642 0fe7 01       		.byte	0x1
 2643 0fe8 48       		.byte	0x48
 2644 0fe9 4E       		.byte	0x4e
 2645 0fea 39010000 		.long	0x139
 2646 0fee 02       		.byte	0x2
 2647 0fef 91       		.byte	0x91
 2648 0ff0 08       		.sleb128 8
 2649 0ff1 00       		.byte	0
 2650 0ff2 17       		.uleb128 0x17
 2651 0ff3 4765744D 		.ascii "GetModuleBitCount\0"
 2651      6F64756C 
 2651      65426974 
 2651      436F756E 
 2651      7400
 2652 1005 01       		.byte	0x1
 2653 1006 2D       		.byte	0x2d
GAS LISTING C:\Users\jisu8\AppData\Local\Temp\ccKup3Lg.s 			page 71


 2654 1007 10       		.byte	0x10
 2655 1008 01       		.byte	0x1
 2656 1009 22020000 		.long	0x222
 2657 100d D3000000 		.long	LFB5
 2658 1011 0D020000 		.long	LFE5
 2659 1015 C0010000 		.secrel32	LLST1
 2660 1019 01       		.byte	0x1
 2661 101a 0F110000 		.long	0x110f
 2662 101e 18       		.uleb128 0x18
 2663 101f 2B000000 		.secrel32	LASF1
 2664 1023 01       		.byte	0x1
 2665 1024 2D       		.byte	0x2d
 2666 1025 36       		.byte	0x36
 2667 1026 870B0000 		.long	0xb87
 2668 102a 02       		.byte	0x2
 2669 102b 91       		.byte	0x91
 2670 102c 00       		.sleb128 0
 2671 102d 18       		.uleb128 0x18
 2672 102e 8B000000 		.secrel32	LASF10
 2673 1032 01       		.byte	0x1
 2674 1033 2D       		.byte	0x2d
 2675 1034 41       		.byte	0x41
 2676 1035 39010000 		.long	0x139
 2677 1039 02       		.byte	0x2
 2678 103a 91       		.byte	0x91
 2679 103b 04       		.sleb128 4
 2680 103c 18       		.uleb128 0x18
 2681 103d 72000000 		.secrel32	LASF11
 2682 1041 01       		.byte	0x1
 2683 1042 2D       		.byte	0x2d
 2684 1043 50       		.byte	0x50
 2685 1044 39010000 		.long	0x139
 2686 1048 02       		.byte	0x2
 2687 1049 91       		.byte	0x91
 2688 104a 08       		.sleb128 8
 2689 104b 18       		.uleb128 0x18
 2690 104c 56000000 		.secrel32	LASF5
 2691 1050 01       		.byte	0x1
 2692 1051 2D       		.byte	0x2d
 2693 1052 63       		.byte	0x63
 2694 1053 22020000 		.long	0x222
 2695 1057 02       		.byte	0x2
 2696 1058 91       		.byte	0x91
 2697 1059 5C       		.sleb128 -36
 2698 105a 18       		.uleb128 0x18
 2699 105b 4A000000 		.secrel32	LASF7
 2700 105f 01       		.byte	0x1
 2701 1060 2D       		.byte	0x2d
 2702 1061 74       		.byte	0x74
 2703 1062 39010000 		.long	0x139
 2704 1066 02       		.byte	0x2
 2705 1067 91       		.byte	0x91
 2706 1068 10       		.sleb128 16
 2707 1069 18       		.uleb128 0x18
 2708 106a 62000000 		.secrel32	LASF8
 2709 106e 01       		.byte	0x1
 2710 106f 2D       		.byte	0x2d
GAS LISTING C:\Users\jisu8\AppData\Local\Temp\ccKup3Lg.s 			page 72


 2711 1070 85       		.byte	0x85
 2712 1071 39010000 		.long	0x139
 2713 1075 02       		.byte	0x2
 2714 1076 91       		.byte	0x91
 2715 1077 14       		.sleb128 20
 2716 1078 18       		.uleb128 0x18
 2717 1079 7C000000 		.secrel32	LASF13
 2718 107d 01       		.byte	0x1
 2719 107e 2D       		.byte	0x2d
 2720 107f 95       		.byte	0x95
 2721 1080 C0010000 		.long	0x1c0
 2722 1084 02       		.byte	0x2
 2723 1085 91       		.byte	0x91
 2724 1086 18       		.sleb128 24
 2725 1087 19       		.uleb128 0x19
 2726 1088 6C656E67 		.ascii "length\0"
 2726      746800
 2727 108f 01       		.byte	0x1
 2728 1090 2D       		.byte	0x2d
 2729 1091 AD       		.byte	0xad
 2730 1092 22020000 		.long	0x222
 2731 1096 02       		.byte	0x2
 2732 1097 91       		.byte	0x91
 2733 1098 58       		.sleb128 -40
 2734 1099 1A       		.uleb128 0x1a
 2735 109a 01       		.byte	0x1
 2736 109b 6B000000 		.secrel32	LASF12
 2737 109f 11       		.byte	0x11
 2738 10a0 00       		.byte	0
 2739 10a1 01       		.byte	0x1
 2740 10a2 39010000 		.long	0x139
 2741 10a6 01       		.byte	0x1
 2742 10a7 B2100000 		.long	0x10b2
 2743 10ab 1B       		.uleb128 0x1b
 2744 10ac D30C0000 		.long	0xcd3
 2745 10b0 1C       		.uleb128 0x1c
 2746 10b1 00       		.byte	0
 2747 10b2 0F       		.uleb128 0xf
 2748 10b3 696D6167 		.ascii "imageColumn\0"
 2748      65436F6C 
 2748      756D6E00 
 2749 10bf 01       		.byte	0x1
 2750 10c0 33       		.byte	0x33
 2751 10c1 06       		.byte	0x6
 2752 10c2 39010000 		.long	0x139
 2753 10c6 02       		.byte	0x2
 2754 10c7 91       		.byte	0x91
 2755 10c8 6C       		.sleb128 -20
 2756 10c9 0F       		.uleb128 0xf
 2757 10ca 6D6F6475 		.ascii "moduleNumber\0"
 2757      6C654E75 
 2757      6D626572 
 2757      00
 2758 10d7 01       		.byte	0x1
 2759 10d8 34       		.byte	0x34
 2760 10d9 0F       		.byte	0xf
 2761 10da D8000000 		.long	0xd8
GAS LISTING C:\Users\jisu8\AppData\Local\Temp\ccKup3Lg.s 			page 73


 2762 10de 02       		.byte	0x2
 2763 10df 91       		.byte	0x91
 2764 10e0 68       		.sleb128 -24
 2765 10e1 1D       		.uleb128 0x1d
 2766 10e2 95000000 		.secrel32	LASF6
 2767 10e6 01       		.byte	0x1
 2768 10e7 35       		.byte	0x35
 2769 10e8 06       		.byte	0x6
 2770 10e9 39010000 		.long	0x139
 2771 10ed 02       		.byte	0x2
 2772 10ee 91       		.byte	0x91
 2773 10ef 60       		.sleb128 -32
 2774 10f0 0F       		.uleb128 0xf
 2775 10f1 70726576 		.ascii "previousPixelValue\0"
 2775      696F7573 
 2775      50697865 
 2775      6C56616C 
 2775      756500
 2776 1104 01       		.byte	0x1
 2777 1105 36       		.byte	0x36
 2778 1106 0A       		.byte	0xa
 2779 1107 22020000 		.long	0x222
 2780 110b 02       		.byte	0x2
 2781 110c 91       		.byte	0x91
 2782 110d 67       		.sleb128 -25
 2783 110e 00       		.byte	0
 2784 110f 1F       		.uleb128 0x1f
 2785 1110 41646A75 		.ascii "AdjustCodewordStartColumn\0"
 2785      7374436F 
 2785      6465776F 
 2785      72645374 
 2785      61727443 
 2786 112a 01       		.byte	0x1
 2787 112b 13       		.byte	0x13
 2788 112c 0C       		.byte	0xc
 2789 112d 01       		.byte	0x1
 2790 112e 39010000 		.long	0x139
 2791 1132 00000000 		.long	LFB4
 2792 1136 D3000000 		.long	LFE4
 2793 113a F8010000 		.secrel32	LLST0
 2794 113e 01       		.byte	0x1
 2795 113f 18       		.uleb128 0x18
 2796 1140 2B000000 		.secrel32	LASF1
 2797 1144 01       		.byte	0x1
 2798 1145 13       		.byte	0x13
 2799 1146 3A       		.byte	0x3a
 2800 1147 870B0000 		.long	0xb87
 2801 114b 02       		.byte	0x2
 2802 114c 91       		.byte	0x91
 2803 114d 00       		.sleb128 0
 2804 114e 18       		.uleb128 0x18
 2805 114f 8B000000 		.secrel32	LASF10
 2806 1153 01       		.byte	0x1
 2807 1154 13       		.byte	0x13
 2808 1155 45       		.byte	0x45
 2809 1156 39010000 		.long	0x139
 2810 115a 02       		.byte	0x2
GAS LISTING C:\Users\jisu8\AppData\Local\Temp\ccKup3Lg.s 			page 74


 2811 115b 91       		.byte	0x91
 2812 115c 04       		.sleb128 4
 2813 115d 18       		.uleb128 0x18
 2814 115e 72000000 		.secrel32	LASF11
 2815 1162 01       		.byte	0x1
 2816 1163 13       		.byte	0x13
 2817 1164 54       		.byte	0x54
 2818 1165 39010000 		.long	0x139
 2819 1169 02       		.byte	0x2
 2820 116a 91       		.byte	0x91
 2821 116b 08       		.sleb128 8
 2822 116c 18       		.uleb128 0x18
 2823 116d 56000000 		.secrel32	LASF5
 2824 1171 01       		.byte	0x1
 2825 1172 13       		.byte	0x13
 2826 1173 67       		.byte	0x67
 2827 1174 22020000 		.long	0x222
 2828 1178 02       		.byte	0x2
 2829 1179 91       		.byte	0x91
 2830 117a 5C       		.sleb128 -36
 2831 117b 19       		.uleb128 0x19
 2832 117c 636F6465 		.ascii "codewordStartColumn\0"
 2832      776F7264 
 2832      53746172 
 2832      74436F6C 
 2832      756D6E00 
 2833 1190 01       		.byte	0x1
 2834 1191 13       		.byte	0x13
 2835 1192 78       		.byte	0x78
 2836 1193 39010000 		.long	0x139
 2837 1197 02       		.byte	0x2
 2838 1198 91       		.byte	0x91
 2839 1199 10       		.sleb128 16
 2840 119a 18       		.uleb128 0x18
 2841 119b 62000000 		.secrel32	LASF8
 2842 119f 01       		.byte	0x1
 2843 11a0 13       		.byte	0x13
 2844 11a1 91       		.byte	0x91
 2845 11a2 39010000 		.long	0x139
 2846 11a6 02       		.byte	0x2
 2847 11a7 91       		.byte	0x91
 2848 11a8 14       		.sleb128 20
 2849 11a9 1A       		.uleb128 0x1a
 2850 11aa 01       		.byte	0x1
 2851 11ab 6B000000 		.secrel32	LASF12
 2852 11af 11       		.byte	0x11
 2853 11b0 00       		.byte	0
 2854 11b1 01       		.byte	0x1
 2855 11b2 39010000 		.long	0x139
 2856 11b6 01       		.byte	0x1
 2857 11b7 C2110000 		.long	0x11c2
 2858 11bb 1B       		.uleb128 0x1b
 2859 11bc D30C0000 		.long	0xcd3
 2860 11c0 1C       		.uleb128 0x1c
 2861 11c1 00       		.byte	0
 2862 11c2 0F       		.uleb128 0xf
 2863 11c3 636F7272 		.ascii "correctedStartColumn\0"
GAS LISTING C:\Users\jisu8\AppData\Local\Temp\ccKup3Lg.s 			page 75


 2863      65637465 
 2863      64537461 
 2863      7274436F 
 2863      6C756D6E 
 2864 11d8 01       		.byte	0x1
 2865 11d9 19       		.byte	0x19
 2866 11da 06       		.byte	0x6
 2867 11db 39010000 		.long	0x139
 2868 11df 02       		.byte	0x2
 2869 11e0 91       		.byte	0x91
 2870 11e1 6C       		.sleb128 -20
 2871 11e2 1D       		.uleb128 0x1d
 2872 11e3 95000000 		.secrel32	LASF6
 2873 11e7 01       		.byte	0x1
 2874 11e8 1A       		.byte	0x1a
 2875 11e9 06       		.byte	0x6
 2876 11ea 39010000 		.long	0x139
 2877 11ee 02       		.byte	0x2
 2878 11ef 91       		.byte	0x91
 2879 11f0 68       		.sleb128 -24
 2880 11f1 16       		.uleb128 0x16
 2881 11f2 57000000 		.long	LBB2
 2882 11f6 CE000000 		.long	LBE2
 2883 11fa 0F       		.uleb128 0xf
 2884 11fb 6900     		.ascii "i\0"
 2885 11fd 01       		.byte	0x1
 2886 11fe 1C       		.byte	0x1c
 2887 11ff 0B       		.byte	0xb
 2888 1200 39010000 		.long	0x139
 2889 1204 02       		.byte	0x2
 2890 1205 91       		.byte	0x91
 2891 1206 64       		.sleb128 -28
 2892 1207 00       		.byte	0
 2893 1208 00       		.byte	0
 2894 1209 00       		.byte	0
 2895              		.section	.debug_abbrev,"dr"
 2896              	Ldebug_abbrev0:
 2897 0000 01       		.uleb128 0x1
 2898 0001 11       		.uleb128 0x11
 2899 0002 01       		.byte	0x1
 2900 0003 25       		.uleb128 0x25
 2901 0004 08       		.uleb128 0x8
 2902 0005 13       		.uleb128 0x13
 2903 0006 0B       		.uleb128 0xb
 2904 0007 03       		.uleb128 0x3
 2905 0008 08       		.uleb128 0x8
 2906 0009 1B       		.uleb128 0x1b
 2907 000a 08       		.uleb128 0x8
 2908 000b 11       		.uleb128 0x11
 2909 000c 01       		.uleb128 0x1
 2910 000d 12       		.uleb128 0x12
 2911 000e 01       		.uleb128 0x1
 2912 000f 10       		.uleb128 0x10
 2913 0010 06       		.uleb128 0x6
 2914 0011 00       		.byte	0
 2915 0012 00       		.byte	0
 2916 0013 02       		.uleb128 0x2
GAS LISTING C:\Users\jisu8\AppData\Local\Temp\ccKup3Lg.s 			page 76


 2917 0014 04       		.uleb128 0x4
 2918 0015 01       		.byte	0x1
 2919 0016 3E       		.uleb128 0x3e
 2920 0017 0B       		.uleb128 0xb
 2921 0018 0B       		.uleb128 0xb
 2922 0019 0B       		.uleb128 0xb
 2923 001a 49       		.uleb128 0x49
 2924 001b 13       		.uleb128 0x13
 2925 001c 3A       		.uleb128 0x3a
 2926 001d 0B       		.uleb128 0xb
 2927 001e 3B       		.uleb128 0x3b
 2928 001f 0B       		.uleb128 0xb
 2929 0020 39       		.uleb128 0x39
 2930 0021 0B       		.uleb128 0xb
 2931 0022 01       		.uleb128 0x1
 2932 0023 13       		.uleb128 0x13
 2933 0024 00       		.byte	0
 2934 0025 00       		.byte	0
 2935 0026 03       		.uleb128 0x3
 2936 0027 28       		.uleb128 0x28
 2937 0028 00       		.byte	0
 2938 0029 03       		.uleb128 0x3
 2939 002a 08       		.uleb128 0x8
 2940 002b 1C       		.uleb128 0x1c
 2941 002c 0B       		.uleb128 0xb
 2942 002d 00       		.byte	0
 2943 002e 00       		.byte	0
 2944 002f 04       		.uleb128 0x4
 2945 0030 24       		.uleb128 0x24
 2946 0031 00       		.byte	0
 2947 0032 0B       		.uleb128 0xb
 2948 0033 0B       		.uleb128 0xb
 2949 0034 3E       		.uleb128 0x3e
 2950 0035 0B       		.uleb128 0xb
 2951 0036 03       		.uleb128 0x3
 2952 0037 08       		.uleb128 0x8
 2953 0038 00       		.byte	0
 2954 0039 00       		.byte	0
 2955 003a 05       		.uleb128 0x5
 2956 003b 16       		.uleb128 0x16
 2957 003c 00       		.byte	0
 2958 003d 03       		.uleb128 0x3
 2959 003e 08       		.uleb128 0x8
 2960 003f 3A       		.uleb128 0x3a
 2961 0040 0B       		.uleb128 0xb
 2962 0041 3B       		.uleb128 0x3b
 2963 0042 0B       		.uleb128 0xb
 2964 0043 39       		.uleb128 0x39
 2965 0044 0B       		.uleb128 0xb
 2966 0045 49       		.uleb128 0x49
 2967 0046 13       		.uleb128 0x13
 2968 0047 00       		.byte	0
 2969 0048 00       		.byte	0
 2970 0049 06       		.uleb128 0x6
 2971 004a 13       		.uleb128 0x13
 2972 004b 01       		.byte	0x1
 2973 004c 0B       		.uleb128 0xb
GAS LISTING C:\Users\jisu8\AppData\Local\Temp\ccKup3Lg.s 			page 77


 2974 004d 0B       		.uleb128 0xb
 2975 004e 3A       		.uleb128 0x3a
 2976 004f 0B       		.uleb128 0xb
 2977 0050 3B       		.uleb128 0x3b
 2978 0051 0B       		.uleb128 0xb
 2979 0052 39       		.uleb128 0x39
 2980 0053 0B       		.uleb128 0xb
 2981 0054 01       		.uleb128 0x1
 2982 0055 13       		.uleb128 0x13
 2983 0056 00       		.byte	0
 2984 0057 00       		.byte	0
 2985 0058 07       		.uleb128 0x7
 2986 0059 0D       		.uleb128 0xd
 2987 005a 00       		.byte	0
 2988 005b 03       		.uleb128 0x3
 2989 005c 08       		.uleb128 0x8
 2990 005d 3A       		.uleb128 0x3a
 2991 005e 0B       		.uleb128 0xb
 2992 005f 3B       		.uleb128 0x3b
 2993 0060 0B       		.uleb128 0xb
 2994 0061 39       		.uleb128 0x39
 2995 0062 0B       		.uleb128 0xb
 2996 0063 49       		.uleb128 0x49
 2997 0064 13       		.uleb128 0x13
 2998 0065 38       		.uleb128 0x38
 2999 0066 0A       		.uleb128 0xa
 3000 0067 00       		.byte	0
 3001 0068 00       		.byte	0
 3002 0069 08       		.uleb128 0x8
 3003 006a 26       		.uleb128 0x26
 3004 006b 00       		.byte	0
 3005 006c 49       		.uleb128 0x49
 3006 006d 13       		.uleb128 0x13
 3007 006e 00       		.byte	0
 3008 006f 00       		.byte	0
 3009 0070 09       		.uleb128 0x9
 3010 0071 0F       		.uleb128 0xf
 3011 0072 00       		.byte	0
 3012 0073 0B       		.uleb128 0xb
 3013 0074 0B       		.uleb128 0xb
 3014 0075 49       		.uleb128 0x49
 3015 0076 13       		.uleb128 0x13
 3016 0077 00       		.byte	0
 3017 0078 00       		.byte	0
 3018 0079 0A       		.uleb128 0xa
 3019 007a 0D       		.uleb128 0xd
 3020 007b 00       		.byte	0
 3021 007c 03       		.uleb128 0x3
 3022 007d 0E       		.uleb128 0xe
 3023 007e 3A       		.uleb128 0x3a
 3024 007f 0B       		.uleb128 0xb
 3025 0080 3B       		.uleb128 0x3b
 3026 0081 0B       		.uleb128 0xb
 3027 0082 39       		.uleb128 0x39
 3028 0083 0B       		.uleb128 0xb
 3029 0084 49       		.uleb128 0x49
 3030 0085 13       		.uleb128 0x13
GAS LISTING C:\Users\jisu8\AppData\Local\Temp\ccKup3Lg.s 			page 78


 3031 0086 38       		.uleb128 0x38
 3032 0087 0A       		.uleb128 0xa
 3033 0088 00       		.byte	0
 3034 0089 00       		.byte	0
 3035 008a 0B       		.uleb128 0xb
 3036 008b 34       		.uleb128 0x34
 3037 008c 00       		.byte	0
 3038 008d 03       		.uleb128 0x3
 3039 008e 08       		.uleb128 0x8
 3040 008f 3A       		.uleb128 0x3a
 3041 0090 0B       		.uleb128 0xb
 3042 0091 3B       		.uleb128 0x3b
 3043 0092 0B       		.uleb128 0xb
 3044 0093 39       		.uleb128 0x39
 3045 0094 0B       		.uleb128 0xb
 3046 0095 49       		.uleb128 0x49
 3047 0096 13       		.uleb128 0x13
 3048 0097 3F       		.uleb128 0x3f
 3049 0098 0C       		.uleb128 0xc
 3050 0099 3C       		.uleb128 0x3c
 3051 009a 0C       		.uleb128 0xc
 3052 009b 00       		.byte	0
 3053 009c 00       		.byte	0
 3054 009d 0C       		.uleb128 0xc
 3055 009e 01       		.uleb128 0x1
 3056 009f 01       		.byte	0x1
 3057 00a0 49       		.uleb128 0x49
 3058 00a1 13       		.uleb128 0x13
 3059 00a2 01       		.uleb128 0x1
 3060 00a3 13       		.uleb128 0x13
 3061 00a4 00       		.byte	0
 3062 00a5 00       		.byte	0
 3063 00a6 0D       		.uleb128 0xd
 3064 00a7 21       		.uleb128 0x21
 3065 00a8 00       		.byte	0
 3066 00a9 49       		.uleb128 0x49
 3067 00aa 13       		.uleb128 0x13
 3068 00ab 2F       		.uleb128 0x2f
 3069 00ac 0B       		.uleb128 0xb
 3070 00ad 00       		.byte	0
 3071 00ae 00       		.byte	0
 3072 00af 0E       		.uleb128 0xe
 3073 00b0 34       		.uleb128 0x34
 3074 00b1 00       		.byte	0
 3075 00b2 03       		.uleb128 0x3
 3076 00b3 08       		.uleb128 0x8
 3077 00b4 3A       		.uleb128 0x3a
 3078 00b5 0B       		.uleb128 0xb
 3079 00b6 3B       		.uleb128 0x3b
 3080 00b7 05       		.uleb128 0x5
 3081 00b8 39       		.uleb128 0x39
 3082 00b9 0B       		.uleb128 0xb
 3083 00ba 49       		.uleb128 0x49
 3084 00bb 13       		.uleb128 0x13
 3085 00bc 3F       		.uleb128 0x3f
 3086 00bd 0C       		.uleb128 0xc
 3087 00be 3C       		.uleb128 0x3c
GAS LISTING C:\Users\jisu8\AppData\Local\Temp\ccKup3Lg.s 			page 79


 3088 00bf 0C       		.uleb128 0xc
 3089 00c0 00       		.byte	0
 3090 00c1 00       		.byte	0
 3091 00c2 0F       		.uleb128 0xf
 3092 00c3 34       		.uleb128 0x34
 3093 00c4 00       		.byte	0
 3094 00c5 03       		.uleb128 0x3
 3095 00c6 08       		.uleb128 0x8
 3096 00c7 3A       		.uleb128 0x3a
 3097 00c8 0B       		.uleb128 0xb
 3098 00c9 3B       		.uleb128 0x3b
 3099 00ca 0B       		.uleb128 0xb
 3100 00cb 39       		.uleb128 0x39
 3101 00cc 0B       		.uleb128 0xb
 3102 00cd 49       		.uleb128 0x49
 3103 00ce 13       		.uleb128 0x13
 3104 00cf 02       		.uleb128 0x2
 3105 00d0 0A       		.uleb128 0xa
 3106 00d1 00       		.byte	0
 3107 00d2 00       		.byte	0
 3108 00d3 10       		.uleb128 0x10
 3109 00d4 34       		.uleb128 0x34
 3110 00d5 00       		.byte	0
 3111 00d6 03       		.uleb128 0x3
 3112 00d7 08       		.uleb128 0x8
 3113 00d8 3A       		.uleb128 0x3a
 3114 00d9 0B       		.uleb128 0xb
 3115 00da 3B       		.uleb128 0x3b
 3116 00db 0B       		.uleb128 0xb
 3117 00dc 39       		.uleb128 0x39
 3118 00dd 0B       		.uleb128 0xb
 3119 00de 49       		.uleb128 0x49
 3120 00df 13       		.uleb128 0x13
 3121 00e0 3F       		.uleb128 0x3f
 3122 00e1 0C       		.uleb128 0xc
 3123 00e2 02       		.uleb128 0x2
 3124 00e3 0A       		.uleb128 0xa
 3125 00e4 00       		.byte	0
 3126 00e5 00       		.byte	0
 3127 00e6 11       		.uleb128 0x11
 3128 00e7 2E       		.uleb128 0x2e
 3129 00e8 01       		.byte	0x1
 3130 00e9 3F       		.uleb128 0x3f
 3131 00ea 0C       		.uleb128 0xc
 3132 00eb 03       		.uleb128 0x3
 3133 00ec 08       		.uleb128 0x8
 3134 00ed 3A       		.uleb128 0x3a
 3135 00ee 0B       		.uleb128 0xb
 3136 00ef 3B       		.uleb128 0x3b
 3137 00f0 05       		.uleb128 0x5
 3138 00f1 39       		.uleb128 0x39
 3139 00f2 0B       		.uleb128 0xb
 3140 00f3 27       		.uleb128 0x27
 3141 00f4 0C       		.uleb128 0xc
 3142 00f5 49       		.uleb128 0x49
 3143 00f6 13       		.uleb128 0x13
 3144 00f7 11       		.uleb128 0x11
GAS LISTING C:\Users\jisu8\AppData\Local\Temp\ccKup3Lg.s 			page 80


 3145 00f8 01       		.uleb128 0x1
 3146 00f9 12       		.uleb128 0x12
 3147 00fa 01       		.uleb128 0x1
 3148 00fb 40       		.uleb128 0x40
 3149 00fc 06       		.uleb128 0x6
 3150 00fd 9642     		.uleb128 0x2116
 3151 00ff 0C       		.uleb128 0xc
 3152 0100 01       		.uleb128 0x1
 3153 0101 13       		.uleb128 0x13
 3154 0102 00       		.byte	0
 3155 0103 00       		.byte	0
 3156 0104 12       		.uleb128 0x12
 3157 0105 05       		.uleb128 0x5
 3158 0106 00       		.byte	0
 3159 0107 03       		.uleb128 0x3
 3160 0108 0E       		.uleb128 0xe
 3161 0109 3A       		.uleb128 0x3a
 3162 010a 0B       		.uleb128 0xb
 3163 010b 3B       		.uleb128 0x3b
 3164 010c 05       		.uleb128 0x5
 3165 010d 39       		.uleb128 0x39
 3166 010e 0B       		.uleb128 0xb
 3167 010f 49       		.uleb128 0x49
 3168 0110 13       		.uleb128 0x13
 3169 0111 02       		.uleb128 0x2
 3170 0112 0A       		.uleb128 0xa
 3171 0113 00       		.byte	0
 3172 0114 00       		.byte	0
 3173 0115 13       		.uleb128 0x13
 3174 0116 05       		.uleb128 0x5
 3175 0117 00       		.byte	0
 3176 0118 03       		.uleb128 0x3
 3177 0119 08       		.uleb128 0x8
 3178 011a 3A       		.uleb128 0x3a
 3179 011b 0B       		.uleb128 0xb
 3180 011c 3B       		.uleb128 0x3b
 3181 011d 05       		.uleb128 0x5
 3182 011e 39       		.uleb128 0x39
 3183 011f 0B       		.uleb128 0xb
 3184 0120 49       		.uleb128 0x49
 3185 0121 13       		.uleb128 0x13
 3186 0122 02       		.uleb128 0x2
 3187 0123 0A       		.uleb128 0xa
 3188 0124 00       		.byte	0
 3189 0125 00       		.byte	0
 3190 0126 14       		.uleb128 0x14
 3191 0127 34       		.uleb128 0x34
 3192 0128 00       		.byte	0
 3193 0129 03       		.uleb128 0x3
 3194 012a 0E       		.uleb128 0xe
 3195 012b 3A       		.uleb128 0x3a
 3196 012c 0B       		.uleb128 0xb
 3197 012d 3B       		.uleb128 0x3b
 3198 012e 05       		.uleb128 0x5
 3199 012f 39       		.uleb128 0x39
 3200 0130 0B       		.uleb128 0xb
 3201 0131 49       		.uleb128 0x49
GAS LISTING C:\Users\jisu8\AppData\Local\Temp\ccKup3Lg.s 			page 81


 3202 0132 13       		.uleb128 0x13
 3203 0133 02       		.uleb128 0x2
 3204 0134 0A       		.uleb128 0xa
 3205 0135 00       		.byte	0
 3206 0136 00       		.byte	0
 3207 0137 15       		.uleb128 0x15
 3208 0138 34       		.uleb128 0x34
 3209 0139 00       		.byte	0
 3210 013a 03       		.uleb128 0x3
 3211 013b 08       		.uleb128 0x8
 3212 013c 3A       		.uleb128 0x3a
 3213 013d 0B       		.uleb128 0xb
 3214 013e 3B       		.uleb128 0x3b
 3215 013f 05       		.uleb128 0x5
 3216 0140 39       		.uleb128 0x39
 3217 0141 0B       		.uleb128 0xb
 3218 0142 49       		.uleb128 0x49
 3219 0143 13       		.uleb128 0x13
 3220 0144 02       		.uleb128 0x2
 3221 0145 0A       		.uleb128 0xa
 3222 0146 00       		.byte	0
 3223 0147 00       		.byte	0
 3224 0148 16       		.uleb128 0x16
 3225 0149 0B       		.uleb128 0xb
 3226 014a 01       		.byte	0x1
 3227 014b 11       		.uleb128 0x11
 3228 014c 01       		.uleb128 0x1
 3229 014d 12       		.uleb128 0x12
 3230 014e 01       		.uleb128 0x1
 3231 014f 00       		.byte	0
 3232 0150 00       		.byte	0
 3233 0151 17       		.uleb128 0x17
 3234 0152 2E       		.uleb128 0x2e
 3235 0153 01       		.byte	0x1
 3236 0154 03       		.uleb128 0x3
 3237 0155 08       		.uleb128 0x8
 3238 0156 3A       		.uleb128 0x3a
 3239 0157 0B       		.uleb128 0xb
 3240 0158 3B       		.uleb128 0x3b
 3241 0159 0B       		.uleb128 0xb
 3242 015a 39       		.uleb128 0x39
 3243 015b 0B       		.uleb128 0xb
 3244 015c 27       		.uleb128 0x27
 3245 015d 0C       		.uleb128 0xc
 3246 015e 49       		.uleb128 0x49
 3247 015f 13       		.uleb128 0x13
 3248 0160 11       		.uleb128 0x11
 3249 0161 01       		.uleb128 0x1
 3250 0162 12       		.uleb128 0x12
 3251 0163 01       		.uleb128 0x1
 3252 0164 40       		.uleb128 0x40
 3253 0165 06       		.uleb128 0x6
 3254 0166 9642     		.uleb128 0x2116
 3255 0168 0C       		.uleb128 0xc
 3256 0169 01       		.uleb128 0x1
 3257 016a 13       		.uleb128 0x13
 3258 016b 00       		.byte	0
GAS LISTING C:\Users\jisu8\AppData\Local\Temp\ccKup3Lg.s 			page 82


 3259 016c 00       		.byte	0
 3260 016d 18       		.uleb128 0x18
 3261 016e 05       		.uleb128 0x5
 3262 016f 00       		.byte	0
 3263 0170 03       		.uleb128 0x3
 3264 0171 0E       		.uleb128 0xe
 3265 0172 3A       		.uleb128 0x3a
 3266 0173 0B       		.uleb128 0xb
 3267 0174 3B       		.uleb128 0x3b
 3268 0175 0B       		.uleb128 0xb
 3269 0176 39       		.uleb128 0x39
 3270 0177 0B       		.uleb128 0xb
 3271 0178 49       		.uleb128 0x49
 3272 0179 13       		.uleb128 0x13
 3273 017a 02       		.uleb128 0x2
 3274 017b 0A       		.uleb128 0xa
 3275 017c 00       		.byte	0
 3276 017d 00       		.byte	0
 3277 017e 19       		.uleb128 0x19
 3278 017f 05       		.uleb128 0x5
 3279 0180 00       		.byte	0
 3280 0181 03       		.uleb128 0x3
 3281 0182 08       		.uleb128 0x8
 3282 0183 3A       		.uleb128 0x3a
 3283 0184 0B       		.uleb128 0xb
 3284 0185 3B       		.uleb128 0x3b
 3285 0186 0B       		.uleb128 0xb
 3286 0187 39       		.uleb128 0x39
 3287 0188 0B       		.uleb128 0xb
 3288 0189 49       		.uleb128 0x49
 3289 018a 13       		.uleb128 0x13
 3290 018b 02       		.uleb128 0x2
 3291 018c 0A       		.uleb128 0xa
 3292 018d 00       		.byte	0
 3293 018e 00       		.byte	0
 3294 018f 1A       		.uleb128 0x1a
 3295 0190 2E       		.uleb128 0x2e
 3296 0191 01       		.byte	0x1
 3297 0192 3F       		.uleb128 0x3f
 3298 0193 0C       		.uleb128 0xc
 3299 0194 03       		.uleb128 0x3
 3300 0195 0E       		.uleb128 0xe
 3301 0196 3A       		.uleb128 0x3a
 3302 0197 0B       		.uleb128 0xb
 3303 0198 3B       		.uleb128 0x3b
 3304 0199 0B       		.uleb128 0xb
 3305 019a 27       		.uleb128 0x27
 3306 019b 0C       		.uleb128 0xc
 3307 019c 49       		.uleb128 0x49
 3308 019d 13       		.uleb128 0x13
 3309 019e 3C       		.uleb128 0x3c
 3310 019f 0C       		.uleb128 0xc
 3311 01a0 01       		.uleb128 0x1
 3312 01a1 13       		.uleb128 0x13
 3313 01a2 00       		.byte	0
 3314 01a3 00       		.byte	0
 3315 01a4 1B       		.uleb128 0x1b
GAS LISTING C:\Users\jisu8\AppData\Local\Temp\ccKup3Lg.s 			page 83


 3316 01a5 05       		.uleb128 0x5
 3317 01a6 00       		.byte	0
 3318 01a7 49       		.uleb128 0x49
 3319 01a8 13       		.uleb128 0x13
 3320 01a9 00       		.byte	0
 3321 01aa 00       		.byte	0
 3322 01ab 1C       		.uleb128 0x1c
 3323 01ac 18       		.uleb128 0x18
 3324 01ad 00       		.byte	0
 3325 01ae 00       		.byte	0
 3326 01af 00       		.byte	0
 3327 01b0 1D       		.uleb128 0x1d
 3328 01b1 34       		.uleb128 0x34
 3329 01b2 00       		.byte	0
 3330 01b3 03       		.uleb128 0x3
 3331 01b4 0E       		.uleb128 0xe
 3332 01b5 3A       		.uleb128 0x3a
 3333 01b6 0B       		.uleb128 0xb
 3334 01b7 3B       		.uleb128 0x3b
 3335 01b8 0B       		.uleb128 0xb
 3336 01b9 39       		.uleb128 0x39
 3337 01ba 0B       		.uleb128 0xb
 3338 01bb 49       		.uleb128 0x49
 3339 01bc 13       		.uleb128 0x13
 3340 01bd 02       		.uleb128 0x2
 3341 01be 0A       		.uleb128 0xa
 3342 01bf 00       		.byte	0
 3343 01c0 00       		.byte	0
 3344 01c1 1E       		.uleb128 0x1e
 3345 01c2 2E       		.uleb128 0x2e
 3346 01c3 01       		.byte	0x1
 3347 01c4 03       		.uleb128 0x3
 3348 01c5 08       		.uleb128 0x8
 3349 01c6 3A       		.uleb128 0x3a
 3350 01c7 0B       		.uleb128 0xb
 3351 01c8 3B       		.uleb128 0x3b
 3352 01c9 0B       		.uleb128 0xb
 3353 01ca 39       		.uleb128 0x39
 3354 01cb 0B       		.uleb128 0xb
 3355 01cc 27       		.uleb128 0x27
 3356 01cd 0C       		.uleb128 0xc
 3357 01ce 49       		.uleb128 0x49
 3358 01cf 13       		.uleb128 0x13
 3359 01d0 11       		.uleb128 0x11
 3360 01d1 01       		.uleb128 0x1
 3361 01d2 12       		.uleb128 0x12
 3362 01d3 01       		.uleb128 0x1
 3363 01d4 40       		.uleb128 0x40
 3364 01d5 06       		.uleb128 0x6
 3365 01d6 9742     		.uleb128 0x2117
 3366 01d8 0C       		.uleb128 0xc
 3367 01d9 01       		.uleb128 0x1
 3368 01da 13       		.uleb128 0x13
 3369 01db 00       		.byte	0
 3370 01dc 00       		.byte	0
 3371 01dd 1F       		.uleb128 0x1f
 3372 01de 2E       		.uleb128 0x2e
GAS LISTING C:\Users\jisu8\AppData\Local\Temp\ccKup3Lg.s 			page 84


 3373 01df 01       		.byte	0x1
 3374 01e0 03       		.uleb128 0x3
 3375 01e1 08       		.uleb128 0x8
 3376 01e2 3A       		.uleb128 0x3a
 3377 01e3 0B       		.uleb128 0xb
 3378 01e4 3B       		.uleb128 0x3b
 3379 01e5 0B       		.uleb128 0xb
 3380 01e6 39       		.uleb128 0x39
 3381 01e7 0B       		.uleb128 0xb
 3382 01e8 27       		.uleb128 0x27
 3383 01e9 0C       		.uleb128 0xc
 3384 01ea 49       		.uleb128 0x49
 3385 01eb 13       		.uleb128 0x13
 3386 01ec 11       		.uleb128 0x11
 3387 01ed 01       		.uleb128 0x1
 3388 01ee 12       		.uleb128 0x12
 3389 01ef 01       		.uleb128 0x1
 3390 01f0 40       		.uleb128 0x40
 3391 01f1 06       		.uleb128 0x6
 3392 01f2 9642     		.uleb128 0x2116
 3393 01f4 0C       		.uleb128 0xc
 3394 01f5 00       		.byte	0
 3395 01f6 00       		.byte	0
 3396 01f7 00       		.byte	0
 3397              		.section	.debug_loc,"dr"
 3398              	Ldebug_loc0:
 3399              	LLST9:
 3400 0000 05060000 		.long	LFB13-Ltext0
 3401 0004 06060000 		.long	LCFI27-Ltext0
 3402 0008 0200     		.word	0x2
 3403 000a 74       		.byte	0x74
 3404 000b 04       		.sleb128 4
 3405 000c 06060000 		.long	LCFI27-Ltext0
 3406 0010 08060000 		.long	LCFI28-Ltext0
 3407 0014 0200     		.word	0x2
 3408 0016 74       		.byte	0x74
 3409 0017 08       		.sleb128 8
 3410 0018 08060000 		.long	LCFI28-Ltext0
 3411 001c 6F070000 		.long	LCFI29-Ltext0
 3412 0020 0200     		.word	0x2
 3413 0022 75       		.byte	0x75
 3414 0023 08       		.sleb128 8
 3415 0024 6F070000 		.long	LCFI29-Ltext0
 3416 0028 70070000 		.long	LFE13-Ltext0
 3417 002c 0200     		.word	0x2
 3418 002e 74       		.byte	0x74
 3419 002f 04       		.sleb128 4
 3420 0030 00000000 		.long	0
 3421 0034 00000000 		.long	0
 3422              	LLST8:
 3423 0038 EC040000 		.long	LFB12-Ltext0
 3424 003c ED040000 		.long	LCFI24-Ltext0
 3425 0040 0200     		.word	0x2
 3426 0042 74       		.byte	0x74
 3427 0043 04       		.sleb128 4
 3428 0044 ED040000 		.long	LCFI24-Ltext0
 3429 0048 EF040000 		.long	LCFI25-Ltext0
GAS LISTING C:\Users\jisu8\AppData\Local\Temp\ccKup3Lg.s 			page 85


 3430 004c 0200     		.word	0x2
 3431 004e 74       		.byte	0x74
 3432 004f 08       		.sleb128 8
 3433 0050 EF040000 		.long	LCFI25-Ltext0
 3434 0054 04060000 		.long	LCFI26-Ltext0
 3435 0058 0200     		.word	0x2
 3436 005a 75       		.byte	0x75
 3437 005b 08       		.sleb128 8
 3438 005c 04060000 		.long	LCFI26-Ltext0
 3439 0060 05060000 		.long	LFE12-Ltext0
 3440 0064 0200     		.word	0x2
 3441 0066 74       		.byte	0x74
 3442 0067 04       		.sleb128 4
 3443 0068 00000000 		.long	0
 3444 006c 00000000 		.long	0
 3445              	LLST7:
 3446 0070 53030000 		.long	LFB11-Ltext0
 3447 0074 54030000 		.long	LCFI21-Ltext0
 3448 0078 0200     		.word	0x2
 3449 007a 74       		.byte	0x74
 3450 007b 04       		.sleb128 4
 3451 007c 54030000 		.long	LCFI21-Ltext0
 3452 0080 56030000 		.long	LCFI22-Ltext0
 3453 0084 0200     		.word	0x2
 3454 0086 74       		.byte	0x74
 3455 0087 08       		.sleb128 8
 3456 0088 56030000 		.long	LCFI22-Ltext0
 3457 008c EB040000 		.long	LCFI23-Ltext0
 3458 0090 0200     		.word	0x2
 3459 0092 75       		.byte	0x75
 3460 0093 08       		.sleb128 8
 3461 0094 EB040000 		.long	LCFI23-Ltext0
 3462 0098 EC040000 		.long	LFE11-Ltext0
 3463 009c 0200     		.word	0x2
 3464 009e 74       		.byte	0x74
 3465 009f 04       		.sleb128 4
 3466 00a0 00000000 		.long	0
 3467 00a4 00000000 		.long	0
 3468              	LLST6:
 3469 00a8 29030000 		.long	LFB10-Ltext0
 3470 00ac 2A030000 		.long	LCFI18-Ltext0
 3471 00b0 0200     		.word	0x2
 3472 00b2 74       		.byte	0x74
 3473 00b3 04       		.sleb128 4
 3474 00b4 2A030000 		.long	LCFI18-Ltext0
 3475 00b8 2C030000 		.long	LCFI19-Ltext0
 3476 00bc 0200     		.word	0x2
 3477 00be 74       		.byte	0x74
 3478 00bf 08       		.sleb128 8
 3479 00c0 2C030000 		.long	LCFI19-Ltext0
 3480 00c4 52030000 		.long	LCFI20-Ltext0
 3481 00c8 0200     		.word	0x2
 3482 00ca 75       		.byte	0x75
 3483 00cb 08       		.sleb128 8
 3484 00cc 52030000 		.long	LCFI20-Ltext0
 3485 00d0 53030000 		.long	LFE10-Ltext0
 3486 00d4 0200     		.word	0x2
GAS LISTING C:\Users\jisu8\AppData\Local\Temp\ccKup3Lg.s 			page 86


 3487 00d6 74       		.byte	0x74
 3488 00d7 04       		.sleb128 4
 3489 00d8 00000000 		.long	0
 3490 00dc 00000000 		.long	0
 3491              	LLST5:
 3492 00e0 0E030000 		.long	LFB9-Ltext0
 3493 00e4 0F030000 		.long	LCFI15-Ltext0
 3494 00e8 0200     		.word	0x2
 3495 00ea 74       		.byte	0x74
 3496 00eb 04       		.sleb128 4
 3497 00ec 0F030000 		.long	LCFI15-Ltext0
 3498 00f0 11030000 		.long	LCFI16-Ltext0
 3499 00f4 0200     		.word	0x2
 3500 00f6 74       		.byte	0x74
 3501 00f7 08       		.sleb128 8
 3502 00f8 11030000 		.long	LCFI16-Ltext0
 3503 00fc 28030000 		.long	LCFI17-Ltext0
 3504 0100 0200     		.word	0x2
 3505 0102 75       		.byte	0x75
 3506 0103 08       		.sleb128 8
 3507 0104 28030000 		.long	LCFI17-Ltext0
 3508 0108 29030000 		.long	LFE9-Ltext0
 3509 010c 0200     		.word	0x2
 3510 010e 74       		.byte	0x74
 3511 010f 04       		.sleb128 4
 3512 0110 00000000 		.long	0
 3513 0114 00000000 		.long	0
 3514              	LLST4:
 3515 0118 C2020000 		.long	LFB8-Ltext0
 3516 011c C3020000 		.long	LCFI12-Ltext0
 3517 0120 0200     		.word	0x2
 3518 0122 74       		.byte	0x74
 3519 0123 04       		.sleb128 4
 3520 0124 C3020000 		.long	LCFI12-Ltext0
 3521 0128 C5020000 		.long	LCFI13-Ltext0
 3522 012c 0200     		.word	0x2
 3523 012e 74       		.byte	0x74
 3524 012f 08       		.sleb128 8
 3525 0130 C5020000 		.long	LCFI13-Ltext0
 3526 0134 0D030000 		.long	LCFI14-Ltext0
 3527 0138 0200     		.word	0x2
 3528 013a 75       		.byte	0x75
 3529 013b 08       		.sleb128 8
 3530 013c 0D030000 		.long	LCFI14-Ltext0
 3531 0140 0E030000 		.long	LFE8-Ltext0
 3532 0144 0200     		.word	0x2
 3533 0146 74       		.byte	0x74
 3534 0147 04       		.sleb128 4
 3535 0148 00000000 		.long	0
 3536 014c 00000000 		.long	0
 3537              	LLST3:
 3538 0150 3C020000 		.long	LFB7-Ltext0
 3539 0154 3D020000 		.long	LCFI9-Ltext0
 3540 0158 0200     		.word	0x2
 3541 015a 74       		.byte	0x74
 3542 015b 04       		.sleb128 4
 3543 015c 3D020000 		.long	LCFI9-Ltext0
GAS LISTING C:\Users\jisu8\AppData\Local\Temp\ccKup3Lg.s 			page 87


 3544 0160 3F020000 		.long	LCFI10-Ltext0
 3545 0164 0200     		.word	0x2
 3546 0166 74       		.byte	0x74
 3547 0167 08       		.sleb128 8
 3548 0168 3F020000 		.long	LCFI10-Ltext0
 3549 016c C1020000 		.long	LCFI11-Ltext0
 3550 0170 0200     		.word	0x2
 3551 0172 75       		.byte	0x75
 3552 0173 08       		.sleb128 8
 3553 0174 C1020000 		.long	LCFI11-Ltext0
 3554 0178 C2020000 		.long	LFE7-Ltext0
 3555 017c 0200     		.word	0x2
 3556 017e 74       		.byte	0x74
 3557 017f 04       		.sleb128 4
 3558 0180 00000000 		.long	0
 3559 0184 00000000 		.long	0
 3560              	LLST2:
 3561 0188 0D020000 		.long	LFB6-Ltext0
 3562 018c 0E020000 		.long	LCFI6-Ltext0
 3563 0190 0200     		.word	0x2
 3564 0192 74       		.byte	0x74
 3565 0193 04       		.sleb128 4
 3566 0194 0E020000 		.long	LCFI6-Ltext0
 3567 0198 10020000 		.long	LCFI7-Ltext0
 3568 019c 0200     		.word	0x2
 3569 019e 74       		.byte	0x74
 3570 019f 08       		.sleb128 8
 3571 01a0 10020000 		.long	LCFI7-Ltext0
 3572 01a4 3B020000 		.long	LCFI8-Ltext0
 3573 01a8 0200     		.word	0x2
 3574 01aa 75       		.byte	0x75
 3575 01ab 08       		.sleb128 8
 3576 01ac 3B020000 		.long	LCFI8-Ltext0
 3577 01b0 3C020000 		.long	LFE6-Ltext0
 3578 01b4 0200     		.word	0x2
 3579 01b6 74       		.byte	0x74
 3580 01b7 04       		.sleb128 4
 3581 01b8 00000000 		.long	0
 3582 01bc 00000000 		.long	0
 3583              	LLST1:
 3584 01c0 D3000000 		.long	LFB5-Ltext0
 3585 01c4 D4000000 		.long	LCFI3-Ltext0
 3586 01c8 0200     		.word	0x2
 3587 01ca 74       		.byte	0x74
 3588 01cb 04       		.sleb128 4
 3589 01cc D4000000 		.long	LCFI3-Ltext0
 3590 01d0 D6000000 		.long	LCFI4-Ltext0
 3591 01d4 0200     		.word	0x2
 3592 01d6 74       		.byte	0x74
 3593 01d7 08       		.sleb128 8
 3594 01d8 D6000000 		.long	LCFI4-Ltext0
 3595 01dc 0C020000 		.long	LCFI5-Ltext0
 3596 01e0 0200     		.word	0x2
 3597 01e2 75       		.byte	0x75
 3598 01e3 08       		.sleb128 8
 3599 01e4 0C020000 		.long	LCFI5-Ltext0
 3600 01e8 0D020000 		.long	LFE5-Ltext0
GAS LISTING C:\Users\jisu8\AppData\Local\Temp\ccKup3Lg.s 			page 88


 3601 01ec 0200     		.word	0x2
 3602 01ee 74       		.byte	0x74
 3603 01ef 04       		.sleb128 4
 3604 01f0 00000000 		.long	0
 3605 01f4 00000000 		.long	0
 3606              	LLST0:
 3607 01f8 00000000 		.long	LFB4-Ltext0
 3608 01fc 01000000 		.long	LCFI0-Ltext0
 3609 0200 0200     		.word	0x2
 3610 0202 74       		.byte	0x74
 3611 0203 04       		.sleb128 4
 3612 0204 01000000 		.long	LCFI0-Ltext0
 3613 0208 03000000 		.long	LCFI1-Ltext0
 3614 020c 0200     		.word	0x2
 3615 020e 74       		.byte	0x74
 3616 020f 08       		.sleb128 8
 3617 0210 03000000 		.long	LCFI1-Ltext0
 3618 0214 D2000000 		.long	LCFI2-Ltext0
 3619 0218 0200     		.word	0x2
 3620 021a 75       		.byte	0x75
 3621 021b 08       		.sleb128 8
 3622 021c D2000000 		.long	LCFI2-Ltext0
 3623 0220 D3000000 		.long	LFE4-Ltext0
 3624 0224 0200     		.word	0x2
 3625 0226 74       		.byte	0x74
 3626 0227 04       		.sleb128 4
 3627 0228 00000000 		.long	0
 3628 022c 00000000 		.long	0
 3629              		.section	.debug_aranges,"dr"
 3630 0000 1C000000 		.long	0x1c
 3631 0004 0200     		.word	0x2
 3632 0006 00000000 		.secrel32	Ldebug_info0
 3633 000a 04       		.byte	0x4
 3634 000b 00       		.byte	0
 3635 000c 0000     		.word	0
 3636 000e 0000     		.word	0
 3637 0010 00000000 		.long	Ltext0
 3638 0014 70070000 		.long	Letext0-Ltext0
 3639 0018 00000000 		.long	0
 3640 001c 00000000 		.long	0
 3641              		.section	.debug_line,"dr"
 3642              	Ldebug_line0:
 3643 0000 3F050000 		.section	.debug_str,"dr"
 3643      02009101 
 3643      00000101 
 3643      FB0E0D00 
 3643      01010101 
 3644              	LASF3:
 3645 0000 6D617843 		.ascii "maxCodewordWidth\0"
 3645      6F646577 
 3645      6F726457 
 3645      69647468 
 3645      00
 3646              	LASF9:
 3647 0011 636F6465 		.ascii "codeword\0"
 3647      776F7264 
 3647      00
GAS LISTING C:\Users\jisu8\AppData\Local\Temp\ccKup3Lg.s 			page 89


 3648              	LASF2:
 3649 001a 6D696E43 		.ascii "minCodewordWidth\0"
 3649      6F646577 
 3649      6F726457 
 3649      69647468 
 3649      00
 3650              	LASF1:
 3651 002b 696D6167 		.ascii "image\0"
 3651      6500
 3652              	LASF4:
 3653 0031 626F756E 		.ascii "boundingBox\0"
 3653      64696E67 
 3653      426F7800 
 3654              	LASF0:
 3655 003d 5F626F75 		.ascii "_boundingBox\0"
 3655      6E64696E 
 3655      67426F78 
 3655      00
 3656              	LASF7:
 3657 004a 73746172 		.ascii "startColumn\0"
 3657      74436F6C 
 3657      756D6E00 
 3658              	LASF5:
 3659 0056 6C656674 		.ascii "leftToRight\0"
 3659      546F5269 
 3659      67687400 
 3660              	LASF8:
 3661 0062 696D6167 		.ascii "imageRow\0"
 3661      65526F77 
 3661      00
 3662              	LASF12:
 3663 006b 7072696E 		.ascii "printf\0"
 3663      746600
 3664              	LASF11:
 3665 0072 6D617843 		.ascii "maxColumn\0"
 3665      6F6C756D 
 3665      6E00
 3666              	LASF13:
 3667 007c 6D6F6475 		.ascii "moduleBitCount\0"
 3667      6C654269 
 3667      74436F75 
 3667      6E7400
 3668              	LASF10:
 3669 008b 6D696E43 		.ascii "minColumn\0"
 3669      6F6C756D 
 3669      6E00
 3670              	LASF6:
 3671 0095 696E6372 		.ascii "increment\0"
 3671      656D656E 
 3671      7400
 3672              		.ident	"GCC: (i686-posix-dwarf-rev0, Built by MinGW-W64 project) 8.1.0"
GAS LISTING C:\Users\jisu8\AppData\Local\Temp\ccKup3Lg.s 			page 90


DEFINED SYMBOLS
                            *ABS*:00000000 PDFScanningDecoder.c
C:\Users\jisu8\AppData\Local\Temp\ccKup3Lg.s:6      .rdata:00000000 _CODEWORD_SKEW_SIZE
C:\Users\jisu8\AppData\Local\Temp\ccKup3Lg.s:9      .rdata:00000004 _MAX_ERRORS
C:\Users\jisu8\AppData\Local\Temp\ccKup3Lg.s:12     .rdata:00000008 _MAX_EC_CODEWORDS
                            *COM*:00000020 _result_bits
                            *COM*:00000014 _CodeWord
C:\Users\jisu8\AppData\Local\Temp\ccKup3Lg.s:21     .text:00000000 _AdjustCodewordStartColumn
C:\Users\jisu8\AppData\Local\Temp\ccKup3Lg.s:154    .text:000000d3 _GetModuleBitCount
C:\Users\jisu8\AppData\Local\Temp\ccKup3Lg.s:317    .text:0000020d _CheckCodewordSkew
C:\Users\jisu8\AppData\Local\Temp\ccKup3Lg.s:363    .text:0000023c _GetBitCountForCodeword
C:\Users\jisu8\AppData\Local\Temp\ccKup3Lg.s:432    .text:000002c2 _GetCodewordBucketNumberRet
C:\Users\jisu8\AppData\Local\Temp\ccKup3Lg.s:490    .text:0000030e _GetCodewordBucketNumber
C:\Users\jisu8\AppData\Local\Temp\ccKup3Lg.s:518    .text:00000329 _Codeword
C:\Users\jisu8\AppData\Local\Temp\ccKup3Lg.s:557    .text:00000353 _DetectCodeword
C:\Users\jisu8\AppData\Local\Temp\ccKup3Lg.s:726    .text:000004ec _GetRowIndicatorColumn
C:\Users\jisu8\AppData\Local\Temp\ccKup3Lg.s:875    .text:00000605 _Decode

UNDEFINED SYMBOLS
_BARS_IN_MODULE
_printf
_fill
_Reduce
_reverse
_GetDecodedValue
_GetCodeword
_puts
_DetectionResultColumn
_Create
