GAS LISTING C:\Users\jisu8\AppData\Local\Temp\ccCR93IT.s 			page 1


   1              		.file	"ReadBarcode.c"
   2              		.text
   3              	Ltext0:
   5              	_DecodeHints_Init:
   6              	LFB15:
   7              		.file 1 "src/ReadBarcode.c"
   1:src/ReadBarcode.c **** /*
   2:src/ReadBarcode.c **** * Copyright 2019 Axel Waggershauser
   3:src/ReadBarcode.c **** *
   4:src/ReadBarcode.c **** * Licensed under the Apache License, Version 2.0 (the "License");
   5:src/ReadBarcode.c **** * you may not use this file except in compliance with the License.
   6:src/ReadBarcode.c **** * You may obtain a copy of the License at
   7:src/ReadBarcode.c **** *
   8:src/ReadBarcode.c **** *      http://www.apache.org/licenses/LICENSE-2.0
   9:src/ReadBarcode.c **** *
  10:src/ReadBarcode.c **** * Unless required by applicable law or agreed to in writing, software
  11:src/ReadBarcode.c **** * distributed under the License is distributed on an "AS IS" BASIS,
  12:src/ReadBarcode.c **** * WITHOUT WARRANTIES OR CONDITIONS OF ANY KIND, either express or implied.
  13:src/ReadBarcode.c **** * See the License for the specific language governing permissions and
  14:src/ReadBarcode.c **** * limitations under the License.
  15:src/ReadBarcode.c **** */
  16:src/ReadBarcode.c **** 
  17:src/ReadBarcode.c **** #include "ReadBarcode.h"
  18:src/ReadBarcode.c **** #include "MultiFormatReader.h"
  19:src/ReadBarcode.c **** ImageView_t ImageView;
  20:src/ReadBarcode.c **** DecodeHints_t DecodeHints;
  21:src/ReadBarcode.c **** GenericLuminanceSource_t GenericLuminanceSource_;
  22:src/ReadBarcode.c **** 
  23:src/ReadBarcode.c **** static void DecodeHints_Init(void);
  24:src/ReadBarcode.c **** static int PixStride(unsigned int format);  
  25:src/ReadBarcode.c **** static int RedIndex(unsigned int format);   
  26:src/ReadBarcode.c **** static int GreenIndex(unsigned int format); 
  27:src/ReadBarcode.c **** static int BlueIndex(unsigned int format);  
  28:src/ReadBarcode.c **** static void ReadBarcode_Internal(GenericLuminanceSource_t *source,const DecodeHints_t *hints);
  29:src/ReadBarcode.c **** 
  30:src/ReadBarcode.c **** unsigned int * ReadBarcode(unsigned char *iv, int width,int height, unsigned int ImageFormat)
  31:src/ReadBarcode.c **** {
  32:src/ReadBarcode.c **** 	DecodeHints_t *hints;
  33:src/ReadBarcode.c **** 	unsigned int rowStride,pixStride;
  34:src/ReadBarcode.c **** 	uint32_t idxRed,idxGreen,idxBlue;
  35:src/ReadBarcode.c **** 
  36:src/ReadBarcode.c **** 	DecodeHints_Init();
  37:src/ReadBarcode.c **** 	hints = &DecodeHints;
  38:src/ReadBarcode.c **** 
  39:src/ReadBarcode.c ****     printf("Result ReadBarcode : iv= %x", &iv);
  40:src/ReadBarcode.c **** 	printf(" hints= %x\n",hints);
  41:src/ReadBarcode.c **** 
  42:src/ReadBarcode.c **** 	pixStride = PixStride(ImageFormat);
  43:src/ReadBarcode.c **** 	rowStride = width * pixStride;
  44:src/ReadBarcode.c **** 	idxRed = RedIndex(ImageFormat);
  45:src/ReadBarcode.c **** 	idxGreen = GreenIndex(ImageFormat);
  46:src/ReadBarcode.c **** 	idxBlue = BlueIndex(ImageFormat);
  47:src/ReadBarcode.c **** 
  48:src/ReadBarcode.c ****     printf("address : %x , Width : %d , height : %d , format :  %x \n",iv,width,height,ImageFormat)
  49:src/ReadBarcode.c ****  
  50:src/ReadBarcode.c **** 	ImageView.data = GenericLuminanceSource(0, 0, width, height, iv, rowStride, pixStride, idxRed, idx
  51:src/ReadBarcode.c **** 	ImageView.width = width; 
GAS LISTING C:\Users\jisu8\AppData\Local\Temp\ccCR93IT.s 			page 2


  52:src/ReadBarcode.c **** 	ImageView.height = height;
  53:src/ReadBarcode.c **** 	ImageView.format = ImageFormat; 
  54:src/ReadBarcode.c **** 	ImageView.rowStride = rowStride; 
  55:src/ReadBarcode.c **** 	ImageView.pixStride = pixStride;
  56:src/ReadBarcode.c **** 
  57:src/ReadBarcode.c **** 	ReadBarcode_Internal(&GenericLuminanceSource_,hints);
  58:src/ReadBarcode.c **** 	
  59:src/ReadBarcode.c ****     return (&ImageView);
  60:src/ReadBarcode.c **** }
  61:src/ReadBarcode.c **** 
  62:src/ReadBarcode.c **** static void ReadBarcode_Internal(GenericLuminanceSource_t *source,const DecodeHints_t *hints)
  63:src/ReadBarcode.c **** {
  64:src/ReadBarcode.c **** 	unsigned char * ret_ptr;
  65:src/ReadBarcode.c **** 	source->pixels = ImageView.data;
  66:src/ReadBarcode.c **** 	source->left = 0;
  67:src/ReadBarcode.c **** 	source->top = 0;
  68:src/ReadBarcode.c **** 	source->width = ImageView.width;
  69:src/ReadBarcode.c **** 	source->height = ImageView.height;
  70:src/ReadBarcode.c **** 	source->rowBytes = ImageView.width;
  71:src/ReadBarcode.c **** 	printf("static Result ReadBarcode : source= %x",source);
  72:src/ReadBarcode.c **** 	printf(" hints= %x \n",hints);
  73:src/ReadBarcode.c **** 
  74:src/ReadBarcode.c **** 	ret_ptr = MultiFormatReader(source,hints);
  75:src/ReadBarcode.c **** 	return;
  76:src/ReadBarcode.c **** }
  77:src/ReadBarcode.c **** 
  78:src/ReadBarcode.c **** static void DecodeHints_Init(void)
  79:src/ReadBarcode.c **** {
   8              		.loc 1 79 1 view -0
   9              		.cfi_startproc
  80:src/ReadBarcode.c **** 	DecodeHints.tryHarder = 1;
  10              		.loc 1 80 2 view LVU1
  11              		.loc 1 80 24 is_stmt 0 view LVU2
  12 0000 C6050000 		movb	$1, _DecodeHints
  12      000001
  81:src/ReadBarcode.c **** 	DecodeHints.tryRotate = 1;
  13              		.loc 1 81 2 is_stmt 1 view LVU3
  14              		.loc 1 81 24 is_stmt 0 view LVU4
  15 0007 C6050100 		movb	$1, _DecodeHints+1
  15      000001
  82:src/ReadBarcode.c **** 	DecodeHints.isPure = 0;
  16              		.loc 1 82 2 is_stmt 1 view LVU5
  17              		.loc 1 82 21 is_stmt 0 view LVU6
  18 000e C6050200 		movb	$0, _DecodeHints+2
  18      000000
  83:src/ReadBarcode.c **** 	DecodeHints.returnCodabarStartEnd = 0;	
  19              		.loc 1 83 2 is_stmt 1 view LVU7
  20              		.loc 1 83 36 is_stmt 0 view LVU8
  21 0015 C6050300 		movb	$0, _DecodeHints+3
  21      000000
  84:src/ReadBarcode.c **** 	DecodeHints.Binarizer = LocalAverage;
  22              		.loc 1 84 2 is_stmt 1 view LVU9
  23              		.loc 1 84 24 is_stmt 0 view LVU10
  24 001c C7050400 		movl	$0, _DecodeHints+4
  24      00000000 
  24      0000
  85:src/ReadBarcode.c **** 	DecodeHints.formats = NONE;
GAS LISTING C:\Users\jisu8\AppData\Local\Temp\ccCR93IT.s 			page 3


  25              		.loc 1 85 2 is_stmt 1 view LVU11
  26              		.loc 1 85 22 is_stmt 0 view LVU12
  27 0026 C7050800 		movl	$0, _DecodeHints+8
  27      00000000 
  27      0000
  86:src/ReadBarcode.c **** }
  28              		.loc 1 86 1 view LVU13
  29 0030 C3       		ret
  30              		.cfi_endproc
  31              	LFE15:
  33              	_PixStride:
  34              	LVL0:
  35              	LFB16:
  87:src/ReadBarcode.c **** 
  88:src/ReadBarcode.c **** static int PixStride(unsigned int format)  
  89:src/ReadBarcode.c **** { 
  36              		.loc 1 89 1 is_stmt 1 view -0
  37              		.cfi_startproc
  90:src/ReadBarcode.c **** 	return ((uint32_t)(format) >> 3*8) & 0xFF; 
  38              		.loc 1 90 2 view LVU15
  39              		.loc 1 90 37 is_stmt 0 view LVU16
  40 0031 C1E818   		shrl	$24, %eax
  41              	LVL1:
  91:src/ReadBarcode.c **** }
  42              		.loc 1 91 1 view LVU17
  43 0034 C3       		ret
  44              		.cfi_endproc
  45              	LFE16:
  47              	_RedIndex:
  48              	LVL2:
  49              	LFB17:
  92:src/ReadBarcode.c **** static int RedIndex(unsigned int format)   
  93:src/ReadBarcode.c **** { 
  50              		.loc 1 93 1 is_stmt 1 view -0
  51              		.cfi_startproc
  94:src/ReadBarcode.c **** 	return ((uint32_t)(format) >> 2*8) & 0xFF; 
  52              		.loc 1 94 2 view LVU19
  53              		.loc 1 94 29 is_stmt 0 view LVU20
  54 0035 C1E810   		shrl	$16, %eax
  55              	LVL3:
  56              		.loc 1 94 37 view LVU21
  57 0038 0FB6C0   		movzbl	%al, %eax
  95:src/ReadBarcode.c **** }
  58              		.loc 1 95 1 view LVU22
  59 003b C3       		ret
  60              		.cfi_endproc
  61              	LFE17:
  63              	_GreenIndex:
  64              	LVL4:
  65              	LFB18:
  96:src/ReadBarcode.c **** static int GreenIndex(unsigned int format) 
  97:src/ReadBarcode.c **** { 
  66              		.loc 1 97 1 is_stmt 1 view -0
  67              		.cfi_startproc
  98:src/ReadBarcode.c **** 	return ((uint32_t)(format) >> 1*8) & 0xFF; 
  68              		.loc 1 98 2 view LVU24
  69              		.loc 1 98 37 is_stmt 0 view LVU25
GAS LISTING C:\Users\jisu8\AppData\Local\Temp\ccCR93IT.s 			page 4


  70 003c 0FB6C4   		movzbl	%ah, %eax
  71              	LVL5:
  99:src/ReadBarcode.c **** }
  72              		.loc 1 99 1 view LVU26
  73 003f C3       		ret
  74              		.cfi_endproc
  75              	LFE18:
  77              	_BlueIndex:
  78              	LVL6:
  79              	LFB19:
 100:src/ReadBarcode.c **** static int BlueIndex(unsigned int format)  
 101:src/ReadBarcode.c **** { 
  80              		.loc 1 101 1 is_stmt 1 view -0
  81              		.cfi_startproc
 102:src/ReadBarcode.c **** 	return ((uint32_t)(format) >> 0*8) & 0xFF; 
  82              		.loc 1 102 2 view LVU28
  83              		.loc 1 102 37 is_stmt 0 view LVU29
  84 0040 0FB6C0   		movzbl	%al, %eax
  85              	LVL7:
 103:src/ReadBarcode.c **** }
  86              		.loc 1 103 1 view LVU30
  87 0043 C3       		ret
  88              		.cfi_endproc
  89              	LFE19:
  90              		.section .rdata,"dr"
  91              		.align 4
  92              	LC0:
  93 0000 73746174 		.ascii "static Result ReadBarcode : source= %x\0"
  93      69632052 
  93      6573756C 
  93      74205265 
  93      61644261 
  94              	LC1:
  95 0027 2068696E 		.ascii " hints= %x \12\0"
  95      74733D20 
  95      2578200A 
  95      00
  96              		.text
  98              	_ReadBarcode_Internal:
  99              	LVL8:
 100              	LFB14:
  63:src/ReadBarcode.c **** 	unsigned char * ret_ptr;
 101              		.loc 1 63 1 is_stmt 1 view -0
 102              		.cfi_startproc
  63:src/ReadBarcode.c **** 	unsigned char * ret_ptr;
 103              		.loc 1 63 1 is_stmt 0 view LVU32
 104 0044 56       		pushl	%esi
 105              	LCFI0:
 106              		.cfi_def_cfa_offset 8
 107              		.cfi_offset 6, -8
 108 0045 53       		pushl	%ebx
 109              	LCFI1:
 110              		.cfi_def_cfa_offset 12
 111              		.cfi_offset 3, -12
 112 0046 83EC14   		subl	$20, %esp
 113              	LCFI2:
 114              		.cfi_def_cfa_offset 32
GAS LISTING C:\Users\jisu8\AppData\Local\Temp\ccCR93IT.s 			page 5


 115 0049 89C3     		movl	%eax, %ebx
 116 004b 89D6     		movl	%edx, %esi
  64:src/ReadBarcode.c **** 	source->pixels = ImageView.data;
 117              		.loc 1 64 2 is_stmt 1 view LVU33
  65:src/ReadBarcode.c **** 	source->left = 0;
 118              		.loc 1 65 2 view LVU34
  65:src/ReadBarcode.c **** 	source->left = 0;
 119              		.loc 1 65 28 is_stmt 0 view LVU35
 120 004d A1000000 		movl	_ImageView, %eax
 120      00
 121              	LVL9:
  65:src/ReadBarcode.c **** 	source->left = 0;
 122              		.loc 1 65 17 view LVU36
 123 0052 8903     		movl	%eax, (%ebx)
  66:src/ReadBarcode.c **** 	source->top = 0;
 124              		.loc 1 66 2 is_stmt 1 view LVU37
  66:src/ReadBarcode.c **** 	source->top = 0;
 125              		.loc 1 66 15 is_stmt 0 view LVU38
 126 0054 C7430400 		movl	$0, 4(%ebx)
 126      000000
  67:src/ReadBarcode.c **** 	source->width = ImageView.width;
 127              		.loc 1 67 2 is_stmt 1 view LVU39
  67:src/ReadBarcode.c **** 	source->width = ImageView.width;
 128              		.loc 1 67 14 is_stmt 0 view LVU40
 129 005b C7430800 		movl	$0, 8(%ebx)
 129      000000
  68:src/ReadBarcode.c **** 	source->height = ImageView.height;
 130              		.loc 1 68 2 is_stmt 1 view LVU41
  68:src/ReadBarcode.c **** 	source->height = ImageView.height;
 131              		.loc 1 68 27 is_stmt 0 view LVU42
 132 0062 A1040000 		movl	_ImageView+4, %eax
 132      00
  68:src/ReadBarcode.c **** 	source->height = ImageView.height;
 133              		.loc 1 68 16 view LVU43
 134 0067 89430C   		movl	%eax, 12(%ebx)
  69:src/ReadBarcode.c **** 	source->rowBytes = ImageView.width;
 135              		.loc 1 69 2 is_stmt 1 view LVU44
  69:src/ReadBarcode.c **** 	source->rowBytes = ImageView.width;
 136              		.loc 1 69 28 is_stmt 0 view LVU45
 137 006a 8B150800 		movl	_ImageView+8, %edx
 137      0000
 138              	LVL10:
  69:src/ReadBarcode.c **** 	source->rowBytes = ImageView.width;
 139              		.loc 1 69 17 view LVU46
 140 0070 895310   		movl	%edx, 16(%ebx)
  70:src/ReadBarcode.c **** 	printf("static Result ReadBarcode : source= %x",source);
 141              		.loc 1 70 2 is_stmt 1 view LVU47
  70:src/ReadBarcode.c **** 	printf("static Result ReadBarcode : source= %x",source);
 142              		.loc 1 70 19 is_stmt 0 view LVU48
 143 0073 894314   		movl	%eax, 20(%ebx)
  71:src/ReadBarcode.c **** 	printf(" hints= %x \n",hints);
 144              		.loc 1 71 2 is_stmt 1 view LVU49
 145 0076 895C2404 		movl	%ebx, 4(%esp)
 146 007a C7042400 		movl	$LC0, (%esp)
 146      000000
 147 0081 E8000000 		call	_printf
 147      00
GAS LISTING C:\Users\jisu8\AppData\Local\Temp\ccCR93IT.s 			page 6


 148              	LVL11:
  72:src/ReadBarcode.c **** 
 149              		.loc 1 72 2 view LVU50
 150 0086 89742404 		movl	%esi, 4(%esp)
 151 008a C7042427 		movl	$LC1, (%esp)
 151      000000
 152 0091 E8000000 		call	_printf
 152      00
 153              	LVL12:
  74:src/ReadBarcode.c **** 	return;
 154              		.loc 1 74 2 view LVU51
  74:src/ReadBarcode.c **** 	return;
 155              		.loc 1 74 12 is_stmt 0 view LVU52
 156 0096 89742404 		movl	%esi, 4(%esp)
 157 009a 891C24   		movl	%ebx, (%esp)
 158 009d E8000000 		call	_MultiFormatReader
 158      00
 159              	LVL13:
  75:src/ReadBarcode.c **** }
 160              		.loc 1 75 2 is_stmt 1 view LVU53
  76:src/ReadBarcode.c **** 
 161              		.loc 1 76 1 is_stmt 0 view LVU54
 162 00a2 83C414   		addl	$20, %esp
 163              	LCFI3:
 164              		.cfi_def_cfa_offset 12
 165 00a5 5B       		popl	%ebx
 166              	LCFI4:
 167              		.cfi_restore 3
 168              		.cfi_def_cfa_offset 8
 169              	LVL14:
  76:src/ReadBarcode.c **** 
 170              		.loc 1 76 1 view LVU55
 171 00a6 5E       		popl	%esi
 172              	LCFI5:
 173              		.cfi_restore 6
 174              		.cfi_def_cfa_offset 4
 175              	LVL15:
  76:src/ReadBarcode.c **** 
 176              		.loc 1 76 1 view LVU56
 177 00a7 C3       		ret
 178              		.cfi_endproc
 179              	LFE14:
 180              		.section .rdata,"dr"
 181              	LC2:
 182 0034 52657375 		.ascii "Result ReadBarcode : iv= %x\0"
 182      6C742052 
 182      65616442 
 182      6172636F 
 182      6465203A 
 183              	LC3:
 184 0050 2068696E 		.ascii " hints= %x\12\0"
 184      74733D20 
 184      25780A00 
 185              		.align 4
 186              	LC4:
 187 005c 61646472 		.ascii "address : %x , Width : %d , height : %d , format :  %x \12\0"
 187      65737320 
GAS LISTING C:\Users\jisu8\AppData\Local\Temp\ccCR93IT.s 			page 7


 187      3A202578 
 187      202C2057 
 187      69647468 
 188 0095 000000   		.text
 189              		.globl	_ReadBarcode
 191              	_ReadBarcode:
 192              	LVL16:
 193              	LFB13:
  31:src/ReadBarcode.c **** 	DecodeHints_t *hints;
 194              		.loc 1 31 1 is_stmt 1 view -0
 195              		.cfi_startproc
  31:src/ReadBarcode.c **** 	DecodeHints_t *hints;
 196              		.loc 1 31 1 is_stmt 0 view LVU58
 197 00a8 55       		pushl	%ebp
 198              	LCFI6:
 199              		.cfi_def_cfa_offset 8
 200              		.cfi_offset 5, -8
 201 00a9 57       		pushl	%edi
 202              	LCFI7:
 203              		.cfi_def_cfa_offset 12
 204              		.cfi_offset 7, -12
 205 00aa 56       		pushl	%esi
 206              	LCFI8:
 207              		.cfi_def_cfa_offset 16
 208              		.cfi_offset 6, -16
 209 00ab 53       		pushl	%ebx
 210              	LCFI9:
 211              		.cfi_def_cfa_offset 20
 212              		.cfi_offset 3, -20
 213 00ac 83EC4C   		subl	$76, %esp
 214              	LCFI10:
 215              		.cfi_def_cfa_offset 96
 216 00af 8B742464 		movl	100(%esp), %esi
 217 00b3 8B5C246C 		movl	108(%esp), %ebx
  32:src/ReadBarcode.c **** 	unsigned int rowStride,pixStride;
 218              		.loc 1 32 2 is_stmt 1 view LVU59
  33:src/ReadBarcode.c **** 	uint32_t idxRed,idxGreen,idxBlue;
 219              		.loc 1 33 2 view LVU60
  34:src/ReadBarcode.c **** 
 220              		.loc 1 34 2 view LVU61
  36:src/ReadBarcode.c **** 	hints = &DecodeHints;
 221              		.loc 1 36 2 view LVU62
 222 00b7 E844FFFF 		call	_DecodeHints_Init
 222      FF
 223              	LVL17:
  37:src/ReadBarcode.c **** 
 224              		.loc 1 37 2 view LVU63
  39:src/ReadBarcode.c **** 	printf(" hints= %x\n",hints);
 225              		.loc 1 39 5 view LVU64
 226 00bc 8D442460 		leal	96(%esp), %eax
 227              	LVL18:
  39:src/ReadBarcode.c **** 	printf(" hints= %x\n",hints);
 228              		.loc 1 39 5 is_stmt 0 view LVU65
 229 00c0 89442404 		movl	%eax, 4(%esp)
 230 00c4 C7042434 		movl	$LC2, (%esp)
 230      000000
 231 00cb E8000000 		call	_printf
GAS LISTING C:\Users\jisu8\AppData\Local\Temp\ccCR93IT.s 			page 8


 231      00
 232              	LVL19:
  40:src/ReadBarcode.c **** 
 233              		.loc 1 40 2 is_stmt 1 view LVU66
 234 00d0 C7442404 		movl	$_DecodeHints, 4(%esp)
 234      00000000 
 235 00d8 C7042450 		movl	$LC3, (%esp)
 235      000000
 236 00df E8000000 		call	_printf
 236      00
 237              	LVL20:
  42:src/ReadBarcode.c **** 	rowStride = width * pixStride;
 238              		.loc 1 42 2 view LVU67
  42:src/ReadBarcode.c **** 	rowStride = width * pixStride;
 239              		.loc 1 42 14 is_stmt 0 view LVU68
 240 00e4 89D8     		movl	%ebx, %eax
 241 00e6 E846FFFF 		call	_PixStride
 241      FF
 242              	LVL21:
 243 00eb 89C7     		movl	%eax, %edi
 244              	LVL22:
  43:src/ReadBarcode.c **** 	idxRed = RedIndex(ImageFormat);
 245              		.loc 1 43 2 is_stmt 1 view LVU69
  43:src/ReadBarcode.c **** 	idxRed = RedIndex(ImageFormat);
 246              		.loc 1 43 12 is_stmt 0 view LVU70
 247 00ed 89F5     		movl	%esi, %ebp
 248 00ef 0FAFE8   		imull	%eax, %ebp
 249              	LVL23:
  44:src/ReadBarcode.c **** 	idxGreen = GreenIndex(ImageFormat);
 250              		.loc 1 44 2 is_stmt 1 view LVU71
  44:src/ReadBarcode.c **** 	idxGreen = GreenIndex(ImageFormat);
 251              		.loc 1 44 11 is_stmt 0 view LVU72
 252 00f2 89D8     		movl	%ebx, %eax
 253              	LVL24:
  44:src/ReadBarcode.c **** 	idxGreen = GreenIndex(ImageFormat);
 254              		.loc 1 44 11 view LVU73
 255 00f4 E83CFFFF 		call	_RedIndex
 255      FF
 256              	LVL25:
 257 00f9 89442434 		movl	%eax, 52(%esp)
 258              	LVL26:
  45:src/ReadBarcode.c **** 	idxBlue = BlueIndex(ImageFormat);
 259              		.loc 1 45 2 is_stmt 1 view LVU74
  45:src/ReadBarcode.c **** 	idxBlue = BlueIndex(ImageFormat);
 260              		.loc 1 45 13 is_stmt 0 view LVU75
 261 00fd 89D8     		movl	%ebx, %eax
 262              	LVL27:
  45:src/ReadBarcode.c **** 	idxBlue = BlueIndex(ImageFormat);
 263              		.loc 1 45 13 view LVU76
 264 00ff E838FFFF 		call	_GreenIndex
 264      FF
 265              	LVL28:
 266 0104 89442438 		movl	%eax, 56(%esp)
 267              	LVL29:
  46:src/ReadBarcode.c **** 
 268              		.loc 1 46 2 is_stmt 1 view LVU77
  46:src/ReadBarcode.c **** 
GAS LISTING C:\Users\jisu8\AppData\Local\Temp\ccCR93IT.s 			page 9


 269              		.loc 1 46 12 is_stmt 0 view LVU78
 270 0108 89D8     		movl	%ebx, %eax
 271              	LVL30:
  46:src/ReadBarcode.c **** 
 272              		.loc 1 46 12 view LVU79
 273 010a E831FFFF 		call	_BlueIndex
 273      FF
 274              	LVL31:
 275 010f 8944243C 		movl	%eax, 60(%esp)
 276              	LVL32:
  48:src/ReadBarcode.c ****  
 277              		.loc 1 48 5 is_stmt 1 view LVU80
 278 0113 895C2410 		movl	%ebx, 16(%esp)
 279 0117 8B4C2468 		movl	104(%esp), %ecx
 280 011b 894C240C 		movl	%ecx, 12(%esp)
 281 011f 89742408 		movl	%esi, 8(%esp)
 282 0123 8B442460 		movl	96(%esp), %eax
 283              	LVL33:
  48:src/ReadBarcode.c ****  
 284              		.loc 1 48 5 is_stmt 0 view LVU81
 285 0127 89442404 		movl	%eax, 4(%esp)
 286 012b C704245C 		movl	$LC4, (%esp)
 286      000000
 287 0132 E8000000 		call	_printf
 287      00
 288              	LVL34:
  50:src/ReadBarcode.c **** 	ImageView.width = width; 
 289              		.loc 1 50 2 is_stmt 1 view LVU82
  50:src/ReadBarcode.c **** 	ImageView.width = width; 
 290              		.loc 1 50 19 is_stmt 0 view LVU83
 291 0137 8B54243C 		movl	60(%esp), %edx
 292 013b 89542424 		movl	%edx, 36(%esp)
 293 013f 8B4C2438 		movl	56(%esp), %ecx
 294 0143 894C2420 		movl	%ecx, 32(%esp)
 295 0147 8B442434 		movl	52(%esp), %eax
 296 014b 8944241C 		movl	%eax, 28(%esp)
 297 014f 897C2418 		movl	%edi, 24(%esp)
 298 0153 896C2414 		movl	%ebp, 20(%esp)
 299 0157 8B442460 		movl	96(%esp), %eax
 300 015b 89442410 		movl	%eax, 16(%esp)
 301 015f 8B442468 		movl	104(%esp), %eax
 302 0163 8944240C 		movl	%eax, 12(%esp)
 303 0167 89742408 		movl	%esi, 8(%esp)
 304 016b C7442404 		movl	$0, 4(%esp)
 304      00000000 
 305 0173 C7042400 		movl	$0, (%esp)
 305      000000
 306 017a E8000000 		call	_GenericLuminanceSource
 306      00
 307              	LVL35:
  50:src/ReadBarcode.c **** 	ImageView.width = width; 
 308              		.loc 1 50 17 view LVU84
 309 017f A3000000 		movl	%eax, _ImageView
 309      00
  51:src/ReadBarcode.c **** 	ImageView.height = height;
 310              		.loc 1 51 2 is_stmt 1 view LVU85
  51:src/ReadBarcode.c **** 	ImageView.height = height;
GAS LISTING C:\Users\jisu8\AppData\Local\Temp\ccCR93IT.s 			page 10


 311              		.loc 1 51 18 is_stmt 0 view LVU86
 312 0184 89350400 		movl	%esi, _ImageView+4
 312      0000
  52:src/ReadBarcode.c **** 	ImageView.format = ImageFormat; 
 313              		.loc 1 52 2 is_stmt 1 view LVU87
  52:src/ReadBarcode.c **** 	ImageView.format = ImageFormat; 
 314              		.loc 1 52 19 is_stmt 0 view LVU88
 315 018a 8B442468 		movl	104(%esp), %eax
 316 018e A3080000 		movl	%eax, _ImageView+8
 316      00
  53:src/ReadBarcode.c **** 	ImageView.rowStride = rowStride; 
 317              		.loc 1 53 2 is_stmt 1 view LVU89
  53:src/ReadBarcode.c **** 	ImageView.rowStride = rowStride; 
 318              		.loc 1 53 19 is_stmt 0 view LVU90
 319 0193 891D0C00 		movl	%ebx, _ImageView+12
 319      0000
  54:src/ReadBarcode.c **** 	ImageView.pixStride = pixStride;
 320              		.loc 1 54 2 is_stmt 1 view LVU91
  54:src/ReadBarcode.c **** 	ImageView.pixStride = pixStride;
 321              		.loc 1 54 22 is_stmt 0 view LVU92
 322 0199 892D1000 		movl	%ebp, _ImageView+16
 322      0000
  55:src/ReadBarcode.c **** 
 323              		.loc 1 55 2 is_stmt 1 view LVU93
  55:src/ReadBarcode.c **** 
 324              		.loc 1 55 22 is_stmt 0 view LVU94
 325 019f 893D1400 		movl	%edi, _ImageView+20
 325      0000
  57:src/ReadBarcode.c **** 	
 326              		.loc 1 57 2 is_stmt 1 view LVU95
 327 01a5 BA000000 		movl	$_DecodeHints, %edx
 327      00
 328 01aa B8000000 		movl	$_GenericLuminanceSource_, %eax
 328      00
 329 01af E890FEFF 		call	_ReadBarcode_Internal
 329      FF
 330              	LVL36:
  59:src/ReadBarcode.c **** }
 331              		.loc 1 59 5 view LVU96
  60:src/ReadBarcode.c **** 
 332              		.loc 1 60 1 is_stmt 0 view LVU97
 333 01b4 B8000000 		movl	$_ImageView, %eax
 333      00
 334 01b9 83C44C   		addl	$76, %esp
 335              	LCFI11:
 336              		.cfi_def_cfa_offset 20
 337 01bc 5B       		popl	%ebx
 338              	LCFI12:
 339              		.cfi_restore 3
 340              		.cfi_def_cfa_offset 16
 341 01bd 5E       		popl	%esi
 342              	LCFI13:
 343              		.cfi_restore 6
 344              		.cfi_def_cfa_offset 12
 345 01be 5F       		popl	%edi
 346              	LCFI14:
 347              		.cfi_restore 7
GAS LISTING C:\Users\jisu8\AppData\Local\Temp\ccCR93IT.s 			page 11


 348              		.cfi_def_cfa_offset 8
 349              	LVL37:
  60:src/ReadBarcode.c **** 
 350              		.loc 1 60 1 view LVU98
 351 01bf 5D       		popl	%ebp
 352              	LCFI15:
 353              		.cfi_restore 5
 354              		.cfi_def_cfa_offset 4
 355              	LVL38:
  60:src/ReadBarcode.c **** 
 356              		.loc 1 60 1 view LVU99
 357 01c0 C3       		ret
 358              		.cfi_endproc
 359              	LFE13:
 360              		.comm	_GenericLuminanceSource_, 24, 2
 361              		.comm	_DecodeHints, 20, 2
 362              		.comm	_ImageView, 24, 2
 363              	Letext0:
 364              		.file 2 "D:/3.tools/mingw/mingw32/i686-w64-mingw32/include/stdint.h"
 365              		.file 3 "D:/3.tools/mingw/mingw32/i686-w64-mingw32/include/stdio.h"
 366              		.file 4 "src/GenericLuminanceSource.h"
 367              		.file 5 "src/ReadBarcode.h"
 368              		.file 6 "src/BarcodeFormat.h"
 369              		.file 7 "src/DecodeHints.h"
 370              		.file 8 "src/MultiFormatReader.h"