GAS LISTING C:\Users\jisu8\AppData\Local\Temp\ccbIx97X.s 			page 1


   1              		.file	"ReadBarcode.c"
   2              		.text
   3              	Ltext0:
   5              	_DecodeHints_Init:
   6              	LFB15:
   7              		.file 1 "src/ReadBarcode.c"
   1:src/ReadBarcode.c **** /*
   2:src/ReadBarcode.c **** * Copyright 2019 Axel Waggershauser
   3:src/ReadBarcode.c **** *
   4:src/ReadBarcode.c **** * Licensed under the Apache License, Version 2.0 (the "License");
   5:src/ReadBarcode.c **** * you may not use this file except in compliance with the License.
   6:src/ReadBarcode.c **** * You may obtain a copy of the License at
   7:src/ReadBarcode.c **** *
   8:src/ReadBarcode.c **** *      http://www.apache.org/licenses/LICENSE-2.0
   9:src/ReadBarcode.c **** *
  10:src/ReadBarcode.c **** * Unless required by applicable law or agreed to in writing, software
  11:src/ReadBarcode.c **** * distributed under the License is distributed on an "AS IS" BASIS,
  12:src/ReadBarcode.c **** * WITHOUT WARRANTIES OR CONDITIONS OF ANY KIND, either express or implied.
  13:src/ReadBarcode.c **** * See the License for the specific language governing permissions and
  14:src/ReadBarcode.c **** * limitations under the License.
  15:src/ReadBarcode.c **** */
  16:src/ReadBarcode.c **** 
  17:src/ReadBarcode.c **** #include "ReadBarcode.h"
  18:src/ReadBarcode.c **** 
  19:src/ReadBarcode.c **** ImageView_t ImageView;
  20:src/ReadBarcode.c **** DecodeHints_t DecodeHints;
  21:src/ReadBarcode.c **** GenericLuminanceSource_t GenericLuminanceSource_;
  22:src/ReadBarcode.c **** 
  23:src/ReadBarcode.c **** static void DecodeHints_Init(void);
  24:src/ReadBarcode.c **** static int PixStride(unsigned int format);  
  25:src/ReadBarcode.c **** static int RedIndex(unsigned int format);   
  26:src/ReadBarcode.c **** static int GreenIndex(unsigned int format); 
  27:src/ReadBarcode.c **** static int BlueIndex(unsigned int format);  
  28:src/ReadBarcode.c **** static void ReadBarcode_Internal(GenericLuminanceSource_t *source,const DecodeHints_t *hints);
  29:src/ReadBarcode.c **** 
  30:src/ReadBarcode.c **** unsigned int * ReadBarcode(unsigned char *iv, int width,int height, unsigned int ImageFormat)
  31:src/ReadBarcode.c **** {
  32:src/ReadBarcode.c **** 	DecodeHints_t *hints;
  33:src/ReadBarcode.c **** 	unsigned int rowStride,pixStride;
  34:src/ReadBarcode.c **** 	uint32_t idxRed,idxGreen,idxBlue;
  35:src/ReadBarcode.c **** 
  36:src/ReadBarcode.c **** 	DecodeHints_Init();
  37:src/ReadBarcode.c **** 	hints = &DecodeHints;
  38:src/ReadBarcode.c **** 
  39:src/ReadBarcode.c ****     printf("Result ReadBarcode : iv= %x", &iv);
  40:src/ReadBarcode.c **** 	printf(" hints= %x\n",hints);
  41:src/ReadBarcode.c **** 
  42:src/ReadBarcode.c **** 	pixStride = PixStride(ImageFormat);
  43:src/ReadBarcode.c **** 	rowStride = width * pixStride;
  44:src/ReadBarcode.c **** 	idxRed = RedIndex(ImageFormat);
  45:src/ReadBarcode.c **** 	idxGreen = GreenIndex(ImageFormat);
  46:src/ReadBarcode.c **** 	idxBlue = BlueIndex(ImageFormat);
  47:src/ReadBarcode.c **** 
  48:src/ReadBarcode.c ****     printf("address : %x , Width : %d , height : %d , format :  %x \n",iv,width,height,ImageFormat)
  49:src/ReadBarcode.c ****  
  50:src/ReadBarcode.c **** 	ImageView.data = GenericLuminanceSource(0, 0, width, height, iv, rowStride, pixStride, idxRed, idx
  51:src/ReadBarcode.c **** 	ImageView.width = width; 
GAS LISTING C:\Users\jisu8\AppData\Local\Temp\ccbIx97X.s 			page 2


  52:src/ReadBarcode.c **** 	ImageView.height = height;
  53:src/ReadBarcode.c **** 	ImageView.format = ImageFormat; 
  54:src/ReadBarcode.c **** 	ImageView.rowStride = rowStride; 
  55:src/ReadBarcode.c **** 	ImageView.pixStride = pixStride;
  56:src/ReadBarcode.c **** 
  57:src/ReadBarcode.c **** 	ReadBarcode_Internal(&GenericLuminanceSource_,hints);
  58:src/ReadBarcode.c **** 	
  59:src/ReadBarcode.c ****     return (&ImageView);
  60:src/ReadBarcode.c **** }
  61:src/ReadBarcode.c **** 
  62:src/ReadBarcode.c **** static void ReadBarcode_Internal(GenericLuminanceSource_t *source,const DecodeHints_t *hints)
  63:src/ReadBarcode.c **** {
  64:src/ReadBarcode.c **** 	source->pixels = ImageView.data;
  65:src/ReadBarcode.c **** 	source->left = 0;
  66:src/ReadBarcode.c **** 	source->top = 0;
  67:src/ReadBarcode.c **** 	source->width = ImageView.width;
  68:src/ReadBarcode.c **** 	source->height = ImageView.height;
  69:src/ReadBarcode.c **** 	source->rowBytes = ImageView.width;
  70:src/ReadBarcode.c **** 	printf("static Result ReadBarcode : source= %x",source);
  71:src/ReadBarcode.c **** 	printf(" hints= %x \n",hints);
  72:src/ReadBarcode.c **** 
  73:src/ReadBarcode.c **** }
  74:src/ReadBarcode.c **** 
  75:src/ReadBarcode.c **** static void DecodeHints_Init(void)
  76:src/ReadBarcode.c **** {
   8              		.loc 1 76 1 view -0
   9              		.cfi_startproc
  77:src/ReadBarcode.c **** 	DecodeHints.tryHarder = 1;
  10              		.loc 1 77 2 view LVU1
  78:src/ReadBarcode.c **** 	DecodeHints.tryRotate = 1;
  11              		.loc 1 78 2 view LVU2
  12              		.loc 1 78 24 is_stmt 0 view LVU3
  13 0000 0FB60500 		movzbl	_DecodeHints, %eax
  13      000000
  14 0007 83C803   		orl	$3, %eax
  79:src/ReadBarcode.c **** 	DecodeHints.isPure = 0;
  15              		.loc 1 79 2 is_stmt 1 view LVU4
  80:src/ReadBarcode.c **** 	DecodeHints.returnCodabarStartEnd = 0;
  16              		.loc 1 80 2 view LVU5
  17              		.loc 1 80 36 is_stmt 0 view LVU6
  18 000a 83E0F3   		andl	$-13, %eax
  19 000d A2000000 		movb	%al, _DecodeHints
  19      00
  81:src/ReadBarcode.c **** }
  20              		.loc 1 81 1 view LVU7
  21 0012 C3       		ret
  22              		.cfi_endproc
  23              	LFE15:
  25              	_PixStride:
  26              	LVL0:
  27              	LFB16:
  82:src/ReadBarcode.c **** 
  83:src/ReadBarcode.c **** static int PixStride(unsigned int format)  
  84:src/ReadBarcode.c **** { 
  28              		.loc 1 84 1 is_stmt 1 view -0
  29              		.cfi_startproc
  85:src/ReadBarcode.c **** 	return ((uint32_t)(format) >> 3*8) & 0xFF; 
GAS LISTING C:\Users\jisu8\AppData\Local\Temp\ccbIx97X.s 			page 3


  30              		.loc 1 85 2 view LVU9
  31              		.loc 1 85 37 is_stmt 0 view LVU10
  32 0013 C1E818   		shrl	$24, %eax
  33              	LVL1:
  86:src/ReadBarcode.c **** }
  34              		.loc 1 86 1 view LVU11
  35 0016 C3       		ret
  36              		.cfi_endproc
  37              	LFE16:
  39              	_RedIndex:
  40              	LVL2:
  41              	LFB17:
  87:src/ReadBarcode.c **** static int RedIndex(unsigned int format)   
  88:src/ReadBarcode.c **** { 
  42              		.loc 1 88 1 is_stmt 1 view -0
  43              		.cfi_startproc
  89:src/ReadBarcode.c **** 	return ((uint32_t)(format) >> 2*8) & 0xFF; 
  44              		.loc 1 89 2 view LVU13
  45              		.loc 1 89 29 is_stmt 0 view LVU14
  46 0017 C1E810   		shrl	$16, %eax
  47              	LVL3:
  48              		.loc 1 89 37 view LVU15
  49 001a 0FB6C0   		movzbl	%al, %eax
  90:src/ReadBarcode.c **** }
  50              		.loc 1 90 1 view LVU16
  51 001d C3       		ret
  52              		.cfi_endproc
  53              	LFE17:
  55              	_GreenIndex:
  56              	LVL4:
  57              	LFB18:
  91:src/ReadBarcode.c **** static int GreenIndex(unsigned int format) 
  92:src/ReadBarcode.c **** { 
  58              		.loc 1 92 1 is_stmt 1 view -0
  59              		.cfi_startproc
  93:src/ReadBarcode.c **** 	return ((uint32_t)(format) >> 1*8) & 0xFF; 
  60              		.loc 1 93 2 view LVU18
  61              		.loc 1 93 37 is_stmt 0 view LVU19
  62 001e 0FB6C4   		movzbl	%ah, %eax
  63              	LVL5:
  94:src/ReadBarcode.c **** }
  64              		.loc 1 94 1 view LVU20
  65 0021 C3       		ret
  66              		.cfi_endproc
  67              	LFE18:
  69              	_BlueIndex:
  70              	LVL6:
  71              	LFB19:
  95:src/ReadBarcode.c **** static int BlueIndex(unsigned int format)  
  96:src/ReadBarcode.c **** { 
  72              		.loc 1 96 1 is_stmt 1 view -0
  73              		.cfi_startproc
  97:src/ReadBarcode.c **** 	return ((uint32_t)(format) >> 0*8) & 0xFF; 
  74              		.loc 1 97 2 view LVU22
  75              		.loc 1 97 37 is_stmt 0 view LVU23
  76 0022 0FB6C0   		movzbl	%al, %eax
  77              	LVL7:
GAS LISTING C:\Users\jisu8\AppData\Local\Temp\ccbIx97X.s 			page 4


  98:src/ReadBarcode.c **** }
  78              		.loc 1 98 1 view LVU24
  79 0025 C3       		ret
  80              		.cfi_endproc
  81              	LFE19:
  82              		.section .rdata,"dr"
  83              		.align 4
  84              	LC0:
  85 0000 73746174 		.ascii "static Result ReadBarcode : source= %x\0"
  85      69632052 
  85      6573756C 
  85      74205265 
  85      61644261 
  86              	LC1:
  87 0027 2068696E 		.ascii " hints= %x \12\0"
  87      74733D20 
  87      2578200A 
  87      00
  88              		.text
  90              	_ReadBarcode_Internal:
  91              	LVL8:
  92              	LFB14:
  63:src/ReadBarcode.c **** 	source->pixels = ImageView.data;
  93              		.loc 1 63 1 is_stmt 1 view -0
  94              		.cfi_startproc
  63:src/ReadBarcode.c **** 	source->pixels = ImageView.data;
  95              		.loc 1 63 1 is_stmt 0 view LVU26
  96 0026 53       		pushl	%ebx
  97              	LCFI0:
  98              		.cfi_def_cfa_offset 8
  99              		.cfi_offset 3, -8
 100 0027 83EC18   		subl	$24, %esp
 101              	LCFI1:
 102              		.cfi_def_cfa_offset 32
 103 002a 89D3     		movl	%edx, %ebx
  64:src/ReadBarcode.c **** 	source->left = 0;
 104              		.loc 1 64 2 is_stmt 1 view LVU27
  64:src/ReadBarcode.c **** 	source->left = 0;
 105              		.loc 1 64 28 is_stmt 0 view LVU28
 106 002c 8B150000 		movl	_ImageView, %edx
 106      0000
 107              	LVL9:
  64:src/ReadBarcode.c **** 	source->left = 0;
 108              		.loc 1 64 17 view LVU29
 109 0032 8910     		movl	%edx, (%eax)
  65:src/ReadBarcode.c **** 	source->top = 0;
 110              		.loc 1 65 2 is_stmt 1 view LVU30
  65:src/ReadBarcode.c **** 	source->top = 0;
 111              		.loc 1 65 15 is_stmt 0 view LVU31
 112 0034 C7400400 		movl	$0, 4(%eax)
 112      000000
  66:src/ReadBarcode.c **** 	source->width = ImageView.width;
 113              		.loc 1 66 2 is_stmt 1 view LVU32
  66:src/ReadBarcode.c **** 	source->width = ImageView.width;
 114              		.loc 1 66 14 is_stmt 0 view LVU33
 115 003b C7400800 		movl	$0, 8(%eax)
 115      000000
GAS LISTING C:\Users\jisu8\AppData\Local\Temp\ccbIx97X.s 			page 5


  67:src/ReadBarcode.c **** 	source->height = ImageView.height;
 116              		.loc 1 67 2 is_stmt 1 view LVU34
  67:src/ReadBarcode.c **** 	source->height = ImageView.height;
 117              		.loc 1 67 27 is_stmt 0 view LVU35
 118 0042 8B150400 		movl	_ImageView+4, %edx
 118      0000
  67:src/ReadBarcode.c **** 	source->height = ImageView.height;
 119              		.loc 1 67 16 view LVU36
 120 0048 89500C   		movl	%edx, 12(%eax)
  68:src/ReadBarcode.c **** 	source->rowBytes = ImageView.width;
 121              		.loc 1 68 2 is_stmt 1 view LVU37
  68:src/ReadBarcode.c **** 	source->rowBytes = ImageView.width;
 122              		.loc 1 68 28 is_stmt 0 view LVU38
 123 004b 8B0D0800 		movl	_ImageView+8, %ecx
 123      0000
  68:src/ReadBarcode.c **** 	source->rowBytes = ImageView.width;
 124              		.loc 1 68 17 view LVU39
 125 0051 894810   		movl	%ecx, 16(%eax)
  69:src/ReadBarcode.c **** 	printf("static Result ReadBarcode : source= %x",source);
 126              		.loc 1 69 2 is_stmt 1 view LVU40
  69:src/ReadBarcode.c **** 	printf("static Result ReadBarcode : source= %x",source);
 127              		.loc 1 69 19 is_stmt 0 view LVU41
 128 0054 895014   		movl	%edx, 20(%eax)
  70:src/ReadBarcode.c **** 	printf(" hints= %x \n",hints);
 129              		.loc 1 70 2 is_stmt 1 view LVU42
 130 0057 89442404 		movl	%eax, 4(%esp)
 131 005b C7042400 		movl	$LC0, (%esp)
 131      000000
 132 0062 E8000000 		call	_printf
 132      00
 133              	LVL10:
  71:src/ReadBarcode.c **** 
 134              		.loc 1 71 2 view LVU43
 135 0067 895C2404 		movl	%ebx, 4(%esp)
 136 006b C7042427 		movl	$LC1, (%esp)
 136      000000
 137 0072 E8000000 		call	_printf
 137      00
 138              	LVL11:
  73:src/ReadBarcode.c **** 
 139              		.loc 1 73 1 is_stmt 0 view LVU44
 140 0077 83C418   		addl	$24, %esp
 141              	LCFI2:
 142              		.cfi_def_cfa_offset 8
 143 007a 5B       		popl	%ebx
 144              	LCFI3:
 145              		.cfi_restore 3
 146              		.cfi_def_cfa_offset 4
 147              	LVL12:
  73:src/ReadBarcode.c **** 
 148              		.loc 1 73 1 view LVU45
 149 007b C3       		ret
 150              		.cfi_endproc
 151              	LFE14:
 152              		.section .rdata,"dr"
 153              	LC2:
 154 0034 52657375 		.ascii "Result ReadBarcode : iv= %x\0"
GAS LISTING C:\Users\jisu8\AppData\Local\Temp\ccbIx97X.s 			page 6


 154      6C742052 
 154      65616442 
 154      6172636F 
 154      6465203A 
 155              	LC3:
 156 0050 2068696E 		.ascii " hints= %x\12\0"
 156      74733D20 
 156      25780A00 
 157              		.align 4
 158              	LC4:
 159 005c 61646472 		.ascii "address : %x , Width : %d , height : %d , format :  %x \12\0"
 159      65737320 
 159      3A202578 
 159      202C2057 
 159      69647468 
 160 0095 000000   		.text
 161              		.globl	_ReadBarcode
 163              	_ReadBarcode:
 164              	LVL13:
 165              	LFB13:
  31:src/ReadBarcode.c **** 	DecodeHints_t *hints;
 166              		.loc 1 31 1 is_stmt 1 view -0
 167              		.cfi_startproc
  31:src/ReadBarcode.c **** 	DecodeHints_t *hints;
 168              		.loc 1 31 1 is_stmt 0 view LVU47
 169 007c 55       		pushl	%ebp
 170              	LCFI4:
 171              		.cfi_def_cfa_offset 8
 172              		.cfi_offset 5, -8
 173 007d 57       		pushl	%edi
 174              	LCFI5:
 175              		.cfi_def_cfa_offset 12
 176              		.cfi_offset 7, -12
 177 007e 56       		pushl	%esi
 178              	LCFI6:
 179              		.cfi_def_cfa_offset 16
 180              		.cfi_offset 6, -16
 181 007f 53       		pushl	%ebx
 182              	LCFI7:
 183              		.cfi_def_cfa_offset 20
 184              		.cfi_offset 3, -20
 185 0080 83EC4C   		subl	$76, %esp
 186              	LCFI8:
 187              		.cfi_def_cfa_offset 96
 188 0083 8B742464 		movl	100(%esp), %esi
 189 0087 8B5C246C 		movl	108(%esp), %ebx
  32:src/ReadBarcode.c **** 	unsigned int rowStride,pixStride;
 190              		.loc 1 32 2 is_stmt 1 view LVU48
  33:src/ReadBarcode.c **** 	uint32_t idxRed,idxGreen,idxBlue;
 191              		.loc 1 33 2 view LVU49
  34:src/ReadBarcode.c **** 
 192              		.loc 1 34 2 view LVU50
  36:src/ReadBarcode.c **** 	hints = &DecodeHints;
 193              		.loc 1 36 2 view LVU51
 194 008b E870FFFF 		call	_DecodeHints_Init
 194      FF
 195              	LVL14:
GAS LISTING C:\Users\jisu8\AppData\Local\Temp\ccbIx97X.s 			page 7


  37:src/ReadBarcode.c **** 
 196              		.loc 1 37 2 view LVU52
  39:src/ReadBarcode.c **** 	printf(" hints= %x\n",hints);
 197              		.loc 1 39 5 view LVU53
 198 0090 8D442460 		leal	96(%esp), %eax
 199              	LVL15:
  39:src/ReadBarcode.c **** 	printf(" hints= %x\n",hints);
 200              		.loc 1 39 5 is_stmt 0 view LVU54
 201 0094 89442404 		movl	%eax, 4(%esp)
 202 0098 C7042434 		movl	$LC2, (%esp)
 202      000000
 203 009f E8000000 		call	_printf
 203      00
 204              	LVL16:
  40:src/ReadBarcode.c **** 
 205              		.loc 1 40 2 is_stmt 1 view LVU55
 206 00a4 C7442404 		movl	$_DecodeHints, 4(%esp)
 206      00000000 
 207 00ac C7042450 		movl	$LC3, (%esp)
 207      000000
 208 00b3 E8000000 		call	_printf
 208      00
 209              	LVL17:
  42:src/ReadBarcode.c **** 	rowStride = width * pixStride;
 210              		.loc 1 42 2 view LVU56
  42:src/ReadBarcode.c **** 	rowStride = width * pixStride;
 211              		.loc 1 42 14 is_stmt 0 view LVU57
 212 00b8 89D8     		movl	%ebx, %eax
 213 00ba E854FFFF 		call	_PixStride
 213      FF
 214              	LVL18:
 215 00bf 89C7     		movl	%eax, %edi
 216              	LVL19:
  43:src/ReadBarcode.c **** 	idxRed = RedIndex(ImageFormat);
 217              		.loc 1 43 2 is_stmt 1 view LVU58
  43:src/ReadBarcode.c **** 	idxRed = RedIndex(ImageFormat);
 218              		.loc 1 43 12 is_stmt 0 view LVU59
 219 00c1 89F5     		movl	%esi, %ebp
 220 00c3 0FAFE8   		imull	%eax, %ebp
 221              	LVL20:
  44:src/ReadBarcode.c **** 	idxGreen = GreenIndex(ImageFormat);
 222              		.loc 1 44 2 is_stmt 1 view LVU60
  44:src/ReadBarcode.c **** 	idxGreen = GreenIndex(ImageFormat);
 223              		.loc 1 44 11 is_stmt 0 view LVU61
 224 00c6 89D8     		movl	%ebx, %eax
 225              	LVL21:
  44:src/ReadBarcode.c **** 	idxGreen = GreenIndex(ImageFormat);
 226              		.loc 1 44 11 view LVU62
 227 00c8 E84AFFFF 		call	_RedIndex
 227      FF
 228              	LVL22:
 229 00cd 89442434 		movl	%eax, 52(%esp)
 230              	LVL23:
  45:src/ReadBarcode.c **** 	idxBlue = BlueIndex(ImageFormat);
 231              		.loc 1 45 2 is_stmt 1 view LVU63
  45:src/ReadBarcode.c **** 	idxBlue = BlueIndex(ImageFormat);
 232              		.loc 1 45 13 is_stmt 0 view LVU64
GAS LISTING C:\Users\jisu8\AppData\Local\Temp\ccbIx97X.s 			page 8


 233 00d1 89D8     		movl	%ebx, %eax
 234              	LVL24:
  45:src/ReadBarcode.c **** 	idxBlue = BlueIndex(ImageFormat);
 235              		.loc 1 45 13 view LVU65
 236 00d3 E846FFFF 		call	_GreenIndex
 236      FF
 237              	LVL25:
 238 00d8 89442438 		movl	%eax, 56(%esp)
 239              	LVL26:
  46:src/ReadBarcode.c **** 
 240              		.loc 1 46 2 is_stmt 1 view LVU66
  46:src/ReadBarcode.c **** 
 241              		.loc 1 46 12 is_stmt 0 view LVU67
 242 00dc 89D8     		movl	%ebx, %eax
 243              	LVL27:
  46:src/ReadBarcode.c **** 
 244              		.loc 1 46 12 view LVU68
 245 00de E83FFFFF 		call	_BlueIndex
 245      FF
 246              	LVL28:
 247 00e3 8944243C 		movl	%eax, 60(%esp)
 248              	LVL29:
  48:src/ReadBarcode.c ****  
 249              		.loc 1 48 5 is_stmt 1 view LVU69
 250 00e7 895C2410 		movl	%ebx, 16(%esp)
 251 00eb 8B4C2468 		movl	104(%esp), %ecx
 252 00ef 894C240C 		movl	%ecx, 12(%esp)
 253 00f3 89742408 		movl	%esi, 8(%esp)
 254 00f7 8B442460 		movl	96(%esp), %eax
 255              	LVL30:
  48:src/ReadBarcode.c ****  
 256              		.loc 1 48 5 is_stmt 0 view LVU70
 257 00fb 89442404 		movl	%eax, 4(%esp)
 258 00ff C704245C 		movl	$LC4, (%esp)
 258      000000
 259 0106 E8000000 		call	_printf
 259      00
 260              	LVL31:
  50:src/ReadBarcode.c **** 	ImageView.width = width; 
 261              		.loc 1 50 2 is_stmt 1 view LVU71
  50:src/ReadBarcode.c **** 	ImageView.width = width; 
 262              		.loc 1 50 19 is_stmt 0 view LVU72
 263 010b 8B54243C 		movl	60(%esp), %edx
 264 010f 89542424 		movl	%edx, 36(%esp)
 265 0113 8B4C2438 		movl	56(%esp), %ecx
 266 0117 894C2420 		movl	%ecx, 32(%esp)
 267 011b 8B442434 		movl	52(%esp), %eax
 268 011f 8944241C 		movl	%eax, 28(%esp)
 269 0123 897C2418 		movl	%edi, 24(%esp)
 270 0127 896C2414 		movl	%ebp, 20(%esp)
 271 012b 8B442460 		movl	96(%esp), %eax
 272 012f 89442410 		movl	%eax, 16(%esp)
 273 0133 8B442468 		movl	104(%esp), %eax
 274 0137 8944240C 		movl	%eax, 12(%esp)
 275 013b 89742408 		movl	%esi, 8(%esp)
 276 013f C7442404 		movl	$0, 4(%esp)
 276      00000000 
GAS LISTING C:\Users\jisu8\AppData\Local\Temp\ccbIx97X.s 			page 9


 277 0147 C7042400 		movl	$0, (%esp)
 277      000000
 278 014e E8000000 		call	_GenericLuminanceSource
 278      00
 279              	LVL32:
  50:src/ReadBarcode.c **** 	ImageView.width = width; 
 280              		.loc 1 50 17 view LVU73
 281 0153 A3000000 		movl	%eax, _ImageView
 281      00
  51:src/ReadBarcode.c **** 	ImageView.height = height;
 282              		.loc 1 51 2 is_stmt 1 view LVU74
  51:src/ReadBarcode.c **** 	ImageView.height = height;
 283              		.loc 1 51 18 is_stmt 0 view LVU75
 284 0158 89350400 		movl	%esi, _ImageView+4
 284      0000
  52:src/ReadBarcode.c **** 	ImageView.format = ImageFormat; 
 285              		.loc 1 52 2 is_stmt 1 view LVU76
  52:src/ReadBarcode.c **** 	ImageView.format = ImageFormat; 
 286              		.loc 1 52 19 is_stmt 0 view LVU77
 287 015e 8B442468 		movl	104(%esp), %eax
 288 0162 A3080000 		movl	%eax, _ImageView+8
 288      00
  53:src/ReadBarcode.c **** 	ImageView.rowStride = rowStride; 
 289              		.loc 1 53 2 is_stmt 1 view LVU78
  53:src/ReadBarcode.c **** 	ImageView.rowStride = rowStride; 
 290              		.loc 1 53 19 is_stmt 0 view LVU79
 291 0167 891D0C00 		movl	%ebx, _ImageView+12
 291      0000
  54:src/ReadBarcode.c **** 	ImageView.pixStride = pixStride;
 292              		.loc 1 54 2 is_stmt 1 view LVU80
  54:src/ReadBarcode.c **** 	ImageView.pixStride = pixStride;
 293              		.loc 1 54 22 is_stmt 0 view LVU81
 294 016d 892D1000 		movl	%ebp, _ImageView+16
 294      0000
  55:src/ReadBarcode.c **** 
 295              		.loc 1 55 2 is_stmt 1 view LVU82
  55:src/ReadBarcode.c **** 
 296              		.loc 1 55 22 is_stmt 0 view LVU83
 297 0173 893D1400 		movl	%edi, _ImageView+20
 297      0000
  57:src/ReadBarcode.c **** 	
 298              		.loc 1 57 2 is_stmt 1 view LVU84
 299 0179 BA000000 		movl	$_DecodeHints, %edx
 299      00
 300 017e B8000000 		movl	$_GenericLuminanceSource_, %eax
 300      00
 301 0183 E89EFEFF 		call	_ReadBarcode_Internal
 301      FF
 302              	LVL33:
  59:src/ReadBarcode.c **** }
 303              		.loc 1 59 5 view LVU85
  60:src/ReadBarcode.c **** 
 304              		.loc 1 60 1 is_stmt 0 view LVU86
 305 0188 B8000000 		movl	$_ImageView, %eax
 305      00
 306 018d 83C44C   		addl	$76, %esp
 307              	LCFI9:
GAS LISTING C:\Users\jisu8\AppData\Local\Temp\ccbIx97X.s 			page 10


 308              		.cfi_def_cfa_offset 20
 309 0190 5B       		popl	%ebx
 310              	LCFI10:
 311              		.cfi_restore 3
 312              		.cfi_def_cfa_offset 16
 313 0191 5E       		popl	%esi
 314              	LCFI11:
 315              		.cfi_restore 6
 316              		.cfi_def_cfa_offset 12
 317 0192 5F       		popl	%edi
 318              	LCFI12:
 319              		.cfi_restore 7
 320              		.cfi_def_cfa_offset 8
 321              	LVL34:
  60:src/ReadBarcode.c **** 
 322              		.loc 1 60 1 view LVU87
 323 0193 5D       		popl	%ebp
 324              	LCFI13:
 325              		.cfi_restore 5
 326              		.cfi_def_cfa_offset 4
 327              	LVL35:
  60:src/ReadBarcode.c **** 
 328              		.loc 1 60 1 view LVU88
 329 0194 C3       		ret
 330              		.cfi_endproc
 331              	LFE13:
 332              		.comm	_GenericLuminanceSource_, 24, 2
 333              		.comm	_DecodeHints, 8, 2
 334              		.comm	_ImageView, 24, 2
 335              	Letext0:
 336              		.file 2 "D:/3.tools/mingw/mingw32/i686-w64-mingw32/include/stdint.h"
 337              		.file 3 "D:/3.tools/mingw/mingw32/i686-w64-mingw32/include/stdio.h"
 338              		.file 4 "src/GenericLuminanceSource.h"
 339              		.file 5 "src/DecodeHints.h"
 340              		.file 6 "src/ReadBarcode.h"
 341 0195 909090   		.section	.debug_info,"dr"
 342              	Ldebug_info0:
 343 0000 0D090000 		.long	0x90d
 344 0004 0200     		.word	0x2
 345 0006 00000000 		.secrel32	Ldebug_abbrev0
 346 000a 04       		.byte	0x4
 347 000b 01       		.uleb128 0x1
 348 000c 474E5520 		.ascii "GNU C17 8.1.0 -mtune=generic -march=i686 -g -gdwarf-2 -Og\0"
 348      43313720 
 348      382E312E 
 348      30202D6D 
 348      74756E65 
 349 0046 0C       		.byte	0xc
 350 0047 7372632F 		.ascii "src/ReadBarcode.c\0"
 350      52656164 
 350      42617263 
 350      6F64652E 
 350      6300
 351 0059 443A5C31 		.ascii "D:\\1.Project_workspace\\PDF_BARCODE\0"
 351      2E50726F 
 351      6A656374 
 351      5F776F72 
GAS LISTING C:\Users\jisu8\AppData\Local\Temp\ccbIx97X.s 			page 11


 351      6B737061 
 352 007c 00000000 		.long	Ltext0
 353 0080 95010000 		.long	Letext0
 354 0084 00000000 		.secrel32	Ldebug_line0
 355 0088 02       		.uleb128 0x2
 356 0089 01       		.byte	0x1
 357 008a 06       		.byte	0x6
 358 008b 63686172 		.ascii "char\0"
 358      00
 359 0090 02       		.uleb128 0x2
 360 0091 04       		.byte	0x4
 361 0092 07       		.byte	0x7
 362 0093 756E7369 		.ascii "unsigned int\0"
 362      676E6564 
 362      20696E74 
 362      00
 363 00a0 02       		.uleb128 0x2
 364 00a1 04       		.byte	0x4
 365 00a2 05       		.byte	0x5
 366 00a3 696E7400 		.ascii "int\0"
 367 00a7 02       		.uleb128 0x2
 368 00a8 02       		.byte	0x2
 369 00a9 07       		.byte	0x7
 370 00aa 73686F72 		.ascii "short unsigned int\0"
 370      7420756E 
 370      7369676E 
 370      65642069 
 370      6E7400
 371 00bd 02       		.uleb128 0x2
 372 00be 04       		.byte	0x4
 373 00bf 05       		.byte	0x5
 374 00c0 6C6F6E67 		.ascii "long int\0"
 374      20696E74 
 374      00
 375 00c9 02       		.uleb128 0x2
 376 00ca 08       		.byte	0x8
 377 00cb 05       		.byte	0x5
 378 00cc 6C6F6E67 		.ascii "long long int\0"
 378      206C6F6E 
 378      6720696E 
 378      7400
 379 00da 03       		.uleb128 0x3
 380 00db 04       		.byte	0x4
 381 00dc 88000000 		.long	0x88
 382 00e0 02       		.uleb128 0x2
 383 00e1 04       		.byte	0x4
 384 00e2 07       		.byte	0x7
 385 00e3 6C6F6E67 		.ascii "long unsigned int\0"
 385      20756E73 
 385      69676E65 
 385      6420696E 
 385      7400
 386 00f5 02       		.uleb128 0x2
 387 00f6 01       		.byte	0x1
 388 00f7 08       		.byte	0x8
 389 00f8 756E7369 		.ascii "unsigned char\0"
 389      676E6564 
GAS LISTING C:\Users\jisu8\AppData\Local\Temp\ccbIx97X.s 			page 12


 389      20636861 
 389      7200
 390 0106 02       		.uleb128 0x2
 391 0107 0C       		.byte	0xc
 392 0108 04       		.byte	0x4
 393 0109 6C6F6E67 		.ascii "long double\0"
 393      20646F75 
 393      626C6500 
 394 0115 02       		.uleb128 0x2
 395 0116 10       		.byte	0x10
 396 0117 04       		.byte	0x4
 397 0118 5F466C6F 		.ascii "_Float128\0"
 397      61743132 
 397      3800
 398 0122 02       		.uleb128 0x2
 399 0123 01       		.byte	0x1
 400 0124 06       		.byte	0x6
 401 0125 7369676E 		.ascii "signed char\0"
 401      65642063 
 401      68617200 
 402 0131 04       		.uleb128 0x4
 403 0132 75696E74 		.ascii "uint8_t\0"
 403      385F7400 
 404 013a 02       		.byte	0x2
 405 013b 24       		.byte	0x24
 406 013c 19       		.byte	0x19
 407 013d F5000000 		.long	0xf5
 408 0141 05       		.uleb128 0x5
 409 0142 31010000 		.long	0x131
 410 0146 02       		.uleb128 0x2
 411 0147 02       		.byte	0x2
 412 0148 05       		.byte	0x5
 413 0149 73686F72 		.ascii "short int\0"
 413      7420696E 
 413      7400
 414 0153 04       		.uleb128 0x4
 415 0154 75696E74 		.ascii "uint32_t\0"
 415      33325F74 
 415      00
 416 015d 02       		.byte	0x2
 417 015e 28       		.byte	0x28
 418 015f 14       		.byte	0x14
 419 0160 90000000 		.long	0x90
 420 0164 02       		.uleb128 0x2
 421 0165 08       		.byte	0x8
 422 0166 07       		.byte	0x7
 423 0167 6C6F6E67 		.ascii "long long unsigned int\0"
 423      206C6F6E 
 423      6720756E 
 423      7369676E 
 423      65642069 
 424 017e 06       		.uleb128 0x6
 425 017f 5F696F62 		.ascii "_iobuf\0"
 425      756600
 426 0186 20       		.byte	0x20
 427 0187 03       		.byte	0x3
 428 0188 1A       		.byte	0x1a
GAS LISTING C:\Users\jisu8\AppData\Local\Temp\ccbIx97X.s 			page 13


 429 0189 0A       		.byte	0xa
 430 018a 1E020000 		.long	0x21e
 431 018e 07       		.uleb128 0x7
 432 018f 5F707472 		.ascii "_ptr\0"
 432      00
 433 0194 03       		.byte	0x3
 434 0195 1B       		.byte	0x1b
 435 0196 0B       		.byte	0xb
 436 0197 DA000000 		.long	0xda
 437 019b 02       		.byte	0x2
 438 019c 23       		.byte	0x23
 439 019d 00       		.uleb128 0
 440 019e 07       		.uleb128 0x7
 441 019f 5F636E74 		.ascii "_cnt\0"
 441      00
 442 01a4 03       		.byte	0x3
 443 01a5 1C       		.byte	0x1c
 444 01a6 09       		.byte	0x9
 445 01a7 A0000000 		.long	0xa0
 446 01ab 02       		.byte	0x2
 447 01ac 23       		.byte	0x23
 448 01ad 04       		.uleb128 0x4
 449 01ae 07       		.uleb128 0x7
 450 01af 5F626173 		.ascii "_base\0"
 450      6500
 451 01b5 03       		.byte	0x3
 452 01b6 1D       		.byte	0x1d
 453 01b7 0B       		.byte	0xb
 454 01b8 DA000000 		.long	0xda
 455 01bc 02       		.byte	0x2
 456 01bd 23       		.byte	0x23
 457 01be 08       		.uleb128 0x8
 458 01bf 07       		.uleb128 0x7
 459 01c0 5F666C61 		.ascii "_flag\0"
 459      6700
 460 01c6 03       		.byte	0x3
 461 01c7 1E       		.byte	0x1e
 462 01c8 09       		.byte	0x9
 463 01c9 A0000000 		.long	0xa0
 464 01cd 02       		.byte	0x2
 465 01ce 23       		.byte	0x23
 466 01cf 0C       		.uleb128 0xc
 467 01d0 07       		.uleb128 0x7
 468 01d1 5F66696C 		.ascii "_file\0"
 468      6500
 469 01d7 03       		.byte	0x3
 470 01d8 1F       		.byte	0x1f
 471 01d9 09       		.byte	0x9
 472 01da A0000000 		.long	0xa0
 473 01de 02       		.byte	0x2
 474 01df 23       		.byte	0x23
 475 01e0 10       		.uleb128 0x10
 476 01e1 07       		.uleb128 0x7
 477 01e2 5F636861 		.ascii "_charbuf\0"
 477      72627566 
 477      00
 478 01eb 03       		.byte	0x3
GAS LISTING C:\Users\jisu8\AppData\Local\Temp\ccbIx97X.s 			page 14


 479 01ec 20       		.byte	0x20
 480 01ed 09       		.byte	0x9
 481 01ee A0000000 		.long	0xa0
 482 01f2 02       		.byte	0x2
 483 01f3 23       		.byte	0x23
 484 01f4 14       		.uleb128 0x14
 485 01f5 07       		.uleb128 0x7
 486 01f6 5F627566 		.ascii "_bufsiz\0"
 486      73697A00 
 487 01fe 03       		.byte	0x3
 488 01ff 21       		.byte	0x21
 489 0200 09       		.byte	0x9
 490 0201 A0000000 		.long	0xa0
 491 0205 02       		.byte	0x2
 492 0206 23       		.byte	0x23
 493 0207 18       		.uleb128 0x18
 494 0208 07       		.uleb128 0x7
 495 0209 5F746D70 		.ascii "_tmpfname\0"
 495      666E616D 
 495      6500
 496 0213 03       		.byte	0x3
 497 0214 22       		.byte	0x22
 498 0215 0B       		.byte	0xb
 499 0216 DA000000 		.long	0xda
 500 021a 02       		.byte	0x2
 501 021b 23       		.byte	0x23
 502 021c 1C       		.uleb128 0x1c
 503 021d 00       		.byte	0
 504 021e 04       		.uleb128 0x4
 505 021f 46494C45 		.ascii "FILE\0"
 505      00
 506 0224 03       		.byte	0x3
 507 0225 24       		.byte	0x24
 508 0226 19       		.byte	0x19
 509 0227 7E010000 		.long	0x17e
 510 022b 08       		.uleb128 0x8
 511 022c 1E020000 		.long	0x21e
 512 0230 36020000 		.long	0x236
 513 0234 09       		.uleb128 0x9
 514 0235 00       		.byte	0
 515 0236 0A       		.uleb128 0xa
 516 0237 5F696D70 		.ascii "_imp___iob\0"
 516      5F5F5F69 
 516      6F6200
 517 0242 03       		.byte	0x3
 518 0243 5C       		.byte	0x5c
 519 0244 10       		.byte	0x10
 520 0245 4B020000 		.long	0x24b
 521 0249 01       		.byte	0x1
 522 024a 01       		.byte	0x1
 523 024b 03       		.uleb128 0x3
 524 024c 04       		.byte	0x4
 525 024d 2B020000 		.long	0x22b
 526 0251 0B       		.uleb128 0xb
 527 0252 18       		.byte	0x18
 528 0253 04       		.byte	0x4
 529 0254 01       		.byte	0x1
GAS LISTING C:\Users\jisu8\AppData\Local\Temp\ccbIx97X.s 			page 15


 530 0255 09       		.byte	0x9
 531 0256 C0020000 		.long	0x2c0
 532 025a 07       		.uleb128 0x7
 533 025b 70697865 		.ascii "pixels\0"
 533      6C7300
 534 0262 04       		.byte	0x4
 535 0263 03       		.byte	0x3
 536 0264 15       		.byte	0x15
 537 0265 C0020000 		.long	0x2c0
 538 0269 02       		.byte	0x2
 539 026a 23       		.byte	0x23
 540 026b 00       		.uleb128 0
 541 026c 07       		.uleb128 0x7
 542 026d 6C656674 		.ascii "left\0"
 542      00
 543 0272 04       		.byte	0x4
 544 0273 04       		.byte	0x4
 545 0274 09       		.byte	0x9
 546 0275 A0000000 		.long	0xa0
 547 0279 02       		.byte	0x2
 548 027a 23       		.byte	0x23
 549 027b 04       		.uleb128 0x4
 550 027c 07       		.uleb128 0x7
 551 027d 746F7000 		.ascii "top\0"
 552 0281 04       		.byte	0x4
 553 0282 05       		.byte	0x5
 554 0283 09       		.byte	0x9
 555 0284 A0000000 		.long	0xa0
 556 0288 02       		.byte	0x2
 557 0289 23       		.byte	0x23
 558 028a 08       		.uleb128 0x8
 559 028b 07       		.uleb128 0x7
 560 028c 77696474 		.ascii "width\0"
 560      6800
 561 0292 04       		.byte	0x4
 562 0293 06       		.byte	0x6
 563 0294 09       		.byte	0x9
 564 0295 A0000000 		.long	0xa0
 565 0299 02       		.byte	0x2
 566 029a 23       		.byte	0x23
 567 029b 0C       		.uleb128 0xc
 568 029c 0C       		.uleb128 0xc
 569 029d 23000000 		.secrel32	LASF0
 570 02a1 04       		.byte	0x4
 571 02a2 07       		.byte	0x7
 572 02a3 09       		.byte	0x9
 573 02a4 A0000000 		.long	0xa0
 574 02a8 02       		.byte	0x2
 575 02a9 23       		.byte	0x23
 576 02aa 10       		.uleb128 0x10
 577 02ab 07       		.uleb128 0x7
 578 02ac 726F7742 		.ascii "rowBytes\0"
 578      79746573 
 578      00
 579 02b5 04       		.byte	0x4
 580 02b6 08       		.byte	0x8
 581 02b7 09       		.byte	0x9
GAS LISTING C:\Users\jisu8\AppData\Local\Temp\ccbIx97X.s 			page 16


 582 02b8 A0000000 		.long	0xa0
 583 02bc 02       		.byte	0x2
 584 02bd 23       		.byte	0x23
 585 02be 14       		.uleb128 0x14
 586 02bf 00       		.byte	0
 587 02c0 03       		.uleb128 0x3
 588 02c1 04       		.byte	0x4
 589 02c2 F5000000 		.long	0xf5
 590 02c6 04       		.uleb128 0x4
 591 02c7 47656E65 		.ascii "GenericLuminanceSource_t\0"
 591      7269634C 
 591      756D696E 
 591      616E6365 
 591      536F7572 
 592 02e0 04       		.byte	0x4
 593 02e1 09       		.byte	0x9
 594 02e2 02       		.byte	0x2
 595 02e3 51020000 		.long	0x251
 596 02e7 0D       		.uleb128 0xd
 597 02e8 07       		.byte	0x7
 598 02e9 04       		.byte	0x4
 599 02ea 90000000 		.long	0x90
 600 02ee 05       		.byte	0x5
 601 02ef 06       		.byte	0x6
 602 02f0 01       		.byte	0x1
 603 02f1 0E030000 		.long	0x30e
 604 02f5 0E       		.uleb128 0xe
 605 02f6 3B000000 		.secrel32	LASF1
 606 02fa 00       		.byte	0
 607 02fb 0F       		.uleb128 0xf
 608 02fc 476C6F62 		.ascii "GlobalHistogram\0"
 608      616C4869 
 608      73746F67 
 608      72616D00 
 609 030c 01       		.byte	0x1
 610 030d 00       		.byte	0
 611 030e 04       		.uleb128 0x4
 612 030f 42696E61 		.ascii "Binarizer_t\0"
 612      72697A65 
 612      725F7400 
 613 031b 05       		.byte	0x5
 614 031c 09       		.byte	0x9
 615 031d 02       		.byte	0x2
 616 031e E7020000 		.long	0x2e7
 617 0322 10       		.uleb128 0x10
 618 0323 17000000 		.secrel32	LASF2
 619 0327 08       		.byte	0x8
 620 0328 05       		.byte	0x5
 621 0329 0B       		.byte	0xb
 622 032a 10       		.byte	0x10
 623 032b A8030000 		.long	0x3a8
 624 032f 11       		.uleb128 0x11
 625 0330 74727948 		.ascii "tryHarder\0"
 625      61726465 
 625      7200
 626 033a 05       		.byte	0x5
 627 033b 0D       		.byte	0xd
GAS LISTING C:\Users\jisu8\AppData\Local\Temp\ccbIx97X.s 			page 17


 628 033c 0A       		.byte	0xa
 629 033d 31010000 		.long	0x131
 630 0341 01       		.byte	0x1
 631 0342 01       		.byte	0x1
 632 0343 07       		.byte	0x7
 633 0344 02       		.byte	0x2
 634 0345 23       		.byte	0x23
 635 0346 00       		.uleb128 0
 636 0347 11       		.uleb128 0x11
 637 0348 74727952 		.ascii "tryRotate\0"
 637      6F746174 
 637      6500
 638 0352 05       		.byte	0x5
 639 0353 0E       		.byte	0xe
 640 0354 0A       		.byte	0xa
 641 0355 31010000 		.long	0x131
 642 0359 01       		.byte	0x1
 643 035a 01       		.byte	0x1
 644 035b 06       		.byte	0x6
 645 035c 02       		.byte	0x2
 646 035d 23       		.byte	0x23
 647 035e 00       		.uleb128 0
 648 035f 11       		.uleb128 0x11
 649 0360 69735075 		.ascii "isPure\0"
 649      726500
 650 0367 05       		.byte	0x5
 651 0368 0F       		.byte	0xf
 652 0369 0A       		.byte	0xa
 653 036a 31010000 		.long	0x131
 654 036e 01       		.byte	0x1
 655 036f 01       		.byte	0x1
 656 0370 05       		.byte	0x5
 657 0371 02       		.byte	0x2
 658 0372 23       		.byte	0x23
 659 0373 00       		.uleb128 0
 660 0374 11       		.uleb128 0x11
 661 0375 72657475 		.ascii "returnCodabarStartEnd\0"
 661      726E436F 
 661      64616261 
 661      72537461 
 661      7274456E 
 662 038b 05       		.byte	0x5
 663 038c 10       		.byte	0x10
 664 038d 0A       		.byte	0xa
 665 038e 31010000 		.long	0x131
 666 0392 01       		.byte	0x1
 667 0393 01       		.byte	0x1
 668 0394 04       		.byte	0x4
 669 0395 02       		.byte	0x2
 670 0396 23       		.byte	0x23
 671 0397 00       		.uleb128 0
 672 0398 0C       		.uleb128 0xc
 673 0399 3B000000 		.secrel32	LASF1
 674 039d 05       		.byte	0x5
 675 039e 11       		.byte	0x11
 676 039f 0E       		.byte	0xe
 677 03a0 0E030000 		.long	0x30e
GAS LISTING C:\Users\jisu8\AppData\Local\Temp\ccbIx97X.s 			page 18


 678 03a4 02       		.byte	0x2
 679 03a5 23       		.byte	0x23
 680 03a6 04       		.uleb128 0x4
 681 03a7 00       		.byte	0
 682 03a8 04       		.uleb128 0x4
 683 03a9 4465636F 		.ascii "DecodeHints_t\0"
 683      64654869 
 683      6E74735F 
 683      7400
 684 03b7 05       		.byte	0x5
 685 03b8 12       		.byte	0x12
 686 03b9 02       		.byte	0x2
 687 03ba 22030000 		.long	0x322
 688 03be 05       		.uleb128 0x5
 689 03bf A8030000 		.long	0x3a8
 690 03c3 0D       		.uleb128 0xd
 691 03c4 07       		.byte	0x7
 692 03c5 04       		.byte	0x4
 693 03c6 90000000 		.long	0x90
 694 03ca 06       		.byte	0x6
 695 03cb 06       		.byte	0x6
 696 03cc 01       		.byte	0x1
 697 03cd 1C040000 		.long	0x41c
 698 03d1 0F       		.uleb128 0xf
 699 03d2 4E6F6E65 		.ascii "None\0"
 699      00
 700 03d7 00       		.byte	0
 701 03d8 12       		.uleb128 0x12
 702 03d9 4C756D00 		.ascii "Lum\0"
 703 03dd 00000001 		.long	0x1000000
 704 03e1 12       		.uleb128 0x12
 705 03e2 52474200 		.ascii "RGB\0"
 706 03e6 02010003 		.long	0x3000102
 707 03ea 12       		.uleb128 0x12
 708 03eb 42475200 		.ascii "BGR\0"
 709 03ef 00010203 		.long	0x3020100
 710 03f3 12       		.uleb128 0x12
 711 03f4 52474258 		.ascii "RGBX\0"
 711      00
 712 03f9 02010004 		.long	0x4000102
 713 03fd 12       		.uleb128 0x12
 714 03fe 58524742 		.ascii "XRGB\0"
 714      00
 715 0403 03020104 		.long	0x4010203
 716 0407 12       		.uleb128 0x12
 717 0408 42475258 		.ascii "BGRX\0"
 717      00
 718 040d 00010204 		.long	0x4020100
 719 0411 12       		.uleb128 0x12
 720 0412 58424752 		.ascii "XBGR\0"
 720      00
 721 0417 01020304 		.long	0x4030201
 722 041b 00       		.byte	0
 723 041c 04       		.uleb128 0x4
 724 041d 496D6167 		.ascii "ImageFormat_t\0"
 724      65466F72 
 724      6D61745F 
GAS LISTING C:\Users\jisu8\AppData\Local\Temp\ccbIx97X.s 			page 19


 724      7400
 725 042b 06       		.byte	0x6
 726 042c 0F       		.byte	0xf
 727 042d 02       		.byte	0x2
 728 042e C3030000 		.long	0x3c3
 729 0432 0B       		.uleb128 0xb
 730 0433 18       		.byte	0x18
 731 0434 06       		.byte	0x6
 732 0435 11       		.byte	0x11
 733 0436 09       		.byte	0x9
 734 0437 99040000 		.long	0x499
 735 043b 07       		.uleb128 0x7
 736 043c 64617461 		.ascii "data\0"
 736      00
 737 0441 06       		.byte	0x6
 738 0442 13       		.byte	0x13
 739 0443 11       		.byte	0x11
 740 0444 99040000 		.long	0x499
 741 0448 02       		.byte	0x2
 742 0449 23       		.byte	0x23
 743 044a 00       		.uleb128 0
 744 044b 07       		.uleb128 0x7
 745 044c 77696474 		.ascii "width\0"
 745      6800
 746 0452 06       		.byte	0x6
 747 0453 14       		.byte	0x14
 748 0454 06       		.byte	0x6
 749 0455 A0000000 		.long	0xa0
 750 0459 02       		.byte	0x2
 751 045a 23       		.byte	0x23
 752 045b 04       		.uleb128 0x4
 753 045c 0C       		.uleb128 0xc
 754 045d 23000000 		.secrel32	LASF0
 755 0461 06       		.byte	0x6
 756 0462 15       		.byte	0x15
 757 0463 06       		.byte	0x6
 758 0464 A0000000 		.long	0xa0
 759 0468 02       		.byte	0x2
 760 0469 23       		.byte	0x23
 761 046a 08       		.uleb128 0x8
 762 046b 0C       		.uleb128 0xc
 763 046c 2A000000 		.secrel32	LASF3
 764 0470 06       		.byte	0x6
 765 0471 16       		.byte	0x16
 766 0472 10       		.byte	0x10
 767 0473 1C040000 		.long	0x41c
 768 0477 02       		.byte	0x2
 769 0478 23       		.byte	0x23
 770 0479 0C       		.uleb128 0xc
 771 047a 0C       		.uleb128 0xc
 772 047b 48000000 		.secrel32	LASF4
 773 047f 06       		.byte	0x6
 774 0480 17       		.byte	0x17
 775 0481 06       		.byte	0x6
 776 0482 A0000000 		.long	0xa0
 777 0486 02       		.byte	0x2
 778 0487 23       		.byte	0x23
GAS LISTING C:\Users\jisu8\AppData\Local\Temp\ccbIx97X.s 			page 20


 779 0488 10       		.uleb128 0x10
 780 0489 0C       		.uleb128 0xc
 781 048a 31000000 		.secrel32	LASF5
 782 048e 06       		.byte	0x6
 783 048f 18       		.byte	0x18
 784 0490 06       		.byte	0x6
 785 0491 A0000000 		.long	0xa0
 786 0495 02       		.byte	0x2
 787 0496 23       		.byte	0x23
 788 0497 14       		.uleb128 0x14
 789 0498 00       		.byte	0
 790 0499 03       		.uleb128 0x3
 791 049a 04       		.byte	0x4
 792 049b 41010000 		.long	0x141
 793 049f 04       		.uleb128 0x4
 794 04a0 496D6167 		.ascii "ImageView_t\0"
 794      65566965 
 794      775F7400 
 795 04ac 06       		.byte	0x6
 796 04ad 19       		.byte	0x19
 797 04ae 02       		.byte	0x2
 798 04af 32040000 		.long	0x432
 799 04b3 13       		.uleb128 0x13
 800 04b4 496D6167 		.ascii "ImageView\0"
 800      65566965 
 800      7700
 801 04be 01       		.byte	0x1
 802 04bf 13       		.byte	0x13
 803 04c0 0D       		.byte	0xd
 804 04c1 9F040000 		.long	0x49f
 805 04c5 01       		.byte	0x1
 806 04c6 05       		.byte	0x5
 807 04c7 03       		.byte	0x3
 808 04c8 00000000 		.long	_ImageView
 809 04cc 14       		.uleb128 0x14
 810 04cd 17000000 		.secrel32	LASF2
 811 04d1 01       		.byte	0x1
 812 04d2 14       		.byte	0x14
 813 04d3 0F       		.byte	0xf
 814 04d4 A8030000 		.long	0x3a8
 815 04d8 01       		.byte	0x1
 816 04d9 05       		.byte	0x5
 817 04da 03       		.byte	0x3
 818 04db 00000000 		.long	_DecodeHints
 819 04df 13       		.uleb128 0x13
 820 04e0 47656E65 		.ascii "GenericLuminanceSource_\0"
 820      7269634C 
 820      756D696E 
 820      616E6365 
 820      536F7572 
 821 04f8 01       		.byte	0x1
 822 04f9 15       		.byte	0x15
 823 04fa 1A       		.byte	0x1a
 824 04fb C6020000 		.long	0x2c6
 825 04ff 01       		.byte	0x1
 826 0500 05       		.byte	0x5
 827 0501 03       		.byte	0x3
GAS LISTING C:\Users\jisu8\AppData\Local\Temp\ccbIx97X.s 			page 21


 828 0502 00000000 		.long	_GenericLuminanceSource_
 829 0506 15       		.uleb128 0x15
 830 0507 426C7565 		.ascii "BlueIndex\0"
 830      496E6465 
 830      7800
 831 0511 01       		.byte	0x1
 832 0512 5F       		.byte	0x5f
 833 0513 0C       		.byte	0xc
 834 0514 01       		.byte	0x1
 835 0515 A0000000 		.long	0xa0
 836 0519 22000000 		.long	LFB19
 837 051d 26000000 		.long	LFE19
 838 0521 02       		.byte	0x2
 839 0522 74       		.byte	0x74
 840 0523 04       		.sleb128 4
 841 0524 01       		.byte	0x1
 842 0525 3E050000 		.long	0x53e
 843 0529 16       		.uleb128 0x16
 844 052a 2A000000 		.secrel32	LASF3
 845 052e 01       		.byte	0x1
 846 052f 5F       		.byte	0x5f
 847 0530 23       		.byte	0x23
 848 0531 90000000 		.long	0x90
 849 0535 04000000 		.secrel32	LLST3
 850 0539 00000000 		.secrel32	LVUS3
 851 053d 00       		.byte	0
 852 053e 15       		.uleb128 0x15
 853 053f 47726565 		.ascii "GreenIndex\0"
 853      6E496E64 
 853      657800
 854 054a 01       		.byte	0x1
 855 054b 5B       		.byte	0x5b
 856 054c 0C       		.byte	0xc
 857 054d 01       		.byte	0x1
 858 054e A0000000 		.long	0xa0
 859 0552 1E000000 		.long	LFB18
 860 0556 22000000 		.long	LFE18
 861 055a 02       		.byte	0x2
 862 055b 74       		.byte	0x74
 863 055c 04       		.sleb128 4
 864 055d 01       		.byte	0x1
 865 055e 77050000 		.long	0x577
 866 0562 16       		.uleb128 0x16
 867 0563 2A000000 		.secrel32	LASF3
 868 0567 01       		.byte	0x1
 869 0568 5B       		.byte	0x5b
 870 0569 24       		.byte	0x24
 871 056a 90000000 		.long	0x90
 872 056e 29000000 		.secrel32	LLST2
 873 0572 25000000 		.secrel32	LVUS2
 874 0576 00       		.byte	0
 875 0577 15       		.uleb128 0x15
 876 0578 52656449 		.ascii "RedIndex\0"
 876      6E646578 
 876      00
 877 0581 01       		.byte	0x1
 878 0582 57       		.byte	0x57
GAS LISTING C:\Users\jisu8\AppData\Local\Temp\ccbIx97X.s 			page 22


 879 0583 0C       		.byte	0xc
 880 0584 01       		.byte	0x1
 881 0585 A0000000 		.long	0xa0
 882 0589 17000000 		.long	LFB17
 883 058d 1E000000 		.long	LFE17
 884 0591 02       		.byte	0x2
 885 0592 74       		.byte	0x74
 886 0593 04       		.sleb128 4
 887 0594 01       		.byte	0x1
 888 0595 AE050000 		.long	0x5ae
 889 0599 16       		.uleb128 0x16
 890 059a 2A000000 		.secrel32	LASF3
 891 059e 01       		.byte	0x1
 892 059f 57       		.byte	0x57
 893 05a0 22       		.byte	0x22
 894 05a1 90000000 		.long	0x90
 895 05a5 4E000000 		.secrel32	LLST1
 896 05a9 4A000000 		.secrel32	LVUS1
 897 05ad 00       		.byte	0
 898 05ae 15       		.uleb128 0x15
 899 05af 50697853 		.ascii "PixStride\0"
 899      74726964 
 899      6500
 900 05b9 01       		.byte	0x1
 901 05ba 53       		.byte	0x53
 902 05bb 0C       		.byte	0xc
 903 05bc 01       		.byte	0x1
 904 05bd A0000000 		.long	0xa0
 905 05c1 13000000 		.long	LFB16
 906 05c5 17000000 		.long	LFE16
 907 05c9 02       		.byte	0x2
 908 05ca 74       		.byte	0x74
 909 05cb 04       		.sleb128 4
 910 05cc 01       		.byte	0x1
 911 05cd E6050000 		.long	0x5e6
 912 05d1 16       		.uleb128 0x16
 913 05d2 2A000000 		.secrel32	LASF3
 914 05d6 01       		.byte	0x1
 915 05d7 53       		.byte	0x53
 916 05d8 23       		.byte	0x23
 917 05d9 90000000 		.long	0x90
 918 05dd 73000000 		.secrel32	LLST0
 919 05e1 6F000000 		.secrel32	LVUS0
 920 05e5 00       		.byte	0
 921 05e6 17       		.uleb128 0x17
 922 05e7 4465636F 		.ascii "DecodeHints_Init\0"
 922      64654869 
 922      6E74735F 
 922      496E6974 
 922      00
 923 05f8 01       		.byte	0x1
 924 05f9 4B       		.byte	0x4b
 925 05fa 0D       		.byte	0xd
 926 05fb 01       		.byte	0x1
 927 05fc 00000000 		.long	LFB15
 928 0600 13000000 		.long	LFE15
 929 0604 02       		.byte	0x2
GAS LISTING C:\Users\jisu8\AppData\Local\Temp\ccbIx97X.s 			page 23


 930 0605 74       		.byte	0x74
 931 0606 04       		.sleb128 4
 932 0607 01       		.byte	0x1
 933 0608 18       		.uleb128 0x18
 934 0609 52656164 		.ascii "ReadBarcode_Internal\0"
 934      42617263 
 934      6F64655F 
 934      496E7465 
 934      726E616C 
 935 061e 01       		.byte	0x1
 936 061f 3E       		.byte	0x3e
 937 0620 0D       		.byte	0xd
 938 0621 01       		.byte	0x1
 939 0622 26000000 		.long	LFB14
 940 0626 7C000000 		.long	LFE14
 941 062a 94000000 		.secrel32	LLST4
 942 062e 01       		.byte	0x1
 943 062f 9C060000 		.long	0x69c
 944 0633 19       		.uleb128 0x19
 945 0634 736F7572 		.ascii "source\0"
 945      636500
 946 063b 01       		.byte	0x1
 947 063c 3E       		.byte	0x3e
 948 063d 3C       		.byte	0x3c
 949 063e 9C060000 		.long	0x69c
 950 0642 DC000000 		.secrel32	LLST5
 951 0646 D8000000 		.secrel32	LVUS5
 952 064a 19       		.uleb128 0x19
 953 064b 68696E74 		.ascii "hints\0"
 953      7300
 954 0651 01       		.byte	0x1
 955 0652 3E       		.byte	0x3e
 956 0653 58       		.byte	0x58
 957 0654 A2060000 		.long	0x6a2
 958 0658 03010000 		.secrel32	LLST6
 959 065c FD000000 		.secrel32	LVUS6
 960 0660 1A       		.uleb128 0x1a
 961 0661 67000000 		.long	LVL10
 962 0665 ED080000 		.long	0x8ed
 963 0669 80060000 		.long	0x680
 964 066d 1B       		.uleb128 0x1b
 965 066e 02       		.byte	0x2
 966 066f 74       		.byte	0x74
 967 0670 00       		.sleb128 0
 968 0671 05       		.byte	0x5
 969 0672 03       		.byte	0x3
 970 0673 00000000 		.long	LC0
 971 0677 1B       		.uleb128 0x1b
 972 0678 02       		.byte	0x2
 973 0679 74       		.byte	0x74
 974 067a 04       		.sleb128 4
 975 067b 03       		.byte	0x3
 976 067c F3       		.byte	0xf3
 977 067d 01       		.uleb128 0x1
 978 067e 50       		.byte	0x50
 979 067f 00       		.byte	0
 980 0680 1C       		.uleb128 0x1c
GAS LISTING C:\Users\jisu8\AppData\Local\Temp\ccbIx97X.s 			page 24


 981 0681 77000000 		.long	LVL11
 982 0685 ED080000 		.long	0x8ed
 983 0689 1B       		.uleb128 0x1b
 984 068a 02       		.byte	0x2
 985 068b 74       		.byte	0x74
 986 068c 00       		.sleb128 0
 987 068d 05       		.byte	0x5
 988 068e 03       		.byte	0x3
 989 068f 27000000 		.long	LC1
 990 0693 1B       		.uleb128 0x1b
 991 0694 02       		.byte	0x2
 992 0695 74       		.byte	0x74
 993 0696 04       		.sleb128 4
 994 0697 02       		.byte	0x2
 995 0698 73       		.byte	0x73
 996 0699 00       		.sleb128 0
 997 069a 00       		.byte	0
 998 069b 00       		.byte	0
 999 069c 03       		.uleb128 0x3
 1000 069d 04       		.byte	0x4
 1001 069e C6020000 		.long	0x2c6
 1002 06a2 03       		.uleb128 0x3
 1003 06a3 04       		.byte	0x4
 1004 06a4 BE030000 		.long	0x3be
 1005 06a8 1D       		.uleb128 0x1d
 1006 06a9 01       		.byte	0x1
 1007 06aa 52656164 		.ascii "ReadBarcode\0"
 1007      42617263 
 1007      6F646500 
 1008 06b6 01       		.byte	0x1
 1009 06b7 1E       		.byte	0x1e
 1010 06b8 10       		.byte	0x10
 1011 06b9 01       		.byte	0x1
 1012 06ba E1080000 		.long	0x8e1
 1013 06be 7C000000 		.long	LFB13
 1014 06c2 95010000 		.long	LFE13
 1015 06c6 2F010000 		.secrel32	LLST7
 1016 06ca 01       		.byte	0x1
 1017 06cb E1080000 		.long	0x8e1
 1018 06cf 19       		.uleb128 0x19
 1019 06d0 697600   		.ascii "iv\0"
 1020 06d3 01       		.byte	0x1
 1021 06d4 1E       		.byte	0x1e
 1022 06d5 2B       		.byte	0x2b
 1023 06d6 C0020000 		.long	0x2c0
 1024 06da BE010000 		.secrel32	LLST8
 1025 06de BC010000 		.secrel32	LVUS8
 1026 06e2 19       		.uleb128 0x19
 1027 06e3 77696474 		.ascii "width\0"
 1027      6800
 1028 06e9 01       		.byte	0x1
 1029 06ea 1E       		.byte	0x1e
 1030 06eb 33       		.byte	0x33
 1031 06ec A0000000 		.long	0xa0
 1032 06f0 D8010000 		.secrel32	LLST9
 1033 06f4 D2010000 		.secrel32	LVUS9
 1034 06f8 16       		.uleb128 0x16
GAS LISTING C:\Users\jisu8\AppData\Local\Temp\ccbIx97X.s 			page 25


 1035 06f9 23000000 		.secrel32	LASF0
 1036 06fd 01       		.byte	0x1
 1037 06fe 1E       		.byte	0x1e
 1038 06ff 3D       		.byte	0x3d
 1039 0700 A0000000 		.long	0xa0
 1040 0704 0A020000 		.secrel32	LLST10
 1041 0708 04020000 		.secrel32	LVUS10
 1042 070c 19       		.uleb128 0x19
 1043 070d 496D6167 		.ascii "ImageFormat\0"
 1043      65466F72 
 1043      6D617400 
 1044 0719 01       		.byte	0x1
 1045 071a 1E       		.byte	0x1e
 1046 071b 52       		.byte	0x52
 1047 071c 90000000 		.long	0x90
 1048 0720 3C020000 		.secrel32	LLST11
 1049 0724 36020000 		.secrel32	LVUS11
 1050 0728 1E       		.uleb128 0x1e
 1051 0729 68696E74 		.ascii "hints\0"
 1051      7300
 1052 072f 01       		.byte	0x1
 1053 0730 20       		.byte	0x20
 1054 0731 11       		.byte	0x11
 1055 0732 E7080000 		.long	0x8e7
 1056 0736 06       		.byte	0x6
 1057 0737 03       		.byte	0x3
 1058 0738 00000000 		.long	_DecodeHints
 1059 073c 9F       		.byte	0x9f
 1060 073d 1F       		.uleb128 0x1f
 1061 073e 48000000 		.secrel32	LASF4
 1062 0742 01       		.byte	0x1
 1063 0743 21       		.byte	0x21
 1064 0744 0F       		.byte	0xf
 1065 0745 90000000 		.long	0x90
 1066 0749 6A020000 		.secrel32	LLST12
 1067 074d 68020000 		.secrel32	LVUS12
 1068 0751 1F       		.uleb128 0x1f
 1069 0752 31000000 		.secrel32	LASF5
 1070 0756 01       		.byte	0x1
 1071 0757 21       		.byte	0x21
 1072 0758 19       		.byte	0x19
 1073 0759 90000000 		.long	0x90
 1074 075d 81020000 		.secrel32	LLST13
 1075 0761 7D020000 		.secrel32	LVUS13
 1076 0765 20       		.uleb128 0x20
 1077 0766 69647852 		.ascii "idxRed\0"
 1077      656400
 1078 076d 01       		.byte	0x1
 1079 076e 22       		.byte	0x22
 1080 076f 0B       		.byte	0xb
 1081 0770 53010000 		.long	0x153
 1082 0774 A3020000 		.secrel32	LLST14
 1083 0778 9F020000 		.secrel32	LVUS14
 1084 077c 20       		.uleb128 0x20
 1085 077d 69647847 		.ascii "idxGreen\0"
 1085      7265656E 
 1085      00
GAS LISTING C:\Users\jisu8\AppData\Local\Temp\ccbIx97X.s 			page 26


 1086 0786 01       		.byte	0x1
 1087 0787 22       		.byte	0x22
 1088 0788 12       		.byte	0x12
 1089 0789 53010000 		.long	0x153
 1090 078d C6020000 		.secrel32	LLST15
 1091 0791 C2020000 		.secrel32	LVUS15
 1092 0795 20       		.uleb128 0x20
 1093 0796 69647842 		.ascii "idxBlue\0"
 1093      6C756500 
 1094 079e 01       		.byte	0x1
 1095 079f 22       		.byte	0x22
 1096 07a0 1B       		.byte	0x1b
 1097 07a1 53010000 		.long	0x153
 1098 07a5 E9020000 		.secrel32	LLST16
 1099 07a9 E5020000 		.secrel32	LVUS16
 1100 07ad 21       		.uleb128 0x21
 1101 07ae 90000000 		.long	LVL14
 1102 07b2 E6050000 		.long	0x5e6
 1103 07b6 1A       		.uleb128 0x1a
 1104 07b7 A4000000 		.long	LVL16
 1105 07bb ED080000 		.long	0x8ed
 1106 07bf D5070000 		.long	0x7d5
 1107 07c3 1B       		.uleb128 0x1b
 1108 07c4 02       		.byte	0x2
 1109 07c5 74       		.byte	0x74
 1110 07c6 00       		.sleb128 0
 1111 07c7 05       		.byte	0x5
 1112 07c8 03       		.byte	0x3
 1113 07c9 34000000 		.long	LC2
 1114 07cd 1B       		.uleb128 0x1b
 1115 07ce 02       		.byte	0x2
 1116 07cf 74       		.byte	0x74
 1117 07d0 04       		.sleb128 4
 1118 07d1 02       		.byte	0x2
 1119 07d2 91       		.byte	0x91
 1120 07d3 00       		.sleb128 0
 1121 07d4 00       		.byte	0
 1122 07d5 1A       		.uleb128 0x1a
 1123 07d6 B8000000 		.long	LVL17
 1124 07da ED080000 		.long	0x8ed
 1125 07de F7070000 		.long	0x7f7
 1126 07e2 1B       		.uleb128 0x1b
 1127 07e3 02       		.byte	0x2
 1128 07e4 74       		.byte	0x74
 1129 07e5 00       		.sleb128 0
 1130 07e6 05       		.byte	0x5
 1131 07e7 03       		.byte	0x3
 1132 07e8 50000000 		.long	LC3
 1133 07ec 1B       		.uleb128 0x1b
 1134 07ed 02       		.byte	0x2
 1135 07ee 74       		.byte	0x74
 1136 07ef 04       		.sleb128 4
 1137 07f0 05       		.byte	0x5
 1138 07f1 03       		.byte	0x3
 1139 07f2 00000000 		.long	_DecodeHints
 1140 07f6 00       		.byte	0
 1141 07f7 1A       		.uleb128 0x1a
GAS LISTING C:\Users\jisu8\AppData\Local\Temp\ccbIx97X.s 			page 27


 1142 07f8 BF000000 		.long	LVL18
 1143 07fc AE050000 		.long	0x5ae
 1144 0800 0B080000 		.long	0x80b
 1145 0804 1B       		.uleb128 0x1b
 1146 0805 01       		.byte	0x1
 1147 0806 50       		.byte	0x50
 1148 0807 02       		.byte	0x2
 1149 0808 73       		.byte	0x73
 1150 0809 00       		.sleb128 0
 1151 080a 00       		.byte	0
 1152 080b 1A       		.uleb128 0x1a
 1153 080c CD000000 		.long	LVL22
 1154 0810 77050000 		.long	0x577
 1155 0814 1F080000 		.long	0x81f
 1156 0818 1B       		.uleb128 0x1b
 1157 0819 01       		.byte	0x1
 1158 081a 50       		.byte	0x50
 1159 081b 02       		.byte	0x2
 1160 081c 73       		.byte	0x73
 1161 081d 00       		.sleb128 0
 1162 081e 00       		.byte	0
 1163 081f 1A       		.uleb128 0x1a
 1164 0820 D8000000 		.long	LVL25
 1165 0824 3E050000 		.long	0x53e
 1166 0828 33080000 		.long	0x833
 1167 082c 1B       		.uleb128 0x1b
 1168 082d 01       		.byte	0x1
 1169 082e 50       		.byte	0x50
 1170 082f 02       		.byte	0x2
 1171 0830 73       		.byte	0x73
 1172 0831 00       		.sleb128 0
 1173 0832 00       		.byte	0
 1174 0833 1A       		.uleb128 0x1a
 1175 0834 E3000000 		.long	LVL28
 1176 0838 06050000 		.long	0x506
 1177 083c 47080000 		.long	0x847
 1178 0840 1B       		.uleb128 0x1b
 1179 0841 01       		.byte	0x1
 1180 0842 50       		.byte	0x50
 1181 0843 02       		.byte	0x2
 1182 0844 73       		.byte	0x73
 1183 0845 00       		.sleb128 0
 1184 0846 00       		.byte	0
 1185 0847 1A       		.uleb128 0x1a
 1186 0848 0B010000 		.long	LVL31
 1187 084c ED080000 		.long	0x8ed
 1188 0850 75080000 		.long	0x875
 1189 0854 1B       		.uleb128 0x1b
 1190 0855 02       		.byte	0x2
 1191 0856 74       		.byte	0x74
 1192 0857 00       		.sleb128 0
 1193 0858 05       		.byte	0x5
 1194 0859 03       		.byte	0x3
 1195 085a 5C000000 		.long	LC4
 1196 085e 1B       		.uleb128 0x1b
 1197 085f 02       		.byte	0x2
 1198 0860 74       		.byte	0x74
GAS LISTING C:\Users\jisu8\AppData\Local\Temp\ccbIx97X.s 			page 28


 1199 0861 08       		.sleb128 8
 1200 0862 02       		.byte	0x2
 1201 0863 76       		.byte	0x76
 1202 0864 00       		.sleb128 0
 1203 0865 1B       		.uleb128 0x1b
 1204 0866 02       		.byte	0x2
 1205 0867 74       		.byte	0x74
 1206 0868 0C       		.sleb128 12
 1207 0869 03       		.byte	0x3
 1208 086a 91       		.byte	0x91
 1209 086b 08       		.sleb128 8
 1210 086c 06       		.byte	0x6
 1211 086d 1B       		.uleb128 0x1b
 1212 086e 02       		.byte	0x2
 1213 086f 74       		.byte	0x74
 1214 0870 10       		.sleb128 16
 1215 0871 02       		.byte	0x2
 1216 0872 73       		.byte	0x73
 1217 0873 00       		.sleb128 0
 1218 0874 00       		.byte	0
 1219 0875 1A       		.uleb128 0x1a
 1220 0876 53010000 		.long	LVL32
 1221 087a 02090000 		.long	0x902
 1222 087e C4080000 		.long	0x8c4
 1223 0882 1B       		.uleb128 0x1b
 1224 0883 02       		.byte	0x2
 1225 0884 74       		.byte	0x74
 1226 0885 00       		.sleb128 0
 1227 0886 01       		.byte	0x1
 1228 0887 30       		.byte	0x30
 1229 0888 1B       		.uleb128 0x1b
 1230 0889 02       		.byte	0x2
 1231 088a 74       		.byte	0x74
 1232 088b 04       		.sleb128 4
 1233 088c 01       		.byte	0x1
 1234 088d 30       		.byte	0x30
 1235 088e 1B       		.uleb128 0x1b
 1236 088f 02       		.byte	0x2
 1237 0890 74       		.byte	0x74
 1238 0891 08       		.sleb128 8
 1239 0892 02       		.byte	0x2
 1240 0893 76       		.byte	0x76
 1241 0894 00       		.sleb128 0
 1242 0895 1B       		.uleb128 0x1b
 1243 0896 02       		.byte	0x2
 1244 0897 74       		.byte	0x74
 1245 0898 0C       		.sleb128 12
 1246 0899 03       		.byte	0x3
 1247 089a 91       		.byte	0x91
 1248 089b 08       		.sleb128 8
 1249 089c 06       		.byte	0x6
 1250 089d 1B       		.uleb128 0x1b
 1251 089e 02       		.byte	0x2
 1252 089f 74       		.byte	0x74
 1253 08a0 14       		.sleb128 20
 1254 08a1 02       		.byte	0x2
 1255 08a2 75       		.byte	0x75
GAS LISTING C:\Users\jisu8\AppData\Local\Temp\ccbIx97X.s 			page 29


 1256 08a3 00       		.sleb128 0
 1257 08a4 1B       		.uleb128 0x1b
 1258 08a5 02       		.byte	0x2
 1259 08a6 74       		.byte	0x74
 1260 08a7 18       		.sleb128 24
 1261 08a8 02       		.byte	0x2
 1262 08a9 77       		.byte	0x77
 1263 08aa 00       		.sleb128 0
 1264 08ab 1B       		.uleb128 0x1b
 1265 08ac 02       		.byte	0x2
 1266 08ad 74       		.byte	0x74
 1267 08ae 1C       		.sleb128 28
 1268 08af 03       		.byte	0x3
 1269 08b0 91       		.byte	0x91
 1270 08b1 54       		.sleb128 -44
 1271 08b2 06       		.byte	0x6
 1272 08b3 1B       		.uleb128 0x1b
 1273 08b4 02       		.byte	0x2
 1274 08b5 74       		.byte	0x74
 1275 08b6 20       		.sleb128 32
 1276 08b7 03       		.byte	0x3
 1277 08b8 91       		.byte	0x91
 1278 08b9 58       		.sleb128 -40
 1279 08ba 06       		.byte	0x6
 1280 08bb 1B       		.uleb128 0x1b
 1281 08bc 02       		.byte	0x2
 1282 08bd 74       		.byte	0x74
 1283 08be 24       		.sleb128 36
 1284 08bf 03       		.byte	0x3
 1285 08c0 91       		.byte	0x91
 1286 08c1 5C       		.sleb128 -36
 1287 08c2 06       		.byte	0x6
 1288 08c3 00       		.byte	0
 1289 08c4 1C       		.uleb128 0x1c
 1290 08c5 88010000 		.long	LVL33
 1291 08c9 08060000 		.long	0x608
 1292 08cd 1B       		.uleb128 0x1b
 1293 08ce 01       		.byte	0x1
 1294 08cf 50       		.byte	0x50
 1295 08d0 05       		.byte	0x5
 1296 08d1 03       		.byte	0x3
 1297 08d2 00000000 		.long	_GenericLuminanceSource_
 1298 08d6 1B       		.uleb128 0x1b
 1299 08d7 01       		.byte	0x1
 1300 08d8 52       		.byte	0x52
 1301 08d9 05       		.byte	0x5
 1302 08da 03       		.byte	0x3
 1303 08db 00000000 		.long	_DecodeHints
 1304 08df 00       		.byte	0
 1305 08e0 00       		.byte	0
 1306 08e1 03       		.uleb128 0x3
 1307 08e2 04       		.byte	0x4
 1308 08e3 90000000 		.long	0x90
 1309 08e7 03       		.uleb128 0x3
 1310 08e8 04       		.byte	0x4
 1311 08e9 A8030000 		.long	0x3a8
 1312 08ed 22       		.uleb128 0x22
GAS LISTING C:\Users\jisu8\AppData\Local\Temp\ccbIx97X.s 			page 30


 1313 08ee 01       		.byte	0x1
 1314 08ef 01       		.byte	0x1
 1315 08f0 7072696E 		.ascii "printf\0"
 1315      746600
 1316 08f7 7072696E 		.ascii "printf\0"
 1316      746600
 1317 08fe 03       		.byte	0x3
 1318 08ff FD01     		.word	0x1fd
 1319 0901 0F       		.byte	0xf
 1320 0902 23       		.uleb128 0x23
 1321 0903 01       		.byte	0x1
 1322 0904 01       		.byte	0x1
 1323 0905 00000000 		.secrel32	LASF6
 1324 0909 00000000 		.secrel32	LASF6
 1325 090d 04       		.byte	0x4
 1326 090e 0B       		.byte	0xb
 1327 090f 11       		.byte	0x11
 1328 0910 00       		.byte	0
 1329              		.section	.debug_abbrev,"dr"
 1330              	Ldebug_abbrev0:
 1331 0000 01       		.uleb128 0x1
 1332 0001 11       		.uleb128 0x11
 1333 0002 01       		.byte	0x1
 1334 0003 25       		.uleb128 0x25
 1335 0004 08       		.uleb128 0x8
 1336 0005 13       		.uleb128 0x13
 1337 0006 0B       		.uleb128 0xb
 1338 0007 03       		.uleb128 0x3
 1339 0008 08       		.uleb128 0x8
 1340 0009 1B       		.uleb128 0x1b
 1341 000a 08       		.uleb128 0x8
 1342 000b 11       		.uleb128 0x11
 1343 000c 01       		.uleb128 0x1
 1344 000d 12       		.uleb128 0x12
 1345 000e 01       		.uleb128 0x1
 1346 000f 10       		.uleb128 0x10
 1347 0010 06       		.uleb128 0x6
 1348 0011 00       		.byte	0
 1349 0012 00       		.byte	0
 1350 0013 02       		.uleb128 0x2
 1351 0014 24       		.uleb128 0x24
 1352 0015 00       		.byte	0
 1353 0016 0B       		.uleb128 0xb
 1354 0017 0B       		.uleb128 0xb
 1355 0018 3E       		.uleb128 0x3e
 1356 0019 0B       		.uleb128 0xb
 1357 001a 03       		.uleb128 0x3
 1358 001b 08       		.uleb128 0x8
 1359 001c 00       		.byte	0
 1360 001d 00       		.byte	0
 1361 001e 03       		.uleb128 0x3
 1362 001f 0F       		.uleb128 0xf
 1363 0020 00       		.byte	0
 1364 0021 0B       		.uleb128 0xb
 1365 0022 0B       		.uleb128 0xb
 1366 0023 49       		.uleb128 0x49
 1367 0024 13       		.uleb128 0x13
GAS LISTING C:\Users\jisu8\AppData\Local\Temp\ccbIx97X.s 			page 31


 1368 0025 00       		.byte	0
 1369 0026 00       		.byte	0
 1370 0027 04       		.uleb128 0x4
 1371 0028 16       		.uleb128 0x16
 1372 0029 00       		.byte	0
 1373 002a 03       		.uleb128 0x3
 1374 002b 08       		.uleb128 0x8
 1375 002c 3A       		.uleb128 0x3a
 1376 002d 0B       		.uleb128 0xb
 1377 002e 3B       		.uleb128 0x3b
 1378 002f 0B       		.uleb128 0xb
 1379 0030 39       		.uleb128 0x39
 1380 0031 0B       		.uleb128 0xb
 1381 0032 49       		.uleb128 0x49
 1382 0033 13       		.uleb128 0x13
 1383 0034 00       		.byte	0
 1384 0035 00       		.byte	0
 1385 0036 05       		.uleb128 0x5
 1386 0037 26       		.uleb128 0x26
 1387 0038 00       		.byte	0
 1388 0039 49       		.uleb128 0x49
 1389 003a 13       		.uleb128 0x13
 1390 003b 00       		.byte	0
 1391 003c 00       		.byte	0
 1392 003d 06       		.uleb128 0x6
 1393 003e 13       		.uleb128 0x13
 1394 003f 01       		.byte	0x1
 1395 0040 03       		.uleb128 0x3
 1396 0041 08       		.uleb128 0x8
 1397 0042 0B       		.uleb128 0xb
 1398 0043 0B       		.uleb128 0xb
 1399 0044 3A       		.uleb128 0x3a
 1400 0045 0B       		.uleb128 0xb
 1401 0046 3B       		.uleb128 0x3b
 1402 0047 0B       		.uleb128 0xb
 1403 0048 39       		.uleb128 0x39
 1404 0049 0B       		.uleb128 0xb
 1405 004a 01       		.uleb128 0x1
 1406 004b 13       		.uleb128 0x13
 1407 004c 00       		.byte	0
 1408 004d 00       		.byte	0
 1409 004e 07       		.uleb128 0x7
 1410 004f 0D       		.uleb128 0xd
 1411 0050 00       		.byte	0
 1412 0051 03       		.uleb128 0x3
 1413 0052 08       		.uleb128 0x8
 1414 0053 3A       		.uleb128 0x3a
 1415 0054 0B       		.uleb128 0xb
 1416 0055 3B       		.uleb128 0x3b
 1417 0056 0B       		.uleb128 0xb
 1418 0057 39       		.uleb128 0x39
 1419 0058 0B       		.uleb128 0xb
 1420 0059 49       		.uleb128 0x49
 1421 005a 13       		.uleb128 0x13
 1422 005b 38       		.uleb128 0x38
 1423 005c 0A       		.uleb128 0xa
 1424 005d 00       		.byte	0
GAS LISTING C:\Users\jisu8\AppData\Local\Temp\ccbIx97X.s 			page 32


 1425 005e 00       		.byte	0
 1426 005f 08       		.uleb128 0x8
 1427 0060 01       		.uleb128 0x1
 1428 0061 01       		.byte	0x1
 1429 0062 49       		.uleb128 0x49
 1430 0063 13       		.uleb128 0x13
 1431 0064 01       		.uleb128 0x1
 1432 0065 13       		.uleb128 0x13
 1433 0066 00       		.byte	0
 1434 0067 00       		.byte	0
 1435 0068 09       		.uleb128 0x9
 1436 0069 21       		.uleb128 0x21
 1437 006a 00       		.byte	0
 1438 006b 00       		.byte	0
 1439 006c 00       		.byte	0
 1440 006d 0A       		.uleb128 0xa
 1441 006e 34       		.uleb128 0x34
 1442 006f 00       		.byte	0
 1443 0070 03       		.uleb128 0x3
 1444 0071 08       		.uleb128 0x8
 1445 0072 3A       		.uleb128 0x3a
 1446 0073 0B       		.uleb128 0xb
 1447 0074 3B       		.uleb128 0x3b
 1448 0075 0B       		.uleb128 0xb
 1449 0076 39       		.uleb128 0x39
 1450 0077 0B       		.uleb128 0xb
 1451 0078 49       		.uleb128 0x49
 1452 0079 13       		.uleb128 0x13
 1453 007a 3F       		.uleb128 0x3f
 1454 007b 0C       		.uleb128 0xc
 1455 007c 3C       		.uleb128 0x3c
 1456 007d 0C       		.uleb128 0xc
 1457 007e 00       		.byte	0
 1458 007f 00       		.byte	0
 1459 0080 0B       		.uleb128 0xb
 1460 0081 13       		.uleb128 0x13
 1461 0082 01       		.byte	0x1
 1462 0083 0B       		.uleb128 0xb
 1463 0084 0B       		.uleb128 0xb
 1464 0085 3A       		.uleb128 0x3a
 1465 0086 0B       		.uleb128 0xb
 1466 0087 3B       		.uleb128 0x3b
 1467 0088 0B       		.uleb128 0xb
 1468 0089 39       		.uleb128 0x39
 1469 008a 0B       		.uleb128 0xb
 1470 008b 01       		.uleb128 0x1
 1471 008c 13       		.uleb128 0x13
 1472 008d 00       		.byte	0
 1473 008e 00       		.byte	0
 1474 008f 0C       		.uleb128 0xc
 1475 0090 0D       		.uleb128 0xd
 1476 0091 00       		.byte	0
 1477 0092 03       		.uleb128 0x3
 1478 0093 0E       		.uleb128 0xe
 1479 0094 3A       		.uleb128 0x3a
 1480 0095 0B       		.uleb128 0xb
 1481 0096 3B       		.uleb128 0x3b
GAS LISTING C:\Users\jisu8\AppData\Local\Temp\ccbIx97X.s 			page 33


 1482 0097 0B       		.uleb128 0xb
 1483 0098 39       		.uleb128 0x39
 1484 0099 0B       		.uleb128 0xb
 1485 009a 49       		.uleb128 0x49
 1486 009b 13       		.uleb128 0x13
 1487 009c 38       		.uleb128 0x38
 1488 009d 0A       		.uleb128 0xa
 1489 009e 00       		.byte	0
 1490 009f 00       		.byte	0
 1491 00a0 0D       		.uleb128 0xd
 1492 00a1 04       		.uleb128 0x4
 1493 00a2 01       		.byte	0x1
 1494 00a3 3E       		.uleb128 0x3e
 1495 00a4 0B       		.uleb128 0xb
 1496 00a5 0B       		.uleb128 0xb
 1497 00a6 0B       		.uleb128 0xb
 1498 00a7 49       		.uleb128 0x49
 1499 00a8 13       		.uleb128 0x13
 1500 00a9 3A       		.uleb128 0x3a
 1501 00aa 0B       		.uleb128 0xb
 1502 00ab 3B       		.uleb128 0x3b
 1503 00ac 0B       		.uleb128 0xb
 1504 00ad 39       		.uleb128 0x39
 1505 00ae 0B       		.uleb128 0xb
 1506 00af 01       		.uleb128 0x1
 1507 00b0 13       		.uleb128 0x13
 1508 00b1 00       		.byte	0
 1509 00b2 00       		.byte	0
 1510 00b3 0E       		.uleb128 0xe
 1511 00b4 28       		.uleb128 0x28
 1512 00b5 00       		.byte	0
 1513 00b6 03       		.uleb128 0x3
 1514 00b7 0E       		.uleb128 0xe
 1515 00b8 1C       		.uleb128 0x1c
 1516 00b9 0B       		.uleb128 0xb
 1517 00ba 00       		.byte	0
 1518 00bb 00       		.byte	0
 1519 00bc 0F       		.uleb128 0xf
 1520 00bd 28       		.uleb128 0x28
 1521 00be 00       		.byte	0
 1522 00bf 03       		.uleb128 0x3
 1523 00c0 08       		.uleb128 0x8
 1524 00c1 1C       		.uleb128 0x1c
 1525 00c2 0B       		.uleb128 0xb
 1526 00c3 00       		.byte	0
 1527 00c4 00       		.byte	0
 1528 00c5 10       		.uleb128 0x10
 1529 00c6 13       		.uleb128 0x13
 1530 00c7 01       		.byte	0x1
 1531 00c8 03       		.uleb128 0x3
 1532 00c9 0E       		.uleb128 0xe
 1533 00ca 0B       		.uleb128 0xb
 1534 00cb 0B       		.uleb128 0xb
 1535 00cc 3A       		.uleb128 0x3a
 1536 00cd 0B       		.uleb128 0xb
 1537 00ce 3B       		.uleb128 0x3b
 1538 00cf 0B       		.uleb128 0xb
GAS LISTING C:\Users\jisu8\AppData\Local\Temp\ccbIx97X.s 			page 34


 1539 00d0 39       		.uleb128 0x39
 1540 00d1 0B       		.uleb128 0xb
 1541 00d2 01       		.uleb128 0x1
 1542 00d3 13       		.uleb128 0x13
 1543 00d4 00       		.byte	0
 1544 00d5 00       		.byte	0
 1545 00d6 11       		.uleb128 0x11
 1546 00d7 0D       		.uleb128 0xd
 1547 00d8 00       		.byte	0
 1548 00d9 03       		.uleb128 0x3
 1549 00da 08       		.uleb128 0x8
 1550 00db 3A       		.uleb128 0x3a
 1551 00dc 0B       		.uleb128 0xb
 1552 00dd 3B       		.uleb128 0x3b
 1553 00de 0B       		.uleb128 0xb
 1554 00df 39       		.uleb128 0x39
 1555 00e0 0B       		.uleb128 0xb
 1556 00e1 49       		.uleb128 0x49
 1557 00e2 13       		.uleb128 0x13
 1558 00e3 0B       		.uleb128 0xb
 1559 00e4 0B       		.uleb128 0xb
 1560 00e5 0D       		.uleb128 0xd
 1561 00e6 0B       		.uleb128 0xb
 1562 00e7 0C       		.uleb128 0xc
 1563 00e8 0B       		.uleb128 0xb
 1564 00e9 38       		.uleb128 0x38
 1565 00ea 0A       		.uleb128 0xa
 1566 00eb 00       		.byte	0
 1567 00ec 00       		.byte	0
 1568 00ed 12       		.uleb128 0x12
 1569 00ee 28       		.uleb128 0x28
 1570 00ef 00       		.byte	0
 1571 00f0 03       		.uleb128 0x3
 1572 00f1 08       		.uleb128 0x8
 1573 00f2 1C       		.uleb128 0x1c
 1574 00f3 06       		.uleb128 0x6
 1575 00f4 00       		.byte	0
 1576 00f5 00       		.byte	0
 1577 00f6 13       		.uleb128 0x13
 1578 00f7 34       		.uleb128 0x34
 1579 00f8 00       		.byte	0
 1580 00f9 03       		.uleb128 0x3
 1581 00fa 08       		.uleb128 0x8
 1582 00fb 3A       		.uleb128 0x3a
 1583 00fc 0B       		.uleb128 0xb
 1584 00fd 3B       		.uleb128 0x3b
 1585 00fe 0B       		.uleb128 0xb
 1586 00ff 39       		.uleb128 0x39
 1587 0100 0B       		.uleb128 0xb
 1588 0101 49       		.uleb128 0x49
 1589 0102 13       		.uleb128 0x13
 1590 0103 3F       		.uleb128 0x3f
 1591 0104 0C       		.uleb128 0xc
 1592 0105 02       		.uleb128 0x2
 1593 0106 0A       		.uleb128 0xa
 1594 0107 00       		.byte	0
 1595 0108 00       		.byte	0
GAS LISTING C:\Users\jisu8\AppData\Local\Temp\ccbIx97X.s 			page 35


 1596 0109 14       		.uleb128 0x14
 1597 010a 34       		.uleb128 0x34
 1598 010b 00       		.byte	0
 1599 010c 03       		.uleb128 0x3
 1600 010d 0E       		.uleb128 0xe
 1601 010e 3A       		.uleb128 0x3a
 1602 010f 0B       		.uleb128 0xb
 1603 0110 3B       		.uleb128 0x3b
 1604 0111 0B       		.uleb128 0xb
 1605 0112 39       		.uleb128 0x39
 1606 0113 0B       		.uleb128 0xb
 1607 0114 49       		.uleb128 0x49
 1608 0115 13       		.uleb128 0x13
 1609 0116 3F       		.uleb128 0x3f
 1610 0117 0C       		.uleb128 0xc
 1611 0118 02       		.uleb128 0x2
 1612 0119 0A       		.uleb128 0xa
 1613 011a 00       		.byte	0
 1614 011b 00       		.byte	0
 1615 011c 15       		.uleb128 0x15
 1616 011d 2E       		.uleb128 0x2e
 1617 011e 01       		.byte	0x1
 1618 011f 03       		.uleb128 0x3
 1619 0120 08       		.uleb128 0x8
 1620 0121 3A       		.uleb128 0x3a
 1621 0122 0B       		.uleb128 0xb
 1622 0123 3B       		.uleb128 0x3b
 1623 0124 0B       		.uleb128 0xb
 1624 0125 39       		.uleb128 0x39
 1625 0126 0B       		.uleb128 0xb
 1626 0127 27       		.uleb128 0x27
 1627 0128 0C       		.uleb128 0xc
 1628 0129 49       		.uleb128 0x49
 1629 012a 13       		.uleb128 0x13
 1630 012b 11       		.uleb128 0x11
 1631 012c 01       		.uleb128 0x1
 1632 012d 12       		.uleb128 0x12
 1633 012e 01       		.uleb128 0x1
 1634 012f 40       		.uleb128 0x40
 1635 0130 0A       		.uleb128 0xa
 1636 0131 9742     		.uleb128 0x2117
 1637 0133 0C       		.uleb128 0xc
 1638 0134 01       		.uleb128 0x1
 1639 0135 13       		.uleb128 0x13
 1640 0136 00       		.byte	0
 1641 0137 00       		.byte	0
 1642 0138 16       		.uleb128 0x16
 1643 0139 05       		.uleb128 0x5
 1644 013a 00       		.byte	0
 1645 013b 03       		.uleb128 0x3
 1646 013c 0E       		.uleb128 0xe
 1647 013d 3A       		.uleb128 0x3a
 1648 013e 0B       		.uleb128 0xb
 1649 013f 3B       		.uleb128 0x3b
 1650 0140 0B       		.uleb128 0xb
 1651 0141 39       		.uleb128 0x39
 1652 0142 0B       		.uleb128 0xb
GAS LISTING C:\Users\jisu8\AppData\Local\Temp\ccbIx97X.s 			page 36


 1653 0143 49       		.uleb128 0x49
 1654 0144 13       		.uleb128 0x13
 1655 0145 02       		.uleb128 0x2
 1656 0146 06       		.uleb128 0x6
 1657 0147 B742     		.uleb128 0x2137
 1658 0149 06       		.uleb128 0x6
 1659 014a 00       		.byte	0
 1660 014b 00       		.byte	0
 1661 014c 17       		.uleb128 0x17
 1662 014d 2E       		.uleb128 0x2e
 1663 014e 00       		.byte	0
 1664 014f 03       		.uleb128 0x3
 1665 0150 08       		.uleb128 0x8
 1666 0151 3A       		.uleb128 0x3a
 1667 0152 0B       		.uleb128 0xb
 1668 0153 3B       		.uleb128 0x3b
 1669 0154 0B       		.uleb128 0xb
 1670 0155 39       		.uleb128 0x39
 1671 0156 0B       		.uleb128 0xb
 1672 0157 27       		.uleb128 0x27
 1673 0158 0C       		.uleb128 0xc
 1674 0159 11       		.uleb128 0x11
 1675 015a 01       		.uleb128 0x1
 1676 015b 12       		.uleb128 0x12
 1677 015c 01       		.uleb128 0x1
 1678 015d 40       		.uleb128 0x40
 1679 015e 0A       		.uleb128 0xa
 1680 015f 9742     		.uleb128 0x2117
 1681 0161 0C       		.uleb128 0xc
 1682 0162 00       		.byte	0
 1683 0163 00       		.byte	0
 1684 0164 18       		.uleb128 0x18
 1685 0165 2E       		.uleb128 0x2e
 1686 0166 01       		.byte	0x1
 1687 0167 03       		.uleb128 0x3
 1688 0168 08       		.uleb128 0x8
 1689 0169 3A       		.uleb128 0x3a
 1690 016a 0B       		.uleb128 0xb
 1691 016b 3B       		.uleb128 0x3b
 1692 016c 0B       		.uleb128 0xb
 1693 016d 39       		.uleb128 0x39
 1694 016e 0B       		.uleb128 0xb
 1695 016f 27       		.uleb128 0x27
 1696 0170 0C       		.uleb128 0xc
 1697 0171 11       		.uleb128 0x11
 1698 0172 01       		.uleb128 0x1
 1699 0173 12       		.uleb128 0x12
 1700 0174 01       		.uleb128 0x1
 1701 0175 40       		.uleb128 0x40
 1702 0176 06       		.uleb128 0x6
 1703 0177 9742     		.uleb128 0x2117
 1704 0179 0C       		.uleb128 0xc
 1705 017a 01       		.uleb128 0x1
 1706 017b 13       		.uleb128 0x13
 1707 017c 00       		.byte	0
 1708 017d 00       		.byte	0
 1709 017e 19       		.uleb128 0x19
GAS LISTING C:\Users\jisu8\AppData\Local\Temp\ccbIx97X.s 			page 37


 1710 017f 05       		.uleb128 0x5
 1711 0180 00       		.byte	0
 1712 0181 03       		.uleb128 0x3
 1713 0182 08       		.uleb128 0x8
 1714 0183 3A       		.uleb128 0x3a
 1715 0184 0B       		.uleb128 0xb
 1716 0185 3B       		.uleb128 0x3b
 1717 0186 0B       		.uleb128 0xb
 1718 0187 39       		.uleb128 0x39
 1719 0188 0B       		.uleb128 0xb
 1720 0189 49       		.uleb128 0x49
 1721 018a 13       		.uleb128 0x13
 1722 018b 02       		.uleb128 0x2
 1723 018c 06       		.uleb128 0x6
 1724 018d B742     		.uleb128 0x2137
 1725 018f 06       		.uleb128 0x6
 1726 0190 00       		.byte	0
 1727 0191 00       		.byte	0
 1728 0192 1A       		.uleb128 0x1a
 1729 0193 898201   		.uleb128 0x4109
 1730 0196 01       		.byte	0x1
 1731 0197 11       		.uleb128 0x11
 1732 0198 01       		.uleb128 0x1
 1733 0199 31       		.uleb128 0x31
 1734 019a 13       		.uleb128 0x13
 1735 019b 01       		.uleb128 0x1
 1736 019c 13       		.uleb128 0x13
 1737 019d 00       		.byte	0
 1738 019e 00       		.byte	0
 1739 019f 1B       		.uleb128 0x1b
 1740 01a0 8A8201   		.uleb128 0x410a
 1741 01a3 00       		.byte	0
 1742 01a4 02       		.uleb128 0x2
 1743 01a5 0A       		.uleb128 0xa
 1744 01a6 9142     		.uleb128 0x2111
 1745 01a8 0A       		.uleb128 0xa
 1746 01a9 00       		.byte	0
 1747 01aa 00       		.byte	0
 1748 01ab 1C       		.uleb128 0x1c
 1749 01ac 898201   		.uleb128 0x4109
 1750 01af 01       		.byte	0x1
 1751 01b0 11       		.uleb128 0x11
 1752 01b1 01       		.uleb128 0x1
 1753 01b2 31       		.uleb128 0x31
 1754 01b3 13       		.uleb128 0x13
 1755 01b4 00       		.byte	0
 1756 01b5 00       		.byte	0
 1757 01b6 1D       		.uleb128 0x1d
 1758 01b7 2E       		.uleb128 0x2e
 1759 01b8 01       		.byte	0x1
 1760 01b9 3F       		.uleb128 0x3f
 1761 01ba 0C       		.uleb128 0xc
 1762 01bb 03       		.uleb128 0x3
 1763 01bc 08       		.uleb128 0x8
 1764 01bd 3A       		.uleb128 0x3a
 1765 01be 0B       		.uleb128 0xb
 1766 01bf 3B       		.uleb128 0x3b
GAS LISTING C:\Users\jisu8\AppData\Local\Temp\ccbIx97X.s 			page 38


 1767 01c0 0B       		.uleb128 0xb
 1768 01c1 39       		.uleb128 0x39
 1769 01c2 0B       		.uleb128 0xb
 1770 01c3 27       		.uleb128 0x27
 1771 01c4 0C       		.uleb128 0xc
 1772 01c5 49       		.uleb128 0x49
 1773 01c6 13       		.uleb128 0x13
 1774 01c7 11       		.uleb128 0x11
 1775 01c8 01       		.uleb128 0x1
 1776 01c9 12       		.uleb128 0x12
 1777 01ca 01       		.uleb128 0x1
 1778 01cb 40       		.uleb128 0x40
 1779 01cc 06       		.uleb128 0x6
 1780 01cd 9742     		.uleb128 0x2117
 1781 01cf 0C       		.uleb128 0xc
 1782 01d0 01       		.uleb128 0x1
 1783 01d1 13       		.uleb128 0x13
 1784 01d2 00       		.byte	0
 1785 01d3 00       		.byte	0
 1786 01d4 1E       		.uleb128 0x1e
 1787 01d5 34       		.uleb128 0x34
 1788 01d6 00       		.byte	0
 1789 01d7 03       		.uleb128 0x3
 1790 01d8 08       		.uleb128 0x8
 1791 01d9 3A       		.uleb128 0x3a
 1792 01da 0B       		.uleb128 0xb
 1793 01db 3B       		.uleb128 0x3b
 1794 01dc 0B       		.uleb128 0xb
 1795 01dd 39       		.uleb128 0x39
 1796 01de 0B       		.uleb128 0xb
 1797 01df 49       		.uleb128 0x49
 1798 01e0 13       		.uleb128 0x13
 1799 01e1 02       		.uleb128 0x2
 1800 01e2 0A       		.uleb128 0xa
 1801 01e3 00       		.byte	0
 1802 01e4 00       		.byte	0
 1803 01e5 1F       		.uleb128 0x1f
 1804 01e6 34       		.uleb128 0x34
 1805 01e7 00       		.byte	0
 1806 01e8 03       		.uleb128 0x3
 1807 01e9 0E       		.uleb128 0xe
 1808 01ea 3A       		.uleb128 0x3a
 1809 01eb 0B       		.uleb128 0xb
 1810 01ec 3B       		.uleb128 0x3b
 1811 01ed 0B       		.uleb128 0xb
 1812 01ee 39       		.uleb128 0x39
 1813 01ef 0B       		.uleb128 0xb
 1814 01f0 49       		.uleb128 0x49
 1815 01f1 13       		.uleb128 0x13
 1816 01f2 02       		.uleb128 0x2
 1817 01f3 06       		.uleb128 0x6
 1818 01f4 B742     		.uleb128 0x2137
 1819 01f6 06       		.uleb128 0x6
 1820 01f7 00       		.byte	0
 1821 01f8 00       		.byte	0
 1822 01f9 20       		.uleb128 0x20
 1823 01fa 34       		.uleb128 0x34
GAS LISTING C:\Users\jisu8\AppData\Local\Temp\ccbIx97X.s 			page 39


 1824 01fb 00       		.byte	0
 1825 01fc 03       		.uleb128 0x3
 1826 01fd 08       		.uleb128 0x8
 1827 01fe 3A       		.uleb128 0x3a
 1828 01ff 0B       		.uleb128 0xb
 1829 0200 3B       		.uleb128 0x3b
 1830 0201 0B       		.uleb128 0xb
 1831 0202 39       		.uleb128 0x39
 1832 0203 0B       		.uleb128 0xb
 1833 0204 49       		.uleb128 0x49
 1834 0205 13       		.uleb128 0x13
 1835 0206 02       		.uleb128 0x2
 1836 0207 06       		.uleb128 0x6
 1837 0208 B742     		.uleb128 0x2137
 1838 020a 06       		.uleb128 0x6
 1839 020b 00       		.byte	0
 1840 020c 00       		.byte	0
 1841 020d 21       		.uleb128 0x21
 1842 020e 898201   		.uleb128 0x4109
 1843 0211 00       		.byte	0
 1844 0212 11       		.uleb128 0x11
 1845 0213 01       		.uleb128 0x1
 1846 0214 31       		.uleb128 0x31
 1847 0215 13       		.uleb128 0x13
 1848 0216 00       		.byte	0
 1849 0217 00       		.byte	0
 1850 0218 22       		.uleb128 0x22
 1851 0219 2E       		.uleb128 0x2e
 1852 021a 00       		.byte	0
 1853 021b 3F       		.uleb128 0x3f
 1854 021c 0C       		.uleb128 0xc
 1855 021d 3C       		.uleb128 0x3c
 1856 021e 0C       		.uleb128 0xc
 1857 021f 8740     		.uleb128 0x2007
 1858 0221 08       		.uleb128 0x8
 1859 0222 03       		.uleb128 0x3
 1860 0223 08       		.uleb128 0x8
 1861 0224 3A       		.uleb128 0x3a
 1862 0225 0B       		.uleb128 0xb
 1863 0226 3B       		.uleb128 0x3b
 1864 0227 05       		.uleb128 0x5
 1865 0228 39       		.uleb128 0x39
 1866 0229 0B       		.uleb128 0xb
 1867 022a 00       		.byte	0
 1868 022b 00       		.byte	0
 1869 022c 23       		.uleb128 0x23
 1870 022d 2E       		.uleb128 0x2e
 1871 022e 00       		.byte	0
 1872 022f 3F       		.uleb128 0x3f
 1873 0230 0C       		.uleb128 0xc
 1874 0231 3C       		.uleb128 0x3c
 1875 0232 0C       		.uleb128 0xc
 1876 0233 8740     		.uleb128 0x2007
 1877 0235 0E       		.uleb128 0xe
 1878 0236 03       		.uleb128 0x3
 1879 0237 0E       		.uleb128 0xe
 1880 0238 3A       		.uleb128 0x3a
GAS LISTING C:\Users\jisu8\AppData\Local\Temp\ccbIx97X.s 			page 40


 1881 0239 0B       		.uleb128 0xb
 1882 023a 3B       		.uleb128 0x3b
 1883 023b 0B       		.uleb128 0xb
 1884 023c 39       		.uleb128 0x39
 1885 023d 0B       		.uleb128 0xb
 1886 023e 00       		.byte	0
 1887 023f 00       		.byte	0
 1888 0240 00       		.byte	0
 1889              		.section	.debug_loc,"dr"
 1890              	Ldebug_loc0:
 1891              	LVUS3:
 1892 0000 00       		.uleb128 0
 1893 0001 00       		.uleb128 LVU24
 1894 0002 00       		.uleb128 LVU24
 1895 0003 00       		.uleb128 0
 1896              	LLST3:
 1897 0004 22000000 		.long	LVL6-Ltext0
 1898 0008 25000000 		.long	LVL7-Ltext0
 1899 000c 0100     		.word	0x1
 1900 000e 50       		.byte	0x50
 1901 000f 25000000 		.long	LVL7-Ltext0
 1902 0013 26000000 		.long	LFE19-Ltext0
 1903 0017 0400     		.word	0x4
 1904 0019 F3       		.byte	0xf3
 1905 001a 01       		.uleb128 0x1
 1906 001b 50       		.byte	0x50
 1907 001c 9F       		.byte	0x9f
 1908 001d 00000000 		.long	0
 1909 0021 00000000 		.long	0
 1910              	LVUS2:
 1911 0025 00       		.uleb128 0
 1912 0026 00       		.uleb128 LVU20
 1913 0027 00       		.uleb128 LVU20
 1914 0028 00       		.uleb128 0
 1915              	LLST2:
 1916 0029 1E000000 		.long	LVL4-Ltext0
 1917 002d 21000000 		.long	LVL5-Ltext0
 1918 0031 0100     		.word	0x1
 1919 0033 50       		.byte	0x50
 1920 0034 21000000 		.long	LVL5-Ltext0
 1921 0038 22000000 		.long	LFE18-Ltext0
 1922 003c 0400     		.word	0x4
 1923 003e F3       		.byte	0xf3
 1924 003f 01       		.uleb128 0x1
 1925 0040 50       		.byte	0x50
 1926 0041 9F       		.byte	0x9f
 1927 0042 00000000 		.long	0
 1928 0046 00000000 		.long	0
 1929              	LVUS1:
 1930 004a 00       		.uleb128 0
 1931 004b 00       		.uleb128 LVU15
 1932 004c 00       		.uleb128 LVU15
 1933 004d 00       		.uleb128 0
 1934              	LLST1:
 1935 004e 17000000 		.long	LVL2-Ltext0
 1936 0052 1A000000 		.long	LVL3-Ltext0
 1937 0056 0100     		.word	0x1
GAS LISTING C:\Users\jisu8\AppData\Local\Temp\ccbIx97X.s 			page 41


 1938 0058 50       		.byte	0x50
 1939 0059 1A000000 		.long	LVL3-Ltext0
 1940 005d 1E000000 		.long	LFE17-Ltext0
 1941 0061 0400     		.word	0x4
 1942 0063 F3       		.byte	0xf3
 1943 0064 01       		.uleb128 0x1
 1944 0065 50       		.byte	0x50
 1945 0066 9F       		.byte	0x9f
 1946 0067 00000000 		.long	0
 1947 006b 00000000 		.long	0
 1948              	LVUS0:
 1949 006f 00       		.uleb128 0
 1950 0070 00       		.uleb128 LVU11
 1951 0071 00       		.uleb128 LVU11
 1952 0072 00       		.uleb128 0
 1953              	LLST0:
 1954 0073 13000000 		.long	LVL0-Ltext0
 1955 0077 16000000 		.long	LVL1-Ltext0
 1956 007b 0100     		.word	0x1
 1957 007d 50       		.byte	0x50
 1958 007e 16000000 		.long	LVL1-Ltext0
 1959 0082 17000000 		.long	LFE16-Ltext0
 1960 0086 0400     		.word	0x4
 1961 0088 F3       		.byte	0xf3
 1962 0089 01       		.uleb128 0x1
 1963 008a 50       		.byte	0x50
 1964 008b 9F       		.byte	0x9f
 1965 008c 00000000 		.long	0
 1966 0090 00000000 		.long	0
 1967              	LLST4:
 1968 0094 26000000 		.long	LFB14-Ltext0
 1969 0098 27000000 		.long	LCFI0-Ltext0
 1970 009c 0200     		.word	0x2
 1971 009e 74       		.byte	0x74
 1972 009f 04       		.sleb128 4
 1973 00a0 27000000 		.long	LCFI0-Ltext0
 1974 00a4 2A000000 		.long	LCFI1-Ltext0
 1975 00a8 0200     		.word	0x2
 1976 00aa 74       		.byte	0x74
 1977 00ab 08       		.sleb128 8
 1978 00ac 2A000000 		.long	LCFI1-Ltext0
 1979 00b0 7A000000 		.long	LCFI2-Ltext0
 1980 00b4 0200     		.word	0x2
 1981 00b6 74       		.byte	0x74
 1982 00b7 20       		.sleb128 32
 1983 00b8 7A000000 		.long	LCFI2-Ltext0
 1984 00bc 7B000000 		.long	LCFI3-Ltext0
 1985 00c0 0200     		.word	0x2
 1986 00c2 74       		.byte	0x74
 1987 00c3 08       		.sleb128 8
 1988 00c4 7B000000 		.long	LCFI3-Ltext0
 1989 00c8 7C000000 		.long	LFE14-Ltext0
 1990 00cc 0200     		.word	0x2
 1991 00ce 74       		.byte	0x74
 1992 00cf 04       		.sleb128 4
 1993 00d0 00000000 		.long	0
 1994 00d4 00000000 		.long	0
GAS LISTING C:\Users\jisu8\AppData\Local\Temp\ccbIx97X.s 			page 42


 1995              	LVUS5:
 1996 00d8 00       		.uleb128 0
 1997 00d9 00       		.uleb128 LVU43
 1998 00da 00       		.uleb128 LVU43
 1999 00db 00       		.uleb128 0
 2000              	LLST5:
 2001 00dc 26000000 		.long	LVL8-Ltext0
 2002 00e0 66000000 		.long	LVL10-1-Ltext0
 2003 00e4 0100     		.word	0x1
 2004 00e6 50       		.byte	0x50
 2005 00e7 66000000 		.long	LVL10-1-Ltext0
 2006 00eb 7C000000 		.long	LFE14-Ltext0
 2007 00ef 0400     		.word	0x4
 2008 00f1 F3       		.byte	0xf3
 2009 00f2 01       		.uleb128 0x1
 2010 00f3 50       		.byte	0x50
 2011 00f4 9F       		.byte	0x9f
 2012 00f5 00000000 		.long	0
 2013 00f9 00000000 		.long	0
 2014              	LVUS6:
 2015 00fd 00       		.uleb128 0
 2016 00fe 00       		.uleb128 LVU29
 2017 00ff 00       		.uleb128 LVU29
 2018 0100 00       		.uleb128 LVU45
 2019 0101 00       		.uleb128 LVU45
 2020 0102 00       		.uleb128 0
 2021              	LLST6:
 2022 0103 26000000 		.long	LVL8-Ltext0
 2023 0107 32000000 		.long	LVL9-Ltext0
 2024 010b 0100     		.word	0x1
 2025 010d 52       		.byte	0x52
 2026 010e 32000000 		.long	LVL9-Ltext0
 2027 0112 7B000000 		.long	LVL12-Ltext0
 2028 0116 0100     		.word	0x1
 2029 0118 53       		.byte	0x53
 2030 0119 7B000000 		.long	LVL12-Ltext0
 2031 011d 7C000000 		.long	LFE14-Ltext0
 2032 0121 0400     		.word	0x4
 2033 0123 F3       		.byte	0xf3
 2034 0124 01       		.uleb128 0x1
 2035 0125 52       		.byte	0x52
 2036 0126 9F       		.byte	0x9f
 2037 0127 00000000 		.long	0
 2038 012b 00000000 		.long	0
 2039              	LLST7:
 2040 012f 7C000000 		.long	LFB13-Ltext0
 2041 0133 7D000000 		.long	LCFI4-Ltext0
 2042 0137 0200     		.word	0x2
 2043 0139 74       		.byte	0x74
 2044 013a 04       		.sleb128 4
 2045 013b 7D000000 		.long	LCFI4-Ltext0
 2046 013f 7E000000 		.long	LCFI5-Ltext0
 2047 0143 0200     		.word	0x2
 2048 0145 74       		.byte	0x74
 2049 0146 08       		.sleb128 8
 2050 0147 7E000000 		.long	LCFI5-Ltext0
 2051 014b 7F000000 		.long	LCFI6-Ltext0
GAS LISTING C:\Users\jisu8\AppData\Local\Temp\ccbIx97X.s 			page 43


 2052 014f 0200     		.word	0x2
 2053 0151 74       		.byte	0x74
 2054 0152 0C       		.sleb128 12
 2055 0153 7F000000 		.long	LCFI6-Ltext0
 2056 0157 80000000 		.long	LCFI7-Ltext0
 2057 015b 0200     		.word	0x2
 2058 015d 74       		.byte	0x74
 2059 015e 10       		.sleb128 16
 2060 015f 80000000 		.long	LCFI7-Ltext0
 2061 0163 83000000 		.long	LCFI8-Ltext0
 2062 0167 0200     		.word	0x2
 2063 0169 74       		.byte	0x74
 2064 016a 14       		.sleb128 20
 2065 016b 83000000 		.long	LCFI8-Ltext0
 2066 016f 90010000 		.long	LCFI9-Ltext0
 2067 0173 0300     		.word	0x3
 2068 0175 74       		.byte	0x74
 2069 0176 E000     		.sleb128 96
 2070 0178 90010000 		.long	LCFI9-Ltext0
 2071 017c 91010000 		.long	LCFI10-Ltext0
 2072 0180 0200     		.word	0x2
 2073 0182 74       		.byte	0x74
 2074 0183 14       		.sleb128 20
 2075 0184 91010000 		.long	LCFI10-Ltext0
 2076 0188 92010000 		.long	LCFI11-Ltext0
 2077 018c 0200     		.word	0x2
 2078 018e 74       		.byte	0x74
 2079 018f 10       		.sleb128 16
 2080 0190 92010000 		.long	LCFI11-Ltext0
 2081 0194 93010000 		.long	LCFI12-Ltext0
 2082 0198 0200     		.word	0x2
 2083 019a 74       		.byte	0x74
 2084 019b 0C       		.sleb128 12
 2085 019c 93010000 		.long	LCFI12-Ltext0
 2086 01a0 94010000 		.long	LCFI13-Ltext0
 2087 01a4 0200     		.word	0x2
 2088 01a6 74       		.byte	0x74
 2089 01a7 08       		.sleb128 8
 2090 01a8 94010000 		.long	LCFI13-Ltext0
 2091 01ac 95010000 		.long	LFE13-Ltext0
 2092 01b0 0200     		.word	0x2
 2093 01b2 74       		.byte	0x74
 2094 01b3 04       		.sleb128 4
 2095 01b4 00000000 		.long	0
 2096 01b8 00000000 		.long	0
 2097              	LVUS8:
 2098 01bc 00       		.uleb128 0
 2099 01bd 00       		.uleb128 LVU52
 2100              	LLST8:
 2101 01be 7C000000 		.long	LVL13-Ltext0
 2102 01c2 8F000000 		.long	LVL14-1-Ltext0
 2103 01c6 0200     		.word	0x2
 2104 01c8 91       		.byte	0x91
 2105 01c9 00       		.sleb128 0
 2106 01ca 00000000 		.long	0
 2107 01ce 00000000 		.long	0
 2108              	LVUS9:
GAS LISTING C:\Users\jisu8\AppData\Local\Temp\ccbIx97X.s 			page 44


 2109 01d2 00       		.uleb128 0
 2110 01d3 00       		.uleb128 LVU54
 2111 01d4 00       		.uleb128 LVU54
 2112 01d5 00       		.uleb128 LVU55
 2113 01d6 00       		.uleb128 LVU55
 2114 01d7 00       		.uleb128 0
 2115              	LLST9:
 2116 01d8 7C000000 		.long	LVL13-Ltext0
 2117 01dc 94000000 		.long	LVL15-Ltext0
 2118 01e0 0200     		.word	0x2
 2119 01e2 91       		.byte	0x91
 2120 01e3 04       		.sleb128 4
 2121 01e4 94000000 		.long	LVL15-Ltext0
 2122 01e8 A3000000 		.long	LVL16-1-Ltext0
 2123 01ec 0200     		.word	0x2
 2124 01ee 70       		.byte	0x70
 2125 01ef 04       		.sleb128 4
 2126 01f0 A3000000 		.long	LVL16-1-Ltext0
 2127 01f4 95010000 		.long	LFE13-Ltext0
 2128 01f8 0200     		.word	0x2
 2129 01fa 91       		.byte	0x91
 2130 01fb 04       		.sleb128 4
 2131 01fc 00000000 		.long	0
 2132 0200 00000000 		.long	0
 2133              	LVUS10:
 2134 0204 00       		.uleb128 0
 2135 0205 00       		.uleb128 LVU54
 2136 0206 00       		.uleb128 LVU54
 2137 0207 00       		.uleb128 LVU55
 2138 0208 00       		.uleb128 LVU55
 2139 0209 00       		.uleb128 0
 2140              	LLST10:
 2141 020a 7C000000 		.long	LVL13-Ltext0
 2142 020e 94000000 		.long	LVL15-Ltext0
 2143 0212 0200     		.word	0x2
 2144 0214 91       		.byte	0x91
 2145 0215 08       		.sleb128 8
 2146 0216 94000000 		.long	LVL15-Ltext0
 2147 021a A3000000 		.long	LVL16-1-Ltext0
 2148 021e 0200     		.word	0x2
 2149 0220 70       		.byte	0x70
 2150 0221 08       		.sleb128 8
 2151 0222 A3000000 		.long	LVL16-1-Ltext0
 2152 0226 95010000 		.long	LFE13-Ltext0
 2153 022a 0200     		.word	0x2
 2154 022c 91       		.byte	0x91
 2155 022d 08       		.sleb128 8
 2156 022e 00000000 		.long	0
 2157 0232 00000000 		.long	0
 2158              	LVUS11:
 2159 0236 00       		.uleb128 0
 2160 0237 00       		.uleb128 LVU54
 2161 0238 00       		.uleb128 LVU54
 2162 0239 00       		.uleb128 LVU55
 2163 023a 00       		.uleb128 LVU55
 2164 023b 00       		.uleb128 0
 2165              	LLST11:
GAS LISTING C:\Users\jisu8\AppData\Local\Temp\ccbIx97X.s 			page 45


 2166 023c 7C000000 		.long	LVL13-Ltext0
 2167 0240 94000000 		.long	LVL15-Ltext0
 2168 0244 0200     		.word	0x2
 2169 0246 91       		.byte	0x91
 2170 0247 0C       		.sleb128 12
 2171 0248 94000000 		.long	LVL15-Ltext0
 2172 024c A3000000 		.long	LVL16-1-Ltext0
 2173 0250 0200     		.word	0x2
 2174 0252 70       		.byte	0x70
 2175 0253 0C       		.sleb128 12
 2176 0254 A3000000 		.long	LVL16-1-Ltext0
 2177 0258 95010000 		.long	LFE13-Ltext0
 2178 025c 0200     		.word	0x2
 2179 025e 91       		.byte	0x91
 2180 025f 0C       		.sleb128 12
 2181 0260 00000000 		.long	0
 2182 0264 00000000 		.long	0
 2183              	LVUS12:
 2184 0268 00       		.uleb128 LVU60
 2185 0269 00       		.uleb128 LVU88
 2186              	LLST12:
 2187 026a C6000000 		.long	LVL20-Ltext0
 2188 026e 94010000 		.long	LVL35-Ltext0
 2189 0272 0100     		.word	0x1
 2190 0274 55       		.byte	0x55
 2191 0275 00000000 		.long	0
 2192 0279 00000000 		.long	0
 2193              	LVUS13:
 2194 027d 00       		.uleb128 LVU58
 2195 027e 00       		.uleb128 LVU62
 2196 027f 00       		.uleb128 LVU62
 2197 0280 00       		.uleb128 LVU87
 2198              	LLST13:
 2199 0281 C1000000 		.long	LVL19-Ltext0
 2200 0285 C8000000 		.long	LVL21-Ltext0
 2201 0289 0100     		.word	0x1
 2202 028b 50       		.byte	0x50
 2203 028c C8000000 		.long	LVL21-Ltext0
 2204 0290 93010000 		.long	LVL34-Ltext0
 2205 0294 0100     		.word	0x1
 2206 0296 57       		.byte	0x57
 2207 0297 00000000 		.long	0
 2208 029b 00000000 		.long	0
 2209              	LVUS14:
 2210 029f 00       		.uleb128 LVU63
 2211 02a0 00       		.uleb128 LVU65
 2212 02a1 00       		.uleb128 LVU65
 2213 02a2 00       		.uleb128 0
 2214              	LLST14:
 2215 02a3 D1000000 		.long	LVL23-Ltext0
 2216 02a7 D3000000 		.long	LVL24-Ltext0
 2217 02ab 0100     		.word	0x1
 2218 02ad 50       		.byte	0x50
 2219 02ae D3000000 		.long	LVL24-Ltext0
 2220 02b2 95010000 		.long	LFE13-Ltext0
 2221 02b6 0200     		.word	0x2
 2222 02b8 91       		.byte	0x91
GAS LISTING C:\Users\jisu8\AppData\Local\Temp\ccbIx97X.s 			page 46


 2223 02b9 54       		.sleb128 -44
 2224 02ba 00000000 		.long	0
 2225 02be 00000000 		.long	0
 2226              	LVUS15:
 2227 02c2 00       		.uleb128 LVU66
 2228 02c3 00       		.uleb128 LVU68
 2229 02c4 00       		.uleb128 LVU68
 2230 02c5 00       		.uleb128 0
 2231              	LLST15:
 2232 02c6 DC000000 		.long	LVL26-Ltext0
 2233 02ca DE000000 		.long	LVL27-Ltext0
 2234 02ce 0100     		.word	0x1
 2235 02d0 50       		.byte	0x50
 2236 02d1 DE000000 		.long	LVL27-Ltext0
 2237 02d5 95010000 		.long	LFE13-Ltext0
 2238 02d9 0200     		.word	0x2
 2239 02db 91       		.byte	0x91
 2240 02dc 58       		.sleb128 -40
 2241 02dd 00000000 		.long	0
 2242 02e1 00000000 		.long	0
 2243              	LVUS16:
 2244 02e5 00       		.uleb128 LVU69
 2245 02e6 00       		.uleb128 LVU70
 2246 02e7 00       		.uleb128 LVU70
 2247 02e8 00       		.uleb128 0
 2248              	LLST16:
 2249 02e9 E7000000 		.long	LVL29-Ltext0
 2250 02ed FB000000 		.long	LVL30-Ltext0
 2251 02f1 0100     		.word	0x1
 2252 02f3 50       		.byte	0x50
 2253 02f4 FB000000 		.long	LVL30-Ltext0
 2254 02f8 95010000 		.long	LFE13-Ltext0
 2255 02fc 0200     		.word	0x2
 2256 02fe 91       		.byte	0x91
 2257 02ff 5C       		.sleb128 -36
 2258 0300 00000000 		.long	0
 2259 0304 00000000 		.long	0
 2260              		.section	.debug_aranges,"dr"
 2261 0000 1C000000 		.long	0x1c
 2262 0004 0200     		.word	0x2
 2263 0006 00000000 		.secrel32	Ldebug_info0
 2264 000a 04       		.byte	0x4
 2265 000b 00       		.byte	0
 2266 000c 0000     		.word	0
 2267 000e 0000     		.word	0
 2268 0010 00000000 		.long	Ltext0
 2269 0014 95010000 		.long	Letext0-Ltext0
 2270 0018 00000000 		.long	0
 2271 001c 00000000 		.long	0
 2272              		.section	.debug_line,"dr"
 2273              	Ldebug_line0:
 2274 0000 0A020000 		.section	.debug_str,"dr"
 2274      0200AF00 
 2274      00000101 
 2274      FB0E0D00 
 2274      01010101 
 2275              	LASF6:
GAS LISTING C:\Users\jisu8\AppData\Local\Temp\ccbIx97X.s 			page 47


 2276 0000 47656E65 		.ascii "GenericLuminanceSource\0"
 2276      7269634C 
 2276      756D696E 
 2276      616E6365 
 2276      536F7572 
 2277              	LASF2:
 2278 0017 4465636F 		.ascii "DecodeHints\0"
 2278      64654869 
 2278      6E747300 
 2279              	LASF0:
 2280 0023 68656967 		.ascii "height\0"
 2280      687400
 2281              	LASF3:
 2282 002a 666F726D 		.ascii "format\0"
 2282      617400
 2283              	LASF5:
 2284 0031 70697853 		.ascii "pixStride\0"
 2284      74726964 
 2284      6500
 2285              	LASF1:
 2286 003b 4C6F6361 		.ascii "LocalAverage\0"
 2286      6C417665 
 2286      72616765 
 2286      00
 2287              	LASF4:
 2288 0048 726F7753 		.ascii "rowStride\0"
 2288      74726964 
 2288      6500
 2289              		.ident	"GCC: (i686-posix-dwarf-rev0, Built by MinGW-W64 project) 8.1.0"
GAS LISTING C:\Users\jisu8\AppData\Local\Temp\ccbIx97X.s 			page 48


DEFINED SYMBOLS
                            *ABS*:00000000 ReadBarcode.c
C:\Users\jisu8\AppData\Local\Temp\ccbIx97X.s:5      .text:00000000 _DecodeHints_Init
                            *COM*:00000008 _DecodeHints
C:\Users\jisu8\AppData\Local\Temp\ccbIx97X.s:25     .text:00000013 _PixStride
C:\Users\jisu8\AppData\Local\Temp\ccbIx97X.s:39     .text:00000017 _RedIndex
C:\Users\jisu8\AppData\Local\Temp\ccbIx97X.s:55     .text:0000001e _GreenIndex
C:\Users\jisu8\AppData\Local\Temp\ccbIx97X.s:69     .text:00000022 _BlueIndex
C:\Users\jisu8\AppData\Local\Temp\ccbIx97X.s:90     .text:00000026 _ReadBarcode_Internal
                            *COM*:00000018 _ImageView
C:\Users\jisu8\AppData\Local\Temp\ccbIx97X.s:163    .text:0000007c _ReadBarcode
                            *COM*:00000018 _GenericLuminanceSource_

UNDEFINED SYMBOLS
_printf
_GenericLuminanceSource
