GAS LISTING C:\Users\jisu8\AppData\Local\Temp\ccCR93IT.s 			page 1


   1              		.file	"ReadBarcode.c"
   2              		.text
   3              	Ltext0:
   5              	_DecodeHints_Init:
   6              	LFB15:
   7              		.file 1 "src/ReadBarcode.c"
   1:src/ReadBarcode.c **** /*
   2:src/ReadBarcode.c **** * Copyright 2019 Axel Waggershauser
   3:src/ReadBarcode.c **** *
   4:src/ReadBarcode.c **** * Licensed under the Apache License, Version 2.0 (the "License");
   5:src/ReadBarcode.c **** * you may not use this file except in compliance with the License.
   6:src/ReadBarcode.c **** * You may obtain a copy of the License at
   7:src/ReadBarcode.c **** *
   8:src/ReadBarcode.c **** *      http://www.apache.org/licenses/LICENSE-2.0
   9:src/ReadBarcode.c **** *
  10:src/ReadBarcode.c **** * Unless required by applicable law or agreed to in writing, software
  11:src/ReadBarcode.c **** * distributed under the License is distributed on an "AS IS" BASIS,
  12:src/ReadBarcode.c **** * WITHOUT WARRANTIES OR CONDITIONS OF ANY KIND, either express or implied.
  13:src/ReadBarcode.c **** * See the License for the specific language governing permissions and
  14:src/ReadBarcode.c **** * limitations under the License.
  15:src/ReadBarcode.c **** */
  16:src/ReadBarcode.c **** 
  17:src/ReadBarcode.c **** #include "ReadBarcode.h"
  18:src/ReadBarcode.c **** #include "MultiFormatReader.h"
  19:src/ReadBarcode.c **** ImageView_t ImageView;
  20:src/ReadBarcode.c **** DecodeHints_t DecodeHints;
  21:src/ReadBarcode.c **** GenericLuminanceSource_t GenericLuminanceSource_;
  22:src/ReadBarcode.c **** 
  23:src/ReadBarcode.c **** static void DecodeHints_Init(void);
  24:src/ReadBarcode.c **** static int PixStride(unsigned int format);  
  25:src/ReadBarcode.c **** static int RedIndex(unsigned int format);   
  26:src/ReadBarcode.c **** static int GreenIndex(unsigned int format); 
  27:src/ReadBarcode.c **** static int BlueIndex(unsigned int format);  
  28:src/ReadBarcode.c **** static void ReadBarcode_Internal(GenericLuminanceSource_t *source,const DecodeHints_t *hints);
  29:src/ReadBarcode.c **** 
  30:src/ReadBarcode.c **** unsigned int * ReadBarcode(unsigned char *iv, int width,int height, unsigned int ImageFormat)
  31:src/ReadBarcode.c **** {
  32:src/ReadBarcode.c **** 	DecodeHints_t *hints;
  33:src/ReadBarcode.c **** 	unsigned int rowStride,pixStride;
  34:src/ReadBarcode.c **** 	uint32_t idxRed,idxGreen,idxBlue;
  35:src/ReadBarcode.c **** 
  36:src/ReadBarcode.c **** 	DecodeHints_Init();
  37:src/ReadBarcode.c **** 	hints = &DecodeHints;
  38:src/ReadBarcode.c **** 
  39:src/ReadBarcode.c ****     printf("Result ReadBarcode : iv= %x", &iv);
  40:src/ReadBarcode.c **** 	printf(" hints= %x\n",hints);
  41:src/ReadBarcode.c **** 
  42:src/ReadBarcode.c **** 	pixStride = PixStride(ImageFormat);
  43:src/ReadBarcode.c **** 	rowStride = width * pixStride;
  44:src/ReadBarcode.c **** 	idxRed = RedIndex(ImageFormat);
  45:src/ReadBarcode.c **** 	idxGreen = GreenIndex(ImageFormat);
  46:src/ReadBarcode.c **** 	idxBlue = BlueIndex(ImageFormat);
  47:src/ReadBarcode.c **** 
  48:src/ReadBarcode.c ****     printf("address : %x , Width : %d , height : %d , format :  %x \n",iv,width,height,ImageFormat)
  49:src/ReadBarcode.c ****  
  50:src/ReadBarcode.c **** 	ImageView.data = GenericLuminanceSource(0, 0, width, height, iv, rowStride, pixStride, idxRed, idx
  51:src/ReadBarcode.c **** 	ImageView.width = width; 
GAS LISTING C:\Users\jisu8\AppData\Local\Temp\ccCR93IT.s 			page 2


  52:src/ReadBarcode.c **** 	ImageView.height = height;
  53:src/ReadBarcode.c **** 	ImageView.format = ImageFormat; 
  54:src/ReadBarcode.c **** 	ImageView.rowStride = rowStride; 
  55:src/ReadBarcode.c **** 	ImageView.pixStride = pixStride;
  56:src/ReadBarcode.c **** 
  57:src/ReadBarcode.c **** 	ReadBarcode_Internal(&GenericLuminanceSource_,hints);
  58:src/ReadBarcode.c **** 	
  59:src/ReadBarcode.c ****     return (&ImageView);
  60:src/ReadBarcode.c **** }
  61:src/ReadBarcode.c **** 
  62:src/ReadBarcode.c **** static void ReadBarcode_Internal(GenericLuminanceSource_t *source,const DecodeHints_t *hints)
  63:src/ReadBarcode.c **** {
  64:src/ReadBarcode.c **** 	unsigned char * ret_ptr;
  65:src/ReadBarcode.c **** 	source->pixels = ImageView.data;
  66:src/ReadBarcode.c **** 	source->left = 0;
  67:src/ReadBarcode.c **** 	source->top = 0;
  68:src/ReadBarcode.c **** 	source->width = ImageView.width;
  69:src/ReadBarcode.c **** 	source->height = ImageView.height;
  70:src/ReadBarcode.c **** 	source->rowBytes = ImageView.width;
  71:src/ReadBarcode.c **** 	printf("static Result ReadBarcode : source= %x",source);
  72:src/ReadBarcode.c **** 	printf(" hints= %x \n",hints);
  73:src/ReadBarcode.c **** 
  74:src/ReadBarcode.c **** 	ret_ptr = MultiFormatReader(source,hints);
  75:src/ReadBarcode.c **** 	return;
  76:src/ReadBarcode.c **** }
  77:src/ReadBarcode.c **** 
  78:src/ReadBarcode.c **** static void DecodeHints_Init(void)
  79:src/ReadBarcode.c **** {
   8              		.loc 1 79 1 view -0
   9              		.cfi_startproc
  80:src/ReadBarcode.c **** 	DecodeHints.tryHarder = 1;
  10              		.loc 1 80 2 view LVU1
  11              		.loc 1 80 24 is_stmt 0 view LVU2
  12 0000 C6050000 		movb	$1, _DecodeHints
  12      000001
  81:src/ReadBarcode.c **** 	DecodeHints.tryRotate = 1;
  13              		.loc 1 81 2 is_stmt 1 view LVU3
  14              		.loc 1 81 24 is_stmt 0 view LVU4
  15 0007 C6050100 		movb	$1, _DecodeHints+1
  15      000001
  82:src/ReadBarcode.c **** 	DecodeHints.isPure = 0;
  16              		.loc 1 82 2 is_stmt 1 view LVU5
  17              		.loc 1 82 21 is_stmt 0 view LVU6
  18 000e C6050200 		movb	$0, _DecodeHints+2
  18      000000
  83:src/ReadBarcode.c **** 	DecodeHints.returnCodabarStartEnd = 0;	
  19              		.loc 1 83 2 is_stmt 1 view LVU7
  20              		.loc 1 83 36 is_stmt 0 view LVU8
  21 0015 C6050300 		movb	$0, _DecodeHints+3
  21      000000
  84:src/ReadBarcode.c **** 	DecodeHints.Binarizer = LocalAverage;
  22              		.loc 1 84 2 is_stmt 1 view LVU9
  23              		.loc 1 84 24 is_stmt 0 view LVU10
  24 001c C7050400 		movl	$0, _DecodeHints+4
  24      00000000 
  24      0000
  85:src/ReadBarcode.c **** 	DecodeHints.formats = NONE;
GAS LISTING C:\Users\jisu8\AppData\Local\Temp\ccCR93IT.s 			page 3


  25              		.loc 1 85 2 is_stmt 1 view LVU11
  26              		.loc 1 85 22 is_stmt 0 view LVU12
  27 0026 C7050800 		movl	$0, _DecodeHints+8
  27      00000000 
  27      0000
  86:src/ReadBarcode.c **** }
  28              		.loc 1 86 1 view LVU13
  29 0030 C3       		ret
  30              		.cfi_endproc
  31              	LFE15:
  33              	_PixStride:
  34              	LVL0:
  35              	LFB16:
  87:src/ReadBarcode.c **** 
  88:src/ReadBarcode.c **** static int PixStride(unsigned int format)  
  89:src/ReadBarcode.c **** { 
  36              		.loc 1 89 1 is_stmt 1 view -0
  37              		.cfi_startproc
  90:src/ReadBarcode.c **** 	return ((uint32_t)(format) >> 3*8) & 0xFF; 
  38              		.loc 1 90 2 view LVU15
  39              		.loc 1 90 37 is_stmt 0 view LVU16
  40 0031 C1E818   		shrl	$24, %eax
  41              	LVL1:
  91:src/ReadBarcode.c **** }
  42              		.loc 1 91 1 view LVU17
  43 0034 C3       		ret
  44              		.cfi_endproc
  45              	LFE16:
  47              	_RedIndex:
  48              	LVL2:
  49              	LFB17:
  92:src/ReadBarcode.c **** static int RedIndex(unsigned int format)   
  93:src/ReadBarcode.c **** { 
  50              		.loc 1 93 1 is_stmt 1 view -0
  51              		.cfi_startproc
  94:src/ReadBarcode.c **** 	return ((uint32_t)(format) >> 2*8) & 0xFF; 
  52              		.loc 1 94 2 view LVU19
  53              		.loc 1 94 29 is_stmt 0 view LVU20
  54 0035 C1E810   		shrl	$16, %eax
  55              	LVL3:
  56              		.loc 1 94 37 view LVU21
  57 0038 0FB6C0   		movzbl	%al, %eax
  95:src/ReadBarcode.c **** }
  58              		.loc 1 95 1 view LVU22
  59 003b C3       		ret
  60              		.cfi_endproc
  61              	LFE17:
  63              	_GreenIndex:
  64              	LVL4:
  65              	LFB18:
  96:src/ReadBarcode.c **** static int GreenIndex(unsigned int format) 
  97:src/ReadBarcode.c **** { 
  66              		.loc 1 97 1 is_stmt 1 view -0
  67              		.cfi_startproc
  98:src/ReadBarcode.c **** 	return ((uint32_t)(format) >> 1*8) & 0xFF; 
  68              		.loc 1 98 2 view LVU24
  69              		.loc 1 98 37 is_stmt 0 view LVU25
GAS LISTING C:\Users\jisu8\AppData\Local\Temp\ccCR93IT.s 			page 4


  70 003c 0FB6C4   		movzbl	%ah, %eax
  71              	LVL5:
  99:src/ReadBarcode.c **** }
  72              		.loc 1 99 1 view LVU26
  73 003f C3       		ret
  74              		.cfi_endproc
  75              	LFE18:
  77              	_BlueIndex:
  78              	LVL6:
  79              	LFB19:
 100:src/ReadBarcode.c **** static int BlueIndex(unsigned int format)  
 101:src/ReadBarcode.c **** { 
  80              		.loc 1 101 1 is_stmt 1 view -0
  81              		.cfi_startproc
 102:src/ReadBarcode.c **** 	return ((uint32_t)(format) >> 0*8) & 0xFF; 
  82              		.loc 1 102 2 view LVU28
  83              		.loc 1 102 37 is_stmt 0 view LVU29
  84 0040 0FB6C0   		movzbl	%al, %eax
  85              	LVL7:
 103:src/ReadBarcode.c **** }
  86              		.loc 1 103 1 view LVU30
  87 0043 C3       		ret
  88              		.cfi_endproc
  89              	LFE19:
  90              		.section .rdata,"dr"
  91              		.align 4
  92              	LC0:
  93 0000 73746174 		.ascii "static Result ReadBarcode : source= %x\0"
  93      69632052 
  93      6573756C 
  93      74205265 
  93      61644261 
  94              	LC1:
  95 0027 2068696E 		.ascii " hints= %x \12\0"
  95      74733D20 
  95      2578200A 
  95      00
  96              		.text
  98              	_ReadBarcode_Internal:
  99              	LVL8:
 100              	LFB14:
  63:src/ReadBarcode.c **** 	unsigned char * ret_ptr;
 101              		.loc 1 63 1 is_stmt 1 view -0
 102              		.cfi_startproc
  63:src/ReadBarcode.c **** 	unsigned char * ret_ptr;
 103              		.loc 1 63 1 is_stmt 0 view LVU32
 104 0044 56       		pushl	%esi
 105              	LCFI0:
 106              		.cfi_def_cfa_offset 8
 107              		.cfi_offset 6, -8
 108 0045 53       		pushl	%ebx
 109              	LCFI1:
 110              		.cfi_def_cfa_offset 12
 111              		.cfi_offset 3, -12
 112 0046 83EC14   		subl	$20, %esp
 113              	LCFI2:
 114              		.cfi_def_cfa_offset 32
GAS LISTING C:\Users\jisu8\AppData\Local\Temp\ccCR93IT.s 			page 5


 115 0049 89C3     		movl	%eax, %ebx
 116 004b 89D6     		movl	%edx, %esi
  64:src/ReadBarcode.c **** 	source->pixels = ImageView.data;
 117              		.loc 1 64 2 is_stmt 1 view LVU33
  65:src/ReadBarcode.c **** 	source->left = 0;
 118              		.loc 1 65 2 view LVU34
  65:src/ReadBarcode.c **** 	source->left = 0;
 119              		.loc 1 65 28 is_stmt 0 view LVU35
 120 004d A1000000 		movl	_ImageView, %eax
 120      00
 121              	LVL9:
  65:src/ReadBarcode.c **** 	source->left = 0;
 122              		.loc 1 65 17 view LVU36
 123 0052 8903     		movl	%eax, (%ebx)
  66:src/ReadBarcode.c **** 	source->top = 0;
 124              		.loc 1 66 2 is_stmt 1 view LVU37
  66:src/ReadBarcode.c **** 	source->top = 0;
 125              		.loc 1 66 15 is_stmt 0 view LVU38
 126 0054 C7430400 		movl	$0, 4(%ebx)
 126      000000
  67:src/ReadBarcode.c **** 	source->width = ImageView.width;
 127              		.loc 1 67 2 is_stmt 1 view LVU39
  67:src/ReadBarcode.c **** 	source->width = ImageView.width;
 128              		.loc 1 67 14 is_stmt 0 view LVU40
 129 005b C7430800 		movl	$0, 8(%ebx)
 129      000000
  68:src/ReadBarcode.c **** 	source->height = ImageView.height;
 130              		.loc 1 68 2 is_stmt 1 view LVU41
  68:src/ReadBarcode.c **** 	source->height = ImageView.height;
 131              		.loc 1 68 27 is_stmt 0 view LVU42
 132 0062 A1040000 		movl	_ImageView+4, %eax
 132      00
  68:src/ReadBarcode.c **** 	source->height = ImageView.height;
 133              		.loc 1 68 16 view LVU43
 134 0067 89430C   		movl	%eax, 12(%ebx)
  69:src/ReadBarcode.c **** 	source->rowBytes = ImageView.width;
 135              		.loc 1 69 2 is_stmt 1 view LVU44
  69:src/ReadBarcode.c **** 	source->rowBytes = ImageView.width;
 136              		.loc 1 69 28 is_stmt 0 view LVU45
 137 006a 8B150800 		movl	_ImageView+8, %edx
 137      0000
 138              	LVL10:
  69:src/ReadBarcode.c **** 	source->rowBytes = ImageView.width;
 139              		.loc 1 69 17 view LVU46
 140 0070 895310   		movl	%edx, 16(%ebx)
  70:src/ReadBarcode.c **** 	printf("static Result ReadBarcode : source= %x",source);
 141              		.loc 1 70 2 is_stmt 1 view LVU47
  70:src/ReadBarcode.c **** 	printf("static Result ReadBarcode : source= %x",source);
 142              		.loc 1 70 19 is_stmt 0 view LVU48
 143 0073 894314   		movl	%eax, 20(%ebx)
  71:src/ReadBarcode.c **** 	printf(" hints= %x \n",hints);
 144              		.loc 1 71 2 is_stmt 1 view LVU49
 145 0076 895C2404 		movl	%ebx, 4(%esp)
 146 007a C7042400 		movl	$LC0, (%esp)
 146      000000
 147 0081 E8000000 		call	_printf
 147      00
GAS LISTING C:\Users\jisu8\AppData\Local\Temp\ccCR93IT.s 			page 6


 148              	LVL11:
  72:src/ReadBarcode.c **** 
 149              		.loc 1 72 2 view LVU50
 150 0086 89742404 		movl	%esi, 4(%esp)
 151 008a C7042427 		movl	$LC1, (%esp)
 151      000000
 152 0091 E8000000 		call	_printf
 152      00
 153              	LVL12:
  74:src/ReadBarcode.c **** 	return;
 154              		.loc 1 74 2 view LVU51
  74:src/ReadBarcode.c **** 	return;
 155              		.loc 1 74 12 is_stmt 0 view LVU52
 156 0096 89742404 		movl	%esi, 4(%esp)
 157 009a 891C24   		movl	%ebx, (%esp)
 158 009d E8000000 		call	_MultiFormatReader
 158      00
 159              	LVL13:
  75:src/ReadBarcode.c **** }
 160              		.loc 1 75 2 is_stmt 1 view LVU53
  76:src/ReadBarcode.c **** 
 161              		.loc 1 76 1 is_stmt 0 view LVU54
 162 00a2 83C414   		addl	$20, %esp
 163              	LCFI3:
 164              		.cfi_def_cfa_offset 12
 165 00a5 5B       		popl	%ebx
 166              	LCFI4:
 167              		.cfi_restore 3
 168              		.cfi_def_cfa_offset 8
 169              	LVL14:
  76:src/ReadBarcode.c **** 
 170              		.loc 1 76 1 view LVU55
 171 00a6 5E       		popl	%esi
 172              	LCFI5:
 173              		.cfi_restore 6
 174              		.cfi_def_cfa_offset 4
 175              	LVL15:
  76:src/ReadBarcode.c **** 
 176              		.loc 1 76 1 view LVU56
 177 00a7 C3       		ret
 178              		.cfi_endproc
 179              	LFE14:
 180              		.section .rdata,"dr"
 181              	LC2:
 182 0034 52657375 		.ascii "Result ReadBarcode : iv= %x\0"
 182      6C742052 
 182      65616442 
 182      6172636F 
 182      6465203A 
 183              	LC3:
 184 0050 2068696E 		.ascii " hints= %x\12\0"
 184      74733D20 
 184      25780A00 
 185              		.align 4
 186              	LC4:
 187 005c 61646472 		.ascii "address : %x , Width : %d , height : %d , format :  %x \12\0"
 187      65737320 
GAS LISTING C:\Users\jisu8\AppData\Local\Temp\ccCR93IT.s 			page 7


 187      3A202578 
 187      202C2057 
 187      69647468 
 188 0095 000000   		.text
 189              		.globl	_ReadBarcode
 191              	_ReadBarcode:
 192              	LVL16:
 193              	LFB13:
  31:src/ReadBarcode.c **** 	DecodeHints_t *hints;
 194              		.loc 1 31 1 is_stmt 1 view -0
 195              		.cfi_startproc
  31:src/ReadBarcode.c **** 	DecodeHints_t *hints;
 196              		.loc 1 31 1 is_stmt 0 view LVU58
 197 00a8 55       		pushl	%ebp
 198              	LCFI6:
 199              		.cfi_def_cfa_offset 8
 200              		.cfi_offset 5, -8
 201 00a9 57       		pushl	%edi
 202              	LCFI7:
 203              		.cfi_def_cfa_offset 12
 204              		.cfi_offset 7, -12
 205 00aa 56       		pushl	%esi
 206              	LCFI8:
 207              		.cfi_def_cfa_offset 16
 208              		.cfi_offset 6, -16
 209 00ab 53       		pushl	%ebx
 210              	LCFI9:
 211              		.cfi_def_cfa_offset 20
 212              		.cfi_offset 3, -20
 213 00ac 83EC4C   		subl	$76, %esp
 214              	LCFI10:
 215              		.cfi_def_cfa_offset 96
 216 00af 8B742464 		movl	100(%esp), %esi
 217 00b3 8B5C246C 		movl	108(%esp), %ebx
  32:src/ReadBarcode.c **** 	unsigned int rowStride,pixStride;
 218              		.loc 1 32 2 is_stmt 1 view LVU59
  33:src/ReadBarcode.c **** 	uint32_t idxRed,idxGreen,idxBlue;
 219              		.loc 1 33 2 view LVU60
  34:src/ReadBarcode.c **** 
 220              		.loc 1 34 2 view LVU61
  36:src/ReadBarcode.c **** 	hints = &DecodeHints;
 221              		.loc 1 36 2 view LVU62
 222 00b7 E844FFFF 		call	_DecodeHints_Init
 222      FF
 223              	LVL17:
  37:src/ReadBarcode.c **** 
 224              		.loc 1 37 2 view LVU63
  39:src/ReadBarcode.c **** 	printf(" hints= %x\n",hints);
 225              		.loc 1 39 5 view LVU64
 226 00bc 8D442460 		leal	96(%esp), %eax
 227              	LVL18:
  39:src/ReadBarcode.c **** 	printf(" hints= %x\n",hints);
 228              		.loc 1 39 5 is_stmt 0 view LVU65
 229 00c0 89442404 		movl	%eax, 4(%esp)
 230 00c4 C7042434 		movl	$LC2, (%esp)
 230      000000
 231 00cb E8000000 		call	_printf
GAS LISTING C:\Users\jisu8\AppData\Local\Temp\ccCR93IT.s 			page 8


 231      00
 232              	LVL19:
  40:src/ReadBarcode.c **** 
 233              		.loc 1 40 2 is_stmt 1 view LVU66
 234 00d0 C7442404 		movl	$_DecodeHints, 4(%esp)
 234      00000000 
 235 00d8 C7042450 		movl	$LC3, (%esp)
 235      000000
 236 00df E8000000 		call	_printf
 236      00
 237              	LVL20:
  42:src/ReadBarcode.c **** 	rowStride = width * pixStride;
 238              		.loc 1 42 2 view LVU67
  42:src/ReadBarcode.c **** 	rowStride = width * pixStride;
 239              		.loc 1 42 14 is_stmt 0 view LVU68
 240 00e4 89D8     		movl	%ebx, %eax
 241 00e6 E846FFFF 		call	_PixStride
 241      FF
 242              	LVL21:
 243 00eb 89C7     		movl	%eax, %edi
 244              	LVL22:
  43:src/ReadBarcode.c **** 	idxRed = RedIndex(ImageFormat);
 245              		.loc 1 43 2 is_stmt 1 view LVU69
  43:src/ReadBarcode.c **** 	idxRed = RedIndex(ImageFormat);
 246              		.loc 1 43 12 is_stmt 0 view LVU70
 247 00ed 89F5     		movl	%esi, %ebp
 248 00ef 0FAFE8   		imull	%eax, %ebp
 249              	LVL23:
  44:src/ReadBarcode.c **** 	idxGreen = GreenIndex(ImageFormat);
 250              		.loc 1 44 2 is_stmt 1 view LVU71
  44:src/ReadBarcode.c **** 	idxGreen = GreenIndex(ImageFormat);
 251              		.loc 1 44 11 is_stmt 0 view LVU72
 252 00f2 89D8     		movl	%ebx, %eax
 253              	LVL24:
  44:src/ReadBarcode.c **** 	idxGreen = GreenIndex(ImageFormat);
 254              		.loc 1 44 11 view LVU73
 255 00f4 E83CFFFF 		call	_RedIndex
 255      FF
 256              	LVL25:
 257 00f9 89442434 		movl	%eax, 52(%esp)
 258              	LVL26:
  45:src/ReadBarcode.c **** 	idxBlue = BlueIndex(ImageFormat);
 259              		.loc 1 45 2 is_stmt 1 view LVU74
  45:src/ReadBarcode.c **** 	idxBlue = BlueIndex(ImageFormat);
 260              		.loc 1 45 13 is_stmt 0 view LVU75
 261 00fd 89D8     		movl	%ebx, %eax
 262              	LVL27:
  45:src/ReadBarcode.c **** 	idxBlue = BlueIndex(ImageFormat);
 263              		.loc 1 45 13 view LVU76
 264 00ff E838FFFF 		call	_GreenIndex
 264      FF
 265              	LVL28:
 266 0104 89442438 		movl	%eax, 56(%esp)
 267              	LVL29:
  46:src/ReadBarcode.c **** 
 268              		.loc 1 46 2 is_stmt 1 view LVU77
  46:src/ReadBarcode.c **** 
GAS LISTING C:\Users\jisu8\AppData\Local\Temp\ccCR93IT.s 			page 9


 269              		.loc 1 46 12 is_stmt 0 view LVU78
 270 0108 89D8     		movl	%ebx, %eax
 271              	LVL30:
  46:src/ReadBarcode.c **** 
 272              		.loc 1 46 12 view LVU79
 273 010a E831FFFF 		call	_BlueIndex
 273      FF
 274              	LVL31:
 275 010f 8944243C 		movl	%eax, 60(%esp)
 276              	LVL32:
  48:src/ReadBarcode.c ****  
 277              		.loc 1 48 5 is_stmt 1 view LVU80
 278 0113 895C2410 		movl	%ebx, 16(%esp)
 279 0117 8B4C2468 		movl	104(%esp), %ecx
 280 011b 894C240C 		movl	%ecx, 12(%esp)
 281 011f 89742408 		movl	%esi, 8(%esp)
 282 0123 8B442460 		movl	96(%esp), %eax
 283              	LVL33:
  48:src/ReadBarcode.c ****  
 284              		.loc 1 48 5 is_stmt 0 view LVU81
 285 0127 89442404 		movl	%eax, 4(%esp)
 286 012b C704245C 		movl	$LC4, (%esp)
 286      000000
 287 0132 E8000000 		call	_printf
 287      00
 288              	LVL34:
  50:src/ReadBarcode.c **** 	ImageView.width = width; 
 289              		.loc 1 50 2 is_stmt 1 view LVU82
  50:src/ReadBarcode.c **** 	ImageView.width = width; 
 290              		.loc 1 50 19 is_stmt 0 view LVU83
 291 0137 8B54243C 		movl	60(%esp), %edx
 292 013b 89542424 		movl	%edx, 36(%esp)
 293 013f 8B4C2438 		movl	56(%esp), %ecx
 294 0143 894C2420 		movl	%ecx, 32(%esp)
 295 0147 8B442434 		movl	52(%esp), %eax
 296 014b 8944241C 		movl	%eax, 28(%esp)
 297 014f 897C2418 		movl	%edi, 24(%esp)
 298 0153 896C2414 		movl	%ebp, 20(%esp)
 299 0157 8B442460 		movl	96(%esp), %eax
 300 015b 89442410 		movl	%eax, 16(%esp)
 301 015f 8B442468 		movl	104(%esp), %eax
 302 0163 8944240C 		movl	%eax, 12(%esp)
 303 0167 89742408 		movl	%esi, 8(%esp)
 304 016b C7442404 		movl	$0, 4(%esp)
 304      00000000 
 305 0173 C7042400 		movl	$0, (%esp)
 305      000000
 306 017a E8000000 		call	_GenericLuminanceSource
 306      00
 307              	LVL35:
  50:src/ReadBarcode.c **** 	ImageView.width = width; 
 308              		.loc 1 50 17 view LVU84
 309 017f A3000000 		movl	%eax, _ImageView
 309      00
  51:src/ReadBarcode.c **** 	ImageView.height = height;
 310              		.loc 1 51 2 is_stmt 1 view LVU85
  51:src/ReadBarcode.c **** 	ImageView.height = height;
GAS LISTING C:\Users\jisu8\AppData\Local\Temp\ccCR93IT.s 			page 10


 311              		.loc 1 51 18 is_stmt 0 view LVU86
 312 0184 89350400 		movl	%esi, _ImageView+4
 312      0000
  52:src/ReadBarcode.c **** 	ImageView.format = ImageFormat; 
 313              		.loc 1 52 2 is_stmt 1 view LVU87
  52:src/ReadBarcode.c **** 	ImageView.format = ImageFormat; 
 314              		.loc 1 52 19 is_stmt 0 view LVU88
 315 018a 8B442468 		movl	104(%esp), %eax
 316 018e A3080000 		movl	%eax, _ImageView+8
 316      00
  53:src/ReadBarcode.c **** 	ImageView.rowStride = rowStride; 
 317              		.loc 1 53 2 is_stmt 1 view LVU89
  53:src/ReadBarcode.c **** 	ImageView.rowStride = rowStride; 
 318              		.loc 1 53 19 is_stmt 0 view LVU90
 319 0193 891D0C00 		movl	%ebx, _ImageView+12
 319      0000
  54:src/ReadBarcode.c **** 	ImageView.pixStride = pixStride;
 320              		.loc 1 54 2 is_stmt 1 view LVU91
  54:src/ReadBarcode.c **** 	ImageView.pixStride = pixStride;
 321              		.loc 1 54 22 is_stmt 0 view LVU92
 322 0199 892D1000 		movl	%ebp, _ImageView+16
 322      0000
  55:src/ReadBarcode.c **** 
 323              		.loc 1 55 2 is_stmt 1 view LVU93
  55:src/ReadBarcode.c **** 
 324              		.loc 1 55 22 is_stmt 0 view LVU94
 325 019f 893D1400 		movl	%edi, _ImageView+20
 325      0000
  57:src/ReadBarcode.c **** 	
 326              		.loc 1 57 2 is_stmt 1 view LVU95
 327 01a5 BA000000 		movl	$_DecodeHints, %edx
 327      00
 328 01aa B8000000 		movl	$_GenericLuminanceSource_, %eax
 328      00
 329 01af E890FEFF 		call	_ReadBarcode_Internal
 329      FF
 330              	LVL36:
  59:src/ReadBarcode.c **** }
 331              		.loc 1 59 5 view LVU96
  60:src/ReadBarcode.c **** 
 332              		.loc 1 60 1 is_stmt 0 view LVU97
 333 01b4 B8000000 		movl	$_ImageView, %eax
 333      00
 334 01b9 83C44C   		addl	$76, %esp
 335              	LCFI11:
 336              		.cfi_def_cfa_offset 20
 337 01bc 5B       		popl	%ebx
 338              	LCFI12:
 339              		.cfi_restore 3
 340              		.cfi_def_cfa_offset 16
 341 01bd 5E       		popl	%esi
 342              	LCFI13:
 343              		.cfi_restore 6
 344              		.cfi_def_cfa_offset 12
 345 01be 5F       		popl	%edi
 346              	LCFI14:
 347              		.cfi_restore 7
GAS LISTING C:\Users\jisu8\AppData\Local\Temp\ccCR93IT.s 			page 11


 348              		.cfi_def_cfa_offset 8
 349              	LVL37:
  60:src/ReadBarcode.c **** 
 350              		.loc 1 60 1 view LVU98
 351 01bf 5D       		popl	%ebp
 352              	LCFI15:
 353              		.cfi_restore 5
 354              		.cfi_def_cfa_offset 4
 355              	LVL38:
  60:src/ReadBarcode.c **** 
 356              		.loc 1 60 1 view LVU99
 357 01c0 C3       		ret
 358              		.cfi_endproc
 359              	LFE13:
 360              		.comm	_GenericLuminanceSource_, 24, 2
 361              		.comm	_DecodeHints, 20, 2
 362              		.comm	_ImageView, 24, 2
 363              	Letext0:
 364              		.file 2 "D:/3.tools/mingw/mingw32/i686-w64-mingw32/include/stdint.h"
 365              		.file 3 "D:/3.tools/mingw/mingw32/i686-w64-mingw32/include/stdio.h"
 366              		.file 4 "src/GenericLuminanceSource.h"
 367              		.file 5 "src/ReadBarcode.h"
 368              		.file 6 "src/BarcodeFormat.h"
 369              		.file 7 "src/DecodeHints.h"
 370              		.file 8 "src/MultiFormatReader.h"
 371 01c1 909090   		.section	.debug_info,"dr"
 372              	Ldebug_info0:
 373 0000 8F0A0000 		.long	0xa8f
 374 0004 0200     		.word	0x2
 375 0006 00000000 		.secrel32	Ldebug_abbrev0
 376 000a 04       		.byte	0x4
 377 000b 01       		.uleb128 0x1
 378 000c 474E5520 		.ascii "GNU C17 8.1.0 -mtune=generic -march=i686 -g -gdwarf-2 -Og\0"
 378      43313720 
 378      382E312E 
 378      30202D6D 
 378      74756E65 
 379 0046 0C       		.byte	0xc
 380 0047 7372632F 		.ascii "src/ReadBarcode.c\0"
 380      52656164 
 380      42617263 
 380      6F64652E 
 380      6300
 381 0059 443A5C31 		.ascii "D:\\1.Project_workspace\\PDF_BARCODE\0"
 381      2E50726F 
 381      6A656374 
 381      5F776F72 
 381      6B737061 
 382 007c 00000000 		.long	Ltext0
 383 0080 C1010000 		.long	Letext0
 384 0084 00000000 		.secrel32	Ldebug_line0
 385 0088 02       		.uleb128 0x2
 386 0089 01       		.byte	0x1
 387 008a 06       		.byte	0x6
 388 008b 63686172 		.ascii "char\0"
 388      00
 389 0090 02       		.uleb128 0x2
GAS LISTING C:\Users\jisu8\AppData\Local\Temp\ccCR93IT.s 			page 12


 390 0091 04       		.byte	0x4
 391 0092 07       		.byte	0x7
 392 0093 756E7369 		.ascii "unsigned int\0"
 392      676E6564 
 392      20696E74 
 392      00
 393 00a0 02       		.uleb128 0x2
 394 00a1 04       		.byte	0x4
 395 00a2 05       		.byte	0x5
 396 00a3 696E7400 		.ascii "int\0"
 397 00a7 02       		.uleb128 0x2
 398 00a8 02       		.byte	0x2
 399 00a9 07       		.byte	0x7
 400 00aa 73686F72 		.ascii "short unsigned int\0"
 400      7420756E 
 400      7369676E 
 400      65642069 
 400      6E7400
 401 00bd 02       		.uleb128 0x2
 402 00be 04       		.byte	0x4
 403 00bf 05       		.byte	0x5
 404 00c0 6C6F6E67 		.ascii "long int\0"
 404      20696E74 
 404      00
 405 00c9 02       		.uleb128 0x2
 406 00ca 08       		.byte	0x8
 407 00cb 05       		.byte	0x5
 408 00cc 6C6F6E67 		.ascii "long long int\0"
 408      206C6F6E 
 408      6720696E 
 408      7400
 409 00da 03       		.uleb128 0x3
 410 00db 04       		.byte	0x4
 411 00dc 88000000 		.long	0x88
 412 00e0 02       		.uleb128 0x2
 413 00e1 04       		.byte	0x4
 414 00e2 07       		.byte	0x7
 415 00e3 6C6F6E67 		.ascii "long unsigned int\0"
 415      20756E73 
 415      69676E65 
 415      6420696E 
 415      7400
 416 00f5 02       		.uleb128 0x2
 417 00f6 01       		.byte	0x1
 418 00f7 08       		.byte	0x8
 419 00f8 756E7369 		.ascii "unsigned char\0"
 419      676E6564 
 419      20636861 
 419      7200
 420 0106 02       		.uleb128 0x2
 421 0107 0C       		.byte	0xc
 422 0108 04       		.byte	0x4
 423 0109 6C6F6E67 		.ascii "long double\0"
 423      20646F75 
 423      626C6500 
 424 0115 02       		.uleb128 0x2
 425 0116 10       		.byte	0x10
GAS LISTING C:\Users\jisu8\AppData\Local\Temp\ccCR93IT.s 			page 13


 426 0117 04       		.byte	0x4
 427 0118 5F466C6F 		.ascii "_Float128\0"
 427      61743132 
 427      3800
 428 0122 02       		.uleb128 0x2
 429 0123 01       		.byte	0x1
 430 0124 06       		.byte	0x6
 431 0125 7369676E 		.ascii "signed char\0"
 431      65642063 
 431      68617200 
 432 0131 04       		.uleb128 0x4
 433 0132 75696E74 		.ascii "uint8_t\0"
 433      385F7400 
 434 013a 02       		.byte	0x2
 435 013b 24       		.byte	0x24
 436 013c 19       		.byte	0x19
 437 013d F5000000 		.long	0xf5
 438 0141 02       		.uleb128 0x2
 439 0142 02       		.byte	0x2
 440 0143 05       		.byte	0x5
 441 0144 73686F72 		.ascii "short int\0"
 441      7420696E 
 441      7400
 442 014e 04       		.uleb128 0x4
 443 014f 75696E74 		.ascii "uint32_t\0"
 443      33325F74 
 443      00
 444 0158 02       		.byte	0x2
 445 0159 28       		.byte	0x28
 446 015a 14       		.byte	0x14
 447 015b 90000000 		.long	0x90
 448 015f 04       		.uleb128 0x4
 449 0160 75696E74 		.ascii "uint64_t\0"
 449      36345F74 
 449      00
 450 0169 02       		.byte	0x2
 451 016a 2A       		.byte	0x2a
 452 016b 30       		.byte	0x30
 453 016c 70010000 		.long	0x170
 454 0170 02       		.uleb128 0x2
 455 0171 08       		.byte	0x8
 456 0172 07       		.byte	0x7
 457 0173 6C6F6E67 		.ascii "long long unsigned int\0"
 457      206C6F6E 
 457      6720756E 
 457      7369676E 
 457      65642069 
 458 018a 05       		.uleb128 0x5
 459 018b 5F696F62 		.ascii "_iobuf\0"
 459      756600
 460 0192 20       		.byte	0x20
 461 0193 03       		.byte	0x3
 462 0194 1A       		.byte	0x1a
 463 0195 0A       		.byte	0xa
 464 0196 2A020000 		.long	0x22a
 465 019a 06       		.uleb128 0x6
 466 019b 5F707472 		.ascii "_ptr\0"
GAS LISTING C:\Users\jisu8\AppData\Local\Temp\ccCR93IT.s 			page 14


 466      00
 467 01a0 03       		.byte	0x3
 468 01a1 1B       		.byte	0x1b
 469 01a2 0B       		.byte	0xb
 470 01a3 DA000000 		.long	0xda
 471 01a7 02       		.byte	0x2
 472 01a8 23       		.byte	0x23
 473 01a9 00       		.uleb128 0
 474 01aa 06       		.uleb128 0x6
 475 01ab 5F636E74 		.ascii "_cnt\0"
 475      00
 476 01b0 03       		.byte	0x3
 477 01b1 1C       		.byte	0x1c
 478 01b2 09       		.byte	0x9
 479 01b3 A0000000 		.long	0xa0
 480 01b7 02       		.byte	0x2
 481 01b8 23       		.byte	0x23
 482 01b9 04       		.uleb128 0x4
 483 01ba 06       		.uleb128 0x6
 484 01bb 5F626173 		.ascii "_base\0"
 484      6500
 485 01c1 03       		.byte	0x3
 486 01c2 1D       		.byte	0x1d
 487 01c3 0B       		.byte	0xb
 488 01c4 DA000000 		.long	0xda
 489 01c8 02       		.byte	0x2
 490 01c9 23       		.byte	0x23
 491 01ca 08       		.uleb128 0x8
 492 01cb 06       		.uleb128 0x6
 493 01cc 5F666C61 		.ascii "_flag\0"
 493      6700
 494 01d2 03       		.byte	0x3
 495 01d3 1E       		.byte	0x1e
 496 01d4 09       		.byte	0x9
 497 01d5 A0000000 		.long	0xa0
 498 01d9 02       		.byte	0x2
 499 01da 23       		.byte	0x23
 500 01db 0C       		.uleb128 0xc
 501 01dc 06       		.uleb128 0x6
 502 01dd 5F66696C 		.ascii "_file\0"
 502      6500
 503 01e3 03       		.byte	0x3
 504 01e4 1F       		.byte	0x1f
 505 01e5 09       		.byte	0x9
 506 01e6 A0000000 		.long	0xa0
 507 01ea 02       		.byte	0x2
 508 01eb 23       		.byte	0x23
 509 01ec 10       		.uleb128 0x10
 510 01ed 06       		.uleb128 0x6
 511 01ee 5F636861 		.ascii "_charbuf\0"
 511      72627566 
 511      00
 512 01f7 03       		.byte	0x3
 513 01f8 20       		.byte	0x20
 514 01f9 09       		.byte	0x9
 515 01fa A0000000 		.long	0xa0
 516 01fe 02       		.byte	0x2
GAS LISTING C:\Users\jisu8\AppData\Local\Temp\ccCR93IT.s 			page 15


 517 01ff 23       		.byte	0x23
 518 0200 14       		.uleb128 0x14
 519 0201 06       		.uleb128 0x6
 520 0202 5F627566 		.ascii "_bufsiz\0"
 520      73697A00 
 521 020a 03       		.byte	0x3
 522 020b 21       		.byte	0x21
 523 020c 09       		.byte	0x9
 524 020d A0000000 		.long	0xa0
 525 0211 02       		.byte	0x2
 526 0212 23       		.byte	0x23
 527 0213 18       		.uleb128 0x18
 528 0214 06       		.uleb128 0x6
 529 0215 5F746D70 		.ascii "_tmpfname\0"
 529      666E616D 
 529      6500
 530 021f 03       		.byte	0x3
 531 0220 22       		.byte	0x22
 532 0221 0B       		.byte	0xb
 533 0222 DA000000 		.long	0xda
 534 0226 02       		.byte	0x2
 535 0227 23       		.byte	0x23
 536 0228 1C       		.uleb128 0x1c
 537 0229 00       		.byte	0
 538 022a 04       		.uleb128 0x4
 539 022b 46494C45 		.ascii "FILE\0"
 539      00
 540 0230 03       		.byte	0x3
 541 0231 24       		.byte	0x24
 542 0232 19       		.byte	0x19
 543 0233 8A010000 		.long	0x18a
 544 0237 07       		.uleb128 0x7
 545 0238 2A020000 		.long	0x22a
 546 023c 42020000 		.long	0x242
 547 0240 08       		.uleb128 0x8
 548 0241 00       		.byte	0
 549 0242 09       		.uleb128 0x9
 550 0243 5F696D70 		.ascii "_imp___iob\0"
 550      5F5F5F69 
 550      6F6200
 551 024e 03       		.byte	0x3
 552 024f 5C       		.byte	0x5c
 553 0250 10       		.byte	0x10
 554 0251 57020000 		.long	0x257
 555 0255 01       		.byte	0x1
 556 0256 01       		.byte	0x1
 557 0257 03       		.uleb128 0x3
 558 0258 04       		.byte	0x4
 559 0259 37020000 		.long	0x237
 560 025d 0A       		.uleb128 0xa
 561 025e 18       		.byte	0x18
 562 025f 04       		.byte	0x4
 563 0260 06       		.byte	0x6
 564 0261 09       		.byte	0x9
 565 0262 CC020000 		.long	0x2cc
 566 0266 06       		.uleb128 0x6
 567 0267 70697865 		.ascii "pixels\0"
GAS LISTING C:\Users\jisu8\AppData\Local\Temp\ccCR93IT.s 			page 16


 567      6C7300
 568 026e 04       		.byte	0x4
 569 026f 08       		.byte	0x8
 570 0270 15       		.byte	0x15
 571 0271 CC020000 		.long	0x2cc
 572 0275 02       		.byte	0x2
 573 0276 23       		.byte	0x23
 574 0277 00       		.uleb128 0
 575 0278 06       		.uleb128 0x6
 576 0279 6C656674 		.ascii "left\0"
 576      00
 577 027e 04       		.byte	0x4
 578 027f 09       		.byte	0x9
 579 0280 09       		.byte	0x9
 580 0281 A0000000 		.long	0xa0
 581 0285 02       		.byte	0x2
 582 0286 23       		.byte	0x23
 583 0287 04       		.uleb128 0x4
 584 0288 06       		.uleb128 0x6
 585 0289 746F7000 		.ascii "top\0"
 586 028d 04       		.byte	0x4
 587 028e 0A       		.byte	0xa
 588 028f 09       		.byte	0x9
 589 0290 A0000000 		.long	0xa0
 590 0294 02       		.byte	0x2
 591 0295 23       		.byte	0x23
 592 0296 08       		.uleb128 0x8
 593 0297 06       		.uleb128 0x6
 594 0298 77696474 		.ascii "width\0"
 594      6800
 595 029e 04       		.byte	0x4
 596 029f 0B       		.byte	0xb
 597 02a0 09       		.byte	0x9
 598 02a1 A0000000 		.long	0xa0
 599 02a5 02       		.byte	0x2
 600 02a6 23       		.byte	0x23
 601 02a7 0C       		.uleb128 0xc
 602 02a8 0B       		.uleb128 0xb
 603 02a9 35000000 		.secrel32	LASF0
 604 02ad 04       		.byte	0x4
 605 02ae 0C       		.byte	0xc
 606 02af 09       		.byte	0x9
 607 02b0 A0000000 		.long	0xa0
 608 02b4 02       		.byte	0x2
 609 02b5 23       		.byte	0x23
 610 02b6 10       		.uleb128 0x10
 611 02b7 06       		.uleb128 0x6
 612 02b8 726F7742 		.ascii "rowBytes\0"
 612      79746573 
 612      00
 613 02c1 04       		.byte	0x4
 614 02c2 0D       		.byte	0xd
 615 02c3 09       		.byte	0x9
 616 02c4 A0000000 		.long	0xa0
 617 02c8 02       		.byte	0x2
 618 02c9 23       		.byte	0x23
 619 02ca 14       		.uleb128 0x14
GAS LISTING C:\Users\jisu8\AppData\Local\Temp\ccCR93IT.s 			page 17


 620 02cb 00       		.byte	0
 621 02cc 03       		.uleb128 0x3
 622 02cd 04       		.byte	0x4
 623 02ce F5000000 		.long	0xf5
 624 02d2 04       		.uleb128 0x4
 625 02d3 47656E65 		.ascii "GenericLuminanceSource_t\0"
 625      7269634C 
 625      756D696E 
 625      616E6365 
 625      536F7572 
 626 02ec 04       		.byte	0x4
 627 02ed 0E       		.byte	0xe
 628 02ee 02       		.byte	0x2
 629 02ef 5D020000 		.long	0x25d
 630 02f3 0C       		.uleb128 0xc
 631 02f4 07       		.byte	0x7
 632 02f5 04       		.byte	0x4
 633 02f6 90000000 		.long	0x90
 634 02fa 05       		.byte	0x5
 635 02fb 08       		.byte	0x8
 636 02fc 01       		.byte	0x1
 637 02fd 4C030000 		.long	0x34c
 638 0301 0D       		.uleb128 0xd
 639 0302 4E6F6E65 		.ascii "None\0"
 639      00
 640 0307 00       		.byte	0
 641 0308 0E       		.uleb128 0xe
 642 0309 4C756D00 		.ascii "Lum\0"
 643 030d 00000001 		.long	0x1000000
 644 0311 0E       		.uleb128 0xe
 645 0312 52474200 		.ascii "RGB\0"
 646 0316 02010003 		.long	0x3000102
 647 031a 0E       		.uleb128 0xe
 648 031b 42475200 		.ascii "BGR\0"
 649 031f 00010203 		.long	0x3020100
 650 0323 0E       		.uleb128 0xe
 651 0324 52474258 		.ascii "RGBX\0"
 651      00
 652 0329 02010004 		.long	0x4000102
 653 032d 0E       		.uleb128 0xe
 654 032e 58524742 		.ascii "XRGB\0"
 654      00
 655 0333 03020104 		.long	0x4010203
 656 0337 0E       		.uleb128 0xe
 657 0338 42475258 		.ascii "BGRX\0"
 657      00
 658 033d 00010204 		.long	0x4020100
 659 0341 0E       		.uleb128 0xe
 660 0342 58424752 		.ascii "XBGR\0"
 660      00
 661 0347 01020304 		.long	0x4030201
 662 034b 00       		.byte	0
 663 034c 04       		.uleb128 0x4
 664 034d 496D6167 		.ascii "ImageFormat_t\0"
 664      65466F72 
 664      6D61745F 
 664      7400
GAS LISTING C:\Users\jisu8\AppData\Local\Temp\ccCR93IT.s 			page 18


 665 035b 05       		.byte	0x5
 666 035c 11       		.byte	0x11
 667 035d 02       		.byte	0x2
 668 035e F3020000 		.long	0x2f3
 669 0362 0A       		.uleb128 0xa
 670 0363 18       		.byte	0x18
 671 0364 05       		.byte	0x5
 672 0365 13       		.byte	0x13
 673 0366 09       		.byte	0x9
 674 0367 C9030000 		.long	0x3c9
 675 036b 06       		.uleb128 0x6
 676 036c 64617461 		.ascii "data\0"
 676      00
 677 0371 05       		.byte	0x5
 678 0372 15       		.byte	0x15
 679 0373 0B       		.byte	0xb
 680 0374 C9030000 		.long	0x3c9
 681 0378 02       		.byte	0x2
 682 0379 23       		.byte	0x23
 683 037a 00       		.uleb128 0
 684 037b 06       		.uleb128 0x6
 685 037c 77696474 		.ascii "width\0"
 685      6800
 686 0382 05       		.byte	0x5
 687 0383 16       		.byte	0x16
 688 0384 06       		.byte	0x6
 689 0385 A0000000 		.long	0xa0
 690 0389 02       		.byte	0x2
 691 038a 23       		.byte	0x23
 692 038b 04       		.uleb128 0x4
 693 038c 0B       		.uleb128 0xb
 694 038d 35000000 		.secrel32	LASF0
 695 0391 05       		.byte	0x5
 696 0392 17       		.byte	0x17
 697 0393 06       		.byte	0x6
 698 0394 A0000000 		.long	0xa0
 699 0398 02       		.byte	0x2
 700 0399 23       		.byte	0x23
 701 039a 08       		.uleb128 0x8
 702 039b 0B       		.uleb128 0xb
 703 039c 3C000000 		.secrel32	LASF1
 704 03a0 05       		.byte	0x5
 705 03a1 18       		.byte	0x18
 706 03a2 10       		.byte	0x10
 707 03a3 4C030000 		.long	0x34c
 708 03a7 02       		.byte	0x2
 709 03a8 23       		.byte	0x23
 710 03a9 0C       		.uleb128 0xc
 711 03aa 0B       		.uleb128 0xb
 712 03ab 4D000000 		.secrel32	LASF2
 713 03af 05       		.byte	0x5
 714 03b0 19       		.byte	0x19
 715 03b1 06       		.byte	0x6
 716 03b2 A0000000 		.long	0xa0
 717 03b6 02       		.byte	0x2
 718 03b7 23       		.byte	0x23
 719 03b8 10       		.uleb128 0x10
GAS LISTING C:\Users\jisu8\AppData\Local\Temp\ccCR93IT.s 			page 19


 720 03b9 0B       		.uleb128 0xb
 721 03ba 43000000 		.secrel32	LASF3
 722 03be 05       		.byte	0x5
 723 03bf 1A       		.byte	0x1a
 724 03c0 06       		.byte	0x6
 725 03c1 A0000000 		.long	0xa0
 726 03c5 02       		.byte	0x2
 727 03c6 23       		.byte	0x23
 728 03c7 14       		.uleb128 0x14
 729 03c8 00       		.byte	0
 730 03c9 03       		.uleb128 0x3
 731 03ca 04       		.byte	0x4
 732 03cb 31010000 		.long	0x131
 733 03cf 04       		.uleb128 0x4
 734 03d0 496D6167 		.ascii "ImageView_t\0"
 734      65566965 
 734      775F7400 
 735 03dc 05       		.byte	0x5
 736 03dd 1B       		.byte	0x1b
 737 03de 02       		.byte	0x2
 738 03df 62030000 		.long	0x362
 739 03e3 0C       		.uleb128 0xc
 740 03e4 07       		.byte	0x7
 741 03e5 04       		.byte	0x4
 742 03e6 90000000 		.long	0x90
 743 03ea 06       		.byte	0x6
 744 03eb 04       		.byte	0x4
 745 03ec 01       		.byte	0x1
 746 03ed B9040000 		.long	0x4b9
 747 03f1 0D       		.uleb128 0xd
 748 03f2 4E4F4E45 		.ascii "NONE\0"
 748      00
 749 03f7 00       		.byte	0
 750 03f8 0D       		.uleb128 0xd
 751 03f9 417A7465 		.ascii "Aztec\0"
 751      6300
 752 03ff 01       		.byte	0x1
 753 0400 0D       		.uleb128 0xd
 754 0401 436F6461 		.ascii "Codabar\0"
 754      62617200 
 755 0409 02       		.byte	0x2
 756 040a 0D       		.uleb128 0xd
 757 040b 436F6465 		.ascii "Code39\0"
 757      333900
 758 0412 04       		.byte	0x4
 759 0413 0D       		.uleb128 0xd
 760 0414 436F6465 		.ascii "Code93\0"
 760      393300
 761 041b 08       		.byte	0x8
 762 041c 0D       		.uleb128 0xd
 763 041d 436F6465 		.ascii "Code128\0"
 763      31323800 
 764 0425 10       		.byte	0x10
 765 0426 0D       		.uleb128 0xd
 766 0427 44617461 		.ascii "DataBar\0"
 766      42617200 
 767 042f 20       		.byte	0x20
GAS LISTING C:\Users\jisu8\AppData\Local\Temp\ccCR93IT.s 			page 20


 768 0430 0D       		.uleb128 0xd
 769 0431 44617461 		.ascii "DataBarExpanded\0"
 769      42617245 
 769      7870616E 
 769      64656400 
 770 0441 40       		.byte	0x40
 771 0442 0D       		.uleb128 0xd
 772 0443 44617461 		.ascii "DataMatrix\0"
 772      4D617472 
 772      697800
 773 044e 80       		.byte	0x80
 774 044f 0F       		.uleb128 0xf
 775 0450 45414E38 		.ascii "EAN8\0"
 775      00
 776 0455 0001     		.word	0x100
 777 0457 0F       		.uleb128 0xf
 778 0458 45414E31 		.ascii "EAN13\0"
 778      3300
 779 045e 0002     		.word	0x200
 780 0460 0F       		.uleb128 0xf
 781 0461 49544600 		.ascii "ITF\0"
 782 0465 0004     		.word	0x400
 783 0467 0F       		.uleb128 0xf
 784 0468 4D617869 		.ascii "MaxiCode\0"
 784      436F6465 
 784      00
 785 0471 0008     		.word	0x800
 786 0473 0F       		.uleb128 0xf
 787 0474 50444634 		.ascii "PDF417\0"
 787      313700
 788 047b 0010     		.word	0x1000
 789 047d 0F       		.uleb128 0xf
 790 047e 5152436F 		.ascii "QRCode\0"
 790      646500
 791 0485 0020     		.word	0x2000
 792 0487 0F       		.uleb128 0xf
 793 0488 55504341 		.ascii "UPCA\0"
 793      00
 794 048d 0040     		.word	0x4000
 795 048f 0F       		.uleb128 0xf
 796 0490 55504345 		.ascii "UPCE\0"
 796      00
 797 0495 0080     		.word	0x8000
 798 0497 0F       		.uleb128 0xf
 799 0498 4F6E6544 		.ascii "OneDCodes\0"
 799      436F6465 
 799      7300
 800 04a2 7EC7     		.word	0xc77e
 801 04a4 0F       		.uleb128 0xf
 802 04a5 54776F44 		.ascii "TwoDCodes\0"
 802      436F6465 
 802      7300
 803 04af 8138     		.word	0x3881
 804 04b1 0F       		.uleb128 0xf
 805 04b2 416E7900 		.ascii "Any\0"
 806 04b6 FFFF     		.word	0xffff
 807 04b8 00       		.byte	0
GAS LISTING C:\Users\jisu8\AppData\Local\Temp\ccCR93IT.s 			page 21


 808 04b9 04       		.uleb128 0x4
 809 04ba 42617263 		.ascii "BarcodeFormats_t\0"
 809      6F646546 
 809      6F726D61 
 809      74735F74 
 809      00
 810 04cb 06       		.byte	0x6
 811 04cc 1D       		.byte	0x1d
 812 04cd 02       		.byte	0x2
 813 04ce E3030000 		.long	0x3e3
 814 04d2 0C       		.uleb128 0xc
 815 04d3 07       		.byte	0x7
 816 04d4 04       		.byte	0x4
 817 04d5 90000000 		.long	0x90
 818 04d9 07       		.byte	0x7
 819 04da 08       		.byte	0x8
 820 04db 01       		.byte	0x1
 821 04dc 02050000 		.long	0x502
 822 04e0 0D       		.uleb128 0xd
 823 04e1 4C6F6361 		.ascii "LocalAverage\0"
 823      6C417665 
 823      72616765 
 823      00
 824 04ee 00       		.byte	0
 825 04ef 0D       		.uleb128 0xd
 826 04f0 476C6F62 		.ascii "GlobalHistogram\0"
 826      616C4869 
 826      73746F67 
 826      72616D00 
 827 0500 01       		.byte	0x1
 828 0501 00       		.byte	0
 829 0502 04       		.uleb128 0x4
 830 0503 42696E61 		.ascii "Binarizer_t\0"
 830      72697A65 
 830      725F7400 
 831 050f 07       		.byte	0x7
 832 0510 0B       		.byte	0xb
 833 0511 02       		.byte	0x2
 834 0512 D2040000 		.long	0x4d2
 835 0516 10       		.uleb128 0x10
 836 0517 29000000 		.secrel32	LASF4
 837 051b 14       		.byte	0x14
 838 051c 07       		.byte	0x7
 839 051d 0D       		.byte	0xd
 840 051e 10       		.byte	0x10
 841 051f DB050000 		.long	0x5db
 842 0523 06       		.uleb128 0x6
 843 0524 74727948 		.ascii "tryHarder\0"
 843      61726465 
 843      7200
 844 052e 07       		.byte	0x7
 845 052f 0F       		.byte	0xf
 846 0530 0A       		.byte	0xa
 847 0531 31010000 		.long	0x131
 848 0535 02       		.byte	0x2
 849 0536 23       		.byte	0x23
 850 0537 00       		.uleb128 0
GAS LISTING C:\Users\jisu8\AppData\Local\Temp\ccCR93IT.s 			page 22


 851 0538 06       		.uleb128 0x6
 852 0539 74727952 		.ascii "tryRotate\0"
 852      6F746174 
 852      6500
 853 0543 07       		.byte	0x7
 854 0544 10       		.byte	0x10
 855 0545 0A       		.byte	0xa
 856 0546 31010000 		.long	0x131
 857 054a 02       		.byte	0x2
 858 054b 23       		.byte	0x23
 859 054c 01       		.uleb128 0x1
 860 054d 06       		.uleb128 0x6
 861 054e 69735075 		.ascii "isPure\0"
 861      726500
 862 0555 07       		.byte	0x7
 863 0556 11       		.byte	0x11
 864 0557 0A       		.byte	0xa
 865 0558 31010000 		.long	0x131
 866 055c 02       		.byte	0x2
 867 055d 23       		.byte	0x23
 868 055e 02       		.uleb128 0x2
 869 055f 06       		.uleb128 0x6
 870 0560 72657475 		.ascii "returnCodabarStartEnd\0"
 870      726E436F 
 870      64616261 
 870      72537461 
 870      7274456E 
 871 0576 07       		.byte	0x7
 872 0577 12       		.byte	0x12
 873 0578 0A       		.byte	0xa
 874 0579 31010000 		.long	0x131
 875 057d 02       		.byte	0x2
 876 057e 23       		.byte	0x23
 877 057f 03       		.uleb128 0x3
 878 0580 06       		.uleb128 0x6
 879 0581 42696E61 		.ascii "Binarizer\0"
 879      72697A65 
 879      7200
 880 058b 07       		.byte	0x7
 881 058c 13       		.byte	0x13
 882 058d 0E       		.byte	0xe
 883 058e 02050000 		.long	0x502
 884 0592 02       		.byte	0x2
 885 0593 23       		.byte	0x23
 886 0594 04       		.uleb128 0x4
 887 0595 06       		.uleb128 0x6
 888 0596 666F726D 		.ascii "formats\0"
 888      61747300 
 889 059e 07       		.byte	0x7
 890 059f 14       		.byte	0x14
 891 05a0 13       		.byte	0x13
 892 05a1 B9040000 		.long	0x4b9
 893 05a5 02       		.byte	0x2
 894 05a6 23       		.byte	0x23
 895 05a7 08       		.uleb128 0x8
 896 05a8 06       		.uleb128 0x6
 897 05a9 63686172 		.ascii "characterSet\0"
GAS LISTING C:\Users\jisu8\AppData\Local\Temp\ccCR93IT.s 			page 23


 897      61637465 
 897      72536574 
 897      00
 898 05b6 07       		.byte	0x7
 899 05b7 15       		.byte	0x15
 900 05b8 0D       		.byte	0xd
 901 05b9 DB050000 		.long	0x5db
 902 05bd 02       		.byte	0x2
 903 05be 23       		.byte	0x23
 904 05bf 0C       		.uleb128 0xc
 905 05c0 06       		.uleb128 0x6
 906 05c1 616C6C6F 		.ascii "allowedLengths\0"
 906      7765644C 
 906      656E6774 
 906      687300
 907 05d0 07       		.byte	0x7
 908 05d1 16       		.byte	0x16
 909 05d2 0D       		.byte	0xd
 910 05d3 DB050000 		.long	0x5db
 911 05d7 02       		.byte	0x2
 912 05d8 23       		.byte	0x23
 913 05d9 10       		.uleb128 0x10
 914 05da 00       		.byte	0
 915 05db 03       		.uleb128 0x3
 916 05dc 04       		.byte	0x4
 917 05dd 5F010000 		.long	0x15f
 918 05e1 04       		.uleb128 0x4
 919 05e2 4465636F 		.ascii "DecodeHints_t\0"
 919      64654869 
 919      6E74735F 
 919      7400
 920 05f0 07       		.byte	0x7
 921 05f1 17       		.byte	0x17
 922 05f2 02       		.byte	0x2
 923 05f3 16050000 		.long	0x516
 924 05f7 11       		.uleb128 0x11
 925 05f8 E1050000 		.long	0x5e1
 926 05fc 12       		.uleb128 0x12
 927 05fd 496D6167 		.ascii "ImageView\0"
 927      65566965 
 927      7700
 928 0607 01       		.byte	0x1
 929 0608 13       		.byte	0x13
 930 0609 0D       		.byte	0xd
 931 060a CF030000 		.long	0x3cf
 932 060e 01       		.byte	0x1
 933 060f 05       		.byte	0x5
 934 0610 03       		.byte	0x3
 935 0611 00000000 		.long	_ImageView
 936 0615 13       		.uleb128 0x13
 937 0616 29000000 		.secrel32	LASF4
 938 061a 01       		.byte	0x1
 939 061b 14       		.byte	0x14
 940 061c 0F       		.byte	0xf
 941 061d E1050000 		.long	0x5e1
 942 0621 01       		.byte	0x1
 943 0622 05       		.byte	0x5
GAS LISTING C:\Users\jisu8\AppData\Local\Temp\ccCR93IT.s 			page 24


 944 0623 03       		.byte	0x3
 945 0624 00000000 		.long	_DecodeHints
 946 0628 12       		.uleb128 0x12
 947 0629 47656E65 		.ascii "GenericLuminanceSource_\0"
 947      7269634C 
 947      756D696E 
 947      616E6365 
 947      536F7572 
 948 0641 01       		.byte	0x1
 949 0642 15       		.byte	0x15
 950 0643 1A       		.byte	0x1a
 951 0644 D2020000 		.long	0x2d2
 952 0648 01       		.byte	0x1
 953 0649 05       		.byte	0x5
 954 064a 03       		.byte	0x3
 955 064b 00000000 		.long	_GenericLuminanceSource_
 956 064f 14       		.uleb128 0x14
 957 0650 426C7565 		.ascii "BlueIndex\0"
 957      496E6465 
 957      7800
 958 065a 01       		.byte	0x1
 959 065b 64       		.byte	0x64
 960 065c 0C       		.byte	0xc
 961 065d 01       		.byte	0x1
 962 065e A0000000 		.long	0xa0
 963 0662 40000000 		.long	LFB19
 964 0666 44000000 		.long	LFE19
 965 066a 02       		.byte	0x2
 966 066b 74       		.byte	0x74
 967 066c 04       		.sleb128 4
 968 066d 01       		.byte	0x1
 969 066e 87060000 		.long	0x687
 970 0672 15       		.uleb128 0x15
 971 0673 3C000000 		.secrel32	LASF1
 972 0677 01       		.byte	0x1
 973 0678 64       		.byte	0x64
 974 0679 23       		.byte	0x23
 975 067a 90000000 		.long	0x90
 976 067e 04000000 		.secrel32	LLST3
 977 0682 00000000 		.secrel32	LVUS3
 978 0686 00       		.byte	0
 979 0687 14       		.uleb128 0x14
 980 0688 47726565 		.ascii "GreenIndex\0"
 980      6E496E64 
 980      657800
 981 0693 01       		.byte	0x1
 982 0694 60       		.byte	0x60
 983 0695 0C       		.byte	0xc
 984 0696 01       		.byte	0x1
 985 0697 A0000000 		.long	0xa0
 986 069b 3C000000 		.long	LFB18
 987 069f 40000000 		.long	LFE18
 988 06a3 02       		.byte	0x2
 989 06a4 74       		.byte	0x74
 990 06a5 04       		.sleb128 4
 991 06a6 01       		.byte	0x1
 992 06a7 C0060000 		.long	0x6c0
GAS LISTING C:\Users\jisu8\AppData\Local\Temp\ccCR93IT.s 			page 25


 993 06ab 15       		.uleb128 0x15
 994 06ac 3C000000 		.secrel32	LASF1
 995 06b0 01       		.byte	0x1
 996 06b1 60       		.byte	0x60
 997 06b2 24       		.byte	0x24
 998 06b3 90000000 		.long	0x90
 999 06b7 29000000 		.secrel32	LLST2
 1000 06bb 25000000 		.secrel32	LVUS2
 1001 06bf 00       		.byte	0
 1002 06c0 14       		.uleb128 0x14
 1003 06c1 52656449 		.ascii "RedIndex\0"
 1003      6E646578 
 1003      00
 1004 06ca 01       		.byte	0x1
 1005 06cb 5C       		.byte	0x5c
 1006 06cc 0C       		.byte	0xc
 1007 06cd 01       		.byte	0x1
 1008 06ce A0000000 		.long	0xa0
 1009 06d2 35000000 		.long	LFB17
 1010 06d6 3C000000 		.long	LFE17
 1011 06da 02       		.byte	0x2
 1012 06db 74       		.byte	0x74
 1013 06dc 04       		.sleb128 4
 1014 06dd 01       		.byte	0x1
 1015 06de F7060000 		.long	0x6f7
 1016 06e2 15       		.uleb128 0x15
 1017 06e3 3C000000 		.secrel32	LASF1
 1018 06e7 01       		.byte	0x1
 1019 06e8 5C       		.byte	0x5c
 1020 06e9 22       		.byte	0x22
 1021 06ea 90000000 		.long	0x90
 1022 06ee 4E000000 		.secrel32	LLST1
 1023 06f2 4A000000 		.secrel32	LVUS1
 1024 06f6 00       		.byte	0
 1025 06f7 14       		.uleb128 0x14
 1026 06f8 50697853 		.ascii "PixStride\0"
 1026      74726964 
 1026      6500
 1027 0702 01       		.byte	0x1
 1028 0703 58       		.byte	0x58
 1029 0704 0C       		.byte	0xc
 1030 0705 01       		.byte	0x1
 1031 0706 A0000000 		.long	0xa0
 1032 070a 31000000 		.long	LFB16
 1033 070e 35000000 		.long	LFE16
 1034 0712 02       		.byte	0x2
 1035 0713 74       		.byte	0x74
 1036 0714 04       		.sleb128 4
 1037 0715 01       		.byte	0x1
 1038 0716 2F070000 		.long	0x72f
 1039 071a 15       		.uleb128 0x15
 1040 071b 3C000000 		.secrel32	LASF1
 1041 071f 01       		.byte	0x1
 1042 0720 58       		.byte	0x58
 1043 0721 23       		.byte	0x23
 1044 0722 90000000 		.long	0x90
 1045 0726 73000000 		.secrel32	LLST0
GAS LISTING C:\Users\jisu8\AppData\Local\Temp\ccCR93IT.s 			page 26


 1046 072a 6F000000 		.secrel32	LVUS0
 1047 072e 00       		.byte	0
 1048 072f 16       		.uleb128 0x16
 1049 0730 4465636F 		.ascii "DecodeHints_Init\0"
 1049      64654869 
 1049      6E74735F 
 1049      496E6974 
 1049      00
 1050 0741 01       		.byte	0x1
 1051 0742 4E       		.byte	0x4e
 1052 0743 0D       		.byte	0xd
 1053 0744 01       		.byte	0x1
 1054 0745 00000000 		.long	LFB15
 1055 0749 31000000 		.long	LFE15
 1056 074d 02       		.byte	0x2
 1057 074e 74       		.byte	0x74
 1058 074f 04       		.sleb128 4
 1059 0750 01       		.byte	0x1
 1060 0751 17       		.uleb128 0x17
 1061 0752 52656164 		.ascii "ReadBarcode_Internal\0"
 1061      42617263 
 1061      6F64655F 
 1061      496E7465 
 1061      726E616C 
 1062 0767 01       		.byte	0x1
 1063 0768 3E       		.byte	0x3e
 1064 0769 0D       		.byte	0xd
 1065 076a 01       		.byte	0x1
 1066 076b 44000000 		.long	LFB14
 1067 076f A8000000 		.long	LFE14
 1068 0773 94000000 		.secrel32	LLST4
 1069 0777 01       		.byte	0x1
 1070 0778 10080000 		.long	0x810
 1071 077c 18       		.uleb128 0x18
 1072 077d 736F7572 		.ascii "source\0"
 1072      636500
 1073 0784 01       		.byte	0x1
 1074 0785 3E       		.byte	0x3e
 1075 0786 3C       		.byte	0x3c
 1076 0787 10080000 		.long	0x810
 1077 078b F6000000 		.secrel32	LLST5
 1078 078f F0000000 		.secrel32	LVUS5
 1079 0793 18       		.uleb128 0x18
 1080 0794 68696E74 		.ascii "hints\0"
 1080      7300
 1081 079a 01       		.byte	0x1
 1082 079b 3E       		.byte	0x3e
 1083 079c 58       		.byte	0x58
 1084 079d 16080000 		.long	0x816
 1085 07a1 28010000 		.secrel32	LLST6
 1086 07a5 22010000 		.secrel32	LVUS6
 1087 07a9 19       		.uleb128 0x19
 1088 07aa 7265745F 		.ascii "ret_ptr\0"
 1088      70747200 
 1089 07b2 01       		.byte	0x1
 1090 07b3 40       		.byte	0x40
 1091 07b4 12       		.byte	0x12
GAS LISTING C:\Users\jisu8\AppData\Local\Temp\ccCR93IT.s 			page 27


 1092 07b5 CC020000 		.long	0x2cc
 1093 07b9 1A       		.uleb128 0x1a
 1094 07ba 86000000 		.long	LVL11
 1095 07be 610A0000 		.long	0xa61
 1096 07c2 D8070000 		.long	0x7d8
 1097 07c6 1B       		.uleb128 0x1b
 1098 07c7 02       		.byte	0x2
 1099 07c8 74       		.byte	0x74
 1100 07c9 00       		.sleb128 0
 1101 07ca 05       		.byte	0x5
 1102 07cb 03       		.byte	0x3
 1103 07cc 00000000 		.long	LC0
 1104 07d0 1B       		.uleb128 0x1b
 1105 07d1 02       		.byte	0x2
 1106 07d2 74       		.byte	0x74
 1107 07d3 04       		.sleb128 4
 1108 07d4 02       		.byte	0x2
 1109 07d5 73       		.byte	0x73
 1110 07d6 00       		.sleb128 0
 1111 07d7 00       		.byte	0
 1112 07d8 1A       		.uleb128 0x1a
 1113 07d9 96000000 		.long	LVL12
 1114 07dd 610A0000 		.long	0xa61
 1115 07e1 F7070000 		.long	0x7f7
 1116 07e5 1B       		.uleb128 0x1b
 1117 07e6 02       		.byte	0x2
 1118 07e7 74       		.byte	0x74
 1119 07e8 00       		.sleb128 0
 1120 07e9 05       		.byte	0x5
 1121 07ea 03       		.byte	0x3
 1122 07eb 27000000 		.long	LC1
 1123 07ef 1B       		.uleb128 0x1b
 1124 07f0 02       		.byte	0x2
 1125 07f1 74       		.byte	0x74
 1126 07f2 04       		.sleb128 4
 1127 07f3 02       		.byte	0x2
 1128 07f4 76       		.byte	0x76
 1129 07f5 00       		.sleb128 0
 1130 07f6 00       		.byte	0
 1131 07f7 1C       		.uleb128 0x1c
 1132 07f8 A2000000 		.long	LVL13
 1133 07fc 760A0000 		.long	0xa76
 1134 0800 1B       		.uleb128 0x1b
 1135 0801 02       		.byte	0x2
 1136 0802 74       		.byte	0x74
 1137 0803 00       		.sleb128 0
 1138 0804 02       		.byte	0x2
 1139 0805 73       		.byte	0x73
 1140 0806 00       		.sleb128 0
 1141 0807 1B       		.uleb128 0x1b
 1142 0808 02       		.byte	0x2
 1143 0809 74       		.byte	0x74
 1144 080a 04       		.sleb128 4
 1145 080b 02       		.byte	0x2
 1146 080c 76       		.byte	0x76
 1147 080d 00       		.sleb128 0
 1148 080e 00       		.byte	0
GAS LISTING C:\Users\jisu8\AppData\Local\Temp\ccCR93IT.s 			page 28


 1149 080f 00       		.byte	0
 1150 0810 03       		.uleb128 0x3
 1151 0811 04       		.byte	0x4
 1152 0812 D2020000 		.long	0x2d2
 1153 0816 03       		.uleb128 0x3
 1154 0817 04       		.byte	0x4
 1155 0818 F7050000 		.long	0x5f7
 1156 081c 1D       		.uleb128 0x1d
 1157 081d 01       		.byte	0x1
 1158 081e 52656164 		.ascii "ReadBarcode\0"
 1158      42617263 
 1158      6F646500 
 1159 082a 01       		.byte	0x1
 1160 082b 1E       		.byte	0x1e
 1161 082c 10       		.byte	0x10
 1162 082d 01       		.byte	0x1
 1163 082e 550A0000 		.long	0xa55
 1164 0832 A8000000 		.long	LFB13
 1165 0836 C1010000 		.long	LFE13
 1166 083a 54010000 		.secrel32	LLST7
 1167 083e 01       		.byte	0x1
 1168 083f 550A0000 		.long	0xa55
 1169 0843 18       		.uleb128 0x18
 1170 0844 697600   		.ascii "iv\0"
 1171 0847 01       		.byte	0x1
 1172 0848 1E       		.byte	0x1e
 1173 0849 2B       		.byte	0x2b
 1174 084a CC020000 		.long	0x2cc
 1175 084e E3010000 		.secrel32	LLST8
 1176 0852 E1010000 		.secrel32	LVUS8
 1177 0856 18       		.uleb128 0x18
 1178 0857 77696474 		.ascii "width\0"
 1178      6800
 1179 085d 01       		.byte	0x1
 1180 085e 1E       		.byte	0x1e
 1181 085f 33       		.byte	0x33
 1182 0860 A0000000 		.long	0xa0
 1183 0864 FD010000 		.secrel32	LLST9
 1184 0868 F7010000 		.secrel32	LVUS9
 1185 086c 15       		.uleb128 0x15
 1186 086d 35000000 		.secrel32	LASF0
 1187 0871 01       		.byte	0x1
 1188 0872 1E       		.byte	0x1e
 1189 0873 3D       		.byte	0x3d
 1190 0874 A0000000 		.long	0xa0
 1191 0878 2F020000 		.secrel32	LLST10
 1192 087c 29020000 		.secrel32	LVUS10
 1193 0880 18       		.uleb128 0x18
 1194 0881 496D6167 		.ascii "ImageFormat\0"
 1194      65466F72 
 1194      6D617400 
 1195 088d 01       		.byte	0x1
 1196 088e 1E       		.byte	0x1e
 1197 088f 52       		.byte	0x52
 1198 0890 90000000 		.long	0x90
 1199 0894 61020000 		.secrel32	LLST11
 1200 0898 5B020000 		.secrel32	LVUS11
GAS LISTING C:\Users\jisu8\AppData\Local\Temp\ccCR93IT.s 			page 29


 1201 089c 1E       		.uleb128 0x1e
 1202 089d 68696E74 		.ascii "hints\0"
 1202      7300
 1203 08a3 01       		.byte	0x1
 1204 08a4 20       		.byte	0x20
 1205 08a5 11       		.byte	0x11
 1206 08a6 5B0A0000 		.long	0xa5b
 1207 08aa 06       		.byte	0x6
 1208 08ab 03       		.byte	0x3
 1209 08ac 00000000 		.long	_DecodeHints
 1210 08b0 9F       		.byte	0x9f
 1211 08b1 1F       		.uleb128 0x1f
 1212 08b2 4D000000 		.secrel32	LASF2
 1213 08b6 01       		.byte	0x1
 1214 08b7 21       		.byte	0x21
 1215 08b8 0F       		.byte	0xf
 1216 08b9 90000000 		.long	0x90
 1217 08bd 8F020000 		.secrel32	LLST12
 1218 08c1 8D020000 		.secrel32	LVUS12
 1219 08c5 1F       		.uleb128 0x1f
 1220 08c6 43000000 		.secrel32	LASF3
 1221 08ca 01       		.byte	0x1
 1222 08cb 21       		.byte	0x21
 1223 08cc 19       		.byte	0x19
 1224 08cd 90000000 		.long	0x90
 1225 08d1 A6020000 		.secrel32	LLST13
 1226 08d5 A2020000 		.secrel32	LVUS13
 1227 08d9 20       		.uleb128 0x20
 1228 08da 69647852 		.ascii "idxRed\0"
 1228      656400
 1229 08e1 01       		.byte	0x1
 1230 08e2 22       		.byte	0x22
 1231 08e3 0B       		.byte	0xb
 1232 08e4 4E010000 		.long	0x14e
 1233 08e8 C8020000 		.secrel32	LLST14
 1234 08ec C4020000 		.secrel32	LVUS14
 1235 08f0 20       		.uleb128 0x20
 1236 08f1 69647847 		.ascii "idxGreen\0"
 1236      7265656E 
 1236      00
 1237 08fa 01       		.byte	0x1
 1238 08fb 22       		.byte	0x22
 1239 08fc 12       		.byte	0x12
 1240 08fd 4E010000 		.long	0x14e
 1241 0901 EB020000 		.secrel32	LLST15
 1242 0905 E7020000 		.secrel32	LVUS15
 1243 0909 20       		.uleb128 0x20
 1244 090a 69647842 		.ascii "idxBlue\0"
 1244      6C756500 
 1245 0912 01       		.byte	0x1
 1246 0913 22       		.byte	0x22
 1247 0914 1B       		.byte	0x1b
 1248 0915 4E010000 		.long	0x14e
 1249 0919 0E030000 		.secrel32	LLST16
 1250 091d 0A030000 		.secrel32	LVUS16
 1251 0921 21       		.uleb128 0x21
 1252 0922 BC000000 		.long	LVL17
GAS LISTING C:\Users\jisu8\AppData\Local\Temp\ccCR93IT.s 			page 30


 1253 0926 2F070000 		.long	0x72f
 1254 092a 1A       		.uleb128 0x1a
 1255 092b D0000000 		.long	LVL19
 1256 092f 610A0000 		.long	0xa61
 1257 0933 49090000 		.long	0x949
 1258 0937 1B       		.uleb128 0x1b
 1259 0938 02       		.byte	0x2
 1260 0939 74       		.byte	0x74
 1261 093a 00       		.sleb128 0
 1262 093b 05       		.byte	0x5
 1263 093c 03       		.byte	0x3
 1264 093d 34000000 		.long	LC2
 1265 0941 1B       		.uleb128 0x1b
 1266 0942 02       		.byte	0x2
 1267 0943 74       		.byte	0x74
 1268 0944 04       		.sleb128 4
 1269 0945 02       		.byte	0x2
 1270 0946 91       		.byte	0x91
 1271 0947 00       		.sleb128 0
 1272 0948 00       		.byte	0
 1273 0949 1A       		.uleb128 0x1a
 1274 094a E4000000 		.long	LVL20
 1275 094e 610A0000 		.long	0xa61
 1276 0952 6B090000 		.long	0x96b
 1277 0956 1B       		.uleb128 0x1b
 1278 0957 02       		.byte	0x2
 1279 0958 74       		.byte	0x74
 1280 0959 00       		.sleb128 0
 1281 095a 05       		.byte	0x5
 1282 095b 03       		.byte	0x3
 1283 095c 50000000 		.long	LC3
 1284 0960 1B       		.uleb128 0x1b
 1285 0961 02       		.byte	0x2
 1286 0962 74       		.byte	0x74
 1287 0963 04       		.sleb128 4
 1288 0964 05       		.byte	0x5
 1289 0965 03       		.byte	0x3
 1290 0966 00000000 		.long	_DecodeHints
 1291 096a 00       		.byte	0
 1292 096b 1A       		.uleb128 0x1a
 1293 096c EB000000 		.long	LVL21
 1294 0970 F7060000 		.long	0x6f7
 1295 0974 7F090000 		.long	0x97f
 1296 0978 1B       		.uleb128 0x1b
 1297 0979 01       		.byte	0x1
 1298 097a 50       		.byte	0x50
 1299 097b 02       		.byte	0x2
 1300 097c 73       		.byte	0x73
 1301 097d 00       		.sleb128 0
 1302 097e 00       		.byte	0
 1303 097f 1A       		.uleb128 0x1a
 1304 0980 F9000000 		.long	LVL25
 1305 0984 C0060000 		.long	0x6c0
 1306 0988 93090000 		.long	0x993
 1307 098c 1B       		.uleb128 0x1b
 1308 098d 01       		.byte	0x1
 1309 098e 50       		.byte	0x50
GAS LISTING C:\Users\jisu8\AppData\Local\Temp\ccCR93IT.s 			page 31


 1310 098f 02       		.byte	0x2
 1311 0990 73       		.byte	0x73
 1312 0991 00       		.sleb128 0
 1313 0992 00       		.byte	0
 1314 0993 1A       		.uleb128 0x1a
 1315 0994 04010000 		.long	LVL28
 1316 0998 87060000 		.long	0x687
 1317 099c A7090000 		.long	0x9a7
 1318 09a0 1B       		.uleb128 0x1b
 1319 09a1 01       		.byte	0x1
 1320 09a2 50       		.byte	0x50
 1321 09a3 02       		.byte	0x2
 1322 09a4 73       		.byte	0x73
 1323 09a5 00       		.sleb128 0
 1324 09a6 00       		.byte	0
 1325 09a7 1A       		.uleb128 0x1a
 1326 09a8 0F010000 		.long	LVL31
 1327 09ac 4F060000 		.long	0x64f
 1328 09b0 BB090000 		.long	0x9bb
 1329 09b4 1B       		.uleb128 0x1b
 1330 09b5 01       		.byte	0x1
 1331 09b6 50       		.byte	0x50
 1332 09b7 02       		.byte	0x2
 1333 09b8 73       		.byte	0x73
 1334 09b9 00       		.sleb128 0
 1335 09ba 00       		.byte	0
 1336 09bb 1A       		.uleb128 0x1a
 1337 09bc 37010000 		.long	LVL34
 1338 09c0 610A0000 		.long	0xa61
 1339 09c4 E9090000 		.long	0x9e9
 1340 09c8 1B       		.uleb128 0x1b
 1341 09c9 02       		.byte	0x2
 1342 09ca 74       		.byte	0x74
 1343 09cb 00       		.sleb128 0
 1344 09cc 05       		.byte	0x5
 1345 09cd 03       		.byte	0x3
 1346 09ce 5C000000 		.long	LC4
 1347 09d2 1B       		.uleb128 0x1b
 1348 09d3 02       		.byte	0x2
 1349 09d4 74       		.byte	0x74
 1350 09d5 08       		.sleb128 8
 1351 09d6 02       		.byte	0x2
 1352 09d7 76       		.byte	0x76
 1353 09d8 00       		.sleb128 0
 1354 09d9 1B       		.uleb128 0x1b
 1355 09da 02       		.byte	0x2
 1356 09db 74       		.byte	0x74
 1357 09dc 0C       		.sleb128 12
 1358 09dd 03       		.byte	0x3
 1359 09de 91       		.byte	0x91
 1360 09df 08       		.sleb128 8
 1361 09e0 06       		.byte	0x6
 1362 09e1 1B       		.uleb128 0x1b
 1363 09e2 02       		.byte	0x2
 1364 09e3 74       		.byte	0x74
 1365 09e4 10       		.sleb128 16
 1366 09e5 02       		.byte	0x2
GAS LISTING C:\Users\jisu8\AppData\Local\Temp\ccCR93IT.s 			page 32


 1367 09e6 73       		.byte	0x73
 1368 09e7 00       		.sleb128 0
 1369 09e8 00       		.byte	0
 1370 09e9 1A       		.uleb128 0x1a
 1371 09ea 7F010000 		.long	LVL35
 1372 09ee 840A0000 		.long	0xa84
 1373 09f2 380A0000 		.long	0xa38
 1374 09f6 1B       		.uleb128 0x1b
 1375 09f7 02       		.byte	0x2
 1376 09f8 74       		.byte	0x74
 1377 09f9 00       		.sleb128 0
 1378 09fa 01       		.byte	0x1
 1379 09fb 30       		.byte	0x30
 1380 09fc 1B       		.uleb128 0x1b
 1381 09fd 02       		.byte	0x2
 1382 09fe 74       		.byte	0x74
 1383 09ff 04       		.sleb128 4
 1384 0a00 01       		.byte	0x1
 1385 0a01 30       		.byte	0x30
 1386 0a02 1B       		.uleb128 0x1b
 1387 0a03 02       		.byte	0x2
 1388 0a04 74       		.byte	0x74
 1389 0a05 08       		.sleb128 8
 1390 0a06 02       		.byte	0x2
 1391 0a07 76       		.byte	0x76
 1392 0a08 00       		.sleb128 0
 1393 0a09 1B       		.uleb128 0x1b
 1394 0a0a 02       		.byte	0x2
 1395 0a0b 74       		.byte	0x74
 1396 0a0c 0C       		.sleb128 12
 1397 0a0d 03       		.byte	0x3
 1398 0a0e 91       		.byte	0x91
 1399 0a0f 08       		.sleb128 8
 1400 0a10 06       		.byte	0x6
 1401 0a11 1B       		.uleb128 0x1b
 1402 0a12 02       		.byte	0x2
 1403 0a13 74       		.byte	0x74
 1404 0a14 14       		.sleb128 20
 1405 0a15 02       		.byte	0x2
 1406 0a16 75       		.byte	0x75
 1407 0a17 00       		.sleb128 0
 1408 0a18 1B       		.uleb128 0x1b
 1409 0a19 02       		.byte	0x2
 1410 0a1a 74       		.byte	0x74
 1411 0a1b 18       		.sleb128 24
 1412 0a1c 02       		.byte	0x2
 1413 0a1d 77       		.byte	0x77
 1414 0a1e 00       		.sleb128 0
 1415 0a1f 1B       		.uleb128 0x1b
 1416 0a20 02       		.byte	0x2
 1417 0a21 74       		.byte	0x74
 1418 0a22 1C       		.sleb128 28
 1419 0a23 03       		.byte	0x3
 1420 0a24 91       		.byte	0x91
 1421 0a25 54       		.sleb128 -44
 1422 0a26 06       		.byte	0x6
 1423 0a27 1B       		.uleb128 0x1b
GAS LISTING C:\Users\jisu8\AppData\Local\Temp\ccCR93IT.s 			page 33


 1424 0a28 02       		.byte	0x2
 1425 0a29 74       		.byte	0x74
 1426 0a2a 20       		.sleb128 32
 1427 0a2b 03       		.byte	0x3
 1428 0a2c 91       		.byte	0x91
 1429 0a2d 58       		.sleb128 -40
 1430 0a2e 06       		.byte	0x6
 1431 0a2f 1B       		.uleb128 0x1b
 1432 0a30 02       		.byte	0x2
 1433 0a31 74       		.byte	0x74
 1434 0a32 24       		.sleb128 36
 1435 0a33 03       		.byte	0x3
 1436 0a34 91       		.byte	0x91
 1437 0a35 5C       		.sleb128 -36
 1438 0a36 06       		.byte	0x6
 1439 0a37 00       		.byte	0
 1440 0a38 1C       		.uleb128 0x1c
 1441 0a39 B4010000 		.long	LVL36
 1442 0a3d 51070000 		.long	0x751
 1443 0a41 1B       		.uleb128 0x1b
 1444 0a42 01       		.byte	0x1
 1445 0a43 50       		.byte	0x50
 1446 0a44 05       		.byte	0x5
 1447 0a45 03       		.byte	0x3
 1448 0a46 00000000 		.long	_GenericLuminanceSource_
 1449 0a4a 1B       		.uleb128 0x1b
 1450 0a4b 01       		.byte	0x1
 1451 0a4c 52       		.byte	0x52
 1452 0a4d 05       		.byte	0x5
 1453 0a4e 03       		.byte	0x3
 1454 0a4f 00000000 		.long	_DecodeHints
 1455 0a53 00       		.byte	0
 1456 0a54 00       		.byte	0
 1457 0a55 03       		.uleb128 0x3
 1458 0a56 04       		.byte	0x4
 1459 0a57 90000000 		.long	0x90
 1460 0a5b 03       		.uleb128 0x3
 1461 0a5c 04       		.byte	0x4
 1462 0a5d E1050000 		.long	0x5e1
 1463 0a61 22       		.uleb128 0x22
 1464 0a62 01       		.byte	0x1
 1465 0a63 01       		.byte	0x1
 1466 0a64 7072696E 		.ascii "printf\0"
 1466      746600
 1467 0a6b 7072696E 		.ascii "printf\0"
 1467      746600
 1468 0a72 03       		.byte	0x3
 1469 0a73 FD01     		.word	0x1fd
 1470 0a75 0F       		.byte	0xf
 1471 0a76 23       		.uleb128 0x23
 1472 0a77 01       		.byte	0x1
 1473 0a78 01       		.byte	0x1
 1474 0a79 17000000 		.secrel32	LASF5
 1475 0a7d 17000000 		.secrel32	LASF5
 1476 0a81 08       		.byte	0x8
 1477 0a82 07       		.byte	0x7
 1478 0a83 18       		.byte	0x18
GAS LISTING C:\Users\jisu8\AppData\Local\Temp\ccCR93IT.s 			page 34


 1479 0a84 23       		.uleb128 0x23
 1480 0a85 01       		.byte	0x1
 1481 0a86 01       		.byte	0x1
 1482 0a87 00000000 		.secrel32	LASF6
 1483 0a8b 00000000 		.secrel32	LASF6
 1484 0a8f 04       		.byte	0x4
 1485 0a90 10       		.byte	0x10
 1486 0a91 18       		.byte	0x18
 1487 0a92 00       		.byte	0
 1488              		.section	.debug_abbrev,"dr"
 1489              	Ldebug_abbrev0:
 1490 0000 01       		.uleb128 0x1
 1491 0001 11       		.uleb128 0x11
 1492 0002 01       		.byte	0x1
 1493 0003 25       		.uleb128 0x25
 1494 0004 08       		.uleb128 0x8
 1495 0005 13       		.uleb128 0x13
 1496 0006 0B       		.uleb128 0xb
 1497 0007 03       		.uleb128 0x3
 1498 0008 08       		.uleb128 0x8
 1499 0009 1B       		.uleb128 0x1b
 1500 000a 08       		.uleb128 0x8
 1501 000b 11       		.uleb128 0x11
 1502 000c 01       		.uleb128 0x1
 1503 000d 12       		.uleb128 0x12
 1504 000e 01       		.uleb128 0x1
 1505 000f 10       		.uleb128 0x10
 1506 0010 06       		.uleb128 0x6
 1507 0011 00       		.byte	0
 1508 0012 00       		.byte	0
 1509 0013 02       		.uleb128 0x2
 1510 0014 24       		.uleb128 0x24
 1511 0015 00       		.byte	0
 1512 0016 0B       		.uleb128 0xb
 1513 0017 0B       		.uleb128 0xb
 1514 0018 3E       		.uleb128 0x3e
 1515 0019 0B       		.uleb128 0xb
 1516 001a 03       		.uleb128 0x3
 1517 001b 08       		.uleb128 0x8
 1518 001c 00       		.byte	0
 1519 001d 00       		.byte	0
 1520 001e 03       		.uleb128 0x3
 1521 001f 0F       		.uleb128 0xf
 1522 0020 00       		.byte	0
 1523 0021 0B       		.uleb128 0xb
 1524 0022 0B       		.uleb128 0xb
 1525 0023 49       		.uleb128 0x49
 1526 0024 13       		.uleb128 0x13
 1527 0025 00       		.byte	0
 1528 0026 00       		.byte	0
 1529 0027 04       		.uleb128 0x4
 1530 0028 16       		.uleb128 0x16
 1531 0029 00       		.byte	0
 1532 002a 03       		.uleb128 0x3
 1533 002b 08       		.uleb128 0x8
 1534 002c 3A       		.uleb128 0x3a
 1535 002d 0B       		.uleb128 0xb
GAS LISTING C:\Users\jisu8\AppData\Local\Temp\ccCR93IT.s 			page 35


 1536 002e 3B       		.uleb128 0x3b
 1537 002f 0B       		.uleb128 0xb
 1538 0030 39       		.uleb128 0x39
 1539 0031 0B       		.uleb128 0xb
 1540 0032 49       		.uleb128 0x49
 1541 0033 13       		.uleb128 0x13
 1542 0034 00       		.byte	0
 1543 0035 00       		.byte	0
 1544 0036 05       		.uleb128 0x5
 1545 0037 13       		.uleb128 0x13
 1546 0038 01       		.byte	0x1
 1547 0039 03       		.uleb128 0x3
 1548 003a 08       		.uleb128 0x8
 1549 003b 0B       		.uleb128 0xb
 1550 003c 0B       		.uleb128 0xb
 1551 003d 3A       		.uleb128 0x3a
 1552 003e 0B       		.uleb128 0xb
 1553 003f 3B       		.uleb128 0x3b
 1554 0040 0B       		.uleb128 0xb
 1555 0041 39       		.uleb128 0x39
 1556 0042 0B       		.uleb128 0xb
 1557 0043 01       		.uleb128 0x1
 1558 0044 13       		.uleb128 0x13
 1559 0045 00       		.byte	0
 1560 0046 00       		.byte	0
 1561 0047 06       		.uleb128 0x6
 1562 0048 0D       		.uleb128 0xd
 1563 0049 00       		.byte	0
 1564 004a 03       		.uleb128 0x3
 1565 004b 08       		.uleb128 0x8
 1566 004c 3A       		.uleb128 0x3a
 1567 004d 0B       		.uleb128 0xb
 1568 004e 3B       		.uleb128 0x3b
 1569 004f 0B       		.uleb128 0xb
 1570 0050 39       		.uleb128 0x39
 1571 0051 0B       		.uleb128 0xb
 1572 0052 49       		.uleb128 0x49
 1573 0053 13       		.uleb128 0x13
 1574 0054 38       		.uleb128 0x38
 1575 0055 0A       		.uleb128 0xa
 1576 0056 00       		.byte	0
 1577 0057 00       		.byte	0
 1578 0058 07       		.uleb128 0x7
 1579 0059 01       		.uleb128 0x1
 1580 005a 01       		.byte	0x1
 1581 005b 49       		.uleb128 0x49
 1582 005c 13       		.uleb128 0x13
 1583 005d 01       		.uleb128 0x1
 1584 005e 13       		.uleb128 0x13
 1585 005f 00       		.byte	0
 1586 0060 00       		.byte	0
 1587 0061 08       		.uleb128 0x8
 1588 0062 21       		.uleb128 0x21
 1589 0063 00       		.byte	0
 1590 0064 00       		.byte	0
 1591 0065 00       		.byte	0
 1592 0066 09       		.uleb128 0x9
GAS LISTING C:\Users\jisu8\AppData\Local\Temp\ccCR93IT.s 			page 36


 1593 0067 34       		.uleb128 0x34
 1594 0068 00       		.byte	0
 1595 0069 03       		.uleb128 0x3
 1596 006a 08       		.uleb128 0x8
 1597 006b 3A       		.uleb128 0x3a
 1598 006c 0B       		.uleb128 0xb
 1599 006d 3B       		.uleb128 0x3b
 1600 006e 0B       		.uleb128 0xb
 1601 006f 39       		.uleb128 0x39
 1602 0070 0B       		.uleb128 0xb
 1603 0071 49       		.uleb128 0x49
 1604 0072 13       		.uleb128 0x13
 1605 0073 3F       		.uleb128 0x3f
 1606 0074 0C       		.uleb128 0xc
 1607 0075 3C       		.uleb128 0x3c
 1608 0076 0C       		.uleb128 0xc
 1609 0077 00       		.byte	0
 1610 0078 00       		.byte	0
 1611 0079 0A       		.uleb128 0xa
 1612 007a 13       		.uleb128 0x13
 1613 007b 01       		.byte	0x1
 1614 007c 0B       		.uleb128 0xb
 1615 007d 0B       		.uleb128 0xb
 1616 007e 3A       		.uleb128 0x3a
 1617 007f 0B       		.uleb128 0xb
 1618 0080 3B       		.uleb128 0x3b
 1619 0081 0B       		.uleb128 0xb
 1620 0082 39       		.uleb128 0x39
 1621 0083 0B       		.uleb128 0xb
 1622 0084 01       		.uleb128 0x1
 1623 0085 13       		.uleb128 0x13
 1624 0086 00       		.byte	0
 1625 0087 00       		.byte	0
 1626 0088 0B       		.uleb128 0xb
 1627 0089 0D       		.uleb128 0xd
 1628 008a 00       		.byte	0
 1629 008b 03       		.uleb128 0x3
 1630 008c 0E       		.uleb128 0xe
 1631 008d 3A       		.uleb128 0x3a
 1632 008e 0B       		.uleb128 0xb
 1633 008f 3B       		.uleb128 0x3b
 1634 0090 0B       		.uleb128 0xb
 1635 0091 39       		.uleb128 0x39
 1636 0092 0B       		.uleb128 0xb
 1637 0093 49       		.uleb128 0x49
 1638 0094 13       		.uleb128 0x13
 1639 0095 38       		.uleb128 0x38
 1640 0096 0A       		.uleb128 0xa
 1641 0097 00       		.byte	0
 1642 0098 00       		.byte	0
 1643 0099 0C       		.uleb128 0xc
 1644 009a 04       		.uleb128 0x4
 1645 009b 01       		.byte	0x1
 1646 009c 3E       		.uleb128 0x3e
 1647 009d 0B       		.uleb128 0xb
 1648 009e 0B       		.uleb128 0xb
 1649 009f 0B       		.uleb128 0xb
GAS LISTING C:\Users\jisu8\AppData\Local\Temp\ccCR93IT.s 			page 37


 1650 00a0 49       		.uleb128 0x49
 1651 00a1 13       		.uleb128 0x13
 1652 00a2 3A       		.uleb128 0x3a
 1653 00a3 0B       		.uleb128 0xb
 1654 00a4 3B       		.uleb128 0x3b
 1655 00a5 0B       		.uleb128 0xb
 1656 00a6 39       		.uleb128 0x39
 1657 00a7 0B       		.uleb128 0xb
 1658 00a8 01       		.uleb128 0x1
 1659 00a9 13       		.uleb128 0x13
 1660 00aa 00       		.byte	0
 1661 00ab 00       		.byte	0
 1662 00ac 0D       		.uleb128 0xd
 1663 00ad 28       		.uleb128 0x28
 1664 00ae 00       		.byte	0
 1665 00af 03       		.uleb128 0x3
 1666 00b0 08       		.uleb128 0x8
 1667 00b1 1C       		.uleb128 0x1c
 1668 00b2 0B       		.uleb128 0xb
 1669 00b3 00       		.byte	0
 1670 00b4 00       		.byte	0
 1671 00b5 0E       		.uleb128 0xe
 1672 00b6 28       		.uleb128 0x28
 1673 00b7 00       		.byte	0
 1674 00b8 03       		.uleb128 0x3
 1675 00b9 08       		.uleb128 0x8
 1676 00ba 1C       		.uleb128 0x1c
 1677 00bb 06       		.uleb128 0x6
 1678 00bc 00       		.byte	0
 1679 00bd 00       		.byte	0
 1680 00be 0F       		.uleb128 0xf
 1681 00bf 28       		.uleb128 0x28
 1682 00c0 00       		.byte	0
 1683 00c1 03       		.uleb128 0x3
 1684 00c2 08       		.uleb128 0x8
 1685 00c3 1C       		.uleb128 0x1c
 1686 00c4 05       		.uleb128 0x5
 1687 00c5 00       		.byte	0
 1688 00c6 00       		.byte	0
 1689 00c7 10       		.uleb128 0x10
 1690 00c8 13       		.uleb128 0x13
 1691 00c9 01       		.byte	0x1
 1692 00ca 03       		.uleb128 0x3
 1693 00cb 0E       		.uleb128 0xe
 1694 00cc 0B       		.uleb128 0xb
 1695 00cd 0B       		.uleb128 0xb
 1696 00ce 3A       		.uleb128 0x3a
 1697 00cf 0B       		.uleb128 0xb
 1698 00d0 3B       		.uleb128 0x3b
 1699 00d1 0B       		.uleb128 0xb
 1700 00d2 39       		.uleb128 0x39
 1701 00d3 0B       		.uleb128 0xb
 1702 00d4 01       		.uleb128 0x1
 1703 00d5 13       		.uleb128 0x13
 1704 00d6 00       		.byte	0
 1705 00d7 00       		.byte	0
 1706 00d8 11       		.uleb128 0x11
GAS LISTING C:\Users\jisu8\AppData\Local\Temp\ccCR93IT.s 			page 38


 1707 00d9 26       		.uleb128 0x26
 1708 00da 00       		.byte	0
 1709 00db 49       		.uleb128 0x49
 1710 00dc 13       		.uleb128 0x13
 1711 00dd 00       		.byte	0
 1712 00de 00       		.byte	0
 1713 00df 12       		.uleb128 0x12
 1714 00e0 34       		.uleb128 0x34
 1715 00e1 00       		.byte	0
 1716 00e2 03       		.uleb128 0x3
 1717 00e3 08       		.uleb128 0x8
 1718 00e4 3A       		.uleb128 0x3a
 1719 00e5 0B       		.uleb128 0xb
 1720 00e6 3B       		.uleb128 0x3b
 1721 00e7 0B       		.uleb128 0xb
 1722 00e8 39       		.uleb128 0x39
 1723 00e9 0B       		.uleb128 0xb
 1724 00ea 49       		.uleb128 0x49
 1725 00eb 13       		.uleb128 0x13
 1726 00ec 3F       		.uleb128 0x3f
 1727 00ed 0C       		.uleb128 0xc
 1728 00ee 02       		.uleb128 0x2
 1729 00ef 0A       		.uleb128 0xa
 1730 00f0 00       		.byte	0
 1731 00f1 00       		.byte	0
 1732 00f2 13       		.uleb128 0x13
 1733 00f3 34       		.uleb128 0x34
 1734 00f4 00       		.byte	0
 1735 00f5 03       		.uleb128 0x3
 1736 00f6 0E       		.uleb128 0xe
 1737 00f7 3A       		.uleb128 0x3a
 1738 00f8 0B       		.uleb128 0xb
 1739 00f9 3B       		.uleb128 0x3b
 1740 00fa 0B       		.uleb128 0xb
 1741 00fb 39       		.uleb128 0x39
 1742 00fc 0B       		.uleb128 0xb
 1743 00fd 49       		.uleb128 0x49
 1744 00fe 13       		.uleb128 0x13
 1745 00ff 3F       		.uleb128 0x3f
 1746 0100 0C       		.uleb128 0xc
 1747 0101 02       		.uleb128 0x2
 1748 0102 0A       		.uleb128 0xa
 1749 0103 00       		.byte	0
 1750 0104 00       		.byte	0
 1751 0105 14       		.uleb128 0x14
 1752 0106 2E       		.uleb128 0x2e
 1753 0107 01       		.byte	0x1
 1754 0108 03       		.uleb128 0x3
 1755 0109 08       		.uleb128 0x8
 1756 010a 3A       		.uleb128 0x3a
 1757 010b 0B       		.uleb128 0xb
 1758 010c 3B       		.uleb128 0x3b
 1759 010d 0B       		.uleb128 0xb
 1760 010e 39       		.uleb128 0x39
 1761 010f 0B       		.uleb128 0xb
 1762 0110 27       		.uleb128 0x27
 1763 0111 0C       		.uleb128 0xc
GAS LISTING C:\Users\jisu8\AppData\Local\Temp\ccCR93IT.s 			page 39


 1764 0112 49       		.uleb128 0x49
 1765 0113 13       		.uleb128 0x13
 1766 0114 11       		.uleb128 0x11
 1767 0115 01       		.uleb128 0x1
 1768 0116 12       		.uleb128 0x12
 1769 0117 01       		.uleb128 0x1
 1770 0118 40       		.uleb128 0x40
 1771 0119 0A       		.uleb128 0xa
 1772 011a 9742     		.uleb128 0x2117
 1773 011c 0C       		.uleb128 0xc
 1774 011d 01       		.uleb128 0x1
 1775 011e 13       		.uleb128 0x13
 1776 011f 00       		.byte	0
 1777 0120 00       		.byte	0
 1778 0121 15       		.uleb128 0x15
 1779 0122 05       		.uleb128 0x5
 1780 0123 00       		.byte	0
 1781 0124 03       		.uleb128 0x3
 1782 0125 0E       		.uleb128 0xe
 1783 0126 3A       		.uleb128 0x3a
 1784 0127 0B       		.uleb128 0xb
 1785 0128 3B       		.uleb128 0x3b
 1786 0129 0B       		.uleb128 0xb
 1787 012a 39       		.uleb128 0x39
 1788 012b 0B       		.uleb128 0xb
 1789 012c 49       		.uleb128 0x49
 1790 012d 13       		.uleb128 0x13
 1791 012e 02       		.uleb128 0x2
 1792 012f 06       		.uleb128 0x6
 1793 0130 B742     		.uleb128 0x2137
 1794 0132 06       		.uleb128 0x6
 1795 0133 00       		.byte	0
 1796 0134 00       		.byte	0
 1797 0135 16       		.uleb128 0x16
 1798 0136 2E       		.uleb128 0x2e
 1799 0137 00       		.byte	0
 1800 0138 03       		.uleb128 0x3
 1801 0139 08       		.uleb128 0x8
 1802 013a 3A       		.uleb128 0x3a
 1803 013b 0B       		.uleb128 0xb
 1804 013c 3B       		.uleb128 0x3b
 1805 013d 0B       		.uleb128 0xb
 1806 013e 39       		.uleb128 0x39
 1807 013f 0B       		.uleb128 0xb
 1808 0140 27       		.uleb128 0x27
 1809 0141 0C       		.uleb128 0xc
 1810 0142 11       		.uleb128 0x11
 1811 0143 01       		.uleb128 0x1
 1812 0144 12       		.uleb128 0x12
 1813 0145 01       		.uleb128 0x1
 1814 0146 40       		.uleb128 0x40
 1815 0147 0A       		.uleb128 0xa
 1816 0148 9742     		.uleb128 0x2117
 1817 014a 0C       		.uleb128 0xc
 1818 014b 00       		.byte	0
 1819 014c 00       		.byte	0
 1820 014d 17       		.uleb128 0x17
GAS LISTING C:\Users\jisu8\AppData\Local\Temp\ccCR93IT.s 			page 40


 1821 014e 2E       		.uleb128 0x2e
 1822 014f 01       		.byte	0x1
 1823 0150 03       		.uleb128 0x3
 1824 0151 08       		.uleb128 0x8
 1825 0152 3A       		.uleb128 0x3a
 1826 0153 0B       		.uleb128 0xb
 1827 0154 3B       		.uleb128 0x3b
 1828 0155 0B       		.uleb128 0xb
 1829 0156 39       		.uleb128 0x39
 1830 0157 0B       		.uleb128 0xb
 1831 0158 27       		.uleb128 0x27
 1832 0159 0C       		.uleb128 0xc
 1833 015a 11       		.uleb128 0x11
 1834 015b 01       		.uleb128 0x1
 1835 015c 12       		.uleb128 0x12
 1836 015d 01       		.uleb128 0x1
 1837 015e 40       		.uleb128 0x40
 1838 015f 06       		.uleb128 0x6
 1839 0160 9742     		.uleb128 0x2117
 1840 0162 0C       		.uleb128 0xc
 1841 0163 01       		.uleb128 0x1
 1842 0164 13       		.uleb128 0x13
 1843 0165 00       		.byte	0
 1844 0166 00       		.byte	0
 1845 0167 18       		.uleb128 0x18
 1846 0168 05       		.uleb128 0x5
 1847 0169 00       		.byte	0
 1848 016a 03       		.uleb128 0x3
 1849 016b 08       		.uleb128 0x8
 1850 016c 3A       		.uleb128 0x3a
 1851 016d 0B       		.uleb128 0xb
 1852 016e 3B       		.uleb128 0x3b
 1853 016f 0B       		.uleb128 0xb
 1854 0170 39       		.uleb128 0x39
 1855 0171 0B       		.uleb128 0xb
 1856 0172 49       		.uleb128 0x49
 1857 0173 13       		.uleb128 0x13
 1858 0174 02       		.uleb128 0x2
 1859 0175 06       		.uleb128 0x6
 1860 0176 B742     		.uleb128 0x2137
 1861 0178 06       		.uleb128 0x6
 1862 0179 00       		.byte	0
 1863 017a 00       		.byte	0
 1864 017b 19       		.uleb128 0x19
 1865 017c 34       		.uleb128 0x34
 1866 017d 00       		.byte	0
 1867 017e 03       		.uleb128 0x3
 1868 017f 08       		.uleb128 0x8
 1869 0180 3A       		.uleb128 0x3a
 1870 0181 0B       		.uleb128 0xb
 1871 0182 3B       		.uleb128 0x3b
 1872 0183 0B       		.uleb128 0xb
 1873 0184 39       		.uleb128 0x39
 1874 0185 0B       		.uleb128 0xb
 1875 0186 49       		.uleb128 0x49
 1876 0187 13       		.uleb128 0x13
 1877 0188 00       		.byte	0
GAS LISTING C:\Users\jisu8\AppData\Local\Temp\ccCR93IT.s 			page 41


 1878 0189 00       		.byte	0
 1879 018a 1A       		.uleb128 0x1a
 1880 018b 898201   		.uleb128 0x4109
 1881 018e 01       		.byte	0x1
 1882 018f 11       		.uleb128 0x11
 1883 0190 01       		.uleb128 0x1
 1884 0191 31       		.uleb128 0x31
 1885 0192 13       		.uleb128 0x13
 1886 0193 01       		.uleb128 0x1
 1887 0194 13       		.uleb128 0x13
 1888 0195 00       		.byte	0
 1889 0196 00       		.byte	0
 1890 0197 1B       		.uleb128 0x1b
 1891 0198 8A8201   		.uleb128 0x410a
 1892 019b 00       		.byte	0
 1893 019c 02       		.uleb128 0x2
 1894 019d 0A       		.uleb128 0xa
 1895 019e 9142     		.uleb128 0x2111
 1896 01a0 0A       		.uleb128 0xa
 1897 01a1 00       		.byte	0
 1898 01a2 00       		.byte	0
 1899 01a3 1C       		.uleb128 0x1c
 1900 01a4 898201   		.uleb128 0x4109
 1901 01a7 01       		.byte	0x1
 1902 01a8 11       		.uleb128 0x11
 1903 01a9 01       		.uleb128 0x1
 1904 01aa 31       		.uleb128 0x31
 1905 01ab 13       		.uleb128 0x13
 1906 01ac 00       		.byte	0
 1907 01ad 00       		.byte	0
 1908 01ae 1D       		.uleb128 0x1d
 1909 01af 2E       		.uleb128 0x2e
 1910 01b0 01       		.byte	0x1
 1911 01b1 3F       		.uleb128 0x3f
 1912 01b2 0C       		.uleb128 0xc
 1913 01b3 03       		.uleb128 0x3
 1914 01b4 08       		.uleb128 0x8
 1915 01b5 3A       		.uleb128 0x3a
 1916 01b6 0B       		.uleb128 0xb
 1917 01b7 3B       		.uleb128 0x3b
 1918 01b8 0B       		.uleb128 0xb
 1919 01b9 39       		.uleb128 0x39
 1920 01ba 0B       		.uleb128 0xb
 1921 01bb 27       		.uleb128 0x27
 1922 01bc 0C       		.uleb128 0xc
 1923 01bd 49       		.uleb128 0x49
 1924 01be 13       		.uleb128 0x13
 1925 01bf 11       		.uleb128 0x11
 1926 01c0 01       		.uleb128 0x1
 1927 01c1 12       		.uleb128 0x12
 1928 01c2 01       		.uleb128 0x1
 1929 01c3 40       		.uleb128 0x40
 1930 01c4 06       		.uleb128 0x6
 1931 01c5 9742     		.uleb128 0x2117
 1932 01c7 0C       		.uleb128 0xc
 1933 01c8 01       		.uleb128 0x1
 1934 01c9 13       		.uleb128 0x13
GAS LISTING C:\Users\jisu8\AppData\Local\Temp\ccCR93IT.s 			page 42


 1935 01ca 00       		.byte	0
 1936 01cb 00       		.byte	0
 1937 01cc 1E       		.uleb128 0x1e
 1938 01cd 34       		.uleb128 0x34
 1939 01ce 00       		.byte	0
 1940 01cf 03       		.uleb128 0x3
 1941 01d0 08       		.uleb128 0x8
 1942 01d1 3A       		.uleb128 0x3a
 1943 01d2 0B       		.uleb128 0xb
 1944 01d3 3B       		.uleb128 0x3b
 1945 01d4 0B       		.uleb128 0xb
 1946 01d5 39       		.uleb128 0x39
 1947 01d6 0B       		.uleb128 0xb
 1948 01d7 49       		.uleb128 0x49
 1949 01d8 13       		.uleb128 0x13
 1950 01d9 02       		.uleb128 0x2
 1951 01da 0A       		.uleb128 0xa
 1952 01db 00       		.byte	0
 1953 01dc 00       		.byte	0
 1954 01dd 1F       		.uleb128 0x1f
 1955 01de 34       		.uleb128 0x34
 1956 01df 00       		.byte	0
 1957 01e0 03       		.uleb128 0x3
 1958 01e1 0E       		.uleb128 0xe
 1959 01e2 3A       		.uleb128 0x3a
 1960 01e3 0B       		.uleb128 0xb
 1961 01e4 3B       		.uleb128 0x3b
 1962 01e5 0B       		.uleb128 0xb
 1963 01e6 39       		.uleb128 0x39
 1964 01e7 0B       		.uleb128 0xb
 1965 01e8 49       		.uleb128 0x49
 1966 01e9 13       		.uleb128 0x13
 1967 01ea 02       		.uleb128 0x2
 1968 01eb 06       		.uleb128 0x6
 1969 01ec B742     		.uleb128 0x2137
 1970 01ee 06       		.uleb128 0x6
 1971 01ef 00       		.byte	0
 1972 01f0 00       		.byte	0
 1973 01f1 20       		.uleb128 0x20
 1974 01f2 34       		.uleb128 0x34
 1975 01f3 00       		.byte	0
 1976 01f4 03       		.uleb128 0x3
 1977 01f5 08       		.uleb128 0x8
 1978 01f6 3A       		.uleb128 0x3a
 1979 01f7 0B       		.uleb128 0xb
 1980 01f8 3B       		.uleb128 0x3b
 1981 01f9 0B       		.uleb128 0xb
 1982 01fa 39       		.uleb128 0x39
 1983 01fb 0B       		.uleb128 0xb
 1984 01fc 49       		.uleb128 0x49
 1985 01fd 13       		.uleb128 0x13
 1986 01fe 02       		.uleb128 0x2
 1987 01ff 06       		.uleb128 0x6
 1988 0200 B742     		.uleb128 0x2137
 1989 0202 06       		.uleb128 0x6
 1990 0203 00       		.byte	0
 1991 0204 00       		.byte	0
GAS LISTING C:\Users\jisu8\AppData\Local\Temp\ccCR93IT.s 			page 43


 1992 0205 21       		.uleb128 0x21
 1993 0206 898201   		.uleb128 0x4109
 1994 0209 00       		.byte	0
 1995 020a 11       		.uleb128 0x11
 1996 020b 01       		.uleb128 0x1
 1997 020c 31       		.uleb128 0x31
 1998 020d 13       		.uleb128 0x13
 1999 020e 00       		.byte	0
 2000 020f 00       		.byte	0
 2001 0210 22       		.uleb128 0x22
 2002 0211 2E       		.uleb128 0x2e
 2003 0212 00       		.byte	0
 2004 0213 3F       		.uleb128 0x3f
 2005 0214 0C       		.uleb128 0xc
 2006 0215 3C       		.uleb128 0x3c
 2007 0216 0C       		.uleb128 0xc
 2008 0217 8740     		.uleb128 0x2007
 2009 0219 08       		.uleb128 0x8
 2010 021a 03       		.uleb128 0x3
 2011 021b 08       		.uleb128 0x8
 2012 021c 3A       		.uleb128 0x3a
 2013 021d 0B       		.uleb128 0xb
 2014 021e 3B       		.uleb128 0x3b
 2015 021f 05       		.uleb128 0x5
 2016 0220 39       		.uleb128 0x39
 2017 0221 0B       		.uleb128 0xb
 2018 0222 00       		.byte	0
 2019 0223 00       		.byte	0
 2020 0224 23       		.uleb128 0x23
 2021 0225 2E       		.uleb128 0x2e
 2022 0226 00       		.byte	0
 2023 0227 3F       		.uleb128 0x3f
 2024 0228 0C       		.uleb128 0xc
 2025 0229 3C       		.uleb128 0x3c
 2026 022a 0C       		.uleb128 0xc
 2027 022b 8740     		.uleb128 0x2007
 2028 022d 0E       		.uleb128 0xe
 2029 022e 03       		.uleb128 0x3
 2030 022f 0E       		.uleb128 0xe
 2031 0230 3A       		.uleb128 0x3a
 2032 0231 0B       		.uleb128 0xb
 2033 0232 3B       		.uleb128 0x3b
 2034 0233 0B       		.uleb128 0xb
 2035 0234 39       		.uleb128 0x39
 2036 0235 0B       		.uleb128 0xb
 2037 0236 00       		.byte	0
 2038 0237 00       		.byte	0
 2039 0238 00       		.byte	0
 2040              		.section	.debug_loc,"dr"
 2041              	Ldebug_loc0:
 2042              	LVUS3:
 2043 0000 00       		.uleb128 0
 2044 0001 00       		.uleb128 LVU30
 2045 0002 00       		.uleb128 LVU30
 2046 0003 00       		.uleb128 0
 2047              	LLST3:
 2048 0004 40000000 		.long	LVL6-Ltext0
GAS LISTING C:\Users\jisu8\AppData\Local\Temp\ccCR93IT.s 			page 44


 2049 0008 43000000 		.long	LVL7-Ltext0
 2050 000c 0100     		.word	0x1
 2051 000e 50       		.byte	0x50
 2052 000f 43000000 		.long	LVL7-Ltext0
 2053 0013 44000000 		.long	LFE19-Ltext0
 2054 0017 0400     		.word	0x4
 2055 0019 F3       		.byte	0xf3
 2056 001a 01       		.uleb128 0x1
 2057 001b 50       		.byte	0x50
 2058 001c 9F       		.byte	0x9f
 2059 001d 00000000 		.long	0
 2060 0021 00000000 		.long	0
 2061              	LVUS2:
 2062 0025 00       		.uleb128 0
 2063 0026 00       		.uleb128 LVU26
 2064 0027 00       		.uleb128 LVU26
 2065 0028 00       		.uleb128 0
 2066              	LLST2:
 2067 0029 3C000000 		.long	LVL4-Ltext0
 2068 002d 3F000000 		.long	LVL5-Ltext0
 2069 0031 0100     		.word	0x1
 2070 0033 50       		.byte	0x50
 2071 0034 3F000000 		.long	LVL5-Ltext0
 2072 0038 40000000 		.long	LFE18-Ltext0
 2073 003c 0400     		.word	0x4
 2074 003e F3       		.byte	0xf3
 2075 003f 01       		.uleb128 0x1
 2076 0040 50       		.byte	0x50
 2077 0041 9F       		.byte	0x9f
 2078 0042 00000000 		.long	0
 2079 0046 00000000 		.long	0
 2080              	LVUS1:
 2081 004a 00       		.uleb128 0
 2082 004b 00       		.uleb128 LVU21
 2083 004c 00       		.uleb128 LVU21
 2084 004d 00       		.uleb128 0
 2085              	LLST1:
 2086 004e 35000000 		.long	LVL2-Ltext0
 2087 0052 38000000 		.long	LVL3-Ltext0
 2088 0056 0100     		.word	0x1
 2089 0058 50       		.byte	0x50
 2090 0059 38000000 		.long	LVL3-Ltext0
 2091 005d 3C000000 		.long	LFE17-Ltext0
 2092 0061 0400     		.word	0x4
 2093 0063 F3       		.byte	0xf3
 2094 0064 01       		.uleb128 0x1
 2095 0065 50       		.byte	0x50
 2096 0066 9F       		.byte	0x9f
 2097 0067 00000000 		.long	0
 2098 006b 00000000 		.long	0
 2099              	LVUS0:
 2100 006f 00       		.uleb128 0
 2101 0070 00       		.uleb128 LVU17
 2102 0071 00       		.uleb128 LVU17
 2103 0072 00       		.uleb128 0
 2104              	LLST0:
 2105 0073 31000000 		.long	LVL0-Ltext0
GAS LISTING C:\Users\jisu8\AppData\Local\Temp\ccCR93IT.s 			page 45


 2106 0077 34000000 		.long	LVL1-Ltext0
 2107 007b 0100     		.word	0x1
 2108 007d 50       		.byte	0x50
 2109 007e 34000000 		.long	LVL1-Ltext0
 2110 0082 35000000 		.long	LFE16-Ltext0
 2111 0086 0400     		.word	0x4
 2112 0088 F3       		.byte	0xf3
 2113 0089 01       		.uleb128 0x1
 2114 008a 50       		.byte	0x50
 2115 008b 9F       		.byte	0x9f
 2116 008c 00000000 		.long	0
 2117 0090 00000000 		.long	0
 2118              	LLST4:
 2119 0094 44000000 		.long	LFB14-Ltext0
 2120 0098 45000000 		.long	LCFI0-Ltext0
 2121 009c 0200     		.word	0x2
 2122 009e 74       		.byte	0x74
 2123 009f 04       		.sleb128 4
 2124 00a0 45000000 		.long	LCFI0-Ltext0
 2125 00a4 46000000 		.long	LCFI1-Ltext0
 2126 00a8 0200     		.word	0x2
 2127 00aa 74       		.byte	0x74
 2128 00ab 08       		.sleb128 8
 2129 00ac 46000000 		.long	LCFI1-Ltext0
 2130 00b0 49000000 		.long	LCFI2-Ltext0
 2131 00b4 0200     		.word	0x2
 2132 00b6 74       		.byte	0x74
 2133 00b7 0C       		.sleb128 12
 2134 00b8 49000000 		.long	LCFI2-Ltext0
 2135 00bc A5000000 		.long	LCFI3-Ltext0
 2136 00c0 0200     		.word	0x2
 2137 00c2 74       		.byte	0x74
 2138 00c3 20       		.sleb128 32
 2139 00c4 A5000000 		.long	LCFI3-Ltext0
 2140 00c8 A6000000 		.long	LCFI4-Ltext0
 2141 00cc 0200     		.word	0x2
 2142 00ce 74       		.byte	0x74
 2143 00cf 0C       		.sleb128 12
 2144 00d0 A6000000 		.long	LCFI4-Ltext0
 2145 00d4 A7000000 		.long	LCFI5-Ltext0
 2146 00d8 0200     		.word	0x2
 2147 00da 74       		.byte	0x74
 2148 00db 08       		.sleb128 8
 2149 00dc A7000000 		.long	LCFI5-Ltext0
 2150 00e0 A8000000 		.long	LFE14-Ltext0
 2151 00e4 0200     		.word	0x2
 2152 00e6 74       		.byte	0x74
 2153 00e7 04       		.sleb128 4
 2154 00e8 00000000 		.long	0
 2155 00ec 00000000 		.long	0
 2156              	LVUS5:
 2157 00f0 00       		.uleb128 0
 2158 00f1 00       		.uleb128 LVU36
 2159 00f2 00       		.uleb128 LVU36
 2160 00f3 00       		.uleb128 LVU55
 2161 00f4 00       		.uleb128 LVU55
 2162 00f5 00       		.uleb128 0
GAS LISTING C:\Users\jisu8\AppData\Local\Temp\ccCR93IT.s 			page 46


 2163              	LLST5:
 2164 00f6 44000000 		.long	LVL8-Ltext0
 2165 00fa 52000000 		.long	LVL9-Ltext0
 2166 00fe 0100     		.word	0x1
 2167 0100 50       		.byte	0x50
 2168 0101 52000000 		.long	LVL9-Ltext0
 2169 0105 A6000000 		.long	LVL14-Ltext0
 2170 0109 0100     		.word	0x1
 2171 010b 53       		.byte	0x53
 2172 010c A6000000 		.long	LVL14-Ltext0
 2173 0110 A8000000 		.long	LFE14-Ltext0
 2174 0114 0400     		.word	0x4
 2175 0116 F3       		.byte	0xf3
 2176 0117 01       		.uleb128 0x1
 2177 0118 50       		.byte	0x50
 2178 0119 9F       		.byte	0x9f
 2179 011a 00000000 		.long	0
 2180 011e 00000000 		.long	0
 2181              	LVUS6:
 2182 0122 00       		.uleb128 0
 2183 0123 00       		.uleb128 LVU46
 2184 0124 00       		.uleb128 LVU46
 2185 0125 00       		.uleb128 LVU56
 2186 0126 00       		.uleb128 LVU56
 2187 0127 00       		.uleb128 0
 2188              	LLST6:
 2189 0128 44000000 		.long	LVL8-Ltext0
 2190 012c 70000000 		.long	LVL10-Ltext0
 2191 0130 0100     		.word	0x1
 2192 0132 52       		.byte	0x52
 2193 0133 70000000 		.long	LVL10-Ltext0
 2194 0137 A7000000 		.long	LVL15-Ltext0
 2195 013b 0100     		.word	0x1
 2196 013d 56       		.byte	0x56
 2197 013e A7000000 		.long	LVL15-Ltext0
 2198 0142 A8000000 		.long	LFE14-Ltext0
 2199 0146 0400     		.word	0x4
 2200 0148 F3       		.byte	0xf3
 2201 0149 01       		.uleb128 0x1
 2202 014a 52       		.byte	0x52
 2203 014b 9F       		.byte	0x9f
 2204 014c 00000000 		.long	0
 2205 0150 00000000 		.long	0
 2206              	LLST7:
 2207 0154 A8000000 		.long	LFB13-Ltext0
 2208 0158 A9000000 		.long	LCFI6-Ltext0
 2209 015c 0200     		.word	0x2
 2210 015e 74       		.byte	0x74
 2211 015f 04       		.sleb128 4
 2212 0160 A9000000 		.long	LCFI6-Ltext0
 2213 0164 AA000000 		.long	LCFI7-Ltext0
 2214 0168 0200     		.word	0x2
 2215 016a 74       		.byte	0x74
 2216 016b 08       		.sleb128 8
 2217 016c AA000000 		.long	LCFI7-Ltext0
 2218 0170 AB000000 		.long	LCFI8-Ltext0
 2219 0174 0200     		.word	0x2
GAS LISTING C:\Users\jisu8\AppData\Local\Temp\ccCR93IT.s 			page 47


 2220 0176 74       		.byte	0x74
 2221 0177 0C       		.sleb128 12
 2222 0178 AB000000 		.long	LCFI8-Ltext0
 2223 017c AC000000 		.long	LCFI9-Ltext0
 2224 0180 0200     		.word	0x2
 2225 0182 74       		.byte	0x74
 2226 0183 10       		.sleb128 16
 2227 0184 AC000000 		.long	LCFI9-Ltext0
 2228 0188 AF000000 		.long	LCFI10-Ltext0
 2229 018c 0200     		.word	0x2
 2230 018e 74       		.byte	0x74
 2231 018f 14       		.sleb128 20
 2232 0190 AF000000 		.long	LCFI10-Ltext0
 2233 0194 BC010000 		.long	LCFI11-Ltext0
 2234 0198 0300     		.word	0x3
 2235 019a 74       		.byte	0x74
 2236 019b E000     		.sleb128 96
 2237 019d BC010000 		.long	LCFI11-Ltext0
 2238 01a1 BD010000 		.long	LCFI12-Ltext0
 2239 01a5 0200     		.word	0x2
 2240 01a7 74       		.byte	0x74
 2241 01a8 14       		.sleb128 20
 2242 01a9 BD010000 		.long	LCFI12-Ltext0
 2243 01ad BE010000 		.long	LCFI13-Ltext0
 2244 01b1 0200     		.word	0x2
 2245 01b3 74       		.byte	0x74
 2246 01b4 10       		.sleb128 16
 2247 01b5 BE010000 		.long	LCFI13-Ltext0
 2248 01b9 BF010000 		.long	LCFI14-Ltext0
 2249 01bd 0200     		.word	0x2
 2250 01bf 74       		.byte	0x74
 2251 01c0 0C       		.sleb128 12
 2252 01c1 BF010000 		.long	LCFI14-Ltext0
 2253 01c5 C0010000 		.long	LCFI15-Ltext0
 2254 01c9 0200     		.word	0x2
 2255 01cb 74       		.byte	0x74
 2256 01cc 08       		.sleb128 8
 2257 01cd C0010000 		.long	LCFI15-Ltext0
 2258 01d1 C1010000 		.long	LFE13-Ltext0
 2259 01d5 0200     		.word	0x2
 2260 01d7 74       		.byte	0x74
 2261 01d8 04       		.sleb128 4
 2262 01d9 00000000 		.long	0
 2263 01dd 00000000 		.long	0
 2264              	LVUS8:
 2265 01e1 00       		.uleb128 0
 2266 01e2 00       		.uleb128 LVU63
 2267              	LLST8:
 2268 01e3 A8000000 		.long	LVL16-Ltext0
 2269 01e7 BB000000 		.long	LVL17-1-Ltext0
 2270 01eb 0200     		.word	0x2
 2271 01ed 91       		.byte	0x91
 2272 01ee 00       		.sleb128 0
 2273 01ef 00000000 		.long	0
 2274 01f3 00000000 		.long	0
 2275              	LVUS9:
 2276 01f7 00       		.uleb128 0
GAS LISTING C:\Users\jisu8\AppData\Local\Temp\ccCR93IT.s 			page 48


 2277 01f8 00       		.uleb128 LVU65
 2278 01f9 00       		.uleb128 LVU65
 2279 01fa 00       		.uleb128 LVU66
 2280 01fb 00       		.uleb128 LVU66
 2281 01fc 00       		.uleb128 0
 2282              	LLST9:
 2283 01fd A8000000 		.long	LVL16-Ltext0
 2284 0201 C0000000 		.long	LVL18-Ltext0
 2285 0205 0200     		.word	0x2
 2286 0207 91       		.byte	0x91
 2287 0208 04       		.sleb128 4
 2288 0209 C0000000 		.long	LVL18-Ltext0
 2289 020d CF000000 		.long	LVL19-1-Ltext0
 2290 0211 0200     		.word	0x2
 2291 0213 70       		.byte	0x70
 2292 0214 04       		.sleb128 4
 2293 0215 CF000000 		.long	LVL19-1-Ltext0
 2294 0219 C1010000 		.long	LFE13-Ltext0
 2295 021d 0200     		.word	0x2
 2296 021f 91       		.byte	0x91
 2297 0220 04       		.sleb128 4
 2298 0221 00000000 		.long	0
 2299 0225 00000000 		.long	0
 2300              	LVUS10:
 2301 0229 00       		.uleb128 0
 2302 022a 00       		.uleb128 LVU65
 2303 022b 00       		.uleb128 LVU65
 2304 022c 00       		.uleb128 LVU66
 2305 022d 00       		.uleb128 LVU66
 2306 022e 00       		.uleb128 0
 2307              	LLST10:
 2308 022f A8000000 		.long	LVL16-Ltext0
 2309 0233 C0000000 		.long	LVL18-Ltext0
 2310 0237 0200     		.word	0x2
 2311 0239 91       		.byte	0x91
 2312 023a 08       		.sleb128 8
 2313 023b C0000000 		.long	LVL18-Ltext0
 2314 023f CF000000 		.long	LVL19-1-Ltext0
 2315 0243 0200     		.word	0x2
 2316 0245 70       		.byte	0x70
 2317 0246 08       		.sleb128 8
 2318 0247 CF000000 		.long	LVL19-1-Ltext0
 2319 024b C1010000 		.long	LFE13-Ltext0
 2320 024f 0200     		.word	0x2
 2321 0251 91       		.byte	0x91
 2322 0252 08       		.sleb128 8
 2323 0253 00000000 		.long	0
 2324 0257 00000000 		.long	0
 2325              	LVUS11:
 2326 025b 00       		.uleb128 0
 2327 025c 00       		.uleb128 LVU65
 2328 025d 00       		.uleb128 LVU65
 2329 025e 00       		.uleb128 LVU66
 2330 025f 00       		.uleb128 LVU66
 2331 0260 00       		.uleb128 0
 2332              	LLST11:
 2333 0261 A8000000 		.long	LVL16-Ltext0
GAS LISTING C:\Users\jisu8\AppData\Local\Temp\ccCR93IT.s 			page 49


 2334 0265 C0000000 		.long	LVL18-Ltext0
 2335 0269 0200     		.word	0x2
 2336 026b 91       		.byte	0x91
 2337 026c 0C       		.sleb128 12
 2338 026d C0000000 		.long	LVL18-Ltext0
 2339 0271 CF000000 		.long	LVL19-1-Ltext0
 2340 0275 0200     		.word	0x2
 2341 0277 70       		.byte	0x70
 2342 0278 0C       		.sleb128 12
 2343 0279 CF000000 		.long	LVL19-1-Ltext0
 2344 027d C1010000 		.long	LFE13-Ltext0
 2345 0281 0200     		.word	0x2
 2346 0283 91       		.byte	0x91
 2347 0284 0C       		.sleb128 12
 2348 0285 00000000 		.long	0
 2349 0289 00000000 		.long	0
 2350              	LVUS12:
 2351 028d 00       		.uleb128 LVU71
 2352 028e 00       		.uleb128 LVU99
 2353              	LLST12:
 2354 028f F2000000 		.long	LVL23-Ltext0
 2355 0293 C0010000 		.long	LVL38-Ltext0
 2356 0297 0100     		.word	0x1
 2357 0299 55       		.byte	0x55
 2358 029a 00000000 		.long	0
 2359 029e 00000000 		.long	0
 2360              	LVUS13:
 2361 02a2 00       		.uleb128 LVU69
 2362 02a3 00       		.uleb128 LVU73
 2363 02a4 00       		.uleb128 LVU73
 2364 02a5 00       		.uleb128 LVU98
 2365              	LLST13:
 2366 02a6 ED000000 		.long	LVL22-Ltext0
 2367 02aa F4000000 		.long	LVL24-Ltext0
 2368 02ae 0100     		.word	0x1
 2369 02b0 50       		.byte	0x50
 2370 02b1 F4000000 		.long	LVL24-Ltext0
 2371 02b5 BF010000 		.long	LVL37-Ltext0
 2372 02b9 0100     		.word	0x1
 2373 02bb 57       		.byte	0x57
 2374 02bc 00000000 		.long	0
 2375 02c0 00000000 		.long	0
 2376              	LVUS14:
 2377 02c4 00       		.uleb128 LVU74
 2378 02c5 00       		.uleb128 LVU76
 2379 02c6 00       		.uleb128 LVU76
 2380 02c7 00       		.uleb128 0
 2381              	LLST14:
 2382 02c8 FD000000 		.long	LVL26-Ltext0
 2383 02cc FF000000 		.long	LVL27-Ltext0
 2384 02d0 0100     		.word	0x1
 2385 02d2 50       		.byte	0x50
 2386 02d3 FF000000 		.long	LVL27-Ltext0
 2387 02d7 C1010000 		.long	LFE13-Ltext0
 2388 02db 0200     		.word	0x2
 2389 02dd 91       		.byte	0x91
 2390 02de 54       		.sleb128 -44
GAS LISTING C:\Users\jisu8\AppData\Local\Temp\ccCR93IT.s 			page 50


 2391 02df 00000000 		.long	0
 2392 02e3 00000000 		.long	0
 2393              	LVUS15:
 2394 02e7 00       		.uleb128 LVU77
 2395 02e8 00       		.uleb128 LVU79
 2396 02e9 00       		.uleb128 LVU79
 2397 02ea 00       		.uleb128 0
 2398              	LLST15:
 2399 02eb 08010000 		.long	LVL29-Ltext0
 2400 02ef 0A010000 		.long	LVL30-Ltext0
 2401 02f3 0100     		.word	0x1
 2402 02f5 50       		.byte	0x50
 2403 02f6 0A010000 		.long	LVL30-Ltext0
 2404 02fa C1010000 		.long	LFE13-Ltext0
 2405 02fe 0200     		.word	0x2
 2406 0300 91       		.byte	0x91
 2407 0301 58       		.sleb128 -40
 2408 0302 00000000 		.long	0
 2409 0306 00000000 		.long	0
 2410              	LVUS16:
 2411 030a 00       		.uleb128 LVU80
 2412 030b 00       		.uleb128 LVU81
 2413 030c 00       		.uleb128 LVU81
 2414 030d 00       		.uleb128 0
 2415              	LLST16:
 2416 030e 13010000 		.long	LVL32-Ltext0
 2417 0312 27010000 		.long	LVL33-Ltext0
 2418 0316 0100     		.word	0x1
 2419 0318 50       		.byte	0x50
 2420 0319 27010000 		.long	LVL33-Ltext0
 2421 031d C1010000 		.long	LFE13-Ltext0
 2422 0321 0200     		.word	0x2
 2423 0323 91       		.byte	0x91
 2424 0324 5C       		.sleb128 -36
 2425 0325 00000000 		.long	0
 2426 0329 00000000 		.long	0
 2427              		.section	.debug_aranges,"dr"
 2428 0000 1C000000 		.long	0x1c
 2429 0004 0200     		.word	0x2
 2430 0006 00000000 		.secrel32	Ldebug_info0
 2431 000a 04       		.byte	0x4
 2432 000b 00       		.byte	0
 2433 000c 0000     		.word	0
 2434 000e 0000     		.word	0
 2435 0010 00000000 		.long	Ltext0
 2436 0014 C1010000 		.long	Letext0-Ltext0
 2437 0018 00000000 		.long	0
 2438 001c 00000000 		.long	0
 2439              		.section	.debug_line,"dr"
 2440              	Ldebug_line0:
 2441 0000 5D020000 		.section	.debug_str,"dr"
 2441      0200D900 
 2441      00000101 
 2441      FB0E0D00 
 2441      01010101 
 2442              	LASF6:
 2443 0000 47656E65 		.ascii "GenericLuminanceSource\0"
GAS LISTING C:\Users\jisu8\AppData\Local\Temp\ccCR93IT.s 			page 51


 2443      7269634C 
 2443      756D696E 
 2443      616E6365 
 2443      536F7572 
 2444              	LASF5:
 2445 0017 4D756C74 		.ascii "MultiFormatReader\0"
 2445      69466F72 
 2445      6D617452 
 2445      65616465 
 2445      7200
 2446              	LASF4:
 2447 0029 4465636F 		.ascii "DecodeHints\0"
 2447      64654869 
 2447      6E747300 
 2448              	LASF0:
 2449 0035 68656967 		.ascii "height\0"
 2449      687400
 2450              	LASF1:
 2451 003c 666F726D 		.ascii "format\0"
 2451      617400
 2452              	LASF3:
 2453 0043 70697853 		.ascii "pixStride\0"
 2453      74726964 
 2453      6500
 2454              	LASF2:
 2455 004d 726F7753 		.ascii "rowStride\0"
 2455      74726964 
 2455      6500
 2456              		.ident	"GCC: (i686-posix-dwarf-rev0, Built by MinGW-W64 project) 8.1.0"
GAS LISTING C:\Users\jisu8\AppData\Local\Temp\ccCR93IT.s 			page 52


DEFINED SYMBOLS
                            *ABS*:00000000 ReadBarcode.c
C:\Users\jisu8\AppData\Local\Temp\ccCR93IT.s:5      .text:00000000 _DecodeHints_Init
                            *COM*:00000014 _DecodeHints
C:\Users\jisu8\AppData\Local\Temp\ccCR93IT.s:33     .text:00000031 _PixStride
C:\Users\jisu8\AppData\Local\Temp\ccCR93IT.s:47     .text:00000035 _RedIndex
C:\Users\jisu8\AppData\Local\Temp\ccCR93IT.s:63     .text:0000003c _GreenIndex
C:\Users\jisu8\AppData\Local\Temp\ccCR93IT.s:77     .text:00000040 _BlueIndex
C:\Users\jisu8\AppData\Local\Temp\ccCR93IT.s:98     .text:00000044 _ReadBarcode_Internal
                            *COM*:00000018 _ImageView
C:\Users\jisu8\AppData\Local\Temp\ccCR93IT.s:191    .text:000000a8 _ReadBarcode
                            *COM*:00000018 _GenericLuminanceSource_

UNDEFINED SYMBOLS
_printf
_MultiFormatReader
_GenericLuminanceSource
