GAS LISTING C:\Users\jisu8\AppData\Local\Temp\cc4q5xNQ.s 			page 1


   1              		.file	"Result.c"
   2              		.text
   3              	Ltext0:
   5              	_normalized:
   6              	LFB1:
   7              		.file 1 "src/Result.c"
   1:src/Result.c  **** /*
   2:src/Result.c  **** * Copyright 2016 Nu-book Inc.
   3:src/Result.c  **** * Copyright 2016 ZXing authors
   4:src/Result.c  **** *
   5:src/Result.c  **** * Licensed under the Apache License, Version 2.0 (the "License");
   6:src/Result.c  **** * you may not use this file except in compliance with the License.
   7:src/Result.c  **** * You may obtain a copy of the License at
   8:src/Result.c  **** *
   9:src/Result.c  **** *      http://www.apache.org/licenses/LICENSE-2.0
  10:src/Result.c  **** *
  11:src/Result.c  **** * Unless required by applicable law or agreed to in writing, software
  12:src/Result.c  **** * distributed under the License is distributed on an "AS IS" BASIS,
  13:src/Result.c  **** * WITHOUT WARRANTIES OR CONDITIONS OF ANY KIND, either express or implied.
  14:src/Result.c  **** * See the License for the specific language governing permissions and
  15:src/Result.c  **** * limitations under the License.
  16:src/Result.c  **** */
  17:src/Result.c  **** 
  18:src/Result.c  **** #include "Result.h"
  19:src/Result.c  **** 
  20:src/Result.c  **** #include "DecoderResult.h"
  21:src/Result.c  **** #include "TextDecoder.h"
  22:src/Result.c  **** #include <math.h>
  23:src/Result.c  **** 
  24:src/Result.c  **** #if 0
  25:src/Result.c  **** Result::Result(std::wstring&& text, Position&& position, BarcodeFormat format, ByteArray&& rawBytes
  26:src/Result.c  **** 			   const bool readerInit)
  27:src/Result.c  **** 	: _format(format), _text(std::move(text)), _position(std::move(position)), _rawBytes(std::move(raw
  28:src/Result.c  **** 	  _readerInit(readerInit)
  29:src/Result.c  **** {
  30:src/Result.c  **** 	_numBits = Size(_rawBytes) * 8;
  31:src/Result.c  **** }
  32:src/Result.c  **** 
  33:src/Result.c  **** Result::Result(const std::string& text, int y, int xStart, int xStop, BarcodeFormat format, ByteArr
  34:src/Result.c  **** 			   const bool readerInit)
  35:src/Result.c  **** 	: Result(TextDecoder::FromLatin1(text), Line(y, xStart, xStop), format, std::move(rawBytes), reade
  36:src/Result.c  **** {}
  37:src/Result.c  **** 
  38:src/Result.c  **** Result::Result(DecoderResult&& decodeResult, Position&& position, BarcodeFormat format)
  39:src/Result.c  **** 	: _status(decodeResult.errorCode()), _format(format), _text(std::move(decodeResult).text()),
  40:src/Result.c  **** 	  _position(std::move(position)), _rawBytes(std::move(decodeResult).rawBytes()), _numBits(decodeRe
  41:src/Result.c  **** 	  _ecLevel(decodeResult.ecLevel()), _sai(decodeResult.structuredAppend()), _readerInit(decodeResul
  42:src/Result.c  **** {
  43:src/Result.c  **** 	// TODO: keep that for one release so people get the deprecation warning with a still intact funct
  44:src/Result.c  **** 	if (isPartOfSequence()) {
  45:src/Result.c  **** 		_metadata.put(ResultMetadata::STRUCTURED_APPEND_SEQUENCE, sequenceIndex());
  46:src/Result.c  **** 		_metadata.put(ResultMetadata::STRUCTURED_APPEND_CODE_COUNT, sequenceSize());
  47:src/Result.c  **** 		if (_format == BarcodeFormat::QRCode)
  48:src/Result.c  **** 			_metadata.put(ResultMetadata::STRUCTURED_APPEND_PARITY, std::stoi(sequenceId()));
  49:src/Result.c  **** 	}
  50:src/Result.c  **** 
  51:src/Result.c  **** 	// TODO: add type opaque and code specific 'extra data'? (see DecoderResult::extra())
GAS LISTING C:\Users\jisu8\AppData\Local\Temp\cc4q5xNQ.s 			page 2


  52:src/Result.c  **** }
  53:src/Result.c  **** #endif	
  54:src/Result.c  **** static PointF_t normalized(PointT_t * centerline)
  55:src/Result.c  **** {
   8              		.loc 1 55 1
   9              		.cfi_startproc
  10 0000 55       		pushl	%ebp
  11              	LCFI0:
  12              		.cfi_def_cfa_offset 8
  13              		.cfi_offset 5, -8
  14 0001 89E5     		movl	%esp, %ebp
  15              	LCFI1:
  16              		.cfi_def_cfa_register 5
  17 0003 83EC38   		subl	$56, %esp
  56:src/Result.c  **** 	double length;
  57:src/Result.c  **** 	PointF_t result;
  58:src/Result.c  **** 	length = sqrt(centerline->x * centerline->x + centerline->y * centerline->y);
  18              		.loc 1 58 26
  19 0006 8B450C   		movl	12(%ebp), %eax
  20 0009 D900     		flds	(%eax)
  21              		.loc 1 58 42
  22 000b 8B450C   		movl	12(%ebp), %eax
  23 000e D900     		flds	(%eax)
  24              		.loc 1 58 30
  25 0010 DEC9     		fmulp	%st, %st(1)
  26              		.loc 1 58 58
  27 0012 8B450C   		movl	12(%ebp), %eax
  28 0015 D94004   		flds	4(%eax)
  29              		.loc 1 58 74
  30 0018 8B450C   		movl	12(%ebp), %eax
  31 001b D94004   		flds	4(%eax)
  32              		.loc 1 58 62
  33 001e DEC9     		fmulp	%st, %st(1)
  34              		.loc 1 58 46
  35 0020 DEC1     		faddp	%st, %st(1)
  36              		.loc 1 58 11
  37 0022 DD1C24   		fstpl	(%esp)
  38 0025 E8000000 		call	_sqrt
  38      00
  39 002a DD5DF0   		fstpl	-16(%ebp)
  59:src/Result.c  **** 	result.x = centerline->x / length;
  40              		.loc 1 59 23
  41 002d 8B450C   		movl	12(%ebp), %eax
  42 0030 D900     		flds	(%eax)
  43              		.loc 1 59 27
  44 0032 DC75F0   		fdivl	-16(%ebp)
  45              		.loc 1 59 11
  46 0035 DD5DE0   		fstpl	-32(%ebp)
  60:src/Result.c  **** 	result.y = centerline->y / length;
  47              		.loc 1 60 23
  48 0038 8B450C   		movl	12(%ebp), %eax
  49 003b D94004   		flds	4(%eax)
  50              		.loc 1 60 27
  51 003e DC75F0   		fdivl	-16(%ebp)
  52              		.loc 1 60 11
  53 0041 DD5DE8   		fstpl	-24(%ebp)
  61:src/Result.c  **** 	return result;
GAS LISTING C:\Users\jisu8\AppData\Local\Temp\cc4q5xNQ.s 			page 3


  54              		.loc 1 61 9
  55 0044 8B4508   		movl	8(%ebp), %eax
  56 0047 8B55E0   		movl	-32(%ebp), %edx
  57 004a 8910     		movl	%edx, (%eax)
  58 004c 8B55E4   		movl	-28(%ebp), %edx
  59 004f 895004   		movl	%edx, 4(%eax)
  60 0052 8B55E8   		movl	-24(%ebp), %edx
  61 0055 895008   		movl	%edx, 8(%eax)
  62 0058 8B55EC   		movl	-20(%ebp), %edx
  63 005b 89500C   		movl	%edx, 12(%eax)
  62:src/Result.c  **** }
  64              		.loc 1 62 1
  65 005e 8B4508   		movl	8(%ebp), %eax
  66 0061 C9       		leave
  67              	LCFI2:
  68              		.cfi_restore 5
  69              		.cfi_def_cfa 4, 4
  70 0062 C3       		ret
  71              		.cfi_endproc
  72              	LFE1:
  74              	_orientation:
  75              	LFB2:
  63:src/Result.c  **** static double orientation(result_t * result) 
  64:src/Result.c  **** {
  76              		.loc 1 64 1
  77              		.cfi_startproc
  78 0063 55       		pushl	%ebp
  79              	LCFI3:
  80              		.cfi_def_cfa_offset 8
  81              		.cfi_offset 5, -8
  82 0064 89E5     		movl	%esp, %ebp
  83              	LCFI4:
  84              		.cfi_def_cfa_register 5
  85 0066 83EC48   		subl	$72, %esp
  65:src/Result.c  **** 	PointT_t centerLine;
  66:src/Result.c  **** 	centerLine.x = (double)(result->_position[1].x + result->_position[2].x) - (result->_position[0].x
  86              		.loc 1 66 46
  87 0069 8B4508   		movl	8(%ebp), %eax
  88 006c 8B5014   		movl	20(%eax), %edx
  89              		.loc 1 66 71
  90 006f 8B4508   		movl	8(%ebp), %eax
  91 0072 8B401C   		movl	28(%eax), %eax
  92              		.loc 1 66 49
  93 0075 01D0     		addl	%edx, %eax
  94              		.loc 1 66 17
  95 0077 8945D0   		movl	%eax, -48(%ebp)
  96 007a DB45D0   		fildl	-48(%ebp)
  97              		.loc 1 66 98
  98 007d 8B4508   		movl	8(%ebp), %eax
  99 0080 8B500C   		movl	12(%eax), %edx
 100              		.loc 1 66 123
 101 0083 8B4508   		movl	8(%ebp), %eax
 102 0086 8B4024   		movl	36(%eax), %eax
 103              		.loc 1 66 101
 104 0089 01D0     		addl	%edx, %eax
 105              		.loc 1 66 75
 106 008b 8945D0   		movl	%eax, -48(%ebp)
GAS LISTING C:\Users\jisu8\AppData\Local\Temp\cc4q5xNQ.s 			page 4


 107 008e DB45D0   		fildl	-48(%ebp)
 108 0091 DEE9     		fsubrp	%st, %st(1)
 109 0093 D95DD4   		fstps	-44(%ebp)
 110 0096 D945D4   		flds	-44(%ebp)
 111              		.loc 1 66 15
 112 0099 D95DF0   		fstps	-16(%ebp)
  67:src/Result.c  **** 	centerLine.y = (double)(result->_position[1].y + result->_position[2].y) - (result->_position[0].y
 113              		.loc 1 67 46
 114 009c 8B4508   		movl	8(%ebp), %eax
 115 009f 8B5018   		movl	24(%eax), %edx
 116              		.loc 1 67 71
 117 00a2 8B4508   		movl	8(%ebp), %eax
 118 00a5 8B4020   		movl	32(%eax), %eax
 119              		.loc 1 67 49
 120 00a8 01D0     		addl	%edx, %eax
 121              		.loc 1 67 17
 122 00aa 8945D0   		movl	%eax, -48(%ebp)
 123 00ad DB45D0   		fildl	-48(%ebp)
 124              		.loc 1 67 98
 125 00b0 8B4508   		movl	8(%ebp), %eax
 126 00b3 8B5010   		movl	16(%eax), %edx
 127              		.loc 1 67 123
 128 00b6 8B4508   		movl	8(%ebp), %eax
 129 00b9 8B4028   		movl	40(%eax), %eax
 130              		.loc 1 67 101
 131 00bc 01D0     		addl	%edx, %eax
 132              		.loc 1 67 75
 133 00be 8945D0   		movl	%eax, -48(%ebp)
 134 00c1 DB45D0   		fildl	-48(%ebp)
 135 00c4 DEE9     		fsubrp	%st, %st(1)
 136 00c6 D95DD4   		fstps	-44(%ebp)
 137 00c9 D945D4   		flds	-44(%ebp)
 138              		.loc 1 67 15
 139 00cc D95DF4   		fstps	-12(%ebp)
  68:src/Result.c  **** 	if ((centerLine.x == 0)&&(centerLine.y == 0))
 140              		.loc 1 68 17
 141 00cf D945F0   		flds	-16(%ebp)
 142              		.loc 1 68 5
 143 00d2 D9EE     		fldz
 144 00d4 DFE9     		fucomip	%st(1), %st
 145 00d6 7A1D     		jp	L11
 146 00d8 D9EE     		fldz
 147 00da DFE9     		fucomip	%st(1), %st
 148 00dc DDD8     		fstp	%st(0)
 149 00de 751B     		jne	L4
 150              		.loc 1 68 38 discriminator 1
 151 00e0 D945F4   		flds	-12(%ebp)
 152              		.loc 1 68 25 discriminator 1
 153 00e3 D9EE     		fldz
 154 00e5 DFE9     		fucomip	%st(1), %st
 155 00e7 7A10     		jp	L12
 156 00e9 D9EE     		fldz
 157 00eb DFE9     		fucomip	%st(1), %st
 158 00ed DDD8     		fstp	%st(0)
 159 00ef 750A     		jne	L4
  69:src/Result.c  **** 	{
  70:src/Result.c  **** 		return 0.0;
GAS LISTING C:\Users\jisu8\AppData\Local\Temp\cc4q5xNQ.s 			page 5


 160              		.loc 1 70 10
 161 00f1 D9EE     		fldz
 162 00f3 EB2A     		jmp	L8
 163              	L11:
 164 00f5 DDD8     		fstp	%st(0)
 165 00f7 EB02     		jmp	L4
 166              	L12:
 167 00f9 DDD8     		fstp	%st(0)
 168              	L4:
  71:src/Result.c  **** 	}
  72:src/Result.c  **** 
  73:src/Result.c  **** 	PointF_t centerLineF = normalized(&centerLine);
 169              		.loc 1 73 25
 170 00fb 8D45E0   		leal	-32(%ebp), %eax
 171 00fe 8D55F0   		leal	-16(%ebp), %edx
 172 0101 89542404 		movl	%edx, 4(%esp)
 173 0105 890424   		movl	%eax, (%esp)
 174 0108 E8F3FEFF 		call	_normalized
 174      FF
  74:src/Result.c  **** 	return atan2(centerLineF.y, centerLineF.x);
 175              		.loc 1 74 9
 176 010d DD45E8   		fldl	-24(%ebp)
 177 0110 DD45E0   		fldl	-32(%ebp)
 178 0113 DD5C2408 		fstpl	8(%esp)
 179 0117 DD1C24   		fstpl	(%esp)
 180 011a E8000000 		call	_atan2
 180      00
 181              	L8:
  75:src/Result.c  **** }
 182              		.loc 1 75 1 discriminator 1
 183 011f C9       		leave
 184              	LCFI5:
 185              		.cfi_restore 5
 186              		.cfi_def_cfa 4, 4
 187 0120 C3       		ret
 188              		.cfi_endproc
 189              	LFE2:
 190              		.globl	_Result_Orientation
 192              	_Result_Orientation:
 193              	LFB3:
  76:src/Result.c  **** int Result_Orientation(result_t * result)
  77:src/Result.c  **** {
 194              		.loc 1 77 1
 195              		.cfi_startproc
 196 0121 55       		pushl	%ebp
 197              	LCFI6:
 198              		.cfi_def_cfa_offset 8
 199              		.cfi_offset 5, -8
 200 0122 89E5     		movl	%esp, %ebp
 201              	LCFI7:
 202              		.cfi_def_cfa_register 5
 203 0124 83EC28   		subl	$40, %esp
  78:src/Result.c  **** 	const double std_numbers_pi_v = 3.14159265358979323846; // TODO: c++20 <numbers>
 204              		.loc 1 78 15
 205 0127 DD050000 		fldl	LC3
 205      0000
 206 012d DD5DF0   		fstpl	-16(%ebp)
GAS LISTING C:\Users\jisu8\AppData\Local\Temp\cc4q5xNQ.s 			page 6


  79:src/Result.c  **** 	return lround(orientation(result) * 180 / std_numbers_pi_v);
 207              		.loc 1 79 16
 208 0130 8B4508   		movl	8(%ebp), %eax
 209 0133 890424   		movl	%eax, (%esp)
 210 0136 E828FFFF 		call	_orientation
 210      FF
 211              		.loc 1 79 36
 212 013b DD050800 		fldl	LC4
 212      0000
 213 0141 DEC9     		fmulp	%st, %st(1)
 214              		.loc 1 79 9
 215 0143 DC75F0   		fdivl	-16(%ebp)
 216 0146 DD1C24   		fstpl	(%esp)
 217 0149 E8000000 		call	_lround
 217      00
  80:src/Result.c  **** }
 218              		.loc 1 80 1
 219 014e C9       		leave
 220              	LCFI8:
 221              		.cfi_restore 5
 222              		.cfi_def_cfa 4, 4
 223 014f C3       		ret
 224              		.cfi_endproc
 225              	LFE3:
 226              		.section .rdata,"dr"
 227              		.align 8
 228              	LC3:
 229 0000 182D4454 		.long	1413754136
 230 0004 FB210940 		.long	1074340347
 231              		.align 8
 232              	LC4:
 233 0008 00000000 		.long	0
 234 000c 00806640 		.long	1080459264
 235              		.text
 236              	Letext0:
 237              		.file 2 "src/DecodeStatus.h"
 238              		.file 3 "src/BarcodeFormat.h"
 239              		.file 4 "D:/3.tools/mingw/mingw32/i686-w64-mingw32/include/stdint.h"
 240              		.file 5 "src/ResultPoint.h"
 241              		.file 6 "src/StructuredAppend.h"
 242              		.file 7 "src/Result.h"
 243              		.file 8 "D:/3.tools/mingw/mingw32/i686-w64-mingw32/include/math.h"