GAS LISTING C:\Users\jisu8\AppData\Local\Temp\ccaF4dek.s 			page 1


   1              		.file	"ResultPoint.c"
   2              		.text
   3              	Ltext0:
   4              		.globl	_Distance
   6              	_Distance:
   7              	LFB1:
   8              		.file 1 "src/ResultPoint.c"
   1:src/ResultPoint.c **** /*
   2:src/ResultPoint.c **** * Copyright 2016 Nu-book Inc.
   3:src/ResultPoint.c **** * Copyright 2016 ZXing authors
   4:src/ResultPoint.c **** *
   5:src/ResultPoint.c **** * Licensed under the Apache License, Version 2.0 (the "License");
   6:src/ResultPoint.c **** * you may not use this file except in compliance with the License.
   7:src/ResultPoint.c **** * You may obtain a copy of the License at
   8:src/ResultPoint.c **** *
   9:src/ResultPoint.c **** *      http://www.apache.org/licenses/LICENSE-2.0
  10:src/ResultPoint.c **** *
  11:src/ResultPoint.c **** * Unless required by applicable law or agreed to in writing, software
  12:src/ResultPoint.c **** * distributed under the License is distributed on an "AS IS" BASIS,
  13:src/ResultPoint.c **** * WITHOUT WARRANTIES OR CONDITIONS OF ANY KIND, either express or implied.
  14:src/ResultPoint.c **** * See the License for the specific language governing permissions and
  15:src/ResultPoint.c **** * limitations under the License.
  16:src/ResultPoint.c **** */
  17:src/ResultPoint.c **** 
  18:src/ResultPoint.c **** #include "ResultPoint.h"
  19:src/ResultPoint.c **** #include <math.h>
  20:src/ResultPoint.c **** 
  21:src/ResultPoint.c **** 
  22:src/ResultPoint.c **** float Distance(int aX, int aY, int bX, int bY)
  23:src/ResultPoint.c **** {
   9              		.loc 1 23 1
  10              		.cfi_startproc
  11 0000 55       		pushl	%ebp
  12              	LCFI0:
  13              		.cfi_def_cfa_offset 8
  14              		.cfi_offset 5, -8
  15 0001 89E5     		movl	%esp, %ebp
  16              	LCFI1:
  17              		.cfi_def_cfa_register 5
  18 0003 83EC38   		subl	$56, %esp
  24:src/ResultPoint.c **** 	float dx = 0;
  19              		.loc 1 24 8
  20 0006 D9EE     		fldz
  21 0008 D95DF4   		fstps	-12(%ebp)
  25:src/ResultPoint.c **** 	float dy = 0;
  22              		.loc 1 25 8
  23 000b D9EE     		fldz
  24 000d D95DF0   		fstps	-16(%ebp)
  26:src/ResultPoint.c **** 	dx = (float)(aX - bX);
  25              		.loc 1 26 18
  26 0010 8B4508   		movl	8(%ebp), %eax
  27 0013 2B4510   		subl	16(%ebp), %eax
  28              		.loc 1 26 5
  29 0016 8945E0   		movl	%eax, -32(%ebp)
  30 0019 DB45E0   		fildl	-32(%ebp)
  31 001c D95DF4   		fstps	-12(%ebp)
  27:src/ResultPoint.c **** 	dy = (float)(aY - bY);
GAS LISTING C:\Users\jisu8\AppData\Local\Temp\ccaF4dek.s 			page 2


  32              		.loc 1 27 18
  33 001f 8B450C   		movl	12(%ebp), %eax
  34 0022 2B4514   		subl	20(%ebp), %eax
  35              		.loc 1 27 5
  36 0025 8945E0   		movl	%eax, -32(%ebp)
  37 0028 DB45E0   		fildl	-32(%ebp)
  38 002b D95DF0   		fstps	-16(%ebp)
  28:src/ResultPoint.c **** 	return sqrt(dx * dx + dy * dy);
  39              		.loc 1 28 17
  40 002e D945F4   		flds	-12(%ebp)
  41 0031 D84DF4   		fmuls	-12(%ebp)
  42              		.loc 1 28 27
  43 0034 D945F0   		flds	-16(%ebp)
  44 0037 D84DF0   		fmuls	-16(%ebp)
  45              		.loc 1 28 22
  46 003a DEC1     		faddp	%st, %st(1)
  47              		.loc 1 28 9
  48 003c DD1C24   		fstpl	(%esp)
  49 003f E8000000 		call	_sqrt
  49      00
  50 0044 D95DE4   		fstps	-28(%ebp)
  51 0047 D945E4   		flds	-28(%ebp)
  29:src/ResultPoint.c **** }
  52              		.loc 1 29 1
  53 004a C9       		leave
  54              	LCFI2:
  55              		.cfi_restore 5
  56              		.cfi_def_cfa 4, 4
  57 004b C3       		ret
  58              		.cfi_endproc
  59              	LFE1:
  60              	Letext0:
  61              		.file 2 "D:/3.tools/mingw/mingw32/i686-w64-mingw32/include/math.h"