GAS LISTING C:\Users\jisu8\AppData\Local\Temp\ccTSXm7f.s 			page 1


   1              		.file	"stb_image.c"
   2              		.text
   3              	Ltext0:
   5              	_stbi__start_mem:
   6              	LFB17:
   7              		.file 1 "thirdparty/stb_image.c"
   1:thirdparty/stb_image.c **** /* stb_image - v2.25 - public domain image loader - http://nothings.org/stb
   2:thirdparty/stb_image.c ****                                   no warranty implied; use at your own risk
   3:thirdparty/stb_image.c **** 
   4:thirdparty/stb_image.c ****    Do this:
   5:thirdparty/stb_image.c ****       #define STB_IMAGE_IMPLEMENTATION
   6:thirdparty/stb_image.c ****    before you include this file in *one* C or C++ file to create the implementation.
   7:thirdparty/stb_image.c **** 
   8:thirdparty/stb_image.c ****    // i.e. it should look like this:
   9:thirdparty/stb_image.c ****    #include ...
  10:thirdparty/stb_image.c ****    #include ...
  11:thirdparty/stb_image.c ****    #include ...
  12:thirdparty/stb_image.c ****    #define STB_IMAGE_IMPLEMENTATION
  13:thirdparty/stb_image.c ****    #include "stb_image.h"
  14:thirdparty/stb_image.c **** 
  15:thirdparty/stb_image.c ****    You can #define STBI_ASSERT(x) before the #include to avoid using assert.h.
  16:thirdparty/stb_image.c ****    And #define STBI_MALLOC, STBI_REALLOC, and STBI_FREE to avoid using malloc,realloc,free
  17:thirdparty/stb_image.c **** 
  18:thirdparty/stb_image.c **** 
  19:thirdparty/stb_image.c ****    QUICK NOTES:
  20:thirdparty/stb_image.c ****       Primarily of interest to game developers and other people who can
  21:thirdparty/stb_image.c ****           avoid problematic images and only need the trivial interface
  22:thirdparty/stb_image.c **** 
  23:thirdparty/stb_image.c ****       JPEG baseline & progressive (12 bpc/arithmetic not supported, same as stock IJG lib)
  24:thirdparty/stb_image.c ****       PNG 1/2/4/8/16-bit-per-channel
  25:thirdparty/stb_image.c **** 
  26:thirdparty/stb_image.c ****       TGA (not sure what subset, if a subset)
  27:thirdparty/stb_image.c ****       BMP non-1bpp, non-RLE
  28:thirdparty/stb_image.c ****       PSD (composited view only, no extra channels, 8/16 bit-per-channel)
  29:thirdparty/stb_image.c **** 
  30:thirdparty/stb_image.c ****       GIF (*comp always reports as 4-channel)
  31:thirdparty/stb_image.c ****       HDR (radiance rgbE format)
  32:thirdparty/stb_image.c ****       PIC (Softimage PIC)
  33:thirdparty/stb_image.c ****       PNM (PPM and PGM binary only)
  34:thirdparty/stb_image.c **** 
  35:thirdparty/stb_image.c ****       Animated GIF still needs a proper API, but here's one way to do it:
  36:thirdparty/stb_image.c ****           http://gist.github.com/urraka/685d9a6340b26b830d49
  37:thirdparty/stb_image.c **** 
  38:thirdparty/stb_image.c ****       - decode from memory or through FILE (define STBI_NO_STDIO to remove code)
  39:thirdparty/stb_image.c ****       - decode from arbitrary I/O callbacks
  40:thirdparty/stb_image.c ****       - SIMD acceleration on x86/x64 (SSE2) and ARM (NEON)
  41:thirdparty/stb_image.c **** 
  42:thirdparty/stb_image.c ****    Full documentation under "DOCUMENTATION" below.
  43:thirdparty/stb_image.c **** 
  44:thirdparty/stb_image.c **** 
  45:thirdparty/stb_image.c **** LICENSE
  46:thirdparty/stb_image.c **** 
  47:thirdparty/stb_image.c ****   See end of file for license information.
  48:thirdparty/stb_image.c **** 
  49:thirdparty/stb_image.c **** RECENT REVISION HISTORY:
  50:thirdparty/stb_image.c **** 
  51:thirdparty/stb_image.c ****       2.25  (2020-02-02) fix warnings
GAS LISTING C:\Users\jisu8\AppData\Local\Temp\ccTSXm7f.s 			page 2


  52:thirdparty/stb_image.c ****       2.24  (2020-02-02) fix warnings; thread-local failure_reason and flip_vertically
  53:thirdparty/stb_image.c ****       2.23  (2019-08-11) fix clang static analysis warning
  54:thirdparty/stb_image.c ****       2.22  (2019-03-04) gif fixes, fix warnings
  55:thirdparty/stb_image.c ****       2.21  (2019-02-25) fix typo in comment
  56:thirdparty/stb_image.c ****       2.20  (2019-02-07) support utf8 filenames in Windows; fix warnings and platform ifdefs
  57:thirdparty/stb_image.c ****       2.19  (2018-02-11) fix warning
  58:thirdparty/stb_image.c ****       2.18  (2018-01-30) fix warnings
  59:thirdparty/stb_image.c ****       2.17  (2018-01-29) bugfix, 1-bit BMP, 16-bitness query, fix warnings
  60:thirdparty/stb_image.c ****       2.16  (2017-07-23) all functions have 16-bit variants; optimizations; bugfixes
  61:thirdparty/stb_image.c ****       2.15  (2017-03-18) fix png-1,2,4; all Imagenet JPGs; no runtime SSE detection on GCC
  62:thirdparty/stb_image.c ****       2.14  (2017-03-03) remove deprecated STBI_JPEG_OLD; fixes for Imagenet JPGs
  63:thirdparty/stb_image.c ****       2.13  (2016-12-04) experimental 16-bit API, only for PNG so far; fixes
  64:thirdparty/stb_image.c ****       2.12  (2016-04-02) fix typo in 2.11 PSD fix that caused crashes
  65:thirdparty/stb_image.c ****       2.11  (2016-04-02) 16-bit PNGS; enable SSE2 in non-gcc x64
  66:thirdparty/stb_image.c ****                          RGB-format JPEG; remove white matting in PSD;
  67:thirdparty/stb_image.c ****                          allocate large structures on the stack;
  68:thirdparty/stb_image.c ****                          correct channel count for PNG & BMP
  69:thirdparty/stb_image.c ****       2.10  (2016-01-22) avoid warning introduced in 2.09
  70:thirdparty/stb_image.c ****       2.09  (2016-01-16) 16-bit TGA; comments in PNM files; STBI_REALLOC_SIZED
  71:thirdparty/stb_image.c **** 
  72:thirdparty/stb_image.c ****    See end of file for full revision history.
  73:thirdparty/stb_image.c **** 
  74:thirdparty/stb_image.c **** 
  75:thirdparty/stb_image.c ****  ============================    Contributors    =========================
  76:thirdparty/stb_image.c **** 
  77:thirdparty/stb_image.c ****  Image formats                          Extensions, features
  78:thirdparty/stb_image.c ****     Sean Barrett (jpeg, png, bmp)          Jetro Lauha (stbi_info)
  79:thirdparty/stb_image.c ****     Nicolas Schulz (hdr, psd)              Martin "SpartanJ" Golini (stbi_info)
  80:thirdparty/stb_image.c ****     Jonathan Dummer (tga)                  James "moose2000" Brown (iPhone PNG)
  81:thirdparty/stb_image.c ****     Jean-Marc Lienher (gif)                Ben "Disch" Wenger (io callbacks)
  82:thirdparty/stb_image.c ****     Tom Seddon (pic)                       Omar Cornut (1/2/4-bit PNG)
  83:thirdparty/stb_image.c ****     Thatcher Ulrich (psd)                  Nicolas Guillemot (vertical flip)
  84:thirdparty/stb_image.c ****     Ken Miller (pgm, ppm)                  Richard Mitton (16-bit PSD)
  85:thirdparty/stb_image.c ****     github:urraka (animated gif)           Junggon Kim (PNM comments)
  86:thirdparty/stb_image.c ****     Christopher Forseth (animated gif)     Daniel Gibson (16-bit TGA)
  87:thirdparty/stb_image.c ****                                            socks-the-fox (16-bit PNG)
  88:thirdparty/stb_image.c ****                                            Jeremy Sawicki (handle all ImageNet JPGs)
  89:thirdparty/stb_image.c ****  Optimizations & bugfixes                  Mikhail Morozov (1-bit BMP)
  90:thirdparty/stb_image.c ****     Fabian "ryg" Giesen                    Anael Seghezzi (is-16-bit query)
  91:thirdparty/stb_image.c ****     Arseny Kapoulkine
  92:thirdparty/stb_image.c ****     John-Mark Allen
  93:thirdparty/stb_image.c ****     Carmelo J Fdez-Aguera
  94:thirdparty/stb_image.c **** 
  95:thirdparty/stb_image.c ****  Bug & warning fixes
  96:thirdparty/stb_image.c ****     Marc LeBlanc            David Woo          Guillaume George   Martins Mozeiko
  97:thirdparty/stb_image.c ****     Christpher Lloyd        Jerry Jansson      Joseph Thomson     Phil Jordan
  98:thirdparty/stb_image.c ****     Dave Moore              Roy Eltham         Hayaki Saito       Nathan Reed
  99:thirdparty/stb_image.c ****     Won Chun                Luke Graham        Johan Duparc       Nick Verigakis
 100:thirdparty/stb_image.c ****     the Horde3D community   Thomas Ruf         Ronny Chevalier    github:rlyeh
 101:thirdparty/stb_image.c ****     Janez Zemva             John Bartholomew   Michal Cichon      github:romigrou
 102:thirdparty/stb_image.c ****     Jonathan Blow           Ken Hamada         Tero Hanninen      github:svdijk
 103:thirdparty/stb_image.c ****     Laurent Gomila          Cort Stratton      Sergio Gonzalez    github:snagar
 104:thirdparty/stb_image.c ****     Aruelien Pocheville     Thibault Reuille   Cass Everitt       github:Zelex
 105:thirdparty/stb_image.c ****     Ryamond Barbiero        Paul Du Bois       Engin Manap        github:grim210
 106:thirdparty/stb_image.c ****     Aldo Culquicondor       Philipp Wiesemann  Dale Weiler        github:sammyhw
 107:thirdparty/stb_image.c ****     Oriol Ferrer Mesia      Josh Tobin         Matthew Gregan     github:phprus
 108:thirdparty/stb_image.c ****     Julian Raschke          Gregory Mullen     Baldur Karlsson    github:poppolopoppo
GAS LISTING C:\Users\jisu8\AppData\Local\Temp\ccTSXm7f.s 			page 3


 109:thirdparty/stb_image.c ****     Christian Floisand      Kevin Schmidt      JR Smith           github:darealshinji
 110:thirdparty/stb_image.c ****     Brad Weinberger         Matvey Cherevko                       github:Michaelangel007
 111:thirdparty/stb_image.c ****     Blazej Dariusz Roszkowski                  Alexander Veselov
 112:thirdparty/stb_image.c **** */
 113:thirdparty/stb_image.c **** #include "stb_image.h"
 114:thirdparty/stb_image.c **** 
 115:thirdparty/stb_image.c **** #if defined(STBI_ONLY_JPEG) || defined(STBI_ONLY_PNG) || defined(STBI_ONLY_BMP) \
 116:thirdparty/stb_image.c ****   || defined(STBI_ONLY_TGA) || defined(STBI_ONLY_GIF) || defined(STBI_ONLY_PSD) \
 117:thirdparty/stb_image.c ****   || defined(STBI_ONLY_HDR) || defined(STBI_ONLY_PIC) || defined(STBI_ONLY_PNM) \
 118:thirdparty/stb_image.c ****   || defined(STBI_ONLY_ZLIB)
 119:thirdparty/stb_image.c ****    #ifndef STBI_ONLY_JPEG
 120:thirdparty/stb_image.c ****    #define STBI_NO_JPEG
 121:thirdparty/stb_image.c ****    #endif
 122:thirdparty/stb_image.c ****    #ifndef STBI_ONLY_PNG
 123:thirdparty/stb_image.c ****    #define STBI_NO_PNG
 124:thirdparty/stb_image.c ****    #endif
 125:thirdparty/stb_image.c ****    #ifndef STBI_ONLY_BMP
 126:thirdparty/stb_image.c ****    #define STBI_NO_BMP
 127:thirdparty/stb_image.c ****    #endif
 128:thirdparty/stb_image.c ****    #ifndef STBI_ONLY_PSD
 129:thirdparty/stb_image.c ****    #define STBI_NO_PSD
 130:thirdparty/stb_image.c ****    #endif
 131:thirdparty/stb_image.c ****    #ifndef STBI_ONLY_TGA
 132:thirdparty/stb_image.c ****    #define STBI_NO_TGA
 133:thirdparty/stb_image.c ****    #endif
 134:thirdparty/stb_image.c ****    #ifndef STBI_ONLY_GIF
 135:thirdparty/stb_image.c ****    #define STBI_NO_GIF
 136:thirdparty/stb_image.c ****    #endif
 137:thirdparty/stb_image.c ****    #ifndef STBI_ONLY_HDR
 138:thirdparty/stb_image.c ****    #define STBI_NO_HDR
 139:thirdparty/stb_image.c ****    #endif
 140:thirdparty/stb_image.c ****    #ifndef STBI_ONLY_PIC
 141:thirdparty/stb_image.c ****    #define STBI_NO_PIC
 142:thirdparty/stb_image.c ****    #endif
 143:thirdparty/stb_image.c ****    #ifndef STBI_ONLY_PNM
 144:thirdparty/stb_image.c ****    #define STBI_NO_PNM
 145:thirdparty/stb_image.c ****    #endif
 146:thirdparty/stb_image.c **** #endif
 147:thirdparty/stb_image.c **** 
 148:thirdparty/stb_image.c **** #if defined(STBI_NO_PNG) && !defined(STBI_SUPPORT_ZLIB) && !defined(STBI_NO_ZLIB)
 149:thirdparty/stb_image.c **** #define STBI_NO_ZLIB
 150:thirdparty/stb_image.c **** #endif
 151:thirdparty/stb_image.c **** 
 152:thirdparty/stb_image.c **** 
 153:thirdparty/stb_image.c **** #include <stdarg.h>
 154:thirdparty/stb_image.c **** #include <stddef.h> // ptrdiff_t on osx
 155:thirdparty/stb_image.c **** #include <stdlib.h>
 156:thirdparty/stb_image.c **** #include <string.h>
 157:thirdparty/stb_image.c **** #include <limits.h>
 158:thirdparty/stb_image.c **** 
 159:thirdparty/stb_image.c **** #if !defined(STBI_NO_LINEAR) || !defined(STBI_NO_HDR)
 160:thirdparty/stb_image.c **** #include <math.h>  // ldexp, pow
 161:thirdparty/stb_image.c **** #endif
 162:thirdparty/stb_image.c **** 
 163:thirdparty/stb_image.c **** #ifndef STBI_NO_STDIO
 164:thirdparty/stb_image.c **** #include <stdio.h>
 165:thirdparty/stb_image.c **** #endif
GAS LISTING C:\Users\jisu8\AppData\Local\Temp\ccTSXm7f.s 			page 4


 166:thirdparty/stb_image.c **** 
 167:thirdparty/stb_image.c **** #ifndef STBI_ASSERT
 168:thirdparty/stb_image.c **** #include <assert.h>
 169:thirdparty/stb_image.c **** #define STBI_ASSERT(x) assert(x)
 170:thirdparty/stb_image.c **** #endif
 171:thirdparty/stb_image.c **** 
 172:thirdparty/stb_image.c **** #ifdef __cplusplus
 173:thirdparty/stb_image.c **** #define STBI_EXTERN extern "C"
 174:thirdparty/stb_image.c **** #else
 175:thirdparty/stb_image.c **** #define STBI_EXTERN extern
 176:thirdparty/stb_image.c **** #endif
 177:thirdparty/stb_image.c **** 
 178:thirdparty/stb_image.c **** 
 179:thirdparty/stb_image.c **** #ifndef _MSC_VER
 180:thirdparty/stb_image.c ****    #ifdef __cplusplus
 181:thirdparty/stb_image.c ****    #define stbi_inline inline
 182:thirdparty/stb_image.c ****    #else
 183:thirdparty/stb_image.c ****    #define stbi_inline
 184:thirdparty/stb_image.c ****    #endif
 185:thirdparty/stb_image.c **** #else
 186:thirdparty/stb_image.c ****    #define stbi_inline __forceinline
 187:thirdparty/stb_image.c **** #endif
 188:thirdparty/stb_image.c **** 
 189:thirdparty/stb_image.c **** #ifndef STBI_NO_THREAD_LOCALS
 190:thirdparty/stb_image.c ****    #if defined(__cplusplus) &&  __cplusplus >= 201103L
 191:thirdparty/stb_image.c ****       #define STBI_THREAD_LOCAL       thread_local
 192:thirdparty/stb_image.c ****    #elif defined (__STDC_VERSION__) && __STDC_VERSION__ >= 201112L
 193:thirdparty/stb_image.c ****       #define STBI_THREAD_LOCAL       _Thread_local
 194:thirdparty/stb_image.c ****    #elif defined(__GNUC__)
 195:thirdparty/stb_image.c ****       #define STBI_THREAD_LOCAL       __thread
 196:thirdparty/stb_image.c ****    #elif defined(_MSC_VER)
 197:thirdparty/stb_image.c ****       #define STBI_THREAD_LOCAL       __declspec(thread)
 198:thirdparty/stb_image.c **** #endif
 199:thirdparty/stb_image.c **** #endif
 200:thirdparty/stb_image.c **** 
 201:thirdparty/stb_image.c **** #ifdef _MSC_VER
 202:thirdparty/stb_image.c **** typedef unsigned short stbi__uint16;
 203:thirdparty/stb_image.c **** typedef   signed short stbi__int16;
 204:thirdparty/stb_image.c **** typedef unsigned int   stbi__uint32;
 205:thirdparty/stb_image.c **** typedef   signed int   stbi__int32;
 206:thirdparty/stb_image.c **** #else
 207:thirdparty/stb_image.c **** #include <stdint.h>
 208:thirdparty/stb_image.c **** typedef uint16_t stbi__uint16;
 209:thirdparty/stb_image.c **** typedef int16_t  stbi__int16;
 210:thirdparty/stb_image.c **** typedef uint32_t stbi__uint32;
 211:thirdparty/stb_image.c **** typedef int32_t  stbi__int32;
 212:thirdparty/stb_image.c **** #endif
 213:thirdparty/stb_image.c **** 
 214:thirdparty/stb_image.c **** // should produce compiler error if size is wrong
 215:thirdparty/stb_image.c **** typedef unsigned char validate_uint32[sizeof(stbi__uint32)==4 ? 1 : -1];
 216:thirdparty/stb_image.c **** 
 217:thirdparty/stb_image.c **** #ifdef _MSC_VER
 218:thirdparty/stb_image.c **** #define STBI_NOTUSED(v)  (void)(v)
 219:thirdparty/stb_image.c **** #else
 220:thirdparty/stb_image.c **** #define STBI_NOTUSED(v)  (void)sizeof(v)
 221:thirdparty/stb_image.c **** #endif
 222:thirdparty/stb_image.c **** 
GAS LISTING C:\Users\jisu8\AppData\Local\Temp\ccTSXm7f.s 			page 5


 223:thirdparty/stb_image.c **** #ifdef _MSC_VER
 224:thirdparty/stb_image.c **** #define STBI_HAS_LROTL
 225:thirdparty/stb_image.c **** #endif
 226:thirdparty/stb_image.c **** 
 227:thirdparty/stb_image.c **** #ifdef STBI_HAS_LROTL
 228:thirdparty/stb_image.c ****    #define stbi_lrot(x,y)  _lrotl(x,y)
 229:thirdparty/stb_image.c **** #else
 230:thirdparty/stb_image.c ****    #define stbi_lrot(x,y)  (((x) << (y)) | ((x) >> (32 - (y))))
 231:thirdparty/stb_image.c **** #endif
 232:thirdparty/stb_image.c **** 
 233:thirdparty/stb_image.c **** #if defined(STBI_MALLOC) && defined(STBI_FREE) && (defined(STBI_REALLOC) || defined(STBI_REALLOC_SI
 234:thirdparty/stb_image.c **** // ok
 235:thirdparty/stb_image.c **** #elif !defined(STBI_MALLOC) && !defined(STBI_FREE) && !defined(STBI_REALLOC) && !defined(STBI_REALL
 236:thirdparty/stb_image.c **** // ok
 237:thirdparty/stb_image.c **** #else
 238:thirdparty/stb_image.c **** #error "Must define all or none of STBI_MALLOC, STBI_FREE, and STBI_REALLOC (or STBI_REALLOC_SIZED)
 239:thirdparty/stb_image.c **** #endif
 240:thirdparty/stb_image.c **** 
 241:thirdparty/stb_image.c **** #ifndef STBI_MALLOC
 242:thirdparty/stb_image.c **** #define STBI_MALLOC(sz)           malloc(sz)
 243:thirdparty/stb_image.c **** #define STBI_REALLOC(p,newsz)     realloc(p,newsz)
 244:thirdparty/stb_image.c **** #define STBI_FREE(p)              free(p)
 245:thirdparty/stb_image.c **** #endif
 246:thirdparty/stb_image.c **** 
 247:thirdparty/stb_image.c **** #ifndef STBI_REALLOC_SIZED
 248:thirdparty/stb_image.c **** #define STBI_REALLOC_SIZED(p,oldsz,newsz) STBI_REALLOC(p,newsz)
 249:thirdparty/stb_image.c **** #endif
 250:thirdparty/stb_image.c **** 
 251:thirdparty/stb_image.c **** // x86/x64 detection
 252:thirdparty/stb_image.c **** #if defined(__x86_64__) || defined(_M_X64)
 253:thirdparty/stb_image.c **** #define STBI__X64_TARGET
 254:thirdparty/stb_image.c **** #elif defined(__i386) || defined(_M_IX86)
 255:thirdparty/stb_image.c **** #define STBI__X86_TARGET
 256:thirdparty/stb_image.c **** #endif
 257:thirdparty/stb_image.c **** 
 258:thirdparty/stb_image.c **** #if defined(__GNUC__) && defined(STBI__X86_TARGET) && !defined(__SSE2__) && !defined(STBI_NO_SIMD)
 259:thirdparty/stb_image.c **** // gcc doesn't support sse2 intrinsics unless you compile with -msse2,
 260:thirdparty/stb_image.c **** // which in turn means it gets to use SSE2 everywhere. This is unfortunate,
 261:thirdparty/stb_image.c **** // but previous attempts to provide the SSE2 functions with runtime
 262:thirdparty/stb_image.c **** // detection caused numerous issues. The way architecture extensions are
 263:thirdparty/stb_image.c **** // exposed in GCC/Clang is, sadly, not really suited for one-file libs.
 264:thirdparty/stb_image.c **** // New behavior: if compiled with -msse2, we use SSE2 without any
 265:thirdparty/stb_image.c **** // detection; if not, we don't use it at all.
 266:thirdparty/stb_image.c **** #define STBI_NO_SIMD
 267:thirdparty/stb_image.c **** #endif
 268:thirdparty/stb_image.c **** 
 269:thirdparty/stb_image.c **** #if defined(__MINGW32__) && defined(STBI__X86_TARGET) && !defined(STBI_MINGW_ENABLE_SSE2) && !defin
 270:thirdparty/stb_image.c **** // Note that __MINGW32__ doesn't actually mean 32-bit, so we have to avoid STBI__X64_TARGET
 271:thirdparty/stb_image.c **** //
 272:thirdparty/stb_image.c **** // 32-bit MinGW wants ESP to be 16-byte aligned, but this is not in the
 273:thirdparty/stb_image.c **** // Windows ABI and VC++ as well as Windows DLLs don't maintain that invariant.
 274:thirdparty/stb_image.c **** // As a result, enabling SSE2 on 32-bit MinGW is dangerous when not
 275:thirdparty/stb_image.c **** // simultaneously enabling "-mstackrealign".
 276:thirdparty/stb_image.c **** //
 277:thirdparty/stb_image.c **** // See https://github.com/nothings/stb/issues/81 for more information.
 278:thirdparty/stb_image.c **** //
 279:thirdparty/stb_image.c **** // So default to no SSE2 on 32-bit MinGW. If you've read this far and added
GAS LISTING C:\Users\jisu8\AppData\Local\Temp\ccTSXm7f.s 			page 6


 280:thirdparty/stb_image.c **** // -mstackrealign to your build settings, feel free to #define STBI_MINGW_ENABLE_SSE2.
 281:thirdparty/stb_image.c **** #define STBI_NO_SIMD
 282:thirdparty/stb_image.c **** #endif
 283:thirdparty/stb_image.c **** 
 284:thirdparty/stb_image.c **** #if !defined(STBI_NO_SIMD) && (defined(STBI__X86_TARGET) || defined(STBI__X64_TARGET))
 285:thirdparty/stb_image.c **** #define STBI_SSE2
 286:thirdparty/stb_image.c **** #include <emmintrin.h>
 287:thirdparty/stb_image.c **** 
 288:thirdparty/stb_image.c **** #ifdef _MSC_VER
 289:thirdparty/stb_image.c **** 
 290:thirdparty/stb_image.c **** #if _MSC_VER >= 1400  // not VC6
 291:thirdparty/stb_image.c **** #include <intrin.h> // __cpuid
 292:thirdparty/stb_image.c **** static int stbi__cpuid3(void)
 293:thirdparty/stb_image.c **** {
 294:thirdparty/stb_image.c ****    int info[4];
 295:thirdparty/stb_image.c ****    __cpuid(info,1);
 296:thirdparty/stb_image.c ****    return info[3];
 297:thirdparty/stb_image.c **** }
 298:thirdparty/stb_image.c **** #else
 299:thirdparty/stb_image.c **** static int stbi__cpuid3(void)
 300:thirdparty/stb_image.c **** {
 301:thirdparty/stb_image.c ****    int res;
 302:thirdparty/stb_image.c ****    __asm {
 303:thirdparty/stb_image.c ****       mov  eax,1
 304:thirdparty/stb_image.c ****       cpuid
 305:thirdparty/stb_image.c ****       mov  res,edx
 306:thirdparty/stb_image.c ****    }
 307:thirdparty/stb_image.c ****    return res;
 308:thirdparty/stb_image.c **** }
 309:thirdparty/stb_image.c **** #endif
 310:thirdparty/stb_image.c **** 
 311:thirdparty/stb_image.c **** #define STBI_SIMD_ALIGN(type, name) __declspec(align(16)) type name
 312:thirdparty/stb_image.c **** 
 313:thirdparty/stb_image.c **** #if !defined(STBI_NO_JPEG) && defined(STBI_SSE2)
 314:thirdparty/stb_image.c **** static int stbi__sse2_available(void)
 315:thirdparty/stb_image.c **** {
 316:thirdparty/stb_image.c ****    int info3 = stbi__cpuid3();
 317:thirdparty/stb_image.c ****    return ((info3 >> 26) & 1) != 0;
 318:thirdparty/stb_image.c **** }
 319:thirdparty/stb_image.c **** #endif
 320:thirdparty/stb_image.c **** 
 321:thirdparty/stb_image.c **** #else // assume GCC-style if not VC++
 322:thirdparty/stb_image.c **** #define STBI_SIMD_ALIGN(type, name) type name __attribute__((aligned(16)))
 323:thirdparty/stb_image.c **** 
 324:thirdparty/stb_image.c **** #if !defined(STBI_NO_JPEG) && defined(STBI_SSE2)
 325:thirdparty/stb_image.c **** static int stbi__sse2_available(void)
 326:thirdparty/stb_image.c **** {
 327:thirdparty/stb_image.c ****    // If we're even attempting to compile this on GCC/Clang, that means
 328:thirdparty/stb_image.c ****    // -msse2 is on, which means the compiler is allowed to use SSE2
 329:thirdparty/stb_image.c ****    // instructions at will, and so are we.
 330:thirdparty/stb_image.c ****    return 1;
 331:thirdparty/stb_image.c **** }
 332:thirdparty/stb_image.c **** #endif
 333:thirdparty/stb_image.c **** 
 334:thirdparty/stb_image.c **** #endif
 335:thirdparty/stb_image.c **** #endif
 336:thirdparty/stb_image.c **** 
GAS LISTING C:\Users\jisu8\AppData\Local\Temp\ccTSXm7f.s 			page 7


 337:thirdparty/stb_image.c **** // ARM NEON
 338:thirdparty/stb_image.c **** #if defined(STBI_NO_SIMD) && defined(STBI_NEON)
 339:thirdparty/stb_image.c **** #undef STBI_NEON
 340:thirdparty/stb_image.c **** #endif
 341:thirdparty/stb_image.c **** 
 342:thirdparty/stb_image.c **** #ifdef STBI_NEON
 343:thirdparty/stb_image.c **** #include <arm_neon.h>
 344:thirdparty/stb_image.c **** // assume GCC or Clang on ARM targets
 345:thirdparty/stb_image.c **** #define STBI_SIMD_ALIGN(type, name) type name __attribute__((aligned(16)))
 346:thirdparty/stb_image.c **** #endif
 347:thirdparty/stb_image.c **** 
 348:thirdparty/stb_image.c **** #ifndef STBI_SIMD_ALIGN
 349:thirdparty/stb_image.c **** #define STBI_SIMD_ALIGN(type, name) type name
 350:thirdparty/stb_image.c **** #endif
 351:thirdparty/stb_image.c **** 
 352:thirdparty/stb_image.c **** ///////////////////////////////////////////////
 353:thirdparty/stb_image.c **** //
 354:thirdparty/stb_image.c **** //  stbi__context struct and start_xxx functions
 355:thirdparty/stb_image.c **** 
 356:thirdparty/stb_image.c **** // stbi__context structure is our basic context used by all images, so it
 357:thirdparty/stb_image.c **** // contains all the IO context, plus some basic image information
 358:thirdparty/stb_image.c **** typedef struct
 359:thirdparty/stb_image.c **** {
 360:thirdparty/stb_image.c ****    stbi__uint32 img_x, img_y;
 361:thirdparty/stb_image.c ****    int img_n, img_out_n;
 362:thirdparty/stb_image.c **** 
 363:thirdparty/stb_image.c ****    stbi_io_callbacks io;
 364:thirdparty/stb_image.c ****    void *io_user_data;
 365:thirdparty/stb_image.c **** 
 366:thirdparty/stb_image.c ****    int read_from_callbacks;
 367:thirdparty/stb_image.c ****    int buflen;
 368:thirdparty/stb_image.c ****    stbi_uc buffer_start[128];
 369:thirdparty/stb_image.c **** 
 370:thirdparty/stb_image.c ****    stbi_uc *img_buffer, *img_buffer_end;
 371:thirdparty/stb_image.c ****    stbi_uc *img_buffer_original, *img_buffer_original_end;
 372:thirdparty/stb_image.c **** } stbi__context;
 373:thirdparty/stb_image.c **** 
 374:thirdparty/stb_image.c **** 
 375:thirdparty/stb_image.c **** static void stbi__refill_buffer(stbi__context *s);
 376:thirdparty/stb_image.c **** 
 377:thirdparty/stb_image.c **** // initialize a memory-decode context
 378:thirdparty/stb_image.c **** static void stbi__start_mem(stbi__context *s, stbi_uc const *buffer, int len)
 379:thirdparty/stb_image.c **** {
   8              		.loc 1 379 1
   9              		.cfi_startproc
  10 0000 55       		pushl	%ebp
  11              	LCFI0:
  12              		.cfi_def_cfa_offset 8
  13              		.cfi_offset 5, -8
  14 0001 89E5     		movl	%esp, %ebp
  15              	LCFI1:
  16              		.cfi_def_cfa_register 5
 380:thirdparty/stb_image.c ****    s->io.read = NULL;
  17              		.loc 1 380 15
  18 0003 8B4508   		movl	8(%ebp), %eax
  19 0006 C7401000 		movl	$0, 16(%eax)
  19      000000
GAS LISTING C:\Users\jisu8\AppData\Local\Temp\ccTSXm7f.s 			page 8


 381:thirdparty/stb_image.c ****    s->read_from_callbacks = 0;
  20              		.loc 1 381 27
  21 000d 8B4508   		movl	8(%ebp), %eax
  22 0010 C7402000 		movl	$0, 32(%eax)
  22      000000
 382:thirdparty/stb_image.c ****    s->img_buffer = s->img_buffer_original = (stbi_uc *) buffer;
  23              		.loc 1 382 43
  24 0017 8B4508   		movl	8(%ebp), %eax
  25 001a 8B550C   		movl	12(%ebp), %edx
  26 001d 8990B000 		movl	%edx, 176(%eax)
  26      0000
  27              		.loc 1 382 21
  28 0023 8B4508   		movl	8(%ebp), %eax
  29 0026 8B90B000 		movl	176(%eax), %edx
  29      0000
  30              		.loc 1 382 18
  31 002c 8B4508   		movl	8(%ebp), %eax
  32 002f 8990A800 		movl	%edx, 168(%eax)
  32      0000
 383:thirdparty/stb_image.c ****    s->img_buffer_end = s->img_buffer_original_end = (stbi_uc *) buffer+len;
  33              		.loc 1 383 71
  34 0035 8B5510   		movl	16(%ebp), %edx
  35 0038 8B450C   		movl	12(%ebp), %eax
  36 003b 01C2     		addl	%eax, %edx
  37              		.loc 1 383 51
  38 003d 8B4508   		movl	8(%ebp), %eax
  39 0040 8990B400 		movl	%edx, 180(%eax)
  39      0000
  40              		.loc 1 383 25
  41 0046 8B4508   		movl	8(%ebp), %eax
  42 0049 8B90B400 		movl	180(%eax), %edx
  42      0000
  43              		.loc 1 383 22
  44 004f 8B4508   		movl	8(%ebp), %eax
  45 0052 8990AC00 		movl	%edx, 172(%eax)
  45      0000
 384:thirdparty/stb_image.c **** }
  46              		.loc 1 384 1
  47 0058 90       		nop
  48 0059 5D       		popl	%ebp
  49              	LCFI2:
  50              		.cfi_restore 5
  51              		.cfi_def_cfa 4, 4
  52 005a C3       		ret
  53              		.cfi_endproc
  54              	LFE17:
  56              	_stbi__start_callbacks:
  57              	LFB18:
 385:thirdparty/stb_image.c **** 
 386:thirdparty/stb_image.c **** // initialize a callback-based context
 387:thirdparty/stb_image.c **** static void stbi__start_callbacks(stbi__context *s, stbi_io_callbacks *c, void *user)
 388:thirdparty/stb_image.c **** {
  58              		.loc 1 388 1
  59              		.cfi_startproc
  60 005b 55       		pushl	%ebp
  61              	LCFI3:
  62              		.cfi_def_cfa_offset 8
GAS LISTING C:\Users\jisu8\AppData\Local\Temp\ccTSXm7f.s 			page 9


  63              		.cfi_offset 5, -8
  64 005c 89E5     		movl	%esp, %ebp
  65              	LCFI4:
  66              		.cfi_def_cfa_register 5
  67 005e 83EC18   		subl	$24, %esp
 389:thirdparty/stb_image.c ****    s->io = *c;
  68              		.loc 1 389 10
  69 0061 8B4508   		movl	8(%ebp), %eax
  70 0064 8B550C   		movl	12(%ebp), %edx
  71 0067 8B0A     		movl	(%edx), %ecx
  72 0069 894810   		movl	%ecx, 16(%eax)
  73 006c 8B4A04   		movl	4(%edx), %ecx
  74 006f 894814   		movl	%ecx, 20(%eax)
  75 0072 8B5208   		movl	8(%edx), %edx
  76 0075 895018   		movl	%edx, 24(%eax)
 390:thirdparty/stb_image.c ****    s->io_user_data = user;
  77              		.loc 1 390 20
  78 0078 8B4508   		movl	8(%ebp), %eax
  79 007b 8B5510   		movl	16(%ebp), %edx
  80 007e 89501C   		movl	%edx, 28(%eax)
 391:thirdparty/stb_image.c ****    s->buflen = sizeof(s->buffer_start);
  81              		.loc 1 391 14
  82 0081 8B4508   		movl	8(%ebp), %eax
  83 0084 C7402480 		movl	$128, 36(%eax)
  83      000000
 392:thirdparty/stb_image.c ****    s->read_from_callbacks = 1;
  84              		.loc 1 392 27
  85 008b 8B4508   		movl	8(%ebp), %eax
  86 008e C7402001 		movl	$1, 32(%eax)
  86      000000
 393:thirdparty/stb_image.c ****    s->img_buffer_original = s->buffer_start;
  87              		.loc 1 393 29
  88 0095 8B4508   		movl	8(%ebp), %eax
  89 0098 8D5028   		leal	40(%eax), %edx
  90              		.loc 1 393 27
  91 009b 8B4508   		movl	8(%ebp), %eax
  92 009e 8990B000 		movl	%edx, 176(%eax)
  92      0000
 394:thirdparty/stb_image.c ****    stbi__refill_buffer(s);
  93              		.loc 1 394 4
  94 00a4 8B4508   		movl	8(%ebp), %eax
  95 00a7 890424   		movl	%eax, (%esp)
  96 00aa E8641300 		call	_stbi__refill_buffer
  96      00
 395:thirdparty/stb_image.c ****    s->img_buffer_original_end = s->img_buffer_end;
  97              		.loc 1 395 34
  98 00af 8B4508   		movl	8(%ebp), %eax
  99 00b2 8B90AC00 		movl	172(%eax), %edx
  99      0000
 100              		.loc 1 395 31
 101 00b8 8B4508   		movl	8(%ebp), %eax
 102 00bb 8990B400 		movl	%edx, 180(%eax)
 102      0000
 396:thirdparty/stb_image.c **** }
 103              		.loc 1 396 1
 104 00c1 90       		nop
 105 00c2 C9       		leave
GAS LISTING C:\Users\jisu8\AppData\Local\Temp\ccTSXm7f.s 			page 10


 106              	LCFI5:
 107              		.cfi_restore 5
 108              		.cfi_def_cfa 4, 4
 109 00c3 C3       		ret
 110              		.cfi_endproc
 111              	LFE18:
 113              	_stbi__stdio_read:
 114              	LFB19:
 397:thirdparty/stb_image.c **** 
 398:thirdparty/stb_image.c **** #ifndef STBI_NO_STDIO
 399:thirdparty/stb_image.c **** 
 400:thirdparty/stb_image.c **** static int stbi__stdio_read(void *user, char *data, int size)
 401:thirdparty/stb_image.c **** {
 115              		.loc 1 401 1
 116              		.cfi_startproc
 117 00c4 55       		pushl	%ebp
 118              	LCFI6:
 119              		.cfi_def_cfa_offset 8
 120              		.cfi_offset 5, -8
 121 00c5 89E5     		movl	%esp, %ebp
 122              	LCFI7:
 123              		.cfi_def_cfa_register 5
 124 00c7 83EC18   		subl	$24, %esp
 402:thirdparty/stb_image.c ****    return (int) fread(data,1,size,(FILE*) user);
 125              		.loc 1 402 17
 126 00ca 8B4510   		movl	16(%ebp), %eax
 127 00cd 8B5508   		movl	8(%ebp), %edx
 128 00d0 8954240C 		movl	%edx, 12(%esp)
 129 00d4 89442408 		movl	%eax, 8(%esp)
 130 00d8 C7442404 		movl	$1, 4(%esp)
 130      01000000 
 131 00e0 8B450C   		movl	12(%ebp), %eax
 132 00e3 890424   		movl	%eax, (%esp)
 133 00e6 E8000000 		call	_fread
 133      00
 403:thirdparty/stb_image.c **** }
 134              		.loc 1 403 1
 135 00eb C9       		leave
 136              	LCFI8:
 137              		.cfi_restore 5
 138              		.cfi_def_cfa 4, 4
 139 00ec C3       		ret
 140              		.cfi_endproc
 141              	LFE19:
 143              	_stbi__stdio_skip:
 144              	LFB20:
 404:thirdparty/stb_image.c **** 
 405:thirdparty/stb_image.c **** static void stbi__stdio_skip(void *user, int n)
 406:thirdparty/stb_image.c **** {
 145              		.loc 1 406 1
 146              		.cfi_startproc
 147 00ed 55       		pushl	%ebp
 148              	LCFI9:
 149              		.cfi_def_cfa_offset 8
 150              		.cfi_offset 5, -8
 151 00ee 89E5     		movl	%esp, %ebp
 152              	LCFI10:
GAS LISTING C:\Users\jisu8\AppData\Local\Temp\ccTSXm7f.s 			page 11


 153              		.cfi_def_cfa_register 5
 154 00f0 83EC18   		subl	$24, %esp
 407:thirdparty/stb_image.c ****    fseek((FILE*) user, n, SEEK_CUR);
 155              		.loc 1 407 4
 156 00f3 C7442408 		movl	$1, 8(%esp)
 156      01000000 
 157 00fb 8B450C   		movl	12(%ebp), %eax
 158 00fe 89442404 		movl	%eax, 4(%esp)
 159 0102 8B4508   		movl	8(%ebp), %eax
 160 0105 890424   		movl	%eax, (%esp)
 161 0108 E8000000 		call	_fseek
 161      00
 408:thirdparty/stb_image.c **** }
 162              		.loc 1 408 1
 163 010d 90       		nop
 164 010e C9       		leave
 165              	LCFI11:
 166              		.cfi_restore 5
 167              		.cfi_def_cfa 4, 4
 168 010f C3       		ret
 169              		.cfi_endproc
 170              	LFE20:
 172              	_stbi__stdio_eof:
 173              	LFB21:
 409:thirdparty/stb_image.c **** 
 410:thirdparty/stb_image.c **** static int stbi__stdio_eof(void *user)
 411:thirdparty/stb_image.c **** {
 174              		.loc 1 411 1
 175              		.cfi_startproc
 176 0110 55       		pushl	%ebp
 177              	LCFI12:
 178              		.cfi_def_cfa_offset 8
 179              		.cfi_offset 5, -8
 180 0111 89E5     		movl	%esp, %ebp
 181              	LCFI13:
 182              		.cfi_def_cfa_register 5
 183 0113 83EC18   		subl	$24, %esp
 412:thirdparty/stb_image.c ****    return feof((FILE*) user);
 184              		.loc 1 412 11
 185 0116 8B4508   		movl	8(%ebp), %eax
 186 0119 890424   		movl	%eax, (%esp)
 187 011c E8000000 		call	_feof
 187      00
 413:thirdparty/stb_image.c **** }
 188              		.loc 1 413 1
 189 0121 C9       		leave
 190              	LCFI14:
 191              		.cfi_restore 5
 192              		.cfi_def_cfa 4, 4
 193 0122 C3       		ret
 194              		.cfi_endproc
 195              	LFE21:
 196              		.data
 197              		.align 4
 198              	_stbi__stdio_callbacks:
 199 0000 C4000000 		.long	_stbi__stdio_read
 200 0004 ED000000 		.long	_stbi__stdio_skip
GAS LISTING C:\Users\jisu8\AppData\Local\Temp\ccTSXm7f.s 			page 12


 201 0008 10010000 		.long	_stbi__stdio_eof
 202              		.text
 204              	_stbi__start_file:
 205              	LFB22:
 414:thirdparty/stb_image.c **** 
 415:thirdparty/stb_image.c **** static stbi_io_callbacks stbi__stdio_callbacks =
 416:thirdparty/stb_image.c **** {
 417:thirdparty/stb_image.c ****    stbi__stdio_read,
 418:thirdparty/stb_image.c ****    stbi__stdio_skip,
 419:thirdparty/stb_image.c ****    stbi__stdio_eof,
 420:thirdparty/stb_image.c **** };
 421:thirdparty/stb_image.c **** 
 422:thirdparty/stb_image.c **** static void stbi__start_file(stbi__context *s, FILE *f)
 423:thirdparty/stb_image.c **** {
 206              		.loc 1 423 1
 207              		.cfi_startproc
 208 0123 55       		pushl	%ebp
 209              	LCFI15:
 210              		.cfi_def_cfa_offset 8
 211              		.cfi_offset 5, -8
 212 0124 89E5     		movl	%esp, %ebp
 213              	LCFI16:
 214              		.cfi_def_cfa_register 5
 215 0126 83EC18   		subl	$24, %esp
 424:thirdparty/stb_image.c ****    stbi__start_callbacks(s, &stbi__stdio_callbacks, (void *) f);
 216              		.loc 1 424 4
 217 0129 8B450C   		movl	12(%ebp), %eax
 218 012c 89442408 		movl	%eax, 8(%esp)
 219 0130 C7442404 		movl	$_stbi__stdio_callbacks, 4(%esp)
 219      00000000 
 220 0138 8B4508   		movl	8(%ebp), %eax
 221 013b 890424   		movl	%eax, (%esp)
 222 013e E818FFFF 		call	_stbi__start_callbacks
 222      FF
 425:thirdparty/stb_image.c **** }
 223              		.loc 1 425 1
 224 0143 90       		nop
 225 0144 C9       		leave
 226              	LCFI17:
 227              		.cfi_restore 5
 228              		.cfi_def_cfa 4, 4
 229 0145 C3       		ret
 230              		.cfi_endproc
 231              	LFE22:
 233              	_stbi__rewind:
 234              	LFB23:
 426:thirdparty/stb_image.c **** 
 427:thirdparty/stb_image.c **** //static void stop_file(stbi__context *s) { }
 428:thirdparty/stb_image.c **** 
 429:thirdparty/stb_image.c **** #endif // !STBI_NO_STDIO
 430:thirdparty/stb_image.c **** 
 431:thirdparty/stb_image.c **** static void stbi__rewind(stbi__context *s)
 432:thirdparty/stb_image.c **** {
 235              		.loc 1 432 1
 236              		.cfi_startproc
 237 0146 55       		pushl	%ebp
 238              	LCFI18:
GAS LISTING C:\Users\jisu8\AppData\Local\Temp\ccTSXm7f.s 			page 13


 239              		.cfi_def_cfa_offset 8
 240              		.cfi_offset 5, -8
 241 0147 89E5     		movl	%esp, %ebp
 242              	LCFI19:
 243              		.cfi_def_cfa_register 5
 433:thirdparty/stb_image.c ****    // conceptually rewind SHOULD rewind to the beginning of the stream,
 434:thirdparty/stb_image.c ****    // but we just rewind to the beginning of the initial buffer, because
 435:thirdparty/stb_image.c ****    // we only use it after doing 'test', which only ever looks at at most 92 bytes
 436:thirdparty/stb_image.c ****    s->img_buffer = s->img_buffer_original;
 244              		.loc 1 436 21
 245 0149 8B4508   		movl	8(%ebp), %eax
 246 014c 8B90B000 		movl	176(%eax), %edx
 246      0000
 247              		.loc 1 436 18
 248 0152 8B4508   		movl	8(%ebp), %eax
 249 0155 8990A800 		movl	%edx, 168(%eax)
 249      0000
 437:thirdparty/stb_image.c ****    s->img_buffer_end = s->img_buffer_original_end;
 250              		.loc 1 437 25
 251 015b 8B4508   		movl	8(%ebp), %eax
 252 015e 8B90B400 		movl	180(%eax), %edx
 252      0000
 253              		.loc 1 437 22
 254 0164 8B4508   		movl	8(%ebp), %eax
 255 0167 8990AC00 		movl	%edx, 172(%eax)
 255      0000
 438:thirdparty/stb_image.c **** }
 256              		.loc 1 438 1
 257 016d 90       		nop
 258 016e 5D       		popl	%ebp
 259              	LCFI20:
 260              		.cfi_restore 5
 261              		.cfi_def_cfa 4, 4
 262 016f C3       		ret
 263              		.cfi_endproc
 264              	LFE23:
 265              		.globl	_stbi_failure_reason
 267              	_stbi_failure_reason:
 268              	LFB24:
 439:thirdparty/stb_image.c **** 
 440:thirdparty/stb_image.c **** enum
 441:thirdparty/stb_image.c **** {
 442:thirdparty/stb_image.c ****    STBI_ORDER_RGB,
 443:thirdparty/stb_image.c ****    STBI_ORDER_BGR
 444:thirdparty/stb_image.c **** };
 445:thirdparty/stb_image.c **** 
 446:thirdparty/stb_image.c **** typedef struct
 447:thirdparty/stb_image.c **** {
 448:thirdparty/stb_image.c ****    int bits_per_channel;
 449:thirdparty/stb_image.c ****    int num_channels;
 450:thirdparty/stb_image.c ****    int channel_order;
 451:thirdparty/stb_image.c **** } stbi__result_info;
 452:thirdparty/stb_image.c **** 
 453:thirdparty/stb_image.c **** #ifndef STBI_NO_JPEG
 454:thirdparty/stb_image.c **** static int      stbi__jpeg_test(stbi__context *s);
 455:thirdparty/stb_image.c **** static void    *stbi__jpeg_load(stbi__context *s, int *x, int *y, int *comp, int req_comp, stbi__re
 456:thirdparty/stb_image.c **** static int      stbi__jpeg_info(stbi__context *s, int *x, int *y, int *comp);
GAS LISTING C:\Users\jisu8\AppData\Local\Temp\ccTSXm7f.s 			page 14


 457:thirdparty/stb_image.c **** #endif
 458:thirdparty/stb_image.c **** 
 459:thirdparty/stb_image.c **** #ifndef STBI_NO_PNG
 460:thirdparty/stb_image.c **** static int      stbi__png_test(stbi__context *s);
 461:thirdparty/stb_image.c **** static void    *stbi__png_load(stbi__context *s, int *x, int *y, int *comp, int req_comp, stbi__res
 462:thirdparty/stb_image.c **** static int      stbi__png_info(stbi__context *s, int *x, int *y, int *comp);
 463:thirdparty/stb_image.c **** static int      stbi__png_is16(stbi__context *s);
 464:thirdparty/stb_image.c **** #endif
 465:thirdparty/stb_image.c **** 
 466:thirdparty/stb_image.c **** #ifndef STBI_NO_BMP
 467:thirdparty/stb_image.c **** static int      stbi__bmp_test(stbi__context *s);
 468:thirdparty/stb_image.c **** static void    *stbi__bmp_load(stbi__context *s, int *x, int *y, int *comp, int req_comp, stbi__res
 469:thirdparty/stb_image.c **** static int      stbi__bmp_info(stbi__context *s, int *x, int *y, int *comp);
 470:thirdparty/stb_image.c **** #endif
 471:thirdparty/stb_image.c **** 
 472:thirdparty/stb_image.c **** #ifndef STBI_NO_TGA
 473:thirdparty/stb_image.c **** static int      stbi__tga_test(stbi__context *s);
 474:thirdparty/stb_image.c **** static void    *stbi__tga_load(stbi__context *s, int *x, int *y, int *comp, int req_comp, stbi__res
 475:thirdparty/stb_image.c **** static int      stbi__tga_info(stbi__context *s, int *x, int *y, int *comp);
 476:thirdparty/stb_image.c **** #endif
 477:thirdparty/stb_image.c **** 
 478:thirdparty/stb_image.c **** #ifndef STBI_NO_PSD
 479:thirdparty/stb_image.c **** static int      stbi__psd_test(stbi__context *s);
 480:thirdparty/stb_image.c **** static void    *stbi__psd_load(stbi__context *s, int *x, int *y, int *comp, int req_comp, stbi__res
 481:thirdparty/stb_image.c **** static int      stbi__psd_info(stbi__context *s, int *x, int *y, int *comp);
 482:thirdparty/stb_image.c **** static int      stbi__psd_is16(stbi__context *s);
 483:thirdparty/stb_image.c **** #endif
 484:thirdparty/stb_image.c **** 
 485:thirdparty/stb_image.c **** #ifndef STBI_NO_HDR
 486:thirdparty/stb_image.c **** static int      stbi__hdr_test(stbi__context *s);
 487:thirdparty/stb_image.c **** static float   *stbi__hdr_load(stbi__context *s, int *x, int *y, int *comp, int req_comp, stbi__res
 488:thirdparty/stb_image.c **** static int      stbi__hdr_info(stbi__context *s, int *x, int *y, int *comp);
 489:thirdparty/stb_image.c **** #endif
 490:thirdparty/stb_image.c **** 
 491:thirdparty/stb_image.c **** #ifndef STBI_NO_PIC
 492:thirdparty/stb_image.c **** static int      stbi__pic_test(stbi__context *s);
 493:thirdparty/stb_image.c **** static void    *stbi__pic_load(stbi__context *s, int *x, int *y, int *comp, int req_comp, stbi__res
 494:thirdparty/stb_image.c **** static int      stbi__pic_info(stbi__context *s, int *x, int *y, int *comp);
 495:thirdparty/stb_image.c **** #endif
 496:thirdparty/stb_image.c **** 
 497:thirdparty/stb_image.c **** #ifndef STBI_NO_GIF
 498:thirdparty/stb_image.c **** static int      stbi__gif_test(stbi__context *s);
 499:thirdparty/stb_image.c **** static void    *stbi__gif_load(stbi__context *s, int *x, int *y, int *comp, int req_comp, stbi__res
 500:thirdparty/stb_image.c **** static void    *stbi__load_gif_main(stbi__context *s, int **delays, int *x, int *y, int *z, int *co
 501:thirdparty/stb_image.c **** static int      stbi__gif_info(stbi__context *s, int *x, int *y, int *comp);
 502:thirdparty/stb_image.c **** #endif
 503:thirdparty/stb_image.c **** 
 504:thirdparty/stb_image.c **** #ifndef STBI_NO_PNM
 505:thirdparty/stb_image.c **** static int      stbi__pnm_test(stbi__context *s);
 506:thirdparty/stb_image.c **** static void    *stbi__pnm_load(stbi__context *s, int *x, int *y, int *comp, int req_comp, stbi__res
 507:thirdparty/stb_image.c **** static int      stbi__pnm_info(stbi__context *s, int *x, int *y, int *comp);
 508:thirdparty/stb_image.c **** #endif
 509:thirdparty/stb_image.c **** 
 510:thirdparty/stb_image.c **** static
 511:thirdparty/stb_image.c **** #ifdef STBI_THREAD_LOCAL
 512:thirdparty/stb_image.c **** STBI_THREAD_LOCAL
 513:thirdparty/stb_image.c **** #endif
GAS LISTING C:\Users\jisu8\AppData\Local\Temp\ccTSXm7f.s 			page 15


 514:thirdparty/stb_image.c **** const char *stbi__g_failure_reason;
 515:thirdparty/stb_image.c **** 
 516:thirdparty/stb_image.c **** STBIDEF const char *stbi_failure_reason(void)
 517:thirdparty/stb_image.c **** {
 269              		.loc 1 517 1
 270              		.cfi_startproc
 271 0170 55       		pushl	%ebp
 272              	LCFI21:
 273              		.cfi_def_cfa_offset 8
 274              		.cfi_offset 5, -8
 275 0171 89E5     		movl	%esp, %ebp
 276              	LCFI22:
 277              		.cfi_def_cfa_register 5
 278 0173 83EC18   		subl	$24, %esp
 518:thirdparty/stb_image.c ****    return stbi__g_failure_reason;
 279              		.loc 1 518 11
 280 0176 C70424C4 		movl	$___emutls_v.stbi__g_failure_reason, (%esp)
 280      000000
 281 017d E8000000 		call	___emutls_get_address
 281      00
 282 0182 8B00     		movl	(%eax), %eax
 519:thirdparty/stb_image.c **** }
 283              		.loc 1 519 1
 284 0184 C9       		leave
 285              	LCFI23:
 286              		.cfi_restore 5
 287              		.cfi_def_cfa 4, 4
 288 0185 C3       		ret
 289              		.cfi_endproc
 290              	LFE24:
 292              	_stbi__err:
 293              	LFB25:
 520:thirdparty/stb_image.c **** 
 521:thirdparty/stb_image.c **** #ifndef STBI_NO_FAILURE_STRINGS
 522:thirdparty/stb_image.c **** static int stbi__err(const char *str)
 523:thirdparty/stb_image.c **** {
 294              		.loc 1 523 1
 295              		.cfi_startproc
 296 0186 55       		pushl	%ebp
 297              	LCFI24:
 298              		.cfi_def_cfa_offset 8
 299              		.cfi_offset 5, -8
 300 0187 89E5     		movl	%esp, %ebp
 301              	LCFI25:
 302              		.cfi_def_cfa_register 5
 303 0189 83EC18   		subl	$24, %esp
 524:thirdparty/stb_image.c ****    stbi__g_failure_reason = str;
 304              		.loc 1 524 27
 305 018c C70424C4 		movl	$___emutls_v.stbi__g_failure_reason, (%esp)
 305      000000
 306 0193 E8000000 		call	___emutls_get_address
 306      00
 307 0198 89C2     		movl	%eax, %edx
 308 019a 8B4508   		movl	8(%ebp), %eax
 309 019d 8902     		movl	%eax, (%edx)
 525:thirdparty/stb_image.c ****    return 0;
 310              		.loc 1 525 11
GAS LISTING C:\Users\jisu8\AppData\Local\Temp\ccTSXm7f.s 			page 16


 311 019f B8000000 		movl	$0, %eax
 311      00
 526:thirdparty/stb_image.c **** }
 312              		.loc 1 526 1
 313 01a4 C9       		leave
 314              	LCFI26:
 315              		.cfi_restore 5
 316              		.cfi_def_cfa 4, 4
 317 01a5 C3       		ret
 318              		.cfi_endproc
 319              	LFE25:
 321              	_stbi__malloc:
 322              	LFB26:
 527:thirdparty/stb_image.c **** #endif
 528:thirdparty/stb_image.c **** 
 529:thirdparty/stb_image.c **** static void *stbi__malloc(size_t size)
 530:thirdparty/stb_image.c **** {
 323              		.loc 1 530 1
 324              		.cfi_startproc
 325 01a6 55       		pushl	%ebp
 326              	LCFI27:
 327              		.cfi_def_cfa_offset 8
 328              		.cfi_offset 5, -8
 329 01a7 89E5     		movl	%esp, %ebp
 330              	LCFI28:
 331              		.cfi_def_cfa_register 5
 332 01a9 83EC18   		subl	$24, %esp
 531:thirdparty/stb_image.c ****     return STBI_MALLOC(size);
 333              		.loc 1 531 12
 334 01ac 8B4508   		movl	8(%ebp), %eax
 335 01af 890424   		movl	%eax, (%esp)
 336 01b2 E8000000 		call	_malloc
 336      00
 532:thirdparty/stb_image.c **** }
 337              		.loc 1 532 1
 338 01b7 C9       		leave
 339              	LCFI29:
 340              		.cfi_restore 5
 341              		.cfi_def_cfa 4, 4
 342 01b8 C3       		ret
 343              		.cfi_endproc
 344              	LFE26:
 346              	_stbi__addsizes_valid:
 347              	LFB27:
 533:thirdparty/stb_image.c **** 
 534:thirdparty/stb_image.c **** // stb_image uses ints pervasively, including for offset calculations.
 535:thirdparty/stb_image.c **** // therefore the largest decoded image size we can support with the
 536:thirdparty/stb_image.c **** // current code, even on 64-bit targets, is INT_MAX. this is not a
 537:thirdparty/stb_image.c **** // significant limitation for the intended use case.
 538:thirdparty/stb_image.c **** //
 539:thirdparty/stb_image.c **** // we do, however, need to make sure our size calculations don't
 540:thirdparty/stb_image.c **** // overflow. hence a few helper functions for size calculations that
 541:thirdparty/stb_image.c **** // multiply integers together, making sure that they're non-negative
 542:thirdparty/stb_image.c **** // and no overflow occurs.
 543:thirdparty/stb_image.c **** 
 544:thirdparty/stb_image.c **** // return 1 if the sum is valid, 0 on overflow.
 545:thirdparty/stb_image.c **** // negative terms are considered invalid.
GAS LISTING C:\Users\jisu8\AppData\Local\Temp\ccTSXm7f.s 			page 17


 546:thirdparty/stb_image.c **** static int stbi__addsizes_valid(int a, int b)
 547:thirdparty/stb_image.c **** {
 348              		.loc 1 547 1
 349              		.cfi_startproc
 350 01b9 55       		pushl	%ebp
 351              	LCFI30:
 352              		.cfi_def_cfa_offset 8
 353              		.cfi_offset 5, -8
 354 01ba 89E5     		movl	%esp, %ebp
 355              	LCFI31:
 356              		.cfi_def_cfa_register 5
 548:thirdparty/stb_image.c ****    if (b < 0) return 0;
 357              		.loc 1 548 7
 358 01bc 837D0C00 		cmpl	$0, 12(%ebp)
 359 01c0 7907     		jns	L17
 360              		.loc 1 548 22 discriminator 1
 361 01c2 B8000000 		movl	$0, %eax
 361      00
 362 01c7 EB11     		jmp	L18
 363              	L17:
 549:thirdparty/stb_image.c ****    // now 0 <= b <= INT_MAX, hence also
 550:thirdparty/stb_image.c ****    // 0 <= INT_MAX - b <= INTMAX.
 551:thirdparty/stb_image.c ****    // And "a + b <= INT_MAX" (which might overflow) is the
 552:thirdparty/stb_image.c ****    // same as a <= INT_MAX - b (no overflow)
 553:thirdparty/stb_image.c ****    return a <= INT_MAX - b;
 364              		.loc 1 553 24
 365 01c9 B8FFFFFF 		movl	$2147483647, %eax
 365      7F
 366 01ce 2B450C   		subl	12(%ebp), %eax
 367              		.loc 1 553 13
 368 01d1 394508   		cmpl	%eax, 8(%ebp)
 369 01d4 0F9EC0   		setle	%al
 370 01d7 0FB6C0   		movzbl	%al, %eax
 371              	L18:
 554:thirdparty/stb_image.c **** }
 372              		.loc 1 554 1
 373 01da 5D       		popl	%ebp
 374              	LCFI32:
 375              		.cfi_restore 5
 376              		.cfi_def_cfa 4, 4
 377 01db C3       		ret
 378              		.cfi_endproc
 379              	LFE27:
 381              	_stbi__mul2sizes_valid:
 382              	LFB28:
 555:thirdparty/stb_image.c **** 
 556:thirdparty/stb_image.c **** // returns 1 if the product is valid, 0 on overflow.
 557:thirdparty/stb_image.c **** // negative factors are considered invalid.
 558:thirdparty/stb_image.c **** static int stbi__mul2sizes_valid(int a, int b)
 559:thirdparty/stb_image.c **** {
 383              		.loc 1 559 1
 384              		.cfi_startproc
 385 01dc 55       		pushl	%ebp
 386              	LCFI33:
 387              		.cfi_def_cfa_offset 8
 388              		.cfi_offset 5, -8
 389 01dd 89E5     		movl	%esp, %ebp
GAS LISTING C:\Users\jisu8\AppData\Local\Temp\ccTSXm7f.s 			page 18


 390              	LCFI34:
 391              		.cfi_def_cfa_register 5
 560:thirdparty/stb_image.c ****    if (a < 0 || b < 0) return 0;
 392              		.loc 1 560 7
 393 01df 837D0800 		cmpl	$0, 8(%ebp)
 394 01e3 7806     		js	L20
 395              		.loc 1 560 14 discriminator 2
 396 01e5 837D0C00 		cmpl	$0, 12(%ebp)
 397 01e9 7907     		jns	L21
 398              	L20:
 399              		.loc 1 560 31 discriminator 3
 400 01eb B8000000 		movl	$0, %eax
 400      00
 401 01f0 EB1F     		jmp	L22
 402              	L21:
 561:thirdparty/stb_image.c ****    if (b == 0) return 1; // mul-by-0 is always safe
 403              		.loc 1 561 7
 404 01f2 837D0C00 		cmpl	$0, 12(%ebp)
 405 01f6 7507     		jne	L23
 406              		.loc 1 561 23 discriminator 1
 407 01f8 B8010000 		movl	$1, %eax
 407      00
 408 01fd EB12     		jmp	L22
 409              	L23:
 562:thirdparty/stb_image.c ****    // portable way to check for no overflows in a*b
 563:thirdparty/stb_image.c ****    return a <= INT_MAX/b;
 410              		.loc 1 563 23
 411 01ff B8FFFFFF 		movl	$2147483647, %eax
 411      7F
 412 0204 99       		cltd
 413 0205 F77D0C   		idivl	12(%ebp)
 414              		.loc 1 563 13
 415 0208 394508   		cmpl	%eax, 8(%ebp)
 416 020b 0F9EC0   		setle	%al
 417 020e 0FB6C0   		movzbl	%al, %eax
 418              	L22:
 564:thirdparty/stb_image.c **** }
 419              		.loc 1 564 1
 420 0211 5D       		popl	%ebp
 421              	LCFI35:
 422              		.cfi_restore 5
 423              		.cfi_def_cfa 4, 4
 424 0212 C3       		ret
 425              		.cfi_endproc
 426              	LFE28:
 428              	_stbi__mad2sizes_valid:
 429              	LFB29:
 565:thirdparty/stb_image.c **** 
 566:thirdparty/stb_image.c **** #if !defined(STBI_NO_JPEG) || !defined(STBI_NO_PNG) || !defined(STBI_NO_TGA) || !defined(STBI_NO_HD
 567:thirdparty/stb_image.c **** // returns 1 if "a*b + add" has no negative terms/factors and doesn't overflow
 568:thirdparty/stb_image.c **** static int stbi__mad2sizes_valid(int a, int b, int add)
 569:thirdparty/stb_image.c **** {
 430              		.loc 1 569 1
 431              		.cfi_startproc
 432 0213 55       		pushl	%ebp
 433              	LCFI36:
 434              		.cfi_def_cfa_offset 8
GAS LISTING C:\Users\jisu8\AppData\Local\Temp\ccTSXm7f.s 			page 19


 435              		.cfi_offset 5, -8
 436 0214 89E5     		movl	%esp, %ebp
 437              	LCFI37:
 438              		.cfi_def_cfa_register 5
 439 0216 83EC18   		subl	$24, %esp
 570:thirdparty/stb_image.c ****    return stbi__mul2sizes_valid(a, b) && stbi__addsizes_valid(a*b, add);
 440              		.loc 1 570 11
 441 0219 8B450C   		movl	12(%ebp), %eax
 442 021c 89442404 		movl	%eax, 4(%esp)
 443 0220 8B4508   		movl	8(%ebp), %eax
 444 0223 890424   		movl	%eax, (%esp)
 445 0226 E8B1FFFF 		call	_stbi__mul2sizes_valid
 445      FF
 446              		.loc 1 570 39
 447 022b 85C0     		testl	%eax, %eax
 448 022d 7421     		je	L25
 449              		.loc 1 570 42 discriminator 1
 450 022f 8B4508   		movl	8(%ebp), %eax
 451 0232 0FAF450C 		imull	12(%ebp), %eax
 452 0236 8B5510   		movl	16(%ebp), %edx
 453 0239 89542404 		movl	%edx, 4(%esp)
 454 023d 890424   		movl	%eax, (%esp)
 455 0240 E874FFFF 		call	_stbi__addsizes_valid
 455      FF
 456              		.loc 1 570 39 discriminator 1
 457 0245 85C0     		testl	%eax, %eax
 458 0247 7407     		je	L25
 459              		.loc 1 570 39 is_stmt 0 discriminator 3
 460 0249 B8010000 		movl	$1, %eax
 460      00
 461 024e EB05     		jmp	L27
 462              	L25:
 463              		.loc 1 570 39 discriminator 4
 464 0250 B8000000 		movl	$0, %eax
 464      00
 465              	L27:
 571:thirdparty/stb_image.c **** }
 466              		.loc 1 571 1 is_stmt 1 discriminator 7
 467 0255 C9       		leave
 468              	LCFI38:
 469              		.cfi_restore 5
 470              		.cfi_def_cfa 4, 4
 471 0256 C3       		ret
 472              		.cfi_endproc
 473              	LFE29:
 475              	_stbi__mad3sizes_valid:
 476              	LFB30:
 572:thirdparty/stb_image.c **** #endif
 573:thirdparty/stb_image.c **** 
 574:thirdparty/stb_image.c **** // returns 1 if "a*b*c + add" has no negative terms/factors and doesn't overflow
 575:thirdparty/stb_image.c **** static int stbi__mad3sizes_valid(int a, int b, int c, int add)
 576:thirdparty/stb_image.c **** {
 477              		.loc 1 576 1
 478              		.cfi_startproc
 479 0257 55       		pushl	%ebp
 480              	LCFI39:
 481              		.cfi_def_cfa_offset 8
GAS LISTING C:\Users\jisu8\AppData\Local\Temp\ccTSXm7f.s 			page 20


 482              		.cfi_offset 5, -8
 483 0258 89E5     		movl	%esp, %ebp
 484              	LCFI40:
 485              		.cfi_def_cfa_register 5
 486 025a 83EC18   		subl	$24, %esp
 577:thirdparty/stb_image.c ****    return stbi__mul2sizes_valid(a, b) && stbi__mul2sizes_valid(a*b, c) &&
 487              		.loc 1 577 11
 488 025d 8B450C   		movl	12(%ebp), %eax
 489 0260 89442404 		movl	%eax, 4(%esp)
 490 0264 8B4508   		movl	8(%ebp), %eax
 491 0267 890424   		movl	%eax, (%esp)
 492 026a E86DFFFF 		call	_stbi__mul2sizes_valid
 492      FF
 493              		.loc 1 577 72
 494 026f 85C0     		testl	%eax, %eax
 495 0271 743F     		je	L29
 496              		.loc 1 577 42 discriminator 1
 497 0273 8B4508   		movl	8(%ebp), %eax
 498 0276 0FAF450C 		imull	12(%ebp), %eax
 499 027a 8B5510   		movl	16(%ebp), %edx
 500 027d 89542404 		movl	%edx, 4(%esp)
 501 0281 890424   		movl	%eax, (%esp)
 502 0284 E853FFFF 		call	_stbi__mul2sizes_valid
 502      FF
 503              		.loc 1 577 39 discriminator 1
 504 0289 85C0     		testl	%eax, %eax
 505 028b 7425     		je	L29
 578:thirdparty/stb_image.c ****       stbi__addsizes_valid(a*b*c, add);
 506              		.loc 1 578 29 discriminator 3
 507 028d 8B4508   		movl	8(%ebp), %eax
 508 0290 0FAF450C 		imull	12(%ebp), %eax
 509              		.loc 1 578 7 discriminator 3
 510 0294 0FAF4510 		imull	16(%ebp), %eax
 511 0298 8B5514   		movl	20(%ebp), %edx
 512 029b 89542404 		movl	%edx, 4(%esp)
 513 029f 890424   		movl	%eax, (%esp)
 514 02a2 E812FFFF 		call	_stbi__addsizes_valid
 514      FF
 577:thirdparty/stb_image.c ****    return stbi__mul2sizes_valid(a, b) && stbi__mul2sizes_valid(a*b, c) &&
 515              		.loc 1 577 72 discriminator 3
 516 02a7 85C0     		testl	%eax, %eax
 517 02a9 7407     		je	L29
 577:thirdparty/stb_image.c ****    return stbi__mul2sizes_valid(a, b) && stbi__mul2sizes_valid(a*b, c) &&
 518              		.loc 1 577 72 is_stmt 0 discriminator 5
 519 02ab B8010000 		movl	$1, %eax
 519      00
 520 02b0 EB05     		jmp	L31
 521              	L29:
 577:thirdparty/stb_image.c ****    return stbi__mul2sizes_valid(a, b) && stbi__mul2sizes_valid(a*b, c) &&
 522              		.loc 1 577 72 discriminator 6
 523 02b2 B8000000 		movl	$0, %eax
 523      00
 524              	L31:
 579:thirdparty/stb_image.c **** }
 525              		.loc 1 579 1 is_stmt 1 discriminator 9
 526 02b7 C9       		leave
 527              	LCFI41:
GAS LISTING C:\Users\jisu8\AppData\Local\Temp\ccTSXm7f.s 			page 21


 528              		.cfi_restore 5
 529              		.cfi_def_cfa 4, 4
 530 02b8 C3       		ret
 531              		.cfi_endproc
 532              	LFE30:
 534              	_stbi__mad4sizes_valid:
 535              	LFB31:
 580:thirdparty/stb_image.c **** 
 581:thirdparty/stb_image.c **** // returns 1 if "a*b*c*d + add" has no negative terms/factors and doesn't overflow
 582:thirdparty/stb_image.c **** #if !defined(STBI_NO_LINEAR) || !defined(STBI_NO_HDR)
 583:thirdparty/stb_image.c **** static int stbi__mad4sizes_valid(int a, int b, int c, int d, int add)
 584:thirdparty/stb_image.c **** {
 536              		.loc 1 584 1
 537              		.cfi_startproc
 538 02b9 55       		pushl	%ebp
 539              	LCFI42:
 540              		.cfi_def_cfa_offset 8
 541              		.cfi_offset 5, -8
 542 02ba 89E5     		movl	%esp, %ebp
 543              	LCFI43:
 544              		.cfi_def_cfa_register 5
 545 02bc 83EC18   		subl	$24, %esp
 585:thirdparty/stb_image.c ****    return stbi__mul2sizes_valid(a, b) && stbi__mul2sizes_valid(a*b, c) &&
 546              		.loc 1 585 11
 547 02bf 8B450C   		movl	12(%ebp), %eax
 548 02c2 89442404 		movl	%eax, 4(%esp)
 549 02c6 8B4508   		movl	8(%ebp), %eax
 550 02c9 890424   		movl	%eax, (%esp)
 551 02cc E80BFFFF 		call	_stbi__mul2sizes_valid
 551      FF
 586:thirdparty/stb_image.c ****       stbi__mul2sizes_valid(a*b*c, d) && stbi__addsizes_valid(a*b*c*d, add);
 552              		.loc 1 586 39
 553 02d1 85C0     		testl	%eax, %eax
 554 02d3 7461     		je	L33
 585:thirdparty/stb_image.c ****    return stbi__mul2sizes_valid(a, b) && stbi__mul2sizes_valid(a*b, c) &&
 555              		.loc 1 585 42
 556 02d5 8B4508   		movl	8(%ebp), %eax
 557 02d8 0FAF450C 		imull	12(%ebp), %eax
 558 02dc 8B5510   		movl	16(%ebp), %edx
 559 02df 89542404 		movl	%edx, 4(%esp)
 560 02e3 890424   		movl	%eax, (%esp)
 561 02e6 E8F1FEFF 		call	_stbi__mul2sizes_valid
 561      FF
 585:thirdparty/stb_image.c ****    return stbi__mul2sizes_valid(a, b) && stbi__mul2sizes_valid(a*b, c) &&
 562              		.loc 1 585 39
 563 02eb 85C0     		testl	%eax, %eax
 564 02ed 7447     		je	L33
 565              		.loc 1 586 30 discriminator 1
 566 02ef 8B4508   		movl	8(%ebp), %eax
 567 02f2 0FAF450C 		imull	12(%ebp), %eax
 568              		.loc 1 586 7 discriminator 1
 569 02f6 0FAF4510 		imull	16(%ebp), %eax
 570 02fa 8B5514   		movl	20(%ebp), %edx
 571 02fd 89542404 		movl	%edx, 4(%esp)
 572 0301 890424   		movl	%eax, (%esp)
 573 0304 E8D3FEFF 		call	_stbi__mul2sizes_valid
 573      FF
GAS LISTING C:\Users\jisu8\AppData\Local\Temp\ccTSXm7f.s 			page 22


 585:thirdparty/stb_image.c ****    return stbi__mul2sizes_valid(a, b) && stbi__mul2sizes_valid(a*b, c) &&
 574              		.loc 1 585 72 discriminator 1
 575 0309 85C0     		testl	%eax, %eax
 576 030b 7429     		je	L33
 577              		.loc 1 586 64 discriminator 3
 578 030d 8B4508   		movl	8(%ebp), %eax
 579 0310 0FAF450C 		imull	12(%ebp), %eax
 580              		.loc 1 586 66 discriminator 3
 581 0314 0FAF4510 		imull	16(%ebp), %eax
 582              		.loc 1 586 42 discriminator 3
 583 0318 0FAF4514 		imull	20(%ebp), %eax
 584 031c 8B5518   		movl	24(%ebp), %edx
 585 031f 89542404 		movl	%edx, 4(%esp)
 586 0323 890424   		movl	%eax, (%esp)
 587 0326 E88EFEFF 		call	_stbi__addsizes_valid
 587      FF
 588              		.loc 1 586 39 discriminator 3
 589 032b 85C0     		testl	%eax, %eax
 590 032d 7407     		je	L33
 591              		.loc 1 586 39 is_stmt 0 discriminator 2
 592 032f B8010000 		movl	$1, %eax
 592      00
 593 0334 EB05     		jmp	L35
 594              	L33:
 595              		.loc 1 586 39 discriminator 1
 596 0336 B8000000 		movl	$0, %eax
 596      00
 597              	L35:
 587:thirdparty/stb_image.c **** }
 598              		.loc 1 587 1 is_stmt 1 discriminator 6
 599 033b C9       		leave
 600              	LCFI44:
 601              		.cfi_restore 5
 602              		.cfi_def_cfa 4, 4
 603 033c C3       		ret
 604              		.cfi_endproc
 605              	LFE31:
 607              	_stbi__malloc_mad2:
 608              	LFB32:
 588:thirdparty/stb_image.c **** #endif
 589:thirdparty/stb_image.c **** 
 590:thirdparty/stb_image.c **** #if !defined(STBI_NO_JPEG) || !defined(STBI_NO_PNG) || !defined(STBI_NO_TGA) || !defined(STBI_NO_HD
 591:thirdparty/stb_image.c **** // mallocs with size overflow checking
 592:thirdparty/stb_image.c **** static void *stbi__malloc_mad2(int a, int b, int add)
 593:thirdparty/stb_image.c **** {
 609              		.loc 1 593 1
 610              		.cfi_startproc
 611 033d 55       		pushl	%ebp
 612              	LCFI45:
 613              		.cfi_def_cfa_offset 8
 614              		.cfi_offset 5, -8
 615 033e 89E5     		movl	%esp, %ebp
 616              	LCFI46:
 617              		.cfi_def_cfa_register 5
 618 0340 83EC18   		subl	$24, %esp
 594:thirdparty/stb_image.c ****    if (!stbi__mad2sizes_valid(a, b, add)) return NULL;
 619              		.loc 1 594 9
GAS LISTING C:\Users\jisu8\AppData\Local\Temp\ccTSXm7f.s 			page 23


 620 0343 8B4510   		movl	16(%ebp), %eax
 621 0346 89442408 		movl	%eax, 8(%esp)
 622 034a 8B450C   		movl	12(%ebp), %eax
 623 034d 89442404 		movl	%eax, 4(%esp)
 624 0351 8B4508   		movl	8(%ebp), %eax
 625 0354 890424   		movl	%eax, (%esp)
 626 0357 E8B7FEFF 		call	_stbi__mad2sizes_valid
 626      FF
 627              		.loc 1 594 7
 628 035c 85C0     		testl	%eax, %eax
 629 035e 7507     		jne	L37
 630              		.loc 1 594 50 discriminator 1
 631 0360 B8000000 		movl	$0, %eax
 631      00
 632 0365 EB16     		jmp	L38
 633              	L37:
 595:thirdparty/stb_image.c ****    return stbi__malloc(a*b + add);
 634              		.loc 1 595 25
 635 0367 8B4508   		movl	8(%ebp), %eax
 636 036a 0FAF450C 		imull	12(%ebp), %eax
 637 036e 89C2     		movl	%eax, %edx
 638              		.loc 1 595 28
 639 0370 8B4510   		movl	16(%ebp), %eax
 640 0373 01D0     		addl	%edx, %eax
 641              		.loc 1 595 11
 642 0375 890424   		movl	%eax, (%esp)
 643 0378 E829FEFF 		call	_stbi__malloc
 643      FF
 644              	L38:
 596:thirdparty/stb_image.c **** }
 645              		.loc 1 596 1
 646 037d C9       		leave
 647              	LCFI47:
 648              		.cfi_restore 5
 649              		.cfi_def_cfa 4, 4
 650 037e C3       		ret
 651              		.cfi_endproc
 652              	LFE32:
 654              	_stbi__malloc_mad3:
 655              	LFB33:
 597:thirdparty/stb_image.c **** #endif
 598:thirdparty/stb_image.c **** 
 599:thirdparty/stb_image.c **** static void *stbi__malloc_mad3(int a, int b, int c, int add)
 600:thirdparty/stb_image.c **** {
 656              		.loc 1 600 1
 657              		.cfi_startproc
 658 037f 55       		pushl	%ebp
 659              	LCFI48:
 660              		.cfi_def_cfa_offset 8
 661              		.cfi_offset 5, -8
 662 0380 89E5     		movl	%esp, %ebp
 663              	LCFI49:
 664              		.cfi_def_cfa_register 5
 665 0382 83EC18   		subl	$24, %esp
 601:thirdparty/stb_image.c ****    if (!stbi__mad3sizes_valid(a, b, c, add)) return NULL;
 666              		.loc 1 601 9
 667 0385 8B4514   		movl	20(%ebp), %eax
GAS LISTING C:\Users\jisu8\AppData\Local\Temp\ccTSXm7f.s 			page 24


 668 0388 8944240C 		movl	%eax, 12(%esp)
 669 038c 8B4510   		movl	16(%ebp), %eax
 670 038f 89442408 		movl	%eax, 8(%esp)
 671 0393 8B450C   		movl	12(%ebp), %eax
 672 0396 89442404 		movl	%eax, 4(%esp)
 673 039a 8B4508   		movl	8(%ebp), %eax
 674 039d 890424   		movl	%eax, (%esp)
 675 03a0 E8B2FEFF 		call	_stbi__mad3sizes_valid
 675      FF
 676              		.loc 1 601 7
 677 03a5 85C0     		testl	%eax, %eax
 678 03a7 7507     		jne	L40
 679              		.loc 1 601 53 discriminator 1
 680 03a9 B8000000 		movl	$0, %eax
 680      00
 681 03ae EB1A     		jmp	L41
 682              	L40:
 602:thirdparty/stb_image.c ****    return stbi__malloc(a*b*c + add);
 683              		.loc 1 602 25
 684 03b0 8B4508   		movl	8(%ebp), %eax
 685 03b3 0FAF450C 		imull	12(%ebp), %eax
 686              		.loc 1 602 27
 687 03b7 0FAF4510 		imull	16(%ebp), %eax
 688 03bb 89C2     		movl	%eax, %edx
 689              		.loc 1 602 30
 690 03bd 8B4514   		movl	20(%ebp), %eax
 691 03c0 01D0     		addl	%edx, %eax
 692              		.loc 1 602 11
 693 03c2 890424   		movl	%eax, (%esp)
 694 03c5 E8DCFDFF 		call	_stbi__malloc
 694      FF
 695              	L41:
 603:thirdparty/stb_image.c **** }
 696              		.loc 1 603 1
 697 03ca C9       		leave
 698              	LCFI50:
 699              		.cfi_restore 5
 700              		.cfi_def_cfa 4, 4
 701 03cb C3       		ret
 702              		.cfi_endproc
 703              	LFE33:
 705              	_stbi__malloc_mad4:
 706              	LFB34:
 604:thirdparty/stb_image.c **** 
 605:thirdparty/stb_image.c **** #if !defined(STBI_NO_LINEAR) || !defined(STBI_NO_HDR)
 606:thirdparty/stb_image.c **** static void *stbi__malloc_mad4(int a, int b, int c, int d, int add)
 607:thirdparty/stb_image.c **** {
 707              		.loc 1 607 1
 708              		.cfi_startproc
 709 03cc 55       		pushl	%ebp
 710              	LCFI51:
 711              		.cfi_def_cfa_offset 8
 712              		.cfi_offset 5, -8
 713 03cd 89E5     		movl	%esp, %ebp
 714              	LCFI52:
 715              		.cfi_def_cfa_register 5
 716 03cf 83EC28   		subl	$40, %esp
GAS LISTING C:\Users\jisu8\AppData\Local\Temp\ccTSXm7f.s 			page 25


 608:thirdparty/stb_image.c ****    if (!stbi__mad4sizes_valid(a, b, c, d, add)) return NULL;
 717              		.loc 1 608 9
 718 03d2 8B4518   		movl	24(%ebp), %eax
 719 03d5 89442410 		movl	%eax, 16(%esp)
 720 03d9 8B4514   		movl	20(%ebp), %eax
 721 03dc 8944240C 		movl	%eax, 12(%esp)
 722 03e0 8B4510   		movl	16(%ebp), %eax
 723 03e3 89442408 		movl	%eax, 8(%esp)
 724 03e7 8B450C   		movl	12(%ebp), %eax
 725 03ea 89442404 		movl	%eax, 4(%esp)
 726 03ee 8B4508   		movl	8(%ebp), %eax
 727 03f1 890424   		movl	%eax, (%esp)
 728 03f4 E8C0FEFF 		call	_stbi__mad4sizes_valid
 728      FF
 729              		.loc 1 608 7
 730 03f9 85C0     		testl	%eax, %eax
 731 03fb 7507     		jne	L43
 732              		.loc 1 608 56 discriminator 1
 733 03fd B8000000 		movl	$0, %eax
 733      00
 734 0402 EB1E     		jmp	L44
 735              	L43:
 609:thirdparty/stb_image.c ****    return stbi__malloc(a*b*c*d + add);
 736              		.loc 1 609 25
 737 0404 8B4508   		movl	8(%ebp), %eax
 738 0407 0FAF450C 		imull	12(%ebp), %eax
 739              		.loc 1 609 27
 740 040b 0FAF4510 		imull	16(%ebp), %eax
 741              		.loc 1 609 29
 742 040f 0FAF4514 		imull	20(%ebp), %eax
 743 0413 89C2     		movl	%eax, %edx
 744              		.loc 1 609 32
 745 0415 8B4518   		movl	24(%ebp), %eax
 746 0418 01D0     		addl	%edx, %eax
 747              		.loc 1 609 11
 748 041a 890424   		movl	%eax, (%esp)
 749 041d E884FDFF 		call	_stbi__malloc
 749      FF
 750              	L44:
 610:thirdparty/stb_image.c **** }
 751              		.loc 1 610 1
 752 0422 C9       		leave
 753              	LCFI53:
 754              		.cfi_restore 5
 755              		.cfi_def_cfa 4, 4
 756 0423 C3       		ret
 757              		.cfi_endproc
 758              	LFE34:
 759              		.globl	_stbi_image_free
 761              	_stbi_image_free:
 762              	LFB35:
 611:thirdparty/stb_image.c **** #endif
 612:thirdparty/stb_image.c **** 
 613:thirdparty/stb_image.c **** // stbi__err - error
 614:thirdparty/stb_image.c **** // stbi__errpf - error returning pointer to float
 615:thirdparty/stb_image.c **** // stbi__errpuc - error returning pointer to unsigned char
 616:thirdparty/stb_image.c **** 
GAS LISTING C:\Users\jisu8\AppData\Local\Temp\ccTSXm7f.s 			page 26


 617:thirdparty/stb_image.c **** #ifdef STBI_NO_FAILURE_STRINGS
 618:thirdparty/stb_image.c ****    #define stbi__err(x,y)  0
 619:thirdparty/stb_image.c **** #elif defined(STBI_FAILURE_USERMSG)
 620:thirdparty/stb_image.c ****    #define stbi__err(x,y)  stbi__err(y)
 621:thirdparty/stb_image.c **** #else
 622:thirdparty/stb_image.c ****    #define stbi__err(x,y)  stbi__err(x)
 623:thirdparty/stb_image.c **** #endif
 624:thirdparty/stb_image.c **** 
 625:thirdparty/stb_image.c **** #define stbi__errpf(x,y)   ((float *)(size_t) (stbi__err(x,y)?NULL:NULL))
 626:thirdparty/stb_image.c **** #define stbi__errpuc(x,y)  ((unsigned char *)(size_t) (stbi__err(x,y)?NULL:NULL))
 627:thirdparty/stb_image.c **** 
 628:thirdparty/stb_image.c **** STBIDEF void stbi_image_free(void *retval_from_stbi_load)
 629:thirdparty/stb_image.c **** {
 763              		.loc 1 629 1
 764              		.cfi_startproc
 765 0424 55       		pushl	%ebp
 766              	LCFI54:
 767              		.cfi_def_cfa_offset 8
 768              		.cfi_offset 5, -8
 769 0425 89E5     		movl	%esp, %ebp
 770              	LCFI55:
 771              		.cfi_def_cfa_register 5
 772 0427 83EC18   		subl	$24, %esp
 630:thirdparty/stb_image.c ****    STBI_FREE(retval_from_stbi_load);
 773              		.loc 1 630 4
 774 042a 8B4508   		movl	8(%ebp), %eax
 775 042d 890424   		movl	%eax, (%esp)
 776 0430 E8000000 		call	_free
 776      00
 631:thirdparty/stb_image.c **** }
 777              		.loc 1 631 1
 778 0435 90       		nop
 779 0436 C9       		leave
 780              	LCFI56:
 781              		.cfi_restore 5
 782              		.cfi_def_cfa 4, 4
 783 0437 C3       		ret
 784              		.cfi_endproc
 785              	LFE35:
 786              	.lcomm _stbi__vertically_flip_on_load_global,4,4
 787              		.globl	_stbi_set_flip_vertically_on_load
 789              	_stbi_set_flip_vertically_on_load:
 790              	LFB36:
 632:thirdparty/stb_image.c **** 
 633:thirdparty/stb_image.c **** #ifndef STBI_NO_LINEAR
 634:thirdparty/stb_image.c **** static float   *stbi__ldr_to_hdr(stbi_uc *data, int x, int y, int comp);
 635:thirdparty/stb_image.c **** #endif
 636:thirdparty/stb_image.c **** 
 637:thirdparty/stb_image.c **** #ifndef STBI_NO_HDR
 638:thirdparty/stb_image.c **** static stbi_uc *stbi__hdr_to_ldr(float   *data, int x, int y, int comp);
 639:thirdparty/stb_image.c **** #endif
 640:thirdparty/stb_image.c **** 
 641:thirdparty/stb_image.c **** static int stbi__vertically_flip_on_load_global = 0;
 642:thirdparty/stb_image.c **** 
 643:thirdparty/stb_image.c **** STBIDEF void stbi_set_flip_vertically_on_load(int flag_true_if_should_flip)
 644:thirdparty/stb_image.c **** {
 791              		.loc 1 644 1
GAS LISTING C:\Users\jisu8\AppData\Local\Temp\ccTSXm7f.s 			page 27


 792              		.cfi_startproc
 793 0438 55       		pushl	%ebp
 794              	LCFI57:
 795              		.cfi_def_cfa_offset 8
 796              		.cfi_offset 5, -8
 797 0439 89E5     		movl	%esp, %ebp
 798              	LCFI58:
 799              		.cfi_def_cfa_register 5
 645:thirdparty/stb_image.c ****    stbi__vertically_flip_on_load_global = flag_true_if_should_flip;
 800              		.loc 1 645 41
 801 043b 8B4508   		movl	8(%ebp), %eax
 802 043e A3000000 		movl	%eax, _stbi__vertically_flip_on_load_global
 802      00
 646:thirdparty/stb_image.c **** }
 803              		.loc 1 646 1
 804 0443 90       		nop
 805 0444 5D       		popl	%ebp
 806              	LCFI59:
 807              		.cfi_restore 5
 808              		.cfi_def_cfa 4, 4
 809 0445 C3       		ret
 810              		.cfi_endproc
 811              	LFE36:
 812              		.globl	_stbi_set_flip_vertically_on_load_thread
 814              	_stbi_set_flip_vertically_on_load_thread:
 815              	LFB37:
 647:thirdparty/stb_image.c **** 
 648:thirdparty/stb_image.c **** #ifndef STBI_THREAD_LOCAL
 649:thirdparty/stb_image.c **** #define stbi__vertically_flip_on_load  stbi__vertically_flip_on_load_global
 650:thirdparty/stb_image.c **** #else
 651:thirdparty/stb_image.c **** static STBI_THREAD_LOCAL int stbi__vertically_flip_on_load_local, stbi__vertically_flip_on_load_set
 652:thirdparty/stb_image.c **** 
 653:thirdparty/stb_image.c **** STBIDEF void stbi_set_flip_vertically_on_load_thread(int flag_true_if_should_flip)
 654:thirdparty/stb_image.c **** {
 816              		.loc 1 654 1
 817              		.cfi_startproc
 818 0446 55       		pushl	%ebp
 819              	LCFI60:
 820              		.cfi_def_cfa_offset 8
 821              		.cfi_offset 5, -8
 822 0447 89E5     		movl	%esp, %ebp
 823              	LCFI61:
 824              		.cfi_def_cfa_register 5
 825 0449 83EC18   		subl	$24, %esp
 655:thirdparty/stb_image.c ****    stbi__vertically_flip_on_load_local = flag_true_if_should_flip;
 826              		.loc 1 655 40
 827 044c C70424B4 		movl	$___emutls_v.stbi__vertically_flip_on_load_local, (%esp)
 827      000000
 828 0453 E8000000 		call	___emutls_get_address
 828      00
 829 0458 89C2     		movl	%eax, %edx
 830 045a 8B4508   		movl	8(%ebp), %eax
 831 045d 8902     		movl	%eax, (%edx)
 656:thirdparty/stb_image.c ****    stbi__vertically_flip_on_load_set = 1;
 832              		.loc 1 656 38
 833 045f C70424A4 		movl	$___emutls_v.stbi__vertically_flip_on_load_set, (%esp)
 833      000000
GAS LISTING C:\Users\jisu8\AppData\Local\Temp\ccTSXm7f.s 			page 28


 834 0466 E8000000 		call	___emutls_get_address
 834      00
 835 046b C7000100 		movl	$1, (%eax)
 835      0000
 657:thirdparty/stb_image.c **** }
 836              		.loc 1 657 1
 837 0471 90       		nop
 838 0472 C9       		leave
 839              	LCFI62:
 840              		.cfi_restore 5
 841              		.cfi_def_cfa 4, 4
 842 0473 C3       		ret
 843              		.cfi_endproc
 844              	LFE37:
 845              		.section .rdata,"dr"
 846              	LC0:
 847 0000 756E6B6E 		.ascii "unknown image type\0"
 847      6F776E20 
 847      696D6167 
 847      65207479 
 847      706500
 848              		.text
 850              	_stbi__load_main:
 851              	LFB38:
 658:thirdparty/stb_image.c **** 
 659:thirdparty/stb_image.c **** #define stbi__vertically_flip_on_load  (stbi__vertically_flip_on_load_set       \
 660:thirdparty/stb_image.c ****                                          ? stbi__vertically_flip_on_load_local  \
 661:thirdparty/stb_image.c ****                                          : stbi__vertically_flip_on_load_global)
 662:thirdparty/stb_image.c **** #endif // STBI_THREAD_LOCAL
 663:thirdparty/stb_image.c **** 
 664:thirdparty/stb_image.c **** static void *stbi__load_main(stbi__context *s, int *x, int *y, int *comp, int req_comp, stbi__resul
 665:thirdparty/stb_image.c **** {
 852              		.loc 1 665 1
 853              		.cfi_startproc
 854 0474 55       		pushl	%ebp
 855              	LCFI63:
 856              		.cfi_def_cfa_offset 8
 857              		.cfi_offset 5, -8
 858 0475 89E5     		movl	%esp, %ebp
 859              	LCFI64:
 860              		.cfi_def_cfa_register 5
 861 0477 83EC38   		subl	$56, %esp
 666:thirdparty/stb_image.c ****    memset(ri, 0, sizeof(*ri)); // make sure it's initialized if we add new fields
 862              		.loc 1 666 4
 863 047a C7442408 		movl	$12, 8(%esp)
 863      0C000000 
 864 0482 C7442404 		movl	$0, 4(%esp)
 864      00000000 
 865 048a 8B451C   		movl	28(%ebp), %eax
 866 048d 890424   		movl	%eax, (%esp)
 867 0490 E8000000 		call	_memset
 867      00
 667:thirdparty/stb_image.c ****    ri->bits_per_channel = 8; // default is 8 so most paths don't have to be changed
 868              		.loc 1 667 25
 869 0495 8B451C   		movl	28(%ebp), %eax
 870 0498 C7000800 		movl	$8, (%eax)
 870      0000
GAS LISTING C:\Users\jisu8\AppData\Local\Temp\ccTSXm7f.s 			page 29


 668:thirdparty/stb_image.c ****    ri->channel_order = STBI_ORDER_RGB; // all current input & output are this, but this is here so 
 871              		.loc 1 668 22
 872 049e 8B451C   		movl	28(%ebp), %eax
 873 04a1 C7400800 		movl	$0, 8(%eax)
 873      000000
 669:thirdparty/stb_image.c ****    ri->num_channels = 0;
 874              		.loc 1 669 21
 875 04a8 8B451C   		movl	28(%ebp), %eax
 876 04ab C7400400 		movl	$0, 4(%eax)
 876      000000
 670:thirdparty/stb_image.c **** 
 671:thirdparty/stb_image.c ****    #ifndef STBI_NO_JPEG
 672:thirdparty/stb_image.c ****    if (stbi__jpeg_test(s)) return stbi__jpeg_load(s,x,y,comp,req_comp, ri);
 877              		.loc 1 672 8
 878 04b2 8B4508   		movl	8(%ebp), %eax
 879 04b5 890424   		movl	%eax, (%esp)
 880 04b8 E8EB6A00 		call	_stbi__jpeg_test
 880      00
 881              		.loc 1 672 7
 882 04bd 85C0     		testl	%eax, %eax
 883 04bf 7433     		je	L49
 884              		.loc 1 672 35 discriminator 1
 885 04c1 8B451C   		movl	28(%ebp), %eax
 886 04c4 89442414 		movl	%eax, 20(%esp)
 887 04c8 8B4518   		movl	24(%ebp), %eax
 888 04cb 89442410 		movl	%eax, 16(%esp)
 889 04cf 8B4514   		movl	20(%ebp), %eax
 890 04d2 8944240C 		movl	%eax, 12(%esp)
 891 04d6 8B4510   		movl	16(%ebp), %eax
 892 04d9 89442408 		movl	%eax, 8(%esp)
 893 04dd 8B450C   		movl	12(%ebp), %eax
 894 04e0 89442404 		movl	%eax, 4(%esp)
 895 04e4 8B4508   		movl	8(%ebp), %eax
 896 04e7 890424   		movl	%eax, (%esp)
 897 04ea E8576A00 		call	_stbi__jpeg_load
 897      00
 898 04ef E9560200 		jmp	L50
 898      00
 899              	L49:
 673:thirdparty/stb_image.c ****    #endif
 674:thirdparty/stb_image.c ****    #ifndef STBI_NO_PNG
 675:thirdparty/stb_image.c ****    if (stbi__png_test(s))  return stbi__png_load(s,x,y,comp,req_comp, ri);
 900              		.loc 1 675 8
 901 04f4 8B4508   		movl	8(%ebp), %eax
 902 04f7 890424   		movl	%eax, (%esp)
 903 04fa E875A400 		call	_stbi__png_test
 903      00
 904              		.loc 1 675 7
 905 04ff 85C0     		testl	%eax, %eax
 906 0501 7433     		je	L51
 907              		.loc 1 675 35 discriminator 1
 908 0503 8B451C   		movl	28(%ebp), %eax
 909 0506 89442414 		movl	%eax, 20(%esp)
 910 050a 8B4518   		movl	24(%ebp), %eax
 911 050d 89442410 		movl	%eax, 16(%esp)
 912 0511 8B4514   		movl	20(%ebp), %eax
 913 0514 8944240C 		movl	%eax, 12(%esp)
GAS LISTING C:\Users\jisu8\AppData\Local\Temp\ccTSXm7f.s 			page 30


 914 0518 8B4510   		movl	16(%ebp), %eax
 915 051b 89442408 		movl	%eax, 8(%esp)
 916 051f 8B450C   		movl	12(%ebp), %eax
 917 0522 89442404 		movl	%eax, 4(%esp)
 918 0526 8B4508   		movl	8(%ebp), %eax
 919 0529 890424   		movl	%eax, (%esp)
 920 052c E807A400 		call	_stbi__png_load
 920      00
 921 0531 E9140200 		jmp	L50
 921      00
 922              	L51:
 676:thirdparty/stb_image.c ****    #endif
 677:thirdparty/stb_image.c ****    #ifndef STBI_NO_BMP
 678:thirdparty/stb_image.c ****    if (stbi__bmp_test(s))  return stbi__bmp_load(s,x,y,comp,req_comp, ri);
 923              		.loc 1 678 8
 924 0536 8B4508   		movl	8(%ebp), %eax
 925 0539 890424   		movl	%eax, (%esp)
 926 053c E8FDA500 		call	_stbi__bmp_test
 926      00
 927              		.loc 1 678 7
 928 0541 85C0     		testl	%eax, %eax
 929 0543 7433     		je	L52
 930              		.loc 1 678 35 discriminator 1
 931 0545 8B451C   		movl	28(%ebp), %eax
 932 0548 89442414 		movl	%eax, 20(%esp)
 933 054c 8B4518   		movl	24(%ebp), %eax
 934 054f 89442410 		movl	%eax, 16(%esp)
 935 0553 8B4514   		movl	20(%ebp), %eax
 936 0556 8944240C 		movl	%eax, 12(%esp)
 937 055a 8B4510   		movl	16(%ebp), %eax
 938 055d 89442408 		movl	%eax, 8(%esp)
 939 0561 8B450C   		movl	12(%ebp), %eax
 940 0564 89442404 		movl	%eax, 4(%esp)
 941 0568 8B4508   		movl	8(%ebp), %eax
 942 056b 890424   		movl	%eax, (%esp)
 943 056e E883AB00 		call	_stbi__bmp_load
 943      00
 944 0573 E9D20100 		jmp	L50
 944      00
 945              	L52:
 679:thirdparty/stb_image.c ****    #endif
 680:thirdparty/stb_image.c ****    #ifndef STBI_NO_GIF
 681:thirdparty/stb_image.c ****    if (stbi__gif_test(s))  return stbi__gif_load(s,x,y,comp,req_comp, ri);
 946              		.loc 1 681 8
 947 0578 8B4508   		movl	8(%ebp), %eax
 948 057b 890424   		movl	%eax, (%esp)
 949 057e E85DD300 		call	_stbi__gif_test
 949      00
 950              		.loc 1 681 7
 951 0583 85C0     		testl	%eax, %eax
 952 0585 7433     		je	L53
 953              		.loc 1 681 35 discriminator 1
 954 0587 8B451C   		movl	28(%ebp), %eax
 955 058a 89442414 		movl	%eax, 20(%esp)
 956 058e 8B4518   		movl	24(%ebp), %eax
 957 0591 89442410 		movl	%eax, 16(%esp)
 958 0595 8B4514   		movl	20(%ebp), %eax
GAS LISTING C:\Users\jisu8\AppData\Local\Temp\ccTSXm7f.s 			page 31


 959 0598 8944240C 		movl	%eax, 12(%esp)
 960 059c 8B4510   		movl	16(%ebp), %eax
 961 059f 89442408 		movl	%eax, 8(%esp)
 962 05a3 8B450C   		movl	12(%ebp), %eax
 963 05a6 89442404 		movl	%eax, 4(%esp)
 964 05aa 8B4508   		movl	8(%ebp), %eax
 965 05ad 890424   		movl	%eax, (%esp)
 966 05b0 E891E400 		call	_stbi__gif_load
 966      00
 967 05b5 E9900100 		jmp	L50
 967      00
 968              	L53:
 682:thirdparty/stb_image.c ****    #endif
 683:thirdparty/stb_image.c ****    #ifndef STBI_NO_PSD
 684:thirdparty/stb_image.c ****    if (stbi__psd_test(s))  return stbi__psd_load(s,x,y,comp,req_comp, ri, bpc);
 969              		.loc 1 684 8
 970 05ba 8B4508   		movl	8(%ebp), %eax
 971 05bd 890424   		movl	%eax, (%esp)
 972 05c0 E8E2C200 		call	_stbi__psd_test
 972      00
 973              		.loc 1 684 7
 974 05c5 85C0     		testl	%eax, %eax
 975 05c7 743A     		je	L54
 976              		.loc 1 684 35 discriminator 1
 977 05c9 8B4520   		movl	32(%ebp), %eax
 978 05cc 89442418 		movl	%eax, 24(%esp)
 979 05d0 8B451C   		movl	28(%ebp), %eax
 980 05d3 89442414 		movl	%eax, 20(%esp)
 981 05d7 8B4518   		movl	24(%ebp), %eax
 982 05da 89442410 		movl	%eax, 16(%esp)
 983 05de 8B4514   		movl	20(%ebp), %eax
 984 05e1 8944240C 		movl	%eax, 12(%esp)
 985 05e5 8B4510   		movl	16(%ebp), %eax
 986 05e8 89442408 		movl	%eax, 8(%esp)
 987 05ec 8B450C   		movl	12(%ebp), %eax
 988 05ef 89442404 		movl	%eax, 4(%esp)
 989 05f3 8B4508   		movl	8(%ebp), %eax
 990 05f6 890424   		movl	%eax, (%esp)
 991 05f9 E8B8C300 		call	_stbi__psd_load
 991      00
 992 05fe E9470100 		jmp	L50
 992      00
 993              	L54:
 685:thirdparty/stb_image.c ****    #else
 686:thirdparty/stb_image.c ****    STBI_NOTUSED(bpc);
 687:thirdparty/stb_image.c ****    #endif
 688:thirdparty/stb_image.c ****    #ifndef STBI_NO_PIC
 689:thirdparty/stb_image.c ****    if (stbi__pic_test(s))  return stbi__pic_load(s,x,y,comp,req_comp, ri);
 994              		.loc 1 689 8
 995 0603 8B4508   		movl	8(%ebp), %eax
 996 0606 890424   		movl	%eax, (%esp)
 997 0609 E824D200 		call	_stbi__pic_test
 997      00
 998              		.loc 1 689 7
 999 060e 85C0     		testl	%eax, %eax
 1000 0610 7433     		je	L55
 1001              		.loc 1 689 35 discriminator 1
GAS LISTING C:\Users\jisu8\AppData\Local\Temp\ccTSXm7f.s 			page 32


 1002 0612 8B451C   		movl	28(%ebp), %eax
 1003 0615 89442414 		movl	%eax, 20(%esp)
 1004 0619 8B4518   		movl	24(%ebp), %eax
 1005 061c 89442410 		movl	%eax, 16(%esp)
 1006 0620 8B4514   		movl	20(%ebp), %eax
 1007 0623 8944240C 		movl	%eax, 12(%esp)
 1008 0627 8B4510   		movl	16(%ebp), %eax
 1009 062a 89442408 		movl	%eax, 8(%esp)
 1010 062e 8B450C   		movl	12(%ebp), %eax
 1011 0631 89442404 		movl	%eax, 4(%esp)
 1012 0635 8B4508   		movl	8(%ebp), %eax
 1013 0638 890424   		movl	%eax, (%esp)
 1014 063b E853D000 		call	_stbi__pic_load
 1014      00
 1015 0640 E9050100 		jmp	L50
 1015      00
 1016              	L55:
 690:thirdparty/stb_image.c ****    #endif
 691:thirdparty/stb_image.c ****    #ifndef STBI_NO_PNM
 692:thirdparty/stb_image.c ****    if (stbi__pnm_test(s))  return stbi__pnm_load(s,x,y,comp,req_comp, ri);
 1017              		.loc 1 692 8
 1018 0645 8B4508   		movl	8(%ebp), %eax
 1019 0648 890424   		movl	%eax, (%esp)
 1020 064b E88AF400 		call	_stbi__pnm_test
 1020      00
 1021              		.loc 1 692 7
 1022 0650 85C0     		testl	%eax, %eax
 1023 0652 7433     		je	L56
 1024              		.loc 1 692 35 discriminator 1
 1025 0654 8B451C   		movl	28(%ebp), %eax
 1026 0657 89442414 		movl	%eax, 20(%esp)
 1027 065b 8B4518   		movl	24(%ebp), %eax
 1028 065e 89442410 		movl	%eax, 16(%esp)
 1029 0662 8B4514   		movl	20(%ebp), %eax
 1030 0665 8944240C 		movl	%eax, 12(%esp)
 1031 0669 8B4510   		movl	16(%ebp), %eax
 1032 066c 89442408 		movl	%eax, 8(%esp)
 1033 0670 8B450C   		movl	12(%ebp), %eax
 1034 0673 89442404 		movl	%eax, 4(%esp)
 1035 0677 8B4508   		movl	8(%ebp), %eax
 1036 067a 890424   		movl	%eax, (%esp)
 1037 067d E8A5F400 		call	_stbi__pnm_load
 1037      00
 1038 0682 E9C30000 		jmp	L50
 1038      00
 1039              	L56:
 693:thirdparty/stb_image.c ****    #endif
 694:thirdparty/stb_image.c **** 
 695:thirdparty/stb_image.c ****    #ifndef STBI_NO_HDR
 696:thirdparty/stb_image.c ****    if (stbi__hdr_test(s)) {
 1040              		.loc 1 696 8
 1041 0687 8B4508   		movl	8(%ebp), %eax
 1042 068a 890424   		movl	%eax, (%esp)
 1043 068d E83EE500 		call	_stbi__hdr_test
 1043      00
 1044              		.loc 1 696 7
 1045 0692 85C0     		testl	%eax, %eax
GAS LISTING C:\Users\jisu8\AppData\Local\Temp\ccTSXm7f.s 			page 33


 1046 0694 7464     		je	L57
 1047              	LBB2:
 697:thirdparty/stb_image.c ****       float *hdr = stbi__hdr_load(s, x,y,comp,req_comp, ri);
 1048              		.loc 1 697 20
 1049 0696 8B451C   		movl	28(%ebp), %eax
 1050 0699 89442414 		movl	%eax, 20(%esp)
 1051 069d 8B4518   		movl	24(%ebp), %eax
 1052 06a0 89442410 		movl	%eax, 16(%esp)
 1053 06a4 8B4514   		movl	20(%ebp), %eax
 1054 06a7 8944240C 		movl	%eax, 12(%esp)
 1055 06ab 8B4510   		movl	16(%ebp), %eax
 1056 06ae 89442408 		movl	%eax, 8(%esp)
 1057 06b2 8B450C   		movl	12(%ebp), %eax
 1058 06b5 89442404 		movl	%eax, 4(%esp)
 1059 06b9 8B4508   		movl	8(%ebp), %eax
 1060 06bc 890424   		movl	%eax, (%esp)
 1061 06bf E841E700 		call	_stbi__hdr_load
 1061      00
 1062 06c4 8945F4   		movl	%eax, -12(%ebp)
 698:thirdparty/stb_image.c ****       return stbi__hdr_to_ldr(hdr, *x, *y, req_comp ? req_comp : *comp);
 1063              		.loc 1 698 14
 1064 06c7 837D1800 		cmpl	$0, 24(%ebp)
 1065 06cb 7507     		jne	L58
 1066              		.loc 1 698 14 is_stmt 0 discriminator 1
 1067 06cd 8B4514   		movl	20(%ebp), %eax
 1068 06d0 8B00     		movl	(%eax), %eax
 1069 06d2 EB03     		jmp	L59
 1070              	L58:
 1071              		.loc 1 698 14 discriminator 2
 1072 06d4 8B4518   		movl	24(%ebp), %eax
 1073              	L59:
 1074              		.loc 1 698 14 discriminator 4
 1075 06d7 8B5510   		movl	16(%ebp), %edx
 1076 06da 8B0A     		movl	(%edx), %ecx
 1077 06dc 8B550C   		movl	12(%ebp), %edx
 1078 06df 8B12     		movl	(%edx), %edx
 1079 06e1 8944240C 		movl	%eax, 12(%esp)
 1080 06e5 894C2408 		movl	%ecx, 8(%esp)
 1081 06e9 89542404 		movl	%edx, 4(%esp)
 1082 06ed 8B45F4   		movl	-12(%ebp), %eax
 1083 06f0 890424   		movl	%eax, (%esp)
 1084 06f3 E8641C00 		call	_stbi__hdr_to_ldr
 1084      00
 1085 06f8 EB50     		jmp	L50
 1086              	L57:
 1087              	LBE2:
 699:thirdparty/stb_image.c ****    }
 700:thirdparty/stb_image.c ****    #endif
 701:thirdparty/stb_image.c **** 
 702:thirdparty/stb_image.c ****    #ifndef STBI_NO_TGA
 703:thirdparty/stb_image.c ****    // test tga last because it's a crappy test!
 704:thirdparty/stb_image.c ****    if (stbi__tga_test(s))
 1088              		.loc 1 704 8 is_stmt 1
 1089 06fa 8B4508   		movl	8(%ebp), %eax
 1090 06fd 890424   		movl	%eax, (%esp)
 1091 0700 E89BB800 		call	_stbi__tga_test
 1091      00
GAS LISTING C:\Users\jisu8\AppData\Local\Temp\ccTSXm7f.s 			page 34


 1092              		.loc 1 704 7
 1093 0705 85C0     		testl	%eax, %eax
 1094 0707 7430     		je	L60
 705:thirdparty/stb_image.c ****       return stbi__tga_load(s,x,y,comp,req_comp, ri);
 1095              		.loc 1 705 14
 1096 0709 8B451C   		movl	28(%ebp), %eax
 1097 070c 89442414 		movl	%eax, 20(%esp)
 1098 0710 8B4518   		movl	24(%ebp), %eax
 1099 0713 89442410 		movl	%eax, 16(%esp)
 1100 0717 8B4514   		movl	20(%ebp), %eax
 1101 071a 8944240C 		movl	%eax, 12(%esp)
 1102 071e 8B4510   		movl	16(%ebp), %eax
 1103 0721 89442408 		movl	%eax, 8(%esp)
 1104 0725 8B450C   		movl	12(%ebp), %eax
 1105 0728 89442404 		movl	%eax, 4(%esp)
 1106 072c 8B4508   		movl	8(%ebp), %eax
 1107 072f 890424   		movl	%eax, (%esp)
 1108 0732 E8B0BA00 		call	_stbi__tga_load
 1108      00
 1109 0737 EB11     		jmp	L50
 1110              	L60:
 706:thirdparty/stb_image.c ****    #endif
 707:thirdparty/stb_image.c **** 
 708:thirdparty/stb_image.c ****    return stbi__errpuc("unknown image type", "Image not of any known type, or corrupt");
 1111              		.loc 1 708 11
 1112 0739 C7042400 		movl	$LC0, (%esp)
 1112      000000
 1113 0740 E841FAFF 		call	_stbi__err
 1113      FF
 1114 0745 B8000000 		movl	$0, %eax
 1114      00
 1115              	L50:
 709:thirdparty/stb_image.c **** }
 1116              		.loc 1 709 1
 1117 074a C9       		leave
 1118              	LCFI65:
 1119              		.cfi_restore 5
 1120              		.cfi_def_cfa 4, 4
 1121 074b C3       		ret
 1122              		.cfi_endproc
 1123              	LFE38:
 1124              		.section .rdata,"dr"
 1125              	LC1:
 1126 0013 6F75746F 		.ascii "outofmem\0"
 1126      666D656D 
 1126      00
 1127              		.text
 1129              	_stbi__convert_16_to_8:
 1130              	LFB39:
 710:thirdparty/stb_image.c **** 
 711:thirdparty/stb_image.c **** static stbi_uc *stbi__convert_16_to_8(stbi__uint16 *orig, int w, int h, int channels)
 712:thirdparty/stb_image.c **** {
 1131              		.loc 1 712 1
 1132              		.cfi_startproc
 1133 074c 55       		pushl	%ebp
 1134              	LCFI66:
 1135              		.cfi_def_cfa_offset 8
GAS LISTING C:\Users\jisu8\AppData\Local\Temp\ccTSXm7f.s 			page 35


 1136              		.cfi_offset 5, -8
 1137 074d 89E5     		movl	%esp, %ebp
 1138              	LCFI67:
 1139              		.cfi_def_cfa_register 5
 1140 074f 83EC28   		subl	$40, %esp
 713:thirdparty/stb_image.c ****    int i;
 714:thirdparty/stb_image.c ****    int img_len = w * h * channels;
 1141              		.loc 1 714 20
 1142 0752 8B450C   		movl	12(%ebp), %eax
 1143 0755 0FAF4510 		imull	16(%ebp), %eax
 1144              		.loc 1 714 8
 1145 0759 8B5514   		movl	20(%ebp), %edx
 1146 075c 0FAFC2   		imull	%edx, %eax
 1147 075f 8945F0   		movl	%eax, -16(%ebp)
 715:thirdparty/stb_image.c ****    stbi_uc *reduced;
 716:thirdparty/stb_image.c **** 
 717:thirdparty/stb_image.c ****    reduced = (stbi_uc *) stbi__malloc(img_len);
 1148              		.loc 1 717 26
 1149 0762 8B45F0   		movl	-16(%ebp), %eax
 1150 0765 890424   		movl	%eax, (%esp)
 1151 0768 E839FAFF 		call	_stbi__malloc
 1151      FF
 1152 076d 8945EC   		movl	%eax, -20(%ebp)
 718:thirdparty/stb_image.c ****    if (reduced == NULL) return stbi__errpuc("outofmem", "Out of memory");
 1153              		.loc 1 718 7
 1154 0770 837DEC00 		cmpl	$0, -20(%ebp)
 1155 0774 7513     		jne	L62
 1156              		.loc 1 718 32 discriminator 1
 1157 0776 C7042413 		movl	$LC1, (%esp)
 1157      000000
 1158 077d E804FAFF 		call	_stbi__err
 1158      FF
 1159 0782 B8000000 		movl	$0, %eax
 1159      00
 1160 0787 EB43     		jmp	L63
 1161              	L62:
 719:thirdparty/stb_image.c **** 
 720:thirdparty/stb_image.c ****    for (i = 0; i < img_len; ++i)
 1162              		.loc 1 720 11
 1163 0789 C745F400 		movl	$0, -12(%ebp)
 1163      000000
 1164              		.loc 1 720 4
 1165 0790 EB24     		jmp	L64
 1166              	L65:
 721:thirdparty/stb_image.c ****       reduced[i] = (stbi_uc)((orig[i] >> 8) & 0xFF); // top half of each byte is sufficient approx 
 1167              		.loc 1 721 35 discriminator 3
 1168 0792 8B45F4   		movl	-12(%ebp), %eax
 1169 0795 8D1400   		leal	(%eax,%eax), %edx
 1170 0798 8B4508   		movl	8(%ebp), %eax
 1171 079b 01D0     		addl	%edx, %eax
 1172 079d 0FB700   		movzwl	(%eax), %eax
 1173              		.loc 1 721 20 discriminator 3
 1174 07a0 66C1E808 		shrw	$8, %ax
 1175 07a4 89C1     		movl	%eax, %ecx
 1176              		.loc 1 721 14 discriminator 3
 1177 07a6 8B55F4   		movl	-12(%ebp), %edx
 1178 07a9 8B45EC   		movl	-20(%ebp), %eax
GAS LISTING C:\Users\jisu8\AppData\Local\Temp\ccTSXm7f.s 			page 36


 1179 07ac 01D0     		addl	%edx, %eax
 1180              		.loc 1 721 20 discriminator 3
 1181 07ae 89CA     		movl	%ecx, %edx
 1182              		.loc 1 721 18 discriminator 3
 1183 07b0 8810     		movb	%dl, (%eax)
 720:thirdparty/stb_image.c ****       reduced[i] = (stbi_uc)((orig[i] >> 8) & 0xFF); // top half of each byte is sufficient approx 
 1184              		.loc 1 720 29 discriminator 3
 1185 07b2 8345F401 		addl	$1, -12(%ebp)
 1186              	L64:
 720:thirdparty/stb_image.c ****       reduced[i] = (stbi_uc)((orig[i] >> 8) & 0xFF); // top half of each byte is sufficient approx 
 1187              		.loc 1 720 4 discriminator 1
 1188 07b6 8B45F4   		movl	-12(%ebp), %eax
 1189 07b9 3B45F0   		cmpl	-16(%ebp), %eax
 1190 07bc 7CD4     		jl	L65
 722:thirdparty/stb_image.c **** 
 723:thirdparty/stb_image.c ****    STBI_FREE(orig);
 1191              		.loc 1 723 4
 1192 07be 8B4508   		movl	8(%ebp), %eax
 1193 07c1 890424   		movl	%eax, (%esp)
 1194 07c4 E8000000 		call	_free
 1194      00
 724:thirdparty/stb_image.c ****    return reduced;
 1195              		.loc 1 724 11
 1196 07c9 8B45EC   		movl	-20(%ebp), %eax
 1197              	L63:
 725:thirdparty/stb_image.c **** }
 1198              		.loc 1 725 1
 1199 07cc C9       		leave
 1200              	LCFI68:
 1201              		.cfi_restore 5
 1202              		.cfi_def_cfa 4, 4
 1203 07cd C3       		ret
 1204              		.cfi_endproc
 1205              	LFE39:
 1207              	_stbi__convert_8_to_16:
 1208              	LFB40:
 726:thirdparty/stb_image.c **** 
 727:thirdparty/stb_image.c **** static stbi__uint16 *stbi__convert_8_to_16(stbi_uc *orig, int w, int h, int channels)
 728:thirdparty/stb_image.c **** {
 1209              		.loc 1 728 1
 1210              		.cfi_startproc
 1211 07ce 55       		pushl	%ebp
 1212              	LCFI69:
 1213              		.cfi_def_cfa_offset 8
 1214              		.cfi_offset 5, -8
 1215 07cf 89E5     		movl	%esp, %ebp
 1216              	LCFI70:
 1217              		.cfi_def_cfa_register 5
 1218 07d1 53       		pushl	%ebx
 1219 07d2 83EC24   		subl	$36, %esp
 1220              		.cfi_offset 3, -12
 729:thirdparty/stb_image.c ****    int i;
 730:thirdparty/stb_image.c ****    int img_len = w * h * channels;
 1221              		.loc 1 730 20
 1222 07d5 8B450C   		movl	12(%ebp), %eax
 1223 07d8 0FAF4510 		imull	16(%ebp), %eax
 1224              		.loc 1 730 8
GAS LISTING C:\Users\jisu8\AppData\Local\Temp\ccTSXm7f.s 			page 37


 1225 07dc 8B5514   		movl	20(%ebp), %edx
 1226 07df 0FAFC2   		imull	%edx, %eax
 1227 07e2 8945F0   		movl	%eax, -16(%ebp)
 731:thirdparty/stb_image.c ****    stbi__uint16 *enlarged;
 732:thirdparty/stb_image.c **** 
 733:thirdparty/stb_image.c ****    enlarged = (stbi__uint16 *) stbi__malloc(img_len*2);
 1228              		.loc 1 733 52
 1229 07e5 8B45F0   		movl	-16(%ebp), %eax
 1230 07e8 01C0     		addl	%eax, %eax
 1231              		.loc 1 733 32
 1232 07ea 890424   		movl	%eax, (%esp)
 1233 07ed E8B4F9FF 		call	_stbi__malloc
 1233      FF
 1234 07f2 8945EC   		movl	%eax, -20(%ebp)
 734:thirdparty/stb_image.c ****    if (enlarged == NULL) return (stbi__uint16 *) stbi__errpuc("outofmem", "Out of memory");
 1235              		.loc 1 734 7
 1236 07f5 837DEC00 		cmpl	$0, -20(%ebp)
 1237 07f9 7513     		jne	L67
 1238              		.loc 1 734 50 discriminator 1
 1239 07fb C7042413 		movl	$LC1, (%esp)
 1239      000000
 1240 0802 E87FF9FF 		call	_stbi__err
 1240      FF
 1241              		.loc 1 734 33 discriminator 1
 1242 0807 B8000000 		movl	$0, %eax
 1242      00
 1243 080c EB54     		jmp	L68
 1244              	L67:
 735:thirdparty/stb_image.c **** 
 736:thirdparty/stb_image.c ****    for (i = 0; i < img_len; ++i)
 1245              		.loc 1 736 11
 1246 080e C745F400 		movl	$0, -12(%ebp)
 1246      000000
 1247              		.loc 1 736 4
 1248 0815 EB35     		jmp	L69
 1249              	L70:
 737:thirdparty/stb_image.c ****       enlarged[i] = (stbi__uint16)((orig[i] << 8) + orig[i]); // replicate to high and low byte, ma
 1250              		.loc 1 737 41 discriminator 3
 1251 0817 8B55F4   		movl	-12(%ebp), %edx
 1252 081a 8B4508   		movl	8(%ebp), %eax
 1253 081d 01D0     		addl	%edx, %eax
 1254 081f 0FB600   		movzbl	(%eax), %eax
 1255 0822 0FB6C0   		movzbl	%al, %eax
 1256              		.loc 1 737 45 discriminator 3
 1257 0825 C1E008   		sall	$8, %eax
 1258 0828 89C1     		movl	%eax, %ecx
 1259              		.loc 1 737 57 discriminator 3
 1260 082a 8B55F4   		movl	-12(%ebp), %edx
 1261 082d 8B4508   		movl	8(%ebp), %eax
 1262 0830 01D0     		addl	%edx, %eax
 1263 0832 0FB600   		movzbl	(%eax), %eax
 1264 0835 0FB6D0   		movzbl	%al, %edx
 1265              		.loc 1 737 15 discriminator 3
 1266 0838 8B45F4   		movl	-12(%ebp), %eax
 1267 083b 8D1C00   		leal	(%eax,%eax), %ebx
 1268 083e 8B45EC   		movl	-20(%ebp), %eax
 1269 0841 01D8     		addl	%ebx, %eax
GAS LISTING C:\Users\jisu8\AppData\Local\Temp\ccTSXm7f.s 			page 38


 1270              		.loc 1 737 21 discriminator 3
 1271 0843 01CA     		addl	%ecx, %edx
 1272              		.loc 1 737 19 discriminator 3
 1273 0845 668910   		movw	%dx, (%eax)
 736:thirdparty/stb_image.c ****       enlarged[i] = (stbi__uint16)((orig[i] << 8) + orig[i]); // replicate to high and low byte, ma
 1274              		.loc 1 736 29 discriminator 3
 1275 0848 8345F401 		addl	$1, -12(%ebp)
 1276              	L69:
 736:thirdparty/stb_image.c ****       enlarged[i] = (stbi__uint16)((orig[i] << 8) + orig[i]); // replicate to high and low byte, ma
 1277              		.loc 1 736 4 discriminator 1
 1278 084c 8B45F4   		movl	-12(%ebp), %eax
 1279 084f 3B45F0   		cmpl	-16(%ebp), %eax
 1280 0852 7CC3     		jl	L70
 738:thirdparty/stb_image.c **** 
 739:thirdparty/stb_image.c ****    STBI_FREE(orig);
 1281              		.loc 1 739 4
 1282 0854 8B4508   		movl	8(%ebp), %eax
 1283 0857 890424   		movl	%eax, (%esp)
 1284 085a E8000000 		call	_free
 1284      00
 740:thirdparty/stb_image.c ****    return enlarged;
 1285              		.loc 1 740 11
 1286 085f 8B45EC   		movl	-20(%ebp), %eax
 1287              	L68:
 741:thirdparty/stb_image.c **** }
 1288              		.loc 1 741 1
 1289 0862 83C424   		addl	$36, %esp
 1290 0865 5B       		popl	%ebx
 1291              		.cfi_restore 3
 1292 0866 5D       		popl	%ebp
 1293              	LCFI71:
 1294              		.cfi_restore 5
 1295              		.cfi_def_cfa 4, 4
 1296 0867 C3       		ret
 1297              		.cfi_endproc
 1298              	LFE40:
 1300              	_stbi__vertical_flip:
 1301              	LFB41:
 742:thirdparty/stb_image.c **** 
 743:thirdparty/stb_image.c **** static void stbi__vertical_flip(void *image, int w, int h, int bytes_per_pixel)
 744:thirdparty/stb_image.c **** {
 1302              		.loc 1 744 1
 1303              		.cfi_startproc
 1304 0868 55       		pushl	%ebp
 1305              	LCFI72:
 1306              		.cfi_def_cfa_offset 8
 1307              		.cfi_offset 5, -8
 1308 0869 89E5     		movl	%esp, %ebp
 1309              	LCFI73:
 1310              		.cfi_def_cfa_register 5
 1311 086b 81EC3808 		subl	$2104, %esp
 1311      0000
 745:thirdparty/stb_image.c ****    int row;
 746:thirdparty/stb_image.c ****    size_t bytes_per_row = (size_t)w * bytes_per_pixel;
 1312              		.loc 1 746 27
 1313 0871 8B550C   		movl	12(%ebp), %edx
 1314              		.loc 1 746 37
GAS LISTING C:\Users\jisu8\AppData\Local\Temp\ccTSXm7f.s 			page 39


 1315 0874 8B4514   		movl	20(%ebp), %eax
 1316              		.loc 1 746 11
 1317 0877 0FAFC2   		imull	%edx, %eax
 1318 087a 8945E4   		movl	%eax, -28(%ebp)
 747:thirdparty/stb_image.c ****    stbi_uc temp[2048];
 748:thirdparty/stb_image.c ****    stbi_uc *bytes = (stbi_uc *)image;
 1319              		.loc 1 748 13
 1320 087d 8B4508   		movl	8(%ebp), %eax
 1321 0880 8945E0   		movl	%eax, -32(%ebp)
 749:thirdparty/stb_image.c **** 
 750:thirdparty/stb_image.c ****    for (row = 0; row < (h>>1); row++) {
 1322              		.loc 1 750 13
 1323 0883 C745F400 		movl	$0, -12(%ebp)
 1323      000000
 1324              		.loc 1 750 4
 1325 088a E9B00000 		jmp	L72
 1325      00
 1326              	L75:
 1327              	LBB3:
 751:thirdparty/stb_image.c ****       stbi_uc *row0 = bytes + row*bytes_per_row;
 1328              		.loc 1 751 34
 1329 088f 8B45F4   		movl	-12(%ebp), %eax
 1330 0892 0FAF45E4 		imull	-28(%ebp), %eax
 1331 0896 89C2     		movl	%eax, %edx
 1332              		.loc 1 751 16
 1333 0898 8B45E0   		movl	-32(%ebp), %eax
 1334 089b 01D0     		addl	%edx, %eax
 1335 089d 8945F0   		movl	%eax, -16(%ebp)
 752:thirdparty/stb_image.c ****       stbi_uc *row1 = bytes + (h - row - 1)*bytes_per_row;
 1336              		.loc 1 752 34
 1337 08a0 8B4510   		movl	16(%ebp), %eax
 1338 08a3 2B45F4   		subl	-12(%ebp), %eax
 1339              		.loc 1 752 40
 1340 08a6 83E801   		subl	$1, %eax
 1341              		.loc 1 752 44
 1342 08a9 0FAF45E4 		imull	-28(%ebp), %eax
 1343 08ad 89C2     		movl	%eax, %edx
 1344              		.loc 1 752 16
 1345 08af 8B45E0   		movl	-32(%ebp), %eax
 1346 08b2 01D0     		addl	%edx, %eax
 1347 08b4 8945EC   		movl	%eax, -20(%ebp)
 753:thirdparty/stb_image.c ****       // swap row0 with row1
 754:thirdparty/stb_image.c ****       size_t bytes_left = bytes_per_row;
 1348              		.loc 1 754 14
 1349 08b7 8B45E4   		movl	-28(%ebp), %eax
 1350 08ba 8945E8   		movl	%eax, -24(%ebp)
 755:thirdparty/stb_image.c ****       while (bytes_left) {
 1351              		.loc 1 755 13
 1352 08bd EB76     		jmp	L73
 1353              	L74:
 1354              	LBB4:
 756:thirdparty/stb_image.c ****          size_t bytes_copy = (bytes_left < sizeof(temp)) ? bytes_left : sizeof(temp);
 1355              		.loc 1 756 17
 1356 08bf B8000800 		movl	$2048, %eax
 1356      00
 1357 08c4 817DE800 		cmpl	$2048, -24(%ebp)
 1357      080000
GAS LISTING C:\Users\jisu8\AppData\Local\Temp\ccTSXm7f.s 			page 40


 1358 08cb 0F4645E8 		cmovbe	-24(%ebp), %eax
 1359 08cf 8945DC   		movl	%eax, -36(%ebp)
 757:thirdparty/stb_image.c ****          memcpy(temp, row0, bytes_copy);
 1360              		.loc 1 757 10
 1361 08d2 8B45DC   		movl	-36(%ebp), %eax
 1362 08d5 89442408 		movl	%eax, 8(%esp)
 1363 08d9 8B45F0   		movl	-16(%ebp), %eax
 1364 08dc 89442404 		movl	%eax, 4(%esp)
 1365 08e0 8D85DCF7 		leal	-2084(%ebp), %eax
 1365      FFFF
 1366 08e6 890424   		movl	%eax, (%esp)
 1367 08e9 E8000000 		call	_memcpy
 1367      00
 758:thirdparty/stb_image.c ****          memcpy(row0, row1, bytes_copy);
 1368              		.loc 1 758 10
 1369 08ee 8B45DC   		movl	-36(%ebp), %eax
 1370 08f1 89442408 		movl	%eax, 8(%esp)
 1371 08f5 8B45EC   		movl	-20(%ebp), %eax
 1372 08f8 89442404 		movl	%eax, 4(%esp)
 1373 08fc 8B45F0   		movl	-16(%ebp), %eax
 1374 08ff 890424   		movl	%eax, (%esp)
 1375 0902 E8000000 		call	_memcpy
 1375      00
 759:thirdparty/stb_image.c ****          memcpy(row1, temp, bytes_copy);
 1376              		.loc 1 759 10
 1377 0907 8B45DC   		movl	-36(%ebp), %eax
 1378 090a 89442408 		movl	%eax, 8(%esp)
 1379 090e 8D85DCF7 		leal	-2084(%ebp), %eax
 1379      FFFF
 1380 0914 89442404 		movl	%eax, 4(%esp)
 1381 0918 8B45EC   		movl	-20(%ebp), %eax
 1382 091b 890424   		movl	%eax, (%esp)
 1383 091e E8000000 		call	_memcpy
 1383      00
 760:thirdparty/stb_image.c ****          row0 += bytes_copy;
 1384              		.loc 1 760 15
 1385 0923 8B45DC   		movl	-36(%ebp), %eax
 1386 0926 0145F0   		addl	%eax, -16(%ebp)
 761:thirdparty/stb_image.c ****          row1 += bytes_copy;
 1387              		.loc 1 761 15
 1388 0929 8B45DC   		movl	-36(%ebp), %eax
 1389 092c 0145EC   		addl	%eax, -20(%ebp)
 762:thirdparty/stb_image.c ****          bytes_left -= bytes_copy;
 1390              		.loc 1 762 21
 1391 092f 8B45DC   		movl	-36(%ebp), %eax
 1392 0932 2945E8   		subl	%eax, -24(%ebp)
 1393              	L73:
 1394              	LBE4:
 755:thirdparty/stb_image.c ****          size_t bytes_copy = (bytes_left < sizeof(temp)) ? bytes_left : sizeof(temp);
 1395              		.loc 1 755 13
 1396 0935 837DE800 		cmpl	$0, -24(%ebp)
 1397 0939 7584     		jne	L74
 1398              	LBE3:
 750:thirdparty/stb_image.c ****       stbi_uc *row0 = bytes + row*bytes_per_row;
 1399              		.loc 1 750 35 discriminator 2
 1400 093b 8345F401 		addl	$1, -12(%ebp)
 1401              	L72:
GAS LISTING C:\Users\jisu8\AppData\Local\Temp\ccTSXm7f.s 			page 41


 750:thirdparty/stb_image.c ****       stbi_uc *row0 = bytes + row*bytes_per_row;
 1402              		.loc 1 750 26 discriminator 1
 1403 093f 8B4510   		movl	16(%ebp), %eax
 1404 0942 D1F8     		sarl	%eax
 750:thirdparty/stb_image.c ****       stbi_uc *row0 = bytes + row*bytes_per_row;
 1405              		.loc 1 750 4 discriminator 1
 1406 0944 3945F4   		cmpl	%eax, -12(%ebp)
 1407 0947 0F8C42FF 		jl	L75
 1407      FFFF
 763:thirdparty/stb_image.c ****       }
 764:thirdparty/stb_image.c ****    }
 765:thirdparty/stb_image.c **** }
 1408              		.loc 1 765 1
 1409 094d 90       		nop
 1410 094e C9       		leave
 1411              	LCFI74:
 1412              		.cfi_restore 5
 1413              		.cfi_def_cfa 4, 4
 1414 094f C3       		ret
 1415              		.cfi_endproc
 1416              	LFE41:
 1418              	_stbi__vertical_flip_slices:
 1419              	LFB42:
 766:thirdparty/stb_image.c **** 
 767:thirdparty/stb_image.c **** #ifndef STBI_NO_GIF
 768:thirdparty/stb_image.c **** static void stbi__vertical_flip_slices(void *image, int w, int h, int z, int bytes_per_pixel)
 769:thirdparty/stb_image.c **** {
 1420              		.loc 1 769 1
 1421              		.cfi_startproc
 1422 0950 55       		pushl	%ebp
 1423              	LCFI75:
 1424              		.cfi_def_cfa_offset 8
 1425              		.cfi_offset 5, -8
 1426 0951 89E5     		movl	%esp, %ebp
 1427              	LCFI76:
 1428              		.cfi_def_cfa_register 5
 1429 0953 83EC28   		subl	$40, %esp
 770:thirdparty/stb_image.c ****    int slice;
 771:thirdparty/stb_image.c ****    int slice_size = w * h * bytes_per_pixel;
 1430              		.loc 1 771 23
 1431 0956 8B450C   		movl	12(%ebp), %eax
 1432 0959 0FAF4510 		imull	16(%ebp), %eax
 1433              		.loc 1 771 8
 1434 095d 8B5518   		movl	24(%ebp), %edx
 1435 0960 0FAFC2   		imull	%edx, %eax
 1436 0963 8945EC   		movl	%eax, -20(%ebp)
 772:thirdparty/stb_image.c **** 
 773:thirdparty/stb_image.c ****    stbi_uc *bytes = (stbi_uc *)image;
 1437              		.loc 1 773 13
 1438 0966 8B4508   		movl	8(%ebp), %eax
 1439 0969 8945F0   		movl	%eax, -16(%ebp)
 774:thirdparty/stb_image.c ****    for (slice = 0; slice < z; ++slice) {
 1440              		.loc 1 774 15
 1441 096c C745F400 		movl	$0, -12(%ebp)
 1441      000000
 1442              		.loc 1 774 4
 1443 0973 EB2A     		jmp	L77
GAS LISTING C:\Users\jisu8\AppData\Local\Temp\ccTSXm7f.s 			page 42


 1444              	L78:
 775:thirdparty/stb_image.c ****       stbi__vertical_flip(bytes, w, h, bytes_per_pixel);
 1445              		.loc 1 775 7 discriminator 3
 1446 0975 8B4518   		movl	24(%ebp), %eax
 1447 0978 8944240C 		movl	%eax, 12(%esp)
 1448 097c 8B4510   		movl	16(%ebp), %eax
 1449 097f 89442408 		movl	%eax, 8(%esp)
 1450 0983 8B450C   		movl	12(%ebp), %eax
 1451 0986 89442404 		movl	%eax, 4(%esp)
 1452 098a 8B45F0   		movl	-16(%ebp), %eax
 1453 098d 890424   		movl	%eax, (%esp)
 1454 0990 E8D3FEFF 		call	_stbi__vertical_flip
 1454      FF
 776:thirdparty/stb_image.c ****       bytes += slice_size;
 1455              		.loc 1 776 13 discriminator 3
 1456 0995 8B45EC   		movl	-20(%ebp), %eax
 1457 0998 0145F0   		addl	%eax, -16(%ebp)
 774:thirdparty/stb_image.c ****    for (slice = 0; slice < z; ++slice) {
 1458              		.loc 1 774 31 discriminator 3
 1459 099b 8345F401 		addl	$1, -12(%ebp)
 1460              	L77:
 774:thirdparty/stb_image.c ****    for (slice = 0; slice < z; ++slice) {
 1461              		.loc 1 774 4 discriminator 1
 1462 099f 8B45F4   		movl	-12(%ebp), %eax
 1463 09a2 3B4514   		cmpl	20(%ebp), %eax
 1464 09a5 7CCE     		jl	L78
 777:thirdparty/stb_image.c ****    }
 778:thirdparty/stb_image.c **** }
 1465              		.loc 1 778 1
 1466 09a7 90       		nop
 1467 09a8 C9       		leave
 1468              	LCFI77:
 1469              		.cfi_restore 5
 1470              		.cfi_def_cfa 4, 4
 1471 09a9 C3       		ret
 1472              		.cfi_endproc
 1473              	LFE42:
 1474              		.section .rdata,"dr"
 1475              	LC2:
 1476 001c 74686972 		.ascii "thirdparty/stb_image.c\0"
 1476      64706172 
 1476      74792F73 
 1476      74625F69 
 1476      6D616765 
 1477              	LC3:
 1478 0033 72692E62 		.ascii "ri.bits_per_channel == 16\0"
 1478      6974735F 
 1478      7065725F 
 1478      6368616E 
 1478      6E656C20 
 1479              		.text
 1481              	_stbi__load_and_postprocess_8bit:
 1482              	LFB43:
 779:thirdparty/stb_image.c **** #endif
 780:thirdparty/stb_image.c **** 
 781:thirdparty/stb_image.c **** static unsigned char *stbi__load_and_postprocess_8bit(stbi__context *s, int *x, int *y, int *comp, 
 782:thirdparty/stb_image.c **** {
GAS LISTING C:\Users\jisu8\AppData\Local\Temp\ccTSXm7f.s 			page 43


 1483              		.loc 1 782 1
 1484              		.cfi_startproc
 1485 09aa 55       		pushl	%ebp
 1486              	LCFI78:
 1487              		.cfi_def_cfa_offset 8
 1488              		.cfi_offset 5, -8
 1489 09ab 89E5     		movl	%esp, %ebp
 1490              	LCFI79:
 1491              		.cfi_def_cfa_register 5
 1492 09ad 83EC48   		subl	$72, %esp
 783:thirdparty/stb_image.c ****    stbi__result_info ri;
 784:thirdparty/stb_image.c ****    void *result = stbi__load_main(s, x, y, comp, req_comp, &ri, 8);
 1493              		.loc 1 784 19
 1494 09b0 C7442418 		movl	$8, 24(%esp)
 1494      08000000 
 1495 09b8 8D45E4   		leal	-28(%ebp), %eax
 1496 09bb 89442414 		movl	%eax, 20(%esp)
 1497 09bf 8B4518   		movl	24(%ebp), %eax
 1498 09c2 89442410 		movl	%eax, 16(%esp)
 1499 09c6 8B4514   		movl	20(%ebp), %eax
 1500 09c9 8944240C 		movl	%eax, 12(%esp)
 1501 09cd 8B4510   		movl	16(%ebp), %eax
 1502 09d0 89442408 		movl	%eax, 8(%esp)
 1503 09d4 8B450C   		movl	12(%ebp), %eax
 1504 09d7 89442404 		movl	%eax, 4(%esp)
 1505 09db 8B4508   		movl	8(%ebp), %eax
 1506 09de 890424   		movl	%eax, (%esp)
 1507 09e1 E88EFAFF 		call	_stbi__load_main
 1507      FF
 1508 09e6 8945F4   		movl	%eax, -12(%ebp)
 785:thirdparty/stb_image.c **** 
 786:thirdparty/stb_image.c ****    if (result == NULL)
 1509              		.loc 1 786 7
 1510 09e9 837DF400 		cmpl	$0, -12(%ebp)
 1511 09ed 750A     		jne	L80
 787:thirdparty/stb_image.c ****       return NULL;
 1512              		.loc 1 787 14
 1513 09ef B8000000 		movl	$0, %eax
 1513      00
 1514 09f4 E9D60000 		jmp	L93
 1514      00
 1515              	L80:
 788:thirdparty/stb_image.c **** 
 789:thirdparty/stb_image.c ****    if (ri.bits_per_channel != 8) {
 1516              		.loc 1 789 10
 1517 09f9 8B45E4   		movl	-28(%ebp), %eax
 1518              		.loc 1 789 7
 1519 09fc 83F808   		cmpl	$8, %eax
 1520 09ff 745F     		je	L82
 790:thirdparty/stb_image.c ****       STBI_ASSERT(ri.bits_per_channel == 16);
 1521              		.loc 1 790 7
 1522 0a01 8B45E4   		movl	-28(%ebp), %eax
 1523 0a04 83F810   		cmpl	$16, %eax
 1524 0a07 741C     		je	L85
 1525              		.loc 1 790 7 is_stmt 0 discriminator 2
 1526 0a09 C7442408 		movl	$790, 8(%esp)
 1526      16030000 
GAS LISTING C:\Users\jisu8\AppData\Local\Temp\ccTSXm7f.s 			page 44


 1527 0a11 C7442404 		movl	$LC2, 4(%esp)
 1527      1C000000 
 1528 0a19 C7042433 		movl	$LC3, (%esp)
 1528      000000
 1529 0a20 E8000000 		call	__assert
 1529      00
 1530              	L85:
 791:thirdparty/stb_image.c ****       result = stbi__convert_16_to_8((stbi__uint16 *) result, *x, *y, req_comp == 0 ? *comp : req_c
 1531              		.loc 1 791 16 is_stmt 1
 1532 0a25 837D1800 		cmpl	$0, 24(%ebp)
 1533 0a29 7507     		jne	L86
 1534              		.loc 1 791 16 is_stmt 0 discriminator 1
 1535 0a2b 8B4514   		movl	20(%ebp), %eax
 1536 0a2e 8B00     		movl	(%eax), %eax
 1537 0a30 EB03     		jmp	L87
 1538              	L86:
 1539              		.loc 1 791 16 discriminator 2
 1540 0a32 8B4518   		movl	24(%ebp), %eax
 1541              	L87:
 1542              		.loc 1 791 16 discriminator 4
 1543 0a35 8B5510   		movl	16(%ebp), %edx
 1544 0a38 8B0A     		movl	(%edx), %ecx
 1545 0a3a 8B550C   		movl	12(%ebp), %edx
 1546 0a3d 8B12     		movl	(%edx), %edx
 1547 0a3f 8944240C 		movl	%eax, 12(%esp)
 1548 0a43 894C2408 		movl	%ecx, 8(%esp)
 1549 0a47 89542404 		movl	%edx, 4(%esp)
 1550 0a4b 8B45F4   		movl	-12(%ebp), %eax
 1551 0a4e 890424   		movl	%eax, (%esp)
 1552 0a51 E8F6FCFF 		call	_stbi__convert_16_to_8
 1552      FF
 1553 0a56 8945F4   		movl	%eax, -12(%ebp)
 792:thirdparty/stb_image.c ****       ri.bits_per_channel = 8;
 1554              		.loc 1 792 27 is_stmt 1 discriminator 4
 1555 0a59 C745E408 		movl	$8, -28(%ebp)
 1555      000000
 1556              	L82:
 793:thirdparty/stb_image.c ****    }
 794:thirdparty/stb_image.c **** 
 795:thirdparty/stb_image.c ****    // @TODO: move stbi__convert_format to here
 796:thirdparty/stb_image.c **** 
 797:thirdparty/stb_image.c ****    if (stbi__vertically_flip_on_load) {
 1557              		.loc 1 797 8
 1558 0a60 C70424A4 		movl	$___emutls_v.stbi__vertically_flip_on_load_set, (%esp)
 1558      000000
 1559 0a67 E8000000 		call	___emutls_get_address
 1559      00
 1560 0a6c 8B00     		movl	(%eax), %eax
 1561 0a6e 85C0     		testl	%eax, %eax
 1562 0a70 7415     		je	L88
 1563              		.loc 1 797 8 is_stmt 0 discriminator 1
 1564 0a72 C70424B4 		movl	$___emutls_v.stbi__vertically_flip_on_load_local, (%esp)
 1564      000000
 1565 0a79 E8000000 		call	___emutls_get_address
 1565      00
 1566 0a7e 8B00     		movl	(%eax), %eax
 1567 0a80 85C0     		testl	%eax, %eax
GAS LISTING C:\Users\jisu8\AppData\Local\Temp\ccTSXm7f.s 			page 45


 1568 0a82 0F95C0   		setne	%al
 1569 0a85 EB0A     		jmp	L89
 1570              	L88:
 1571              		.loc 1 797 8 discriminator 2
 1572 0a87 A1000000 		movl	_stbi__vertically_flip_on_load_global, %eax
 1572      00
 1573 0a8c 85C0     		testl	%eax, %eax
 1574 0a8e 0F95C0   		setne	%al
 1575              	L89:
 1576              		.loc 1 797 7 is_stmt 1 discriminator 4
 1577 0a91 84C0     		testb	%al, %al
 1578 0a93 7437     		je	L90
 1579              	LBB5:
 798:thirdparty/stb_image.c ****       int channels = req_comp ? req_comp : *comp;
 1580              		.loc 1 798 42
 1581 0a95 837D1800 		cmpl	$0, 24(%ebp)
 1582 0a99 7507     		jne	L91
 1583              		.loc 1 798 42 is_stmt 0 discriminator 1
 1584 0a9b 8B4514   		movl	20(%ebp), %eax
 1585 0a9e 8B00     		movl	(%eax), %eax
 1586 0aa0 EB03     		jmp	L92
 1587              	L91:
 1588              		.loc 1 798 42 discriminator 2
 1589 0aa2 8B4518   		movl	24(%ebp), %eax
 1590              	L92:
 1591              		.loc 1 798 11 is_stmt 1 discriminator 4
 1592 0aa5 8945F0   		movl	%eax, -16(%ebp)
 799:thirdparty/stb_image.c ****       stbi__vertical_flip(result, *x, *y, channels * sizeof(stbi_uc));
 1593              		.loc 1 799 7 discriminator 4
 1594 0aa8 8B4510   		movl	16(%ebp), %eax
 1595 0aab 8B10     		movl	(%eax), %edx
 1596 0aad 8B450C   		movl	12(%ebp), %eax
 1597 0ab0 8B00     		movl	(%eax), %eax
 1598 0ab2 8B4DF0   		movl	-16(%ebp), %ecx
 1599 0ab5 894C240C 		movl	%ecx, 12(%esp)
 1600 0ab9 89542408 		movl	%edx, 8(%esp)
 1601 0abd 89442404 		movl	%eax, 4(%esp)
 1602 0ac1 8B45F4   		movl	-12(%ebp), %eax
 1603 0ac4 890424   		movl	%eax, (%esp)
 1604 0ac7 E89CFDFF 		call	_stbi__vertical_flip
 1604      FF
 1605              	L90:
 1606              	LBE5:
 800:thirdparty/stb_image.c ****    }
 801:thirdparty/stb_image.c **** 
 802:thirdparty/stb_image.c ****    return (unsigned char *) result;
 1607              		.loc 1 802 11
 1608 0acc 8B45F4   		movl	-12(%ebp), %eax
 1609              	L93:
 803:thirdparty/stb_image.c **** }
 1610              		.loc 1 803 1 discriminator 1
 1611 0acf C9       		leave
 1612              	LCFI80:
 1613              		.cfi_restore 5
 1614              		.cfi_def_cfa 4, 4
 1615 0ad0 C3       		ret
 1616              		.cfi_endproc
GAS LISTING C:\Users\jisu8\AppData\Local\Temp\ccTSXm7f.s 			page 46


 1617              	LFE43:
 1618              		.section .rdata,"dr"
 1619              	LC4:
 1620 004d 72692E62 		.ascii "ri.bits_per_channel == 8\0"
 1620      6974735F 
 1620      7065725F 
 1620      6368616E 
 1620      6E656C20 
 1621              		.text
 1623              	_stbi__load_and_postprocess_16bit:
 1624              	LFB44:
 804:thirdparty/stb_image.c **** 
 805:thirdparty/stb_image.c **** static stbi__uint16 *stbi__load_and_postprocess_16bit(stbi__context *s, int *x, int *y, int *comp, 
 806:thirdparty/stb_image.c **** {
 1625              		.loc 1 806 1
 1626              		.cfi_startproc
 1627 0ad1 55       		pushl	%ebp
 1628              	LCFI81:
 1629              		.cfi_def_cfa_offset 8
 1630              		.cfi_offset 5, -8
 1631 0ad2 89E5     		movl	%esp, %ebp
 1632              	LCFI82:
 1633              		.cfi_def_cfa_register 5
 1634 0ad4 83EC48   		subl	$72, %esp
 807:thirdparty/stb_image.c ****    stbi__result_info ri;
 808:thirdparty/stb_image.c ****    void *result = stbi__load_main(s, x, y, comp, req_comp, &ri, 16);
 1635              		.loc 1 808 19
 1636 0ad7 C7442418 		movl	$16, 24(%esp)
 1636      10000000 
 1637 0adf 8D45E4   		leal	-28(%ebp), %eax
 1638 0ae2 89442414 		movl	%eax, 20(%esp)
 1639 0ae6 8B4518   		movl	24(%ebp), %eax
 1640 0ae9 89442410 		movl	%eax, 16(%esp)
 1641 0aed 8B4514   		movl	20(%ebp), %eax
 1642 0af0 8944240C 		movl	%eax, 12(%esp)
 1643 0af4 8B4510   		movl	16(%ebp), %eax
 1644 0af7 89442408 		movl	%eax, 8(%esp)
 1645 0afb 8B450C   		movl	12(%ebp), %eax
 1646 0afe 89442404 		movl	%eax, 4(%esp)
 1647 0b02 8B4508   		movl	8(%ebp), %eax
 1648 0b05 890424   		movl	%eax, (%esp)
 1649 0b08 E867F9FF 		call	_stbi__load_main
 1649      FF
 1650 0b0d 8945F4   		movl	%eax, -12(%ebp)
 809:thirdparty/stb_image.c **** 
 810:thirdparty/stb_image.c ****    if (result == NULL)
 1651              		.loc 1 810 7
 1652 0b10 837DF400 		cmpl	$0, -12(%ebp)
 1653 0b14 750A     		jne	L95
 811:thirdparty/stb_image.c ****       return NULL;
 1654              		.loc 1 811 14
 1655 0b16 B8000000 		movl	$0, %eax
 1655      00
 1656 0b1b E9DA0000 		jmp	L108
 1656      00
 1657              	L95:
 812:thirdparty/stb_image.c **** 
GAS LISTING C:\Users\jisu8\AppData\Local\Temp\ccTSXm7f.s 			page 47


 813:thirdparty/stb_image.c ****    if (ri.bits_per_channel != 16) {
 1658              		.loc 1 813 10
 1659 0b20 8B45E4   		movl	-28(%ebp), %eax
 1660              		.loc 1 813 7
 1661 0b23 83F810   		cmpl	$16, %eax
 1662 0b26 745F     		je	L97
 814:thirdparty/stb_image.c ****       STBI_ASSERT(ri.bits_per_channel == 8);
 1663              		.loc 1 814 7
 1664 0b28 8B45E4   		movl	-28(%ebp), %eax
 1665 0b2b 83F808   		cmpl	$8, %eax
 1666 0b2e 741C     		je	L100
 1667              		.loc 1 814 7 is_stmt 0 discriminator 2
 1668 0b30 C7442408 		movl	$814, 8(%esp)
 1668      2E030000 
 1669 0b38 C7442404 		movl	$LC2, 4(%esp)
 1669      1C000000 
 1670 0b40 C704244D 		movl	$LC4, (%esp)
 1670      000000
 1671 0b47 E8000000 		call	__assert
 1671      00
 1672              	L100:
 815:thirdparty/stb_image.c ****       result = stbi__convert_8_to_16((stbi_uc *) result, *x, *y, req_comp == 0 ? *comp : req_comp);
 1673              		.loc 1 815 16 is_stmt 1
 1674 0b4c 837D1800 		cmpl	$0, 24(%ebp)
 1675 0b50 7507     		jne	L101
 1676              		.loc 1 815 16 is_stmt 0 discriminator 1
 1677 0b52 8B4514   		movl	20(%ebp), %eax
 1678 0b55 8B00     		movl	(%eax), %eax
 1679 0b57 EB03     		jmp	L102
 1680              	L101:
 1681              		.loc 1 815 16 discriminator 2
 1682 0b59 8B4518   		movl	24(%ebp), %eax
 1683              	L102:
 1684              		.loc 1 815 16 discriminator 4
 1685 0b5c 8B5510   		movl	16(%ebp), %edx
 1686 0b5f 8B0A     		movl	(%edx), %ecx
 1687 0b61 8B550C   		movl	12(%ebp), %edx
 1688 0b64 8B12     		movl	(%edx), %edx
 1689 0b66 8944240C 		movl	%eax, 12(%esp)
 1690 0b6a 894C2408 		movl	%ecx, 8(%esp)
 1691 0b6e 89542404 		movl	%edx, 4(%esp)
 1692 0b72 8B45F4   		movl	-12(%ebp), %eax
 1693 0b75 890424   		movl	%eax, (%esp)
 1694 0b78 E851FCFF 		call	_stbi__convert_8_to_16
 1694      FF
 1695 0b7d 8945F4   		movl	%eax, -12(%ebp)
 816:thirdparty/stb_image.c ****       ri.bits_per_channel = 16;
 1696              		.loc 1 816 27 is_stmt 1 discriminator 4
 1697 0b80 C745E410 		movl	$16, -28(%ebp)
 1697      000000
 1698              	L97:
 817:thirdparty/stb_image.c ****    }
 818:thirdparty/stb_image.c **** 
 819:thirdparty/stb_image.c ****    // @TODO: move stbi__convert_format16 to here
 820:thirdparty/stb_image.c ****    // @TODO: special case RGB-to-Y (and RGBA-to-YA) for 8-bit-to-16-bit case to keep more precision
 821:thirdparty/stb_image.c **** 
 822:thirdparty/stb_image.c ****    if (stbi__vertically_flip_on_load) {
GAS LISTING C:\Users\jisu8\AppData\Local\Temp\ccTSXm7f.s 			page 48


 1699              		.loc 1 822 8
 1700 0b87 C70424A4 		movl	$___emutls_v.stbi__vertically_flip_on_load_set, (%esp)
 1700      000000
 1701 0b8e E8000000 		call	___emutls_get_address
 1701      00
 1702 0b93 8B00     		movl	(%eax), %eax
 1703 0b95 85C0     		testl	%eax, %eax
 1704 0b97 7415     		je	L103
 1705              		.loc 1 822 8 is_stmt 0 discriminator 1
 1706 0b99 C70424B4 		movl	$___emutls_v.stbi__vertically_flip_on_load_local, (%esp)
 1706      000000
 1707 0ba0 E8000000 		call	___emutls_get_address
 1707      00
 1708 0ba5 8B00     		movl	(%eax), %eax
 1709 0ba7 85C0     		testl	%eax, %eax
 1710 0ba9 0F95C0   		setne	%al
 1711 0bac EB0A     		jmp	L104
 1712              	L103:
 1713              		.loc 1 822 8 discriminator 2
 1714 0bae A1000000 		movl	_stbi__vertically_flip_on_load_global, %eax
 1714      00
 1715 0bb3 85C0     		testl	%eax, %eax
 1716 0bb5 0F95C0   		setne	%al
 1717              	L104:
 1718              		.loc 1 822 7 is_stmt 1 discriminator 4
 1719 0bb8 84C0     		testb	%al, %al
 1720 0bba 743B     		je	L105
 1721              	LBB6:
 823:thirdparty/stb_image.c ****       int channels = req_comp ? req_comp : *comp;
 1722              		.loc 1 823 42
 1723 0bbc 837D1800 		cmpl	$0, 24(%ebp)
 1724 0bc0 7507     		jne	L106
 1725              		.loc 1 823 42 is_stmt 0 discriminator 1
 1726 0bc2 8B4514   		movl	20(%ebp), %eax
 1727 0bc5 8B00     		movl	(%eax), %eax
 1728 0bc7 EB03     		jmp	L107
 1729              	L106:
 1730              		.loc 1 823 42 discriminator 2
 1731 0bc9 8B4518   		movl	24(%ebp), %eax
 1732              	L107:
 1733              		.loc 1 823 11 is_stmt 1 discriminator 4
 1734 0bcc 8945F0   		movl	%eax, -16(%ebp)
 824:thirdparty/stb_image.c ****       stbi__vertical_flip(result, *x, *y, channels * sizeof(stbi__uint16));
 1735              		.loc 1 824 52 discriminator 4
 1736 0bcf 8B45F0   		movl	-16(%ebp), %eax
 1737 0bd2 01C0     		addl	%eax, %eax
 1738              		.loc 1 824 7 discriminator 4
 1739 0bd4 89C1     		movl	%eax, %ecx
 1740 0bd6 8B4510   		movl	16(%ebp), %eax
 1741 0bd9 8B10     		movl	(%eax), %edx
 1742 0bdb 8B450C   		movl	12(%ebp), %eax
 1743 0bde 8B00     		movl	(%eax), %eax
 1744 0be0 894C240C 		movl	%ecx, 12(%esp)
 1745 0be4 89542408 		movl	%edx, 8(%esp)
 1746 0be8 89442404 		movl	%eax, 4(%esp)
 1747 0bec 8B45F4   		movl	-12(%ebp), %eax
 1748 0bef 890424   		movl	%eax, (%esp)
GAS LISTING C:\Users\jisu8\AppData\Local\Temp\ccTSXm7f.s 			page 49


 1749 0bf2 E871FCFF 		call	_stbi__vertical_flip
 1749      FF
 1750              	L105:
 1751              	LBE6:
 825:thirdparty/stb_image.c ****    }
 826:thirdparty/stb_image.c **** 
 827:thirdparty/stb_image.c ****    return (stbi__uint16 *) result;
 1752              		.loc 1 827 11
 1753 0bf7 8B45F4   		movl	-12(%ebp), %eax
 1754              	L108:
 828:thirdparty/stb_image.c **** }
 1755              		.loc 1 828 1 discriminator 1
 1756 0bfa C9       		leave
 1757              	LCFI83:
 1758              		.cfi_restore 5
 1759              		.cfi_def_cfa 4, 4
 1760 0bfb C3       		ret
 1761              		.cfi_endproc
 1762              	LFE44:
 1764              	_stbi__float_postprocess:
 1765              	LFB45:
 829:thirdparty/stb_image.c **** 
 830:thirdparty/stb_image.c **** #if !defined(STBI_NO_HDR) && !defined(STBI_NO_LINEAR)
 831:thirdparty/stb_image.c **** static void stbi__float_postprocess(float *result, int *x, int *y, int *comp, int req_comp)
 832:thirdparty/stb_image.c **** {
 1766              		.loc 1 832 1
 1767              		.cfi_startproc
 1768 0bfc 55       		pushl	%ebp
 1769              	LCFI84:
 1770              		.cfi_def_cfa_offset 8
 1771              		.cfi_offset 5, -8
 1772 0bfd 89E5     		movl	%esp, %ebp
 1773              	LCFI85:
 1774              		.cfi_def_cfa_register 5
 1775 0bff 83EC28   		subl	$40, %esp
 833:thirdparty/stb_image.c ****    if (stbi__vertically_flip_on_load && result != NULL) {
 1776              		.loc 1 833 8
 1777 0c02 C70424A4 		movl	$___emutls_v.stbi__vertically_flip_on_load_set, (%esp)
 1777      000000
 1778 0c09 E8000000 		call	___emutls_get_address
 1778      00
 1779 0c0e 8B00     		movl	(%eax), %eax
 1780              		.loc 1 833 38
 1781 0c10 85C0     		testl	%eax, %eax
 1782 0c12 7415     		je	L110
 1783              		.loc 1 833 38 is_stmt 0 discriminator 1
 1784 0c14 C70424B4 		movl	$___emutls_v.stbi__vertically_flip_on_load_local, (%esp)
 1784      000000
 1785 0c1b E8000000 		call	___emutls_get_address
 1785      00
 1786 0c20 8B00     		movl	(%eax), %eax
 1787 0c22 85C0     		testl	%eax, %eax
 1788 0c24 0F95C0   		setne	%al
 1789 0c27 EB0A     		jmp	L111
 1790              	L110:
 1791              		.loc 1 833 38 discriminator 2
 1792 0c29 A1000000 		movl	_stbi__vertically_flip_on_load_global, %eax
GAS LISTING C:\Users\jisu8\AppData\Local\Temp\ccTSXm7f.s 			page 50


 1792      00
 1793 0c2e 85C0     		testl	%eax, %eax
 1794 0c30 0F95C0   		setne	%al
 1795              	L111:
 1796              		.loc 1 833 7 is_stmt 1 discriminator 4
 1797 0c33 84C0     		testb	%al, %al
 1798 0c35 7442     		je	L115
 1799              		.loc 1 833 38 discriminator 5
 1800 0c37 837D0800 		cmpl	$0, 8(%ebp)
 1801 0c3b 743C     		je	L115
 1802              	LBB7:
 834:thirdparty/stb_image.c ****       int channels = req_comp ? req_comp : *comp;
 1803              		.loc 1 834 42
 1804 0c3d 837D1800 		cmpl	$0, 24(%ebp)
 1805 0c41 7507     		jne	L113
 1806              		.loc 1 834 42 is_stmt 0 discriminator 1
 1807 0c43 8B4514   		movl	20(%ebp), %eax
 1808 0c46 8B00     		movl	(%eax), %eax
 1809 0c48 EB03     		jmp	L114
 1810              	L113:
 1811              		.loc 1 834 42 discriminator 2
 1812 0c4a 8B4518   		movl	24(%ebp), %eax
 1813              	L114:
 1814              		.loc 1 834 11 is_stmt 1 discriminator 4
 1815 0c4d 8945F4   		movl	%eax, -12(%ebp)
 835:thirdparty/stb_image.c ****       stbi__vertical_flip(result, *x, *y, channels * sizeof(float));
 1816              		.loc 1 835 52 discriminator 4
 1817 0c50 8B45F4   		movl	-12(%ebp), %eax
 1818 0c53 C1E002   		sall	$2, %eax
 1819              		.loc 1 835 7 discriminator 4
 1820 0c56 89C1     		movl	%eax, %ecx
 1821 0c58 8B4510   		movl	16(%ebp), %eax
 1822 0c5b 8B10     		movl	(%eax), %edx
 1823 0c5d 8B450C   		movl	12(%ebp), %eax
 1824 0c60 8B00     		movl	(%eax), %eax
 1825 0c62 894C240C 		movl	%ecx, 12(%esp)
 1826 0c66 89542408 		movl	%edx, 8(%esp)
 1827 0c6a 89442404 		movl	%eax, 4(%esp)
 1828 0c6e 8B4508   		movl	8(%ebp), %eax
 1829 0c71 890424   		movl	%eax, (%esp)
 1830 0c74 E8EFFBFF 		call	_stbi__vertical_flip
 1830      FF
 1831              	L115:
 1832              	LBE7:
 836:thirdparty/stb_image.c ****    }
 837:thirdparty/stb_image.c **** }
 1833              		.loc 1 837 1
 1834 0c79 90       		nop
 1835 0c7a C9       		leave
 1836              	LCFI86:
 1837              		.cfi_restore 5
 1838              		.cfi_def_cfa 4, 4
 1839 0c7b C3       		ret
 1840              		.cfi_endproc
 1841              	LFE45:
 1843              	_stbi__fopen:
 1844              	LFB46:
GAS LISTING C:\Users\jisu8\AppData\Local\Temp\ccTSXm7f.s 			page 51


 838:thirdparty/stb_image.c **** #endif
 839:thirdparty/stb_image.c **** 
 840:thirdparty/stb_image.c **** #ifndef STBI_NO_STDIO
 841:thirdparty/stb_image.c **** 
 842:thirdparty/stb_image.c **** #if defined(_MSC_VER) && defined(STBI_WINDOWS_UTF8)
 843:thirdparty/stb_image.c **** STBI_EXTERN __declspec(dllimport) int __stdcall MultiByteToWideChar(unsigned int cp, unsigned long 
 844:thirdparty/stb_image.c **** STBI_EXTERN __declspec(dllimport) int __stdcall WideCharToMultiByte(unsigned int cp, unsigned long 
 845:thirdparty/stb_image.c **** #endif
 846:thirdparty/stb_image.c **** 
 847:thirdparty/stb_image.c **** #if defined(_MSC_VER) && defined(STBI_WINDOWS_UTF8)
 848:thirdparty/stb_image.c **** STBIDEF int stbi_convert_wchar_to_utf8(char *buffer, size_t bufferlen, const wchar_t* input)
 849:thirdparty/stb_image.c **** {
 850:thirdparty/stb_image.c **** 	return WideCharToMultiByte(65001 /* UTF8 */, 0, input, -1, buffer, (int) bufferlen, NULL, NULL);
 851:thirdparty/stb_image.c **** }
 852:thirdparty/stb_image.c **** #endif
 853:thirdparty/stb_image.c **** 
 854:thirdparty/stb_image.c **** static FILE *stbi__fopen(char const *filename, char const *mode)
 855:thirdparty/stb_image.c **** {
 1845              		.loc 1 855 1
 1846              		.cfi_startproc
 1847 0c7c 55       		pushl	%ebp
 1848              	LCFI87:
 1849              		.cfi_def_cfa_offset 8
 1850              		.cfi_offset 5, -8
 1851 0c7d 89E5     		movl	%esp, %ebp
 1852              	LCFI88:
 1853              		.cfi_def_cfa_register 5
 1854 0c7f 83EC28   		subl	$40, %esp
 856:thirdparty/stb_image.c ****    FILE *f;
 857:thirdparty/stb_image.c **** #if defined(_MSC_VER) && defined(STBI_WINDOWS_UTF8)
 858:thirdparty/stb_image.c ****    wchar_t wMode[64];
 859:thirdparty/stb_image.c ****    wchar_t wFilename[1024];
 860:thirdparty/stb_image.c **** 	if (0 == MultiByteToWideChar(65001 /* UTF8 */, 0, filename, -1, wFilename, sizeof(wFilename)))
 861:thirdparty/stb_image.c ****       return 0;
 862:thirdparty/stb_image.c **** 
 863:thirdparty/stb_image.c **** 	if (0 == MultiByteToWideChar(65001 /* UTF8 */, 0, mode, -1, wMode, sizeof(wMode)))
 864:thirdparty/stb_image.c ****       return 0;
 865:thirdparty/stb_image.c **** 
 866:thirdparty/stb_image.c **** #if _MSC_VER >= 1400
 867:thirdparty/stb_image.c **** 	if (0 != _wfopen_s(&f, wFilename, wMode))
 868:thirdparty/stb_image.c **** 		f = 0;
 869:thirdparty/stb_image.c **** #else
 870:thirdparty/stb_image.c ****    f = _wfopen(wFilename, wMode);
 871:thirdparty/stb_image.c **** #endif
 872:thirdparty/stb_image.c **** 
 873:thirdparty/stb_image.c **** #elif defined(_MSC_VER) && _MSC_VER >= 1400
 874:thirdparty/stb_image.c ****    if (0 != fopen_s(&f, filename, mode))
 875:thirdparty/stb_image.c ****       f=0;
 876:thirdparty/stb_image.c **** #else
 877:thirdparty/stb_image.c ****    f = fopen(filename, mode);
 1855              		.loc 1 877 8
 1856 0c82 8B450C   		movl	12(%ebp), %eax
 1857 0c85 89442404 		movl	%eax, 4(%esp)
 1858 0c89 8B4508   		movl	8(%ebp), %eax
 1859 0c8c 890424   		movl	%eax, (%esp)
 1860 0c8f E8000000 		call	_fopen
 1860      00
GAS LISTING C:\Users\jisu8\AppData\Local\Temp\ccTSXm7f.s 			page 52


 1861 0c94 8945F4   		movl	%eax, -12(%ebp)
 878:thirdparty/stb_image.c **** #endif
 879:thirdparty/stb_image.c ****    return f;
 1862              		.loc 1 879 11
 1863 0c97 8B45F4   		movl	-12(%ebp), %eax
 880:thirdparty/stb_image.c **** }
 1864              		.loc 1 880 1
 1865 0c9a C9       		leave
 1866              	LCFI89:
 1867              		.cfi_restore 5
 1868              		.cfi_def_cfa 4, 4
 1869 0c9b C3       		ret
 1870              		.cfi_endproc
 1871              	LFE46:
 1872              		.section .rdata,"dr"
 1873              	LC5:
 1874 0066 726200   		.ascii "rb\0"
 1875              	LC6:
 1876 0069 63616E27 		.ascii "can't fopen\0"
 1876      7420666F 
 1876      70656E00 
 1877              		.text
 1878              		.globl	_stbi_load
 1880              	_stbi_load:
 1881              	LFB47:
 881:thirdparty/stb_image.c **** 
 882:thirdparty/stb_image.c **** 
 883:thirdparty/stb_image.c **** STBIDEF stbi_uc *stbi_load(char const *filename, int *x, int *y, int *comp, int req_comp)
 884:thirdparty/stb_image.c **** {
 1882              		.loc 1 884 1
 1883              		.cfi_startproc
 1884 0c9c 55       		pushl	%ebp
 1885              	LCFI90:
 1886              		.cfi_def_cfa_offset 8
 1887              		.cfi_offset 5, -8
 1888 0c9d 89E5     		movl	%esp, %ebp
 1889              	LCFI91:
 1890              		.cfi_def_cfa_register 5
 1891 0c9f 83EC38   		subl	$56, %esp
 885:thirdparty/stb_image.c ****    FILE *f = stbi__fopen(filename, "rb");
 1892              		.loc 1 885 14
 1893 0ca2 C7442404 		movl	$LC5, 4(%esp)
 1893      66000000 
 1894 0caa 8B4508   		movl	8(%ebp), %eax
 1895 0cad 890424   		movl	%eax, (%esp)
 1896 0cb0 E8C7FFFF 		call	_stbi__fopen
 1896      FF
 1897 0cb5 8945F4   		movl	%eax, -12(%ebp)
 886:thirdparty/stb_image.c ****    unsigned char *result;
 887:thirdparty/stb_image.c ****    if (!f) return stbi__errpuc("can't fopen", "Unable to open file");
 1898              		.loc 1 887 7
 1899 0cb8 837DF400 		cmpl	$0, -12(%ebp)
 1900 0cbc 7513     		jne	L119
 1901              		.loc 1 887 19 discriminator 1
 1902 0cbe C7042469 		movl	$LC6, (%esp)
 1902      000000
 1903 0cc5 E8BCF4FF 		call	_stbi__err
GAS LISTING C:\Users\jisu8\AppData\Local\Temp\ccTSXm7f.s 			page 53


 1903      FF
 1904 0cca B8000000 		movl	$0, %eax
 1904      00
 1905 0ccf EB38     		jmp	L120
 1906              	L119:
 888:thirdparty/stb_image.c ****    result = stbi_load_from_file(f,x,y,comp,req_comp);
 1907              		.loc 1 888 13
 1908 0cd1 8B4518   		movl	24(%ebp), %eax
 1909 0cd4 89442410 		movl	%eax, 16(%esp)
 1910 0cd8 8B4514   		movl	20(%ebp), %eax
 1911 0cdb 8944240C 		movl	%eax, 12(%esp)
 1912 0cdf 8B4510   		movl	16(%ebp), %eax
 1913 0ce2 89442408 		movl	%eax, 8(%esp)
 1914 0ce6 8B450C   		movl	12(%ebp), %eax
 1915 0ce9 89442404 		movl	%eax, 4(%esp)
 1916 0ced 8B45F4   		movl	-12(%ebp), %eax
 1917 0cf0 890424   		movl	%eax, (%esp)
 1918 0cf3 E8130000 		call	_stbi_load_from_file
 1918      00
 1919 0cf8 8945F0   		movl	%eax, -16(%ebp)
 889:thirdparty/stb_image.c ****    fclose(f);
 1920              		.loc 1 889 4
 1921 0cfb 8B45F4   		movl	-12(%ebp), %eax
 1922 0cfe 890424   		movl	%eax, (%esp)
 1923 0d01 E8000000 		call	_fclose
 1923      00
 890:thirdparty/stb_image.c ****    return result;
 1924              		.loc 1 890 11
 1925 0d06 8B45F0   		movl	-16(%ebp), %eax
 1926              	L120:
 891:thirdparty/stb_image.c **** }
 1927              		.loc 1 891 1
 1928 0d09 C9       		leave
 1929              	LCFI92:
 1930              		.cfi_restore 5
 1931              		.cfi_def_cfa 4, 4
 1932 0d0a C3       		ret
 1933              		.cfi_endproc
 1934              	LFE47:
 1935              		.globl	_stbi_load_from_file
 1937              	_stbi_load_from_file:
 1938              	LFB48:
 892:thirdparty/stb_image.c **** 
 893:thirdparty/stb_image.c **** STBIDEF stbi_uc *stbi_load_from_file(FILE *f, int *x, int *y, int *comp, int req_comp)
 894:thirdparty/stb_image.c **** {
 1939              		.loc 1 894 1
 1940              		.cfi_startproc
 1941 0d0b 55       		pushl	%ebp
 1942              	LCFI93:
 1943              		.cfi_def_cfa_offset 8
 1944              		.cfi_offset 5, -8
 1945 0d0c 89E5     		movl	%esp, %ebp
 1946              	LCFI94:
 1947              		.cfi_def_cfa_register 5
 1948 0d0e 81ECE800 		subl	$232, %esp
 1948      0000
 895:thirdparty/stb_image.c ****    unsigned char *result;
GAS LISTING C:\Users\jisu8\AppData\Local\Temp\ccTSXm7f.s 			page 54


 896:thirdparty/stb_image.c ****    stbi__context s;
 897:thirdparty/stb_image.c ****    stbi__start_file(&s,f);
 1949              		.loc 1 897 4
 1950 0d14 8B4508   		movl	8(%ebp), %eax
 1951 0d17 89442404 		movl	%eax, 4(%esp)
 1952 0d1b 8D853CFF 		leal	-196(%ebp), %eax
 1952      FFFF
 1953 0d21 890424   		movl	%eax, (%esp)
 1954 0d24 E8FAF3FF 		call	_stbi__start_file
 1954      FF
 898:thirdparty/stb_image.c ****    result = stbi__load_and_postprocess_8bit(&s,x,y,comp,req_comp);
 1955              		.loc 1 898 13
 1956 0d29 8B4518   		movl	24(%ebp), %eax
 1957 0d2c 89442410 		movl	%eax, 16(%esp)
 1958 0d30 8B4514   		movl	20(%ebp), %eax
 1959 0d33 8944240C 		movl	%eax, 12(%esp)
 1960 0d37 8B4510   		movl	16(%ebp), %eax
 1961 0d3a 89442408 		movl	%eax, 8(%esp)
 1962 0d3e 8B450C   		movl	12(%ebp), %eax
 1963 0d41 89442404 		movl	%eax, 4(%esp)
 1964 0d45 8D853CFF 		leal	-196(%ebp), %eax
 1964      FFFF
 1965 0d4b 890424   		movl	%eax, (%esp)
 1966 0d4e E857FCFF 		call	_stbi__load_and_postprocess_8bit
 1966      FF
 1967 0d53 8945F4   		movl	%eax, -12(%ebp)
 899:thirdparty/stb_image.c ****    if (result) {
 1968              		.loc 1 899 7
 1969 0d56 837DF400 		cmpl	$0, -12(%ebp)
 1970 0d5a 7421     		je	L122
 900:thirdparty/stb_image.c ****       // need to 'unget' all the characters in the IO buffer
 901:thirdparty/stb_image.c ****       fseek(f, - (int) (s.img_buffer_end - s.img_buffer), SEEK_CUR);
 1971              		.loc 1 901 45
 1972 0d5c 8B55E4   		movl	-28(%ebp), %edx
 1973              		.loc 1 901 26
 1974 0d5f 8B45E8   		movl	-24(%ebp), %eax
 1975              		.loc 1 901 16
 1976 0d62 29C2     		subl	%eax, %edx
 1977 0d64 89D0     		movl	%edx, %eax
 1978              		.loc 1 901 7
 1979 0d66 C7442408 		movl	$1, 8(%esp)
 1979      01000000 
 1980 0d6e 89442404 		movl	%eax, 4(%esp)
 1981 0d72 8B4508   		movl	8(%ebp), %eax
 1982 0d75 890424   		movl	%eax, (%esp)
 1983 0d78 E8000000 		call	_fseek
 1983      00
 1984              	L122:
 902:thirdparty/stb_image.c ****    }
 903:thirdparty/stb_image.c ****    return result;
 1985              		.loc 1 903 11
 1986 0d7d 8B45F4   		movl	-12(%ebp), %eax
 904:thirdparty/stb_image.c **** }
 1987              		.loc 1 904 1
 1988 0d80 C9       		leave
 1989              	LCFI95:
 1990              		.cfi_restore 5
GAS LISTING C:\Users\jisu8\AppData\Local\Temp\ccTSXm7f.s 			page 55


 1991              		.cfi_def_cfa 4, 4
 1992 0d81 C3       		ret
 1993              		.cfi_endproc
 1994              	LFE48:
 1995              		.globl	_stbi_load_from_file_16
 1997              	_stbi_load_from_file_16:
 1998              	LFB49:
 905:thirdparty/stb_image.c **** 
 906:thirdparty/stb_image.c **** STBIDEF stbi__uint16 *stbi_load_from_file_16(FILE *f, int *x, int *y, int *comp, int req_comp)
 907:thirdparty/stb_image.c **** {
 1999              		.loc 1 907 1
 2000              		.cfi_startproc
 2001 0d82 55       		pushl	%ebp
 2002              	LCFI96:
 2003              		.cfi_def_cfa_offset 8
 2004              		.cfi_offset 5, -8
 2005 0d83 89E5     		movl	%esp, %ebp
 2006              	LCFI97:
 2007              		.cfi_def_cfa_register 5
 2008 0d85 81ECE800 		subl	$232, %esp
 2008      0000
 908:thirdparty/stb_image.c ****    stbi__uint16 *result;
 909:thirdparty/stb_image.c ****    stbi__context s;
 910:thirdparty/stb_image.c ****    stbi__start_file(&s,f);
 2009              		.loc 1 910 4
 2010 0d8b 8B4508   		movl	8(%ebp), %eax
 2011 0d8e 89442404 		movl	%eax, 4(%esp)
 2012 0d92 8D853CFF 		leal	-196(%ebp), %eax
 2012      FFFF
 2013 0d98 890424   		movl	%eax, (%esp)
 2014 0d9b E883F3FF 		call	_stbi__start_file
 2014      FF
 911:thirdparty/stb_image.c ****    result = stbi__load_and_postprocess_16bit(&s,x,y,comp,req_comp);
 2015              		.loc 1 911 13
 2016 0da0 8B4518   		movl	24(%ebp), %eax
 2017 0da3 89442410 		movl	%eax, 16(%esp)
 2018 0da7 8B4514   		movl	20(%ebp), %eax
 2019 0daa 8944240C 		movl	%eax, 12(%esp)
 2020 0dae 8B4510   		movl	16(%ebp), %eax
 2021 0db1 89442408 		movl	%eax, 8(%esp)
 2022 0db5 8B450C   		movl	12(%ebp), %eax
 2023 0db8 89442404 		movl	%eax, 4(%esp)
 2024 0dbc 8D853CFF 		leal	-196(%ebp), %eax
 2024      FFFF
 2025 0dc2 890424   		movl	%eax, (%esp)
 2026 0dc5 E807FDFF 		call	_stbi__load_and_postprocess_16bit
 2026      FF
 2027 0dca 8945F4   		movl	%eax, -12(%ebp)
 912:thirdparty/stb_image.c ****    if (result) {
 2028              		.loc 1 912 7
 2029 0dcd 837DF400 		cmpl	$0, -12(%ebp)
 2030 0dd1 7421     		je	L125
 913:thirdparty/stb_image.c ****       // need to 'unget' all the characters in the IO buffer
 914:thirdparty/stb_image.c ****       fseek(f, - (int) (s.img_buffer_end - s.img_buffer), SEEK_CUR);
 2031              		.loc 1 914 45
 2032 0dd3 8B55E4   		movl	-28(%ebp), %edx
 2033              		.loc 1 914 26
GAS LISTING C:\Users\jisu8\AppData\Local\Temp\ccTSXm7f.s 			page 56


 2034 0dd6 8B45E8   		movl	-24(%ebp), %eax
 2035              		.loc 1 914 16
 2036 0dd9 29C2     		subl	%eax, %edx
 2037 0ddb 89D0     		movl	%edx, %eax
 2038              		.loc 1 914 7
 2039 0ddd C7442408 		movl	$1, 8(%esp)
 2039      01000000 
 2040 0de5 89442404 		movl	%eax, 4(%esp)
 2041 0de9 8B4508   		movl	8(%ebp), %eax
 2042 0dec 890424   		movl	%eax, (%esp)
 2043 0def E8000000 		call	_fseek
 2043      00
 2044              	L125:
 915:thirdparty/stb_image.c ****    }
 916:thirdparty/stb_image.c ****    return result;
 2045              		.loc 1 916 11
 2046 0df4 8B45F4   		movl	-12(%ebp), %eax
 917:thirdparty/stb_image.c **** }
 2047              		.loc 1 917 1
 2048 0df7 C9       		leave
 2049              	LCFI98:
 2050              		.cfi_restore 5
 2051              		.cfi_def_cfa 4, 4
 2052 0df8 C3       		ret
 2053              		.cfi_endproc
 2054              	LFE49:
 2055              		.globl	_stbi_load_16
 2057              	_stbi_load_16:
 2058              	LFB50:
 918:thirdparty/stb_image.c **** 
 919:thirdparty/stb_image.c **** STBIDEF stbi_us *stbi_load_16(char const *filename, int *x, int *y, int *comp, int req_comp)
 920:thirdparty/stb_image.c **** {
 2059              		.loc 1 920 1
 2060              		.cfi_startproc
 2061 0df9 55       		pushl	%ebp
 2062              	LCFI99:
 2063              		.cfi_def_cfa_offset 8
 2064              		.cfi_offset 5, -8
 2065 0dfa 89E5     		movl	%esp, %ebp
 2066              	LCFI100:
 2067              		.cfi_def_cfa_register 5
 2068 0dfc 83EC38   		subl	$56, %esp
 921:thirdparty/stb_image.c ****    FILE *f = stbi__fopen(filename, "rb");
 2069              		.loc 1 921 14
 2070 0dff C7442404 		movl	$LC5, 4(%esp)
 2070      66000000 
 2071 0e07 8B4508   		movl	8(%ebp), %eax
 2072 0e0a 890424   		movl	%eax, (%esp)
 2073 0e0d E86AFEFF 		call	_stbi__fopen
 2073      FF
 2074 0e12 8945F4   		movl	%eax, -12(%ebp)
 922:thirdparty/stb_image.c ****    stbi__uint16 *result;
 923:thirdparty/stb_image.c ****    if (!f) return (stbi_us *) stbi__errpuc("can't fopen", "Unable to open file");
 2075              		.loc 1 923 7
 2076 0e15 837DF400 		cmpl	$0, -12(%ebp)
 2077 0e19 7513     		jne	L128
 2078              		.loc 1 923 31 discriminator 1
GAS LISTING C:\Users\jisu8\AppData\Local\Temp\ccTSXm7f.s 			page 57


 2079 0e1b C7042469 		movl	$LC6, (%esp)
 2079      000000
 2080 0e22 E85FF3FF 		call	_stbi__err
 2080      FF
 2081              		.loc 1 923 19 discriminator 1
 2082 0e27 B8000000 		movl	$0, %eax
 2082      00
 2083 0e2c EB38     		jmp	L129
 2084              	L128:
 924:thirdparty/stb_image.c ****    result = stbi_load_from_file_16(f,x,y,comp,req_comp);
 2085              		.loc 1 924 13
 2086 0e2e 8B4518   		movl	24(%ebp), %eax
 2087 0e31 89442410 		movl	%eax, 16(%esp)
 2088 0e35 8B4514   		movl	20(%ebp), %eax
 2089 0e38 8944240C 		movl	%eax, 12(%esp)
 2090 0e3c 8B4510   		movl	16(%ebp), %eax
 2091 0e3f 89442408 		movl	%eax, 8(%esp)
 2092 0e43 8B450C   		movl	12(%ebp), %eax
 2093 0e46 89442404 		movl	%eax, 4(%esp)
 2094 0e4a 8B45F4   		movl	-12(%ebp), %eax
 2095 0e4d 890424   		movl	%eax, (%esp)
 2096 0e50 E82DFFFF 		call	_stbi_load_from_file_16
 2096      FF
 2097 0e55 8945F0   		movl	%eax, -16(%ebp)
 925:thirdparty/stb_image.c ****    fclose(f);
 2098              		.loc 1 925 4
 2099 0e58 8B45F4   		movl	-12(%ebp), %eax
 2100 0e5b 890424   		movl	%eax, (%esp)
 2101 0e5e E8000000 		call	_fclose
 2101      00
 926:thirdparty/stb_image.c ****    return result;
 2102              		.loc 1 926 11
 2103 0e63 8B45F0   		movl	-16(%ebp), %eax
 2104              	L129:
 927:thirdparty/stb_image.c **** }
 2105              		.loc 1 927 1
 2106 0e66 C9       		leave
 2107              	LCFI101:
 2108              		.cfi_restore 5
 2109              		.cfi_def_cfa 4, 4
 2110 0e67 C3       		ret
 2111              		.cfi_endproc
 2112              	LFE50:
 2113              		.globl	_stbi_load_16_from_memory
 2115              	_stbi_load_16_from_memory:
 2116              	LFB51:
 928:thirdparty/stb_image.c **** 
 929:thirdparty/stb_image.c **** 
 930:thirdparty/stb_image.c **** #endif //!STBI_NO_STDIO
 931:thirdparty/stb_image.c **** 
 932:thirdparty/stb_image.c **** STBIDEF stbi_us *stbi_load_16_from_memory(stbi_uc const *buffer, int len, int *x, int *y, int *chan
 933:thirdparty/stb_image.c **** {
 2117              		.loc 1 933 1
 2118              		.cfi_startproc
 2119 0e68 55       		pushl	%ebp
 2120              	LCFI102:
 2121              		.cfi_def_cfa_offset 8
GAS LISTING C:\Users\jisu8\AppData\Local\Temp\ccTSXm7f.s 			page 58


 2122              		.cfi_offset 5, -8
 2123 0e69 89E5     		movl	%esp, %ebp
 2124              	LCFI103:
 2125              		.cfi_def_cfa_register 5
 2126 0e6b 81ECE800 		subl	$232, %esp
 2126      0000
 934:thirdparty/stb_image.c ****    stbi__context s;
 935:thirdparty/stb_image.c ****    stbi__start_mem(&s,buffer,len);
 2127              		.loc 1 935 4
 2128 0e71 8B450C   		movl	12(%ebp), %eax
 2129 0e74 89442408 		movl	%eax, 8(%esp)
 2130 0e78 8B4508   		movl	8(%ebp), %eax
 2131 0e7b 89442404 		movl	%eax, 4(%esp)
 2132 0e7f 8D8540FF 		leal	-192(%ebp), %eax
 2132      FFFF
 2133 0e85 890424   		movl	%eax, (%esp)
 2134 0e88 E873F1FF 		call	_stbi__start_mem
 2134      FF
 936:thirdparty/stb_image.c ****    return stbi__load_and_postprocess_16bit(&s,x,y,channels_in_file,desired_channels);
 2135              		.loc 1 936 11
 2136 0e8d 8B451C   		movl	28(%ebp), %eax
 2137 0e90 89442410 		movl	%eax, 16(%esp)
 2138 0e94 8B4518   		movl	24(%ebp), %eax
 2139 0e97 8944240C 		movl	%eax, 12(%esp)
 2140 0e9b 8B4514   		movl	20(%ebp), %eax
 2141 0e9e 89442408 		movl	%eax, 8(%esp)
 2142 0ea2 8B4510   		movl	16(%ebp), %eax
 2143 0ea5 89442404 		movl	%eax, 4(%esp)
 2144 0ea9 8D8540FF 		leal	-192(%ebp), %eax
 2144      FFFF
 2145 0eaf 890424   		movl	%eax, (%esp)
 2146 0eb2 E81AFCFF 		call	_stbi__load_and_postprocess_16bit
 2146      FF
 937:thirdparty/stb_image.c **** }
 2147              		.loc 1 937 1
 2148 0eb7 C9       		leave
 2149              	LCFI104:
 2150              		.cfi_restore 5
 2151              		.cfi_def_cfa 4, 4
 2152 0eb8 C3       		ret
 2153              		.cfi_endproc
 2154              	LFE51:
 2155              		.globl	_stbi_load_16_from_callbacks
 2157              	_stbi_load_16_from_callbacks:
 2158              	LFB52:
 938:thirdparty/stb_image.c **** 
 939:thirdparty/stb_image.c **** STBIDEF stbi_us *stbi_load_16_from_callbacks(stbi_io_callbacks const *clbk, void *user, int *x, int
 940:thirdparty/stb_image.c **** {
 2159              		.loc 1 940 1
 2160              		.cfi_startproc
 2161 0eb9 55       		pushl	%ebp
 2162              	LCFI105:
 2163              		.cfi_def_cfa_offset 8
 2164              		.cfi_offset 5, -8
 2165 0eba 89E5     		movl	%esp, %ebp
 2166              	LCFI106:
 2167              		.cfi_def_cfa_register 5
GAS LISTING C:\Users\jisu8\AppData\Local\Temp\ccTSXm7f.s 			page 59


 2168 0ebc 81ECE800 		subl	$232, %esp
 2168      0000
 941:thirdparty/stb_image.c ****    stbi__context s;
 942:thirdparty/stb_image.c ****    stbi__start_callbacks(&s, (stbi_io_callbacks *)clbk, user);
 2169              		.loc 1 942 4
 2170 0ec2 8B450C   		movl	12(%ebp), %eax
 2171 0ec5 89442408 		movl	%eax, 8(%esp)
 2172 0ec9 8B4508   		movl	8(%ebp), %eax
 2173 0ecc 89442404 		movl	%eax, 4(%esp)
 2174 0ed0 8D8540FF 		leal	-192(%ebp), %eax
 2174      FFFF
 2175 0ed6 890424   		movl	%eax, (%esp)
 2176 0ed9 E87DF1FF 		call	_stbi__start_callbacks
 2176      FF
 943:thirdparty/stb_image.c ****    return stbi__load_and_postprocess_16bit(&s,x,y,channels_in_file,desired_channels);
 2177              		.loc 1 943 11
 2178 0ede 8B451C   		movl	28(%ebp), %eax
 2179 0ee1 89442410 		movl	%eax, 16(%esp)
 2180 0ee5 8B4518   		movl	24(%ebp), %eax
 2181 0ee8 8944240C 		movl	%eax, 12(%esp)
 2182 0eec 8B4514   		movl	20(%ebp), %eax
 2183 0eef 89442408 		movl	%eax, 8(%esp)
 2184 0ef3 8B4510   		movl	16(%ebp), %eax
 2185 0ef6 89442404 		movl	%eax, 4(%esp)
 2186 0efa 8D8540FF 		leal	-192(%ebp), %eax
 2186      FFFF
 2187 0f00 890424   		movl	%eax, (%esp)
 2188 0f03 E8C9FBFF 		call	_stbi__load_and_postprocess_16bit
 2188      FF
 944:thirdparty/stb_image.c **** }
 2189              		.loc 1 944 1
 2190 0f08 C9       		leave
 2191              	LCFI107:
 2192              		.cfi_restore 5
 2193              		.cfi_def_cfa 4, 4
 2194 0f09 C3       		ret
 2195              		.cfi_endproc
 2196              	LFE52:
 2197              		.globl	_stbi_load_from_memory
 2199              	_stbi_load_from_memory:
 2200              	LFB53:
 945:thirdparty/stb_image.c **** 
 946:thirdparty/stb_image.c **** STBIDEF stbi_uc *stbi_load_from_memory(stbi_uc const *buffer, int len, int *x, int *y, int *comp, i
 947:thirdparty/stb_image.c **** {
 2201              		.loc 1 947 1
 2202              		.cfi_startproc
 2203 0f0a 55       		pushl	%ebp
 2204              	LCFI108:
 2205              		.cfi_def_cfa_offset 8
 2206              		.cfi_offset 5, -8
 2207 0f0b 89E5     		movl	%esp, %ebp
 2208              	LCFI109:
 2209              		.cfi_def_cfa_register 5
 2210 0f0d 81ECE800 		subl	$232, %esp
 2210      0000
 948:thirdparty/stb_image.c ****    stbi__context s;
 949:thirdparty/stb_image.c ****    stbi__start_mem(&s,buffer,len);
GAS LISTING C:\Users\jisu8\AppData\Local\Temp\ccTSXm7f.s 			page 60


 2211              		.loc 1 949 4
 2212 0f13 8B450C   		movl	12(%ebp), %eax
 2213 0f16 89442408 		movl	%eax, 8(%esp)
 2214 0f1a 8B4508   		movl	8(%ebp), %eax
 2215 0f1d 89442404 		movl	%eax, 4(%esp)
 2216 0f21 8D8540FF 		leal	-192(%ebp), %eax
 2216      FFFF
 2217 0f27 890424   		movl	%eax, (%esp)
 2218 0f2a E8D1F0FF 		call	_stbi__start_mem
 2218      FF
 950:thirdparty/stb_image.c ****    return stbi__load_and_postprocess_8bit(&s,x,y,comp,req_comp);
 2219              		.loc 1 950 11
 2220 0f2f 8B451C   		movl	28(%ebp), %eax
 2221 0f32 89442410 		movl	%eax, 16(%esp)
 2222 0f36 8B4518   		movl	24(%ebp), %eax
 2223 0f39 8944240C 		movl	%eax, 12(%esp)
 2224 0f3d 8B4514   		movl	20(%ebp), %eax
 2225 0f40 89442408 		movl	%eax, 8(%esp)
 2226 0f44 8B4510   		movl	16(%ebp), %eax
 2227 0f47 89442404 		movl	%eax, 4(%esp)
 2228 0f4b 8D8540FF 		leal	-192(%ebp), %eax
 2228      FFFF
 2229 0f51 890424   		movl	%eax, (%esp)
 2230 0f54 E851FAFF 		call	_stbi__load_and_postprocess_8bit
 2230      FF
 951:thirdparty/stb_image.c **** }
 2231              		.loc 1 951 1
 2232 0f59 C9       		leave
 2233              	LCFI110:
 2234              		.cfi_restore 5
 2235              		.cfi_def_cfa 4, 4
 2236 0f5a C3       		ret
 2237              		.cfi_endproc
 2238              	LFE53:
 2239              		.globl	_stbi_load_from_callbacks
 2241              	_stbi_load_from_callbacks:
 2242              	LFB54:
 952:thirdparty/stb_image.c **** 
 953:thirdparty/stb_image.c **** STBIDEF stbi_uc *stbi_load_from_callbacks(stbi_io_callbacks const *clbk, void *user, int *x, int *y
 954:thirdparty/stb_image.c **** {
 2243              		.loc 1 954 1
 2244              		.cfi_startproc
 2245 0f5b 55       		pushl	%ebp
 2246              	LCFI111:
 2247              		.cfi_def_cfa_offset 8
 2248              		.cfi_offset 5, -8
 2249 0f5c 89E5     		movl	%esp, %ebp
 2250              	LCFI112:
 2251              		.cfi_def_cfa_register 5
 2252 0f5e 81ECE800 		subl	$232, %esp
 2252      0000
 955:thirdparty/stb_image.c ****    stbi__context s;
 956:thirdparty/stb_image.c ****    stbi__start_callbacks(&s, (stbi_io_callbacks *) clbk, user);
 2253              		.loc 1 956 4
 2254 0f64 8B450C   		movl	12(%ebp), %eax
 2255 0f67 89442408 		movl	%eax, 8(%esp)
 2256 0f6b 8B4508   		movl	8(%ebp), %eax
GAS LISTING C:\Users\jisu8\AppData\Local\Temp\ccTSXm7f.s 			page 61


 2257 0f6e 89442404 		movl	%eax, 4(%esp)
 2258 0f72 8D8540FF 		leal	-192(%ebp), %eax
 2258      FFFF
 2259 0f78 890424   		movl	%eax, (%esp)
 2260 0f7b E8DBF0FF 		call	_stbi__start_callbacks
 2260      FF
 957:thirdparty/stb_image.c ****    return stbi__load_and_postprocess_8bit(&s,x,y,comp,req_comp);
 2261              		.loc 1 957 11
 2262 0f80 8B451C   		movl	28(%ebp), %eax
 2263 0f83 89442410 		movl	%eax, 16(%esp)
 2264 0f87 8B4518   		movl	24(%ebp), %eax
 2265 0f8a 8944240C 		movl	%eax, 12(%esp)
 2266 0f8e 8B4514   		movl	20(%ebp), %eax
 2267 0f91 89442408 		movl	%eax, 8(%esp)
 2268 0f95 8B4510   		movl	16(%ebp), %eax
 2269 0f98 89442404 		movl	%eax, 4(%esp)
 2270 0f9c 8D8540FF 		leal	-192(%ebp), %eax
 2270      FFFF
 2271 0fa2 890424   		movl	%eax, (%esp)
 2272 0fa5 E800FAFF 		call	_stbi__load_and_postprocess_8bit
 2272      FF
 958:thirdparty/stb_image.c **** }
 2273              		.loc 1 958 1
 2274 0faa C9       		leave
 2275              	LCFI113:
 2276              		.cfi_restore 5
 2277              		.cfi_def_cfa 4, 4
 2278 0fab C3       		ret
 2279              		.cfi_endproc
 2280              	LFE54:
 2281              		.globl	_stbi_load_gif_from_memory
 2283              	_stbi_load_gif_from_memory:
 2284              	LFB55:
 959:thirdparty/stb_image.c **** 
 960:thirdparty/stb_image.c **** #ifndef STBI_NO_GIF
 961:thirdparty/stb_image.c **** STBIDEF stbi_uc *stbi_load_gif_from_memory(stbi_uc const *buffer, int len, int **delays, int *x, in
 962:thirdparty/stb_image.c **** {
 2285              		.loc 1 962 1
 2286              		.cfi_startproc
 2287 0fac 55       		pushl	%ebp
 2288              	LCFI114:
 2289              		.cfi_def_cfa_offset 8
 2290              		.cfi_offset 5, -8
 2291 0fad 89E5     		movl	%esp, %ebp
 2292              	LCFI115:
 2293              		.cfi_def_cfa_register 5
 2294 0faf 53       		pushl	%ebx
 2295 0fb0 81ECE400 		subl	$228, %esp
 2295      0000
 2296              		.cfi_offset 3, -12
 963:thirdparty/stb_image.c ****    unsigned char *result;
 964:thirdparty/stb_image.c ****    stbi__context s;
 965:thirdparty/stb_image.c ****    stbi__start_mem(&s,buffer,len);
 2297              		.loc 1 965 4
 2298 0fb6 8B450C   		movl	12(%ebp), %eax
 2299 0fb9 89442408 		movl	%eax, 8(%esp)
 2300 0fbd 8B4508   		movl	8(%ebp), %eax
GAS LISTING C:\Users\jisu8\AppData\Local\Temp\ccTSXm7f.s 			page 62


 2301 0fc0 89442404 		movl	%eax, 4(%esp)
 2302 0fc4 8D853CFF 		leal	-196(%ebp), %eax
 2302      FFFF
 2303 0fca 890424   		movl	%eax, (%esp)
 2304 0fcd E82EF0FF 		call	_stbi__start_mem
 2304      FF
 966:thirdparty/stb_image.c **** 
 967:thirdparty/stb_image.c ****    result = (unsigned char*) stbi__load_gif_main(&s, delays, x, y, z, comp, req_comp);
 2305              		.loc 1 967 30
 2306 0fd2 8B4524   		movl	36(%ebp), %eax
 2307 0fd5 89442418 		movl	%eax, 24(%esp)
 2308 0fd9 8B4520   		movl	32(%ebp), %eax
 2309 0fdc 89442414 		movl	%eax, 20(%esp)
 2310 0fe0 8B451C   		movl	28(%ebp), %eax
 2311 0fe3 89442410 		movl	%eax, 16(%esp)
 2312 0fe7 8B4518   		movl	24(%ebp), %eax
 2313 0fea 8944240C 		movl	%eax, 12(%esp)
 2314 0fee 8B4514   		movl	20(%ebp), %eax
 2315 0ff1 89442408 		movl	%eax, 8(%esp)
 2316 0ff5 8B4510   		movl	16(%ebp), %eax
 2317 0ff8 89442404 		movl	%eax, 4(%esp)
 2318 0ffc 8D853CFF 		leal	-196(%ebp), %eax
 2318      FFFF
 2319 1002 890424   		movl	%eax, (%esp)
 2320 1005 E8A3D700 		call	_stbi__load_gif_main
 2320      00
 2321 100a 8945F4   		movl	%eax, -12(%ebp)
 968:thirdparty/stb_image.c ****    if (stbi__vertically_flip_on_load) {
 2322              		.loc 1 968 8
 2323 100d C70424A4 		movl	$___emutls_v.stbi__vertically_flip_on_load_set, (%esp)
 2323      000000
 2324 1014 E8000000 		call	___emutls_get_address
 2324      00
 2325 1019 8B00     		movl	(%eax), %eax
 2326 101b 85C0     		testl	%eax, %eax
 2327 101d 7415     		je	L139
 2328              		.loc 1 968 8 is_stmt 0 discriminator 1
 2329 101f C70424B4 		movl	$___emutls_v.stbi__vertically_flip_on_load_local, (%esp)
 2329      000000
 2330 1026 E8000000 		call	___emutls_get_address
 2330      00
 2331 102b 8B00     		movl	(%eax), %eax
 2332 102d 85C0     		testl	%eax, %eax
 2333 102f 0F95C0   		setne	%al
 2334 1032 EB0A     		jmp	L140
 2335              	L139:
 2336              		.loc 1 968 8 discriminator 2
 2337 1034 A1000000 		movl	_stbi__vertically_flip_on_load_global, %eax
 2337      00
 2338 1039 85C0     		testl	%eax, %eax
 2339 103b 0F95C0   		setne	%al
 2340              	L140:
 2341              		.loc 1 968 7 is_stmt 1 discriminator 4
 2342 103e 84C0     		testb	%al, %al
 2343 1040 742F     		je	L141
 969:thirdparty/stb_image.c ****       stbi__vertical_flip_slices( result, *x, *y, *z, *comp );
 2344              		.loc 1 969 7
GAS LISTING C:\Users\jisu8\AppData\Local\Temp\ccTSXm7f.s 			page 63


 2345 1042 8B4520   		movl	32(%ebp), %eax
 2346 1045 8B18     		movl	(%eax), %ebx
 2347 1047 8B451C   		movl	28(%ebp), %eax
 2348 104a 8B08     		movl	(%eax), %ecx
 2349 104c 8B4518   		movl	24(%ebp), %eax
 2350 104f 8B10     		movl	(%eax), %edx
 2351 1051 8B4514   		movl	20(%ebp), %eax
 2352 1054 8B00     		movl	(%eax), %eax
 2353 1056 895C2410 		movl	%ebx, 16(%esp)
 2354 105a 894C240C 		movl	%ecx, 12(%esp)
 2355 105e 89542408 		movl	%edx, 8(%esp)
 2356 1062 89442404 		movl	%eax, 4(%esp)
 2357 1066 8B45F4   		movl	-12(%ebp), %eax
 2358 1069 890424   		movl	%eax, (%esp)
 2359 106c E8DFF8FF 		call	_stbi__vertical_flip_slices
 2359      FF
 2360              	L141:
 970:thirdparty/stb_image.c ****    }
 971:thirdparty/stb_image.c **** 
 972:thirdparty/stb_image.c ****    return result;
 2361              		.loc 1 972 11
 2362 1071 8B45F4   		movl	-12(%ebp), %eax
 973:thirdparty/stb_image.c **** }
 2363              		.loc 1 973 1
 2364 1074 81C4E400 		addl	$228, %esp
 2364      0000
 2365 107a 5B       		popl	%ebx
 2366              		.cfi_restore 3
 2367 107b 5D       		popl	%ebp
 2368              	LCFI116:
 2369              		.cfi_restore 5
 2370              		.cfi_def_cfa 4, 4
 2371 107c C3       		ret
 2372              		.cfi_endproc
 2373              	LFE55:
 2375              	_stbi__loadf_main:
 2376              	LFB56:
 974:thirdparty/stb_image.c **** #endif
 975:thirdparty/stb_image.c **** 
 976:thirdparty/stb_image.c **** #ifndef STBI_NO_LINEAR
 977:thirdparty/stb_image.c **** static float *stbi__loadf_main(stbi__context *s, int *x, int *y, int *comp, int req_comp)
 978:thirdparty/stb_image.c **** {
 2377              		.loc 1 978 1
 2378              		.cfi_startproc
 2379 107d 55       		pushl	%ebp
 2380              	LCFI117:
 2381              		.cfi_def_cfa_offset 8
 2382              		.cfi_offset 5, -8
 2383 107e 89E5     		movl	%esp, %ebp
 2384              	LCFI118:
 2385              		.cfi_def_cfa_register 5
 2386 1080 83EC48   		subl	$72, %esp
 979:thirdparty/stb_image.c ****    unsigned char *data;
 980:thirdparty/stb_image.c ****    #ifndef STBI_NO_HDR
 981:thirdparty/stb_image.c ****    if (stbi__hdr_test(s)) {
 2387              		.loc 1 981 8
 2388 1083 8B4508   		movl	8(%ebp), %eax
GAS LISTING C:\Users\jisu8\AppData\Local\Temp\ccTSXm7f.s 			page 64


 2389 1086 890424   		movl	%eax, (%esp)
 2390 1089 E842DB00 		call	_stbi__hdr_test
 2390      00
 2391              		.loc 1 981 7
 2392 108e 85C0     		testl	%eax, %eax
 2393 1090 7463     		je	L144
 2394              	LBB8:
 982:thirdparty/stb_image.c ****       stbi__result_info ri;
 983:thirdparty/stb_image.c ****       float *hdr_data = stbi__hdr_load(s,x,y,comp,req_comp, &ri);
 2395              		.loc 1 983 25
 2396 1092 8D45E4   		leal	-28(%ebp), %eax
 2397 1095 89442414 		movl	%eax, 20(%esp)
 2398 1099 8B4518   		movl	24(%ebp), %eax
 2399 109c 89442410 		movl	%eax, 16(%esp)
 2400 10a0 8B4514   		movl	20(%ebp), %eax
 2401 10a3 8944240C 		movl	%eax, 12(%esp)
 2402 10a7 8B4510   		movl	16(%ebp), %eax
 2403 10aa 89442408 		movl	%eax, 8(%esp)
 2404 10ae 8B450C   		movl	12(%ebp), %eax
 2405 10b1 89442404 		movl	%eax, 4(%esp)
 2406 10b5 8B4508   		movl	8(%ebp), %eax
 2407 10b8 890424   		movl	%eax, (%esp)
 2408 10bb E845DD00 		call	_stbi__hdr_load
 2408      00
 2409 10c0 8945F4   		movl	%eax, -12(%ebp)
 984:thirdparty/stb_image.c ****       if (hdr_data)
 2410              		.loc 1 984 10
 2411 10c3 837DF400 		cmpl	$0, -12(%ebp)
 2412 10c7 7427     		je	L145
 985:thirdparty/stb_image.c ****          stbi__float_postprocess(hdr_data,x,y,comp,req_comp);
 2413              		.loc 1 985 10
 2414 10c9 8B4518   		movl	24(%ebp), %eax
 2415 10cc 89442410 		movl	%eax, 16(%esp)
 2416 10d0 8B4514   		movl	20(%ebp), %eax
 2417 10d3 8944240C 		movl	%eax, 12(%esp)
 2418 10d7 8B4510   		movl	16(%ebp), %eax
 2419 10da 89442408 		movl	%eax, 8(%esp)
 2420 10de 8B450C   		movl	12(%ebp), %eax
 2421 10e1 89442404 		movl	%eax, 4(%esp)
 2422 10e5 8B45F4   		movl	-12(%ebp), %eax
 2423 10e8 890424   		movl	%eax, (%esp)
 2424 10eb E80CFBFF 		call	_stbi__float_postprocess
 2424      FF
 2425              	L145:
 986:thirdparty/stb_image.c ****       return hdr_data;
 2426              		.loc 1 986 14
 2427 10f0 8B45F4   		movl	-12(%ebp), %eax
 2428 10f3 EB74     		jmp	L146
 2429              	L144:
 2430              	LBE8:
 987:thirdparty/stb_image.c ****    }
 988:thirdparty/stb_image.c ****    #endif
 989:thirdparty/stb_image.c ****    data = stbi__load_and_postprocess_8bit(s, x, y, comp, req_comp);
 2431              		.loc 1 989 11
 2432 10f5 8B4518   		movl	24(%ebp), %eax
 2433 10f8 89442410 		movl	%eax, 16(%esp)
 2434 10fc 8B4514   		movl	20(%ebp), %eax
GAS LISTING C:\Users\jisu8\AppData\Local\Temp\ccTSXm7f.s 			page 65


 2435 10ff 8944240C 		movl	%eax, 12(%esp)
 2436 1103 8B4510   		movl	16(%ebp), %eax
 2437 1106 89442408 		movl	%eax, 8(%esp)
 2438 110a 8B450C   		movl	12(%ebp), %eax
 2439 110d 89442404 		movl	%eax, 4(%esp)
 2440 1111 8B4508   		movl	8(%ebp), %eax
 2441 1114 890424   		movl	%eax, (%esp)
 2442 1117 E88EF8FF 		call	_stbi__load_and_postprocess_8bit
 2442      FF
 2443 111c 8945F0   		movl	%eax, -16(%ebp)
 990:thirdparty/stb_image.c ****    if (data)
 2444              		.loc 1 990 7
 2445 111f 837DF000 		cmpl	$0, -16(%ebp)
 2446 1123 7433     		je	L147
 991:thirdparty/stb_image.c ****       return stbi__ldr_to_hdr(data, *x, *y, req_comp ? req_comp : *comp);
 2447              		.loc 1 991 14
 2448 1125 837D1800 		cmpl	$0, 24(%ebp)
 2449 1129 7507     		jne	L148
 2450              		.loc 1 991 14 is_stmt 0 discriminator 1
 2451 112b 8B4514   		movl	20(%ebp), %eax
 2452 112e 8B00     		movl	(%eax), %eax
 2453 1130 EB03     		jmp	L149
 2454              	L148:
 2455              		.loc 1 991 14 discriminator 2
 2456 1132 8B4518   		movl	24(%ebp), %eax
 2457              	L149:
 2458              		.loc 1 991 14 discriminator 4
 2459 1135 8B5510   		movl	16(%ebp), %edx
 2460 1138 8B0A     		movl	(%edx), %ecx
 2461 113a 8B550C   		movl	12(%ebp), %edx
 2462 113d 8B12     		movl	(%edx), %edx
 2463 113f 8944240C 		movl	%eax, 12(%esp)
 2464 1143 894C2408 		movl	%ecx, 8(%esp)
 2465 1147 89542404 		movl	%edx, 4(%esp)
 2466 114b 8B45F0   		movl	-16(%ebp), %eax
 2467 114e 890424   		movl	%eax, (%esp)
 2468 1151 E8701000 		call	_stbi__ldr_to_hdr
 2468      00
 2469 1156 EB11     		jmp	L146
 2470              	L147:
 992:thirdparty/stb_image.c ****    return stbi__errpf("unknown image type", "Image not of any known type, or corrupt");
 2471              		.loc 1 992 11 is_stmt 1
 2472 1158 C7042400 		movl	$LC0, (%esp)
 2472      000000
 2473 115f E822F0FF 		call	_stbi__err
 2473      FF
 2474 1164 B8000000 		movl	$0, %eax
 2474      00
 2475              	L146:
 993:thirdparty/stb_image.c **** }
 2476              		.loc 1 993 1 discriminator 1
 2477 1169 C9       		leave
 2478              	LCFI119:
 2479              		.cfi_restore 5
 2480              		.cfi_def_cfa 4, 4
 2481 116a C3       		ret
 2482              		.cfi_endproc
GAS LISTING C:\Users\jisu8\AppData\Local\Temp\ccTSXm7f.s 			page 66


 2483              	LFE56:
 2484              		.globl	_stbi_loadf_from_memory
 2486              	_stbi_loadf_from_memory:
 2487              	LFB57:
 994:thirdparty/stb_image.c **** 
 995:thirdparty/stb_image.c **** STBIDEF float *stbi_loadf_from_memory(stbi_uc const *buffer, int len, int *x, int *y, int *comp, in
 996:thirdparty/stb_image.c **** {
 2488              		.loc 1 996 1
 2489              		.cfi_startproc
 2490 116b 55       		pushl	%ebp
 2491              	LCFI120:
 2492              		.cfi_def_cfa_offset 8
 2493              		.cfi_offset 5, -8
 2494 116c 89E5     		movl	%esp, %ebp
 2495              	LCFI121:
 2496              		.cfi_def_cfa_register 5
 2497 116e 81ECE800 		subl	$232, %esp
 2497      0000
 997:thirdparty/stb_image.c ****    stbi__context s;
 998:thirdparty/stb_image.c ****    stbi__start_mem(&s,buffer,len);
 2498              		.loc 1 998 4
 2499 1174 8B450C   		movl	12(%ebp), %eax
 2500 1177 89442408 		movl	%eax, 8(%esp)
 2501 117b 8B4508   		movl	8(%ebp), %eax
 2502 117e 89442404 		movl	%eax, 4(%esp)
 2503 1182 8D8540FF 		leal	-192(%ebp), %eax
 2503      FFFF
 2504 1188 890424   		movl	%eax, (%esp)
 2505 118b E870EEFF 		call	_stbi__start_mem
 2505      FF
 999:thirdparty/stb_image.c ****    return stbi__loadf_main(&s,x,y,comp,req_comp);
 2506              		.loc 1 999 11
 2507 1190 8B451C   		movl	28(%ebp), %eax
 2508 1193 89442410 		movl	%eax, 16(%esp)
 2509 1197 8B4518   		movl	24(%ebp), %eax
 2510 119a 8944240C 		movl	%eax, 12(%esp)
 2511 119e 8B4514   		movl	20(%ebp), %eax
 2512 11a1 89442408 		movl	%eax, 8(%esp)
 2513 11a5 8B4510   		movl	16(%ebp), %eax
 2514 11a8 89442404 		movl	%eax, 4(%esp)
 2515 11ac 8D8540FF 		leal	-192(%ebp), %eax
 2515      FFFF
 2516 11b2 890424   		movl	%eax, (%esp)
 2517 11b5 E8C3FEFF 		call	_stbi__loadf_main
 2517      FF
1000:thirdparty/stb_image.c **** }
 2518              		.loc 1 1000 1
 2519 11ba C9       		leave
 2520              	LCFI122:
 2521              		.cfi_restore 5
 2522              		.cfi_def_cfa 4, 4
 2523 11bb C3       		ret
 2524              		.cfi_endproc
 2525              	LFE57:
 2526              		.globl	_stbi_loadf_from_callbacks
 2528              	_stbi_loadf_from_callbacks:
 2529              	LFB58:
GAS LISTING C:\Users\jisu8\AppData\Local\Temp\ccTSXm7f.s 			page 67


1001:thirdparty/stb_image.c **** 
1002:thirdparty/stb_image.c **** STBIDEF float *stbi_loadf_from_callbacks(stbi_io_callbacks const *clbk, void *user, int *x, int *y,
1003:thirdparty/stb_image.c **** {
 2530              		.loc 1 1003 1
 2531              		.cfi_startproc
 2532 11bc 55       		pushl	%ebp
 2533              	LCFI123:
 2534              		.cfi_def_cfa_offset 8
 2535              		.cfi_offset 5, -8
 2536 11bd 89E5     		movl	%esp, %ebp
 2537              	LCFI124:
 2538              		.cfi_def_cfa_register 5
 2539 11bf 81ECE800 		subl	$232, %esp
 2539      0000
1004:thirdparty/stb_image.c ****    stbi__context s;
1005:thirdparty/stb_image.c ****    stbi__start_callbacks(&s, (stbi_io_callbacks *) clbk, user);
 2540              		.loc 1 1005 4
 2541 11c5 8B450C   		movl	12(%ebp), %eax
 2542 11c8 89442408 		movl	%eax, 8(%esp)
 2543 11cc 8B4508   		movl	8(%ebp), %eax
 2544 11cf 89442404 		movl	%eax, 4(%esp)
 2545 11d3 8D8540FF 		leal	-192(%ebp), %eax
 2545      FFFF
 2546 11d9 890424   		movl	%eax, (%esp)
 2547 11dc E87AEEFF 		call	_stbi__start_callbacks
 2547      FF
1006:thirdparty/stb_image.c ****    return stbi__loadf_main(&s,x,y,comp,req_comp);
 2548              		.loc 1 1006 11
 2549 11e1 8B451C   		movl	28(%ebp), %eax
 2550 11e4 89442410 		movl	%eax, 16(%esp)
 2551 11e8 8B4518   		movl	24(%ebp), %eax
 2552 11eb 8944240C 		movl	%eax, 12(%esp)
 2553 11ef 8B4514   		movl	20(%ebp), %eax
 2554 11f2 89442408 		movl	%eax, 8(%esp)
 2555 11f6 8B4510   		movl	16(%ebp), %eax
 2556 11f9 89442404 		movl	%eax, 4(%esp)
 2557 11fd 8D8540FF 		leal	-192(%ebp), %eax
 2557      FFFF
 2558 1203 890424   		movl	%eax, (%esp)
 2559 1206 E872FEFF 		call	_stbi__loadf_main
 2559      FF
1007:thirdparty/stb_image.c **** }
 2560              		.loc 1 1007 1
 2561 120b C9       		leave
 2562              	LCFI125:
 2563              		.cfi_restore 5
 2564              		.cfi_def_cfa 4, 4
 2565 120c C3       		ret
 2566              		.cfi_endproc
 2567              	LFE58:
 2568              		.globl	_stbi_loadf
 2570              	_stbi_loadf:
 2571              	LFB59:
1008:thirdparty/stb_image.c **** 
1009:thirdparty/stb_image.c **** #ifndef STBI_NO_STDIO
1010:thirdparty/stb_image.c **** STBIDEF float *stbi_loadf(char const *filename, int *x, int *y, int *comp, int req_comp)
1011:thirdparty/stb_image.c **** {
GAS LISTING C:\Users\jisu8\AppData\Local\Temp\ccTSXm7f.s 			page 68


 2572              		.loc 1 1011 1
 2573              		.cfi_startproc
 2574 120d 55       		pushl	%ebp
 2575              	LCFI126:
 2576              		.cfi_def_cfa_offset 8
 2577              		.cfi_offset 5, -8
 2578 120e 89E5     		movl	%esp, %ebp
 2579              	LCFI127:
 2580              		.cfi_def_cfa_register 5
 2581 1210 83EC38   		subl	$56, %esp
1012:thirdparty/stb_image.c ****    float *result;
1013:thirdparty/stb_image.c ****    FILE *f = stbi__fopen(filename, "rb");
 2582              		.loc 1 1013 14
 2583 1213 C7442404 		movl	$LC5, 4(%esp)
 2583      66000000 
 2584 121b 8B4508   		movl	8(%ebp), %eax
 2585 121e 890424   		movl	%eax, (%esp)
 2586 1221 E856FAFF 		call	_stbi__fopen
 2586      FF
 2587 1226 8945F4   		movl	%eax, -12(%ebp)
1014:thirdparty/stb_image.c ****    if (!f) return stbi__errpf("can't fopen", "Unable to open file");
 2588              		.loc 1 1014 7
 2589 1229 837DF400 		cmpl	$0, -12(%ebp)
 2590 122d 7513     		jne	L155
 2591              		.loc 1 1014 19 discriminator 1
 2592 122f C7042469 		movl	$LC6, (%esp)
 2592      000000
 2593 1236 E84BEFFF 		call	_stbi__err
 2593      FF
 2594 123b B8000000 		movl	$0, %eax
 2594      00
 2595 1240 EB38     		jmp	L156
 2596              	L155:
1015:thirdparty/stb_image.c ****    result = stbi_loadf_from_file(f,x,y,comp,req_comp);
 2597              		.loc 1 1015 13
 2598 1242 8B4518   		movl	24(%ebp), %eax
 2599 1245 89442410 		movl	%eax, 16(%esp)
 2600 1249 8B4514   		movl	20(%ebp), %eax
 2601 124c 8944240C 		movl	%eax, 12(%esp)
 2602 1250 8B4510   		movl	16(%ebp), %eax
 2603 1253 89442408 		movl	%eax, 8(%esp)
 2604 1257 8B450C   		movl	12(%ebp), %eax
 2605 125a 89442404 		movl	%eax, 4(%esp)
 2606 125e 8B45F4   		movl	-12(%ebp), %eax
 2607 1261 890424   		movl	%eax, (%esp)
 2608 1264 E8130000 		call	_stbi_loadf_from_file
 2608      00
 2609 1269 8945F0   		movl	%eax, -16(%ebp)
1016:thirdparty/stb_image.c ****    fclose(f);
 2610              		.loc 1 1016 4
 2611 126c 8B45F4   		movl	-12(%ebp), %eax
 2612 126f 890424   		movl	%eax, (%esp)
 2613 1272 E8000000 		call	_fclose
 2613      00
1017:thirdparty/stb_image.c ****    return result;
 2614              		.loc 1 1017 11
 2615 1277 8B45F0   		movl	-16(%ebp), %eax
GAS LISTING C:\Users\jisu8\AppData\Local\Temp\ccTSXm7f.s 			page 69


 2616              	L156:
1018:thirdparty/stb_image.c **** }
 2617              		.loc 1 1018 1
 2618 127a C9       		leave
 2619              	LCFI128:
 2620              		.cfi_restore 5
 2621              		.cfi_def_cfa 4, 4
 2622 127b C3       		ret
 2623              		.cfi_endproc
 2624              	LFE59:
 2625              		.globl	_stbi_loadf_from_file
 2627              	_stbi_loadf_from_file:
 2628              	LFB60:
1019:thirdparty/stb_image.c **** 
1020:thirdparty/stb_image.c **** STBIDEF float *stbi_loadf_from_file(FILE *f, int *x, int *y, int *comp, int req_comp)
1021:thirdparty/stb_image.c **** {
 2629              		.loc 1 1021 1
 2630              		.cfi_startproc
 2631 127c 55       		pushl	%ebp
 2632              	LCFI129:
 2633              		.cfi_def_cfa_offset 8
 2634              		.cfi_offset 5, -8
 2635 127d 89E5     		movl	%esp, %ebp
 2636              	LCFI130:
 2637              		.cfi_def_cfa_register 5
 2638 127f 81ECE800 		subl	$232, %esp
 2638      0000
1022:thirdparty/stb_image.c ****    stbi__context s;
1023:thirdparty/stb_image.c ****    stbi__start_file(&s,f);
 2639              		.loc 1 1023 4
 2640 1285 8B4508   		movl	8(%ebp), %eax
 2641 1288 89442404 		movl	%eax, 4(%esp)
 2642 128c 8D8540FF 		leal	-192(%ebp), %eax
 2642      FFFF
 2643 1292 890424   		movl	%eax, (%esp)
 2644 1295 E889EEFF 		call	_stbi__start_file
 2644      FF
1024:thirdparty/stb_image.c ****    return stbi__loadf_main(&s,x,y,comp,req_comp);
 2645              		.loc 1 1024 11
 2646 129a 8B4518   		movl	24(%ebp), %eax
 2647 129d 89442410 		movl	%eax, 16(%esp)
 2648 12a1 8B4514   		movl	20(%ebp), %eax
 2649 12a4 8944240C 		movl	%eax, 12(%esp)
 2650 12a8 8B4510   		movl	16(%ebp), %eax
 2651 12ab 89442408 		movl	%eax, 8(%esp)
 2652 12af 8B450C   		movl	12(%ebp), %eax
 2653 12b2 89442404 		movl	%eax, 4(%esp)
 2654 12b6 8D8540FF 		leal	-192(%ebp), %eax
 2654      FFFF
 2655 12bc 890424   		movl	%eax, (%esp)
 2656 12bf E8B9FDFF 		call	_stbi__loadf_main
 2656      FF
1025:thirdparty/stb_image.c **** }
 2657              		.loc 1 1025 1
 2658 12c4 C9       		leave
 2659              	LCFI131:
 2660              		.cfi_restore 5
GAS LISTING C:\Users\jisu8\AppData\Local\Temp\ccTSXm7f.s 			page 70


 2661              		.cfi_def_cfa 4, 4
 2662 12c5 C3       		ret
 2663              		.cfi_endproc
 2664              	LFE60:
 2665              		.globl	_stbi_is_hdr_from_memory
 2667              	_stbi_is_hdr_from_memory:
 2668              	LFB61:
1026:thirdparty/stb_image.c **** #endif // !STBI_NO_STDIO
1027:thirdparty/stb_image.c **** 
1028:thirdparty/stb_image.c **** #endif // !STBI_NO_LINEAR
1029:thirdparty/stb_image.c **** 
1030:thirdparty/stb_image.c **** // these is-hdr-or-not is defined independent of whether STBI_NO_LINEAR is
1031:thirdparty/stb_image.c **** // defined, for API simplicity; if STBI_NO_LINEAR is defined, it always
1032:thirdparty/stb_image.c **** // reports false!
1033:thirdparty/stb_image.c **** 
1034:thirdparty/stb_image.c **** STBIDEF int stbi_is_hdr_from_memory(stbi_uc const *buffer, int len)
1035:thirdparty/stb_image.c **** {
 2669              		.loc 1 1035 1
 2670              		.cfi_startproc
 2671 12c6 55       		pushl	%ebp
 2672              	LCFI132:
 2673              		.cfi_def_cfa_offset 8
 2674              		.cfi_offset 5, -8
 2675 12c7 89E5     		movl	%esp, %ebp
 2676              	LCFI133:
 2677              		.cfi_def_cfa_register 5
 2678 12c9 81ECD800 		subl	$216, %esp
 2678      0000
1036:thirdparty/stb_image.c ****    #ifndef STBI_NO_HDR
1037:thirdparty/stb_image.c ****    stbi__context s;
1038:thirdparty/stb_image.c ****    stbi__start_mem(&s,buffer,len);
 2679              		.loc 1 1038 4
 2680 12cf 8B450C   		movl	12(%ebp), %eax
 2681 12d2 89442408 		movl	%eax, 8(%esp)
 2682 12d6 8B4508   		movl	8(%ebp), %eax
 2683 12d9 89442404 		movl	%eax, 4(%esp)
 2684 12dd 8D8540FF 		leal	-192(%ebp), %eax
 2684      FFFF
 2685 12e3 890424   		movl	%eax, (%esp)
 2686 12e6 E815EDFF 		call	_stbi__start_mem
 2686      FF
1039:thirdparty/stb_image.c ****    return stbi__hdr_test(&s);
 2687              		.loc 1 1039 11
 2688 12eb 8D8540FF 		leal	-192(%ebp), %eax
 2688      FFFF
 2689 12f1 890424   		movl	%eax, (%esp)
 2690 12f4 E8D7D800 		call	_stbi__hdr_test
 2690      00
1040:thirdparty/stb_image.c ****    #else
1041:thirdparty/stb_image.c ****    STBI_NOTUSED(buffer);
1042:thirdparty/stb_image.c ****    STBI_NOTUSED(len);
1043:thirdparty/stb_image.c ****    return 0;
1044:thirdparty/stb_image.c ****    #endif
1045:thirdparty/stb_image.c **** }
 2691              		.loc 1 1045 1
 2692 12f9 C9       		leave
 2693              	LCFI134:
GAS LISTING C:\Users\jisu8\AppData\Local\Temp\ccTSXm7f.s 			page 71


 2694              		.cfi_restore 5
 2695              		.cfi_def_cfa 4, 4
 2696 12fa C3       		ret
 2697              		.cfi_endproc
 2698              	LFE61:
 2699              		.globl	_stbi_is_hdr
 2701              	_stbi_is_hdr:
 2702              	LFB62:
1046:thirdparty/stb_image.c **** 
1047:thirdparty/stb_image.c **** #ifndef STBI_NO_STDIO
1048:thirdparty/stb_image.c **** STBIDEF int      stbi_is_hdr          (char const *filename)
1049:thirdparty/stb_image.c **** {
 2703              		.loc 1 1049 1
 2704              		.cfi_startproc
 2705 12fb 55       		pushl	%ebp
 2706              	LCFI135:
 2707              		.cfi_def_cfa_offset 8
 2708              		.cfi_offset 5, -8
 2709 12fc 89E5     		movl	%esp, %ebp
 2710              	LCFI136:
 2711              		.cfi_def_cfa_register 5
 2712 12fe 83EC28   		subl	$40, %esp
1050:thirdparty/stb_image.c ****    FILE *f = stbi__fopen(filename, "rb");
 2713              		.loc 1 1050 14
 2714 1301 C7442404 		movl	$LC5, 4(%esp)
 2714      66000000 
 2715 1309 8B4508   		movl	8(%ebp), %eax
 2716 130c 890424   		movl	%eax, (%esp)
 2717 130f E868F9FF 		call	_stbi__fopen
 2717      FF
 2718 1314 8945F0   		movl	%eax, -16(%ebp)
1051:thirdparty/stb_image.c ****    int result=0;
 2719              		.loc 1 1051 8
 2720 1317 C745F400 		movl	$0, -12(%ebp)
 2720      000000
1052:thirdparty/stb_image.c ****    if (f) {
 2721              		.loc 1 1052 7
 2722 131e 837DF000 		cmpl	$0, -16(%ebp)
 2723 1322 7419     		je	L162
1053:thirdparty/stb_image.c ****       result = stbi_is_hdr_from_file(f);
 2724              		.loc 1 1053 16
 2725 1324 8B45F0   		movl	-16(%ebp), %eax
 2726 1327 890424   		movl	%eax, (%esp)
 2727 132a E8130000 		call	_stbi_is_hdr_from_file
 2727      00
 2728 132f 8945F4   		movl	%eax, -12(%ebp)
1054:thirdparty/stb_image.c ****       fclose(f);
 2729              		.loc 1 1054 7
 2730 1332 8B45F0   		movl	-16(%ebp), %eax
 2731 1335 890424   		movl	%eax, (%esp)
 2732 1338 E8000000 		call	_fclose
 2732      00
 2733              	L162:
1055:thirdparty/stb_image.c ****    }
1056:thirdparty/stb_image.c ****    return result;
 2734              		.loc 1 1056 11
 2735 133d 8B45F4   		movl	-12(%ebp), %eax
GAS LISTING C:\Users\jisu8\AppData\Local\Temp\ccTSXm7f.s 			page 72


1057:thirdparty/stb_image.c **** }
 2736              		.loc 1 1057 1
 2737 1340 C9       		leave
 2738              	LCFI137:
 2739              		.cfi_restore 5
 2740              		.cfi_def_cfa 4, 4
 2741 1341 C3       		ret
 2742              		.cfi_endproc
 2743              	LFE62:
 2744              		.globl	_stbi_is_hdr_from_file
 2746              	_stbi_is_hdr_from_file:
 2747              	LFB63:
1058:thirdparty/stb_image.c **** 
1059:thirdparty/stb_image.c **** STBIDEF int stbi_is_hdr_from_file(FILE *f)
1060:thirdparty/stb_image.c **** {
 2748              		.loc 1 1060 1
 2749              		.cfi_startproc
 2750 1342 55       		pushl	%ebp
 2751              	LCFI138:
 2752              		.cfi_def_cfa_offset 8
 2753              		.cfi_offset 5, -8
 2754 1343 89E5     		movl	%esp, %ebp
 2755              	LCFI139:
 2756              		.cfi_def_cfa_register 5
 2757 1345 81ECD800 		subl	$216, %esp
 2757      0000
1061:thirdparty/stb_image.c ****    #ifndef STBI_NO_HDR
1062:thirdparty/stb_image.c ****    long pos = ftell(f);
 2758              		.loc 1 1062 15
 2759 134b 8B4508   		movl	8(%ebp), %eax
 2760 134e 890424   		movl	%eax, (%esp)
 2761 1351 E8000000 		call	_ftell
 2761      00
 2762 1356 8945F4   		movl	%eax, -12(%ebp)
1063:thirdparty/stb_image.c ****    int res;
1064:thirdparty/stb_image.c ****    stbi__context s;
1065:thirdparty/stb_image.c ****    stbi__start_file(&s,f);
 2763              		.loc 1 1065 4
 2764 1359 8B4508   		movl	8(%ebp), %eax
 2765 135c 89442404 		movl	%eax, 4(%esp)
 2766 1360 8D8538FF 		leal	-200(%ebp), %eax
 2766      FFFF
 2767 1366 890424   		movl	%eax, (%esp)
 2768 1369 E8B5EDFF 		call	_stbi__start_file
 2768      FF
1066:thirdparty/stb_image.c ****    res = stbi__hdr_test(&s);
 2769              		.loc 1 1066 10
 2770 136e 8D8538FF 		leal	-200(%ebp), %eax
 2770      FFFF
 2771 1374 890424   		movl	%eax, (%esp)
 2772 1377 E854D800 		call	_stbi__hdr_test
 2772      00
 2773 137c 8945F0   		movl	%eax, -16(%ebp)
1067:thirdparty/stb_image.c ****    fseek(f, pos, SEEK_SET);
 2774              		.loc 1 1067 4
 2775 137f C7442408 		movl	$0, 8(%esp)
 2775      00000000 
GAS LISTING C:\Users\jisu8\AppData\Local\Temp\ccTSXm7f.s 			page 73


 2776 1387 8B45F4   		movl	-12(%ebp), %eax
 2777 138a 89442404 		movl	%eax, 4(%esp)
 2778 138e 8B4508   		movl	8(%ebp), %eax
 2779 1391 890424   		movl	%eax, (%esp)
 2780 1394 E8000000 		call	_fseek
 2780      00
1068:thirdparty/stb_image.c ****    return res;
 2781              		.loc 1 1068 11
 2782 1399 8B45F0   		movl	-16(%ebp), %eax
1069:thirdparty/stb_image.c ****    #else
1070:thirdparty/stb_image.c ****    STBI_NOTUSED(f);
1071:thirdparty/stb_image.c ****    return 0;
1072:thirdparty/stb_image.c ****    #endif
1073:thirdparty/stb_image.c **** }
 2783              		.loc 1 1073 1
 2784 139c C9       		leave
 2785              	LCFI140:
 2786              		.cfi_restore 5
 2787              		.cfi_def_cfa 4, 4
 2788 139d C3       		ret
 2789              		.cfi_endproc
 2790              	LFE63:
 2791              		.globl	_stbi_is_hdr_from_callbacks
 2793              	_stbi_is_hdr_from_callbacks:
 2794              	LFB64:
1074:thirdparty/stb_image.c **** #endif // !STBI_NO_STDIO
1075:thirdparty/stb_image.c **** 
1076:thirdparty/stb_image.c **** STBIDEF int      stbi_is_hdr_from_callbacks(stbi_io_callbacks const *clbk, void *user)
1077:thirdparty/stb_image.c **** {
 2795              		.loc 1 1077 1
 2796              		.cfi_startproc
 2797 139e 55       		pushl	%ebp
 2798              	LCFI141:
 2799              		.cfi_def_cfa_offset 8
 2800              		.cfi_offset 5, -8
 2801 139f 89E5     		movl	%esp, %ebp
 2802              	LCFI142:
 2803              		.cfi_def_cfa_register 5
 2804 13a1 81ECD800 		subl	$216, %esp
 2804      0000
1078:thirdparty/stb_image.c ****    #ifndef STBI_NO_HDR
1079:thirdparty/stb_image.c ****    stbi__context s;
1080:thirdparty/stb_image.c ****    stbi__start_callbacks(&s, (stbi_io_callbacks *) clbk, user);
 2805              		.loc 1 1080 4
 2806 13a7 8B450C   		movl	12(%ebp), %eax
 2807 13aa 89442408 		movl	%eax, 8(%esp)
 2808 13ae 8B4508   		movl	8(%ebp), %eax
 2809 13b1 89442404 		movl	%eax, 4(%esp)
 2810 13b5 8D8540FF 		leal	-192(%ebp), %eax
 2810      FFFF
 2811 13bb 890424   		movl	%eax, (%esp)
 2812 13be E898ECFF 		call	_stbi__start_callbacks
 2812      FF
1081:thirdparty/stb_image.c ****    return stbi__hdr_test(&s);
 2813              		.loc 1 1081 11
 2814 13c3 8D8540FF 		leal	-192(%ebp), %eax
 2814      FFFF
GAS LISTING C:\Users\jisu8\AppData\Local\Temp\ccTSXm7f.s 			page 74


 2815 13c9 890424   		movl	%eax, (%esp)
 2816 13cc E8FFD700 		call	_stbi__hdr_test
 2816      00
1082:thirdparty/stb_image.c ****    #else
1083:thirdparty/stb_image.c ****    STBI_NOTUSED(clbk);
1084:thirdparty/stb_image.c ****    STBI_NOTUSED(user);
1085:thirdparty/stb_image.c ****    return 0;
1086:thirdparty/stb_image.c ****    #endif
1087:thirdparty/stb_image.c **** }
 2817              		.loc 1 1087 1
 2818 13d1 C9       		leave
 2819              	LCFI143:
 2820              		.cfi_restore 5
 2821              		.cfi_def_cfa 4, 4
 2822 13d2 C3       		ret
 2823              		.cfi_endproc
 2824              	LFE64:
 2825              		.data
 2826              		.align 4
 2827              	_stbi__l2h_gamma:
 2828 000c CDCC0C40 		.long	1074580685
 2829              		.align 4
 2830              	_stbi__l2h_scale:
 2831 0010 0000803F 		.long	1065353216
 2832              		.text
 2833              		.globl	_stbi_ldr_to_hdr_gamma
 2835              	_stbi_ldr_to_hdr_gamma:
 2836              	LFB65:
1088:thirdparty/stb_image.c **** 
1089:thirdparty/stb_image.c **** #ifndef STBI_NO_LINEAR
1090:thirdparty/stb_image.c **** static float stbi__l2h_gamma=2.2f, stbi__l2h_scale=1.0f;
1091:thirdparty/stb_image.c **** 
1092:thirdparty/stb_image.c **** STBIDEF void   stbi_ldr_to_hdr_gamma(float gamma) { stbi__l2h_gamma = gamma; }
 2837              		.loc 1 1092 51
 2838              		.cfi_startproc
 2839 13d3 55       		pushl	%ebp
 2840              	LCFI144:
 2841              		.cfi_def_cfa_offset 8
 2842              		.cfi_offset 5, -8
 2843 13d4 89E5     		movl	%esp, %ebp
 2844              	LCFI145:
 2845              		.cfi_def_cfa_register 5
 2846              		.loc 1 1092 69
 2847 13d6 D94508   		flds	8(%ebp)
 2848 13d9 D91D0C00 		fstps	_stbi__l2h_gamma
 2848      0000
 2849              		.loc 1 1092 1
 2850 13df 90       		nop
 2851 13e0 5D       		popl	%ebp
 2852              	LCFI146:
 2853              		.cfi_restore 5
 2854              		.cfi_def_cfa 4, 4
 2855 13e1 C3       		ret
 2856              		.cfi_endproc
 2857              	LFE65:
 2858              		.globl	_stbi_ldr_to_hdr_scale
 2860              	_stbi_ldr_to_hdr_scale:
GAS LISTING C:\Users\jisu8\AppData\Local\Temp\ccTSXm7f.s 			page 75


 2861              	LFB66:
1093:thirdparty/stb_image.c **** STBIDEF void   stbi_ldr_to_hdr_scale(float scale) { stbi__l2h_scale = scale; }
 2862              		.loc 1 1093 51
 2863              		.cfi_startproc
 2864 13e2 55       		pushl	%ebp
 2865              	LCFI147:
 2866              		.cfi_def_cfa_offset 8
 2867              		.cfi_offset 5, -8
 2868 13e3 89E5     		movl	%esp, %ebp
 2869              	LCFI148:
 2870              		.cfi_def_cfa_register 5
 2871              		.loc 1 1093 69
 2872 13e5 D94508   		flds	8(%ebp)
 2873 13e8 D91D1000 		fstps	_stbi__l2h_scale
 2873      0000
 2874              		.loc 1 1093 1
 2875 13ee 90       		nop
 2876 13ef 5D       		popl	%ebp
 2877              	LCFI149:
 2878              		.cfi_restore 5
 2879              		.cfi_def_cfa 4, 4
 2880 13f0 C3       		ret
 2881              		.cfi_endproc
 2882              	LFE66:
 2883              		.data
 2884              		.align 4
 2885              	_stbi__h2l_gamma_i:
 2886 0014 2EBAE83E 		.long	1055439406
 2887              		.align 4
 2888              	_stbi__h2l_scale_i:
 2889 0018 0000803F 		.long	1065353216
 2890              		.text
 2891              		.globl	_stbi_hdr_to_ldr_gamma
 2893              	_stbi_hdr_to_ldr_gamma:
 2894              	LFB67:
1094:thirdparty/stb_image.c **** #endif
1095:thirdparty/stb_image.c **** 
1096:thirdparty/stb_image.c **** static float stbi__h2l_gamma_i=1.0f/2.2f, stbi__h2l_scale_i=1.0f;
1097:thirdparty/stb_image.c **** 
1098:thirdparty/stb_image.c **** STBIDEF void   stbi_hdr_to_ldr_gamma(float gamma) { stbi__h2l_gamma_i = 1/gamma; }
 2895              		.loc 1 1098 51
 2896              		.cfi_startproc
 2897 13f1 55       		pushl	%ebp
 2898              	LCFI150:
 2899              		.cfi_def_cfa_offset 8
 2900              		.cfi_offset 5, -8
 2901 13f2 89E5     		movl	%esp, %ebp
 2902              	LCFI151:
 2903              		.cfi_def_cfa_register 5
 2904              		.loc 1 1098 74
 2905 13f4 D9E8     		fld1
 2906 13f6 D87508   		fdivs	8(%ebp)
 2907              		.loc 1 1098 71
 2908 13f9 D91D1400 		fstps	_stbi__h2l_gamma_i
 2908      0000
 2909              		.loc 1 1098 1
 2910 13ff 90       		nop
GAS LISTING C:\Users\jisu8\AppData\Local\Temp\ccTSXm7f.s 			page 76


 2911 1400 5D       		popl	%ebp
 2912              	LCFI152:
 2913              		.cfi_restore 5
 2914              		.cfi_def_cfa 4, 4
 2915 1401 C3       		ret
 2916              		.cfi_endproc
 2917              	LFE67:
 2918              		.globl	_stbi_hdr_to_ldr_scale
 2920              	_stbi_hdr_to_ldr_scale:
 2921              	LFB68:
1099:thirdparty/stb_image.c **** STBIDEF void   stbi_hdr_to_ldr_scale(float scale) { stbi__h2l_scale_i = 1/scale; }
 2922              		.loc 1 1099 51
 2923              		.cfi_startproc
 2924 1402 55       		pushl	%ebp
 2925              	LCFI153:
 2926              		.cfi_def_cfa_offset 8
 2927              		.cfi_offset 5, -8
 2928 1403 89E5     		movl	%esp, %ebp
 2929              	LCFI154:
 2930              		.cfi_def_cfa_register 5
 2931              		.loc 1 1099 74
 2932 1405 D9E8     		fld1
 2933 1407 D87508   		fdivs	8(%ebp)
 2934              		.loc 1 1099 71
 2935 140a D91D1800 		fstps	_stbi__h2l_scale_i
 2935      0000
 2936              		.loc 1 1099 1
 2937 1410 90       		nop
 2938 1411 5D       		popl	%ebp
 2939              	LCFI155:
 2940              		.cfi_restore 5
 2941              		.cfi_def_cfa 4, 4
 2942 1412 C3       		ret
 2943              		.cfi_endproc
 2944              	LFE68:
 2946              	_stbi__refill_buffer:
 2947              	LFB69:
1100:thirdparty/stb_image.c **** 
1101:thirdparty/stb_image.c **** 
1102:thirdparty/stb_image.c **** //////////////////////////////////////////////////////////////////////////////
1103:thirdparty/stb_image.c **** //
1104:thirdparty/stb_image.c **** // Common code used by all image loaders
1105:thirdparty/stb_image.c **** //
1106:thirdparty/stb_image.c **** 
1107:thirdparty/stb_image.c **** enum
1108:thirdparty/stb_image.c **** {
1109:thirdparty/stb_image.c ****    STBI__SCAN_load=0,
1110:thirdparty/stb_image.c ****    STBI__SCAN_type,
1111:thirdparty/stb_image.c ****    STBI__SCAN_header
1112:thirdparty/stb_image.c **** };
1113:thirdparty/stb_image.c **** 
1114:thirdparty/stb_image.c **** static void stbi__refill_buffer(stbi__context *s)
1115:thirdparty/stb_image.c **** {
 2948              		.loc 1 1115 1
 2949              		.cfi_startproc
 2950 1413 55       		pushl	%ebp
 2951              	LCFI156:
GAS LISTING C:\Users\jisu8\AppData\Local\Temp\ccTSXm7f.s 			page 77


 2952              		.cfi_def_cfa_offset 8
 2953              		.cfi_offset 5, -8
 2954 1414 89E5     		movl	%esp, %ebp
 2955              	LCFI157:
 2956              		.cfi_def_cfa_register 5
 2957 1416 53       		pushl	%ebx
 2958 1417 83EC24   		subl	$36, %esp
 2959              		.cfi_offset 3, -12
1116:thirdparty/stb_image.c ****    int n = (s->io.read)(s->io_user_data,(char*)s->buffer_start,s->buflen);
 2960              		.loc 1 1116 18
 2961 141a 8B4508   		movl	8(%ebp), %eax
 2962 141d 8B4010   		movl	16(%eax), %eax
 2963 1420 8B5508   		movl	8(%ebp), %edx
 2964 1423 8B4A24   		movl	36(%edx), %ecx
 2965              		.loc 1 1116 48
 2966 1426 8B5508   		movl	8(%ebp), %edx
 2967 1429 8D5A28   		leal	40(%edx), %ebx
 2968              		.loc 1 1116 18
 2969 142c 8B5508   		movl	8(%ebp), %edx
 2970 142f 8B521C   		movl	28(%edx), %edx
 2971 1432 894C2408 		movl	%ecx, 8(%esp)
 2972 1436 895C2404 		movl	%ebx, 4(%esp)
 2973 143a 891424   		movl	%edx, (%esp)
 2974 143d FFD0     		call	*%eax
 2975              	LVL0:
 2976 143f 8945F4   		movl	%eax, -12(%ebp)
1117:thirdparty/stb_image.c ****    if (n == 0) {
 2977              		.loc 1 1117 7
 2978 1442 837DF400 		cmpl	$0, -12(%ebp)
 2979 1446 7539     		jne	L173
1118:thirdparty/stb_image.c ****       // at end of file, treat same as if from memory, but need to handle case
1119:thirdparty/stb_image.c ****       // where s->img_buffer isn't pointing to safe memory, e.g. 0-byte file
1120:thirdparty/stb_image.c ****       s->read_from_callbacks = 0;
 2980              		.loc 1 1120 30
 2981 1448 8B4508   		movl	8(%ebp), %eax
 2982 144b C7402000 		movl	$0, 32(%eax)
 2982      000000
1121:thirdparty/stb_image.c ****       s->img_buffer = s->buffer_start;
 2983              		.loc 1 1121 23
 2984 1452 8B4508   		movl	8(%ebp), %eax
 2985 1455 8D5028   		leal	40(%eax), %edx
 2986              		.loc 1 1121 21
 2987 1458 8B4508   		movl	8(%ebp), %eax
 2988 145b 8990A800 		movl	%edx, 168(%eax)
 2988      0000
1122:thirdparty/stb_image.c ****       s->img_buffer_end = s->buffer_start+1;
 2989              		.loc 1 1122 27
 2990 1461 8B4508   		movl	8(%ebp), %eax
 2991 1464 83C028   		addl	$40, %eax
 2992              		.loc 1 1122 42
 2993 1467 8D5001   		leal	1(%eax), %edx
 2994              		.loc 1 1122 25
 2995 146a 8B4508   		movl	8(%ebp), %eax
 2996 146d 8990AC00 		movl	%edx, 172(%eax)
 2996      0000
1123:thirdparty/stb_image.c ****       *s->img_buffer = 0;
 2997              		.loc 1 1123 9
GAS LISTING C:\Users\jisu8\AppData\Local\Temp\ccTSXm7f.s 			page 78


 2998 1473 8B4508   		movl	8(%ebp), %eax
 2999 1476 8B80A800 		movl	168(%eax), %eax
 2999      0000
 3000              		.loc 1 1123 22
 3001 147c C60000   		movb	$0, (%eax)
1124:thirdparty/stb_image.c ****    } else {
1125:thirdparty/stb_image.c ****       s->img_buffer = s->buffer_start;
1126:thirdparty/stb_image.c ****       s->img_buffer_end = s->buffer_start + n;
1127:thirdparty/stb_image.c ****    }
1128:thirdparty/stb_image.c **** }
 3002              		.loc 1 1128 1
 3003 147f EB23     		jmp	L175
 3004              	L173:
1125:thirdparty/stb_image.c ****       s->img_buffer_end = s->buffer_start + n;
 3005              		.loc 1 1125 23
 3006 1481 8B4508   		movl	8(%ebp), %eax
 3007 1484 8D5028   		leal	40(%eax), %edx
1125:thirdparty/stb_image.c ****       s->img_buffer_end = s->buffer_start + n;
 3008              		.loc 1 1125 21
 3009 1487 8B4508   		movl	8(%ebp), %eax
 3010 148a 8990A800 		movl	%edx, 168(%eax)
 3010      0000
1126:thirdparty/stb_image.c ****    }
 3011              		.loc 1 1126 27
 3012 1490 8B4508   		movl	8(%ebp), %eax
 3013 1493 8D5028   		leal	40(%eax), %edx
1126:thirdparty/stb_image.c ****    }
 3014              		.loc 1 1126 43
 3015 1496 8B45F4   		movl	-12(%ebp), %eax
 3016 1499 01C2     		addl	%eax, %edx
1126:thirdparty/stb_image.c ****    }
 3017              		.loc 1 1126 25
 3018 149b 8B4508   		movl	8(%ebp), %eax
 3019 149e 8990AC00 		movl	%edx, 172(%eax)
 3019      0000
 3020              	L175:
 3021              		.loc 1 1128 1
 3022 14a4 90       		nop
 3023 14a5 83C424   		addl	$36, %esp
 3024 14a8 5B       		popl	%ebx
 3025              		.cfi_restore 3
 3026 14a9 5D       		popl	%ebp
 3027              	LCFI158:
 3028              		.cfi_restore 5
 3029              		.cfi_def_cfa 4, 4
 3030 14aa C3       		ret
 3031              		.cfi_endproc
 3032              	LFE69:
 3034              	_stbi__get8:
 3035              	LFB70:
1129:thirdparty/stb_image.c **** 
1130:thirdparty/stb_image.c **** stbi_inline static stbi_uc stbi__get8(stbi__context *s)
1131:thirdparty/stb_image.c **** {
 3036              		.loc 1 1131 1
 3037              		.cfi_startproc
 3038 14ab 55       		pushl	%ebp
 3039              	LCFI159:
GAS LISTING C:\Users\jisu8\AppData\Local\Temp\ccTSXm7f.s 			page 79


 3040              		.cfi_def_cfa_offset 8
 3041              		.cfi_offset 5, -8
 3042 14ac 89E5     		movl	%esp, %ebp
 3043              	LCFI160:
 3044              		.cfi_def_cfa_register 5
 3045 14ae 83EC18   		subl	$24, %esp
1132:thirdparty/stb_image.c ****    if (s->img_buffer < s->img_buffer_end)
 3046              		.loc 1 1132 9
 3047 14b1 8B4508   		movl	8(%ebp), %eax
 3048 14b4 8B90A800 		movl	168(%eax), %edx
 3048      0000
 3049              		.loc 1 1132 25
 3050 14ba 8B4508   		movl	8(%ebp), %eax
 3051 14bd 8B80AC00 		movl	172(%eax), %eax
 3051      0000
 3052              		.loc 1 1132 7
 3053 14c3 39C2     		cmpl	%eax, %edx
 3054 14c5 731A     		jnb	L177
1133:thirdparty/stb_image.c ****       return *s->img_buffer++;
 3055              		.loc 1 1133 16
 3056 14c7 8B4508   		movl	8(%ebp), %eax
 3057 14ca 8B80A800 		movl	168(%eax), %eax
 3057      0000
 3058              		.loc 1 1133 28
 3059 14d0 8D4801   		leal	1(%eax), %ecx
 3060 14d3 8B5508   		movl	8(%ebp), %edx
 3061 14d6 898AA800 		movl	%ecx, 168(%edx)
 3061      0000
 3062              		.loc 1 1133 14
 3063 14dc 0FB600   		movzbl	(%eax), %eax
 3064 14df EB34     		jmp	L178
 3065              	L177:
1134:thirdparty/stb_image.c ****    if (s->read_from_callbacks) {
 3066              		.loc 1 1134 9
 3067 14e1 8B4508   		movl	8(%ebp), %eax
 3068 14e4 8B4020   		movl	32(%eax), %eax
 3069              		.loc 1 1134 7
 3070 14e7 85C0     		testl	%eax, %eax
 3071 14e9 7425     		je	L179
1135:thirdparty/stb_image.c ****       stbi__refill_buffer(s);
 3072              		.loc 1 1135 7
 3073 14eb 8B4508   		movl	8(%ebp), %eax
 3074 14ee 890424   		movl	%eax, (%esp)
 3075 14f1 E81DFFFF 		call	_stbi__refill_buffer
 3075      FF
1136:thirdparty/stb_image.c ****       return *s->img_buffer++;
 3076              		.loc 1 1136 16
 3077 14f6 8B4508   		movl	8(%ebp), %eax
 3078 14f9 8B80A800 		movl	168(%eax), %eax
 3078      0000
 3079              		.loc 1 1136 28
 3080 14ff 8D4801   		leal	1(%eax), %ecx
 3081 1502 8B5508   		movl	8(%ebp), %edx
 3082 1505 898AA800 		movl	%ecx, 168(%edx)
 3082      0000
 3083              		.loc 1 1136 14
 3084 150b 0FB600   		movzbl	(%eax), %eax
GAS LISTING C:\Users\jisu8\AppData\Local\Temp\ccTSXm7f.s 			page 80


 3085 150e EB05     		jmp	L178
 3086              	L179:
1137:thirdparty/stb_image.c ****    }
1138:thirdparty/stb_image.c ****    return 0;
 3087              		.loc 1 1138 11
 3088 1510 B8000000 		movl	$0, %eax
 3088      00
 3089              	L178:
1139:thirdparty/stb_image.c **** }
 3090              		.loc 1 1139 1
 3091 1515 C9       		leave
 3092              	LCFI161:
 3093              		.cfi_restore 5
 3094              		.cfi_def_cfa 4, 4
 3095 1516 C3       		ret
 3096              		.cfi_endproc
 3097              	LFE70:
 3099              	_stbi__at_eof:
 3100              	LFB71:
1140:thirdparty/stb_image.c **** 
1141:thirdparty/stb_image.c **** #if defined(STBI_NO_JPEG) && defined(STBI_NO_HDR) && defined(STBI_NO_PIC) && defined(STBI_NO_PNM)
1142:thirdparty/stb_image.c **** // nothing
1143:thirdparty/stb_image.c **** #else
1144:thirdparty/stb_image.c **** stbi_inline static int stbi__at_eof(stbi__context *s)
1145:thirdparty/stb_image.c **** {
 3101              		.loc 1 1145 1
 3102              		.cfi_startproc
 3103 1517 55       		pushl	%ebp
 3104              	LCFI162:
 3105              		.cfi_def_cfa_offset 8
 3106              		.cfi_offset 5, -8
 3107 1518 89E5     		movl	%esp, %ebp
 3108              	LCFI163:
 3109              		.cfi_def_cfa_register 5
 3110 151a 83EC18   		subl	$24, %esp
1146:thirdparty/stb_image.c ****    if (s->io.read) {
 3111              		.loc 1 1146 13
 3112 151d 8B4508   		movl	8(%ebp), %eax
 3113 1520 8B4010   		movl	16(%eax), %eax
 3114              		.loc 1 1146 7
 3115 1523 85C0     		testl	%eax, %eax
 3116 1525 742D     		je	L181
1147:thirdparty/stb_image.c ****       if (!(s->io.eof)(s->io_user_data)) return 0;
 3117              		.loc 1 1147 18
 3118 1527 8B4508   		movl	8(%ebp), %eax
 3119 152a 8B4018   		movl	24(%eax), %eax
 3120 152d 8B5508   		movl	8(%ebp), %edx
 3121 1530 8B521C   		movl	28(%edx), %edx
 3122 1533 891424   		movl	%edx, (%esp)
 3123 1536 FFD0     		call	*%eax
 3124              	LVL1:
 3125              		.loc 1 1147 10
 3126 1538 85C0     		testl	%eax, %eax
 3127 153a 7507     		jne	L182
 3128              		.loc 1 1147 49 discriminator 1
 3129 153c B8000000 		movl	$0, %eax
 3129      00
GAS LISTING C:\Users\jisu8\AppData\Local\Temp\ccTSXm7f.s 			page 81


 3130 1541 EB2B     		jmp	L183
 3131              	L182:
1148:thirdparty/stb_image.c ****       // if feof() is true, check if buffer = end
1149:thirdparty/stb_image.c ****       // special case: we've only got the special 0 character at the end
1150:thirdparty/stb_image.c ****       if (s->read_from_callbacks == 0) return 1;
 3132              		.loc 1 1150 12
 3133 1543 8B4508   		movl	8(%ebp), %eax
 3134 1546 8B4020   		movl	32(%eax), %eax
 3135              		.loc 1 1150 10
 3136 1549 85C0     		testl	%eax, %eax
 3137 154b 7507     		jne	L181
 3138              		.loc 1 1150 47 discriminator 1
 3139 154d B8010000 		movl	$1, %eax
 3139      00
 3140 1552 EB1A     		jmp	L183
 3141              	L181:
1151:thirdparty/stb_image.c ****    }
1152:thirdparty/stb_image.c **** 
1153:thirdparty/stb_image.c ****    return s->img_buffer >= s->img_buffer_end;
 3142              		.loc 1 1153 12
 3143 1554 8B4508   		movl	8(%ebp), %eax
 3144 1557 8B90A800 		movl	168(%eax), %edx
 3144      0000
 3145              		.loc 1 1153 29
 3146 155d 8B4508   		movl	8(%ebp), %eax
 3147 1560 8B80AC00 		movl	172(%eax), %eax
 3147      0000
 3148              		.loc 1 1153 25
 3149 1566 39C2     		cmpl	%eax, %edx
 3150 1568 0F93C0   		setnb	%al
 3151 156b 0FB6C0   		movzbl	%al, %eax
 3152              	L183:
1154:thirdparty/stb_image.c **** }
 3153              		.loc 1 1154 1
 3154 156e C9       		leave
 3155              	LCFI164:
 3156              		.cfi_restore 5
 3157              		.cfi_def_cfa 4, 4
 3158 156f C3       		ret
 3159              		.cfi_endproc
 3160              	LFE71:
 3162              	_stbi__skip:
 3163              	LFB72:
1155:thirdparty/stb_image.c **** #endif
1156:thirdparty/stb_image.c **** 
1157:thirdparty/stb_image.c **** #if defined(STBI_NO_JPEG) && defined(STBI_NO_PNG) && defined(STBI_NO_BMP) && defined(STBI_NO_PSD) &
1158:thirdparty/stb_image.c **** // nothing
1159:thirdparty/stb_image.c **** #else
1160:thirdparty/stb_image.c **** static void stbi__skip(stbi__context *s, int n)
1161:thirdparty/stb_image.c **** {
 3164              		.loc 1 1161 1
 3165              		.cfi_startproc
 3166 1570 55       		pushl	%ebp
 3167              	LCFI165:
 3168              		.cfi_def_cfa_offset 8
 3169              		.cfi_offset 5, -8
 3170 1571 89E5     		movl	%esp, %ebp
GAS LISTING C:\Users\jisu8\AppData\Local\Temp\ccTSXm7f.s 			page 82


 3171              	LCFI166:
 3172              		.cfi_def_cfa_register 5
 3173 1573 83EC28   		subl	$40, %esp
1162:thirdparty/stb_image.c ****    if (n < 0) {
 3174              		.loc 1 1162 7
 3175 1576 837D0C00 		cmpl	$0, 12(%ebp)
 3176 157a 7914     		jns	L185
1163:thirdparty/stb_image.c ****       s->img_buffer = s->img_buffer_end;
 3177              		.loc 1 1163 24
 3178 157c 8B4508   		movl	8(%ebp), %eax
 3179 157f 8B90AC00 		movl	172(%eax), %edx
 3179      0000
 3180              		.loc 1 1163 21
 3181 1585 8B4508   		movl	8(%ebp), %eax
 3182 1588 8990A800 		movl	%edx, 168(%eax)
 3182      0000
1164:thirdparty/stb_image.c ****       return;
 3183              		.loc 1 1164 7
 3184 158e EB73     		jmp	L184
 3185              	L185:
1165:thirdparty/stb_image.c ****    }
1166:thirdparty/stb_image.c ****    if (s->io.read) {
 3186              		.loc 1 1166 13
 3187 1590 8B4508   		movl	8(%ebp), %eax
 3188 1593 8B4010   		movl	16(%eax), %eax
 3189              		.loc 1 1166 7
 3190 1596 85C0     		testl	%eax, %eax
 3191 1598 7452     		je	L187
 3192              	LBB9:
1167:thirdparty/stb_image.c ****       int blen = (int) (s->img_buffer_end - s->img_buffer);
 3193              		.loc 1 1167 26
 3194 159a 8B4508   		movl	8(%ebp), %eax
 3195 159d 8B90AC00 		movl	172(%eax), %edx
 3195      0000
 3196              		.loc 1 1167 46
 3197 15a3 8B4508   		movl	8(%ebp), %eax
 3198 15a6 8B80A800 		movl	168(%eax), %eax
 3198      0000
 3199              		.loc 1 1167 11
 3200 15ac 29C2     		subl	%eax, %edx
 3201 15ae 89D0     		movl	%edx, %eax
 3202 15b0 8945F4   		movl	%eax, -12(%ebp)
1168:thirdparty/stb_image.c ****       if (blen < n) {
 3203              		.loc 1 1168 10
 3204 15b3 8B45F4   		movl	-12(%ebp), %eax
 3205 15b6 3B450C   		cmpl	12(%ebp), %eax
 3206 15b9 7D31     		jge	L187
1169:thirdparty/stb_image.c ****          s->img_buffer = s->img_buffer_end;
 3207              		.loc 1 1169 27
 3208 15bb 8B4508   		movl	8(%ebp), %eax
 3209 15be 8B90AC00 		movl	172(%eax), %edx
 3209      0000
 3210              		.loc 1 1169 24
 3211 15c4 8B4508   		movl	8(%ebp), %eax
 3212 15c7 8990A800 		movl	%edx, 168(%eax)
 3212      0000
1170:thirdparty/stb_image.c ****          (s->io.skip)(s->io_user_data, n - blen);
GAS LISTING C:\Users\jisu8\AppData\Local\Temp\ccTSXm7f.s 			page 83


 3213              		.loc 1 1170 16
 3214 15cd 8B4508   		movl	8(%ebp), %eax
 3215 15d0 8B4014   		movl	20(%eax), %eax
 3216 15d3 8B550C   		movl	12(%ebp), %edx
 3217 15d6 89D1     		movl	%edx, %ecx
 3218 15d8 2B4DF4   		subl	-12(%ebp), %ecx
 3219 15db 8B5508   		movl	8(%ebp), %edx
 3220 15de 8B521C   		movl	28(%edx), %edx
 3221 15e1 894C2404 		movl	%ecx, 4(%esp)
 3222 15e5 891424   		movl	%edx, (%esp)
 3223 15e8 FFD0     		call	*%eax
 3224              	LVL2:
1171:thirdparty/stb_image.c ****          return;
 3225              		.loc 1 1171 10
 3226 15ea EB17     		jmp	L184
 3227              	L187:
 3228              	LBE9:
1172:thirdparty/stb_image.c ****       }
1173:thirdparty/stb_image.c ****    }
1174:thirdparty/stb_image.c ****    s->img_buffer += n;
 3229              		.loc 1 1174 18
 3230 15ec 8B4508   		movl	8(%ebp), %eax
 3231 15ef 8B90A800 		movl	168(%eax), %edx
 3231      0000
 3232 15f5 8B450C   		movl	12(%ebp), %eax
 3233 15f8 01C2     		addl	%eax, %edx
 3234 15fa 8B4508   		movl	8(%ebp), %eax
 3235 15fd 8990A800 		movl	%edx, 168(%eax)
 3235      0000
 3236              	L184:
1175:thirdparty/stb_image.c **** }
 3237              		.loc 1 1175 1
 3238 1603 C9       		leave
 3239              	LCFI167:
 3240              		.cfi_restore 5
 3241              		.cfi_def_cfa 4, 4
 3242 1604 C3       		ret
 3243              		.cfi_endproc
 3244              	LFE72:
 3246              	_stbi__getn:
 3247              	LFB73:
1176:thirdparty/stb_image.c **** #endif
1177:thirdparty/stb_image.c **** 
1178:thirdparty/stb_image.c **** #if defined(STBI_NO_PNG) && defined(STBI_NO_TGA) && defined(STBI_NO_HDR) && defined(STBI_NO_PNM)
1179:thirdparty/stb_image.c **** // nothing
1180:thirdparty/stb_image.c **** #else
1181:thirdparty/stb_image.c **** static int stbi__getn(stbi__context *s, stbi_uc *buffer, int n)
1182:thirdparty/stb_image.c **** {
 3248              		.loc 1 1182 1
 3249              		.cfi_startproc
 3250 1605 55       		pushl	%ebp
 3251              	LCFI168:
 3252              		.cfi_def_cfa_offset 8
 3253              		.cfi_offset 5, -8
 3254 1606 89E5     		movl	%esp, %ebp
 3255              	LCFI169:
 3256              		.cfi_def_cfa_register 5
GAS LISTING C:\Users\jisu8\AppData\Local\Temp\ccTSXm7f.s 			page 84


 3257 1608 53       		pushl	%ebx
 3258 1609 83EC24   		subl	$36, %esp
 3259              		.cfi_offset 3, -12
1183:thirdparty/stb_image.c ****    if (s->io.read) {
 3260              		.loc 1 1183 13
 3261 160c 8B4508   		movl	8(%ebp), %eax
 3262 160f 8B4010   		movl	16(%eax), %eax
 3263              		.loc 1 1183 7
 3264 1612 85C0     		testl	%eax, %eax
 3265 1614 0F849500 		je	L189
 3265      0000
 3266              	LBB10:
1184:thirdparty/stb_image.c ****       int blen = (int) (s->img_buffer_end - s->img_buffer);
 3267              		.loc 1 1184 26
 3268 161a 8B4508   		movl	8(%ebp), %eax
 3269 161d 8B90AC00 		movl	172(%eax), %edx
 3269      0000
 3270              		.loc 1 1184 46
 3271 1623 8B4508   		movl	8(%ebp), %eax
 3272 1626 8B80A800 		movl	168(%eax), %eax
 3272      0000
 3273              		.loc 1 1184 11
 3274 162c 29C2     		subl	%eax, %edx
 3275 162e 89D0     		movl	%edx, %eax
 3276 1630 8945F4   		movl	%eax, -12(%ebp)
1185:thirdparty/stb_image.c ****       if (blen < n) {
 3277              		.loc 1 1185 10
 3278 1633 8B45F4   		movl	-12(%ebp), %eax
 3279 1636 3B4510   		cmpl	16(%ebp), %eax
 3280 1639 7D74     		jge	L189
 3281              	LBB11:
1186:thirdparty/stb_image.c ****          int res, count;
1187:thirdparty/stb_image.c **** 
1188:thirdparty/stb_image.c ****          memcpy(buffer, s->img_buffer, blen);
 3282              		.loc 1 1188 10
 3283 163b 8B55F4   		movl	-12(%ebp), %edx
 3284              		.loc 1 1188 26
 3285 163e 8B4508   		movl	8(%ebp), %eax
 3286 1641 8B80A800 		movl	168(%eax), %eax
 3286      0000
 3287              		.loc 1 1188 10
 3288 1647 89542408 		movl	%edx, 8(%esp)
 3289 164b 89442404 		movl	%eax, 4(%esp)
 3290 164f 8B450C   		movl	12(%ebp), %eax
 3291 1652 890424   		movl	%eax, (%esp)
 3292 1655 E8000000 		call	_memcpy
 3292      00
1189:thirdparty/stb_image.c **** 
1190:thirdparty/stb_image.c ****          count = (s->io.read)(s->io_user_data, (char*) buffer + blen, n - blen);
 3293              		.loc 1 1190 24
 3294 165a 8B4508   		movl	8(%ebp), %eax
 3295 165d 8B4010   		movl	16(%eax), %eax
 3296 1660 8B5510   		movl	16(%ebp), %edx
 3297 1663 89D1     		movl	%edx, %ecx
 3298 1665 2B4DF4   		subl	-12(%ebp), %ecx
 3299 1668 8B5DF4   		movl	-12(%ebp), %ebx
 3300 166b 8B550C   		movl	12(%ebp), %edx
GAS LISTING C:\Users\jisu8\AppData\Local\Temp\ccTSXm7f.s 			page 85


 3301 166e 01D3     		addl	%edx, %ebx
 3302 1670 8B5508   		movl	8(%ebp), %edx
 3303 1673 8B521C   		movl	28(%edx), %edx
 3304 1676 894C2408 		movl	%ecx, 8(%esp)
 3305 167a 895C2404 		movl	%ebx, 4(%esp)
 3306 167e 891424   		movl	%edx, (%esp)
 3307 1681 FFD0     		call	*%eax
 3308              	LVL3:
 3309 1683 8945F0   		movl	%eax, -16(%ebp)
1191:thirdparty/stb_image.c ****          res = (count == (n-blen));
 3310              		.loc 1 1191 28
 3311 1686 8B4510   		movl	16(%ebp), %eax
 3312 1689 2B45F4   		subl	-12(%ebp), %eax
 3313              		.loc 1 1191 23
 3314 168c 3945F0   		cmpl	%eax, -16(%ebp)
 3315 168f 0F94C0   		sete	%al
 3316              		.loc 1 1191 14
 3317 1692 0FB6C0   		movzbl	%al, %eax
 3318 1695 8945EC   		movl	%eax, -20(%ebp)
1192:thirdparty/stb_image.c ****          s->img_buffer = s->img_buffer_end;
 3319              		.loc 1 1192 27
 3320 1698 8B4508   		movl	8(%ebp), %eax
 3321 169b 8B90AC00 		movl	172(%eax), %edx
 3321      0000
 3322              		.loc 1 1192 24
 3323 16a1 8B4508   		movl	8(%ebp), %eax
 3324 16a4 8990A800 		movl	%edx, 168(%eax)
 3324      0000
1193:thirdparty/stb_image.c ****          return res;
 3325              		.loc 1 1193 17
 3326 16aa 8B45EC   		movl	-20(%ebp), %eax
 3327 16ad EB5D     		jmp	L190
 3328              	L189:
 3329              	LBE11:
 3330              	LBE10:
1194:thirdparty/stb_image.c ****       }
1195:thirdparty/stb_image.c ****    }
1196:thirdparty/stb_image.c **** 
1197:thirdparty/stb_image.c ****    if (s->img_buffer+n <= s->img_buffer_end) {
 3331              		.loc 1 1197 9
 3332 16af 8B4508   		movl	8(%ebp), %eax
 3333 16b2 8B90A800 		movl	168(%eax), %edx
 3333      0000
 3334              		.loc 1 1197 21
 3335 16b8 8B4510   		movl	16(%ebp), %eax
 3336 16bb 01C2     		addl	%eax, %edx
 3337              		.loc 1 1197 28
 3338 16bd 8B4508   		movl	8(%ebp), %eax
 3339 16c0 8B80AC00 		movl	172(%eax), %eax
 3339      0000
 3340              		.loc 1 1197 7
 3341 16c6 39C2     		cmpl	%eax, %edx
 3342 16c8 773D     		ja	L191
1198:thirdparty/stb_image.c ****       memcpy(buffer, s->img_buffer, n);
 3343              		.loc 1 1198 7
 3344 16ca 8B5510   		movl	16(%ebp), %edx
 3345              		.loc 1 1198 23
GAS LISTING C:\Users\jisu8\AppData\Local\Temp\ccTSXm7f.s 			page 86


 3346 16cd 8B4508   		movl	8(%ebp), %eax
 3347 16d0 8B80A800 		movl	168(%eax), %eax
 3347      0000
 3348              		.loc 1 1198 7
 3349 16d6 89542408 		movl	%edx, 8(%esp)
 3350 16da 89442404 		movl	%eax, 4(%esp)
 3351 16de 8B450C   		movl	12(%ebp), %eax
 3352 16e1 890424   		movl	%eax, (%esp)
 3353 16e4 E8000000 		call	_memcpy
 3353      00
1199:thirdparty/stb_image.c ****       s->img_buffer += n;
 3354              		.loc 1 1199 21
 3355 16e9 8B4508   		movl	8(%ebp), %eax
 3356 16ec 8B90A800 		movl	168(%eax), %edx
 3356      0000
 3357 16f2 8B4510   		movl	16(%ebp), %eax
 3358 16f5 01C2     		addl	%eax, %edx
 3359 16f7 8B4508   		movl	8(%ebp), %eax
 3360 16fa 8990A800 		movl	%edx, 168(%eax)
 3360      0000
1200:thirdparty/stb_image.c ****       return 1;
 3361              		.loc 1 1200 14
 3362 1700 B8010000 		movl	$1, %eax
 3362      00
 3363 1705 EB05     		jmp	L190
 3364              	L191:
1201:thirdparty/stb_image.c ****    } else
1202:thirdparty/stb_image.c ****       return 0;
 3365              		.loc 1 1202 14
 3366 1707 B8000000 		movl	$0, %eax
 3366      00
 3367              	L190:
1203:thirdparty/stb_image.c **** }
 3368              		.loc 1 1203 1
 3369 170c 83C424   		addl	$36, %esp
 3370 170f 5B       		popl	%ebx
 3371              		.cfi_restore 3
 3372 1710 5D       		popl	%ebp
 3373              	LCFI170:
 3374              		.cfi_restore 5
 3375              		.cfi_def_cfa 4, 4
 3376 1711 C3       		ret
 3377              		.cfi_endproc
 3378              	LFE73:
 3380              	_stbi__get16be:
 3381              	LFB74:
1204:thirdparty/stb_image.c **** #endif
1205:thirdparty/stb_image.c **** 
1206:thirdparty/stb_image.c **** #if defined(STBI_NO_JPEG) && defined(STBI_NO_PNG) && defined(STBI_NO_PSD) && defined(STBI_NO_PIC)
1207:thirdparty/stb_image.c **** // nothing
1208:thirdparty/stb_image.c **** #else
1209:thirdparty/stb_image.c **** static int stbi__get16be(stbi__context *s)
1210:thirdparty/stb_image.c **** {
 3382              		.loc 1 1210 1
 3383              		.cfi_startproc
 3384 1712 55       		pushl	%ebp
 3385              	LCFI171:
GAS LISTING C:\Users\jisu8\AppData\Local\Temp\ccTSXm7f.s 			page 87


 3386              		.cfi_def_cfa_offset 8
 3387              		.cfi_offset 5, -8
 3388 1713 89E5     		movl	%esp, %ebp
 3389              	LCFI172:
 3390              		.cfi_def_cfa_register 5
 3391 1715 53       		pushl	%ebx
 3392 1716 83EC24   		subl	$36, %esp
 3393              		.cfi_offset 3, -12
1211:thirdparty/stb_image.c ****    int z = stbi__get8(s);
 3394              		.loc 1 1211 12
 3395 1719 8B4508   		movl	8(%ebp), %eax
 3396 171c 890424   		movl	%eax, (%esp)
 3397 171f E887FDFF 		call	_stbi__get8
 3397      FF
 3398              		.loc 1 1211 8
 3399 1724 0FB6C0   		movzbl	%al, %eax
 3400 1727 8945F4   		movl	%eax, -12(%ebp)
1212:thirdparty/stb_image.c ****    return (z << 8) + stbi__get8(s);
 3401              		.loc 1 1212 14
 3402 172a 8B45F4   		movl	-12(%ebp), %eax
 3403 172d C1E008   		sall	$8, %eax
 3404 1730 89C3     		movl	%eax, %ebx
 3405              		.loc 1 1212 22
 3406 1732 8B4508   		movl	8(%ebp), %eax
 3407 1735 890424   		movl	%eax, (%esp)
 3408 1738 E86EFDFF 		call	_stbi__get8
 3408      FF
 3409 173d 0FB6C0   		movzbl	%al, %eax
 3410              		.loc 1 1212 20
 3411 1740 01D8     		addl	%ebx, %eax
1213:thirdparty/stb_image.c **** }
 3412              		.loc 1 1213 1
 3413 1742 83C424   		addl	$36, %esp
 3414 1745 5B       		popl	%ebx
 3415              		.cfi_restore 3
 3416 1746 5D       		popl	%ebp
 3417              	LCFI173:
 3418              		.cfi_restore 5
 3419              		.cfi_def_cfa 4, 4
 3420 1747 C3       		ret
 3421              		.cfi_endproc
 3422              	LFE74:
 3424              	_stbi__get32be:
 3425              	LFB75:
1214:thirdparty/stb_image.c **** #endif
1215:thirdparty/stb_image.c **** 
1216:thirdparty/stb_image.c **** #if defined(STBI_NO_PNG) && defined(STBI_NO_PSD) && defined(STBI_NO_PIC)
1217:thirdparty/stb_image.c **** // nothing
1218:thirdparty/stb_image.c **** #else
1219:thirdparty/stb_image.c **** static stbi__uint32 stbi__get32be(stbi__context *s)
1220:thirdparty/stb_image.c **** {
 3426              		.loc 1 1220 1
 3427              		.cfi_startproc
 3428 1748 55       		pushl	%ebp
 3429              	LCFI174:
 3430              		.cfi_def_cfa_offset 8
 3431              		.cfi_offset 5, -8
GAS LISTING C:\Users\jisu8\AppData\Local\Temp\ccTSXm7f.s 			page 88


 3432 1749 89E5     		movl	%esp, %ebp
 3433              	LCFI175:
 3434              		.cfi_def_cfa_register 5
 3435 174b 53       		pushl	%ebx
 3436 174c 83EC24   		subl	$36, %esp
 3437              		.cfi_offset 3, -12
1221:thirdparty/stb_image.c ****    stbi__uint32 z = stbi__get16be(s);
 3438              		.loc 1 1221 21
 3439 174f 8B4508   		movl	8(%ebp), %eax
 3440 1752 890424   		movl	%eax, (%esp)
 3441 1755 E8B8FFFF 		call	_stbi__get16be
 3441      FF
 3442              		.loc 1 1221 17
 3443 175a 8945F4   		movl	%eax, -12(%ebp)
1222:thirdparty/stb_image.c ****    return (z << 16) + stbi__get16be(s);
 3444              		.loc 1 1222 14
 3445 175d 8B45F4   		movl	-12(%ebp), %eax
 3446 1760 C1E010   		sall	$16, %eax
 3447 1763 89C3     		movl	%eax, %ebx
 3448              		.loc 1 1222 23
 3449 1765 8B4508   		movl	8(%ebp), %eax
 3450 1768 890424   		movl	%eax, (%esp)
 3451 176b E8A2FFFF 		call	_stbi__get16be
 3451      FF
 3452              		.loc 1 1222 21
 3453 1770 01D8     		addl	%ebx, %eax
1223:thirdparty/stb_image.c **** }
 3454              		.loc 1 1223 1
 3455 1772 83C424   		addl	$36, %esp
 3456 1775 5B       		popl	%ebx
 3457              		.cfi_restore 3
 3458 1776 5D       		popl	%ebp
 3459              	LCFI176:
 3460              		.cfi_restore 5
 3461              		.cfi_def_cfa 4, 4
 3462 1777 C3       		ret
 3463              		.cfi_endproc
 3464              	LFE75:
 3466              	_stbi__get16le:
 3467              	LFB76:
1224:thirdparty/stb_image.c **** #endif
1225:thirdparty/stb_image.c **** 
1226:thirdparty/stb_image.c **** #if defined(STBI_NO_BMP) && defined(STBI_NO_TGA) && defined(STBI_NO_GIF)
1227:thirdparty/stb_image.c **** // nothing
1228:thirdparty/stb_image.c **** #else
1229:thirdparty/stb_image.c **** static int stbi__get16le(stbi__context *s)
1230:thirdparty/stb_image.c **** {
 3468              		.loc 1 1230 1
 3469              		.cfi_startproc
 3470 1778 55       		pushl	%ebp
 3471              	LCFI177:
 3472              		.cfi_def_cfa_offset 8
 3473              		.cfi_offset 5, -8
 3474 1779 89E5     		movl	%esp, %ebp
 3475              	LCFI178:
 3476              		.cfi_def_cfa_register 5
 3477 177b 83EC28   		subl	$40, %esp
GAS LISTING C:\Users\jisu8\AppData\Local\Temp\ccTSXm7f.s 			page 89


1231:thirdparty/stb_image.c ****    int z = stbi__get8(s);
 3478              		.loc 1 1231 12
 3479 177e 8B4508   		movl	8(%ebp), %eax
 3480 1781 890424   		movl	%eax, (%esp)
 3481 1784 E822FDFF 		call	_stbi__get8
 3481      FF
 3482              		.loc 1 1231 8
 3483 1789 0FB6C0   		movzbl	%al, %eax
 3484 178c 8945F4   		movl	%eax, -12(%ebp)
1232:thirdparty/stb_image.c ****    return z + (stbi__get8(s) << 8);
 3485              		.loc 1 1232 16
 3486 178f 8B4508   		movl	8(%ebp), %eax
 3487 1792 890424   		movl	%eax, (%esp)
 3488 1795 E811FDFF 		call	_stbi__get8
 3488      FF
 3489 179a 0FB6C0   		movzbl	%al, %eax
 3490              		.loc 1 1232 30
 3491 179d C1E008   		sall	$8, %eax
 3492 17a0 89C2     		movl	%eax, %edx
 3493              		.loc 1 1232 13
 3494 17a2 8B45F4   		movl	-12(%ebp), %eax
 3495 17a5 01D0     		addl	%edx, %eax
1233:thirdparty/stb_image.c **** }
 3496              		.loc 1 1233 1
 3497 17a7 C9       		leave
 3498              	LCFI179:
 3499              		.cfi_restore 5
 3500              		.cfi_def_cfa 4, 4
 3501 17a8 C3       		ret
 3502              		.cfi_endproc
 3503              	LFE76:
 3505              	_stbi__get32le:
 3506              	LFB77:
1234:thirdparty/stb_image.c **** #endif
1235:thirdparty/stb_image.c **** 
1236:thirdparty/stb_image.c **** #ifndef STBI_NO_BMP
1237:thirdparty/stb_image.c **** static stbi__uint32 stbi__get32le(stbi__context *s)
1238:thirdparty/stb_image.c **** {
 3507              		.loc 1 1238 1
 3508              		.cfi_startproc
 3509 17a9 55       		pushl	%ebp
 3510              	LCFI180:
 3511              		.cfi_def_cfa_offset 8
 3512              		.cfi_offset 5, -8
 3513 17aa 89E5     		movl	%esp, %ebp
 3514              	LCFI181:
 3515              		.cfi_def_cfa_register 5
 3516 17ac 83EC28   		subl	$40, %esp
1239:thirdparty/stb_image.c ****    stbi__uint32 z = stbi__get16le(s);
 3517              		.loc 1 1239 21
 3518 17af 8B4508   		movl	8(%ebp), %eax
 3519 17b2 890424   		movl	%eax, (%esp)
 3520 17b5 E8BEFFFF 		call	_stbi__get16le
 3520      FF
 3521              		.loc 1 1239 17
 3522 17ba 8945F4   		movl	%eax, -12(%ebp)
1240:thirdparty/stb_image.c ****    return z + (stbi__get16le(s) << 16);
GAS LISTING C:\Users\jisu8\AppData\Local\Temp\ccTSXm7f.s 			page 90


 3523              		.loc 1 1240 16
 3524 17bd 8B4508   		movl	8(%ebp), %eax
 3525 17c0 890424   		movl	%eax, (%esp)
 3526 17c3 E8B0FFFF 		call	_stbi__get16le
 3526      FF
 3527              		.loc 1 1240 33
 3528 17c8 C1E010   		sall	$16, %eax
 3529 17cb 89C2     		movl	%eax, %edx
 3530              		.loc 1 1240 13
 3531 17cd 8B45F4   		movl	-12(%ebp), %eax
 3532 17d0 01D0     		addl	%edx, %eax
1241:thirdparty/stb_image.c **** }
 3533              		.loc 1 1241 1
 3534 17d2 C9       		leave
 3535              	LCFI182:
 3536              		.cfi_restore 5
 3537              		.cfi_def_cfa 4, 4
 3538 17d3 C3       		ret
 3539              		.cfi_endproc
 3540              	LFE77:
 3542              	_stbi__compute_y:
 3543              	LFB78:
1242:thirdparty/stb_image.c **** #endif
1243:thirdparty/stb_image.c **** 
1244:thirdparty/stb_image.c **** #define STBI__BYTECAST(x)  ((stbi_uc) ((x) & 255))  // truncate int to byte without warnings
1245:thirdparty/stb_image.c **** 
1246:thirdparty/stb_image.c **** #if defined(STBI_NO_JPEG) && defined(STBI_NO_PNG) && defined(STBI_NO_BMP) && defined(STBI_NO_PSD) &
1247:thirdparty/stb_image.c **** // nothing
1248:thirdparty/stb_image.c **** #else
1249:thirdparty/stb_image.c **** //////////////////////////////////////////////////////////////////////////////
1250:thirdparty/stb_image.c **** //
1251:thirdparty/stb_image.c **** //  generic converter from built-in img_n to req_comp
1252:thirdparty/stb_image.c **** //    individual types do this automatically as much as possible (e.g. jpeg
1253:thirdparty/stb_image.c **** //    does all cases internally since it needs to colorspace convert anyway,
1254:thirdparty/stb_image.c **** //    and it never has alpha, so very few cases ). png can automatically
1255:thirdparty/stb_image.c **** //    interleave an alpha=255 channel, but falls back to this for other cases
1256:thirdparty/stb_image.c **** //
1257:thirdparty/stb_image.c **** //  assume data buffer is malloced, so malloc a new one and free that one
1258:thirdparty/stb_image.c **** //  only failure mode is malloc failing
1259:thirdparty/stb_image.c **** 
1260:thirdparty/stb_image.c **** static stbi_uc stbi__compute_y(int r, int g, int b)
1261:thirdparty/stb_image.c **** {
 3544              		.loc 1 1261 1
 3545              		.cfi_startproc
 3546 17d4 55       		pushl	%ebp
 3547              	LCFI183:
 3548              		.cfi_def_cfa_offset 8
 3549              		.cfi_offset 5, -8
 3550 17d5 89E5     		movl	%esp, %ebp
 3551              	LCFI184:
 3552              		.cfi_def_cfa_register 5
1262:thirdparty/stb_image.c **** #if 0 // ori
1263:thirdparty/stb_image.c ****    return (stbi_uc) (((r*77) + (g*150) +  (29*b)) >> 8);
1264:thirdparty/stb_image.c **** #else // zxing (see GenericLuminanceSource.cpp:RGBToGray)
1265:thirdparty/stb_image.c ****    return (stbi_uc) ((306 * r + 601 * g + 117 * b + 0x200) >> 10);
 3553              		.loc 1 1265 27
 3554 17d7 8B4508   		movl	8(%ebp), %eax
GAS LISTING C:\Users\jisu8\AppData\Local\Temp\ccTSXm7f.s 			page 91


 3555 17da 69D03201 		imull	$306, %eax, %edx
 3555      0000
 3556              		.loc 1 1265 37
 3557 17e0 8B450C   		movl	12(%ebp), %eax
 3558 17e3 69C05902 		imull	$601, %eax, %eax
 3558      0000
 3559              		.loc 1 1265 31
 3560 17e9 01C2     		addl	%eax, %edx
 3561              		.loc 1 1265 47
 3562 17eb 8B4510   		movl	16(%ebp), %eax
 3563 17ee 6BC075   		imull	$117, %eax, %eax
 3564              		.loc 1 1265 41
 3565 17f1 01D0     		addl	%edx, %eax
 3566              		.loc 1 1265 51
 3567 17f3 05000200 		addl	$512, %eax
 3567      00
 3568              		.loc 1 1265 60
 3569 17f8 C1F80A   		sarl	$10, %eax
1266:thirdparty/stb_image.c **** #endif
1267:thirdparty/stb_image.c **** }
 3570              		.loc 1 1267 1
 3571 17fb 5D       		popl	%ebp
 3572              	LCFI185:
 3573              		.cfi_restore 5
 3574              		.cfi_def_cfa 4, 4
 3575 17fc C3       		ret
 3576              		.cfi_endproc
 3577              	LFE78:
 3578              		.section .rdata,"dr"
 3579 0075 000000   		.align 4
 3580              	LC9:
 3581 0078 7265715F 		.ascii "req_comp >= 1 && req_comp <= 4\0"
 3581      636F6D70 
 3581      203E3D20 
 3581      31202626 
 3581      20726571 
 3582              	LC10:
 3583 0097 3000     		.ascii "0\0"
 3584              		.text
 3586              	_stbi__convert_format:
 3587              	LFB79:
1268:thirdparty/stb_image.c **** #endif
1269:thirdparty/stb_image.c **** 
1270:thirdparty/stb_image.c **** #if defined(STBI_NO_PNG) && defined(STBI_NO_BMP) && defined(STBI_NO_PSD) && defined(STBI_NO_TGA) &&
1271:thirdparty/stb_image.c **** // nothing
1272:thirdparty/stb_image.c **** #else
1273:thirdparty/stb_image.c **** static unsigned char *stbi__convert_format(unsigned char *data, int img_n, int req_comp, unsigned i
1274:thirdparty/stb_image.c **** {
 3588              		.loc 1 1274 1
 3589              		.cfi_startproc
 3590 17fd 55       		pushl	%ebp
 3591              	LCFI186:
 3592              		.cfi_def_cfa_offset 8
 3593              		.cfi_offset 5, -8
 3594 17fe 89E5     		movl	%esp, %ebp
 3595              	LCFI187:
 3596              		.cfi_def_cfa_register 5
GAS LISTING C:\Users\jisu8\AppData\Local\Temp\ccTSXm7f.s 			page 92


 3597 1800 83EC38   		subl	$56, %esp
1275:thirdparty/stb_image.c ****    int i,j;
1276:thirdparty/stb_image.c ****    unsigned char *good;
1277:thirdparty/stb_image.c **** 
1278:thirdparty/stb_image.c ****    if (req_comp == img_n) return data;
 3598              		.loc 1 1278 7
 3599 1803 8B4510   		movl	16(%ebp), %eax
 3600 1806 3B450C   		cmpl	12(%ebp), %eax
 3601 1809 7508     		jne	L203
 3602              		.loc 1 1278 34 discriminator 1
 3603 180b 8B4508   		movl	8(%ebp), %eax
 3604 180e E9AE0400 		jmp	L204
 3604      00
 3605              	L203:
1279:thirdparty/stb_image.c ****    STBI_ASSERT(req_comp >= 1 && req_comp <= 4);
 3606              		.loc 1 1279 4
 3607 1813 837D1000 		cmpl	$0, 16(%ebp)
 3608 1817 7E06     		jle	L205
 3609              		.loc 1 1279 4 is_stmt 0 discriminator 1
 3610 1819 837D1004 		cmpl	$4, 16(%ebp)
 3611 181d 7E1E     		jle	L251
 3612              	L205:
 3613              		.loc 1 1279 4 discriminator 4
 3614 181f C7442408 		movl	$1279, 8(%esp)
 3614      FF040000 
 3615 1827 C7442404 		movl	$LC2, 4(%esp)
 3615      1C000000 
 3616 182f C7042478 		movl	$LC9, (%esp)
 3616      000000
 3617 1836 E8000000 		call	__assert
 3617      00
 3618 183b EB01     		jmp	L208
 3619              	L251:
 3620              		.loc 1 1279 4
 3621 183d 90       		nop
 3622              	L208:
1280:thirdparty/stb_image.c **** 
1281:thirdparty/stb_image.c ****    good = (unsigned char *) stbi__malloc_mad3(req_comp, x, y, 0);
 3623              		.loc 1 1281 29 is_stmt 1
 3624 183e 8B5518   		movl	24(%ebp), %edx
 3625 1841 8B4514   		movl	20(%ebp), %eax
 3626 1844 C744240C 		movl	$0, 12(%esp)
 3626      00000000 
 3627 184c 89542408 		movl	%edx, 8(%esp)
 3628 1850 89442404 		movl	%eax, 4(%esp)
 3629 1854 8B4510   		movl	16(%ebp), %eax
 3630 1857 890424   		movl	%eax, (%esp)
 3631 185a E820EBFF 		call	_stbi__malloc_mad3
 3631      FF
 3632 185f 8945E4   		movl	%eax, -28(%ebp)
1282:thirdparty/stb_image.c ****    if (good == NULL) {
 3633              		.loc 1 1282 7
 3634 1862 837DE400 		cmpl	$0, -28(%ebp)
 3635 1866 7521     		jne	L209
1283:thirdparty/stb_image.c ****       STBI_FREE(data);
 3636              		.loc 1 1283 7
 3637 1868 8B4508   		movl	8(%ebp), %eax
GAS LISTING C:\Users\jisu8\AppData\Local\Temp\ccTSXm7f.s 			page 93


 3638 186b 890424   		movl	%eax, (%esp)
 3639 186e E8000000 		call	_free
 3639      00
1284:thirdparty/stb_image.c ****       return stbi__errpuc("outofmem", "Out of memory");
 3640              		.loc 1 1284 14
 3641 1873 C7042413 		movl	$LC1, (%esp)
 3641      000000
 3642 187a E807E9FF 		call	_stbi__err
 3642      FF
 3643 187f B8000000 		movl	$0, %eax
 3643      00
 3644 1884 E9380400 		jmp	L204
 3644      00
 3645              	L209:
1285:thirdparty/stb_image.c ****    }
1286:thirdparty/stb_image.c **** 
1287:thirdparty/stb_image.c ****    for (j=0; j < (int) y; ++j) {
 3646              		.loc 1 1287 10
 3647 1889 C745F000 		movl	$0, -16(%ebp)
 3647      000000
 3648              		.loc 1 1287 4
 3649 1890 E9120400 		jmp	L210
 3649      00
 3650              	L250:
 3651              	LBB12:
1288:thirdparty/stb_image.c ****       unsigned char *src  = data + j * x * img_n   ;
 3652              		.loc 1 1288 38
 3653 1895 8B45F0   		movl	-16(%ebp), %eax
 3654 1898 0FAF4514 		imull	20(%ebp), %eax
 3655 189c 89C2     		movl	%eax, %edx
 3656              		.loc 1 1288 42
 3657 189e 8B450C   		movl	12(%ebp), %eax
 3658 18a1 0FAFD0   		imull	%eax, %edx
 3659              		.loc 1 1288 22
 3660 18a4 8B4508   		movl	8(%ebp), %eax
 3661 18a7 01D0     		addl	%edx, %eax
 3662 18a9 8945EC   		movl	%eax, -20(%ebp)
1289:thirdparty/stb_image.c ****       unsigned char *dest = good + j * x * req_comp;
 3663              		.loc 1 1289 38
 3664 18ac 8B45F0   		movl	-16(%ebp), %eax
 3665 18af 0FAF4514 		imull	20(%ebp), %eax
 3666 18b3 89C2     		movl	%eax, %edx
 3667              		.loc 1 1289 42
 3668 18b5 8B4510   		movl	16(%ebp), %eax
 3669 18b8 0FAFD0   		imull	%eax, %edx
 3670              		.loc 1 1289 22
 3671 18bb 8B45E4   		movl	-28(%ebp), %eax
 3672 18be 01D0     		addl	%edx, %eax
 3673 18c0 8945E8   		movl	%eax, -24(%ebp)
1290:thirdparty/stb_image.c **** 
1291:thirdparty/stb_image.c ****       #define STBI__COMBO(a,b)  ((a)*8+(b))
1292:thirdparty/stb_image.c ****       #define STBI__CASE(a,b)   case STBI__COMBO(a,b): for(i=x-1; i >= 0; --i, src += a, dest += b)
1293:thirdparty/stb_image.c ****       // convert source image with img_n components to one with req_comp components;
1294:thirdparty/stb_image.c ****       // avoid switch per pixel, so use switch per scanline and massive macros
1295:thirdparty/stb_image.c ****       switch (STBI__COMBO(img_n, req_comp)) {
 3674              		.loc 1 1295 15
 3675 18c3 8B450C   		movl	12(%ebp), %eax
GAS LISTING C:\Users\jisu8\AppData\Local\Temp\ccTSXm7f.s 			page 94


 3676 18c6 8D14C500 		leal	0(,%eax,8), %edx
 3676      000000
 3677 18cd 8B4510   		movl	16(%ebp), %eax
 3678 18d0 01D0     		addl	%edx, %eax
 3679              		.loc 1 1295 7
 3680 18d2 83E80A   		subl	$10, %eax
 3681 18d5 83F819   		cmpl	$25, %eax
 3682 18d8 0F87A903 		ja	L211
 3682      0000
 3683 18de 8B04859C 		movl	L213(,%eax,4), %eax
 3683      000000
 3684 18e5 FFE0     		jmp	*%eax
 3685              		.section .rdata,"dr"
 3686 0099 000000   		.align 4
 3687              	L213:
 3688 009c E7180000 		.long	L224
 3689 00a0 1D190000 		.long	L223
 3690 00a4 60190000 		.long	L222
 3691 00a8 871C0000 		.long	L211
 3692 00ac 871C0000 		.long	L211
 3693 00b0 871C0000 		.long	L211
 3694 00b4 871C0000 		.long	L211
 3695 00b8 AC190000 		.long	L221
 3696 00bc 871C0000 		.long	L211
 3697 00c0 D9190000 		.long	L220
 3698 00c4 1C1A0000 		.long	L219
 3699 00c8 871C0000 		.long	L211
 3700 00cc 871C0000 		.long	L211
 3701 00d0 871C0000 		.long	L211
 3702 00d4 871C0000 		.long	L211
 3703 00d8 C21A0000 		.long	L218
 3704 00dc 1C1B0000 		.long	L217
 3705 00e0 871C0000 		.long	L211
 3706 00e4 6E1A0000 		.long	L216
 3707 00e8 871C0000 		.long	L211
 3708 00ec 871C0000 		.long	L211
 3709 00f0 871C0000 		.long	L211
 3710 00f4 871C0000 		.long	L211
 3711 00f8 7F1B0000 		.long	L215
 3712 00fc D91B0000 		.long	L214
 3713 0100 3F1C0000 		.long	L212
 3714              		.text
 3715              	L224:
1296:thirdparty/stb_image.c ****          STBI__CASE(1,2) { dest[0]=src[0]; dest[1]=255;                                     } break
 3716              		.loc 1 1296 10
 3717 18e7 8B4514   		movl	20(%ebp), %eax
 3718 18ea 83E801   		subl	$1, %eax
 3719 18ed 8945F4   		movl	%eax, -12(%ebp)
 3720 18f0 EB20     		jmp	L225
 3721              	L226:
 3722              		.loc 1 1296 39 discriminator 3
 3723 18f2 8B45EC   		movl	-20(%ebp), %eax
 3724 18f5 0FB610   		movzbl	(%eax), %edx
 3725              		.loc 1 1296 35 discriminator 3
 3726 18f8 8B45E8   		movl	-24(%ebp), %eax
 3727 18fb 8810     		movb	%dl, (%eax)
 3728              		.loc 1 1296 48 discriminator 3
GAS LISTING C:\Users\jisu8\AppData\Local\Temp\ccTSXm7f.s 			page 95


 3729 18fd 8B45E8   		movl	-24(%ebp), %eax
 3730 1900 83C001   		addl	$1, %eax
 3731              		.loc 1 1296 51 discriminator 3
 3732 1903 C600FF   		movb	$-1, (%eax)
 3733              		.loc 1 1296 10 discriminator 3
 3734 1906 836DF401 		subl	$1, -12(%ebp)
 3735 190a 8345EC01 		addl	$1, -20(%ebp)
 3736 190e 8345E802 		addl	$2, -24(%ebp)
 3737              	L225:
 3738              		.loc 1 1296 10 is_stmt 0 discriminator 1
 3739 1912 837DF400 		cmpl	$0, -12(%ebp)
 3740 1916 79DA     		jns	L226
 3741              		.loc 1 1296 10
 3742 1918 E9860300 		jmp	L227
 3742      00
 3743              	L223:
1297:thirdparty/stb_image.c ****          STBI__CASE(1,3) { dest[0]=dest[1]=dest[2]=src[0];                                  } break
 3744              		.loc 1 1297 10 is_stmt 1
 3745 191d 8B4514   		movl	20(%ebp), %eax
 3746 1920 83E801   		subl	$1, %eax
 3747 1923 8945F4   		movl	%eax, -12(%ebp)
 3748 1926 EB2D     		jmp	L228
 3749              	L229:
 3750              		.loc 1 1297 48 discriminator 3
 3751 1928 8B45E8   		movl	-24(%ebp), %eax
 3752 192b 8D5002   		leal	2(%eax), %edx
 3753              		.loc 1 1297 55 discriminator 3
 3754 192e 8B45EC   		movl	-20(%ebp), %eax
 3755 1931 0FB600   		movzbl	(%eax), %eax
 3756              		.loc 1 1297 51 discriminator 3
 3757 1934 8802     		movb	%al, (%edx)
 3758              		.loc 1 1297 40 discriminator 3
 3759 1936 8B45E8   		movl	-24(%ebp), %eax
 3760 1939 83C001   		addl	$1, %eax
 3761              		.loc 1 1297 48 discriminator 3
 3762 193c 0FB612   		movzbl	(%edx), %edx
 3763              		.loc 1 1297 43 discriminator 3
 3764 193f 8810     		movb	%dl, (%eax)
 3765              		.loc 1 1297 40 discriminator 3
 3766 1941 0FB610   		movzbl	(%eax), %edx
 3767              		.loc 1 1297 35 discriminator 3
 3768 1944 8B45E8   		movl	-24(%ebp), %eax
 3769 1947 8810     		movb	%dl, (%eax)
 3770              		.loc 1 1297 10 discriminator 3
 3771 1949 836DF401 		subl	$1, -12(%ebp)
 3772 194d 8345EC01 		addl	$1, -20(%ebp)
 3773 1951 8345E803 		addl	$3, -24(%ebp)
 3774              	L228:
 3775              		.loc 1 1297 10 is_stmt 0 discriminator 1
 3776 1955 837DF400 		cmpl	$0, -12(%ebp)
 3777 1959 79CD     		jns	L229
 3778              		.loc 1 1297 10
 3779 195b E9430300 		jmp	L227
 3779      00
 3780              	L222:
1298:thirdparty/stb_image.c ****          STBI__CASE(1,4) { dest[0]=dest[1]=dest[2]=src[0]; dest[3]=255;                     } break
 3781              		.loc 1 1298 10 is_stmt 1
GAS LISTING C:\Users\jisu8\AppData\Local\Temp\ccTSXm7f.s 			page 96


 3782 1960 8B4514   		movl	20(%ebp), %eax
 3783 1963 83E801   		subl	$1, %eax
 3784 1966 8945F4   		movl	%eax, -12(%ebp)
 3785 1969 EB36     		jmp	L230
 3786              	L231:
 3787              		.loc 1 1298 48 discriminator 3
 3788 196b 8B45E8   		movl	-24(%ebp), %eax
 3789 196e 8D5002   		leal	2(%eax), %edx
 3790              		.loc 1 1298 55 discriminator 3
 3791 1971 8B45EC   		movl	-20(%ebp), %eax
 3792 1974 0FB600   		movzbl	(%eax), %eax
 3793              		.loc 1 1298 51 discriminator 3
 3794 1977 8802     		movb	%al, (%edx)
 3795              		.loc 1 1298 40 discriminator 3
 3796 1979 8B45E8   		movl	-24(%ebp), %eax
 3797 197c 83C001   		addl	$1, %eax
 3798              		.loc 1 1298 48 discriminator 3
 3799 197f 0FB612   		movzbl	(%edx), %edx
 3800              		.loc 1 1298 43 discriminator 3
 3801 1982 8810     		movb	%dl, (%eax)
 3802              		.loc 1 1298 40 discriminator 3
 3803 1984 0FB610   		movzbl	(%eax), %edx
 3804              		.loc 1 1298 35 discriminator 3
 3805 1987 8B45E8   		movl	-24(%ebp), %eax
 3806 198a 8810     		movb	%dl, (%eax)
 3807              		.loc 1 1298 64 discriminator 3
 3808 198c 8B45E8   		movl	-24(%ebp), %eax
 3809 198f 83C003   		addl	$3, %eax
 3810              		.loc 1 1298 67 discriminator 3
 3811 1992 C600FF   		movb	$-1, (%eax)
 3812              		.loc 1 1298 10 discriminator 3
 3813 1995 836DF401 		subl	$1, -12(%ebp)
 3814 1999 8345EC01 		addl	$1, -20(%ebp)
 3815 199d 8345E804 		addl	$4, -24(%ebp)
 3816              	L230:
 3817              		.loc 1 1298 10 is_stmt 0 discriminator 1
 3818 19a1 837DF400 		cmpl	$0, -12(%ebp)
 3819 19a5 79C4     		jns	L231
 3820              		.loc 1 1298 10
 3821 19a7 E9F70200 		jmp	L227
 3821      00
 3822              	L221:
1299:thirdparty/stb_image.c ****          STBI__CASE(2,1) { dest[0]=src[0];                                                  } break
 3823              		.loc 1 1299 10 is_stmt 1
 3824 19ac 8B4514   		movl	20(%ebp), %eax
 3825 19af 83E801   		subl	$1, %eax
 3826 19b2 8945F4   		movl	%eax, -12(%ebp)
 3827 19b5 EB17     		jmp	L232
 3828              	L233:
 3829              		.loc 1 1299 39 discriminator 3
 3830 19b7 8B45EC   		movl	-20(%ebp), %eax
 3831 19ba 0FB610   		movzbl	(%eax), %edx
 3832              		.loc 1 1299 35 discriminator 3
 3833 19bd 8B45E8   		movl	-24(%ebp), %eax
 3834 19c0 8810     		movb	%dl, (%eax)
 3835              		.loc 1 1299 10 discriminator 3
 3836 19c2 836DF401 		subl	$1, -12(%ebp)
GAS LISTING C:\Users\jisu8\AppData\Local\Temp\ccTSXm7f.s 			page 97


 3837 19c6 8345EC02 		addl	$2, -20(%ebp)
 3838 19ca 8345E801 		addl	$1, -24(%ebp)
 3839              	L232:
 3840              		.loc 1 1299 10 is_stmt 0 discriminator 1
 3841 19ce 837DF400 		cmpl	$0, -12(%ebp)
 3842 19d2 79E3     		jns	L233
 3843              		.loc 1 1299 10
 3844 19d4 E9CA0200 		jmp	L227
 3844      00
 3845              	L220:
1300:thirdparty/stb_image.c ****          STBI__CASE(2,3) { dest[0]=dest[1]=dest[2]=src[0];                                  } break
 3846              		.loc 1 1300 10 is_stmt 1
 3847 19d9 8B4514   		movl	20(%ebp), %eax
 3848 19dc 83E801   		subl	$1, %eax
 3849 19df 8945F4   		movl	%eax, -12(%ebp)
 3850 19e2 EB2D     		jmp	L234
 3851              	L235:
 3852              		.loc 1 1300 48 discriminator 3
 3853 19e4 8B45E8   		movl	-24(%ebp), %eax
 3854 19e7 8D5002   		leal	2(%eax), %edx
 3855              		.loc 1 1300 55 discriminator 3
 3856 19ea 8B45EC   		movl	-20(%ebp), %eax
 3857 19ed 0FB600   		movzbl	(%eax), %eax
 3858              		.loc 1 1300 51 discriminator 3
 3859 19f0 8802     		movb	%al, (%edx)
 3860              		.loc 1 1300 40 discriminator 3
 3861 19f2 8B45E8   		movl	-24(%ebp), %eax
 3862 19f5 83C001   		addl	$1, %eax
 3863              		.loc 1 1300 48 discriminator 3
 3864 19f8 0FB612   		movzbl	(%edx), %edx
 3865              		.loc 1 1300 43 discriminator 3
 3866 19fb 8810     		movb	%dl, (%eax)
 3867              		.loc 1 1300 40 discriminator 3
 3868 19fd 0FB610   		movzbl	(%eax), %edx
 3869              		.loc 1 1300 35 discriminator 3
 3870 1a00 8B45E8   		movl	-24(%ebp), %eax
 3871 1a03 8810     		movb	%dl, (%eax)
 3872              		.loc 1 1300 10 discriminator 3
 3873 1a05 836DF401 		subl	$1, -12(%ebp)
 3874 1a09 8345EC02 		addl	$2, -20(%ebp)
 3875 1a0d 8345E803 		addl	$3, -24(%ebp)
 3876              	L234:
 3877              		.loc 1 1300 10 is_stmt 0 discriminator 1
 3878 1a11 837DF400 		cmpl	$0, -12(%ebp)
 3879 1a15 79CD     		jns	L235
 3880              		.loc 1 1300 10
 3881 1a17 E9870200 		jmp	L227
 3881      00
 3882              	L219:
1301:thirdparty/stb_image.c ****          STBI__CASE(2,4) { dest[0]=dest[1]=dest[2]=src[0]; dest[3]=src[1];                  } break
 3883              		.loc 1 1301 10 is_stmt 1
 3884 1a1c 8B4514   		movl	20(%ebp), %eax
 3885 1a1f 83E801   		subl	$1, %eax
 3886 1a22 8945F4   		movl	%eax, -12(%ebp)
 3887 1a25 EB3C     		jmp	L236
 3888              	L237:
 3889              		.loc 1 1301 48 discriminator 3
GAS LISTING C:\Users\jisu8\AppData\Local\Temp\ccTSXm7f.s 			page 98


 3890 1a27 8B45E8   		movl	-24(%ebp), %eax
 3891 1a2a 8D5002   		leal	2(%eax), %edx
 3892              		.loc 1 1301 55 discriminator 3
 3893 1a2d 8B45EC   		movl	-20(%ebp), %eax
 3894 1a30 0FB600   		movzbl	(%eax), %eax
 3895              		.loc 1 1301 51 discriminator 3
 3896 1a33 8802     		movb	%al, (%edx)
 3897              		.loc 1 1301 40 discriminator 3
 3898 1a35 8B45E8   		movl	-24(%ebp), %eax
 3899 1a38 83C001   		addl	$1, %eax
 3900              		.loc 1 1301 48 discriminator 3
 3901 1a3b 0FB612   		movzbl	(%edx), %edx
 3902              		.loc 1 1301 43 discriminator 3
 3903 1a3e 8810     		movb	%dl, (%eax)
 3904              		.loc 1 1301 40 discriminator 3
 3905 1a40 0FB610   		movzbl	(%eax), %edx
 3906              		.loc 1 1301 35 discriminator 3
 3907 1a43 8B45E8   		movl	-24(%ebp), %eax
 3908 1a46 8810     		movb	%dl, (%eax)
 3909              		.loc 1 1301 64 discriminator 3
 3910 1a48 8B45E8   		movl	-24(%ebp), %eax
 3911 1a4b 8D5003   		leal	3(%eax), %edx
 3912              		.loc 1 1301 67 discriminator 3
 3913 1a4e 8B45EC   		movl	-20(%ebp), %eax
 3914 1a51 0FB64001 		movzbl	1(%eax), %eax
 3915 1a55 8802     		movb	%al, (%edx)
 3916              		.loc 1 1301 10 discriminator 3
 3917 1a57 836DF401 		subl	$1, -12(%ebp)
 3918 1a5b 8345EC02 		addl	$2, -20(%ebp)
 3919 1a5f 8345E804 		addl	$4, -24(%ebp)
 3920              	L236:
 3921              		.loc 1 1301 10 is_stmt 0 discriminator 1
 3922 1a63 837DF400 		cmpl	$0, -12(%ebp)
 3923 1a67 79BE     		jns	L237
 3924              		.loc 1 1301 10
 3925 1a69 E9350200 		jmp	L227
 3925      00
 3926              	L216:
1302:thirdparty/stb_image.c ****          STBI__CASE(3,4) { dest[0]=src[0];dest[1]=src[1];dest[2]=src[2];dest[3]=255;        } break
 3927              		.loc 1 1302 10 is_stmt 1
 3928 1a6e 8B4514   		movl	20(%ebp), %eax
 3929 1a71 83E801   		subl	$1, %eax
 3930 1a74 8945F4   		movl	%eax, -12(%ebp)
 3931 1a77 EB3E     		jmp	L238
 3932              	L239:
 3933              		.loc 1 1302 39 discriminator 3
 3934 1a79 8B45EC   		movl	-20(%ebp), %eax
 3935 1a7c 0FB610   		movzbl	(%eax), %edx
 3936              		.loc 1 1302 35 discriminator 3
 3937 1a7f 8B45E8   		movl	-24(%ebp), %eax
 3938 1a82 8810     		movb	%dl, (%eax)
 3939              		.loc 1 1302 47 discriminator 3
 3940 1a84 8B45E8   		movl	-24(%ebp), %eax
 3941 1a87 8D5001   		leal	1(%eax), %edx
 3942              		.loc 1 1302 50 discriminator 3
 3943 1a8a 8B45EC   		movl	-20(%ebp), %eax
 3944 1a8d 0FB64001 		movzbl	1(%eax), %eax
GAS LISTING C:\Users\jisu8\AppData\Local\Temp\ccTSXm7f.s 			page 99


 3945 1a91 8802     		movb	%al, (%edx)
 3946              		.loc 1 1302 62 discriminator 3
 3947 1a93 8B45E8   		movl	-24(%ebp), %eax
 3948 1a96 8D5002   		leal	2(%eax), %edx
 3949              		.loc 1 1302 65 discriminator 3
 3950 1a99 8B45EC   		movl	-20(%ebp), %eax
 3951 1a9c 0FB64002 		movzbl	2(%eax), %eax
 3952 1aa0 8802     		movb	%al, (%edx)
 3953              		.loc 1 1302 77 discriminator 3
 3954 1aa2 8B45E8   		movl	-24(%ebp), %eax
 3955 1aa5 83C003   		addl	$3, %eax
 3956              		.loc 1 1302 80 discriminator 3
 3957 1aa8 C600FF   		movb	$-1, (%eax)
 3958              		.loc 1 1302 10 discriminator 3
 3959 1aab 836DF401 		subl	$1, -12(%ebp)
 3960 1aaf 8345EC03 		addl	$3, -20(%ebp)
 3961 1ab3 8345E804 		addl	$4, -24(%ebp)
 3962              	L238:
 3963              		.loc 1 1302 10 is_stmt 0 discriminator 1
 3964 1ab7 837DF400 		cmpl	$0, -12(%ebp)
 3965 1abb 79BC     		jns	L239
 3966              		.loc 1 1302 10
 3967 1abd E9E10100 		jmp	L227
 3967      00
 3968              	L218:
1303:thirdparty/stb_image.c ****          STBI__CASE(3,1) { dest[0]=stbi__compute_y(src[0],src[1],src[2]);                   } break
 3969              		.loc 1 1303 10 is_stmt 1
 3970 1ac2 8B4514   		movl	20(%ebp), %eax
 3971 1ac5 83E801   		subl	$1, %eax
 3972 1ac8 8945F4   		movl	%eax, -12(%ebp)
 3973 1acb EB44     		jmp	L240
 3974              	L241:
 3975              		.loc 1 1303 69 discriminator 3
 3976 1acd 8B45EC   		movl	-20(%ebp), %eax
 3977 1ad0 83C002   		addl	$2, %eax
 3978 1ad3 0FB600   		movzbl	(%eax), %eax
 3979              		.loc 1 1303 36 discriminator 3
 3980 1ad6 0FB6C8   		movzbl	%al, %ecx
 3981              		.loc 1 1303 62 discriminator 3
 3982 1ad9 8B45EC   		movl	-20(%ebp), %eax
 3983 1adc 83C001   		addl	$1, %eax
 3984 1adf 0FB600   		movzbl	(%eax), %eax
 3985              		.loc 1 1303 36 discriminator 3
 3986 1ae2 0FB6D0   		movzbl	%al, %edx
 3987              		.loc 1 1303 55 discriminator 3
 3988 1ae5 8B45EC   		movl	-20(%ebp), %eax
 3989 1ae8 0FB600   		movzbl	(%eax), %eax
 3990              		.loc 1 1303 36 discriminator 3
 3991 1aeb 0FB6C0   		movzbl	%al, %eax
 3992 1aee 894C2408 		movl	%ecx, 8(%esp)
 3993 1af2 89542404 		movl	%edx, 4(%esp)
 3994 1af6 890424   		movl	%eax, (%esp)
 3995 1af9 E8D6FCFF 		call	_stbi__compute_y
 3995      FF
 3996 1afe 89C2     		movl	%eax, %edx
 3997              		.loc 1 1303 35 discriminator 3
 3998 1b00 8B45E8   		movl	-24(%ebp), %eax
GAS LISTING C:\Users\jisu8\AppData\Local\Temp\ccTSXm7f.s 			page 100


 3999 1b03 8810     		movb	%dl, (%eax)
 4000              		.loc 1 1303 10 discriminator 3
 4001 1b05 836DF401 		subl	$1, -12(%ebp)
 4002 1b09 8345EC03 		addl	$3, -20(%ebp)
 4003 1b0d 8345E801 		addl	$1, -24(%ebp)
 4004              	L240:
 4005              		.loc 1 1303 10 is_stmt 0 discriminator 1
 4006 1b11 837DF400 		cmpl	$0, -12(%ebp)
 4007 1b15 79B6     		jns	L241
 4008              		.loc 1 1303 10
 4009 1b17 E9870100 		jmp	L227
 4009      00
 4010              	L217:
1304:thirdparty/stb_image.c ****          STBI__CASE(3,2) { dest[0]=stbi__compute_y(src[0],src[1],src[2]); dest[1] = 255;    } break
 4011              		.loc 1 1304 10 is_stmt 1
 4012 1b1c 8B4514   		movl	20(%ebp), %eax
 4013 1b1f 83E801   		subl	$1, %eax
 4014 1b22 8945F4   		movl	%eax, -12(%ebp)
 4015 1b25 EB4D     		jmp	L242
 4016              	L243:
 4017              		.loc 1 1304 69 discriminator 3
 4018 1b27 8B45EC   		movl	-20(%ebp), %eax
 4019 1b2a 83C002   		addl	$2, %eax
 4020 1b2d 0FB600   		movzbl	(%eax), %eax
 4021              		.loc 1 1304 36 discriminator 3
 4022 1b30 0FB6C8   		movzbl	%al, %ecx
 4023              		.loc 1 1304 62 discriminator 3
 4024 1b33 8B45EC   		movl	-20(%ebp), %eax
 4025 1b36 83C001   		addl	$1, %eax
 4026 1b39 0FB600   		movzbl	(%eax), %eax
 4027              		.loc 1 1304 36 discriminator 3
 4028 1b3c 0FB6D0   		movzbl	%al, %edx
 4029              		.loc 1 1304 55 discriminator 3
 4030 1b3f 8B45EC   		movl	-20(%ebp), %eax
 4031 1b42 0FB600   		movzbl	(%eax), %eax
 4032              		.loc 1 1304 36 discriminator 3
 4033 1b45 0FB6C0   		movzbl	%al, %eax
 4034 1b48 894C2408 		movl	%ecx, 8(%esp)
 4035 1b4c 89542404 		movl	%edx, 4(%esp)
 4036 1b50 890424   		movl	%eax, (%esp)
 4037 1b53 E87CFCFF 		call	_stbi__compute_y
 4037      FF
 4038 1b58 89C2     		movl	%eax, %edx
 4039              		.loc 1 1304 35 discriminator 3
 4040 1b5a 8B45E8   		movl	-24(%ebp), %eax
 4041 1b5d 8810     		movb	%dl, (%eax)
 4042              		.loc 1 1304 79 discriminator 3
 4043 1b5f 8B45E8   		movl	-24(%ebp), %eax
 4044 1b62 83C001   		addl	$1, %eax
 4045              		.loc 1 1304 83 discriminator 3
 4046 1b65 C600FF   		movb	$-1, (%eax)
 4047              		.loc 1 1304 10 discriminator 3
 4048 1b68 836DF401 		subl	$1, -12(%ebp)
 4049 1b6c 8345EC03 		addl	$3, -20(%ebp)
 4050 1b70 8345E802 		addl	$2, -24(%ebp)
 4051              	L242:
 4052              		.loc 1 1304 10 is_stmt 0 discriminator 1
GAS LISTING C:\Users\jisu8\AppData\Local\Temp\ccTSXm7f.s 			page 101


 4053 1b74 837DF400 		cmpl	$0, -12(%ebp)
 4054 1b78 79AD     		jns	L243
