GAS LISTING C:\Users\jisu8\AppData\Local\Temp\ccWzj0NA.s 			page 1


   1              		.file	"TextDecoder.c"
   2              		.text
   3              	Ltext0:
   4              		.globl	_Append
   6              	_Append:
   7              	LFB2:
   8              		.file 1 "src/TextDecoder.c"
   1:src/TextDecoder.c **** /*
   2:src/TextDecoder.c **** * Copyright 2016 Nu-book Inc.
   3:src/TextDecoder.c **** *
   4:src/TextDecoder.c **** * Licensed under the Apache License, Version 2.0 (the "License");
   5:src/TextDecoder.c **** * you may not use this file except in compliance with the License.
   6:src/TextDecoder.c **** * You may obtain a copy of the License at
   7:src/TextDecoder.c **** *
   8:src/TextDecoder.c **** *      http://www.apache.org/licenses/LICENSE-2.0
   9:src/TextDecoder.c **** *
  10:src/TextDecoder.c **** * Unless required by applicable law or agreed to in writing, software
  11:src/TextDecoder.c **** * distributed under the License is distributed on an "AS IS" BASIS,
  12:src/TextDecoder.c **** * WITHOUT WARRANTIES OR CONDITIONS OF ANY KIND, either express or implied.
  13:src/TextDecoder.c **** * See the License for the specific language governing permissions and
  14:src/TextDecoder.c **** * limitations under the License.
  15:src/TextDecoder.c **** */
  16:src/TextDecoder.c **** 
  17:src/TextDecoder.c **** #include "TextDecoder.h"
  18:src/TextDecoder.c **** #include "CharacterSet.h"
  19:src/TextDecoder.c **** #include <string.h>
  20:src/TextDecoder.c **** #include <stdint.h>
  21:src/TextDecoder.c **** 
  22:src/TextDecoder.c **** void Append(unsigned char * str, const uint8_t* bytes, size_t length, CharacterSet_t charset)
  23:src/TextDecoder.c **** {
   9              		.loc 1 23 1
  10              		.cfi_startproc
  11 0000 55       		pushl	%ebp
  12              	LCFI0:
  13              		.cfi_def_cfa_offset 8
  14              		.cfi_offset 5, -8
  15 0001 89E5     		movl	%esp, %ebp
  16              	LCFI1:
  17              		.cfi_def_cfa_register 5
  18 0003 83EC18   		subl	$24, %esp
  24:src/TextDecoder.c **** 	strncat(str, bytes, length);
  19              		.loc 1 24 2
  20 0006 8B4510   		movl	16(%ebp), %eax
  21 0009 89442408 		movl	%eax, 8(%esp)
  22 000d 8B450C   		movl	12(%ebp), %eax
  23 0010 89442404 		movl	%eax, 4(%esp)
  24 0014 8B4508   		movl	8(%ebp), %eax
  25 0017 890424   		movl	%eax, (%esp)
  26 001a E8000000 		call	_strncat
  26      00
  25:src/TextDecoder.c **** 	return;
  27              		.loc 1 25 2
  28 001f 90       		nop
  26:src/TextDecoder.c **** }
  29              		.loc 1 26 1
  30 0020 C9       		leave
  31              	LCFI2:
GAS LISTING C:\Users\jisu8\AppData\Local\Temp\ccWzj0NA.s 			page 2


  32              		.cfi_restore 5
  33              		.cfi_def_cfa 4, 4
  34 0021 C3       		ret
  35              		.cfi_endproc
  36              	LFE2:
  37              	Letext0:
  38              		.file 2 "src/CharacterSet.h"
  39              		.file 3 "D:/3.tools/mingw/mingw32/i686-w64-mingw32/include/crtdefs.h"
  40              		.file 4 "D:/3.tools/mingw/mingw32/i686-w64-mingw32/include/stdint.h"